   1              		.file	"datalink.c"
   2              		.global	__floatsisf
   3              		.global	__divsf3
   4              		.global	__extendsfdf2
   5              		.global	__divdf3
   6              		.global	__muldf3
   7              		.global	__truncdfsf2
   8              		.global	__addsf3
   9              		.global	__subsf3
  10              		.global	__fixunssfsi
  11              		.text
  12              		.align	2
  13              		.global	dl_parse_msg
  15              	dl_parse_msg:
  16              		@ Function supports interworking.
  17              		@ args = 0, pretend = 0, frame = 20
  18              		@ frame_needed = 1, uses_anonymous_args = 0
  19 0000 0DC0A0E1 		mov	ip, sp
  20 0004 F0DF2DE9 		stmfd	sp!, {r4, r5, r6, r7, r8, r9, sl, fp, ip, lr, pc}
  21 0008 04B04CE2 		sub	fp, ip, #4
  22 000c 14D04DE2 		sub	sp, sp, #20
  23 0010 5C549FE5 		ldr	r5, .L64+24
  24 0014 0130D5E5 		ldrb	r3, [r5, #1]	@ zero_extendqisi2
  25 0018 010053E3 		cmp	r3, #1
  26 001c 3F00001A 		bne	.L2
  27 0020 040095E5 		ldr	r0, [r5, #4]
  28 0024 FEFFFFEB 		bl	__floatsisf
  29 0028 48149FE5 		ldr	r1, .L64+28
  30 002c FEFFFFEB 		bl	__divsf3
  31 0030 0080A0E1 		mov	r8, r0
  32 0034 080095E5 		ldr	r0, [r5, #8]
  33 0038 FEFFFFEB 		bl	__floatsisf
  34 003c 34149FE5 		ldr	r1, .L64+28
  35 0040 FEFFFFEB 		bl	__divsf3
  36 0044 00A0A0E1 		mov	sl, r0
  37 0048 0C0095E5 		ldr	r0, [r5, #12]
  38 004c FEFFFFEB 		bl	__floatsisf
  39 0050 20149FE5 		ldr	r1, .L64+28
  40 0054 FEFFFFEB 		bl	__divsf3
  41 0058 0090A0E1 		mov	r9, r0
  42 005c F200D5E1 		ldrsh	r0, [r5, #2]
  43 0060 FEFFFFEB 		bl	__floatsisf
  44 0064 FEFFFFEB 		bl	__extendsfdf2
  45 0068 FB2F8FE2 		adr	r2, .L64
  46 006c 0C0092E8 		ldmia	r2, {r2-r3}
  47 0070 FEFFFFEB 		bl	__divdf3
  48 0074 FA2F8FE2 		adr	r2, .L64+8
  49 0078 0C0092E8 		ldmia	r2, {r2-r3}
  50 007c FEFFFFEB 		bl	__divdf3
  51 0080 F92F8FE2 		adr	r2, .L64+16
  52 0084 0C0092E8 		ldmia	r2, {r2-r3}
  53 0088 FEFFFFEB 		bl	__muldf3
  54 008c FEFFFFEB 		bl	__truncdfsf2
  55 0090 F441D5E1 		ldrsh	r4, [r5, #20]
  56 0094 0070A0E1 		mov	r7, r0
  57 0098 0400A0E1 		mov	r0, r4
  58 009c FEFFFFEB 		bl	__floatsisf
  59 00a0 000054E3 		cmp	r4, #0
  60 00a4 1840D5E5 		ldrb	r4, [r5, #24]	@ zero_extendqisi2
  61 00a8 CC139FB5 		ldrlt	r1, .L64+32
  62 00ac FEFFFFBB 		bllt	__addsf3
  63              	.L3:
  64 00b0 C0139FE5 		ldr	r1, .L64+28
  65 00b4 FEFFFFEB 		bl	__divsf3
  66 00b8 170054E3 		cmp	r4, #23
  67 00bc 0060A0E1 		mov	r6, r0
  68 00c0 F901008A 		bhi	.L1
  69 00c4 B4139FE5 		ldr	r1, .L64+36
  70 00c8 0800A0E1 		mov	r0, r8
  71 00cc FEFFFFEB 		bl	__subsf3
  72 00d0 AC539FE5 		ldr	r5, .L64+40
  73 00d4 044184E0 		add	r4, r4, r4, asl #2
  74 00d8 0441A0E1 		mov	r4, r4, asl #2
  75 00dc 050084E7 		str	r0, [r4, r5]	@ float
  76 00e0 A0139FE5 		ldr	r1, .L64+44
  77 00e4 0A00A0E1 		mov	r0, sl
  78 00e8 FEFFFFEB 		bl	__subsf3
  79 00ec 054084E0 		add	r4, r4, r5
  80 00f0 106084E5 		str	r6, [r4, #16]	@ float
  81 00f4 040084E5 		str	r0, [r4, #4]	@ float
  82 00f8 087084E5 		str	r7, [r4, #8]	@ float
  83 00fc 0C9084E5 		str	r9, [r4, #12]	@ float
  84 0100 F90100EA 		b	.L1
  85              	.L2:
  86 0104 020053E3 		cmp	r3, #2
  87 0108 CA00001A 		bne	.L6
  88 010c 0230D5E5 		ldrb	r3, [r5, #2]	@ zero_extendqisi2
  89 0110 040095E5 		ldr	r0, [r5, #4]
  90 0114 29304BE5 		strb	r3, [fp, #-41]
  91 0118 FEFFFFEB 		bl	__floatsisf
  92 011c 54139FE5 		ldr	r1, .L64+28
  93 0120 FEFFFFEB 		bl	__divsf3
  94 0124 0060A0E1 		mov	r6, r0
  95 0128 080095E5 		ldr	r0, [r5, #8]
  96 012c 30600BE5 		str	r6, [fp, #-48]	@ float
  97 0130 FEFFFFEB 		bl	__floatsisf
  98 0134 3C139FE5 		ldr	r1, .L64+28
  99 0138 FEFFFFEB 		bl	__divsf3
 100 013c 0080A0E1 		mov	r8, r0
 101 0140 0C0095E5 		ldr	r0, [r5, #12]
 102 0144 34800BE5 		str	r8, [fp, #-52]	@ float
 103 0148 FEFFFFEB 		bl	__floatsisf
 104 014c 24139FE5 		ldr	r1, .L64+28
 105 0150 FEFFFFEB 		bl	__divsf3
 106 0154 30339FE5 		ldr	r3, .L64+48
 107 0158 29205BE5 		ldrb	r2, [fp, #-41]	@ zero_extendqisi2
 108 015c 0030D3E5 		ldrb	r3, [r3, #0]	@ zero_extendqisi2
 109 0160 030052E1 		cmp	r2, r3
 110 0164 0070A0E1 		mov	r7, r0
 111 0168 38000BE5 		str	r0, [fp, #-56]	@ float
 112 016c 6D00002A 		bcs	.L7
 113 0170 18339FE5 		ldr	r3, .L64+52
 114 0174 000093E5 		ldr	r0, [r3, #0]
 115 0178 824082E0 		add	r4, r2, r2, asl #1
 116 017c FEFFFFEB 		bl	__floatsisf
 117 0180 0010A0E1 		mov	r1, r0
 118 0184 0600A0E1 		mov	r0, r6
 119 0188 FEFFFFEB 		bl	__subsf3
 120 018c 00539FE5 		ldr	r5, .L64+56
 121 0190 00339FE5 		ldr	r3, .L64+60
 122 0194 0441A0E1 		mov	r4, r4, asl #2
 123 0198 050084E7 		str	r0, [r4, r5]	@ float
 124 019c 000093E5 		ldr	r0, [r3, #0]
 125 01a0 FEFFFFEB 		bl	__floatsisf
 126 01a4 0010A0E1 		mov	r1, r0
 127 01a8 0800A0E1 		mov	r0, r8
 128 01ac FEFFFFEB 		bl	__subsf3
 129 01b0 054084E0 		add	r4, r4, r5
 130 01b4 087084E5 		str	r7, [r4, #8]	@ float
 131 01b8 040084E5 		str	r0, [r4, #4]	@ float
 132              	.L7:
 133 01bc 1400A0E3 		mov	r0, #20
 134 01c0 FEFFFFEB 		bl	uart0_check_free_space
 135 01c4 FF0010E3 		tst	r0, #255
 136 01c8 F501000A 		beq	.L59
 137 01cc 64439FE5 		ldr	r4, .L64+220
 138 01d0 0030A0E3 		mov	r3, #0
 139 01d4 0F00A0E3 		mov	r0, #15
 140 01d8 0030C4E5 		strb	r3, [r4, #0]
 141 01dc FEFFFFEB 		bl	uart0_transmit
 142 01e0 0030D4E5 		ldrb	r3, [r4, #0]	@ zero_extendqisi2
 143 01e4 2C3083E2 		add	r3, r3, #44
 144 01e8 2C00A0E3 		mov	r0, #44
 145 01ec 0030C4E5 		strb	r3, [r4, #0]
 146 01f0 FEFFFFEB 		bl	uart0_transmit
 147 01f4 0030D4E5 		ldrb	r3, [r4, #0]	@ zero_extendqisi2
 148 01f8 233083E2 		add	r3, r3, #35
 149 01fc 2300A0E3 		mov	r0, #35
 150 0200 0030C4E5 		strb	r3, [r4, #0]
 151 0204 FEFFFFEB 		bl	uart0_transmit
 152 0208 29305BE5 		ldrb	r3, [fp, #-41]	@ zero_extendqisi2
 153 020c 0020D4E5 		ldrb	r2, [r4, #0]	@ zero_extendqisi2
 154 0210 0300A0E1 		mov	r0, r3
 155 0214 023083E0 		add	r3, r3, r2
 156 0218 0030C4E5 		strb	r3, [r4, #0]
 157 021c FEFFFFEB 		bl	uart0_transmit
 158 0220 30305BE5 		ldrb	r3, [fp, #-48]	@ zero_extendqisi2
 159 0224 0020D4E5 		ldrb	r2, [r4, #0]	@ zero_extendqisi2
 160 0228 0300A0E1 		mov	r0, r3
 161 022c 023083E0 		add	r3, r3, r2
 162 0230 0030C4E5 		strb	r3, [r4, #0]
 163 0234 FEFFFFEB 		bl	uart0_transmit
 164 0238 2F305BE5 		ldrb	r3, [fp, #-47]	@ zero_extendqisi2
 165 023c 0020D4E5 		ldrb	r2, [r4, #0]	@ zero_extendqisi2
 166 0240 0300A0E1 		mov	r0, r3
 167 0244 023083E0 		add	r3, r3, r2
 168 0248 0030C4E5 		strb	r3, [r4, #0]
 169 024c FEFFFFEB 		bl	uart0_transmit
 170 0250 2E305BE5 		ldrb	r3, [fp, #-46]	@ zero_extendqisi2
 171 0254 0020D4E5 		ldrb	r2, [r4, #0]	@ zero_extendqisi2
 172 0258 0300A0E1 		mov	r0, r3
 173 025c 023083E0 		add	r3, r3, r2
 174 0260 0030C4E5 		strb	r3, [r4, #0]
 175 0264 FEFFFFEB 		bl	uart0_transmit
 176 0268 2D305BE5 		ldrb	r3, [fp, #-45]	@ zero_extendqisi2
 177 026c 0020D4E5 		ldrb	r2, [r4, #0]	@ zero_extendqisi2
 178 0270 0300A0E1 		mov	r0, r3
 179 0274 023083E0 		add	r3, r3, r2
 180 0278 0030C4E5 		strb	r3, [r4, #0]
 181 027c FEFFFFEB 		bl	uart0_transmit
 182 0280 34305BE5 		ldrb	r3, [fp, #-52]	@ zero_extendqisi2
 183 0284 0020D4E5 		ldrb	r2, [r4, #0]	@ zero_extendqisi2
 184 0288 0300A0E1 		mov	r0, r3
 185 028c 023083E0 		add	r3, r3, r2
 186 0290 0030C4E5 		strb	r3, [r4, #0]
 187 0294 FEFFFFEB 		bl	uart0_transmit
 188 0298 33305BE5 		ldrb	r3, [fp, #-51]	@ zero_extendqisi2
 189 029c 0020D4E5 		ldrb	r2, [r4, #0]	@ zero_extendqisi2
 190 02a0 0300A0E1 		mov	r0, r3
 191 02a4 023083E0 		add	r3, r3, r2
 192 02a8 0030C4E5 		strb	r3, [r4, #0]
 193 02ac FEFFFFEB 		bl	uart0_transmit
 194 02b0 32305BE5 		ldrb	r3, [fp, #-50]	@ zero_extendqisi2
 195 02b4 0020D4E5 		ldrb	r2, [r4, #0]	@ zero_extendqisi2
 196 02b8 0300A0E1 		mov	r0, r3
 197 02bc 023083E0 		add	r3, r3, r2
 198 02c0 0030C4E5 		strb	r3, [r4, #0]
 199 02c4 FEFFFFEB 		bl	uart0_transmit
 200 02c8 31305BE5 		ldrb	r3, [fp, #-49]	@ zero_extendqisi2
 201 02cc 0020D4E5 		ldrb	r2, [r4, #0]	@ zero_extendqisi2
 202 02d0 0300A0E1 		mov	r0, r3
 203 02d4 023083E0 		add	r3, r3, r2
 204 02d8 0030C4E5 		strb	r3, [r4, #0]
 205 02dc FEFFFFEB 		bl	uart0_transmit
 206 02e0 38305BE5 		ldrb	r3, [fp, #-56]	@ zero_extendqisi2
 207 02e4 0020D4E5 		ldrb	r2, [r4, #0]	@ zero_extendqisi2
 208 02e8 0300A0E1 		mov	r0, r3
 209 02ec 023083E0 		add	r3, r3, r2
 210 02f0 0030C4E5 		strb	r3, [r4, #0]
 211 02f4 FEFFFFEB 		bl	uart0_transmit
 212 02f8 37305BE5 		ldrb	r3, [fp, #-55]	@ zero_extendqisi2
 213 02fc 0020D4E5 		ldrb	r2, [r4, #0]	@ zero_extendqisi2
 214 0300 0300A0E1 		mov	r0, r3
 215 0304 023083E0 		add	r3, r3, r2
 216 0308 0030C4E5 		strb	r3, [r4, #0]
 217 030c FEFFFFEB 		bl	uart0_transmit
 218 0310 36305BE5 		ldrb	r3, [fp, #-54]	@ zero_extendqisi2
 219 0314 0020D4E5 		ldrb	r2, [r4, #0]	@ zero_extendqisi2
 220 0318 0300A0E1 		mov	r0, r3
 221 031c 023083E0 		add	r3, r3, r2
 222 0320 0030C4E5 		strb	r3, [r4, #0]
 223 0324 FEFFFFEB 		bl	uart0_transmit
 224 0328 35305BE5 		ldrb	r3, [fp, #-53]	@ zero_extendqisi2
 225 032c ED0100EA 		b	.L63
 226              	.L6:
 227 0330 050053E3 		cmp	r3, #5
 228 0334 CF00001A 		bne	.L11
 229 0338 0200D5E5 		ldrb	r0, [r5, #2]	@ zero_extendqisi2
 230 033c FEFFFFEB 		bl	nav_goto_block
 231 0340 F90100EA 		b	.L1
 232              	.L11:
 233 0344 030053E3 		cmp	r3, #3
 234 0348 D800001A 		bne	.L13
 235 034c 042095E5 		ldr	r2, [r5, #4]	@ float
 236 0350 50319FE5 		ldr	r3, .L64+76
 237 0354 081095E5 		ldr	r1, [r5, #8]	@ float
 238 0358 002083E5 		str	r2, [r3, #0]	@ float
 239 035c 48319FE5 		ldr	r3, .L64+80
 240 0360 001083E5 		str	r1, [r3, #0]	@ float
 241 0364 F90100EA 		b	.L1
 242              	.L13:
 243 0368 080053E3 		cmp	r3, #8
 244 036c 0220D505 		ldreqb	r2, [r5, #2]	@ zero_extendqisi2
 245 0370 24319F05 		ldreq	r3, .L64+64
 246 0374 0020C305 		streqb	r2, [r3, #0]
 247 0378 F901000A 		beq	.L1
 248 037c 040053E3 		cmp	r3, #4
 249 0380 F901001A 		bne	.L1
 250 0384 0230D5E5 		ldrb	r3, [r5, #2]	@ zero_extendqisi2
 251 0388 2A304BE5 		strb	r3, [fp, #-42]
 252 038c 042095E5 		ldr	r2, [r5, #4]	@ float
 253 0390 2A305BE5 		ldrb	r3, [fp, #-42]	@ zero_extendqisi2
 254 0394 3C200BE5 		str	r2, [fp, #-60]	@ float
 255 0398 260053E3 		cmp	r3, #38
 256 039c 03F19F97 		ldrls	pc, [pc, r3, asl #2]
 257 03a0 C10100EA 		b	.L18
 258              		.p2align 2
 259              	.L58:
 260 03a4 40040000 		.word	.L19
 261 03a8 4C040000 		.word	.L20
 262 03ac 40050000 		.word	.L21
 263 03b0 4C050000 		.word	.L22
 264 03b4 58050000 		.word	.L23
 265 03b8 68050000 		.word	.L24
 266 03bc 7C050000 		.word	.L25
 267 03c0 8C050000 		.word	.L26
 268 03c4 9C050000 		.word	.L27
 269 03c8 A8050000 		.word	.L28
 270 03cc B4050000 		.word	.L29
 271 03d0 C0050000 		.word	.L30
 272 03d4 CC050000 		.word	.L31
 273 03d8 D8050000 		.word	.L32
 274 03dc E4050000 		.word	.L33
 275 03e0 F8050000 		.word	.L34
 276 03e4 04060000 		.word	.L35
 277 03e8 10060000 		.word	.L36
 278 03ec 1C060000 		.word	.L37
 279 03f0 28060000 		.word	.L38
 280 03f4 34060000 		.word	.L39
 281 03f8 40060000 		.word	.L40
 282 03fc 4C060000 		.word	.L41
 283 0400 58060000 		.word	.L42
 284 0404 64060000 		.word	.L43
 285 0408 70060000 		.word	.L45
 286 040c 70060000 		.word	.L45
 287 0410 7C060000 		.word	.L46
 288 0414 88060000 		.word	.L47
 289 0418 94060000 		.word	.L48
 290 041c A0060000 		.word	.L49
 291 0420 AC060000 		.word	.L50
 292 0424 B8060000 		.word	.L51
 293 0428 C4060000 		.word	.L52
 294 042c D0060000 		.word	.L53
 295 0430 DC060000 		.word	.L54
 296 0434 E8060000 		.word	.L55
 297 0438 F4060000 		.word	.L56
 298 043c 00070000 		.word	.L57
 299              	.L19:
 300 0440 3C201BE5 		ldr	r2, [fp, #-60]	@ float
 301 0444 54309FE5 		ldr	r3, .L64+68
 302 0448 C00100EA 		b	.L61
 303              	.L20:
 304 044c 3C001BE5 		ldr	r0, [fp, #-60]	@ float
 305 0450 FEFFFFEB 		bl	__fixunssfsi
 306 0454 48309FE5 		ldr	r3, .L64+72
 307 0458 7A0100EA 		b	.L62
 308              	.L65:
 309              		.align	2
 310              	.L64:
 311 045c 00002440 		.word	1076101120
 312 0460 00000000 		.word	0
 313 0464 00806640 		.word	1080459264
 314 0468 00000000 		.word	0
 315 046c FB210940 		.word	1074340347
 316 0470 182D4454 		.word	1413754136
 317 0474 00000000 		.word	dl_buffer
 318 0478 0000C842 		.word	1120403456
 319 047c 00008047 		.word	1199570944
 320 0480 E0F4F248 		.word	1223881952
 321 0484 00000000 		.word	the_acs
 322 0488 E89E594A 		.word	1247387368
 323 048c 00000000 		.word	nb_waypoint
 324 0490 00000000 		.word	nav_utm_east0
 325 0494 00000000 		.word	waypoints
 326 0498 00000000 		.word	nav_utm_north0
 327 049c 00000000 		.word	telemetry_mode_Ap
 328 04a0 00000000 		.word	flight_altitude
 329 04a4 00000000 		.word	light_mode
 330 04a8 00000000 		.word	wind_east
 331 04ac 00000000 		.word	wind_north
 332 04b0 00000000 		.word	pprz_mode
 333 04b4 00000000 		.word	estimator_flight_time
 334 04b8 00000000 		.word	launch
 335 04bc 00000000 		.word	kill_throttle
 336 04c0 00000000 		.word	ir_roll_neutral
 337 04c4 00000000 		.word	ir_pitch_neutral
 338 04c8 00000000 		.word	ir_correction_left
 339 04cc 00000000 		.word	ir_correction_right
 340 04d0 00000000 		.word	ir_correction_up
 341 04d4 00000000 		.word	ir_correction_down
 342 04d8 00000000 		.word	ir_estim_mode
 343 04dc 00000000 		.word	h_ctl_elevator_of_roll
 344 04e0 00000000 		.word	h_ctl_aileron_of_throttle
 345 04e4 00000000 		.word	h_ctl_roll_rate_setpoint_pgain
 346 04e8 00000000 		.word	h_ctl_hi_throttle_roll_rate_pgain
 347 04ec 00000000 		.word	h_ctl_lo_throttle_roll_rate_pgain
 348 04f0 00000000 		.word	h_ctl_pitch_rate_setpoint_pgain
 349 04f4 00000000 		.word	h_ctl_hi_throttle_pitch_rate_pgain
 350 04f8 00000000 		.word	h_ctl_lo_throttle_pitch_rate_pgain
 351 04fc 00000000 		.word	h_ctl_yaw_rate_setpoint_pgain
 352 0500 00000000 		.word	h_ctl_hi_throttle_yaw_rate_pgain
 353 0504 00000000 		.word	h_ctl_lo_throttle_yaw_rate_pgain
 354 0508 00000000 		.word	v_ctl_altitude_pgain
 355 050c 00000000 		.word	v_ctl_auto_throttle_cruise_throttle
 356 0510 00000000 		.word	v_ctl_auto_throttle_cruise_throttle_pgain
 357 0514 00000000 		.word	v_ctl_auto_throttle_pgain
 358 0518 00000000 		.word	v_ctl_auto_throttle_igain
 359 051c 00000000 		.word	v_ctl_auto_throttle_climb_throttle_increment
 360 0520 00000000 		.word	v_ctl_throttle_slew_
 361 0524 00000000 		.word	v_ctl_auto_pitch_pgain
 362 0528 00000000 		.word	v_ctl_auto_pitch_igain
 363 052c 00000000 		.word	h_ctl_course_pgain
 364 0530 00000000 		.word	h_ctl_course_pre_bank_correction
 365 0534 00000000 		.word	nav_glide_pitch_trim
 366 0538 00000000 		.word	aerocomm_cs
 367 053c 00000000 		.word	downlink_nb_ovrn
 368              	.L21:
 369 0540 3C201BE5 		ldr	r2, [fp, #-60]	@ float
 370 0544 A4301FE5 		ldr	r3, .L64+76
 371 0548 C00100EA 		b	.L61
 372              	.L22:
 373 054c 3C201BE5 		ldr	r2, [fp, #-60]	@ float
 374 0550 AC301FE5 		ldr	r3, .L64+80
 375 0554 C00100EA 		b	.L61
 376              	.L23:
 377 0558 3C001BE5 		ldr	r0, [fp, #-60]	@ float
 378 055c FEFFFFEB 		bl	__fixunssfsi
 379 0560 B8301FE5 		ldr	r3, .L64+84
 380 0564 7A0100EA 		b	.L62
 381              	.L24:
 382 0568 3C001BE5 		ldr	r0, [fp, #-60]	@ float
 383 056c FEFFFFEB 		bl	__fixunssfsi
 384 0570 C4301FE5 		ldr	r3, .L64+88
 385 0574 B000C3E1 		strh	r0, [r3, #0]	@ movhi 
 386 0578 C10100EA 		b	.L18
 387              	.L25:
 388 057c 3C001BE5 		ldr	r0, [fp, #-60]	@ float
 389 0580 FEFFFFEB 		bl	__fixunssfsi
 390 0584 D4301FE5 		ldr	r3, .L64+92
 391 0588 7A0100EA 		b	.L62
 392              	.L26:
 393 058c 3C001BE5 		ldr	r0, [fp, #-60]	@ float
 394 0590 FEFFFFEB 		bl	__fixunssfsi
 395 0594 E0301FE5 		ldr	r3, .L64+96
 396 0598 7A0100EA 		b	.L62
 397              	.L27:
 398 059c 3C201BE5 		ldr	r2, [fp, #-60]	@ float
 399 05a0 E8301FE5 		ldr	r3, .L64+100
 400 05a4 C00100EA 		b	.L61
 401              	.L28:
 402 05a8 3C201BE5 		ldr	r2, [fp, #-60]	@ float
 403 05ac F0301FE5 		ldr	r3, .L64+104
 404 05b0 C00100EA 		b	.L61
 405              	.L29:
 406 05b4 3C201BE5 		ldr	r2, [fp, #-60]	@ float
 407 05b8 F8301FE5 		ldr	r3, .L64+108
 408 05bc C00100EA 		b	.L61
 409              	.L30:
 410 05c0 3C201BE5 		ldr	r2, [fp, #-60]	@ float
 411 05c4 00311FE5 		ldr	r3, .L64+112
 412 05c8 C00100EA 		b	.L61
 413              	.L31:
 414 05cc 3C201BE5 		ldr	r2, [fp, #-60]	@ float
 415 05d0 08311FE5 		ldr	r3, .L64+116
 416 05d4 C00100EA 		b	.L61
 417              	.L32:
 418 05d8 3C201BE5 		ldr	r2, [fp, #-60]	@ float
 419 05dc 10311FE5 		ldr	r3, .L64+120
 420 05e0 C00100EA 		b	.L61
 421              	.L33:
 422 05e4 3C001BE5 		ldr	r0, [fp, #-60]	@ float
 423 05e8 FEFFFFEB 		bl	__fixunssfsi
 424 05ec 1C311FE5 		ldr	r3, .L64+124
 425              	.L62:
 426 05f0 0000C3E5 		strb	r0, [r3, #0]
 427 05f4 C10100EA 		b	.L18
 428              	.L34:
 429 05f8 3C201BE5 		ldr	r2, [fp, #-60]	@ float
 430 05fc 28311FE5 		ldr	r3, .L64+128
 431 0600 C00100EA 		b	.L61
 432              	.L35:
 433 0604 3C201BE5 		ldr	r2, [fp, #-60]	@ float
 434 0608 30311FE5 		ldr	r3, .L64+132
 435 060c C00100EA 		b	.L61
 436              	.L36:
 437 0610 3C201BE5 		ldr	r2, [fp, #-60]	@ float
 438 0614 38311FE5 		ldr	r3, .L64+136
 439 0618 C00100EA 		b	.L61
 440              	.L37:
 441 061c 3C201BE5 		ldr	r2, [fp, #-60]	@ float
 442 0620 40311FE5 		ldr	r3, .L64+140
 443 0624 C00100EA 		b	.L61
 444              	.L38:
 445 0628 3C201BE5 		ldr	r2, [fp, #-60]	@ float
 446 062c 48311FE5 		ldr	r3, .L64+144
 447 0630 C00100EA 		b	.L61
 448              	.L39:
 449 0634 3C201BE5 		ldr	r2, [fp, #-60]	@ float
 450 0638 50311FE5 		ldr	r3, .L64+148
 451 063c C00100EA 		b	.L61
 452              	.L40:
 453 0640 3C201BE5 		ldr	r2, [fp, #-60]	@ float
 454 0644 58311FE5 		ldr	r3, .L64+152
 455 0648 C00100EA 		b	.L61
 456              	.L41:
 457 064c 3C201BE5 		ldr	r2, [fp, #-60]	@ float
 458 0650 60311FE5 		ldr	r3, .L64+156
 459 0654 C00100EA 		b	.L61
 460              	.L42:
 461 0658 3C201BE5 		ldr	r2, [fp, #-60]	@ float
 462 065c 68311FE5 		ldr	r3, .L64+160
 463 0660 C00100EA 		b	.L61
 464              	.L43:
 465 0664 3C201BE5 		ldr	r2, [fp, #-60]	@ float
 466 0668 70311FE5 		ldr	r3, .L64+164
 467 066c C00100EA 		b	.L61
 468              	.L45:
 469 0670 3C201BE5 		ldr	r2, [fp, #-60]	@ float
 470 0674 78311FE5 		ldr	r3, .L64+168
 471 0678 C00100EA 		b	.L61
 472              	.L46:
 473 067c 3C201BE5 		ldr	r2, [fp, #-60]	@ float
 474 0680 80311FE5 		ldr	r3, .L64+172
 475 0684 C00100EA 		b	.L61
 476              	.L47:
 477 0688 3C201BE5 		ldr	r2, [fp, #-60]	@ float
 478 068c 88311FE5 		ldr	r3, .L64+176
 479 0690 C00100EA 		b	.L61
 480              	.L48:
 481 0694 3C201BE5 		ldr	r2, [fp, #-60]	@ float
 482 0698 90311FE5 		ldr	r3, .L64+180
 483 069c C00100EA 		b	.L61
 484              	.L49:
 485 06a0 3C201BE5 		ldr	r2, [fp, #-60]	@ float
 486 06a4 98311FE5 		ldr	r3, .L64+184
 487 06a8 C00100EA 		b	.L61
 488              	.L50:
 489 06ac 3C201BE5 		ldr	r2, [fp, #-60]	@ float
 490 06b0 A0311FE5 		ldr	r3, .L64+188
 491 06b4 C00100EA 		b	.L61
 492              	.L51:
 493 06b8 3C201BE5 		ldr	r2, [fp, #-60]	@ float
 494 06bc A8311FE5 		ldr	r3, .L64+192
 495 06c0 C00100EA 		b	.L61
 496              	.L52:
 497 06c4 3C201BE5 		ldr	r2, [fp, #-60]	@ float
 498 06c8 B0311FE5 		ldr	r3, .L64+196
 499 06cc C00100EA 		b	.L61
 500              	.L53:
 501 06d0 3C201BE5 		ldr	r2, [fp, #-60]	@ float
 502 06d4 B8311FE5 		ldr	r3, .L64+200
 503 06d8 C00100EA 		b	.L61
 504              	.L54:
 505 06dc 3C201BE5 		ldr	r2, [fp, #-60]	@ float
 506 06e0 C0311FE5 		ldr	r3, .L64+204
 507 06e4 C00100EA 		b	.L61
 508              	.L55:
 509 06e8 3C201BE5 		ldr	r2, [fp, #-60]	@ float
 510 06ec C8311FE5 		ldr	r3, .L64+208
 511 06f0 C00100EA 		b	.L61
 512              	.L56:
 513 06f4 3C201BE5 		ldr	r2, [fp, #-60]	@ float
 514 06f8 D0311FE5 		ldr	r3, .L64+212
 515 06fc C00100EA 		b	.L61
 516              	.L57:
 517 0700 3C201BE5 		ldr	r2, [fp, #-60]	@ float
 518 0704 D8311FE5 		ldr	r3, .L64+216
 519              	.L61:
 520 0708 002083E5 		str	r2, [r3, #0]	@ float
 521              	.L18:
 522 070c 0C00A0E3 		mov	r0, #12
 523 0710 FEFFFFEB 		bl	uart0_check_free_space
 524 0714 FF0010E3 		tst	r0, #255
 525 0718 F501000A 		beq	.L59
 526 071c EC411FE5 		ldr	r4, .L64+220
 527 0720 0030A0E3 		mov	r3, #0
 528 0724 0700A0E3 		mov	r0, #7
 529 0728 0030C4E5 		strb	r3, [r4, #0]
 530 072c FEFFFFEB 		bl	uart0_transmit
 531 0730 0030D4E5 		ldrb	r3, [r4, #0]	@ zero_extendqisi2
 532 0734 2C3083E2 		add	r3, r3, #44
 533 0738 2C00A0E3 		mov	r0, #44
 534 073c 0030C4E5 		strb	r3, [r4, #0]
 535 0740 FEFFFFEB 		bl	uart0_transmit
 536 0744 0030D4E5 		ldrb	r3, [r4, #0]	@ zero_extendqisi2
 537 0748 1F3083E2 		add	r3, r3, #31
 538 074c 1F00A0E3 		mov	r0, #31
 539 0750 0030C4E5 		strb	r3, [r4, #0]
 540 0754 FEFFFFEB 		bl	uart0_transmit
 541 0758 2A305BE5 		ldrb	r3, [fp, #-42]	@ zero_extendqisi2
 542 075c 0020D4E5 		ldrb	r2, [r4, #0]	@ zero_extendqisi2
 543 0760 0300A0E1 		mov	r0, r3
 544 0764 023083E0 		add	r3, r3, r2
 545 0768 0030C4E5 		strb	r3, [r4, #0]
 546 076c FEFFFFEB 		bl	uart0_transmit
 547 0770 3C305BE5 		ldrb	r3, [fp, #-60]	@ zero_extendqisi2
 548 0774 0020D4E5 		ldrb	r2, [r4, #0]	@ zero_extendqisi2
 549 0778 0300A0E1 		mov	r0, r3
 550 077c 023083E0 		add	r3, r3, r2
 551 0780 0030C4E5 		strb	r3, [r4, #0]
 552 0784 FEFFFFEB 		bl	uart0_transmit
 553 0788 3B305BE5 		ldrb	r3, [fp, #-59]	@ zero_extendqisi2
 554 078c 0020D4E5 		ldrb	r2, [r4, #0]	@ zero_extendqisi2
 555 0790 0300A0E1 		mov	r0, r3
 556 0794 023083E0 		add	r3, r3, r2
 557 0798 0030C4E5 		strb	r3, [r4, #0]
 558 079c FEFFFFEB 		bl	uart0_transmit
 559 07a0 3A305BE5 		ldrb	r3, [fp, #-58]	@ zero_extendqisi2
 560 07a4 0020D4E5 		ldrb	r2, [r4, #0]	@ zero_extendqisi2
 561 07a8 0300A0E1 		mov	r0, r3
 562 07ac 023083E0 		add	r3, r3, r2
 563 07b0 0030C4E5 		strb	r3, [r4, #0]
 564 07b4 FEFFFFEB 		bl	uart0_transmit
 565 07b8 39305BE5 		ldrb	r3, [fp, #-57]	@ zero_extendqisi2
 566              	.L63:
 567 07bc 0020D4E5 		ldrb	r2, [r4, #0]	@ zero_extendqisi2
 568 07c0 0300A0E1 		mov	r0, r3
 569 07c4 023083E0 		add	r3, r3, r2
 570 07c8 0030C4E5 		strb	r3, [r4, #0]
 571 07cc FEFFFFEB 		bl	uart0_transmit
 572 07d0 FF00A0E3 		mov	r0, #255
 573 07d4 FEFFFFEB 		bl	uart0_transmit
 574 07d8 F90100EA 		b	.L1
 575              	.L59:
 576 07dc A8221FE5 		ldr	r2, .L64+224
 577 07e0 0030D2E5 		ldrb	r3, [r2, #0]	@ zero_extendqisi2
 578 07e4 013083E2 		add	r3, r3, #1
 579 07e8 0030C2E5 		strb	r3, [r2, #0]
 580              	.L1:
 581 07ec 28D04BE2 		sub	sp, fp, #40
 582 07f0 F06F9DE8 		ldmfd	sp, {r4, r5, r6, r7, r8, r9, sl, fp, sp, lr}
 583 07f4 1EFF2FE1 		bx	lr
 585              		.comm	the_acs,480,4
 586              		.comm	dl_msg_available,1,1
 587              		.comm	dl_buffer,128,4
 588              		.bss
 589              		.align	2
 590              	last_periodic_event:
 591 0000 00000000 		.space	4
 592              		.comm	accel_ax_scale,4,4
 593              		.comm	accel_ay_scale,4,4
 594              		.comm	accel_az_scale,4,4
 595              		.comm	accel_ax_neutral,4,4
 596              		.comm	accel_ay_neutral,4,4
 597              		.comm	accel_az_neutral,4,4
 598              		.comm	estimator_kalman_phi,4,4
 599              		.comm	estimator_kalman_theta,4,4
 600              		.comm	estimator_kalman_q_angle,4,4
 601              		.comm	estimator_kalman_q_gyro,4,4
 602              		.comm	estimator_kalman_r_angle,4,4
 603              		.ident	"GCC: (GNU) 3.4.4"
DEFINED SYMBOLS
                            *ABS*:00000000 datalink.c
     /tmp/cchTPMR1.s:15     .text:00000000 dl_parse_msg
     /tmp/cchTPMR1.s:19     .text:00000000 $a
     /tmp/cchTPMR1.s:260    .text:000003a4 $d
     /tmp/cchTPMR1.s:300    .text:00000440 $a
     /tmp/cchTPMR1.s:311    .text:0000045c $d
                            *COM*:00000080 dl_buffer
                            *COM*:000001e0 the_acs
     /tmp/cchTPMR1.s:369    .text:00000540 $a
                            *COM*:00000001 dl_msg_available
                             .bss:00000000 $d
     /tmp/cchTPMR1.s:590    .bss:00000000 last_periodic_event
                            *COM*:00000004 accel_ax_scale
                            *COM*:00000004 accel_ay_scale
                            *COM*:00000004 accel_az_scale
                            *COM*:00000004 accel_ax_neutral
                            *COM*:00000004 accel_ay_neutral
                            *COM*:00000004 accel_az_neutral
                            *COM*:00000004 estimator_kalman_phi
                            *COM*:00000004 estimator_kalman_theta
                            *COM*:00000004 estimator_kalman_q_angle
                            *COM*:00000004 estimator_kalman_q_gyro
                            *COM*:00000004 estimator_kalman_r_angle

UNDEFINED SYMBOLS
__floatsisf
__divsf3
__extendsfdf2
__divdf3
__muldf3
__truncdfsf2
__addsf3
__subsf3
__fixunssfsi
uart0_check_free_space
uart0_transmit
nav_goto_block
nb_waypoint
nav_utm_east0
waypoints
nav_utm_north0
telemetry_mode_Ap
flight_altitude
light_mode
wind_east
wind_north
pprz_mode
estimator_flight_time
launch
kill_throttle
ir_roll_neutral
ir_pitch_neutral
ir_correction_left
ir_correction_right
ir_correction_up
ir_correction_down
ir_estim_mode
h_ctl_elevator_of_roll
h_ctl_aileron_of_throttle
h_ctl_roll_rate_setpoint_pgain
h_ctl_hi_throttle_roll_rate_pgain
h_ctl_lo_throttle_roll_rate_pgain
h_ctl_pitch_rate_setpoint_pgain
h_ctl_hi_throttle_pitch_rate_pgain
h_ctl_lo_throttle_pitch_rate_pgain
h_ctl_yaw_rate_setpoint_pgain
h_ctl_hi_throttle_yaw_rate_pgain
h_ctl_lo_throttle_yaw_rate_pgain
v_ctl_altitude_pgain
v_ctl_auto_throttle_cruise_throttle
v_ctl_auto_throttle_cruise_throttle_pgain
v_ctl_auto_throttle_pgain
v_ctl_auto_throttle_igain
v_ctl_auto_throttle_climb_throttle_increment
v_ctl_throttle_slew_
v_ctl_auto_pitch_pgain
v_ctl_auto_pitch_igain
h_ctl_course_pgain
h_ctl_course_pre_bank_correction
nav_glide_pitch_trim
aerocomm_cs
downlink_nb_ovrn
