
/home/dragonfly/paparazzi_new/test/paparazzi3/var/MJ7/ap/ap.elf:     file format elf32-littlearm

Sections:
Idx Name          Size      VMA       LMA       File off  Algn
  0 .text         0001431e  00004000  00004000  00000094  2**2
                  CONTENTS, ALLOC, LOAD, READONLY, CODE
  1 .ctors        00000000  0001831e  0001831e  0001484c  2**0
                  CONTENTS
  2 .dtors        00000000  0001831e  0001831e  0001484c  2**0
                  CONTENTS
  3 .data         00000498  40000000  00018320  000143b4  2**2
                  CONTENTS, ALLOC, LOAD, DATA
  4 .bss          00000cf8  40000498  40000498  0001484c  2**2
                  ALLOC
  5 .stack        00001000  40001200  40001200  0001484c  2**0
                  ALLOC
  6 .comment      0000034e  00000000  00000000  0001484c  2**0
                  CONTENTS, READONLY
  7 .debug_aranges 00000240  00000000  00000000  00014b9a  2**0
                  CONTENTS, READONLY, DEBUGGING
  8 .debug_pubnames 00000292  00000000  00000000  00014dda  2**0
                  CONTENTS, READONLY, DEBUGGING
  9 .debug_info   0000314a  00000000  00000000  0001506c  2**0
                  CONTENTS, READONLY, DEBUGGING
 10 .debug_abbrev 0000113f  00000000  00000000  000181b6  2**0
                  CONTENTS, READONLY, DEBUGGING
 11 .debug_line   000013e0  00000000  00000000  000192f5  2**0
                  CONTENTS, READONLY, DEBUGGING
 12 .debug_frame  00000388  00000000  00000000  0001a6d8  2**2
                  CONTENTS, READONLY, DEBUGGING
 13 .debug_str    00000bad  00000000  00000000  0001aa60  2**0
                  CONTENTS, READONLY, DEBUGGING
 14 .debug_ranges 000000c8  00000000  00000000  0001b60d  2**0
                  CONTENTS, READONLY, DEBUGGING
Disassembly of section .text:

00004000 <_boot>:
    4000:	ea000012 	b	4050 <_mainCRTStartup>
    4004:	e59ff014 	ldr	pc, [pc, #20]	; 4020 <_undf>
    4008:	e59ff014 	ldr	pc, [pc, #20]	; 4024 <_swi>
    400c:	e59ff014 	ldr	pc, [pc, #20]	; 4028 <_pabt>
    4010:	e59ff014 	ldr	pc, [pc, #20]	; 402c <_dabt>
    4014:	e1a00000 	nop			(mov r0,r0)
    4018:	e51ffff0 	ldr	pc, [pc, #-4080]	; 3030 <STACK_SIZE+0x2030>
    401c:	e59ff010 	ldr	pc, [pc, #16]	; 4034 <_fiq>

00004020 <_undf>:
    4020:	00004038 	andeq	r4, r0, r8, lsr r0

00004024 <_swi>:
    4024:	0000403c 	andeq	r4, r0, ip, lsr r0

00004028 <_pabt>:
    4028:	00004040 	andeq	r4, r0, r0, asr #32

0000402c <_dabt>:
    402c:	00004044 	andeq	r4, r0, r4, asr #32

00004030 <_irq>:
    4030:	00004048 	andeq	r4, r0, r8, asr #32

00004034 <_fiq>:
    4034:	0000404c 	andeq	r4, r0, ip, asr #32

00004038 <__undf>:
    4038:	eafffffe 	b	4038 <__undf>

0000403c <__swi>:
    403c:	eafffffe 	b	403c <__swi>

00004040 <__pabt>:
    4040:	eafffffe 	b	4040 <__pabt>

00004044 <__dabt>:
    4044:	eafffffe 	b	4044 <__dabt>

00004048 <__irq>:
    4048:	eafffffe 	b	4048 <__irq>

0000404c <__fiq>:
    404c:	eafffffe 	b	404c <__fiq>

00004050 <_mainCRTStartup>:
    4050:	e59f00c0 	ldr	r0, [pc, #192]	; 4118 <.text+0x118>
    4054:	e321f0db 	msr	CPSR_c, #219	; 0xdb
    4058:	e1a0d000 	mov	sp, r0
    405c:	e2400004 	sub	r0, r0, #4	; 0x4
    4060:	e321f0d7 	msr	CPSR_c, #215	; 0xd7
    4064:	e1a0d000 	mov	sp, r0
    4068:	e2400004 	sub	r0, r0, #4	; 0x4
    406c:	e321f0d1 	msr	CPSR_c, #209	; 0xd1
    4070:	e1a0d000 	mov	sp, r0
    4074:	e2400004 	sub	r0, r0, #4	; 0x4
    4078:	e321f0d2 	msr	CPSR_c, #210	; 0xd2
    407c:	e1a0d000 	mov	sp, r0
    4080:	e2400080 	sub	r0, r0, #128	; 0x80
    4084:	e321f0d3 	msr	CPSR_c, #211	; 0xd3
    4088:	e1a0d000 	mov	sp, r0
    408c:	e2400004 	sub	r0, r0, #4	; 0x4
    4090:	e321f0df 	msr	CPSR_c, #223	; 0xdf
    4094:	e1a0d000 	mov	sp, r0
    4098:	e59f107c 	ldr	r1, [pc, #124]	; 411c <.text+0x11c>
    409c:	e59f207c 	ldr	r2, [pc, #124]	; 4120 <.text+0x120>
    40a0:	e59f307c 	ldr	r3, [pc, #124]	; 4124 <.text+0x124>
    40a4:	e1520003 	cmp	r2, r3
    40a8:	34910004 	ldrcc	r0, [r1], #4
    40ac:	34820004 	strcc	r0, [r2], #4
    40b0:	3afffffb 	bcc	40a4 <_mainCRTStartup+0x54>
    40b4:	e3a00000 	mov	r0, #0	; 0x0
    40b8:	e59f1068 	ldr	r1, [pc, #104]	; 4128 <.text+0x128>
    40bc:	e59f2068 	ldr	r2, [pc, #104]	; 412c <.text+0x12c>
    40c0:	e1510002 	cmp	r1, r2
    40c4:	34810004 	strcc	r0, [r1], #4
    40c8:	3afffffc 	bcc	40c0 <_mainCRTStartup+0x70>
    40cc:	e59f005c 	ldr	r0, [pc, #92]	; 4130 <.text+0x130>
    40d0:	e59f105c 	ldr	r1, [pc, #92]	; 4134 <.text+0x134>

000040d4 <ctor_loop>:
    40d4:	e1500001 	cmp	r0, r1
    40d8:	0a000005 	beq	40f4 <ctor_end>
    40dc:	e4902004 	ldr	r2, [r0], #4
    40e0:	e92d0003 	stmdb	sp!, {r0, r1}
    40e4:	e1a0e00f 	mov	lr, pc
    40e8:	e1a0f002 	mov	pc, r2
    40ec:	e8bd0003 	ldmia	sp!, {r0, r1}
    40f0:	eafffff7 	b	40d4 <ctor_loop>

000040f4 <ctor_end>:
    40f4:	e3a00000 	mov	r0, #0	; 0x0
    40f8:	e1a01000 	mov	r1, r0
    40fc:	e1a02000 	mov	r2, r0
    4100:	e1a0b000 	mov	fp, r0
    4104:	e1a07000 	mov	r7, r0
    4108:	e59fa028 	ldr	sl, [pc, #40]	; 4138 <.text+0x138>
    410c:	e1a0e00f 	mov	lr, pc
    4110:	e12fff1a 	bx	sl

00004114 <_reset>:
    4114:	eafffffe 	b	4114 <_reset>
    4118:	40002200 	andmi	r2, r0, r0, lsl #4
    411c:	00018320 	andeq	r8, r1, r0, lsr #6
    4120:	40000000 	andmi	r0, r0, r0
    4124:	40000498 	mulmi	r0, r8, r4
    4128:	40000498 	mulmi	r0, r8, r4
    412c:	40001190 	mulmi	r0, r0, r1
    4130:	0001831e 	andeq	r8, r1, lr, lsl r3
    4134:	0001831e 	andeq	r8, r1, lr, lsl r3
    4138:	0000c760 	andeq	ip, r0, r0, ror #14

0000413c <TIMER0_ISR>:
    413c:	e24ee004 	sub	lr, lr, #4	; 0x4
    4140:	e92d5fff 	stmdb	sp!, {r0, r1, r2, r3, r4, r5, r6, r7, r8, r9, sl, fp, ip, lr}
    4144:	e14f1000 	mrs	r1, SPSR
    4148:	e92d0002 	stmdb	sp!, {r1}
    414c:	e59f21c0 	ldr	r2, [pc, #448]	; 4314 <.text+0x314>
    4150:	e5923000 	ldr	r3, [r2]
    4154:	e3130042 	tst	r3, #66	; 0x42
    4158:	0a000067 	beq	42fc <TIMER0_ISR+0x1c0>
    415c:	e5923000 	ldr	r3, [r2]
    4160:	e3130040 	tst	r3, #64	; 0x40
    4164:	0a000025 	beq	4200 <TIMER0_ISR+0xc4>
    4168:	e59f01a8 	ldr	r0, [pc, #424]	; 4318 <.text+0x318>
    416c:	e59f31a8 	ldr	r3, [pc, #424]	; 431c <.text+0x31c>
    4170:	e5d0c000 	ldrb	ip, [r0]
    4174:	e5922034 	ldr	r2, [r2, #52]
    4178:	e5931000 	ldr	r1, [r3]
    417c:	e20ce0ff 	and	lr, ip, #255	; 0xff
    4180:	e35e0008 	cmp	lr, #8	; 0x8
    4184:	e5832000 	str	r2, [r3]
    4188:	e0611002 	rsb	r1, r1, r2
    418c:	1a000006 	bne	41ac <TIMER0_ISR+0x70>
    4190:	e2413b49 	sub	r3, r1, #74752	; 0x12400
    4194:	e59f2184 	ldr	r2, [pc, #388]	; 4320 <.text+0x320>
    4198:	e24330f9 	sub	r3, r3, #249	; 0xf9
    419c:	e1530002 	cmp	r3, r2
    41a0:	93a03000 	movls	r3, #0	; 0x0
    41a4:	9a000011 	bls	41f0 <TIMER0_ISR+0xb4>
    41a8:	ea000011 	b	41f4 <TIMER0_ISR+0xb8>
    41ac:	e2413dd2 	sub	r3, r1, #13440	; 0x3480
    41b0:	e59f216c 	ldr	r2, [pc, #364]	; 4324 <.text+0x324>
    41b4:	e243303d 	sub	r3, r3, #61	; 0x3d
    41b8:	e1530002 	cmp	r3, r2
    41bc:	83a03008 	movhi	r3, #8	; 0x8
    41c0:	8a00000a 	bhi	41f0 <TIMER0_ISR+0xb4>
    41c4:	e28c3001 	add	r3, ip, #1	; 0x1
    41c8:	e5c03000 	strb	r3, [r0]
    41cc:	e5d03000 	ldrb	r3, [r0]
    41d0:	e3530008 	cmp	r3, #8	; 0x8
    41d4:	e59f314c 	ldr	r3, [pc, #332]	; 4328 <.text+0x328>
    41d8:	e1a0208e 	mov	r2, lr, lsl #1
    41dc:	e18210b3 	strh	r1, [r2, r3]
    41e0:	059f3144 	ldreq	r3, [pc, #324]	; 432c <.text+0x32c>
    41e4:	03a02001 	moveq	r2, #1	; 0x1
    41e8:	05c32000 	streqb	r2, [r3]
    41ec:	ea000000 	b	41f4 <TIMER0_ISR+0xb8>
    41f0:	e5c03000 	strb	r3, [r0]
    41f4:	e59f3118 	ldr	r3, [pc, #280]	; 4314 <.text+0x314>
    41f8:	e3a02040 	mov	r2, #64	; 0x40
    41fc:	e5832000 	str	r2, [r3]
    4200:	e59f410c 	ldr	r4, [pc, #268]	; 4314 <.text+0x314>
    4204:	e5943000 	ldr	r3, [r4]
    4208:	e3130002 	tst	r3, #2	; 0x2
    420c:	0affffce 	beq	414c <TIMER0_ISR+0x10>
    4210:	e59f5118 	ldr	r5, [pc, #280]	; 4330 <.text+0x330>
    4214:	e5d5e000 	ldrb	lr, [r5]
    4218:	e20ec0ff 	and	ip, lr, #255	; 0xff
    421c:	e35c0000 	cmp	ip, #0	; 0x0
    4220:	1a000006 	bne	4240 <TIMER0_ISR+0x104>
    4224:	e59f0108 	ldr	r0, [pc, #264]	; 4334 <.text+0x334>
    4228:	e590201c 	ldr	r2, [r0, #28]
    422c:	e59f1104 	ldr	r1, [pc, #260]	; 4338 <.text+0x338>
    4230:	e59f3104 	ldr	r3, [pc, #260]	; 433c <.text+0x33c>
    4234:	e3822601 	orr	r2, r2, #1048576	; 0x100000
    4238:	e5831000 	str	r1, [r3]
    423c:	e580201c 	str	r2, [r0, #28]
    4240:	e35c0007 	cmp	ip, #7	; 0x7
    4244:	8a00000c 	bhi	427c <TIMER0_ISR+0x140>
    4248:	e59f00ec 	ldr	r0, [pc, #236]	; 433c <.text+0x33c>
    424c:	e59f30ec 	ldr	r3, [pc, #236]	; 4340 <.text+0x340>
    4250:	e1a0208c 	mov	r2, ip, lsl #1
    4254:	e19210b3 	ldrh	r1, [r2, r3]
    4258:	e594301c 	ldr	r3, [r4, #28]
    425c:	e5902000 	ldr	r2, [r0]
    4260:	e0833001 	add	r3, r3, r1
    4264:	e0612002 	rsb	r2, r1, r2
    4268:	e28e1001 	add	r1, lr, #1	; 0x1
    426c:	e584301c 	str	r3, [r4, #28]
    4270:	e5802000 	str	r2, [r0]
    4274:	e5c51000 	strb	r1, [r5]
    4278:	ea000018 	b	42e0 <TIMER0_ISR+0x1a4>
    427c:	e35c0008 	cmp	ip, #8	; 0x8
    4280:	e59f10b4 	ldr	r1, [pc, #180]	; 433c <.text+0x33c>
    4284:	1a000008 	bne	42ac <TIMER0_ISR+0x170>
    4288:	e59f20a4 	ldr	r2, [pc, #164]	; 4334 <.text+0x334>
    428c:	e5923014 	ldr	r3, [r2, #20]
    4290:	e3833202 	orr	r3, r3, #536870912	; 0x20000000
    4294:	e5823014 	str	r3, [r2, #20]
    4298:	e5912000 	ldr	r2, [r1]
    429c:	e594301c 	ldr	r3, [r4, #28]
    42a0:	e08330a2 	add	r3, r3, r2, lsr #1
    42a4:	e28e2001 	add	r2, lr, #1	; 0x1
    42a8:	ea00000a 	b	42d8 <TIMER0_ISR+0x19c>
    42ac:	e59f2080 	ldr	r2, [pc, #128]	; 4334 <.text+0x334>
    42b0:	e5923014 	ldr	r3, [r2, #20]
    42b4:	e3833601 	orr	r3, r3, #1048576	; 0x100000
    42b8:	e5823014 	str	r3, [r2, #20]
    42bc:	e592301c 	ldr	r3, [r2, #28]
    42c0:	e3833202 	orr	r3, r3, #536870912	; 0x20000000
    42c4:	e582301c 	str	r3, [r2, #28]
    42c8:	e5912000 	ldr	r2, [r1]
    42cc:	e594301c 	ldr	r3, [r4, #28]
    42d0:	e08330a2 	add	r3, r3, r2, lsr #1
    42d4:	e3a02000 	mov	r2, #0	; 0x0
    42d8:	e5c52000 	strb	r2, [r5]
    42dc:	e584301c 	str	r3, [r4, #28]
    42e0:	e59f302c 	ldr	r3, [pc, #44]	; 4314 <.text+0x314>
    42e4:	e593203c 	ldr	r2, [r3, #60]
    42e8:	e3c22002 	bic	r2, r2, #2	; 0x2
    42ec:	e583203c 	str	r2, [r3, #60]
    42f0:	e3a02002 	mov	r2, #2	; 0x2
    42f4:	e5832000 	str	r2, [r3]
    42f8:	eaffff93 	b	414c <TIMER0_ISR+0x10>
    42fc:	e59f3040 	ldr	r3, [pc, #64]	; 4344 <.text+0x344>
    4300:	e3a02000 	mov	r2, #0	; 0x0
    4304:	e5832030 	str	r2, [r3, #48]
    4308:	e8bd0002 	ldmia	sp!, {r1}
    430c:	e161f001 	msr	SPSR_c, r1
    4310:	e8fd9fff 	ldmia	sp!, {r0, r1, r2, r3, r4, r5, r6, r7, r8, r9, sl, fp, ip, pc}^
    4314:	e0004000 	and	r4, r0, r0
    4318:	40000000 	andmi	r0, r0, r0
    431c:	4000049c 	mulmi	r0, ip, r4
    4320:	000249ee 	andeq	r4, r2, lr, ror #19
    4324:	0000464e 	andeq	r4, r0, lr, asr #12
    4328:	40000a82 	andmi	r0, r0, r2, lsl #21
    432c:	40000a92 	mulmi	r0, r2, sl
    4330:	40000a2a 	andmi	r0, r0, sl, lsr #20
    4334:	e0028000 	and	r8, r2, r0
    4338:	000493e0 	andeq	r9, r4, r0, ror #7
    433c:	40000008 	andmi	r0, r0, r8
    4340:	40000a2c 	andmi	r0, r0, ip, lsr #20
    4344:	fffff000 	swinv	0x00fff000

00004348 <disableIRQ>:
    4348:	e10f0000 	mrs	r0, CPSR
    434c:	e3803080 	orr	r3, r0, #128	; 0x80
    4350:	e129f003 	msr	CPSR_fc, r3
    4354:	e12fff1e 	bx	lr

00004358 <restoreIRQ>:
    4358:	e1a02000 	mov	r2, r0
    435c:	e10f0000 	mrs	r0, CPSR
    4360:	e2022080 	and	r2, r2, #128	; 0x80
    4364:	e3c03080 	bic	r3, r0, #128	; 0x80
    4368:	e1833002 	orr	r3, r3, r2
    436c:	e129f003 	msr	CPSR_fc, r3
    4370:	e12fff1e 	bx	lr

00004374 <enableIRQ>:
    4374:	e10f0000 	mrs	r0, CPSR
    4378:	e3c03080 	bic	r3, r0, #128	; 0x80
    437c:	e129f003 	msr	CPSR_fc, r3
    4380:	e12fff1e 	bx	lr

00004384 <disableFIQ>:
    4384:	e10f0000 	mrs	r0, CPSR
    4388:	e3803040 	orr	r3, r0, #64	; 0x40
    438c:	e129f003 	msr	CPSR_fc, r3
    4390:	e12fff1e 	bx	lr

00004394 <restoreFIQ>:
    4394:	e1a02000 	mov	r2, r0
    4398:	e10f0000 	mrs	r0, CPSR
    439c:	e2022040 	and	r2, r2, #64	; 0x40
    43a0:	e3c03040 	bic	r3, r0, #64	; 0x40
    43a4:	e1833002 	orr	r3, r3, r2
    43a8:	e129f003 	msr	CPSR_fc, r3
    43ac:	e12fff1e 	bx	lr

000043b0 <enableFIQ>:
    43b0:	e10f0000 	mrs	r0, CPSR
    43b4:	e3c03040 	bic	r3, r0, #64	; 0x40
    43b8:	e129f003 	msr	CPSR_fc, r3
    43bc:	e12fff1e 	bx	lr

000043c0 <init_fbw>:
    43c0:	e59f218c 	ldr	r2, [pc, #396]	; 4554 <.text+0x554>
    43c4:	e1a0c00d 	mov	ip, sp
    43c8:	e3a03024 	mov	r3, #36	; 0x24
    43cc:	e92dd830 	stmdb	sp!, {r4, r5, fp, ip, lr, pc}
    43d0:	e5c23084 	strb	r3, [r2, #132]
    43d4:	e2433023 	sub	r3, r3, #35	; 0x23
    43d8:	e5c23080 	strb	r3, [r2, #128]
    43dc:	e2433057 	sub	r3, r3, #87	; 0x57
    43e0:	e5c2308c 	strb	r3, [r2, #140]
    43e4:	e28330ab 	add	r3, r3, #171	; 0xab
    43e8:	e5c2308c 	strb	r3, [r2, #140]
    43ec:	e24cb004 	sub	fp, ip, #4	; 0x4
    43f0:	e59f515c 	ldr	r5, [pc, #348]	; 4554 <.text+0x554>
    43f4:	e1d538b8 	ldrh	r3, [r5, #136]
    43f8:	e3130b01 	tst	r3, #1024	; 0x400
    43fc:	0afffffb 	beq	43f0 <init_fbw+0x30>
    4400:	e3a02003 	mov	r2, #3	; 0x3
    4404:	e3e03055 	mvn	r3, #85	; 0x55
    4408:	e5c52080 	strb	r2, [r5, #128]
    440c:	e5c5308c 	strb	r3, [r5, #140]
    4410:	e28330ab 	add	r3, r3, #171	; 0xab
    4414:	e5c5308c 	strb	r3, [r5, #140]
    4418:	e59f1138 	ldr	r1, [pc, #312]	; 4558 <.text+0x558>
    441c:	e3a04000 	mov	r4, #0	; 0x0
    4420:	e3a0c002 	mov	ip, #2	; 0x2
    4424:	e28330ab 	add	r3, r3, #171	; 0xab
    4428:	e5c52004 	strb	r2, [r5, #4]
    442c:	e3a0e001 	mov	lr, #1	; 0x1
    4430:	e5c5c000 	strb	ip, [r5]
    4434:	e5c52004 	strb	r2, [r5, #4]
    4438:	e5c5c000 	strb	ip, [r5]
    443c:	e7c54003 	strb	r4, [r5, r3]
    4440:	e3e03000 	mvn	r3, #0	; 0x0
    4444:	e5c5e040 	strb	lr, [r5, #64]
    4448:	e59f010c 	ldr	r0, [pc, #268]	; 455c <.text+0x55c>
    444c:	e5813014 	str	r3, [r1, #20]
    4450:	e59f3108 	ldr	r3, [pc, #264]	; 4560 <.text+0x560>
    4454:	e581400c 	str	r4, [r1, #12]
    4458:	e5813034 	str	r3, [r1, #52]
    445c:	e580c004 	str	ip, [r0, #4]
    4460:	e580400c 	str	r4, [r0, #12]
    4464:	e5804014 	str	r4, [r0, #20]
    4468:	e5804028 	str	r4, [r0, #40]
    446c:	e580403c 	str	r4, [r0, #60]
    4470:	e580e004 	str	lr, [r0, #4]
    4474:	e591300c 	ldr	r3, [r1, #12]
    4478:	e3c33010 	bic	r3, r3, #16	; 0x10
    447c:	e581300c 	str	r3, [r1, #12]
    4480:	e3a03010 	mov	r3, #16	; 0x10
    4484:	e5813010 	str	r3, [r1, #16]
    4488:	e2833014 	add	r3, r3, #20	; 0x14
    448c:	e5813204 	str	r3, [r1, #516]
    4490:	e59f30cc 	ldr	r3, [pc, #204]	; 4564 <.text+0x564>
    4494:	e59f20cc 	ldr	r2, [pc, #204]	; 4568 <.text+0x568>
    4498:	e5813104 	str	r3, [r1, #260]
    449c:	e5923018 	ldr	r3, [r2, #24]
    44a0:	e3833201 	orr	r3, r3, #268435456	; 0x10000000
    44a4:	e5823018 	str	r3, [r2, #24]
    44a8:	e3a03201 	mov	r3, #268435456	; 0x10000000
    44ac:	e5823014 	str	r3, [r2, #20]
    44b0:	e5923018 	ldr	r3, [r2, #24]
    44b4:	e3833702 	orr	r3, r3, #524288	; 0x80000
    44b8:	e5823018 	str	r3, [r2, #24]
    44bc:	e3a03702 	mov	r3, #524288	; 0x80000
    44c0:	e5823014 	str	r3, [r2, #20]
    44c4:	e59f30a0 	ldr	r3, [pc, #160]	; 456c <.text+0x56c>
    44c8:	e1c340b0 	strh	r4, [r3]
    44cc:	e59f309c 	ldr	r3, [pc, #156]	; 4570 <.text+0x570>
    44d0:	e5834000 	str	r4, [r3]
    44d4:	eb00210a 	bl	c904 <uart1_init_tx>
    44d8:	eb0024a4 	bl	d770 <adc_init>
    44dc:	e3a0000e 	mov	r0, #14	; 0xe
    44e0:	e59f108c 	ldr	r1, [pc, #140]	; 4574 <.text+0x574>
    44e4:	e3a02020 	mov	r2, #32	; 0x20
    44e8:	eb00249a 	bl	d758 <adc_buf_channel>
    44ec:	eb0020d2 	bl	c83c <actuators_init>
    44f0:	e59f2080 	ldr	r2, [pc, #128]	; 4578 <.text+0x578>
    44f4:	e1a01084 	mov	r1, r4, lsl #1
    44f8:	e59f307c 	ldr	r3, [pc, #124]	; 457c <.text+0x57c>
    44fc:	e2844001 	add	r4, r4, #1	; 0x1
    4500:	e19120b2 	ldrh	r2, [r1, r2]
    4504:	e3540003 	cmp	r4, #3	; 0x3
    4508:	e18120b3 	strh	r2, [r1, r3]
    450c:	dafffff7 	ble	44f0 <init_fbw+0x130>
    4510:	e59f2068 	ldr	r2, [pc, #104]	; 4580 <.text+0x580>
    4514:	e5923000 	ldr	r3, [r2]
    4518:	e3833a02 	orr	r3, r3, #8192	; 0x2000
    451c:	e5823000 	str	r3, [r2]
    4520:	e59f005c 	ldr	r0, [pc, #92]	; 4584 <.text+0x584>
    4524:	e59f3030 	ldr	r3, [pc, #48]	; 455c <.text+0x55c>
    4528:	e3a02d06 	mov	r2, #384	; 0x180
    452c:	e5832028 	str	r2, [r3, #40]
    4530:	e590c000 	ldr	ip, [r0]
    4534:	e59f304c 	ldr	r3, [pc, #76]	; 4588 <.text+0x588>
    4538:	e3a01000 	mov	r1, #0	; 0x0
    453c:	e5c31000 	strb	r1, [r3]
    4540:	e5cc1011 	strb	r1, [ip, #17]
    4544:	e5903000 	ldr	r3, [r0]
    4548:	e5c31012 	strb	r1, [r3, #18]
    454c:	e89d6830 	ldmia	sp, {r4, r5, fp, sp, lr}
    4550:	e12fff1e 	bx	lr
    4554:	e01fc000 	ands	ip, pc, r0
    4558:	fffff000 	swinv	0x00fff000
    455c:	e0004000 	and	r4, r0, r0
    4560:	00004114 	andeq	r4, r0, r4, lsl r1
    4564:	0000413c 	andeq	r4, r0, ip, lsr r1
    4568:	e0028000 	and	r8, r2, r0
    456c:	400007dc 	ldrmid	r0, [r0], -ip
    4570:	400007e0 	andmi	r0, r0, r0, ror #15
    4574:	400007e4 	andmi	r0, r0, r4, ror #15
    4578:	00018056 	andeq	r8, r1, r6, asr r0
    457c:	40000a22 	andmi	r0, r0, r2, lsr #20
    4580:	e002c000 	and	ip, r2, r0
    4584:	40000010 	andmi	r0, r0, r0, lsl r0
    4588:	40000a92 	mulmi	r0, r2, sl

0000458c <event_task_fbw>:
    458c:	e1a0c00d 	mov	ip, sp
    4590:	e92ddff0 	stmdb	sp!, {r4, r5, r6, r7, r8, r9, sl, fp, ip, lr, pc}
    4594:	e24cb004 	sub	fp, ip, #4	; 0x4
    4598:	e59fc560 	ldr	ip, [pc, #1376]	; 4b00 <.text+0xb00>
    459c:	e5dc3000 	ldrb	r3, [ip]
    45a0:	e3530000 	cmp	r3, #0	; 0x0
    45a4:	0a000107 	beq	49c8 <event_task_fbw+0x43c>
    45a8:	e59f1554 	ldr	r1, [pc, #1364]	; 4b04 <.text+0xb04>
    45ac:	e59f9554 	ldr	r9, [pc, #1364]	; 4b08 <.text+0xb08>
    45b0:	e5d13000 	ldrb	r3, [r1]
    45b4:	e1d940b0 	ldrh	r4, [r9]
    45b8:	e2833001 	add	r3, r3, #1	; 0x1
    45bc:	e5c13000 	strb	r3, [r1]
    45c0:	e2444c59 	sub	r4, r4, #22784	; 0x5900
    45c4:	e59f3540 	ldr	r3, [pc, #1344]	; 4b0c <.text+0xb0c>
    45c8:	e3a02000 	mov	r2, #0	; 0x0
    45cc:	e244405b 	sub	r4, r4, #91	; 0x5b
    45d0:	e5c32000 	strb	r2, [r3]
    45d4:	e1a04804 	mov	r4, r4, lsl #16
    45d8:	e59f3530 	ldr	r3, [pc, #1328]	; 4b10 <.text+0xb10>
    45dc:	e1a04844 	mov	r4, r4, asr #16
    45e0:	e5c32000 	strb	r2, [r3]
    45e4:	e5cc2000 	strb	r2, [ip]
    45e8:	e1a00004 	mov	r0, r4
    45ec:	eb004d3b 	bl	17ae0 <__floatsisf>
    45f0:	e3540000 	cmp	r4, #0	; 0x0
    45f4:	a59f1518 	ldrge	r1, [pc, #1304]	; 4b14 <.text+0xb14>
    45f8:	b59f1518 	ldrlt	r1, [pc, #1304]	; 4b18 <.text+0xb18>
    45fc:	eb004d4a 	bl	17b2c <__mulsf3>
    4600:	eb004e3c 	bl	17ef8 <__fixsfsi>
    4604:	e59fa510 	ldr	sl, [pc, #1296]	; 4b1c <.text+0xb1c>
    4608:	e1ca00b0 	strh	r0, [sl]
    460c:	e1da30f0 	ldrsh	r3, [sl]
    4610:	e3530d96 	cmp	r3, #9600	; 0x2580
    4614:	c3a01d96 	movgt	r1, #9600	; 0x2580
    4618:	c1ca10b0 	strgth	r1, [sl]
    461c:	ca000003 	bgt	4630 <event_task_fbw+0xa4>
    4620:	e3730d96 	cmn	r3, #9600	; 0x2580
    4624:	b59f24f4 	ldrlt	r2, [pc, #1268]	; 4b20 <.text+0xb20>
    4628:	b59f34ec 	ldrlt	r3, [pc, #1260]	; 4b1c <.text+0xb1c>
    462c:	b1c320b0 	strlth	r2, [r3]
    4630:	e1d940b2 	ldrh	r4, [r9, #2]
    4634:	e2444b16 	sub	r4, r4, #22528	; 0x5800
    4638:	e24440f2 	sub	r4, r4, #242	; 0xf2
    463c:	e1a04804 	mov	r4, r4, lsl #16
    4640:	e1a04844 	mov	r4, r4, asr #16
    4644:	e1a00004 	mov	r0, r4
    4648:	eb004d24 	bl	17ae0 <__floatsisf>
    464c:	e3540000 	cmp	r4, #0	; 0x0
    4650:	a59f14cc 	ldrge	r1, [pc, #1228]	; 4b24 <.text+0xb24>
    4654:	b59f14cc 	ldrlt	r1, [pc, #1228]	; 4b28 <.text+0xb28>
    4658:	eb004d33 	bl	17b2c <__mulsf3>
    465c:	eb004e25 	bl	17ef8 <__fixsfsi>
    4660:	e59f34b4 	ldr	r3, [pc, #1204]	; 4b1c <.text+0xb1c>
    4664:	e1c300b2 	strh	r0, [r3, #2]
    4668:	e1da30f2 	ldrsh	r3, [sl, #2]
    466c:	e3530d96 	cmp	r3, #9600	; 0x2580
    4670:	c3a02d96 	movgt	r2, #9600	; 0x2580
    4674:	c1ca20b2 	strgth	r2, [sl, #2]
    4678:	ca000003 	bgt	468c <event_task_fbw+0x100>
    467c:	e3730d96 	cmn	r3, #9600	; 0x2580
    4680:	b59f2498 	ldrlt	r2, [pc, #1176]	; 4b20 <.text+0xb20>
    4684:	b59f3490 	ldrlt	r3, [pc, #1168]	; 4b1c <.text+0xb1c>
    4688:	b1c320b2 	strlth	r2, [r3, #2]
    468c:	e1d900b4 	ldrh	r0, [r9, #4]
    4690:	e2400c71 	sub	r0, r0, #28928	; 0x7100
    4694:	e24000ac 	sub	r0, r0, #172	; 0xac
    4698:	e1a00800 	mov	r0, r0, lsl #16
    469c:	e1a00840 	mov	r0, r0, asr #16
    46a0:	eb004d0e 	bl	17ae0 <__floatsisf>
    46a4:	e59f1480 	ldr	r1, [pc, #1152]	; 4b2c <.text+0xb2c>
    46a8:	eb004d1f 	bl	17b2c <__mulsf3>
    46ac:	eb004e11 	bl	17ef8 <__fixsfsi>
    46b0:	e1ca00b4 	strh	r0, [sl, #4]
    46b4:	e1da30f4 	ldrsh	r3, [sl, #4]
    46b8:	e3530d96 	cmp	r3, #9600	; 0x2580
    46bc:	c3a03d96 	movgt	r3, #9600	; 0x2580
    46c0:	c1ca30b4 	strgth	r3, [sl, #4]
    46c4:	ca000003 	bgt	46d8 <event_task_fbw+0x14c>
    46c8:	e3530000 	cmp	r3, #0	; 0x0
    46cc:	b59f3448 	ldrlt	r3, [pc, #1096]	; 4b1c <.text+0xb1c>
    46d0:	b3a01000 	movlt	r1, #0	; 0x0
    46d4:	b1c310b4 	strlth	r1, [r3, #4]
    46d8:	e1d940b6 	ldrh	r4, [r9, #6]
    46dc:	e2444c57 	sub	r4, r4, #22272	; 0x5700
    46e0:	e24440c6 	sub	r4, r4, #198	; 0xc6
    46e4:	e1a04804 	mov	r4, r4, lsl #16
    46e8:	e1a04844 	mov	r4, r4, asr #16
    46ec:	e1a00004 	mov	r0, r4
    46f0:	eb004cfa 	bl	17ae0 <__floatsisf>
    46f4:	e3540000 	cmp	r4, #0	; 0x0
    46f8:	a59f1430 	ldrge	r1, [pc, #1072]	; 4b30 <.text+0xb30>
    46fc:	b59f1430 	ldrlt	r1, [pc, #1072]	; 4b34 <.text+0xb34>
    4700:	eb004d09 	bl	17b2c <__mulsf3>
    4704:	eb004dfb 	bl	17ef8 <__fixsfsi>
    4708:	e59f340c 	ldr	r3, [pc, #1036]	; 4b1c <.text+0xb1c>
    470c:	e1c300b6 	strh	r0, [r3, #6]
    4710:	e1da30f6 	ldrsh	r3, [sl, #6]
    4714:	e3530d96 	cmp	r3, #9600	; 0x2580
    4718:	c3a02d96 	movgt	r2, #9600	; 0x2580
    471c:	c1ca20b6 	strgth	r2, [sl, #6]
    4720:	ca000003 	bgt	4734 <event_task_fbw+0x1a8>
    4724:	e3730d96 	cmn	r3, #9600	; 0x2580
    4728:	b59f23f0 	ldrlt	r2, [pc, #1008]	; 4b20 <.text+0xb20>
    472c:	b59f33e8 	ldrlt	r3, [pc, #1000]	; 4b1c <.text+0xb1c>
    4730:	b1c320b6 	strlth	r2, [r3, #6]
    4734:	e59f83fc 	ldr	r8, [pc, #1020]	; 4b38 <.text+0xb38>
    4738:	e5d83000 	ldrb	r3, [r8]
    473c:	e2833001 	add	r3, r3, #1	; 0x1
    4740:	e59f73f4 	ldr	r7, [pc, #1012]	; 4b3c <.text+0xb3c>
    4744:	e5c83000 	strb	r3, [r8]
    4748:	e5975010 	ldr	r5, [r7, #16]
    474c:	e5973014 	ldr	r3, [r7, #20]
    4750:	e5972018 	ldr	r2, [r7, #24]
    4754:	e597101c 	ldr	r1, [r7, #28]
    4758:	e1d960be 	ldrh	r6, [r9, #14]
    475c:	e1d900b8 	ldrh	r0, [r9, #8]
    4760:	e1d9c0ba 	ldrh	ip, [r9, #10]
    4764:	e1d9e0bc 	ldrh	lr, [r9, #12]
    4768:	e5d84000 	ldrb	r4, [r8]
    476c:	e0855000 	add	r5, r5, r0
    4770:	e083300c 	add	r3, r3, ip
    4774:	e082200e 	add	r2, r2, lr
    4778:	e0811006 	add	r1, r1, r6
    477c:	e3540008 	cmp	r4, #8	; 0x8
    4780:	e5873014 	str	r3, [r7, #20]
    4784:	e5872018 	str	r2, [r7, #24]
    4788:	e587101c 	str	r1, [r7, #28]
    478c:	e5875010 	str	r5, [r7, #16]
    4790:	1a000073 	bne	4964 <event_task_fbw+0x3d8>
    4794:	e1a04fc5 	mov	r4, r5, asr #31
    4798:	e0854ea4 	add	r4, r5, r4, lsr #29
    479c:	e1a041c4 	mov	r4, r4, asr #3
    47a0:	e2444c59 	sub	r4, r4, #22784	; 0x5900
    47a4:	e244405b 	sub	r4, r4, #91	; 0x5b
    47a8:	e1a04804 	mov	r4, r4, lsl #16
    47ac:	e1a04844 	mov	r4, r4, asr #16
    47b0:	e3a03000 	mov	r3, #0	; 0x0
    47b4:	e1a00004 	mov	r0, r4
    47b8:	e5c83000 	strb	r3, [r8]
    47bc:	eb004cc7 	bl	17ae0 <__floatsisf>
    47c0:	e3540000 	cmp	r4, #0	; 0x0
    47c4:	a59f1374 	ldrge	r1, [pc, #884]	; 4b40 <.text+0xb40>
    47c8:	b59f1374 	ldrlt	r1, [pc, #884]	; 4b44 <.text+0xb44>
    47cc:	eb004cd6 	bl	17b2c <__mulsf3>
    47d0:	eb004dc8 	bl	17ef8 <__fixsfsi>
    47d4:	e59f3340 	ldr	r3, [pc, #832]	; 4b1c <.text+0xb1c>
    47d8:	e1c300b8 	strh	r0, [r3, #8]
    47dc:	e1da20f8 	ldrsh	r2, [sl, #8]
    47e0:	e3a03000 	mov	r3, #0	; 0x0
    47e4:	e3520d96 	cmp	r2, #9600	; 0x2580
    47e8:	e5873010 	str	r3, [r7, #16]
    47ec:	c3a03d96 	movgt	r3, #9600	; 0x2580
    47f0:	c1ca30b8 	strgth	r3, [sl, #8]
    47f4:	ca000003 	bgt	4808 <event_task_fbw+0x27c>
    47f8:	e3720d96 	cmn	r2, #9600	; 0x2580
    47fc:	b59f231c 	ldrlt	r2, [pc, #796]	; 4b20 <.text+0xb20>
    4800:	b59f3314 	ldrlt	r3, [pc, #788]	; 4b1c <.text+0xb1c>
    4804:	b1c320b8 	strlth	r2, [r3, #8]
    4808:	e5974014 	ldr	r4, [r7, #20]
    480c:	e1a03fc4 	mov	r3, r4, asr #31
    4810:	e0844ea3 	add	r4, r4, r3, lsr #29
    4814:	e1a041c4 	mov	r4, r4, asr #3
    4818:	e2444c59 	sub	r4, r4, #22784	; 0x5900
    481c:	e2444010 	sub	r4, r4, #16	; 0x10
    4820:	e1a04804 	mov	r4, r4, lsl #16
    4824:	e1a04844 	mov	r4, r4, asr #16
    4828:	e1a00004 	mov	r0, r4
    482c:	eb004cab 	bl	17ae0 <__floatsisf>
    4830:	e3540000 	cmp	r4, #0	; 0x0
    4834:	a59f130c 	ldrge	r1, [pc, #780]	; 4b48 <.text+0xb48>
    4838:	b59f130c 	ldrlt	r1, [pc, #780]	; 4b4c <.text+0xb4c>
    483c:	eb004cba 	bl	17b2c <__mulsf3>
    4840:	eb004dac 	bl	17ef8 <__fixsfsi>
    4844:	e59f32d0 	ldr	r3, [pc, #720]	; 4b1c <.text+0xb1c>
    4848:	e1c300ba 	strh	r0, [r3, #10]
    484c:	e1da20fa 	ldrsh	r2, [sl, #10]
    4850:	e3520d96 	cmp	r2, #9600	; 0x2580
    4854:	e3a03000 	mov	r3, #0	; 0x0
    4858:	c3a01d96 	movgt	r1, #9600	; 0x2580
    485c:	e5873014 	str	r3, [r7, #20]
    4860:	c1ca10ba 	strgth	r1, [sl, #10]
    4864:	ca000003 	bgt	4878 <event_task_fbw+0x2ec>
    4868:	e3720d96 	cmn	r2, #9600	; 0x2580
    486c:	b59f22ac 	ldrlt	r2, [pc, #684]	; 4b20 <.text+0xb20>
    4870:	b59f32a4 	ldrlt	r3, [pc, #676]	; 4b1c <.text+0xb1c>
    4874:	b1c320ba 	strlth	r2, [r3, #10]
    4878:	e5974018 	ldr	r4, [r7, #24]
    487c:	e1a03fc4 	mov	r3, r4, asr #31
    4880:	e0844ea3 	add	r4, r4, r3, lsr #29
    4884:	e1a041c4 	mov	r4, r4, asr #3
    4888:	e2444b16 	sub	r4, r4, #22528	; 0x5800
    488c:	e24440f2 	sub	r4, r4, #242	; 0xf2
    4890:	e1a04804 	mov	r4, r4, lsl #16
    4894:	e1a04844 	mov	r4, r4, asr #16
    4898:	e1a00004 	mov	r0, r4
    489c:	eb004c8f 	bl	17ae0 <__floatsisf>
    48a0:	e3540000 	cmp	r4, #0	; 0x0
    48a4:	a59f12a4 	ldrge	r1, [pc, #676]	; 4b50 <.text+0xb50>
    48a8:	b59f12a4 	ldrlt	r1, [pc, #676]	; 4b54 <.text+0xb54>
    48ac:	eb004c9e 	bl	17b2c <__mulsf3>
    48b0:	eb004d90 	bl	17ef8 <__fixsfsi>
    48b4:	e59f3260 	ldr	r3, [pc, #608]	; 4b1c <.text+0xb1c>
    48b8:	e1c300bc 	strh	r0, [r3, #12]
    48bc:	e1da20fc 	ldrsh	r2, [sl, #12]
    48c0:	e3520d96 	cmp	r2, #9600	; 0x2580
    48c4:	e3a03000 	mov	r3, #0	; 0x0
    48c8:	c3a02d96 	movgt	r2, #9600	; 0x2580
    48cc:	e5873018 	str	r3, [r7, #24]
    48d0:	c1ca20bc 	strgth	r2, [sl, #12]
    48d4:	ca000003 	bgt	48e8 <event_task_fbw+0x35c>
    48d8:	e3720d96 	cmn	r2, #9600	; 0x2580
    48dc:	b59f223c 	ldrlt	r2, [pc, #572]	; 4b20 <.text+0xb20>
    48e0:	b59f3234 	ldrlt	r3, [pc, #564]	; 4b1c <.text+0xb1c>
    48e4:	b1c320bc 	strlth	r2, [r3, #12]
    48e8:	e597401c 	ldr	r4, [r7, #28]
    48ec:	e1a03fc4 	mov	r3, r4, asr #31
    48f0:	e0844ea3 	add	r4, r4, r3, lsr #29
    48f4:	e1a041c4 	mov	r4, r4, asr #3
    48f8:	e2444c59 	sub	r4, r4, #22784	; 0x5900
    48fc:	e244406a 	sub	r4, r4, #106	; 0x6a
    4900:	e1a04804 	mov	r4, r4, lsl #16
    4904:	e1a04844 	mov	r4, r4, asr #16
    4908:	e1a00004 	mov	r0, r4
    490c:	eb004c73 	bl	17ae0 <__floatsisf>
    4910:	e3540000 	cmp	r4, #0	; 0x0
    4914:	a59f123c 	ldrge	r1, [pc, #572]	; 4b58 <.text+0xb58>
    4918:	b59f123c 	ldrlt	r1, [pc, #572]	; 4b5c <.text+0xb5c>
    491c:	eb004c82 	bl	17b2c <__mulsf3>
    4920:	eb004d74 	bl	17ef8 <__fixsfsi>
    4924:	e59f31f0 	ldr	r3, [pc, #496]	; 4b1c <.text+0xb1c>
    4928:	e1c300be 	strh	r0, [r3, #14]
    492c:	e1da20fe 	ldrsh	r2, [sl, #14]
    4930:	e3a03000 	mov	r3, #0	; 0x0
    4934:	e3520d96 	cmp	r2, #9600	; 0x2580
    4938:	e587301c 	str	r3, [r7, #28]
    493c:	c3a03d96 	movgt	r3, #9600	; 0x2580
    4940:	c1ca30be 	strgth	r3, [sl, #14]
    4944:	ca000003 	bgt	4958 <event_task_fbw+0x3cc>
    4948:	e3720d96 	cmn	r2, #9600	; 0x2580
    494c:	b59f21cc 	ldrlt	r2, [pc, #460]	; 4b20 <.text+0xb20>
    4950:	b59f31c4 	ldrlt	r3, [pc, #452]	; 4b1c <.text+0xb1c>
    4954:	b1c320be 	strlth	r2, [r3, #14]
    4958:	e59f3200 	ldr	r3, [pc, #512]	; 4b60 <.text+0xb60>
    495c:	e3a02001 	mov	r2, #1	; 0x1
    4960:	e5c32000 	strb	r2, [r3]
    4964:	e59f31f4 	ldr	r3, [pc, #500]	; 4b60 <.text+0xb60>
    4968:	e5d33000 	ldrb	r3, [r3]
    496c:	e3530000 	cmp	r3, #0	; 0x0
    4970:	0a000006 	beq	4990 <event_task_fbw+0x404>
    4974:	e59f31a0 	ldr	r3, [pc, #416]	; 4b1c <.text+0xb1c>
    4978:	e1d330fe 	ldrsh	r3, [r3, #14]
    497c:	e59f21e0 	ldr	r2, [pc, #480]	; 4b64 <.text+0xb64>
    4980:	e3730d4b 	cmn	r3, #4800	; 0x12c0
    4984:	b3a03000 	movlt	r3, #0	; 0x0
    4988:	a3a03001 	movge	r3, #1	; 0x1
    498c:	e5c23000 	strb	r3, [r2]
    4990:	e59f31cc 	ldr	r3, [pc, #460]	; 4b64 <.text+0xb64>
    4994:	e5d33000 	ldrb	r3, [r3]
    4998:	e3530000 	cmp	r3, #0	; 0x0
    499c:	1a000009 	bne	49c8 <event_task_fbw+0x43c>
    49a0:	e59f3174 	ldr	r3, [pc, #372]	; 4b1c <.text+0xb1c>
    49a4:	e59f21bc 	ldr	r2, [pc, #444]	; 4b68 <.text+0xb68>
    49a8:	e1d310ba 	ldrh	r1, [r3, #10]
    49ac:	e1c210b6 	strh	r1, [r2, #6]
    49b0:	e1d310b4 	ldrh	r1, [r3, #4]
    49b4:	e1c210b0 	strh	r1, [r2]
    49b8:	e1d310b0 	ldrh	r1, [r3]
    49bc:	e1d330b2 	ldrh	r3, [r3, #2]
    49c0:	e1c210b2 	strh	r1, [r2, #2]
    49c4:	e1c230b4 	strh	r3, [r2, #4]
    49c8:	e59f019c 	ldr	r0, [pc, #412]	; 4b6c <.text+0xb6c>
    49cc:	e5d03000 	ldrb	r3, [r0]
    49d0:	e3530000 	cmp	r3, #0	; 0x0
    49d4:	0a000047 	beq	4af8 <event_task_fbw+0x56c>
    49d8:	e59fe184 	ldr	lr, [pc, #388]	; 4b64 <.text+0xb64>
    49dc:	e5de3000 	ldrb	r3, [lr]
    49e0:	e3530001 	cmp	r3, #1	; 0x1
    49e4:	e59f3184 	ldr	r3, [pc, #388]	; 4b70 <.text+0xb70>
    49e8:	e3a01000 	mov	r1, #0	; 0x0
    49ec:	e3a02001 	mov	r2, #1	; 0x1
    49f0:	e5c01000 	strb	r1, [r0]
    49f4:	e5c32000 	strb	r2, [r3]
    49f8:	e59f3174 	ldr	r3, [pc, #372]	; 4b74 <.text+0xb74>
    49fc:	e5c31000 	strb	r1, [r3]
    4a00:	e59f3170 	ldr	r3, [pc, #368]	; 4b78 <.text+0xb78>
    4a04:	e5c32000 	strb	r2, [r3]
    4a08:	1a000009 	bne	4a34 <event_task_fbw+0x4a8>
    4a0c:	e1a00001 	mov	r0, r1
    4a10:	e59f3164 	ldr	r3, [pc, #356]	; 4b7c <.text+0xb7c>
    4a14:	e5931000 	ldr	r1, [r3]
    4a18:	e1a02080 	mov	r2, r0, lsl #1
    4a1c:	e59f3144 	ldr	r3, [pc, #324]	; 4b68 <.text+0xb68>
    4a20:	e2800001 	add	r0, r0, #1	; 0x1
    4a24:	e19210b1 	ldrh	r1, [r2, r1]
    4a28:	e3500003 	cmp	r0, #3	; 0x3
    4a2c:	e18210b3 	strh	r1, [r2, r3]
    4a30:	dafffff6 	ble	4a10 <event_task_fbw+0x484>
    4a34:	e3a01000 	mov	r1, #0	; 0x0
    4a38:	e2813001 	add	r3, r1, #1	; 0x1
    4a3c:	e1a02081 	mov	r2, r1, lsl #1
    4a40:	e59fc138 	ldr	ip, [pc, #312]	; 4b80 <.text+0xb80>
    4a44:	e20310ff 	and	r1, r3, #255	; 0xff
    4a48:	e59f30cc 	ldr	r3, [pc, #204]	; 4b1c <.text+0xb1c>
    4a4c:	e59c0000 	ldr	r0, [ip]
    4a50:	e19230b3 	ldrh	r3, [r2, r3]
    4a54:	e3510007 	cmp	r1, #7	; 0x7
    4a58:	e18230b0 	strh	r3, [r2, r0]
    4a5c:	9afffff5 	bls	4a38 <event_task_fbw+0x4ac>
    4a60:	e59f311c 	ldr	r3, [pc, #284]	; 4b84 <.text+0xb84>
    4a64:	e5d33000 	ldrb	r3, [r3]
    4a68:	e5c03010 	strb	r3, [r0, #16]
    4a6c:	e59f3098 	ldr	r3, [pc, #152]	; 4b0c <.text+0xb0c>
    4a70:	e5d33000 	ldrb	r3, [r3]
    4a74:	e2732001 	rsbs	r2, r3, #1	; 0x1
    4a78:	33a02000 	movcc	r2, #0	; 0x0
    4a7c:	e3530002 	cmp	r3, #2	; 0x2
    4a80:	120220ff 	andne	r2, r2, #255	; 0xff
    4a84:	1a000002 	bne	4a94 <event_task_fbw+0x508>
    4a88:	e3520000 	cmp	r2, #0	; 0x0
    4a8c:	13a02003 	movne	r2, #3	; 0x3
    4a90:	03a02002 	moveq	r2, #2	; 0x2
    4a94:	e5de3000 	ldrb	r3, [lr]
    4a98:	e3530001 	cmp	r3, #1	; 0x1
    4a9c:	e5de3000 	ldrb	r3, [lr]
    4aa0:	03822004 	orreq	r2, r2, #4	; 0x4
    4aa4:	120220ff 	andne	r2, r2, #255	; 0xff
    4aa8:	e3530002 	cmp	r3, #2	; 0x2
    4aac:	e59c3000 	ldr	r3, [ip]
    4ab0:	03822008 	orreq	r2, r2, #8	; 0x8
    4ab4:	120220ff 	andne	r2, r2, #255	; 0xff
    4ab8:	e5c32011 	strb	r2, [r3, #17]
    4abc:	e59f109c 	ldr	r1, [pc, #156]	; 4b60 <.text+0xb60>
    4ac0:	e5d13000 	ldrb	r3, [r1]
    4ac4:	e3530000 	cmp	r3, #0	; 0x0
    4ac8:	0a000005 	beq	4ae4 <event_task_fbw+0x558>
    4acc:	e59c3000 	ldr	r3, [ip]
    4ad0:	e5d32011 	ldrb	r2, [r3, #17]
    4ad4:	e3822010 	orr	r2, r2, #16	; 0x10
    4ad8:	e5c32011 	strb	r2, [r3, #17]
    4adc:	e3a03000 	mov	r3, #0	; 0x0
    4ae0:	e5c13000 	strb	r3, [r1]
    4ae4:	e59f3094 	ldr	r3, [pc, #148]	; 4b80 <.text+0xb80>
    4ae8:	e5932000 	ldr	r2, [r3]
    4aec:	e59f3094 	ldr	r3, [pc, #148]	; 4b88 <.text+0xb88>
    4af0:	e5d33000 	ldrb	r3, [r3]
    4af4:	e5c23013 	strb	r3, [r2, #19]
    4af8:	e89d6ff0 	ldmia	sp, {r4, r5, r6, r7, r8, r9, sl, fp, sp, lr}
    4afc:	e12fff1e 	bx	lr
    4b00:	40000a92 	mulmi	r0, r2, sl
    4b04:	40000a4e 	andmi	r0, r0, lr, asr #20
    4b08:	40000a82 	andmi	r0, r0, r2, lsl #21
    4b0c:	40000a4c 	andmi	r0, r0, ip, asr #20
    4b10:	40000a4d 	andmi	r0, r0, sp, asr #20
    4b14:	bfc759e0 	swilt	0x00c759e0
    4b18:	bfc5dfd8 	swilt	0x00c5dfd8
    4b1c:	40000a50 	andmi	r0, r0, r0, asr sl
    4b20:	ffffda80 	swinv	0x00ffda80
    4b24:	3fc3835c 	swicc	0x00c3835c
    4b28:	3fc9ce79 	swicc	0x00c9ce79
    4b2c:	bf469c28 	swilt	0x00469c28
    4b30:	bfd5ed76 	swilt	0x00d5ed76
    4b34:	bfb956e1 	swilt	0x00b956e1
    4b38:	400004a4 	andmi	r0, r0, r4, lsr #9
    4b3c:	40000a60 	andmi	r0, r0, r0, ror #20
    4b40:	bf935b16 	swilt	0x00935b16
    4b44:	bf939a86 	swilt	0x00939a86
    4b48:	3f92cf5f 	swicc	0x0092cf5f
    4b4c:	3f94f6a9 	swicc	0x0094f6a9
    4b50:	3f928c23 	swicc	0x00928c23
    4b54:	3f9581da 	swicc	0x009581da
    4b58:	bf924d9a 	swilt	0x00924d9a
    4b5c:	bf94232f 	swilt	0x0094232f
    4b60:	400004e4 	andmi	r0, r0, r4, ror #9
    4b64:	40000829 	andmi	r0, r0, r9, lsr #16
    4b68:	40000a22 	andmi	r0, r0, r2, lsr #20
    4b6c:	400004fc 	strmid	r0, [r0], -ip
    4b70:	400004fd 	strmid	r0, [r0], -sp
    4b74:	40000e2e 	andmi	r0, r0, lr, lsr #28
    4b78:	40000e2d 	andmi	r0, r0, sp, lsr #28
    4b7c:	4000000c 	andmi	r0, r0, ip
    4b80:	40000010 	andmi	r0, r0, r0, lsl r0
    4b84:	40000a80 	andmi	r0, r0, r0, lsl #21
    4b88:	40000828 	andmi	r0, r0, r8, lsr #16

00004b8c <periodic_task_fbw>:
    4b8c:	e1a0c00d 	mov	ip, sp
    4b90:	e92ddff0 	stmdb	sp!, {r4, r5, r6, r7, r8, r9, sl, fp, ip, lr, pc}
    4b94:	e59f0ef0 	ldr	r0, [pc, #3824]	; 5a8c <.text+0x1a8c>
    4b98:	e24cb004 	sub	fp, ip, #4	; 0x4
    4b9c:	e24dd018 	sub	sp, sp, #24	; 0x18
    4ba0:	e5d03000 	ldrb	r3, [r0]
    4ba4:	e2833001 	add	r3, r3, #1	; 0x1
    4ba8:	e5c03000 	strb	r3, [r0]
    4bac:	e5d03000 	ldrb	r3, [r0]
    4bb0:	e59fce5c 	ldr	ip, [pc, #3676]	; 5a14 <.text+0x1a14>
    4bb4:	e3530005 	cmp	r3, #5	; 0x5
    4bb8:	83a03000 	movhi	r3, #0	; 0x0
    4bbc:	85c03000 	strhib	r3, [r0]
    4bc0:	e5dc3000 	ldrb	r3, [ip]
    4bc4:	e2833001 	add	r3, r3, #1	; 0x1
    4bc8:	e5cc3000 	strb	r3, [ip]
    4bcc:	e5dc3000 	ldrb	r3, [ip]
    4bd0:	e353003b 	cmp	r3, #59	; 0x3b
    4bd4:	9a000006 	bls	4bf4 <periodic_task_fbw+0x68>
    4bd8:	e59f0e38 	ldr	r0, [pc, #3640]	; 5a18 <.text+0x1a18>
    4bdc:	e59f3e38 	ldr	r3, [pc, #3640]	; 5a1c <.text+0x1a1c>
    4be0:	e5d01000 	ldrb	r1, [r0]
    4be4:	e3a02000 	mov	r2, #0	; 0x0
    4be8:	e5c31000 	strb	r1, [r3]
    4bec:	e5c02000 	strb	r2, [r0]
    4bf0:	e5cc2000 	strb	r2, [ip]
    4bf4:	e59f0e24 	ldr	r0, [pc, #3620]	; 5a20 <.text+0x1a20>
    4bf8:	e5d01000 	ldrb	r1, [r0]
    4bfc:	e20130ff 	and	r3, r1, #255	; 0xff
    4c00:	e353003b 	cmp	r3, #59	; 0x3b
    4c04:	859f3e50 	ldrhi	r3, [pc, #3664]	; 5a5c <.text+0x1a5c>
    4c08:	83a02002 	movhi	r2, #2	; 0x2
    4c0c:	85c32000 	strhib	r2, [r3]
    4c10:	8a000005 	bhi	4c2c <periodic_task_fbw+0xa0>
    4c14:	e353001d 	cmp	r3, #29	; 0x1d
    4c18:	859f3e3c 	ldrhi	r3, [pc, #3644]	; 5a5c <.text+0x1a5c>
    4c1c:	83a02001 	movhi	r2, #1	; 0x1
    4c20:	85c32000 	strhib	r2, [r3]
    4c24:	e2813001 	add	r3, r1, #1	; 0x1
    4c28:	e5c03000 	strb	r3, [r0]
    4c2c:	e59fee2c 	ldr	lr, [pc, #3628]	; 5a60 <.text+0x1a60>
    4c30:	e5de3000 	ldrb	r3, [lr]
    4c34:	e3530000 	cmp	r3, #0	; 0x0
    4c38:	1a000004 	bne	4c50 <periodic_task_fbw+0xc4>
    4c3c:	e59f3e18 	ldr	r3, [pc, #3608]	; 5a5c <.text+0x1a5c>
    4c40:	e5d33000 	ldrb	r3, [r3]
    4c44:	e3530002 	cmp	r3, #2	; 0x2
    4c48:	02433001 	subeq	r3, r3, #1	; 0x1
    4c4c:	05ce3000 	streqb	r3, [lr]
    4c50:	e59f2dcc 	ldr	r2, [pc, #3532]	; 5a24 <.text+0x1a24>
    4c54:	e5d23000 	ldrb	r3, [r2]
    4c58:	e353001d 	cmp	r3, #29	; 0x1d
    4c5c:	859f3dc4 	ldrhi	r3, [pc, #3524]	; 5a28 <.text+0x1a28>
    4c60:	92833001 	addls	r3, r3, #1	; 0x1
    4c64:	83a02000 	movhi	r2, #0	; 0x0
    4c68:	85c32000 	strhib	r2, [r3]
    4c6c:	95c23000 	strlsb	r3, [r2]
    4c70:	e5de3000 	ldrb	r3, [lr]
    4c74:	e3530001 	cmp	r3, #1	; 0x1
    4c78:	1a00000e 	bne	4cb8 <periodic_task_fbw+0x12c>
    4c7c:	e59f3da4 	ldr	r3, [pc, #3492]	; 5a28 <.text+0x1a28>
    4c80:	e5d31000 	ldrb	r1, [r3]
    4c84:	e3510000 	cmp	r1, #0	; 0x0
    4c88:	1a00000a 	bne	4cb8 <periodic_task_fbw+0x12c>
    4c8c:	e3a03002 	mov	r3, #2	; 0x2
    4c90:	e5ce3000 	strb	r3, [lr]
    4c94:	e1a00001 	mov	r0, r1
    4c98:	e59f2d8c 	ldr	r2, [pc, #3468]	; 5a2c <.text+0x1a2c>
    4c9c:	e1a01080 	mov	r1, r0, lsl #1
    4ca0:	e59f3d88 	ldr	r3, [pc, #3464]	; 5a30 <.text+0x1a30>
    4ca4:	e2800001 	add	r0, r0, #1	; 0x1
    4ca8:	e19120b2 	ldrh	r2, [r1, r2]
    4cac:	e3500003 	cmp	r0, #3	; 0x3
    4cb0:	e18120b3 	strh	r2, [r1, r3]
    4cb4:	dafffff7 	ble	4c98 <periodic_task_fbw+0x10c>
    4cb8:	e59f1d74 	ldr	r1, [pc, #3444]	; 5a34 <.text+0x1a34>
    4cbc:	e5d12000 	ldrb	r2, [r1]
    4cc0:	e3520000 	cmp	r2, #0	; 0x0
    4cc4:	1a0001b1 	bne	5390 <periodic_task_fbw+0x804>
    4cc8:	e59f1d68 	ldr	r1, [pc, #3432]	; 5a38 <.text+0x1a38>
    4ccc:	e5d13000 	ldrb	r3, [r1]
    4cd0:	e2833001 	add	r3, r3, #1	; 0x1
    4cd4:	e5c13000 	strb	r3, [r1]
    4cd8:	e59fcd5c 	ldr	ip, [pc, #3420]	; 5a3c <.text+0x1a3c>
    4cdc:	e5d13000 	ldrb	r3, [r1]
    4ce0:	e353003b 	cmp	r3, #59	; 0x3b
    4ce4:	e1dc30b0 	ldrh	r3, [ip]
    4ce8:	e2833001 	add	r3, r3, #1	; 0x1
    4cec:	e1cc30b0 	strh	r3, [ip]
    4cf0:	85c12000 	strhib	r2, [r1]
    4cf4:	e1dc30b0 	ldrh	r3, [ip]
    4cf8:	e3530f4b 	cmp	r3, #300	; 0x12c
    4cfc:	e5d13000 	ldrb	r3, [r1]
    4d00:	21cc20b0 	strcsh	r2, [ip]
    4d04:	e3530000 	cmp	r3, #0	; 0x0
    4d08:	1a00008b 	bne	4f3c <periodic_task_fbw+0x3b0>
    4d0c:	e59f1d58 	ldr	r1, [pc, #3416]	; 5a6c <.text+0x1a6c>
    4d10:	e59f5d60 	ldr	r5, [pc, #3424]	; 5a78 <.text+0x1a78>
    4d14:	e5d13000 	ldrb	r3, [r1]
    4d18:	e5d52000 	ldrb	r2, [r5]
    4d1c:	e1520003 	cmp	r2, r3
    4d20:	25d13000 	ldrcsb	r3, [r1]
    4d24:	35d13000 	ldrccb	r3, [r1]
    4d28:	20633002 	rsbcs	r3, r3, r2
    4d2c:	226330ff 	rsbcs	r3, r3, #255	; 0xff
    4d30:	30623003 	rsbcc	r3, r2, r3
    4d34:	e353000f 	cmp	r3, #15	; 0xf
    4d38:	da0000fe 	ble	5138 <periodic_task_fbw+0x5ac>
    4d3c:	e5d52000 	ldrb	r2, [r5]
    4d40:	e2823001 	add	r3, r2, #1	; 0x1
    4d44:	e5c53000 	strb	r3, [r5]
    4d48:	e5d53000 	ldrb	r3, [r5]
    4d4c:	e59f8d34 	ldr	r8, [pc, #3380]	; 5a88 <.text+0x1a88>
    4d50:	e35300ff 	cmp	r3, #255	; 0xff
    4d54:	e3e03066 	mvn	r3, #102	; 0x66
    4d58:	e7c83002 	strb	r3, [r8, r2]
    4d5c:	02833067 	addeq	r3, r3, #103	; 0x67
    4d60:	05c53000 	streqb	r3, [r5]
    4d64:	e59f1d0c 	ldr	r1, [pc, #3340]	; 5a78 <.text+0x1a78>
    4d68:	e5d12000 	ldrb	r2, [r1]
    4d6c:	e2823001 	add	r3, r2, #1	; 0x1
    4d70:	e5c13000 	strb	r3, [r1]
    4d74:	e5d13000 	ldrb	r3, [r1]
    4d78:	e35300ff 	cmp	r3, #255	; 0xff
    4d7c:	e3a0300f 	mov	r3, #15	; 0xf
    4d80:	e7c83002 	strb	r3, [r8, r2]
    4d84:	0243300f 	subeq	r3, r3, #15	; 0xf
    4d88:	05c13000 	streqb	r3, [r1]
    4d8c:	e5d12000 	ldrb	r2, [r1]
    4d90:	e2823001 	add	r3, r2, #1	; 0x1
    4d94:	e5c13000 	strb	r3, [r1]
    4d98:	e5d13000 	ldrb	r3, [r1]
    4d9c:	e59f9cdc 	ldr	r9, [pc, #3292]	; 5a80 <.text+0x1a80>
    4da0:	e35300ff 	cmp	r3, #255	; 0xff
    4da4:	e59f0cd8 	ldr	r0, [pc, #3288]	; 5a84 <.text+0x1a84>
    4da8:	e3a03016 	mov	r3, #22	; 0x16
    4dac:	e5c93000 	strb	r3, [r9]
    4db0:	e283300f 	add	r3, r3, #15	; 0xf
    4db4:	e5c03000 	strb	r3, [r0]
    4db8:	e243301e 	sub	r3, r3, #30	; 0x1e
    4dbc:	e7c83002 	strb	r3, [r8, r2]
    4dc0:	02433007 	subeq	r3, r3, #7	; 0x7
    4dc4:	05c13000 	streqb	r3, [r1]
    4dc8:	e5d12000 	ldrb	r2, [r1]
    4dcc:	e2823001 	add	r3, r2, #1	; 0x1
    4dd0:	e5c13000 	strb	r3, [r1]
    4dd4:	e5d13000 	ldrb	r3, [r1]
    4dd8:	e59fcca4 	ldr	ip, [pc, #3236]	; 5a84 <.text+0x1a84>
    4ddc:	e35300ff 	cmp	r3, #255	; 0xff
    4de0:	e3a0307c 	mov	r3, #124	; 0x7c
    4de4:	e5c93000 	strb	r3, [r9]
    4de8:	e2833025 	add	r3, r3, #37	; 0x25
    4dec:	e5cc3000 	strb	r3, [ip]
    4df0:	e243303b 	sub	r3, r3, #59	; 0x3b
    4df4:	e7c83002 	strb	r3, [r8, r2]
    4df8:	02433066 	subeq	r3, r3, #102	; 0x66
    4dfc:	05c13000 	streqb	r3, [r1]
    4e00:	e5d12000 	ldrb	r2, [r1]
    4e04:	e2823001 	add	r3, r2, #1	; 0x1
    4e08:	e5c13000 	strb	r3, [r1]
    4e0c:	e5d13000 	ldrb	r3, [r1]
    4e10:	e59f0c6c 	ldr	r0, [pc, #3180]	; 5a84 <.text+0x1a84>
    4e14:	e35300ff 	cmp	r3, #255	; 0xff
    4e18:	e3a03080 	mov	r3, #128	; 0x80
    4e1c:	e5c93000 	strb	r3, [r9]
    4e20:	e28330a1 	add	r3, r3, #161	; 0xa1
    4e24:	e5c03000 	strb	r3, [r0]
    4e28:	e3a03004 	mov	r3, #4	; 0x4
    4e2c:	e7c83002 	strb	r3, [r8, r2]
    4e30:	02433004 	subeq	r3, r3, #4	; 0x4
    4e34:	05c13000 	streqb	r3, [r1]
    4e38:	e3a04000 	mov	r4, #0	; 0x0
    4e3c:	e59f3bec 	ldr	r3, [pc, #3052]	; 5a30 <.text+0x1a30>
    4e40:	e5d50000 	ldrb	r0, [r5]
    4e44:	e7d31084 	ldrb	r1, [r3, r4, lsl #1]
    4e48:	e5d93000 	ldrb	r3, [r9]
    4e4c:	e2802001 	add	r2, r0, #1	; 0x1
    4e50:	e5c52000 	strb	r2, [r5]
    4e54:	e0813003 	add	r3, r1, r3
    4e58:	e2842001 	add	r2, r4, #1	; 0x1
    4e5c:	e5c93000 	strb	r3, [r9]
    4e60:	e59fcc1c 	ldr	ip, [pc, #3100]	; 5a84 <.text+0x1a84>
    4e64:	e50b202c 	str	r2, [fp, #-44]
    4e68:	e5d52000 	ldrb	r2, [r5]
    4e6c:	e5dc3000 	ldrb	r3, [ip]
    4e70:	e5d9e000 	ldrb	lr, [r9]
    4e74:	e35200ff 	cmp	r2, #255	; 0xff
    4e78:	e083300e 	add	r3, r3, lr
    4e7c:	e5cc3000 	strb	r3, [ip]
    4e80:	03a03000 	moveq	r3, #0	; 0x0
    4e84:	05c53000 	streqb	r3, [r5]
    4e88:	e7c81000 	strb	r1, [r8, r0]
    4e8c:	e59fcbe4 	ldr	ip, [pc, #3044]	; 5a78 <.text+0x1a78>
    4e90:	e59f1ba8 	ldr	r1, [pc, #2984]	; 5a40 <.text+0x1a40>
    4e94:	e7d10084 	ldrb	r0, [r1, r4, lsl #1]
    4e98:	e5dc1000 	ldrb	r1, [ip]
    4e9c:	e59f7bdc 	ldr	r7, [pc, #3036]	; 5a80 <.text+0x1a80>
    4ea0:	e080200e 	add	r2, r0, lr
    4ea4:	e2813001 	add	r3, r1, #1	; 0x1
    4ea8:	e5cc3000 	strb	r3, [ip]
    4eac:	e59fabd0 	ldr	sl, [pc, #3024]	; 5a84 <.text+0x1a84>
    4eb0:	e5c72000 	strb	r2, [r7]
    4eb4:	e5dc3000 	ldrb	r3, [ip]
    4eb8:	e5da6000 	ldrb	r6, [sl]
    4ebc:	e5d7e000 	ldrb	lr, [r7]
    4ec0:	e35300ff 	cmp	r3, #255	; 0xff
    4ec4:	e086300e 	add	r3, r6, lr
    4ec8:	e51b202c 	ldr	r2, [fp, #-44]
    4ecc:	e5ca3000 	strb	r3, [sl]
    4ed0:	e59f3bb0 	ldr	r3, [pc, #2992]	; 5a88 <.text+0x1a88>
    4ed4:	e20240ff 	and	r4, r2, #255	; 0xff
    4ed8:	e7c30001 	strb	r0, [r3, r1]
    4edc:	03a03000 	moveq	r3, #0	; 0x0
    4ee0:	05cc3000 	streqb	r3, [ip]
    4ee4:	e3540003 	cmp	r4, #3	; 0x3
    4ee8:	9affffd3 	bls	4e3c <periodic_task_fbw+0x2b0>
    4eec:	e5d53000 	ldrb	r3, [r5]
    4ef0:	e2832001 	add	r2, r3, #1	; 0x1
    4ef4:	e5c52000 	strb	r2, [r5]
    4ef8:	e5d52000 	ldrb	r2, [r5]
    4efc:	e35200ff 	cmp	r2, #255	; 0xff
    4f00:	e7c8e003 	strb	lr, [r8, r3]
    4f04:	03a03000 	moveq	r3, #0	; 0x0
    4f08:	05c53000 	streqb	r3, [r5]
    4f0c:	e5dc1000 	ldrb	r1, [ip]
    4f10:	e2813001 	add	r3, r1, #1	; 0x1
    4f14:	e5cc3000 	strb	r3, [ip]
    4f18:	e59f0b64 	ldr	r0, [pc, #2916]	; 5a84 <.text+0x1a84>
    4f1c:	e5dc3000 	ldrb	r3, [ip]
    4f20:	e5d02000 	ldrb	r2, [r0]
    4f24:	e35300ff 	cmp	r3, #255	; 0xff
    4f28:	e59f3b58 	ldr	r3, [pc, #2904]	; 5a88 <.text+0x1a88>
    4f2c:	e7c32001 	strb	r2, [r3, r1]
    4f30:	03a03000 	moveq	r3, #0	; 0x0
    4f34:	0a00007d 	beq	5130 <periodic_task_fbw+0x5a4>
    4f38:	ea000082 	b	5148 <periodic_task_fbw+0x5bc>
    4f3c:	e3530006 	cmp	r3, #6	; 0x6
    4f40:	1a000080 	bne	5148 <periodic_task_fbw+0x5bc>
    4f44:	e59f1b20 	ldr	r1, [pc, #2848]	; 5a6c <.text+0x1a6c>
    4f48:	e59f0b28 	ldr	r0, [pc, #2856]	; 5a78 <.text+0x1a78>
    4f4c:	e5d13000 	ldrb	r3, [r1]
    4f50:	e5d02000 	ldrb	r2, [r0]
    4f54:	e1520003 	cmp	r2, r3
    4f58:	25d13000 	ldrcsb	r3, [r1]
    4f5c:	35d13000 	ldrccb	r3, [r1]
    4f60:	20633002 	rsbcs	r3, r3, r2
    4f64:	226330ff 	rsbcs	r3, r3, #255	; 0xff
    4f68:	30623003 	rsbcc	r3, r2, r3
    4f6c:	e3530009 	cmp	r3, #9	; 0x9
    4f70:	da000070 	ble	5138 <periodic_task_fbw+0x5ac>
    4f74:	e5d02000 	ldrb	r2, [r0]
    4f78:	e2823001 	add	r3, r2, #1	; 0x1
    4f7c:	e5c03000 	strb	r3, [r0]
    4f80:	e5d03000 	ldrb	r3, [r0]
    4f84:	e59f6afc 	ldr	r6, [pc, #2812]	; 5a88 <.text+0x1a88>
    4f88:	e35300ff 	cmp	r3, #255	; 0xff
    4f8c:	e3e03066 	mvn	r3, #102	; 0x66
    4f90:	e7c63002 	strb	r3, [r6, r2]
    4f94:	02833067 	addeq	r3, r3, #103	; 0x67
    4f98:	e59fcad8 	ldr	ip, [pc, #2776]	; 5a78 <.text+0x1a78>
    4f9c:	05c03000 	streqb	r3, [r0]
    4fa0:	e5dc2000 	ldrb	r2, [ip]
    4fa4:	e2823001 	add	r3, r2, #1	; 0x1
    4fa8:	e5cc3000 	strb	r3, [ip]
    4fac:	e5dc3000 	ldrb	r3, [ip]
    4fb0:	e35300ff 	cmp	r3, #255	; 0xff
    4fb4:	e3a03009 	mov	r3, #9	; 0x9
    4fb8:	e7c63002 	strb	r3, [r6, r2]
    4fbc:	02433009 	subeq	r3, r3, #9	; 0x9
    4fc0:	05cc3000 	streqb	r3, [ip]
    4fc4:	e5dc2000 	ldrb	r2, [ip]
    4fc8:	e2823001 	add	r3, r2, #1	; 0x1
    4fcc:	e5cc3000 	strb	r3, [ip]
    4fd0:	e5dc3000 	ldrb	r3, [ip]
    4fd4:	e59f4aa4 	ldr	r4, [pc, #2724]	; 5a80 <.text+0x1a80>
    4fd8:	e59f5aa4 	ldr	r5, [pc, #2724]	; 5a84 <.text+0x1a84>
    4fdc:	e35300ff 	cmp	r3, #255	; 0xff
    4fe0:	e3a03010 	mov	r3, #16	; 0x10
    4fe4:	e5c43000 	strb	r3, [r4]
    4fe8:	e2833009 	add	r3, r3, #9	; 0x9
    4fec:	e5c53000 	strb	r3, [r5]
    4ff0:	e2433012 	sub	r3, r3, #18	; 0x12
    4ff4:	e7c63002 	strb	r3, [r6, r2]
    4ff8:	02433007 	subeq	r3, r3, #7	; 0x7
    4ffc:	05cc3000 	streqb	r3, [ip]
    5000:	e5dc2000 	ldrb	r2, [ip]
    5004:	e2823001 	add	r3, r2, #1	; 0x1
    5008:	e5cc3000 	strb	r3, [ip]
    500c:	e5dc3000 	ldrb	r3, [ip]
    5010:	e35300ff 	cmp	r3, #255	; 0xff
    5014:	e3a03077 	mov	r3, #119	; 0x77
    5018:	e5c43000 	strb	r3, [r4]
    501c:	e2833019 	add	r3, r3, #25	; 0x19
    5020:	e5c53000 	strb	r3, [r5]
    5024:	e2433029 	sub	r3, r3, #41	; 0x29
    5028:	e7c63002 	strb	r3, [r6, r2]
    502c:	02433067 	subeq	r3, r3, #103	; 0x67
    5030:	05cc3000 	streqb	r3, [ip]
    5034:	e59f3a20 	ldr	r3, [pc, #2592]	; 5a5c <.text+0x1a5c>
    5038:	e5dc1000 	ldrb	r1, [ip]
    503c:	e5d30000 	ldrb	r0, [r3]
    5040:	e2812001 	add	r2, r1, #1	; 0x1
    5044:	e2803077 	add	r3, r0, #119	; 0x77
    5048:	e5cc2000 	strb	r2, [ip]
    504c:	e5c43000 	strb	r3, [r4]
    5050:	e5dc3000 	ldrb	r3, [ip]
    5054:	e5d42000 	ldrb	r2, [r4]
    5058:	e35300ff 	cmp	r3, #255	; 0xff
    505c:	e2823090 	add	r3, r2, #144	; 0x90
    5060:	e5c53000 	strb	r3, [r5]
    5064:	03a03000 	moveq	r3, #0	; 0x0
    5068:	05cc3000 	streqb	r3, [ip]
    506c:	e7c60001 	strb	r0, [r6, r1]
    5070:	e5dc1000 	ldrb	r1, [ip]
    5074:	e5de0000 	ldrb	r0, [lr]
    5078:	e0803002 	add	r3, r0, r2
    507c:	e2812001 	add	r2, r1, #1	; 0x1
    5080:	e5c43000 	strb	r3, [r4]
    5084:	e5cc2000 	strb	r2, [ip]
    5088:	e5dc3000 	ldrb	r3, [ip]
    508c:	e5d4e000 	ldrb	lr, [r4]
    5090:	e5d52000 	ldrb	r2, [r5]
    5094:	e35300ff 	cmp	r3, #255	; 0xff
    5098:	e082200e 	add	r2, r2, lr
    509c:	024330ff 	subeq	r3, r3, #255	; 0xff
    50a0:	05cc3000 	streqb	r3, [ip]
    50a4:	e5c52000 	strb	r2, [r5]
    50a8:	e7c60001 	strb	r0, [r6, r1]
    50ac:	e59f39b0 	ldr	r3, [pc, #2480]	; 5a64 <.text+0x1a64>
    50b0:	e5dc1000 	ldrb	r1, [ip]
    50b4:	e5d30000 	ldrb	r0, [r3]
    50b8:	e2812001 	add	r2, r1, #1	; 0x1
    50bc:	e080300e 	add	r3, r0, lr
    50c0:	e5cc2000 	strb	r2, [ip]
    50c4:	e5c43000 	strb	r3, [r4]
    50c8:	e5dc2000 	ldrb	r2, [ip]
    50cc:	e5d4e000 	ldrb	lr, [r4]
    50d0:	e5d53000 	ldrb	r3, [r5]
    50d4:	e35200ff 	cmp	r2, #255	; 0xff
    50d8:	e083300e 	add	r3, r3, lr
    50dc:	e5c53000 	strb	r3, [r5]
    50e0:	03a03000 	moveq	r3, #0	; 0x0
    50e4:	05cc3000 	streqb	r3, [ip]
    50e8:	e5dc3000 	ldrb	r3, [ip]
    50ec:	e2832001 	add	r2, r3, #1	; 0x1
    50f0:	e5cc2000 	strb	r2, [ip]
    50f4:	e5dc2000 	ldrb	r2, [ip]
    50f8:	e35200ff 	cmp	r2, #255	; 0xff
    50fc:	e7c60001 	strb	r0, [r6, r1]
    5100:	e7c6e003 	strb	lr, [r6, r3]
    5104:	03a03000 	moveq	r3, #0	; 0x0
    5108:	05cc3000 	streqb	r3, [ip]
    510c:	e5dc1000 	ldrb	r1, [ip]
    5110:	e2813001 	add	r3, r1, #1	; 0x1
    5114:	e5cc3000 	strb	r3, [ip]
    5118:	e5dc3000 	ldrb	r3, [ip]
    511c:	e5d52000 	ldrb	r2, [r5]
    5120:	e35300ff 	cmp	r3, #255	; 0xff
    5124:	e7c62001 	strb	r2, [r6, r1]
    5128:	1a000006 	bne	5148 <periodic_task_fbw+0x5bc>
    512c:	e24330ff 	sub	r3, r3, #255	; 0xff
    5130:	e5cc3000 	strb	r3, [ip]
    5134:	ea000003 	b	5148 <periodic_task_fbw+0x5bc>
    5138:	e59f2930 	ldr	r2, [pc, #2352]	; 5a70 <.text+0x1a70>
    513c:	e5d23000 	ldrb	r3, [r2]
    5140:	e2833001 	add	r3, r3, #1	; 0x1
    5144:	e5c23000 	strb	r3, [r2]
    5148:	e59fc8ec 	ldr	ip, [pc, #2284]	; 5a3c <.text+0x1a3c>
    514c:	e1dc30b0 	ldrh	r3, [ip]
    5150:	e353000c 	cmp	r3, #12	; 0xc
    5154:	1a00008d 	bne	5390 <periodic_task_fbw+0x804>
    5158:	e59f190c 	ldr	r1, [pc, #2316]	; 5a6c <.text+0x1a6c>
    515c:	e59f4914 	ldr	r4, [pc, #2324]	; 5a78 <.text+0x1a78>
    5160:	e5d13000 	ldrb	r3, [r1]
    5164:	e5d42000 	ldrb	r2, [r4]
    5168:	e1520003 	cmp	r2, r3
    516c:	25d13000 	ldrcsb	r3, [r1]
    5170:	35d13000 	ldrccb	r3, [r1]
    5174:	20633002 	rsbcs	r3, r3, r2
    5178:	30623003 	rsbcc	r3, r2, r3
    517c:	226330ff 	rsbcs	r3, r3, #255	; 0xff
    5180:	e3530015 	cmp	r3, #21	; 0x15
    5184:	d59f28e4 	ldrle	r2, [pc, #2276]	; 5a70 <.text+0x1a70>
    5188:	d5d23000 	ldrleb	r3, [r2]
    518c:	d2833001 	addle	r3, r3, #1	; 0x1
    5190:	d5c23000 	strleb	r3, [r2]
    5194:	da00007d 	ble	5390 <periodic_task_fbw+0x804>
    5198:	e5d42000 	ldrb	r2, [r4]
    519c:	e2823001 	add	r3, r2, #1	; 0x1
    51a0:	e5c43000 	strb	r3, [r4]
    51a4:	e5d43000 	ldrb	r3, [r4]
    51a8:	e59f88d8 	ldr	r8, [pc, #2264]	; 5a88 <.text+0x1a88>
    51ac:	e35300ff 	cmp	r3, #255	; 0xff
    51b0:	e3e03066 	mvn	r3, #102	; 0x66
    51b4:	e7c83002 	strb	r3, [r8, r2]
    51b8:	02833067 	addeq	r3, r3, #103	; 0x67
    51bc:	05c43000 	streqb	r3, [r4]
    51c0:	e59f18b0 	ldr	r1, [pc, #2224]	; 5a78 <.text+0x1a78>
    51c4:	e5d12000 	ldrb	r2, [r1]
    51c8:	e2823001 	add	r3, r2, #1	; 0x1
    51cc:	e5c13000 	strb	r3, [r1]
    51d0:	e5d13000 	ldrb	r3, [r1]
    51d4:	e35300ff 	cmp	r3, #255	; 0xff
    51d8:	e3a03015 	mov	r3, #21	; 0x15
    51dc:	e7c83002 	strb	r3, [r8, r2]
    51e0:	02433015 	subeq	r3, r3, #21	; 0x15
    51e4:	05c13000 	streqb	r3, [r1]
    51e8:	e5d12000 	ldrb	r2, [r1]
    51ec:	e2823001 	add	r3, r2, #1	; 0x1
    51f0:	e5c13000 	strb	r3, [r1]
    51f4:	e5d13000 	ldrb	r3, [r1]
    51f8:	e59f9880 	ldr	r9, [pc, #2176]	; 5a80 <.text+0x1a80>
    51fc:	e35300ff 	cmp	r3, #255	; 0xff
    5200:	e59fc87c 	ldr	ip, [pc, #2172]	; 5a84 <.text+0x1a84>
    5204:	e3a0301c 	mov	r3, #28	; 0x1c
    5208:	e5c93000 	strb	r3, [r9]
    520c:	e2833015 	add	r3, r3, #21	; 0x15
    5210:	e5cc3000 	strb	r3, [ip]
    5214:	02433031 	subeq	r3, r3, #49	; 0x31
    5218:	05c13000 	streqb	r3, [r1]
    521c:	e3a00007 	mov	r0, #7	; 0x7
    5220:	e7c80002 	strb	r0, [r8, r2]
    5224:	e5d12000 	ldrb	r2, [r1]
    5228:	e2823001 	add	r3, r2, #1	; 0x1
    522c:	e5c13000 	strb	r3, [r1]
    5230:	e5d13000 	ldrb	r3, [r1]
    5234:	e59fc848 	ldr	ip, [pc, #2120]	; 5a84 <.text+0x1a84>
    5238:	e35300ff 	cmp	r3, #255	; 0xff
    523c:	e3a03085 	mov	r3, #133	; 0x85
    5240:	e5c93000 	strb	r3, [r9]
    5244:	e2833031 	add	r3, r3, #49	; 0x31
    5248:	e5cc3000 	strb	r3, [ip]
    524c:	e243304d 	sub	r3, r3, #77	; 0x4d
    5250:	e7c83002 	strb	r3, [r8, r2]
    5254:	02433069 	subeq	r3, r3, #105	; 0x69
    5258:	05c13000 	streqb	r3, [r1]
    525c:	e5d12000 	ldrb	r2, [r1]
    5260:	e2823001 	add	r3, r2, #1	; 0x1
    5264:	e5c13000 	strb	r3, [r1]
    5268:	e5d13000 	ldrb	r3, [r1]
    526c:	e59fc810 	ldr	ip, [pc, #2064]	; 5a84 <.text+0x1a84>
    5270:	e35300ff 	cmp	r3, #255	; 0xff
    5274:	e3a0308c 	mov	r3, #140	; 0x8c
    5278:	e5c93000 	strb	r3, [r9]
    527c:	e28330b6 	add	r3, r3, #182	; 0xb6
    5280:	e5cc3000 	strb	r3, [ip]
    5284:	03a03000 	moveq	r3, #0	; 0x0
    5288:	e7c80002 	strb	r0, [r8, r2]
    528c:	05c13000 	streqb	r3, [r1]
    5290:	e3a05000 	mov	r5, #0	; 0x0
    5294:	e59f37d8 	ldr	r3, [pc, #2008]	; 5a74 <.text+0x1a74>
    5298:	e5d40000 	ldrb	r0, [r4]
    529c:	e7d31085 	ldrb	r1, [r3, r5, lsl #1]
    52a0:	e5d93000 	ldrb	r3, [r9]
    52a4:	e2802001 	add	r2, r0, #1	; 0x1
    52a8:	e5c42000 	strb	r2, [r4]
    52ac:	e0813003 	add	r3, r1, r3
    52b0:	e2852001 	add	r2, r5, #1	; 0x1
    52b4:	e5c93000 	strb	r3, [r9]
    52b8:	e59fc7c4 	ldr	ip, [pc, #1988]	; 5a84 <.text+0x1a84>
    52bc:	e50b2030 	str	r2, [fp, #-48]
    52c0:	e5d42000 	ldrb	r2, [r4]
    52c4:	e5dc3000 	ldrb	r3, [ip]
    52c8:	e5d9e000 	ldrb	lr, [r9]
    52cc:	e35200ff 	cmp	r2, #255	; 0xff
    52d0:	e083300e 	add	r3, r3, lr
    52d4:	e5cc3000 	strb	r3, [ip]
    52d8:	03a03000 	moveq	r3, #0	; 0x0
    52dc:	05c43000 	streqb	r3, [r4]
    52e0:	e7c81000 	strb	r1, [r8, r0]
    52e4:	e59fc78c 	ldr	ip, [pc, #1932]	; 5a78 <.text+0x1a78>
    52e8:	e59f178c 	ldr	r1, [pc, #1932]	; 5a7c <.text+0x1a7c>
    52ec:	e7d10085 	ldrb	r0, [r1, r5, lsl #1]
    52f0:	e5dc1000 	ldrb	r1, [ip]
    52f4:	e59f7784 	ldr	r7, [pc, #1924]	; 5a80 <.text+0x1a80>
    52f8:	e080200e 	add	r2, r0, lr
    52fc:	e2813001 	add	r3, r1, #1	; 0x1
    5300:	e5cc3000 	strb	r3, [ip]
    5304:	e59fa778 	ldr	sl, [pc, #1912]	; 5a84 <.text+0x1a84>
    5308:	e5c72000 	strb	r2, [r7]
    530c:	e5dc3000 	ldrb	r3, [ip]
    5310:	e5da6000 	ldrb	r6, [sl]
    5314:	e5d7e000 	ldrb	lr, [r7]
    5318:	e35300ff 	cmp	r3, #255	; 0xff
    531c:	e086300e 	add	r3, r6, lr
    5320:	e51b2030 	ldr	r2, [fp, #-48]
    5324:	e5ca3000 	strb	r3, [sl]
    5328:	e59f3758 	ldr	r3, [pc, #1880]	; 5a88 <.text+0x1a88>
    532c:	e20250ff 	and	r5, r2, #255	; 0xff
    5330:	e7c30001 	strb	r0, [r3, r1]
    5334:	03a03000 	moveq	r3, #0	; 0x0
    5338:	05cc3000 	streqb	r3, [ip]
    533c:	e3550006 	cmp	r5, #6	; 0x6
    5340:	9affffd3 	bls	5294 <periodic_task_fbw+0x708>
    5344:	e5d43000 	ldrb	r3, [r4]
    5348:	e2832001 	add	r2, r3, #1	; 0x1
    534c:	e5c42000 	strb	r2, [r4]
    5350:	e5d42000 	ldrb	r2, [r4]
    5354:	e35200ff 	cmp	r2, #255	; 0xff
    5358:	e7c8e003 	strb	lr, [r8, r3]
    535c:	03a03000 	moveq	r3, #0	; 0x0
    5360:	05c43000 	streqb	r3, [r4]
    5364:	e5dc1000 	ldrb	r1, [ip]
    5368:	e2813001 	add	r3, r1, #1	; 0x1
    536c:	e5cc3000 	strb	r3, [ip]
    5370:	e59f070c 	ldr	r0, [pc, #1804]	; 5a84 <.text+0x1a84>
    5374:	e5dc3000 	ldrb	r3, [ip]
    5378:	e5d02000 	ldrb	r2, [r0]
    537c:	e35300ff 	cmp	r3, #255	; 0xff
    5380:	e59f3700 	ldr	r3, [pc, #1792]	; 5a88 <.text+0x1a88>
    5384:	e7c32001 	strb	r2, [r3, r1]
    5388:	03a03000 	moveq	r3, #0	; 0x0
    538c:	05cc3000 	streqb	r3, [ip]
    5390:	e59fc69c 	ldr	ip, [pc, #1692]	; 5a34 <.text+0x1a34>
    5394:	e5dc3000 	ldrb	r3, [ip]
    5398:	e3530001 	cmp	r3, #1	; 0x1
    539c:	1a0002d6 	bne	5efc <.text+0x1efc>
    53a0:	e59f269c 	ldr	r2, [pc, #1692]	; 5a44 <.text+0x1a44>
    53a4:	e5d23000 	ldrb	r3, [r2]
    53a8:	e2833001 	add	r3, r3, #1	; 0x1
    53ac:	e5c23000 	strb	r3, [r2]
    53b0:	e5d23000 	ldrb	r3, [r2]
    53b4:	e59f069c 	ldr	r0, [pc, #1692]	; 5a58 <.text+0x1a58>
    53b8:	e353001d 	cmp	r3, #29	; 0x1d
    53bc:	83a03000 	movhi	r3, #0	; 0x0
    53c0:	85c23000 	strhib	r3, [r2]
    53c4:	e5d03000 	ldrb	r3, [r0]
    53c8:	e2833001 	add	r3, r3, #1	; 0x1
    53cc:	e5c03000 	strb	r3, [r0]
    53d0:	e5d03000 	ldrb	r3, [r0]
    53d4:	e59f168c 	ldr	r1, [pc, #1676]	; 5a68 <.text+0x1a68>
    53d8:	e353003b 	cmp	r3, #59	; 0x3b
    53dc:	83a03000 	movhi	r3, #0	; 0x0
    53e0:	85c03000 	strhib	r3, [r0]
    53e4:	e1d130b0 	ldrh	r3, [r1]
    53e8:	e2833001 	add	r3, r3, #1	; 0x1
    53ec:	e1c130b0 	strh	r3, [r1]
    53f0:	e1d130b0 	ldrh	r3, [r1]
    53f4:	e3530f4b 	cmp	r3, #300	; 0x12c
    53f8:	23a03000 	movcs	r3, #0	; 0x0
    53fc:	21c130b0 	strcsh	r3, [r1]
    5400:	e5d23000 	ldrb	r3, [r2]
    5404:	e3530000 	cmp	r3, #0	; 0x0
    5408:	1a000078 	bne	55f0 <periodic_task_fbw+0xa64>
    540c:	e59f1658 	ldr	r1, [pc, #1624]	; 5a6c <.text+0x1a6c>
    5410:	e59f5660 	ldr	r5, [pc, #1632]	; 5a78 <.text+0x1a78>
    5414:	e5d13000 	ldrb	r3, [r1]
    5418:	e5d52000 	ldrb	r2, [r5]
    541c:	e1520003 	cmp	r2, r3
    5420:	25d13000 	ldrcsb	r3, [r1]
    5424:	35d13000 	ldrccb	r3, [r1]
    5428:	20633002 	rsbcs	r3, r3, r2
    542c:	226330ff 	rsbcs	r3, r3, #255	; 0xff
    5430:	30623003 	rsbcc	r3, r2, r3
    5434:	e3530017 	cmp	r3, #23	; 0x17
    5438:	da000195 	ble	5a94 <.text+0x1a94>
    543c:	e5d52000 	ldrb	r2, [r5]
    5440:	e2823001 	add	r3, r2, #1	; 0x1
    5444:	e5c53000 	strb	r3, [r5]
    5448:	e5d53000 	ldrb	r3, [r5]
    544c:	e59f8634 	ldr	r8, [pc, #1588]	; 5a88 <.text+0x1a88>
    5450:	e35300ff 	cmp	r3, #255	; 0xff
    5454:	e3e03066 	mvn	r3, #102	; 0x66
    5458:	e7c83002 	strb	r3, [r8, r2]
    545c:	02833067 	addeq	r3, r3, #103	; 0x67
    5460:	05c53000 	streqb	r3, [r5]
    5464:	e59f160c 	ldr	r1, [pc, #1548]	; 5a78 <.text+0x1a78>
    5468:	e5d12000 	ldrb	r2, [r1]
    546c:	e2823001 	add	r3, r2, #1	; 0x1
    5470:	e5c13000 	strb	r3, [r1]
    5474:	e5d13000 	ldrb	r3, [r1]
    5478:	e35300ff 	cmp	r3, #255	; 0xff
    547c:	e3a03017 	mov	r3, #23	; 0x17
    5480:	e7c83002 	strb	r3, [r8, r2]
    5484:	02433017 	subeq	r3, r3, #23	; 0x17
    5488:	05c13000 	streqb	r3, [r1]
    548c:	e5d12000 	ldrb	r2, [r1]
    5490:	e2823001 	add	r3, r2, #1	; 0x1
    5494:	e5c13000 	strb	r3, [r1]
    5498:	e5d13000 	ldrb	r3, [r1]
    549c:	e59f95dc 	ldr	r9, [pc, #1500]	; 5a80 <.text+0x1a80>
    54a0:	e35300ff 	cmp	r3, #255	; 0xff
    54a4:	e59fc5d8 	ldr	ip, [pc, #1496]	; 5a84 <.text+0x1a84>
    54a8:	e3a0301e 	mov	r3, #30	; 0x1e
    54ac:	e5c93000 	strb	r3, [r9]
    54b0:	e2833017 	add	r3, r3, #23	; 0x17
    54b4:	e5cc3000 	strb	r3, [ip]
    54b8:	e243302e 	sub	r3, r3, #46	; 0x2e
    54bc:	e7c83002 	strb	r3, [r8, r2]
    54c0:	02433007 	subeq	r3, r3, #7	; 0x7
    54c4:	05c13000 	streqb	r3, [r1]
    54c8:	e5d12000 	ldrb	r2, [r1]
    54cc:	e2823001 	add	r3, r2, #1	; 0x1
    54d0:	e5c13000 	strb	r3, [r1]
    54d4:	e5d13000 	ldrb	r3, [r1]
    54d8:	e59f05a4 	ldr	r0, [pc, #1444]	; 5a84 <.text+0x1a84>
    54dc:	e35300ff 	cmp	r3, #255	; 0xff
    54e0:	e3a03082 	mov	r3, #130	; 0x82
    54e4:	e5c93000 	strb	r3, [r9]
    54e8:	e2833035 	add	r3, r3, #53	; 0x35
    54ec:	e5c03000 	strb	r3, [r0]
    54f0:	e2433053 	sub	r3, r3, #83	; 0x53
    54f4:	e7c83002 	strb	r3, [r8, r2]
    54f8:	02433064 	subeq	r3, r3, #100	; 0x64
    54fc:	05c13000 	streqb	r3, [r1]
    5500:	e5d12000 	ldrb	r2, [r1]
    5504:	e2823001 	add	r3, r2, #1	; 0x1
    5508:	e5c13000 	strb	r3, [r1]
    550c:	e5d13000 	ldrb	r3, [r1]
    5510:	e59fc56c 	ldr	ip, [pc, #1388]	; 5a84 <.text+0x1a84>
    5514:	e35300ff 	cmp	r3, #255	; 0xff
    5518:	e3a0308a 	mov	r3, #138	; 0x8a
    551c:	e5c93000 	strb	r3, [r9]
    5520:	e28330b7 	add	r3, r3, #183	; 0xb7
    5524:	e5cc3000 	strb	r3, [ip]
    5528:	e3a03008 	mov	r3, #8	; 0x8
    552c:	e7c83002 	strb	r3, [r8, r2]
    5530:	02433008 	subeq	r3, r3, #8	; 0x8
    5534:	05c13000 	streqb	r3, [r1]
    5538:	e3a04000 	mov	r4, #0	; 0x0
    553c:	e59f3504 	ldr	r3, [pc, #1284]	; 5a48 <.text+0x1a48>
    5540:	e5d50000 	ldrb	r0, [r5]
    5544:	e7d31084 	ldrb	r1, [r3, r4, lsl #1]
    5548:	e5d93000 	ldrb	r3, [r9]
    554c:	e2802001 	add	r2, r0, #1	; 0x1
    5550:	e5c52000 	strb	r2, [r5]
    5554:	e0813003 	add	r3, r1, r3
    5558:	e2842001 	add	r2, r4, #1	; 0x1
    555c:	e5c93000 	strb	r3, [r9]
    5560:	e59fc51c 	ldr	ip, [pc, #1308]	; 5a84 <.text+0x1a84>
    5564:	e50b2034 	str	r2, [fp, #-52]
    5568:	e5d52000 	ldrb	r2, [r5]
    556c:	e5dc3000 	ldrb	r3, [ip]
    5570:	e5d9e000 	ldrb	lr, [r9]
    5574:	e35200ff 	cmp	r2, #255	; 0xff
    5578:	e083300e 	add	r3, r3, lr
    557c:	e5cc3000 	strb	r3, [ip]
    5580:	03a03000 	moveq	r3, #0	; 0x0
    5584:	05c53000 	streqb	r3, [r5]
    5588:	e7c81000 	strb	r1, [r8, r0]
    558c:	e59fc4e4 	ldr	ip, [pc, #1252]	; 5a78 <.text+0x1a78>
    5590:	e59f14b4 	ldr	r1, [pc, #1204]	; 5a4c <.text+0x1a4c>
    5594:	e7d10084 	ldrb	r0, [r1, r4, lsl #1]
    5598:	e5dc1000 	ldrb	r1, [ip]
    559c:	e59f74dc 	ldr	r7, [pc, #1244]	; 5a80 <.text+0x1a80>
    55a0:	e080200e 	add	r2, r0, lr
    55a4:	e2813001 	add	r3, r1, #1	; 0x1
    55a8:	e5cc3000 	strb	r3, [ip]
    55ac:	e59fa4d0 	ldr	sl, [pc, #1232]	; 5a84 <.text+0x1a84>
    55b0:	e5c72000 	strb	r2, [r7]
    55b4:	e5dc3000 	ldrb	r3, [ip]
    55b8:	e5da6000 	ldrb	r6, [sl]
    55bc:	e5d7e000 	ldrb	lr, [r7]
    55c0:	e35300ff 	cmp	r3, #255	; 0xff
    55c4:	e086300e 	add	r3, r6, lr
    55c8:	e51b2034 	ldr	r2, [fp, #-52]
    55cc:	e5ca3000 	strb	r3, [sl]
    55d0:	e59f34b0 	ldr	r3, [pc, #1200]	; 5a88 <.text+0x1a88>
    55d4:	e20240ff 	and	r4, r2, #255	; 0xff
    55d8:	e7c30001 	strb	r0, [r3, r1]
    55dc:	03a03000 	moveq	r3, #0	; 0x0
    55e0:	05cc3000 	streqb	r3, [ip]
    55e4:	e3540007 	cmp	r4, #7	; 0x7
    55e8:	9affffd3 	bls	553c <periodic_task_fbw+0x9b0>
    55ec:	ea0000f4 	b	59c4 <periodic_task_fbw+0xe38>
    55f0:	e3530006 	cmp	r3, #6	; 0x6
    55f4:	1a000078 	bne	57dc <periodic_task_fbw+0xc50>
    55f8:	e59f146c 	ldr	r1, [pc, #1132]	; 5a6c <.text+0x1a6c>
    55fc:	e59f5474 	ldr	r5, [pc, #1140]	; 5a78 <.text+0x1a78>
    5600:	e5d13000 	ldrb	r3, [r1]
    5604:	e5d52000 	ldrb	r2, [r5]
    5608:	e1520003 	cmp	r2, r3
    560c:	25d13000 	ldrcsb	r3, [r1]
    5610:	35d13000 	ldrccb	r3, [r1]
    5614:	20633002 	rsbcs	r3, r3, r2
    5618:	226330ff 	rsbcs	r3, r3, #255	; 0xff
    561c:	30623003 	rsbcc	r3, r2, r3
    5620:	e3530017 	cmp	r3, #23	; 0x17
    5624:	da00011a 	ble	5a94 <.text+0x1a94>
    5628:	e5d52000 	ldrb	r2, [r5]
    562c:	e2823001 	add	r3, r2, #1	; 0x1
    5630:	e5c53000 	strb	r3, [r5]
    5634:	e5d53000 	ldrb	r3, [r5]
    5638:	e59f8448 	ldr	r8, [pc, #1096]	; 5a88 <.text+0x1a88>
    563c:	e35300ff 	cmp	r3, #255	; 0xff
    5640:	e3e03066 	mvn	r3, #102	; 0x66
    5644:	e7c83002 	strb	r3, [r8, r2]
    5648:	02833067 	addeq	r3, r3, #103	; 0x67
    564c:	05c53000 	streqb	r3, [r5]
    5650:	e59f1420 	ldr	r1, [pc, #1056]	; 5a78 <.text+0x1a78>
    5654:	e5d12000 	ldrb	r2, [r1]
    5658:	e2823001 	add	r3, r2, #1	; 0x1
    565c:	e5c13000 	strb	r3, [r1]
    5660:	e5d13000 	ldrb	r3, [r1]
    5664:	e35300ff 	cmp	r3, #255	; 0xff
    5668:	e3a03017 	mov	r3, #23	; 0x17
    566c:	e7c83002 	strb	r3, [r8, r2]
    5670:	02433017 	subeq	r3, r3, #23	; 0x17
    5674:	05c13000 	streqb	r3, [r1]
    5678:	e5d12000 	ldrb	r2, [r1]
    567c:	e2823001 	add	r3, r2, #1	; 0x1
    5680:	e5c13000 	strb	r3, [r1]
    5684:	e5d13000 	ldrb	r3, [r1]
    5688:	e59f93f0 	ldr	r9, [pc, #1008]	; 5a80 <.text+0x1a80>
    568c:	e35300ff 	cmp	r3, #255	; 0xff
    5690:	e59fc3ec 	ldr	ip, [pc, #1004]	; 5a84 <.text+0x1a84>
    5694:	e3a0301e 	mov	r3, #30	; 0x1e
    5698:	e5c93000 	strb	r3, [r9]
    569c:	e2833017 	add	r3, r3, #23	; 0x17
    56a0:	e5cc3000 	strb	r3, [ip]
    56a4:	e243302e 	sub	r3, r3, #46	; 0x2e
    56a8:	e7c83002 	strb	r3, [r8, r2]
    56ac:	02433007 	subeq	r3, r3, #7	; 0x7
    56b0:	05c13000 	streqb	r3, [r1]
    56b4:	e5d12000 	ldrb	r2, [r1]
    56b8:	e2823001 	add	r3, r2, #1	; 0x1
    56bc:	e5c13000 	strb	r3, [r1]
    56c0:	e5d13000 	ldrb	r3, [r1]
    56c4:	e59f03b8 	ldr	r0, [pc, #952]	; 5a84 <.text+0x1a84>
    56c8:	e35300ff 	cmp	r3, #255	; 0xff
    56cc:	e3a03083 	mov	r3, #131	; 0x83
    56d0:	e5c93000 	strb	r3, [r9]
    56d4:	e2833035 	add	r3, r3, #53	; 0x35
    56d8:	e5c03000 	strb	r3, [r0]
    56dc:	e2433053 	sub	r3, r3, #83	; 0x53
    56e0:	e7c83002 	strb	r3, [r8, r2]
    56e4:	02433065 	subeq	r3, r3, #101	; 0x65
    56e8:	05c13000 	streqb	r3, [r1]
    56ec:	e5d12000 	ldrb	r2, [r1]
    56f0:	e2823001 	add	r3, r2, #1	; 0x1
    56f4:	e5c13000 	strb	r3, [r1]
    56f8:	e5d13000 	ldrb	r3, [r1]
    56fc:	e59fc380 	ldr	ip, [pc, #896]	; 5a84 <.text+0x1a84>
    5700:	e35300ff 	cmp	r3, #255	; 0xff
    5704:	e3a0308b 	mov	r3, #139	; 0x8b
    5708:	e5c93000 	strb	r3, [r9]
    570c:	e28330b8 	add	r3, r3, #184	; 0xb8
    5710:	e5cc3000 	strb	r3, [ip]
    5714:	e3a03008 	mov	r3, #8	; 0x8
    5718:	e7c83002 	strb	r3, [r8, r2]
    571c:	02433008 	subeq	r3, r3, #8	; 0x8
    5720:	05c13000 	streqb	r3, [r1]
    5724:	e3a04000 	mov	r4, #0	; 0x0
    5728:	e59f3320 	ldr	r3, [pc, #800]	; 5a50 <.text+0x1a50>
    572c:	e5d50000 	ldrb	r0, [r5]
    5730:	e7d31084 	ldrb	r1, [r3, r4, lsl #1]
    5734:	e5d93000 	ldrb	r3, [r9]
    5738:	e2802001 	add	r2, r0, #1	; 0x1
    573c:	e5c52000 	strb	r2, [r5]
    5740:	e0813003 	add	r3, r1, r3
    5744:	e2842001 	add	r2, r4, #1	; 0x1
    5748:	e5c93000 	strb	r3, [r9]
    574c:	e59fc330 	ldr	ip, [pc, #816]	; 5a84 <.text+0x1a84>
    5750:	e50b2038 	str	r2, [fp, #-56]
    5754:	e5d52000 	ldrb	r2, [r5]
    5758:	e5dc3000 	ldrb	r3, [ip]
    575c:	e5d9e000 	ldrb	lr, [r9]
    5760:	e35200ff 	cmp	r2, #255	; 0xff
    5764:	e083300e 	add	r3, r3, lr
    5768:	e5cc3000 	strb	r3, [ip]
    576c:	03a03000 	moveq	r3, #0	; 0x0
    5770:	05c53000 	streqb	r3, [r5]
    5774:	e7c81000 	strb	r1, [r8, r0]
    5778:	e59fc2f8 	ldr	ip, [pc, #760]	; 5a78 <.text+0x1a78>
    577c:	e59f12d0 	ldr	r1, [pc, #720]	; 5a54 <.text+0x1a54>
    5780:	e7d10084 	ldrb	r0, [r1, r4, lsl #1]
    5784:	e5dc1000 	ldrb	r1, [ip]
    5788:	e59f72f0 	ldr	r7, [pc, #752]	; 5a80 <.text+0x1a80>
    578c:	e080200e 	add	r2, r0, lr
    5790:	e2813001 	add	r3, r1, #1	; 0x1
    5794:	e5cc3000 	strb	r3, [ip]
    5798:	e59fa2e4 	ldr	sl, [pc, #740]	; 5a84 <.text+0x1a84>
    579c:	e5c72000 	strb	r2, [r7]
    57a0:	e5dc3000 	ldrb	r3, [ip]
    57a4:	e5da6000 	ldrb	r6, [sl]
    57a8:	e5d7e000 	ldrb	lr, [r7]
    57ac:	e35300ff 	cmp	r3, #255	; 0xff
    57b0:	e086300e 	add	r3, r6, lr
    57b4:	e51b2038 	ldr	r2, [fp, #-56]
    57b8:	e5ca3000 	strb	r3, [sl]
    57bc:	e59f32c4 	ldr	r3, [pc, #708]	; 5a88 <.text+0x1a88>
    57c0:	e20240ff 	and	r4, r2, #255	; 0xff
    57c4:	e7c30001 	strb	r0, [r3, r1]
    57c8:	03a03000 	moveq	r3, #0	; 0x0
    57cc:	05cc3000 	streqb	r3, [ip]
    57d0:	e3540007 	cmp	r4, #7	; 0x7
    57d4:	9affffd3 	bls	5728 <periodic_task_fbw+0xb9c>
    57d8:	ea000079 	b	59c4 <periodic_task_fbw+0xe38>
    57dc:	e353000c 	cmp	r3, #12	; 0xc
    57e0:	1a0000af 	bne	5aa4 <.text+0x1aa4>
    57e4:	e59f1280 	ldr	r1, [pc, #640]	; 5a6c <.text+0x1a6c>
    57e8:	e59f5288 	ldr	r5, [pc, #648]	; 5a78 <.text+0x1a78>
    57ec:	e5d13000 	ldrb	r3, [r1]
    57f0:	e5d52000 	ldrb	r2, [r5]
    57f4:	e1520003 	cmp	r2, r3
    57f8:	25d13000 	ldrcsb	r3, [r1]
    57fc:	35d13000 	ldrccb	r3, [r1]
    5800:	20633002 	rsbcs	r3, r3, r2
    5804:	226330ff 	rsbcs	r3, r3, #255	; 0xff
    5808:	30623003 	rsbcc	r3, r2, r3
    580c:	e353000f 	cmp	r3, #15	; 0xf
    5810:	da00009f 	ble	5a94 <.text+0x1a94>
    5814:	e5d52000 	ldrb	r2, [r5]
    5818:	e2823001 	add	r3, r2, #1	; 0x1
    581c:	e5c53000 	strb	r3, [r5]
    5820:	e5d53000 	ldrb	r3, [r5]
    5824:	e59f825c 	ldr	r8, [pc, #604]	; 5a88 <.text+0x1a88>
    5828:	e35300ff 	cmp	r3, #255	; 0xff
    582c:	e3e03066 	mvn	r3, #102	; 0x66
    5830:	e7c83002 	strb	r3, [r8, r2]
    5834:	02833067 	addeq	r3, r3, #103	; 0x67
    5838:	05c53000 	streqb	r3, [r5]
    583c:	e59f1234 	ldr	r1, [pc, #564]	; 5a78 <.text+0x1a78>
    5840:	e5d12000 	ldrb	r2, [r1]
    5844:	e2823001 	add	r3, r2, #1	; 0x1
    5848:	e5c13000 	strb	r3, [r1]
    584c:	e5d13000 	ldrb	r3, [r1]
    5850:	e35300ff 	cmp	r3, #255	; 0xff
    5854:	e3a0300f 	mov	r3, #15	; 0xf
    5858:	e7c83002 	strb	r3, [r8, r2]
    585c:	0243300f 	subeq	r3, r3, #15	; 0xf
    5860:	05c13000 	streqb	r3, [r1]
    5864:	e5d12000 	ldrb	r2, [r1]
    5868:	e2823001 	add	r3, r2, #1	; 0x1
    586c:	e5c13000 	strb	r3, [r1]
    5870:	e5d13000 	ldrb	r3, [r1]
    5874:	e59f9204 	ldr	r9, [pc, #516]	; 5a80 <.text+0x1a80>
    5878:	e35300ff 	cmp	r3, #255	; 0xff
    587c:	e59fc200 	ldr	ip, [pc, #512]	; 5a84 <.text+0x1a84>
    5880:	e3a03016 	mov	r3, #22	; 0x16
    5884:	e5c93000 	strb	r3, [r9]
    5888:	e283300f 	add	r3, r3, #15	; 0xf
    588c:	e5cc3000 	strb	r3, [ip]
    5890:	e243301e 	sub	r3, r3, #30	; 0x1e
    5894:	e7c83002 	strb	r3, [r8, r2]
    5898:	02433007 	subeq	r3, r3, #7	; 0x7
    589c:	05c13000 	streqb	r3, [r1]
    58a0:	e5d12000 	ldrb	r2, [r1]
    58a4:	e2823001 	add	r3, r2, #1	; 0x1
    58a8:	e5c13000 	strb	r3, [r1]
    58ac:	e5d13000 	ldrb	r3, [r1]
    58b0:	e59f01cc 	ldr	r0, [pc, #460]	; 5a84 <.text+0x1a84>
    58b4:	e35300ff 	cmp	r3, #255	; 0xff
    58b8:	e3a0307c 	mov	r3, #124	; 0x7c
    58bc:	e5c93000 	strb	r3, [r9]
    58c0:	e2833025 	add	r3, r3, #37	; 0x25
    58c4:	e5c03000 	strb	r3, [r0]
    58c8:	e243303b 	sub	r3, r3, #59	; 0x3b
    58cc:	e7c83002 	strb	r3, [r8, r2]
    58d0:	02433066 	subeq	r3, r3, #102	; 0x66
    58d4:	05c13000 	streqb	r3, [r1]
    58d8:	e5d12000 	ldrb	r2, [r1]
    58dc:	e2823001 	add	r3, r2, #1	; 0x1
    58e0:	e5c13000 	strb	r3, [r1]
    58e4:	e5d13000 	ldrb	r3, [r1]
    58e8:	e59fc194 	ldr	ip, [pc, #404]	; 5a84 <.text+0x1a84>
    58ec:	e35300ff 	cmp	r3, #255	; 0xff
    58f0:	e3a03080 	mov	r3, #128	; 0x80
    58f4:	e5c93000 	strb	r3, [r9]
    58f8:	e28330a1 	add	r3, r3, #161	; 0xa1
    58fc:	e5cc3000 	strb	r3, [ip]
    5900:	e3a03004 	mov	r3, #4	; 0x4
    5904:	e7c83002 	strb	r3, [r8, r2]
    5908:	02433004 	subeq	r3, r3, #4	; 0x4
    590c:	05c13000 	streqb	r3, [r1]
    5910:	e3a04000 	mov	r4, #0	; 0x0
    5914:	e59f3114 	ldr	r3, [pc, #276]	; 5a30 <.text+0x1a30>
    5918:	e5d50000 	ldrb	r0, [r5]
    591c:	e7d31084 	ldrb	r1, [r3, r4, lsl #1]
    5920:	e5d93000 	ldrb	r3, [r9]
    5924:	e2802001 	add	r2, r0, #1	; 0x1
    5928:	e5c52000 	strb	r2, [r5]
    592c:	e0813003 	add	r3, r1, r3
    5930:	e2842001 	add	r2, r4, #1	; 0x1
    5934:	e5c93000 	strb	r3, [r9]
    5938:	e59fc144 	ldr	ip, [pc, #324]	; 5a84 <.text+0x1a84>
    593c:	e50b203c 	str	r2, [fp, #-60]
    5940:	e5d52000 	ldrb	r2, [r5]
    5944:	e5dc3000 	ldrb	r3, [ip]
    5948:	e5d9e000 	ldrb	lr, [r9]
    594c:	e35200ff 	cmp	r2, #255	; 0xff
    5950:	e083300e 	add	r3, r3, lr
    5954:	e5cc3000 	strb	r3, [ip]
    5958:	03a03000 	moveq	r3, #0	; 0x0
    595c:	05c53000 	streqb	r3, [r5]
    5960:	e7c81000 	strb	r1, [r8, r0]
    5964:	e59fc10c 	ldr	ip, [pc, #268]	; 5a78 <.text+0x1a78>
    5968:	e59f10d0 	ldr	r1, [pc, #208]	; 5a40 <.text+0x1a40>
    596c:	e7d10084 	ldrb	r0, [r1, r4, lsl #1]
    5970:	e5dc1000 	ldrb	r1, [ip]
    5974:	e59f7104 	ldr	r7, [pc, #260]	; 5a80 <.text+0x1a80>
    5978:	e080200e 	add	r2, r0, lr
    597c:	e2813001 	add	r3, r1, #1	; 0x1
    5980:	e5cc3000 	strb	r3, [ip]
    5984:	e59fa0f8 	ldr	sl, [pc, #248]	; 5a84 <.text+0x1a84>
    5988:	e5c72000 	strb	r2, [r7]
    598c:	e5dc3000 	ldrb	r3, [ip]
    5990:	e5da6000 	ldrb	r6, [sl]
    5994:	e5d7e000 	ldrb	lr, [r7]
    5998:	e35300ff 	cmp	r3, #255	; 0xff
    599c:	e086300e 	add	r3, r6, lr
    59a0:	e51b203c 	ldr	r2, [fp, #-60]
    59a4:	e5ca3000 	strb	r3, [sl]
    59a8:	e59f30d8 	ldr	r3, [pc, #216]	; 5a88 <.text+0x1a88>
    59ac:	e20240ff 	and	r4, r2, #255	; 0xff
    59b0:	e7c30001 	strb	r0, [r3, r1]
    59b4:	03a03000 	moveq	r3, #0	; 0x0
    59b8:	05cc3000 	streqb	r3, [ip]
    59bc:	e3540003 	cmp	r4, #3	; 0x3
    59c0:	9affffd3 	bls	5914 <periodic_task_fbw+0xd88>
    59c4:	e5d53000 	ldrb	r3, [r5]
    59c8:	e2832001 	add	r2, r3, #1	; 0x1
    59cc:	e5c52000 	strb	r2, [r5]
    59d0:	e5d52000 	ldrb	r2, [r5]
    59d4:	e35200ff 	cmp	r2, #255	; 0xff
    59d8:	e7c8e003 	strb	lr, [r8, r3]
    59dc:	03a03000 	moveq	r3, #0	; 0x0
    59e0:	05c53000 	streqb	r3, [r5]
    59e4:	e5dc1000 	ldrb	r1, [ip]
    59e8:	e2813001 	add	r3, r1, #1	; 0x1
    59ec:	e5cc3000 	strb	r3, [ip]
    59f0:	e59f008c 	ldr	r0, [pc, #140]	; 5a84 <.text+0x1a84>
    59f4:	e5dc3000 	ldrb	r3, [ip]
    59f8:	e5d02000 	ldrb	r2, [r0]
    59fc:	e35300ff 	cmp	r3, #255	; 0xff
    5a00:	e59f3080 	ldr	r3, [pc, #128]	; 5a88 <.text+0x1a88>
    5a04:	e7c32001 	strb	r2, [r3, r1]
    5a08:	03a03000 	moveq	r3, #0	; 0x0
    5a0c:	05cc3000 	streqb	r3, [ip]
    5a10:	ea000023 	b	5aa4 <.text+0x1aa4>
    5a14:	400004a6 	andmi	r0, r0, r6, lsr #9
    5a18:	40000a4e 	andmi	r0, r0, lr, asr #20
    5a1c:	40000a80 	andmi	r0, r0, r0, lsl #21
    5a20:	40000a4d 	andmi	r0, r0, sp, asr #20
    5a24:	40000e2e 	andmi	r0, r0, lr, lsr #28
    5a28:	40000e2d 	andmi	r0, r0, sp, lsr #28
    5a2c:	00018056 	andeq	r8, r1, r6, asr r0
    5a30:	40000a22 	andmi	r0, r0, r2, lsr #20
    5a34:	400004f1 	strmid	r0, [r0], -r1
    5a38:	400004a7 	andmi	r0, r0, r7, lsr #9
    5a3c:	400004a8 	andmi	r0, r0, r8, lsr #9
    5a40:	40000a23 	andmi	r0, r0, r3, lsr #20
    5a44:	400004aa 	andmi	r0, r0, sl, lsr #9
    5a48:	40000a82 	andmi	r0, r0, r2, lsl #21
    5a4c:	40000a83 	andmi	r0, r0, r3, lsl #21
    5a50:	40000a50 	andmi	r0, r0, r0, asr sl
    5a54:	40000a51 	andmi	r0, r0, r1, asr sl
    5a58:	400004ab 	andmi	r0, r0, fp, lsr #9
    5a5c:	40000a4c 	andmi	r0, r0, ip, asr #20
    5a60:	40000829 	andmi	r0, r0, r9, lsr #16
    5a64:	40000828 	andmi	r0, r0, r8, lsr #16
    5a68:	400004ac 	andmi	r0, r0, ip, lsr #9
    5a6c:	40000d2c 	andmi	r0, r0, ip, lsr #26
    5a70:	40000a93 	mulmi	r0, r3, sl
    5a74:	40000a3c 	andmi	r0, r0, ip, lsr sl
    5a78:	40000d2b 	andmi	r0, r0, fp, lsr #26
    5a7c:	40000a3d 	andmi	r0, r0, sp, lsr sl
    5a80:	40000d27 	andmi	r0, r0, r7, lsr #26
    5a84:	40000c24 	andmi	r0, r0, r4, lsr #24
    5a88:	40000d2d 	andmi	r0, r0, sp, lsr #26
    5a8c:	400004a5 	andmi	r0, r0, r5, lsr #9
    5a90:	400007e4 	andmi	r0, r0, r4, ror #15
    5a94:	e51f202c 	ldr	r2, [pc, #-44]	; 5a70 <.text+0x1a70>
    5a98:	e5d23000 	ldrb	r3, [r2]
    5a9c:	e2833001 	add	r3, r3, #1	; 0x1
    5aa0:	e5c23000 	strb	r3, [r2]
    5aa4:	e51fc054 	ldr	ip, [pc, #-84]	; 5a58 <.text+0x1a58>
    5aa8:	e5dc3000 	ldrb	r3, [ip]
    5aac:	e3530012 	cmp	r3, #18	; 0x12
    5ab0:	1a00007f 	bne	5cb4 <.text+0x1cb4>
    5ab4:	e51f1050 	ldr	r1, [pc, #-80]	; 5a6c <.text+0x1a6c>
    5ab8:	e51f0048 	ldr	r0, [pc, #-72]	; 5a78 <.text+0x1a78>
    5abc:	e5d13000 	ldrb	r3, [r1]
    5ac0:	e5d02000 	ldrb	r2, [r0]
    5ac4:	e1520003 	cmp	r2, r3
    5ac8:	25d13000 	ldrcsb	r3, [r1]
    5acc:	35d13000 	ldrccb	r3, [r1]
    5ad0:	20633002 	rsbcs	r3, r3, r2
    5ad4:	30623003 	rsbcc	r3, r2, r3
    5ad8:	226330ff 	rsbcs	r3, r3, #255	; 0xff
    5adc:	e3530009 	cmp	r3, #9	; 0x9
    5ae0:	d51f2078 	ldrle	r2, [pc, #-120]	; 5a70 <.text+0x1a70>
    5ae4:	d5d23000 	ldrleb	r3, [r2]
    5ae8:	d2833001 	addle	r3, r3, #1	; 0x1
    5aec:	d5c23000 	strleb	r3, [r2]
    5af0:	da00006f 	ble	5cb4 <.text+0x1cb4>
    5af4:	e5d02000 	ldrb	r2, [r0]
    5af8:	e2823001 	add	r3, r2, #1	; 0x1
    5afc:	e5c03000 	strb	r3, [r0]
    5b00:	e5d03000 	ldrb	r3, [r0]
    5b04:	e51f6084 	ldr	r6, [pc, #-132]	; 5a88 <.text+0x1a88>
    5b08:	e35300ff 	cmp	r3, #255	; 0xff
    5b0c:	e3e03066 	mvn	r3, #102	; 0x66
    5b10:	e7c63002 	strb	r3, [r6, r2]
    5b14:	02833067 	addeq	r3, r3, #103	; 0x67
    5b18:	e51fc0a8 	ldr	ip, [pc, #-168]	; 5a78 <.text+0x1a78>
    5b1c:	05c03000 	streqb	r3, [r0]
    5b20:	e5dc2000 	ldrb	r2, [ip]
    5b24:	e2823001 	add	r3, r2, #1	; 0x1
    5b28:	e5cc3000 	strb	r3, [ip]
    5b2c:	e5dc3000 	ldrb	r3, [ip]
    5b30:	e35300ff 	cmp	r3, #255	; 0xff
    5b34:	e3a03009 	mov	r3, #9	; 0x9
    5b38:	e7c63002 	strb	r3, [r6, r2]
    5b3c:	02433009 	subeq	r3, r3, #9	; 0x9
    5b40:	05cc3000 	streqb	r3, [ip]
    5b44:	e5dc2000 	ldrb	r2, [ip]
    5b48:	e2823001 	add	r3, r2, #1	; 0x1
    5b4c:	e5cc3000 	strb	r3, [ip]
    5b50:	e5dc3000 	ldrb	r3, [ip]
    5b54:	e51f40dc 	ldr	r4, [pc, #-220]	; 5a80 <.text+0x1a80>
    5b58:	e51f50dc 	ldr	r5, [pc, #-220]	; 5a84 <.text+0x1a84>
    5b5c:	e35300ff 	cmp	r3, #255	; 0xff
    5b60:	e3a03010 	mov	r3, #16	; 0x10
    5b64:	e5c43000 	strb	r3, [r4]
    5b68:	e2833009 	add	r3, r3, #9	; 0x9
    5b6c:	e5c53000 	strb	r3, [r5]
    5b70:	e2433012 	sub	r3, r3, #18	; 0x12
    5b74:	e7c63002 	strb	r3, [r6, r2]
    5b78:	02433007 	subeq	r3, r3, #7	; 0x7
    5b7c:	05cc3000 	streqb	r3, [ip]
    5b80:	e5dc2000 	ldrb	r2, [ip]
    5b84:	e2823001 	add	r3, r2, #1	; 0x1
    5b88:	e5cc3000 	strb	r3, [ip]
    5b8c:	e5dc3000 	ldrb	r3, [ip]
    5b90:	e35300ff 	cmp	r3, #255	; 0xff
    5b94:	e3a03077 	mov	r3, #119	; 0x77
    5b98:	e5c43000 	strb	r3, [r4]
    5b9c:	e2833019 	add	r3, r3, #25	; 0x19
    5ba0:	e5c53000 	strb	r3, [r5]
    5ba4:	e2433029 	sub	r3, r3, #41	; 0x29
    5ba8:	e7c63002 	strb	r3, [r6, r2]
    5bac:	02433067 	subeq	r3, r3, #103	; 0x67
    5bb0:	05cc3000 	streqb	r3, [ip]
    5bb4:	e51f3160 	ldr	r3, [pc, #-352]	; 5a5c <.text+0x1a5c>
    5bb8:	e5dc1000 	ldrb	r1, [ip]
    5bbc:	e5d30000 	ldrb	r0, [r3]
    5bc0:	e2812001 	add	r2, r1, #1	; 0x1
    5bc4:	e2803077 	add	r3, r0, #119	; 0x77
    5bc8:	e5cc2000 	strb	r2, [ip]
    5bcc:	e5c43000 	strb	r3, [r4]
    5bd0:	e5dc3000 	ldrb	r3, [ip]
    5bd4:	e5d42000 	ldrb	r2, [r4]
    5bd8:	e35300ff 	cmp	r3, #255	; 0xff
    5bdc:	e2823090 	add	r3, r2, #144	; 0x90
    5be0:	e5c53000 	strb	r3, [r5]
    5be4:	03a03000 	moveq	r3, #0	; 0x0
    5be8:	05cc3000 	streqb	r3, [ip]
    5bec:	e7c60001 	strb	r0, [r6, r1]
    5bf0:	e51f3198 	ldr	r3, [pc, #-408]	; 5a60 <.text+0x1a60>
    5bf4:	e5dc1000 	ldrb	r1, [ip]
    5bf8:	e5d30000 	ldrb	r0, [r3]
    5bfc:	e0803002 	add	r3, r0, r2
    5c00:	e2812001 	add	r2, r1, #1	; 0x1
    5c04:	e5c43000 	strb	r3, [r4]
    5c08:	e5cc2000 	strb	r2, [ip]
    5c0c:	e5dc3000 	ldrb	r3, [ip]
    5c10:	e5d4e000 	ldrb	lr, [r4]
    5c14:	e5d52000 	ldrb	r2, [r5]
    5c18:	e35300ff 	cmp	r3, #255	; 0xff
    5c1c:	e082200e 	add	r2, r2, lr
    5c20:	024330ff 	subeq	r3, r3, #255	; 0xff
    5c24:	05cc3000 	streqb	r3, [ip]
    5c28:	e5c52000 	strb	r2, [r5]
    5c2c:	e7c60001 	strb	r0, [r6, r1]
    5c30:	e51f31d4 	ldr	r3, [pc, #-468]	; 5a64 <.text+0x1a64>
    5c34:	e5dc1000 	ldrb	r1, [ip]
    5c38:	e5d30000 	ldrb	r0, [r3]
    5c3c:	e2812001 	add	r2, r1, #1	; 0x1
    5c40:	e080300e 	add	r3, r0, lr
    5c44:	e5cc2000 	strb	r2, [ip]
    5c48:	e5c43000 	strb	r3, [r4]
    5c4c:	e5dc2000 	ldrb	r2, [ip]
    5c50:	e5d4e000 	ldrb	lr, [r4]
    5c54:	e5d53000 	ldrb	r3, [r5]
    5c58:	e35200ff 	cmp	r2, #255	; 0xff
    5c5c:	e083300e 	add	r3, r3, lr
    5c60:	e5c53000 	strb	r3, [r5]
    5c64:	03a03000 	moveq	r3, #0	; 0x0
    5c68:	05cc3000 	streqb	r3, [ip]
    5c6c:	e5dc3000 	ldrb	r3, [ip]
    5c70:	e2832001 	add	r2, r3, #1	; 0x1
    5c74:	e5cc2000 	strb	r2, [ip]
    5c78:	e5dc2000 	ldrb	r2, [ip]
    5c7c:	e35200ff 	cmp	r2, #255	; 0xff
    5c80:	e7c60001 	strb	r0, [r6, r1]
    5c84:	e7c6e003 	strb	lr, [r6, r3]
    5c88:	03a03000 	moveq	r3, #0	; 0x0
    5c8c:	05cc3000 	streqb	r3, [ip]
    5c90:	e5dc1000 	ldrb	r1, [ip]
    5c94:	e2813001 	add	r3, r1, #1	; 0x1
    5c98:	e5cc3000 	strb	r3, [ip]
    5c9c:	e5dc3000 	ldrb	r3, [ip]
    5ca0:	e5d52000 	ldrb	r2, [r5]
    5ca4:	e35300ff 	cmp	r3, #255	; 0xff
    5ca8:	024330ff 	subeq	r3, r3, #255	; 0xff
    5cac:	e7c62001 	strb	r2, [r6, r1]
    5cb0:	05cc3000 	streqb	r3, [ip]
    5cb4:	e51f0254 	ldr	r0, [pc, #-596]	; 5a68 <.text+0x1a68>
    5cb8:	e1d030b0 	ldrh	r3, [r0]
    5cbc:	e3530018 	cmp	r3, #24	; 0x18
    5cc0:	1a00008d 	bne	5efc <.text+0x1efc>
    5cc4:	e51f1260 	ldr	r1, [pc, #-608]	; 5a6c <.text+0x1a6c>
    5cc8:	e51f4258 	ldr	r4, [pc, #-600]	; 5a78 <.text+0x1a78>
    5ccc:	e5d13000 	ldrb	r3, [r1]
    5cd0:	e5d42000 	ldrb	r2, [r4]
    5cd4:	e1520003 	cmp	r2, r3
    5cd8:	25d13000 	ldrcsb	r3, [r1]
    5cdc:	35d13000 	ldrccb	r3, [r1]
    5ce0:	20633002 	rsbcs	r3, r3, r2
    5ce4:	30623003 	rsbcc	r3, r2, r3
    5ce8:	226330ff 	rsbcs	r3, r3, #255	; 0xff
    5cec:	e3530015 	cmp	r3, #21	; 0x15
    5cf0:	d51f2288 	ldrle	r2, [pc, #-648]	; 5a70 <.text+0x1a70>
    5cf4:	d5d23000 	ldrleb	r3, [r2]
    5cf8:	d2833001 	addle	r3, r3, #1	; 0x1
    5cfc:	d5c23000 	strleb	r3, [r2]
    5d00:	da00007d 	ble	5efc <.text+0x1efc>
    5d04:	e5d42000 	ldrb	r2, [r4]
    5d08:	e2823001 	add	r3, r2, #1	; 0x1
    5d0c:	e5c43000 	strb	r3, [r4]
    5d10:	e5d43000 	ldrb	r3, [r4]
    5d14:	e51f8294 	ldr	r8, [pc, #-660]	; 5a88 <.text+0x1a88>
    5d18:	e35300ff 	cmp	r3, #255	; 0xff
    5d1c:	e3e03066 	mvn	r3, #102	; 0x66
    5d20:	e7c83002 	strb	r3, [r8, r2]
    5d24:	02833067 	addeq	r3, r3, #103	; 0x67
    5d28:	05c43000 	streqb	r3, [r4]
    5d2c:	e51f12bc 	ldr	r1, [pc, #-700]	; 5a78 <.text+0x1a78>
    5d30:	e5d12000 	ldrb	r2, [r1]
    5d34:	e2823001 	add	r3, r2, #1	; 0x1
    5d38:	e5c13000 	strb	r3, [r1]
    5d3c:	e5d13000 	ldrb	r3, [r1]
    5d40:	e35300ff 	cmp	r3, #255	; 0xff
    5d44:	e3a03015 	mov	r3, #21	; 0x15
    5d48:	e7c83002 	strb	r3, [r8, r2]
    5d4c:	02433015 	subeq	r3, r3, #21	; 0x15
    5d50:	05c13000 	streqb	r3, [r1]
    5d54:	e5d12000 	ldrb	r2, [r1]
    5d58:	e2823001 	add	r3, r2, #1	; 0x1
    5d5c:	e5c13000 	strb	r3, [r1]
    5d60:	e5d13000 	ldrb	r3, [r1]
    5d64:	e51f92ec 	ldr	r9, [pc, #-748]	; 5a80 <.text+0x1a80>
    5d68:	e35300ff 	cmp	r3, #255	; 0xff
    5d6c:	e51fc2f0 	ldr	ip, [pc, #-752]	; 5a84 <.text+0x1a84>
    5d70:	e3a0301c 	mov	r3, #28	; 0x1c
    5d74:	e5c93000 	strb	r3, [r9]
    5d78:	e2833015 	add	r3, r3, #21	; 0x15
    5d7c:	e5cc3000 	strb	r3, [ip]
    5d80:	02433031 	subeq	r3, r3, #49	; 0x31
    5d84:	05c13000 	streqb	r3, [r1]
    5d88:	e3a00007 	mov	r0, #7	; 0x7
    5d8c:	e7c80002 	strb	r0, [r8, r2]
    5d90:	e5d12000 	ldrb	r2, [r1]
    5d94:	e2823001 	add	r3, r2, #1	; 0x1
    5d98:	e5c13000 	strb	r3, [r1]
    5d9c:	e5d13000 	ldrb	r3, [r1]
    5da0:	e51fc324 	ldr	ip, [pc, #-804]	; 5a84 <.text+0x1a84>
    5da4:	e35300ff 	cmp	r3, #255	; 0xff
    5da8:	e3a03085 	mov	r3, #133	; 0x85
    5dac:	e5c93000 	strb	r3, [r9]
    5db0:	e2833031 	add	r3, r3, #49	; 0x31
    5db4:	e5cc3000 	strb	r3, [ip]
    5db8:	e243304d 	sub	r3, r3, #77	; 0x4d
    5dbc:	e7c83002 	strb	r3, [r8, r2]
    5dc0:	02433069 	subeq	r3, r3, #105	; 0x69
    5dc4:	05c13000 	streqb	r3, [r1]
    5dc8:	e5d12000 	ldrb	r2, [r1]
    5dcc:	e2823001 	add	r3, r2, #1	; 0x1
    5dd0:	e5c13000 	strb	r3, [r1]
    5dd4:	e5d13000 	ldrb	r3, [r1]
    5dd8:	e51fc35c 	ldr	ip, [pc, #-860]	; 5a84 <.text+0x1a84>
    5ddc:	e35300ff 	cmp	r3, #255	; 0xff
    5de0:	e3a0308c 	mov	r3, #140	; 0x8c
    5de4:	e5c93000 	strb	r3, [r9]
    5de8:	e28330b6 	add	r3, r3, #182	; 0xb6
    5dec:	e5cc3000 	strb	r3, [ip]
    5df0:	03a03000 	moveq	r3, #0	; 0x0
    5df4:	e7c80002 	strb	r0, [r8, r2]
    5df8:	05c13000 	streqb	r3, [r1]
    5dfc:	e3a05000 	mov	r5, #0	; 0x0
    5e00:	e51f3394 	ldr	r3, [pc, #-916]	; 5a74 <.text+0x1a74>
    5e04:	e5d40000 	ldrb	r0, [r4]
    5e08:	e7d31085 	ldrb	r1, [r3, r5, lsl #1]
    5e0c:	e5d93000 	ldrb	r3, [r9]
    5e10:	e2802001 	add	r2, r0, #1	; 0x1
    5e14:	e5c42000 	strb	r2, [r4]
    5e18:	e0813003 	add	r3, r1, r3
    5e1c:	e2852001 	add	r2, r5, #1	; 0x1
    5e20:	e5c93000 	strb	r3, [r9]
    5e24:	e51fc3a8 	ldr	ip, [pc, #-936]	; 5a84 <.text+0x1a84>
    5e28:	e50b2040 	str	r2, [fp, #-64]
    5e2c:	e5d42000 	ldrb	r2, [r4]
    5e30:	e5dc3000 	ldrb	r3, [ip]
    5e34:	e5d9e000 	ldrb	lr, [r9]
    5e38:	e35200ff 	cmp	r2, #255	; 0xff
    5e3c:	e083300e 	add	r3, r3, lr
    5e40:	e5cc3000 	strb	r3, [ip]
    5e44:	03a03000 	moveq	r3, #0	; 0x0
    5e48:	05c43000 	streqb	r3, [r4]
    5e4c:	e7c81000 	strb	r1, [r8, r0]
    5e50:	e51fc3e0 	ldr	ip, [pc, #-992]	; 5a78 <.text+0x1a78>
    5e54:	e51f13e0 	ldr	r1, [pc, #-992]	; 5a7c <.text+0x1a7c>
    5e58:	e7d10085 	ldrb	r0, [r1, r5, lsl #1]
    5e5c:	e5dc1000 	ldrb	r1, [ip]
    5e60:	e51f73e8 	ldr	r7, [pc, #-1000]	; 5a80 <.text+0x1a80>
    5e64:	e080200e 	add	r2, r0, lr
    5e68:	e2813001 	add	r3, r1, #1	; 0x1
    5e6c:	e5cc3000 	strb	r3, [ip]
    5e70:	e51fa3f4 	ldr	sl, [pc, #-1012]	; 5a84 <.text+0x1a84>
    5e74:	e5c72000 	strb	r2, [r7]
    5e78:	e5dc3000 	ldrb	r3, [ip]
    5e7c:	e5da6000 	ldrb	r6, [sl]
    5e80:	e5d7e000 	ldrb	lr, [r7]
    5e84:	e35300ff 	cmp	r3, #255	; 0xff
    5e88:	e086300e 	add	r3, r6, lr
    5e8c:	e51b2040 	ldr	r2, [fp, #-64]
    5e90:	e5ca3000 	strb	r3, [sl]
    5e94:	e51f3414 	ldr	r3, [pc, #-1044]	; 5a88 <.text+0x1a88>
    5e98:	e20250ff 	and	r5, r2, #255	; 0xff
    5e9c:	e7c30001 	strb	r0, [r3, r1]
    5ea0:	03a03000 	moveq	r3, #0	; 0x0
    5ea4:	05cc3000 	streqb	r3, [ip]
    5ea8:	e3550006 	cmp	r5, #6	; 0x6
    5eac:	9affffd3 	bls	5e00 <.text+0x1e00>
    5eb0:	e5d43000 	ldrb	r3, [r4]
    5eb4:	e2832001 	add	r2, r3, #1	; 0x1
    5eb8:	e5c42000 	strb	r2, [r4]
    5ebc:	e5d42000 	ldrb	r2, [r4]
    5ec0:	e35200ff 	cmp	r2, #255	; 0xff
    5ec4:	e7c8e003 	strb	lr, [r8, r3]
    5ec8:	03a03000 	moveq	r3, #0	; 0x0
    5ecc:	05c43000 	streqb	r3, [r4]
    5ed0:	e5dc1000 	ldrb	r1, [ip]
    5ed4:	e2813001 	add	r3, r1, #1	; 0x1
    5ed8:	e5cc3000 	strb	r3, [ip]
    5edc:	e51f0460 	ldr	r0, [pc, #-1120]	; 5a84 <.text+0x1a84>
    5ee0:	e5dc3000 	ldrb	r3, [ip]
    5ee4:	e5d02000 	ldrb	r2, [r0]
    5ee8:	e35300ff 	cmp	r3, #255	; 0xff
    5eec:	e51f346c 	ldr	r3, [pc, #-1132]	; 5a88 <.text+0x1a88>
    5ef0:	e7c32001 	strb	r2, [r3, r1]
    5ef4:	03a03000 	moveq	r3, #0	; 0x0
    5ef8:	05cc3000 	streqb	r3, [ip]
    5efc:	e51fc478 	ldr	ip, [pc, #-1144]	; 5a8c <.text+0x1a8c>
    5f00:	e5dc3000 	ldrb	r3, [ip]
    5f04:	e3530000 	cmp	r3, #0	; 0x0
    5f08:	1a00000c 	bne	5f40 <.text+0x1f40>
    5f0c:	e51f3484 	ldr	r3, [pc, #-1156]	; 5a90 <.text+0x1a90>
    5f10:	e5d31043 	ldrb	r1, [r3, #67]
    5f14:	e1d300b0 	ldrh	r0, [r3]
    5f18:	eb004827 	bl	17fbc <____divsi3_from_arm>
    5f1c:	e0800100 	add	r0, r0, r0, lsl #2
    5f20:	e1a00080 	mov	r0, r0, lsl #1
    5f24:	eb004479 	bl	17110 <__floatsidf>
    5f28:	e28f2e37 	add	r2, pc, #880	; 0x370
    5f2c:	e892000c 	ldmia	r2, {r2, r3}
    5f30:	eb004494 	bl	17188 <__muldf3>
    5f34:	eb00461b 	bl	177a8 <__fixunsdfsi>
    5f38:	e59f33c0 	ldr	r3, [pc, #960]	; 6300 <.text+0x2300>
    5f3c:	e5c30000 	strb	r0, [r3]
    5f40:	e59f13bc 	ldr	r1, [pc, #956]	; 6304 <.text+0x2304>
    5f44:	e1d100f2 	ldrsh	r0, [r1, #2]
    5f48:	eb004470 	bl	17110 <__floatsidf>
    5f4c:	e28f2fd5 	add	r2, pc, #852	; 0x354
    5f50:	e892000c 	ldmia	r2, {r2, r3}
    5f54:	eb00448b 	bl	17188 <__muldf3>
    5f58:	eb0045f2 	bl	17728 <__fixdfsi>
    5f5c:	e59f23a0 	ldr	r2, [pc, #928]	; 6304 <.text+0x2304>
    5f60:	e1a03800 	mov	r3, r0, lsl #16
    5f64:	e1d200f4 	ldrsh	r0, [r2, #4]
    5f68:	e1a08823 	mov	r8, r3, lsr #16
    5f6c:	eb004467 	bl	17110 <__floatsidf>
    5f70:	e28f2fce 	add	r2, pc, #824	; 0x338
    5f74:	e892000c 	ldmia	r2, {r2, r3}
    5f78:	eb004482 	bl	17188 <__muldf3>
    5f7c:	eb0045e9 	bl	17728 <__fixdfsi>
    5f80:	e59fc37c 	ldr	ip, [pc, #892]	; 6304 <.text+0x2304>
    5f84:	e1a03800 	mov	r3, r0, lsl #16
    5f88:	e1dc00f0 	ldrsh	r0, [ip]
    5f8c:	e1a07823 	mov	r7, r3, lsr #16
    5f90:	eb0046d2 	bl	17ae0 <__floatsisf>
    5f94:	e1a04000 	mov	r4, r0
    5f98:	eb004467 	bl	1713c <__extendsfdf2>
    5f9c:	e1a06001 	mov	r6, r1
    5fa0:	e1a05000 	mov	r5, r0
    5fa4:	e1a00004 	mov	r0, r4
    5fa8:	e3a01000 	mov	r1, #0	; 0x0
    5fac:	eb0047aa 	bl	17e5c <__gesf2>
    5fb0:	e3500000 	cmp	r0, #0	; 0x0
    5fb4:	c28f2fbf 	addgt	r2, pc, #764	; 0x2fc
    5fb8:	c892000c 	ldmgtia	r2, {r2, r3}
    5fbc:	c1a01006 	movgt	r1, r6
    5fc0:	c1a00005 	movgt	r0, r5
    5fc4:	d28f2fbd 	addle	r2, pc, #756	; 0x2f4
    5fc8:	d892000c 	ldmleia	r2, {r2, r3}
    5fcc:	d1a01006 	movle	r1, r6
    5fd0:	d1a00005 	movle	r0, r5
    5fd4:	eb00446b 	bl	17188 <__muldf3>
    5fd8:	eb00460f 	bl	1781c <__truncdfsf2>
    5fdc:	eb0047c5 	bl	17ef8 <__fixsfsi>
    5fe0:	e2800ffa 	add	r0, r0, #1000	; 0x3e8
    5fe4:	e1a00800 	mov	r0, r0, lsl #16
    5fe8:	e1a00820 	mov	r0, r0, lsr #16
    5fec:	e3500ffa 	cmp	r0, #1000	; 0x3e8
    5ff0:	e59fa310 	ldr	sl, [pc, #784]	; 6308 <.text+0x2308>
    5ff4:	33a03ffa 	movcc	r3, #1000	; 0x3e8
    5ff8:	3a000002 	bcc	6008 <.text+0x2008>
    5ffc:	e3500e7d 	cmp	r0, #2000	; 0x7d0
    6000:	31a03000 	movcc	r3, r0
    6004:	23a03e7d 	movcs	r3, #2000	; 0x7d0
    6008:	e1ca30b0 	strh	r3, [sl]
    600c:	e1da00b0 	ldrh	r0, [sl]
    6010:	eb00443e 	bl	17110 <__floatsidf>
    6014:	e28f2fab 	add	r2, pc, #684	; 0x2ac
    6018:	e892000c 	ldmia	r2, {r2, r3}
    601c:	eb004459 	bl	17188 <__muldf3>
    6020:	e28f2faa 	add	r2, pc, #680	; 0x2a8
    6024:	e892000c 	ldmia	r2, {r2, r3}
    6028:	eb004456 	bl	17188 <__muldf3>
    602c:	e28f2fa9 	add	r2, pc, #676	; 0x2a4
    6030:	e892000c 	ldmia	r2, {r2, r3}
    6034:	eb00436a 	bl	16de4 <__adddf3>
    6038:	eb0045da 	bl	177a8 <__fixunsdfsi>
    603c:	e1a08808 	mov	r8, r8, lsl #16
    6040:	e59f92c4 	ldr	r9, [pc, #708]	; 630c <.text+0x230c>
    6044:	e1a03848 	mov	r3, r8, asr #16
    6048:	e1a07807 	mov	r7, r7, lsl #16
    604c:	e1c900b0 	strh	r0, [r9]
    6050:	e0830847 	add	r0, r3, r7, asr #16
    6054:	eb0046a1 	bl	17ae0 <__floatsisf>
    6058:	e1a04000 	mov	r4, r0
    605c:	eb004436 	bl	1713c <__extendsfdf2>
    6060:	e1a06001 	mov	r6, r1
    6064:	e1a05000 	mov	r5, r0
    6068:	e1a00004 	mov	r0, r4
    606c:	e3a01000 	mov	r1, #0	; 0x0
    6070:	eb004779 	bl	17e5c <__gesf2>
    6074:	e3500000 	cmp	r0, #0	; 0x0
    6078:	c28f2e26 	addgt	r2, pc, #608	; 0x260
    607c:	c892000c 	ldmgtia	r2, {r2, r3}
    6080:	c1a01006 	movgt	r1, r6
    6084:	c1a00005 	movgt	r0, r5
    6088:	d28f2f96 	addle	r2, pc, #600	; 0x258
    608c:	d892000c 	ldmleia	r2, {r2, r3}
    6090:	d1a01006 	movle	r1, r6
    6094:	d1a00005 	movle	r0, r5
    6098:	eb00443a 	bl	17188 <__muldf3>
    609c:	eb0045de 	bl	1781c <__truncdfsf2>
    60a0:	eb004794 	bl	17ef8 <__fixsfsi>
    60a4:	e2800d17 	add	r0, r0, #1472	; 0x5c0
    60a8:	e2800008 	add	r0, r0, #8	; 0x8
    60ac:	e59f325c 	ldr	r3, [pc, #604]	; 6310 <.text+0x2310>
    60b0:	e1a00800 	mov	r0, r0, lsl #16
    60b4:	e1a00820 	mov	r0, r0, lsr #16
    60b8:	e1500003 	cmp	r0, r3
    60bc:	959f3250 	ldrls	r3, [pc, #592]	; 6314 <.text+0x2314>
    60c0:	91a02003 	movls	r2, r3
    60c4:	9a000003 	bls	60d8 <.text+0x20d8>
    60c8:	e59f3248 	ldr	r3, [pc, #584]	; 6318 <.text+0x2318>
    60cc:	e1500003 	cmp	r0, r3
    60d0:	31a02000 	movcc	r2, r0
    60d4:	21a02003 	movcs	r2, r3
    60d8:	e59f3228 	ldr	r3, [pc, #552]	; 6308 <.text+0x2308>
    60dc:	e1c320bc 	strh	r2, [r3, #12]
    60e0:	e1da00bc 	ldrh	r0, [sl, #12]
    60e4:	eb004409 	bl	17110 <__floatsidf>
    60e8:	e28f2f76 	add	r2, pc, #472	; 0x1d8
    60ec:	e892000c 	ldmia	r2, {r2, r3}
    60f0:	eb004424 	bl	17188 <__muldf3>
    60f4:	e28f2f75 	add	r2, pc, #468	; 0x1d4
    60f8:	e892000c 	ldmia	r2, {r2, r3}
    60fc:	eb004421 	bl	17188 <__muldf3>
    6100:	e28f2e1d 	add	r2, pc, #464	; 0x1d0
    6104:	e892000c 	ldmia	r2, {r2, r3}
    6108:	eb004335 	bl	16de4 <__adddf3>
    610c:	eb0045a5 	bl	177a8 <__fixunsdfsi>
    6110:	e1a03848 	mov	r3, r8, asr #16
    6114:	e1c900bc 	strh	r0, [r9, #12]
    6118:	e0630847 	rsb	r0, r3, r7, asr #16
    611c:	eb00466f 	bl	17ae0 <__floatsisf>
    6120:	e1a04000 	mov	r4, r0
    6124:	eb004404 	bl	1713c <__extendsfdf2>
    6128:	e1a06001 	mov	r6, r1
    612c:	e1a05000 	mov	r5, r0
    6130:	e1a00004 	mov	r0, r4
    6134:	e3a01000 	mov	r1, #0	; 0x0
    6138:	eb004747 	bl	17e5c <__gesf2>
    613c:	e3500000 	cmp	r0, #0	; 0x0
    6140:	c28f2f6a 	addgt	r2, pc, #424	; 0x1a8
    6144:	c892000c 	ldmgtia	r2, {r2, r3}
    6148:	c1a01006 	movgt	r1, r6
    614c:	c1a00005 	movgt	r0, r5
    6150:	d28f2e1a 	addle	r2, pc, #416	; 0x1a0
    6154:	d892000c 	ldmleia	r2, {r2, r3}
    6158:	d1a01006 	movle	r1, r6
    615c:	d1a00005 	movle	r0, r5
    6160:	eb004408 	bl	17188 <__muldf3>
    6164:	eb0045ac 	bl	1781c <__truncdfsf2>
    6168:	eb004762 	bl	17ef8 <__fixsfsi>
    616c:	e2800e5e 	add	r0, r0, #1504	; 0x5e0
    6170:	e280000b 	add	r0, r0, #11	; 0xb
    6174:	e59f31a0 	ldr	r3, [pc, #416]	; 631c <.text+0x231c>
    6178:	e1a00800 	mov	r0, r0, lsl #16
    617c:	e1a00820 	mov	r0, r0, lsr #16
    6180:	e1500003 	cmp	r0, r3
    6184:	959f3194 	ldrls	r3, [pc, #404]	; 6320 <.text+0x2320>
    6188:	91a02003 	movls	r2, r3
    618c:	9a000003 	bls	61a0 <.text+0x21a0>
    6190:	e59f318c 	ldr	r3, [pc, #396]	; 6324 <.text+0x2324>
    6194:	e1500003 	cmp	r0, r3
    6198:	31a02000 	movcc	r2, r0
    619c:	21a02003 	movcs	r2, r3
    61a0:	e59f3160 	ldr	r3, [pc, #352]	; 6308 <.text+0x2308>
    61a4:	e1c320b6 	strh	r2, [r3, #6]
    61a8:	e1da00b6 	ldrh	r0, [sl, #6]
    61ac:	eb0043d7 	bl	17110 <__floatsidf>
    61b0:	e28f2e11 	add	r2, pc, #272	; 0x110
    61b4:	e892000c 	ldmia	r2, {r2, r3}
    61b8:	eb0043f2 	bl	17188 <__muldf3>
    61bc:	e28f2f43 	add	r2, pc, #268	; 0x10c
    61c0:	e892000c 	ldmia	r2, {r2, r3}
    61c4:	eb0043ef 	bl	17188 <__muldf3>
    61c8:	e28f2f42 	add	r2, pc, #264	; 0x108
    61cc:	e892000c 	ldmia	r2, {r2, r3}
    61d0:	eb004303 	bl	16de4 <__adddf3>
    61d4:	eb004573 	bl	177a8 <__fixunsdfsi>
    61d8:	e59f1124 	ldr	r1, [pc, #292]	; 6304 <.text+0x2304>
    61dc:	e1c900b6 	strh	r0, [r9, #6]
    61e0:	e1d100f6 	ldrsh	r0, [r1, #6]
    61e4:	eb00463d 	bl	17ae0 <__floatsisf>
    61e8:	e1a04000 	mov	r4, r0
    61ec:	eb0043d2 	bl	1713c <__extendsfdf2>
    61f0:	e1a06001 	mov	r6, r1
    61f4:	e1a05000 	mov	r5, r0
    61f8:	e1a00004 	mov	r0, r4
    61fc:	e3a01000 	mov	r1, #0	; 0x0
    6200:	eb004715 	bl	17e5c <__gesf2>
    6204:	e3500000 	cmp	r0, #0	; 0x0
    6208:	c28f20a8 	addgt	r2, pc, #168	; 0xa8
    620c:	c892000c 	ldmgtia	r2, {r2, r3}
    6210:	c1a01006 	movgt	r1, r6
    6214:	c1a00005 	movgt	r0, r5
    6218:	d28f20a0 	addle	r2, pc, #160	; 0xa0
    621c:	d892000c 	ldmleia	r2, {r2, r3}
    6220:	d1a01006 	movle	r1, r6
    6224:	d1a00005 	movle	r0, r5
    6228:	eb0043d6 	bl	17188 <__muldf3>
    622c:	eb00457a 	bl	1781c <__truncdfsf2>
    6230:	eb004730 	bl	17ef8 <__fixsfsi>
    6234:	e2800ffa 	add	r0, r0, #1000	; 0x3e8
    6238:	e1a00800 	mov	r0, r0, lsl #16
    623c:	e1a00820 	mov	r0, r0, lsr #16
    6240:	e3500ffa 	cmp	r0, #1000	; 0x3e8
    6244:	33a02ffa 	movcc	r2, #1000	; 0x3e8
    6248:	3a000002 	bcc	6258 <.text+0x2258>
    624c:	e3500e7d 	cmp	r0, #2000	; 0x7d0
    6250:	31a02000 	movcc	r2, r0
    6254:	23a02e7d 	movcs	r2, #2000	; 0x7d0
    6258:	e59f30a8 	ldr	r3, [pc, #168]	; 6308 <.text+0x2308>
    625c:	e1c320b4 	strh	r2, [r3, #4]
    6260:	e1da00b4 	ldrh	r0, [sl, #4]
    6264:	eb0043a9 	bl	17110 <__floatsidf>
    6268:	e28f2058 	add	r2, pc, #88	; 0x58
    626c:	e892000c 	ldmia	r2, {r2, r3}
    6270:	eb0043c4 	bl	17188 <__muldf3>
    6274:	e28f2054 	add	r2, pc, #84	; 0x54
    6278:	e892000c 	ldmia	r2, {r2, r3}
    627c:	eb0043c1 	bl	17188 <__muldf3>
    6280:	e28f2050 	add	r2, pc, #80	; 0x50
    6284:	e892000c 	ldmia	r2, {r2, r3}
    6288:	eb0042d5 	bl	16de4 <__adddf3>
    628c:	eb004545 	bl	177a8 <__fixunsdfsi>
    6290:	e1c900b4 	strh	r0, [r9, #4]
    6294:	e24bd028 	sub	sp, fp, #40	; 0x28
    6298:	e89d6ff0 	ldmia	sp, {r4, r5, r6, r7, r8, r9, sl, fp, sp, lr}
    629c:	e12fff1e 	bx	lr
    62a0:	3f924ccc 	swicc	0x00924ccc
    62a4:	cccccccd 	stcgtl	12, cr12, [ip], {205}
    62a8:	3fd33333 	swicc	0x00d33333
    62ac:	33333333 	teqcc	r3, #-872415232	; 0xcc000000
    62b0:	3fe66666 	swicc	0x00e66666
    62b4:	66666666 	strvsbt	r6, [r6], -r6, ror #12
    62b8:	3fbaaaaa 	swicc	0x00baaaaa
    62bc:	aaab087e 	bge	feac84bc <_end+0xbeac62bc>
	...
    62c8:	3eb0c6f7 	mrccc	6, 5, ip, cr0, cr7, {7}
    62cc:	a0b5ed8d 	adcges	lr, r5, sp, lsl #27
    62d0:	416c9c38 	cmnmi	ip, r8, lsr ip
    62d4:	00000000 	andeq	r0, r0, r0
    62d8:	3fe00000 	swicc	0x00e00000
    62dc:	00000000 	andeq	r0, r0, r0
    62e0:	3fad1111 	swicc	0x00ad1111
    62e4:	1110fe4d 	tstnep	r0, sp, asr #28
    62e8:	3fa59999 	swicc	0x00a59999
    62ec:	9999999a 	ldmlsib	r9, {r1, r3, r4, r7, r8, fp, ip, pc}
    62f0:	bfaccccc 	swilt	0x00accccc
    62f4:	cccccccd 	stcgtl	12, cr12, [ip], {205}
    62f8:	bfa88888 	swilt	0x00a88888
    62fc:	88889b4c 	stmhiia	r8, {r2, r3, r6, r8, r9, fp, ip, pc}
    6300:	40000828 	andmi	r0, r0, r8, lsr #16
    6304:	40000a22 	andmi	r0, r0, r2, lsr #20
    6308:	40000a3c 	andmi	r0, r0, ip, lsr sl
    630c:	40000a2c 	andmi	r0, r0, ip, lsr #20
    6310:	00000432 	andeq	r0, r0, r2, lsr r4
    6314:	00000433 	andeq	r0, r0, r3, lsr r4
    6318:	000007e9 	andeq	r0, r0, r9, ror #15
    631c:	000003ce 	andeq	r0, r0, lr, asr #7
    6320:	000003cf 	andeq	r0, r0, pc, asr #7
    6324:	000007b7 	streqh	r0, [r0], -r7

00006328 <telecommand_task>:
    6328:	e1a0c00d 	mov	ip, sp
    632c:	e92dd9f0 	stmdb	sp!, {r4, r5, r6, r7, r8, fp, ip, lr, pc}
    6330:	e59f85d4 	ldr	r8, [pc, #1492]	; 690c <.text+0x290c>
    6334:	e5983000 	ldr	r3, [r8]
    6338:	e5d33011 	ldrb	r3, [r3, #17]
    633c:	e24cb004 	sub	fp, ip, #4	; 0x4
    6340:	e3130002 	tst	r3, #2	; 0x2
    6344:	e3a0c000 	mov	ip, #0	; 0x0
    6348:	e1a0200c 	mov	r2, ip
    634c:	0a000004 	beq	6364 <telecommand_task+0x3c>
    6350:	e59f35b8 	ldr	r3, [pc, #1464]	; 6910 <.text+0x2910>
    6354:	e5d33000 	ldrb	r3, [r3]
    6358:	e3530001 	cmp	r3, #1	; 0x1
    635c:	83a02000 	movhi	r2, #0	; 0x0
    6360:	93a02001 	movls	r2, #1	; 0x1
    6364:	e59f05a4 	ldr	r0, [pc, #1444]	; 6910 <.text+0x2910>
    6368:	e5d03000 	ldrb	r3, [r0]
    636c:	e2433003 	sub	r3, r3, #3	; 0x3
    6370:	e3530001 	cmp	r3, #1	; 0x1
    6374:	9a00000d 	bls	63b0 <telecommand_task+0x88>
    6378:	e59f3594 	ldr	r3, [pc, #1428]	; 6914 <.text+0x2914>
    637c:	e5d33000 	ldrb	r3, [r3]
    6380:	e3530000 	cmp	r3, #0	; 0x0
    6384:	0a000009 	beq	63b0 <telecommand_task+0x88>
    6388:	e59f3588 	ldr	r3, [pc, #1416]	; 6918 <.text+0x2918>
    638c:	e5d33000 	ldrb	r3, [r3]
    6390:	e3530000 	cmp	r3, #0	; 0x0
    6394:	13a03003 	movne	r3, #3	; 0x3
    6398:	15c03000 	strneb	r3, [r0]
    639c:	13a0c001 	movne	ip, #1	; 0x1
    63a0:	e3520000 	cmp	r2, #0	; 0x0
    63a4:	13a03003 	movne	r3, #3	; 0x3
    63a8:	15c03000 	strneb	r3, [r0]
    63ac:	13a0c001 	movne	ip, #1	; 0x1
    63b0:	e5981000 	ldr	r1, [r8]
    63b4:	e5d13011 	ldrb	r3, [r1, #17]
    63b8:	e3130010 	tst	r3, #16	; 0x10
    63bc:	0a000017 	beq	6420 <telecommand_task+0xf8>
    63c0:	e5d03000 	ldrb	r3, [r0]
    63c4:	e2433003 	sub	r3, r3, #3	; 0x3
    63c8:	e3530001 	cmp	r3, #1	; 0x1
    63cc:	8a000005 	bhi	63e8 <telecommand_task+0xc0>
    63d0:	e59f2544 	ldr	r2, [pc, #1348]	; 691c <.text+0x291c>
    63d4:	e5d23000 	ldrb	r3, [r2]
    63d8:	e3530000 	cmp	r3, #0	; 0x0
    63dc:	0a00000e 	beq	641c <telecommand_task+0xf4>
    63e0:	e3a03000 	mov	r3, #0	; 0x0
    63e4:	e5c23000 	strb	r3, [r2]
    63e8:	e1d130fe 	ldrsh	r3, [r1, #14]
    63ec:	e3530d4b 	cmp	r3, #4800	; 0x12c0
    63f0:	c3a02002 	movgt	r2, #2	; 0x2
    63f4:	ca000002 	bgt	6404 <telecommand_task+0xdc>
    63f8:	e3730d4b 	cmn	r3, #4800	; 0x12c0
    63fc:	d3a02000 	movle	r2, #0	; 0x0
    6400:	c3a02001 	movgt	r2, #1	; 0x1
    6404:	e5d03000 	ldrb	r3, [r0]
    6408:	e1530002 	cmp	r3, r2
    640c:	13a03001 	movne	r3, #1	; 0x1
    6410:	03a03000 	moveq	r3, #0	; 0x0
    6414:	15c02000 	strneb	r2, [r0]
    6418:	e20330ff 	and	r3, r3, #255	; 0xff
    641c:	e18cc003 	orr	ip, ip, r3
    6420:	e5983000 	ldr	r3, [r8]
    6424:	e59f74f4 	ldr	r7, [pc, #1268]	; 6920 <.text+0x2920>
    6428:	e5d33011 	ldrb	r3, [r3, #17]
    642c:	e5d72000 	ldrb	r2, [r7]
    6430:	e20310ff 	and	r1, r3, #255	; 0xff
    6434:	e1520001 	cmp	r2, r1
    6438:	03a02000 	moveq	r2, #0	; 0x0
    643c:	0a000004 	beq	6454 <telecommand_task+0x12c>
    6440:	e202200f 	and	r2, r2, #15	; 0xf
    6444:	e203300f 	and	r3, r3, #15	; 0xf
    6448:	e5c71000 	strb	r1, [r7]
    644c:	e0522003 	subs	r2, r2, r3
    6450:	13a02001 	movne	r2, #1	; 0x1
    6454:	e19cc002 	orrs	ip, ip, r2
    6458:	0a0000be 	beq	6758 <telecommand_task+0x430>
    645c:	e59f14c0 	ldr	r1, [pc, #1216]	; 6924 <.text+0x2924>
    6460:	e59f04c0 	ldr	r0, [pc, #1216]	; 6928 <.text+0x2928>
    6464:	e5d13000 	ldrb	r3, [r1]
    6468:	e5d02000 	ldrb	r2, [r0]
    646c:	e1520003 	cmp	r2, r3
    6470:	25d13000 	ldrcsb	r3, [r1]
    6474:	35d13000 	ldrccb	r3, [r1]
    6478:	20633002 	rsbcs	r3, r3, r2
    647c:	30623003 	rsbcc	r3, r2, r3
    6480:	226330ff 	rsbcs	r3, r3, #255	; 0xff
    6484:	e353000d 	cmp	r3, #13	; 0xd
    6488:	d59f249c 	ldrle	r2, [pc, #1180]	; 692c <.text+0x292c>
    648c:	d5d23000 	ldrleb	r3, [r2]
    6490:	d2833001 	addle	r3, r3, #1	; 0x1
    6494:	d5c23000 	strleb	r3, [r2]
    6498:	da0000ae 	ble	6758 <telecommand_task+0x430>
    649c:	e5d02000 	ldrb	r2, [r0]
    64a0:	e2823001 	add	r3, r2, #1	; 0x1
    64a4:	e5c03000 	strb	r3, [r0]
    64a8:	e5d03000 	ldrb	r3, [r0]
    64ac:	e59f647c 	ldr	r6, [pc, #1148]	; 6930 <.text+0x2930>
    64b0:	e35300ff 	cmp	r3, #255	; 0xff
    64b4:	e3e03066 	mvn	r3, #102	; 0x66
    64b8:	e7c63002 	strb	r3, [r6, r2]
    64bc:	02833067 	addeq	r3, r3, #103	; 0x67
    64c0:	e59fc460 	ldr	ip, [pc, #1120]	; 6928 <.text+0x2928>
    64c4:	05c03000 	streqb	r3, [r0]
    64c8:	e5dc2000 	ldrb	r2, [ip]
    64cc:	e2823001 	add	r3, r2, #1	; 0x1
    64d0:	e5cc3000 	strb	r3, [ip]
    64d4:	e5dc3000 	ldrb	r3, [ip]
    64d8:	e35300ff 	cmp	r3, #255	; 0xff
    64dc:	e3a0300d 	mov	r3, #13	; 0xd
    64e0:	e7c63002 	strb	r3, [r6, r2]
    64e4:	0243300d 	subeq	r3, r3, #13	; 0xd
    64e8:	05cc3000 	streqb	r3, [ip]
    64ec:	e5dc2000 	ldrb	r2, [ip]
    64f0:	e2823001 	add	r3, r2, #1	; 0x1
    64f4:	e5cc3000 	strb	r3, [ip]
    64f8:	e5dc3000 	ldrb	r3, [ip]
    64fc:	e59fe430 	ldr	lr, [pc, #1072]	; 6934 <.text+0x2934>
    6500:	e59f5430 	ldr	r5, [pc, #1072]	; 6938 <.text+0x2938>
    6504:	e35300ff 	cmp	r3, #255	; 0xff
    6508:	e3a03014 	mov	r3, #20	; 0x14
    650c:	e5ce3000 	strb	r3, [lr]
    6510:	e283300d 	add	r3, r3, #13	; 0xd
    6514:	e5c53000 	strb	r3, [r5]
    6518:	e243301a 	sub	r3, r3, #26	; 0x1a
    651c:	e7c63002 	strb	r3, [r6, r2]
    6520:	02433007 	subeq	r3, r3, #7	; 0x7
    6524:	05cc3000 	streqb	r3, [ip]
    6528:	e5dc2000 	ldrb	r2, [ip]
    652c:	e2823001 	add	r3, r2, #1	; 0x1
    6530:	e5cc3000 	strb	r3, [ip]
    6534:	e5dc3000 	ldrb	r3, [ip]
    6538:	e35300ff 	cmp	r3, #255	; 0xff
    653c:	e3a0301f 	mov	r3, #31	; 0x1f
    6540:	e5ce3000 	strb	r3, [lr]
    6544:	e2833021 	add	r3, r3, #33	; 0x21
    6548:	e5c53000 	strb	r3, [r5]
    654c:	e2433035 	sub	r3, r3, #53	; 0x35
    6550:	e7c63002 	strb	r3, [r6, r2]
    6554:	0243300b 	subeq	r3, r3, #11	; 0xb
    6558:	05cc3000 	streqb	r3, [ip]
    655c:	e59f33ac 	ldr	r3, [pc, #940]	; 6910 <.text+0x2910>
    6560:	e5dc1000 	ldrb	r1, [ip]
    6564:	e5d30000 	ldrb	r0, [r3]
    6568:	e2812001 	add	r2, r1, #1	; 0x1
    656c:	e280301f 	add	r3, r0, #31	; 0x1f
    6570:	e5cc2000 	strb	r2, [ip]
    6574:	e5ce3000 	strb	r3, [lr]
    6578:	e5dc3000 	ldrb	r3, [ip]
    657c:	e5de2000 	ldrb	r2, [lr]
    6580:	e35300ff 	cmp	r3, #255	; 0xff
    6584:	e2823040 	add	r3, r2, #64	; 0x40
    6588:	e5c53000 	strb	r3, [r5]
    658c:	03a03000 	moveq	r3, #0	; 0x0
    6590:	05cc3000 	streqb	r3, [ip]
    6594:	e7c60001 	strb	r0, [r6, r1]
    6598:	e59f339c 	ldr	r3, [pc, #924]	; 693c <.text+0x293c>
    659c:	e5dc1000 	ldrb	r1, [ip]
    65a0:	e5d30000 	ldrb	r0, [r3]
    65a4:	e0803002 	add	r3, r0, r2
    65a8:	e2812001 	add	r2, r1, #1	; 0x1
    65ac:	e5ce3000 	strb	r3, [lr]
    65b0:	e5cc2000 	strb	r2, [ip]
    65b4:	e5dc3000 	ldrb	r3, [ip]
    65b8:	e35300ff 	cmp	r3, #255	; 0xff
    65bc:	e5de4000 	ldrb	r4, [lr]
    65c0:	e5d52000 	ldrb	r2, [r5]
    65c4:	024330ff 	subeq	r3, r3, #255	; 0xff
    65c8:	05cc3000 	streqb	r3, [ip]
    65cc:	e0822004 	add	r2, r2, r4
    65d0:	e5c52000 	strb	r2, [r5]
    65d4:	e7c60001 	strb	r0, [r6, r1]
    65d8:	e59f3360 	ldr	r3, [pc, #864]	; 6940 <.text+0x2940>
    65dc:	e5dc1000 	ldrb	r1, [ip]
    65e0:	e5d30000 	ldrb	r0, [r3]
    65e4:	e2812001 	add	r2, r1, #1	; 0x1
    65e8:	e5cc2000 	strb	r2, [ip]
    65ec:	e0803004 	add	r3, r0, r4
    65f0:	e5ce3000 	strb	r3, [lr]
    65f4:	e5dc3000 	ldrb	r3, [ip]
    65f8:	e35300ff 	cmp	r3, #255	; 0xff
    65fc:	e5de4000 	ldrb	r4, [lr]
    6600:	e5d52000 	ldrb	r2, [r5]
    6604:	024330ff 	subeq	r3, r3, #255	; 0xff
    6608:	05cc3000 	streqb	r3, [ip]
    660c:	e0822004 	add	r2, r2, r4
    6610:	e5c52000 	strb	r2, [r5]
    6614:	e7c60001 	strb	r0, [r6, r1]
    6618:	e59f3324 	ldr	r3, [pc, #804]	; 6944 <.text+0x2944>
    661c:	e5dc1000 	ldrb	r1, [ip]
    6620:	e5d30000 	ldrb	r0, [r3]
    6624:	e2812001 	add	r2, r1, #1	; 0x1
    6628:	e5cc2000 	strb	r2, [ip]
    662c:	e0803004 	add	r3, r0, r4
    6630:	e5ce3000 	strb	r3, [lr]
    6634:	e5dc3000 	ldrb	r3, [ip]
    6638:	e5de4000 	ldrb	r4, [lr]
    663c:	e35300ff 	cmp	r3, #255	; 0xff
    6640:	e5d52000 	ldrb	r2, [r5]
    6644:	024330ff 	subeq	r3, r3, #255	; 0xff
    6648:	05cc3000 	streqb	r3, [ip]
    664c:	e0822004 	add	r2, r2, r4
    6650:	e5c52000 	strb	r2, [r5]
    6654:	e7c60001 	strb	r0, [r6, r1]
    6658:	e59f32e8 	ldr	r3, [pc, #744]	; 6948 <.text+0x2948>
    665c:	e5dc1000 	ldrb	r1, [ip]
    6660:	e5d30000 	ldrb	r0, [r3]
    6664:	e2812001 	add	r2, r1, #1	; 0x1
    6668:	e0803004 	add	r3, r0, r4
    666c:	e5cc2000 	strb	r2, [ip]
    6670:	e5ce3000 	strb	r3, [lr]
    6674:	e5dc3000 	ldrb	r3, [ip]
    6678:	e5de4000 	ldrb	r4, [lr]
    667c:	e5d52000 	ldrb	r2, [r5]
    6680:	e35300ff 	cmp	r3, #255	; 0xff
    6684:	e0822004 	add	r2, r2, r4
    6688:	024330ff 	subeq	r3, r3, #255	; 0xff
    668c:	e5c52000 	strb	r2, [r5]
    6690:	05cc3000 	streqb	r3, [ip]
    6694:	e7c60001 	strb	r0, [r6, r1]
    6698:	e5dc1000 	ldrb	r1, [ip]
    669c:	e5d70000 	ldrb	r0, [r7]
    66a0:	e2812001 	add	r2, r1, #1	; 0x1
    66a4:	e5cc2000 	strb	r2, [ip]
    66a8:	e0803004 	add	r3, r0, r4
    66ac:	e5ce3000 	strb	r3, [lr]
    66b0:	e5dc3000 	ldrb	r3, [ip]
    66b4:	e5de4000 	ldrb	r4, [lr]
    66b8:	e5d52000 	ldrb	r2, [r5]
    66bc:	e35300ff 	cmp	r3, #255	; 0xff
    66c0:	024330ff 	subeq	r3, r3, #255	; 0xff
    66c4:	e0822004 	add	r2, r2, r4
    66c8:	05cc3000 	streqb	r3, [ip]
    66cc:	e5c52000 	strb	r2, [r5]
    66d0:	e7c60001 	strb	r0, [r6, r1]
    66d4:	e59f3270 	ldr	r3, [pc, #624]	; 694c <.text+0x294c>
    66d8:	e5dc1000 	ldrb	r1, [ip]
    66dc:	e5d30000 	ldrb	r0, [r3]
    66e0:	e2812001 	add	r2, r1, #1	; 0x1
    66e4:	e0803004 	add	r3, r0, r4
    66e8:	e5cc2000 	strb	r2, [ip]
    66ec:	e5ce3000 	strb	r3, [lr]
    66f0:	e5dc2000 	ldrb	r2, [ip]
    66f4:	e5dee000 	ldrb	lr, [lr]
    66f8:	e5d53000 	ldrb	r3, [r5]
    66fc:	e35200ff 	cmp	r2, #255	; 0xff
    6700:	e083300e 	add	r3, r3, lr
    6704:	e5c53000 	strb	r3, [r5]
    6708:	03a03000 	moveq	r3, #0	; 0x0
    670c:	05cc3000 	streqb	r3, [ip]
    6710:	e5dc3000 	ldrb	r3, [ip]
    6714:	e2832001 	add	r2, r3, #1	; 0x1
    6718:	e5cc2000 	strb	r2, [ip]
    671c:	e5dc2000 	ldrb	r2, [ip]
    6720:	e35200ff 	cmp	r2, #255	; 0xff
    6724:	e7c60001 	strb	r0, [r6, r1]
    6728:	e7c6e003 	strb	lr, [r6, r3]
    672c:	03a03000 	moveq	r3, #0	; 0x0
    6730:	05cc3000 	streqb	r3, [ip]
    6734:	e5dc1000 	ldrb	r1, [ip]
    6738:	e2813001 	add	r3, r1, #1	; 0x1
    673c:	e5cc3000 	strb	r3, [ip]
    6740:	e5dc3000 	ldrb	r3, [ip]
    6744:	e5d52000 	ldrb	r2, [r5]
    6748:	e35300ff 	cmp	r3, #255	; 0xff
    674c:	024330ff 	subeq	r3, r3, #255	; 0xff
    6750:	e7c62001 	strb	r2, [r6, r1]
    6754:	05cc3000 	streqb	r3, [ip]
    6758:	e59f61b0 	ldr	r6, [pc, #432]	; 6910 <.text+0x2910>
    675c:	e5d65000 	ldrb	r5, [r6]
    6760:	e3550001 	cmp	r5, #1	; 0x1
    6764:	1a00001c 	bne	67dc <telecommand_task+0x4b4>
    6768:	e5984000 	ldr	r4, [r8]
    676c:	e1d400f0 	ldrsh	r0, [r4]
    6770:	eb0044da 	bl	17ae0 <__floatsisf>
    6774:	e59f11d4 	ldr	r1, [pc, #468]	; 6950 <.text+0x2950>
    6778:	eb00454f 	bl	17cbc <__divsf3>
    677c:	eb00426e 	bl	1713c <__extendsfdf2>
    6780:	e28f2f5d 	add	r2, pc, #372	; 0x174
    6784:	e892000c 	ldmia	r2, {r2, r3}
    6788:	eb00427e 	bl	17188 <__muldf3>
    678c:	e28f2e17 	add	r2, pc, #368	; 0x170
    6790:	e892000c 	ldmia	r2, {r2, r3}
    6794:	eb004192 	bl	16de4 <__adddf3>
    6798:	eb00441f 	bl	1781c <__truncdfsf2>
    679c:	e59f31b0 	ldr	r3, [pc, #432]	; 6954 <.text+0x2954>
    67a0:	e5830000 	str	r0, [r3]
    67a4:	e1d400f2 	ldrsh	r0, [r4, #2]
    67a8:	eb0044cc 	bl	17ae0 <__floatsisf>
    67ac:	e59f119c 	ldr	r1, [pc, #412]	; 6950 <.text+0x2950>
    67b0:	eb004541 	bl	17cbc <__divsf3>
    67b4:	eb004260 	bl	1713c <__extendsfdf2>
    67b8:	e28f2f4f 	add	r2, pc, #316	; 0x13c
    67bc:	e892000c 	ldmia	r2, {r2, r3}
    67c0:	eb004270 	bl	17188 <__muldf3>
    67c4:	e28f2f4e 	add	r2, pc, #312	; 0x138
    67c8:	e892000c 	ldmia	r2, {r2, r3}
    67cc:	eb004184 	bl	16de4 <__adddf3>
    67d0:	eb004411 	bl	1781c <__truncdfsf2>
    67d4:	e59f317c 	ldr	r3, [pc, #380]	; 6958 <.text+0x2958>
    67d8:	e5830000 	str	r0, [r3]
    67dc:	e3550001 	cmp	r5, #1	; 0x1
    67e0:	959f3124 	ldrls	r3, [pc, #292]	; 690c <.text+0x290c>
    67e4:	95932000 	ldrls	r2, [r3]
    67e8:	e59f411c 	ldr	r4, [pc, #284]	; 690c <.text+0x290c>
    67ec:	91d220b4 	ldrlsh	r2, [r2, #4]
    67f0:	959f3164 	ldrls	r3, [pc, #356]	; 695c <.text+0x295c>
    67f4:	91c320b0 	strlsh	r2, [r3]
    67f8:	e5942000 	ldr	r2, [r4]
    67fc:	e59f315c 	ldr	r3, [pc, #348]	; 6960 <.text+0x2960>
    6800:	e5d21010 	ldrb	r1, [r2, #16]
    6804:	e5c31000 	strb	r1, [r3]
    6808:	e59f3154 	ldr	r3, [pc, #340]	; 6964 <.text+0x2964>
    680c:	e5d21013 	ldrb	r1, [r2, #19]
    6810:	e5c31000 	strb	r1, [r3]
    6814:	e59f314c 	ldr	r3, [pc, #332]	; 6968 <.text+0x2968>
    6818:	e1d220fa 	ldrsh	r2, [r2, #10]
    681c:	e1520003 	cmp	r2, r3
    6820:	e59f2144 	ldr	r2, [pc, #324]	; 696c <.text+0x296c>
    6824:	d3a03000 	movle	r3, #0	; 0x0
    6828:	d1c230b0 	strleh	r3, [r2]
    682c:	da000009 	ble	6858 <telecommand_task+0x530>
    6830:	e1d230b0 	ldrh	r3, [r2]
    6834:	e3530013 	cmp	r3, #19	; 0x13
    6838:	8a000006 	bhi	6858 <telecommand_task+0x530>
    683c:	e2833001 	add	r3, r3, #1	; 0x1
    6840:	e1c230b0 	strh	r3, [r2]
    6844:	e1d230b0 	ldrh	r3, [r2]
    6848:	e3530014 	cmp	r3, #20	; 0x14
    684c:	059f30c8 	ldreq	r3, [pc, #200]	; 691c <.text+0x291c>
    6850:	03a02001 	moveq	r2, #1	; 0x1
    6854:	05c32000 	streqb	r2, [r3]
    6858:	e5943000 	ldr	r3, [r4]
    685c:	e1d320fa 	ldrsh	r2, [r3, #10]
    6860:	e59f3108 	ldr	r3, [pc, #264]	; 6970 <.text+0x2970>
    6864:	e1520003 	cmp	r2, r3
    6868:	e59f2104 	ldr	r2, [pc, #260]	; 6974 <.text+0x2974>
    686c:	a3a03000 	movge	r3, #0	; 0x0
    6870:	a1c230b0 	strgeh	r3, [r2]
    6874:	aa000009 	bge	68a0 <telecommand_task+0x578>
    6878:	e1d230b0 	ldrh	r3, [r2]
    687c:	e3530013 	cmp	r3, #19	; 0x13
    6880:	8a000006 	bhi	68a0 <telecommand_task+0x578>
    6884:	e2833001 	add	r3, r3, #1	; 0x1
    6888:	e1c230b0 	strh	r3, [r2]
    688c:	e1d230b0 	ldrh	r3, [r2]
    6890:	e3530014 	cmp	r3, #20	; 0x14
    6894:	059f30dc 	ldreq	r3, [pc, #220]	; 6978 <.text+0x2978>
    6898:	03a02001 	moveq	r2, #1	; 0x1
    689c:	05c32000 	streqb	r2, [r3]
    68a0:	e59f30d4 	ldr	r3, [pc, #212]	; 697c <.text+0x297c>
    68a4:	e1d330b0 	ldrh	r3, [r3]
    68a8:	e3530000 	cmp	r3, #0	; 0x0
    68ac:	1a000010 	bne	68f4 <telecommand_task+0x5cc>
    68b0:	e5943000 	ldr	r3, [r4]
    68b4:	e1d300b0 	ldrh	r0, [r3]
    68b8:	e2800d4b 	add	r0, r0, #4800	; 0x12c0
    68bc:	e1a00800 	mov	r0, r0, lsl #16
    68c0:	e3500596 	cmp	r0, #629145600	; 0x25800000
    68c4:	93a00000 	movls	r0, #0	; 0x0
    68c8:	83a00001 	movhi	r0, #1	; 0x1
    68cc:	eb0025fd 	bl	100c8 <ground_calibrate>
    68d0:	e5d63000 	ldrb	r3, [r6]
    68d4:	e3530002 	cmp	r3, #2	; 0x2
    68d8:	1a000005 	bne	68f4 <telecommand_task+0x5cc>
    68dc:	e5943000 	ldr	r3, [r4]
    68e0:	e1d330f4 	ldrsh	r3, [r3, #4]
    68e4:	e3530d87 	cmp	r3, #8640	; 0x21c0
    68e8:	c59f3024 	ldrgt	r3, [pc, #36]	; 6914 <.text+0x2914>
    68ec:	c3a02001 	movgt	r2, #1	; 0x1
    68f0:	c5c32000 	strgtb	r2, [r3]
    68f4:	e89d69f0 	ldmia	sp, {r4, r5, r6, r7, r8, fp, sp, lr}
    68f8:	e12fff1e 	bx	lr
    68fc:	3fe33333 	swicc	0x00e33333
    6900:	33333333 	teqcc	r3, #-872415232	; 0xcc000000
	...
    690c:	40000010 	andmi	r0, r0, r0, lsl r0
    6910:	40000003 	andmi	r0, r0, r3
    6914:	400004b5 	strmih	r0, [r0], -r5
    6918:	400010a8 	andmi	r1, r0, r8, lsr #1
    691c:	4000082c 	andmi	r0, r0, ip, lsr #16
    6920:	400004d4 	ldrmid	r0, [r0], -r4
    6924:	40000d2c 	andmi	r0, r0, ip, lsr #26
    6928:	40000d2b 	andmi	r0, r0, fp, lsr #26
    692c:	40000a93 	mulmi	r0, r3, sl
    6930:	40000d2d 	andmi	r0, r0, sp, lsr #26
    6934:	40000d27 	andmi	r0, r0, r7, lsr #26
    6938:	40000c24 	andmi	r0, r0, r4, lsr #24
    693c:	40001158 	andmi	r1, r0, r8, asr r1
    6940:	400004b8 	strmih	r0, [r0], -r8
    6944:	400010a4 	andmi	r1, r0, r4, lsr #1
    6948:	400004ba 	strmih	r0, [r0], -sl
    694c:	400004b7 	strmih	r0, [r0], -r7
    6950:	46160000 	ldrmi	r0, [r6], -r0
    6954:	40001134 	andmi	r1, r0, r4, lsr r1
    6958:	40001110 	andmi	r1, r0, r0, lsl r1
    695c:	40001170 	andmi	r1, r0, r0, ror r1
    6960:	400004d5 	ldrmid	r0, [r0], -r5
    6964:	40000a20 	andmi	r0, r0, r0, lsr #20
    6968:	00001c20 	andeq	r1, r0, r0, lsr #24
    696c:	400004bc 	strmih	r0, [r0], -ip
    6970:	ffffe3e0 	swinv	0x00ffe3e0
    6974:	400004be 	strmih	r0, [r0], -lr
    6978:	40000a18 	andmi	r0, r0, r8, lsl sl
    697c:	40001034 	andmi	r1, r0, r4, lsr r0

00006980 <checkGPS>:
    6980:	e92d40f0 	stmdb	sp!, {r4, r5, r6, r7, lr}
    6984:	e59f367c 	ldr	r3, [pc, #1660]	; 7008 <.text+0x3008>
    6988:	e5d3c000 	ldrb	ip, [r3]
    698c:	e35c0000 	cmp	ip, #0	; 0x0
    6990:	0a0000d2 	beq	6ce0 <checkGPS+0x360>
    6994:	e59f3670 	ldr	r3, [pc, #1648]	; 700c <.text+0x300c>
    6998:	e59f2670 	ldr	r2, [pc, #1648]	; 7010 <.text+0x3010>
    699c:	e1d330b0 	ldrh	r3, [r3]
    69a0:	e1d220b0 	ldrh	r2, [r2]
    69a4:	e0623003 	rsb	r3, r2, r3
    69a8:	e3530001 	cmp	r3, #1	; 0x1
    69ac:	da000193 	ble	7000 <checkGPS+0x680>
    69b0:	e59f465c 	ldr	r4, [pc, #1628]	; 7014 <.text+0x3014>
    69b4:	e5d40000 	ldrb	r0, [r4]
    69b8:	e2403002 	sub	r3, r0, #2	; 0x2
    69bc:	e3530001 	cmp	r3, #1	; 0x1
    69c0:	8a00018e 	bhi	7000 <checkGPS+0x680>
    69c4:	e59f164c 	ldr	r1, [pc, #1612]	; 7018 <.text+0x3018>
    69c8:	e59fe64c 	ldr	lr, [pc, #1612]	; 701c <.text+0x301c>
    69cc:	e5d13000 	ldrb	r3, [r1]
    69d0:	e5de2000 	ldrb	r2, [lr]
    69d4:	e1520003 	cmp	r2, r3
    69d8:	e59f3640 	ldr	r3, [pc, #1600]	; 7020 <.text+0x3020>
    69dc:	e5c30000 	strb	r0, [r3]
    69e0:	e3a03004 	mov	r3, #4	; 0x4
    69e4:	e5c43000 	strb	r3, [r4]
    69e8:	25d13000 	ldrcsb	r3, [r1]
    69ec:	35d13000 	ldrccb	r3, [r1]
    69f0:	20633002 	rsbcs	r3, r3, r2
    69f4:	30623003 	rsbcc	r3, r2, r3
    69f8:	226330ff 	rsbcs	r3, r3, #255	; 0xff
    69fc:	e353000d 	cmp	r3, #13	; 0xd
    6a00:	d59f261c 	ldrle	r2, [pc, #1564]	; 7024 <.text+0x3024>
    6a04:	d5d23000 	ldrleb	r3, [r2]
    6a08:	d2833001 	addle	r3, r3, #1	; 0x1
    6a0c:	d5c23000 	strleb	r3, [r2]
    6a10:	da0000ae 	ble	6cd0 <checkGPS+0x350>
    6a14:	e5de2000 	ldrb	r2, [lr]
    6a18:	e2823001 	add	r3, r2, #1	; 0x1
    6a1c:	e5ce3000 	strb	r3, [lr]
    6a20:	e5de3000 	ldrb	r3, [lr]
    6a24:	e59f65fc 	ldr	r6, [pc, #1532]	; 7028 <.text+0x3028>
    6a28:	e35300ff 	cmp	r3, #255	; 0xff
    6a2c:	e3e03066 	mvn	r3, #102	; 0x66
    6a30:	e7c63002 	strb	r3, [r6, r2]
    6a34:	02833067 	addeq	r3, r3, #103	; 0x67
    6a38:	e59fc5dc 	ldr	ip, [pc, #1500]	; 701c <.text+0x301c>
    6a3c:	05ce3000 	streqb	r3, [lr]
    6a40:	e5dc2000 	ldrb	r2, [ip]
    6a44:	e2823001 	add	r3, r2, #1	; 0x1
    6a48:	e5cc3000 	strb	r3, [ip]
    6a4c:	e5dc3000 	ldrb	r3, [ip]
    6a50:	e35300ff 	cmp	r3, #255	; 0xff
    6a54:	e3a0300d 	mov	r3, #13	; 0xd
    6a58:	e7c63002 	strb	r3, [r6, r2]
    6a5c:	0243300d 	subeq	r3, r3, #13	; 0xd
    6a60:	05cc3000 	streqb	r3, [ip]
    6a64:	e5dc2000 	ldrb	r2, [ip]
    6a68:	e2823001 	add	r3, r2, #1	; 0x1
    6a6c:	e5cc3000 	strb	r3, [ip]
    6a70:	e5dc3000 	ldrb	r3, [ip]
    6a74:	e59fe5b0 	ldr	lr, [pc, #1456]	; 702c <.text+0x302c>
    6a78:	e59f55b0 	ldr	r5, [pc, #1456]	; 7030 <.text+0x3030>
    6a7c:	e35300ff 	cmp	r3, #255	; 0xff
    6a80:	e3a03014 	mov	r3, #20	; 0x14
    6a84:	e5ce3000 	strb	r3, [lr]
    6a88:	e283300d 	add	r3, r3, #13	; 0xd
    6a8c:	e5c53000 	strb	r3, [r5]
    6a90:	e243301a 	sub	r3, r3, #26	; 0x1a
    6a94:	e7c63002 	strb	r3, [r6, r2]
    6a98:	02433007 	subeq	r3, r3, #7	; 0x7
    6a9c:	05cc3000 	streqb	r3, [ip]
    6aa0:	e5dc2000 	ldrb	r2, [ip]
    6aa4:	e2823001 	add	r3, r2, #1	; 0x1
    6aa8:	e5cc3000 	strb	r3, [ip]
    6aac:	e5dc3000 	ldrb	r3, [ip]
    6ab0:	e35300ff 	cmp	r3, #255	; 0xff
    6ab4:	e3a0301f 	mov	r3, #31	; 0x1f
    6ab8:	e5ce3000 	strb	r3, [lr]
    6abc:	e2833021 	add	r3, r3, #33	; 0x21
    6ac0:	e5c53000 	strb	r3, [r5]
    6ac4:	e2433035 	sub	r3, r3, #53	; 0x35
    6ac8:	e7c63002 	strb	r3, [r6, r2]
    6acc:	0243300b 	subeq	r3, r3, #11	; 0xb
    6ad0:	05cc3000 	streqb	r3, [ip]
    6ad4:	e5d40000 	ldrb	r0, [r4]
    6ad8:	e5dc1000 	ldrb	r1, [ip]
    6adc:	e280301f 	add	r3, r0, #31	; 0x1f
    6ae0:	e2812001 	add	r2, r1, #1	; 0x1
    6ae4:	e5cc2000 	strb	r2, [ip]
    6ae8:	e5ce3000 	strb	r3, [lr]
    6aec:	e5dc3000 	ldrb	r3, [ip]
    6af0:	e5de2000 	ldrb	r2, [lr]
    6af4:	e35300ff 	cmp	r3, #255	; 0xff
    6af8:	e2823040 	add	r3, r2, #64	; 0x40
    6afc:	e5c53000 	strb	r3, [r5]
    6b00:	03a03000 	moveq	r3, #0	; 0x0
    6b04:	05cc3000 	streqb	r3, [ip]
    6b08:	e7c60001 	strb	r0, [r6, r1]
    6b0c:	e59f3520 	ldr	r3, [pc, #1312]	; 7034 <.text+0x3034>
    6b10:	e5dc1000 	ldrb	r1, [ip]
    6b14:	e5d30000 	ldrb	r0, [r3]
    6b18:	e0803002 	add	r3, r0, r2
    6b1c:	e2812001 	add	r2, r1, #1	; 0x1
    6b20:	e5ce3000 	strb	r3, [lr]
    6b24:	e5cc2000 	strb	r2, [ip]
    6b28:	e5dc3000 	ldrb	r3, [ip]
    6b2c:	e35300ff 	cmp	r3, #255	; 0xff
    6b30:	e5de4000 	ldrb	r4, [lr]
    6b34:	e5d52000 	ldrb	r2, [r5]
    6b38:	024330ff 	subeq	r3, r3, #255	; 0xff
    6b3c:	05cc3000 	streqb	r3, [ip]
    6b40:	e0822004 	add	r2, r2, r4
    6b44:	e5c52000 	strb	r2, [r5]
    6b48:	e7c60001 	strb	r0, [r6, r1]
    6b4c:	e59f34e4 	ldr	r3, [pc, #1252]	; 7038 <.text+0x3038>
    6b50:	e5dc1000 	ldrb	r1, [ip]
    6b54:	e5d30000 	ldrb	r0, [r3]
    6b58:	e2812001 	add	r2, r1, #1	; 0x1
    6b5c:	e5cc2000 	strb	r2, [ip]
    6b60:	e0803004 	add	r3, r0, r4
    6b64:	e5ce3000 	strb	r3, [lr]
    6b68:	e5dc3000 	ldrb	r3, [ip]
    6b6c:	e35300ff 	cmp	r3, #255	; 0xff
    6b70:	e5de4000 	ldrb	r4, [lr]
    6b74:	e5d52000 	ldrb	r2, [r5]
    6b78:	024330ff 	subeq	r3, r3, #255	; 0xff
    6b7c:	05cc3000 	streqb	r3, [ip]
    6b80:	e0822004 	add	r2, r2, r4
    6b84:	e5c52000 	strb	r2, [r5]
    6b88:	e7c60001 	strb	r0, [r6, r1]
    6b8c:	e59f34a8 	ldr	r3, [pc, #1192]	; 703c <.text+0x303c>
    6b90:	e5dc1000 	ldrb	r1, [ip]
    6b94:	e5d30000 	ldrb	r0, [r3]
    6b98:	e2812001 	add	r2, r1, #1	; 0x1
    6b9c:	e5cc2000 	strb	r2, [ip]
    6ba0:	e0803004 	add	r3, r0, r4
    6ba4:	e5ce3000 	strb	r3, [lr]
    6ba8:	e5dc3000 	ldrb	r3, [ip]
    6bac:	e5de4000 	ldrb	r4, [lr]
    6bb0:	e35300ff 	cmp	r3, #255	; 0xff
    6bb4:	e5d52000 	ldrb	r2, [r5]
    6bb8:	024330ff 	subeq	r3, r3, #255	; 0xff
    6bbc:	05cc3000 	streqb	r3, [ip]
    6bc0:	e0822004 	add	r2, r2, r4
    6bc4:	e5c52000 	strb	r2, [r5]
    6bc8:	e7c60001 	strb	r0, [r6, r1]
    6bcc:	e59f346c 	ldr	r3, [pc, #1132]	; 7040 <.text+0x3040>
    6bd0:	e5dc1000 	ldrb	r1, [ip]
    6bd4:	e5d30000 	ldrb	r0, [r3]
    6bd8:	e2812001 	add	r2, r1, #1	; 0x1
    6bdc:	e0803004 	add	r3, r0, r4
    6be0:	e5cc2000 	strb	r2, [ip]
    6be4:	e5ce3000 	strb	r3, [lr]
    6be8:	e5dc3000 	ldrb	r3, [ip]
    6bec:	e5de4000 	ldrb	r4, [lr]
    6bf0:	e5d52000 	ldrb	r2, [r5]
    6bf4:	e35300ff 	cmp	r3, #255	; 0xff
    6bf8:	e0822004 	add	r2, r2, r4
    6bfc:	024330ff 	subeq	r3, r3, #255	; 0xff
    6c00:	e5c52000 	strb	r2, [r5]
    6c04:	05cc3000 	streqb	r3, [ip]
    6c08:	e7c60001 	strb	r0, [r6, r1]
    6c0c:	e59f3430 	ldr	r3, [pc, #1072]	; 7044 <.text+0x3044>
    6c10:	e5dc1000 	ldrb	r1, [ip]
    6c14:	e5d30000 	ldrb	r0, [r3]
    6c18:	e2812001 	add	r2, r1, #1	; 0x1
    6c1c:	e5cc2000 	strb	r2, [ip]
    6c20:	e0803004 	add	r3, r0, r4
    6c24:	e5ce3000 	strb	r3, [lr]
    6c28:	e5dc3000 	ldrb	r3, [ip]
    6c2c:	e5de4000 	ldrb	r4, [lr]
    6c30:	e5d52000 	ldrb	r2, [r5]
    6c34:	e35300ff 	cmp	r3, #255	; 0xff
    6c38:	024330ff 	subeq	r3, r3, #255	; 0xff
    6c3c:	e0822004 	add	r2, r2, r4
    6c40:	05cc3000 	streqb	r3, [ip]
    6c44:	e5c52000 	strb	r2, [r5]
    6c48:	e7c60001 	strb	r0, [r6, r1]
    6c4c:	e59f33f4 	ldr	r3, [pc, #1012]	; 7048 <.text+0x3048>
    6c50:	e5dc1000 	ldrb	r1, [ip]
    6c54:	e5d30000 	ldrb	r0, [r3]
    6c58:	e2812001 	add	r2, r1, #1	; 0x1
    6c5c:	e0803004 	add	r3, r0, r4
    6c60:	e5cc2000 	strb	r2, [ip]
    6c64:	e5ce3000 	strb	r3, [lr]
    6c68:	e5dc2000 	ldrb	r2, [ip]
    6c6c:	e5dee000 	ldrb	lr, [lr]
    6c70:	e5d53000 	ldrb	r3, [r5]
    6c74:	e35200ff 	cmp	r2, #255	; 0xff
    6c78:	e083300e 	add	r3, r3, lr
    6c7c:	e5c53000 	strb	r3, [r5]
    6c80:	03a03000 	moveq	r3, #0	; 0x0
    6c84:	05cc3000 	streqb	r3, [ip]
    6c88:	e5dc3000 	ldrb	r3, [ip]
    6c8c:	e2832001 	add	r2, r3, #1	; 0x1
    6c90:	e5cc2000 	strb	r2, [ip]
    6c94:	e5dc2000 	ldrb	r2, [ip]
    6c98:	e35200ff 	cmp	r2, #255	; 0xff
    6c9c:	e7c60001 	strb	r0, [r6, r1]
    6ca0:	e7c6e003 	strb	lr, [r6, r3]
    6ca4:	03a03000 	moveq	r3, #0	; 0x0
    6ca8:	05cc3000 	streqb	r3, [ip]
    6cac:	e5dc1000 	ldrb	r1, [ip]
    6cb0:	e2813001 	add	r3, r1, #1	; 0x1
    6cb4:	e5cc3000 	strb	r3, [ip]
    6cb8:	e5dc3000 	ldrb	r3, [ip]
    6cbc:	e5d52000 	ldrb	r2, [r5]
    6cc0:	e35300ff 	cmp	r3, #255	; 0xff
    6cc4:	024330ff 	subeq	r3, r3, #255	; 0xff
    6cc8:	e7c62001 	strb	r2, [r6, r1]
    6ccc:	05cc3000 	streqb	r3, [ip]
    6cd0:	e59f3374 	ldr	r3, [pc, #884]	; 704c <.text+0x304c>
    6cd4:	e3a02001 	mov	r2, #1	; 0x1
    6cd8:	e5c32000 	strb	r2, [r3]
    6cdc:	ea0000c7 	b	7000 <checkGPS+0x680>
    6ce0:	e59f4364 	ldr	r4, [pc, #868]	; 704c <.text+0x304c>
    6ce4:	e5d43000 	ldrb	r3, [r4]
    6ce8:	e3530000 	cmp	r3, #0	; 0x0
    6cec:	0a0000c3 	beq	7000 <checkGPS+0x680>
    6cf0:	e59f0320 	ldr	r0, [pc, #800]	; 7018 <.text+0x3018>
    6cf4:	e59fe320 	ldr	lr, [pc, #800]	; 701c <.text+0x301c>
    6cf8:	e5d03000 	ldrb	r3, [r0]
    6cfc:	e5de1000 	ldrb	r1, [lr]
    6d00:	e1510003 	cmp	r1, r3
    6d04:	25d03000 	ldrcsb	r3, [r0]
    6d08:	35d03000 	ldrccb	r3, [r0]
    6d0c:	e59f230c 	ldr	r2, [pc, #780]	; 7020 <.text+0x3020>
    6d10:	20633001 	rsbcs	r3, r3, r1
    6d14:	e5d22000 	ldrb	r2, [r2]
    6d18:	226330ff 	rsbcs	r3, r3, #255	; 0xff
    6d1c:	30613003 	rsbcc	r3, r1, r3
    6d20:	e59f72ec 	ldr	r7, [pc, #748]	; 7014 <.text+0x3014>
    6d24:	e353000d 	cmp	r3, #13	; 0xd
    6d28:	e5c72000 	strb	r2, [r7]
    6d2c:	d59f22f0 	ldrle	r2, [pc, #752]	; 7024 <.text+0x3024>
    6d30:	d5d23000 	ldrleb	r3, [r2]
    6d34:	d2833001 	addle	r3, r3, #1	; 0x1
    6d38:	e5c4c000 	strb	ip, [r4]
    6d3c:	d5c23000 	strleb	r3, [r2]
    6d40:	da0000ae 	ble	7000 <checkGPS+0x680>
    6d44:	e5de2000 	ldrb	r2, [lr]
    6d48:	e2823001 	add	r3, r2, #1	; 0x1
    6d4c:	e5ce3000 	strb	r3, [lr]
    6d50:	e5de3000 	ldrb	r3, [lr]
    6d54:	e59f62cc 	ldr	r6, [pc, #716]	; 7028 <.text+0x3028>
    6d58:	e35300ff 	cmp	r3, #255	; 0xff
    6d5c:	e3e03066 	mvn	r3, #102	; 0x66
    6d60:	e7c63002 	strb	r3, [r6, r2]
    6d64:	02833067 	addeq	r3, r3, #103	; 0x67
    6d68:	e59fc2ac 	ldr	ip, [pc, #684]	; 701c <.text+0x301c>
    6d6c:	05ce3000 	streqb	r3, [lr]
    6d70:	e5dc2000 	ldrb	r2, [ip]
    6d74:	e2823001 	add	r3, r2, #1	; 0x1
    6d78:	e5cc3000 	strb	r3, [ip]
    6d7c:	e5dc3000 	ldrb	r3, [ip]
    6d80:	e35300ff 	cmp	r3, #255	; 0xff
    6d84:	e3a0300d 	mov	r3, #13	; 0xd
    6d88:	e7c63002 	strb	r3, [r6, r2]
    6d8c:	0243300d 	subeq	r3, r3, #13	; 0xd
    6d90:	05cc3000 	streqb	r3, [ip]
    6d94:	e5dc2000 	ldrb	r2, [ip]
    6d98:	e2823001 	add	r3, r2, #1	; 0x1
    6d9c:	e5cc3000 	strb	r3, [ip]
    6da0:	e5dc3000 	ldrb	r3, [ip]
    6da4:	e59fe280 	ldr	lr, [pc, #640]	; 702c <.text+0x302c>
    6da8:	e59f5280 	ldr	r5, [pc, #640]	; 7030 <.text+0x3030>
    6dac:	e35300ff 	cmp	r3, #255	; 0xff
    6db0:	e3a03014 	mov	r3, #20	; 0x14
    6db4:	e5ce3000 	strb	r3, [lr]
    6db8:	e283300d 	add	r3, r3, #13	; 0xd
    6dbc:	e5c53000 	strb	r3, [r5]
    6dc0:	e243301a 	sub	r3, r3, #26	; 0x1a
    6dc4:	e7c63002 	strb	r3, [r6, r2]
    6dc8:	02433007 	subeq	r3, r3, #7	; 0x7
    6dcc:	05cc3000 	streqb	r3, [ip]
    6dd0:	e5dc2000 	ldrb	r2, [ip]
    6dd4:	e2823001 	add	r3, r2, #1	; 0x1
    6dd8:	e5cc3000 	strb	r3, [ip]
    6ddc:	e5dc3000 	ldrb	r3, [ip]
    6de0:	e35300ff 	cmp	r3, #255	; 0xff
    6de4:	e3a0301f 	mov	r3, #31	; 0x1f
    6de8:	e5ce3000 	strb	r3, [lr]
    6dec:	e2833021 	add	r3, r3, #33	; 0x21
    6df0:	e5c53000 	strb	r3, [r5]
    6df4:	e2433035 	sub	r3, r3, #53	; 0x35
    6df8:	e7c63002 	strb	r3, [r6, r2]
    6dfc:	0243300b 	subeq	r3, r3, #11	; 0xb
    6e00:	05cc3000 	streqb	r3, [ip]
    6e04:	e5d70000 	ldrb	r0, [r7]
    6e08:	e5dc1000 	ldrb	r1, [ip]
    6e0c:	e280301f 	add	r3, r0, #31	; 0x1f
    6e10:	e2812001 	add	r2, r1, #1	; 0x1
    6e14:	e5cc2000 	strb	r2, [ip]
    6e18:	e5ce3000 	strb	r3, [lr]
    6e1c:	e5dc3000 	ldrb	r3, [ip]
    6e20:	e5de2000 	ldrb	r2, [lr]
    6e24:	e35300ff 	cmp	r3, #255	; 0xff
    6e28:	e2823040 	add	r3, r2, #64	; 0x40
    6e2c:	e5c53000 	strb	r3, [r5]
    6e30:	03a03000 	moveq	r3, #0	; 0x0
    6e34:	05cc3000 	streqb	r3, [ip]
    6e38:	e7c60001 	strb	r0, [r6, r1]
    6e3c:	e59f31f0 	ldr	r3, [pc, #496]	; 7034 <.text+0x3034>
    6e40:	e5dc1000 	ldrb	r1, [ip]
    6e44:	e5d30000 	ldrb	r0, [r3]
    6e48:	e0803002 	add	r3, r0, r2
    6e4c:	e2812001 	add	r2, r1, #1	; 0x1
    6e50:	e5ce3000 	strb	r3, [lr]
    6e54:	e5cc2000 	strb	r2, [ip]
    6e58:	e5dc3000 	ldrb	r3, [ip]
    6e5c:	e35300ff 	cmp	r3, #255	; 0xff
    6e60:	e5de4000 	ldrb	r4, [lr]
    6e64:	e5d52000 	ldrb	r2, [r5]
    6e68:	024330ff 	subeq	r3, r3, #255	; 0xff
    6e6c:	05cc3000 	streqb	r3, [ip]
    6e70:	e0822004 	add	r2, r2, r4
    6e74:	e5c52000 	strb	r2, [r5]
    6e78:	e7c60001 	strb	r0, [r6, r1]
    6e7c:	e59f31b4 	ldr	r3, [pc, #436]	; 7038 <.text+0x3038>
    6e80:	e5dc1000 	ldrb	r1, [ip]
    6e84:	e5d30000 	ldrb	r0, [r3]
    6e88:	e2812001 	add	r2, r1, #1	; 0x1
    6e8c:	e5cc2000 	strb	r2, [ip]
    6e90:	e0803004 	add	r3, r0, r4
    6e94:	e5ce3000 	strb	r3, [lr]
    6e98:	e5dc3000 	ldrb	r3, [ip]
    6e9c:	e35300ff 	cmp	r3, #255	; 0xff
    6ea0:	e5de4000 	ldrb	r4, [lr]
    6ea4:	e5d52000 	ldrb	r2, [r5]
    6ea8:	024330ff 	subeq	r3, r3, #255	; 0xff
    6eac:	05cc3000 	streqb	r3, [ip]
    6eb0:	e0822004 	add	r2, r2, r4
    6eb4:	e5c52000 	strb	r2, [r5]
    6eb8:	e7c60001 	strb	r0, [r6, r1]
    6ebc:	e59f3178 	ldr	r3, [pc, #376]	; 703c <.text+0x303c>
    6ec0:	e5dc1000 	ldrb	r1, [ip]
    6ec4:	e5d30000 	ldrb	r0, [r3]
    6ec8:	e2812001 	add	r2, r1, #1	; 0x1
    6ecc:	e5cc2000 	strb	r2, [ip]
    6ed0:	e0803004 	add	r3, r0, r4
    6ed4:	e5ce3000 	strb	r3, [lr]
    6ed8:	e5dc3000 	ldrb	r3, [ip]
    6edc:	e5de4000 	ldrb	r4, [lr]
    6ee0:	e35300ff 	cmp	r3, #255	; 0xff
    6ee4:	e5d52000 	ldrb	r2, [r5]
    6ee8:	024330ff 	subeq	r3, r3, #255	; 0xff
    6eec:	05cc3000 	streqb	r3, [ip]
    6ef0:	e0822004 	add	r2, r2, r4
    6ef4:	e5c52000 	strb	r2, [r5]
    6ef8:	e7c60001 	strb	r0, [r6, r1]
    6efc:	e59f313c 	ldr	r3, [pc, #316]	; 7040 <.text+0x3040>
    6f00:	e5dc1000 	ldrb	r1, [ip]
    6f04:	e5d30000 	ldrb	r0, [r3]
    6f08:	e2812001 	add	r2, r1, #1	; 0x1
    6f0c:	e0803004 	add	r3, r0, r4
    6f10:	e5cc2000 	strb	r2, [ip]
    6f14:	e5ce3000 	strb	r3, [lr]
    6f18:	e5dc3000 	ldrb	r3, [ip]
    6f1c:	e5de4000 	ldrb	r4, [lr]
    6f20:	e5d52000 	ldrb	r2, [r5]
    6f24:	e35300ff 	cmp	r3, #255	; 0xff
    6f28:	e0822004 	add	r2, r2, r4
    6f2c:	024330ff 	subeq	r3, r3, #255	; 0xff
    6f30:	e5c52000 	strb	r2, [r5]
    6f34:	05cc3000 	streqb	r3, [ip]
    6f38:	e7c60001 	strb	r0, [r6, r1]
    6f3c:	e59f3100 	ldr	r3, [pc, #256]	; 7044 <.text+0x3044>
    6f40:	e5dc1000 	ldrb	r1, [ip]
    6f44:	e5d30000 	ldrb	r0, [r3]
    6f48:	e2812001 	add	r2, r1, #1	; 0x1
    6f4c:	e5cc2000 	strb	r2, [ip]
    6f50:	e0803004 	add	r3, r0, r4
    6f54:	e5ce3000 	strb	r3, [lr]
    6f58:	e5dc3000 	ldrb	r3, [ip]
    6f5c:	e5de4000 	ldrb	r4, [lr]
    6f60:	e5d52000 	ldrb	r2, [r5]
    6f64:	e35300ff 	cmp	r3, #255	; 0xff
    6f68:	024330ff 	subeq	r3, r3, #255	; 0xff
    6f6c:	e0822004 	add	r2, r2, r4
    6f70:	05cc3000 	streqb	r3, [ip]
    6f74:	e5c52000 	strb	r2, [r5]
    6f78:	e7c60001 	strb	r0, [r6, r1]
    6f7c:	e59f30c4 	ldr	r3, [pc, #196]	; 7048 <.text+0x3048>
    6f80:	e5dc1000 	ldrb	r1, [ip]
    6f84:	e5d30000 	ldrb	r0, [r3]
    6f88:	e2812001 	add	r2, r1, #1	; 0x1
    6f8c:	e0803004 	add	r3, r0, r4
    6f90:	e5cc2000 	strb	r2, [ip]
    6f94:	e5ce3000 	strb	r3, [lr]
    6f98:	e5dc2000 	ldrb	r2, [ip]
    6f9c:	e5dee000 	ldrb	lr, [lr]
    6fa0:	e5d53000 	ldrb	r3, [r5]
    6fa4:	e35200ff 	cmp	r2, #255	; 0xff
    6fa8:	e083300e 	add	r3, r3, lr
    6fac:	e5c53000 	strb	r3, [r5]
    6fb0:	03a03000 	moveq	r3, #0	; 0x0
    6fb4:	05cc3000 	streqb	r3, [ip]
    6fb8:	e5dc3000 	ldrb	r3, [ip]
    6fbc:	e2832001 	add	r2, r3, #1	; 0x1
    6fc0:	e5cc2000 	strb	r2, [ip]
    6fc4:	e5dc2000 	ldrb	r2, [ip]
    6fc8:	e35200ff 	cmp	r2, #255	; 0xff
    6fcc:	e7c60001 	strb	r0, [r6, r1]
    6fd0:	e7c6e003 	strb	lr, [r6, r3]
    6fd4:	03a03000 	moveq	r3, #0	; 0x0
    6fd8:	05cc3000 	streqb	r3, [ip]
    6fdc:	e5dc1000 	ldrb	r1, [ip]
    6fe0:	e2813001 	add	r3, r1, #1	; 0x1
    6fe4:	e5cc3000 	strb	r3, [ip]
    6fe8:	e5dc3000 	ldrb	r3, [ip]
    6fec:	e5d52000 	ldrb	r2, [r5]
    6ff0:	e35300ff 	cmp	r3, #255	; 0xff
    6ff4:	024330ff 	subeq	r3, r3, #255	; 0xff
    6ff8:	e7c62001 	strb	r2, [r6, r1]
    6ffc:	05cc3000 	streqb	r3, [ip]
    7000:	e8bd40f0 	ldmia	sp!, {r4, r5, r6, r7, lr}
    7004:	e12fff1e 	bx	lr
    7008:	400004b5 	strmih	r0, [r0], -r5
    700c:	400007dc 	ldrmid	r0, [r0], -ip
    7010:	40000fd8 	ldrmid	r0, [r0], -r8
    7014:	40000003 	andmi	r0, r0, r3
    7018:	40000d2c 	andmi	r0, r0, ip, lsr #26
    701c:	40000d2b 	andmi	r0, r0, fp, lsr #26
    7020:	400004c0 	andmi	r0, r0, r0, asr #9
    7024:	40000a93 	mulmi	r0, r3, sl
    7028:	40000d2d 	andmi	r0, r0, sp, lsr #26
    702c:	40000d27 	andmi	r0, r0, r7, lsr #26
    7030:	40000c24 	andmi	r0, r0, r4, lsr #24
    7034:	40001158 	andmi	r1, r0, r8, asr r1
    7038:	400004b8 	strmih	r0, [r0], -r8
    703c:	400010a4 	andmi	r1, r0, r4, lsr #1
    7040:	400004ba 	strmih	r0, [r0], -sl
    7044:	400004d4 	ldrmid	r0, [r0], -r4
    7048:	400004b7 	strmih	r0, [r0], -r7
    704c:	400004b4 	strmih	r0, [r0], -r4

00007050 <navigation_task>:
    7050:	e1a0c00d 	mov	ip, sp
    7054:	e92dd8f0 	stmdb	sp!, {r4, r5, r6, r7, fp, ip, lr, pc}
    7058:	e59f3034 	ldr	r3, [pc, #52]	; 7094 <.text+0x3094>
    705c:	e24cb004 	sub	fp, ip, #4	; 0x4
    7060:	e24dd008 	sub	sp, sp, #8	; 0x8
    7064:	e5d31000 	ldrb	r1, [r3]
    7068:	e59f3028 	ldr	r3, [pc, #40]	; 7098 <.text+0x3098>
    706c:	e3a02003 	mov	r2, #3	; 0x3
    7070:	e3510003 	cmp	r1, #3	; 0x3
    7074:	e5c32000 	strb	r2, [r3]
    7078:	1a000001 	bne	7084 <navigation_task+0x34>
    707c:	eb002db9 	bl	12768 <nav_home>
    7080:	ea000017 	b	70e4 <.text+0x30e4>
    7084:	e3510004 	cmp	r1, #4	; 0x4
    7088:	1a000014 	bne	70e0 <.text+0x30e0>
    708c:	eb002fc8 	bl	12fb4 <nav_without_gps>
    7090:	ea000013 	b	70e4 <.text+0x30e4>
    7094:	40000003 	andmi	r0, r0, r3
    7098:	400004b8 	strmih	r0, [r0], -r8
    709c:	40001060 	andmi	r1, r0, r0, rrx
    70a0:	40001078 	andmi	r1, r0, r8, ror r0
    70a4:	40001118 	andmi	r1, r0, r8, lsl r1
    70a8:	40000d2c 	andmi	r0, r0, ip, lsr #26
    70ac:	40000a93 	mulmi	r0, r3, sl
    70b0:	40000d2d 	andmi	r0, r0, sp, lsr #26
    70b4:	40000d2b 	andmi	r0, r0, fp, lsr #26
    70b8:	40000d27 	andmi	r0, r0, r7, lsr #26
    70bc:	40000c24 	andmi	r0, r0, r4, lsr #24
    70c0:	400010a5 	andmi	r1, r0, r5, lsr #1
    70c4:	400010bc 	strmih	r1, [r0], -ip
    70c8:	40001080 	andmi	r1, r0, r0, lsl #1
    70cc:	400010b4 	strmih	r1, [r0], -r4
    70d0:	400921fb 	strmid	r2, [r9], -fp
    70d4:	54442d18 	strplb	r2, [r4], #-3352
    70d8:	409c2000 	addmis	r2, ip, r0
    70dc:	00000000 	andeq	r0, r0, r0
    70e0:	eb002de3 	bl	12874 <nav_update>
    70e4:	e51f3050 	ldr	r3, [pc, #-80]	; 709c <.text+0x309c>
    70e8:	e5930000 	ldr	r0, [r3]
    70ec:	eb004381 	bl	17ef8 <__fixsfsi>
    70f0:	e51f3058 	ldr	r3, [pc, #-88]	; 70a0 <.text+0x30a0>
    70f4:	e14b01be 	strh	r0, [fp, #-30]
    70f8:	e5930000 	ldr	r0, [r3]
    70fc:	eb00437d 	bl	17ef8 <__fixsfsi>
    7100:	e51f3064 	ldr	r3, [pc, #-100]	; 70a4 <.text+0x30a4>
    7104:	e14b02b0 	strh	r0, [fp, #-32]
    7108:	e5930000 	ldr	r0, [r3]
    710c:	eb00400a 	bl	1713c <__extendsfdf2>
    7110:	e24f2048 	sub	r2, pc, #72	; 0x48
    7114:	e892000c 	ldmia	r2, {r2, r3}
    7118:	eb0040b8 	bl	17400 <__divdf3>
    711c:	e24f204c 	sub	r2, pc, #76	; 0x4c
    7120:	e892000c 	ldmia	r2, {r2, r3}
    7124:	eb004017 	bl	17188 <__muldf3>
    7128:	eb00417e 	bl	17728 <__fixdfsi>
    712c:	e51f108c 	ldr	r1, [pc, #-140]	; 70a8 <.text+0x30a8>
    7130:	e51fe084 	ldr	lr, [pc, #-132]	; 70b4 <.text+0x30b4>
    7134:	e5d13000 	ldrb	r3, [r1]
    7138:	e5de2000 	ldrb	r2, [lr]
    713c:	e14b02b2 	strh	r0, [fp, #-34]
    7140:	e1520003 	cmp	r2, r3
    7144:	25d13000 	ldrcsb	r3, [r1]
    7148:	35d13000 	ldrccb	r3, [r1]
    714c:	20633002 	rsbcs	r3, r3, r2
    7150:	30623003 	rsbcc	r3, r2, r3
    7154:	226330ff 	rsbcs	r3, r3, #255	; 0xff
    7158:	e3530016 	cmp	r3, #22	; 0x16
    715c:	d51f20b8 	ldrle	r2, [pc, #-184]	; 70ac <.text+0x30ac>
    7160:	d5d23000 	ldrleb	r3, [r2]
    7164:	d2833001 	addle	r3, r3, #1	; 0x1
    7168:	d5c23000 	strleb	r3, [r2]
    716c:	da000133 	ble	7640 <.text+0x3640>
    7170:	e5de2000 	ldrb	r2, [lr]
    7174:	e2823001 	add	r3, r2, #1	; 0x1
    7178:	e5ce3000 	strb	r3, [lr]
    717c:	e5de3000 	ldrb	r3, [lr]
    7180:	e51f60d8 	ldr	r6, [pc, #-216]	; 70b0 <.text+0x30b0>
    7184:	e35300ff 	cmp	r3, #255	; 0xff
    7188:	e3e03066 	mvn	r3, #102	; 0x66
    718c:	e7c63002 	strb	r3, [r6, r2]
    7190:	02833067 	addeq	r3, r3, #103	; 0x67
    7194:	e51fc0e8 	ldr	ip, [pc, #-232]	; 70b4 <.text+0x30b4>
    7198:	05ce3000 	streqb	r3, [lr]
    719c:	e5dc2000 	ldrb	r2, [ip]
    71a0:	e2823001 	add	r3, r2, #1	; 0x1
    71a4:	e5cc3000 	strb	r3, [ip]
    71a8:	e5dc3000 	ldrb	r3, [ip]
    71ac:	e35300ff 	cmp	r3, #255	; 0xff
    71b0:	e3a03016 	mov	r3, #22	; 0x16
    71b4:	e7c63002 	strb	r3, [r6, r2]
    71b8:	02433016 	subeq	r3, r3, #22	; 0x16
    71bc:	05cc3000 	streqb	r3, [ip]
    71c0:	e5dc2000 	ldrb	r2, [ip]
    71c4:	e2823001 	add	r3, r2, #1	; 0x1
    71c8:	e5cc3000 	strb	r3, [ip]
    71cc:	e5dc3000 	ldrb	r3, [ip]
    71d0:	e51fe120 	ldr	lr, [pc, #-288]	; 70b8 <.text+0x30b8>
    71d4:	e51f4120 	ldr	r4, [pc, #-288]	; 70bc <.text+0x30bc>
    71d8:	e35300ff 	cmp	r3, #255	; 0xff
    71dc:	e3a0301d 	mov	r3, #29	; 0x1d
    71e0:	e5ce3000 	strb	r3, [lr]
    71e4:	e2833016 	add	r3, r3, #22	; 0x16
    71e8:	e5c43000 	strb	r3, [r4]
    71ec:	e243302c 	sub	r3, r3, #44	; 0x2c
    71f0:	e7c63002 	strb	r3, [r6, r2]
    71f4:	02433007 	subeq	r3, r3, #7	; 0x7
    71f8:	05cc3000 	streqb	r3, [ip]
    71fc:	e5dc2000 	ldrb	r2, [ip]
    7200:	e2823001 	add	r3, r2, #1	; 0x1
    7204:	e5cc3000 	strb	r3, [ip]
    7208:	e5dc3000 	ldrb	r3, [ip]
    720c:	e35300ff 	cmp	r3, #255	; 0xff
    7210:	e3a03027 	mov	r3, #39	; 0x27
    7214:	e5ce3000 	strb	r3, [lr]
    7218:	e2833033 	add	r3, r3, #51	; 0x33
    721c:	e5c43000 	strb	r3, [r4]
    7220:	e2433050 	sub	r3, r3, #80	; 0x50
    7224:	e7c63002 	strb	r3, [r6, r2]
    7228:	0243300a 	subeq	r3, r3, #10	; 0xa
    722c:	05cc3000 	streqb	r3, [ip]
    7230:	e51f3178 	ldr	r3, [pc, #-376]	; 70c0 <.text+0x30c0>
    7234:	e5dc1000 	ldrb	r1, [ip]
    7238:	e5d30000 	ldrb	r0, [r3]
    723c:	e2812001 	add	r2, r1, #1	; 0x1
    7240:	e2803027 	add	r3, r0, #39	; 0x27
    7244:	e5cc2000 	strb	r2, [ip]
    7248:	e5ce3000 	strb	r3, [lr]
    724c:	e5dc3000 	ldrb	r3, [ip]
    7250:	e5de2000 	ldrb	r2, [lr]
    7254:	e35300ff 	cmp	r3, #255	; 0xff
    7258:	e282305a 	add	r3, r2, #90	; 0x5a
    725c:	e5c43000 	strb	r3, [r4]
    7260:	03a03000 	moveq	r3, #0	; 0x0
    7264:	05cc3000 	streqb	r3, [ip]
    7268:	e7c60001 	strb	r0, [r6, r1]
    726c:	e51f31b0 	ldr	r3, [pc, #-432]	; 70c4 <.text+0x30c4>
    7270:	e5dc1000 	ldrb	r1, [ip]
    7274:	e5d30000 	ldrb	r0, [r3]
    7278:	e0803002 	add	r3, r0, r2
    727c:	e2812001 	add	r2, r1, #1	; 0x1
    7280:	e5ce3000 	strb	r3, [lr]
    7284:	e5cc2000 	strb	r2, [ip]
    7288:	e5dc3000 	ldrb	r3, [ip]
    728c:	e35300ff 	cmp	r3, #255	; 0xff
    7290:	024330ff 	subeq	r3, r3, #255	; 0xff
    7294:	05cc3000 	streqb	r3, [ip]
    7298:	e5de5000 	ldrb	r5, [lr]
    729c:	e5d42000 	ldrb	r2, [r4]
    72a0:	e7c60001 	strb	r0, [r6, r1]
    72a4:	e5dc0000 	ldrb	r0, [ip]
    72a8:	e0822005 	add	r2, r2, r5
    72ac:	e5c42000 	strb	r2, [r4]
    72b0:	e55b101e 	ldrb	r1, [fp, #-30]
    72b4:	e2802001 	add	r2, r0, #1	; 0x1
    72b8:	e5cc2000 	strb	r2, [ip]
    72bc:	e0813005 	add	r3, r1, r5
    72c0:	e5ce3000 	strb	r3, [lr]
    72c4:	e5dc3000 	ldrb	r3, [ip]
    72c8:	e35300ff 	cmp	r3, #255	; 0xff
    72cc:	024330ff 	subeq	r3, r3, #255	; 0xff
    72d0:	05cc3000 	streqb	r3, [ip]
    72d4:	e5de5000 	ldrb	r5, [lr]
    72d8:	e5d42000 	ldrb	r2, [r4]
    72dc:	e7c61000 	strb	r1, [r6, r0]
    72e0:	e5dc0000 	ldrb	r0, [ip]
    72e4:	e0822005 	add	r2, r2, r5
    72e8:	e55b101d 	ldrb	r1, [fp, #-29]
    72ec:	e5c42000 	strb	r2, [r4]
    72f0:	e2802001 	add	r2, r0, #1	; 0x1
    72f4:	e5cc2000 	strb	r2, [ip]
    72f8:	e0813005 	add	r3, r1, r5
    72fc:	e5ce3000 	strb	r3, [lr]
    7300:	e5dc3000 	ldrb	r3, [ip]
    7304:	e35300ff 	cmp	r3, #255	; 0xff
    7308:	024330ff 	subeq	r3, r3, #255	; 0xff
    730c:	05cc3000 	streqb	r3, [ip]
    7310:	e5de5000 	ldrb	r5, [lr]
    7314:	e5d42000 	ldrb	r2, [r4]
    7318:	e7c61000 	strb	r1, [r6, r0]
    731c:	e5dc0000 	ldrb	r0, [ip]
    7320:	e55b1020 	ldrb	r1, [fp, #-32]
    7324:	e0822005 	add	r2, r2, r5
    7328:	e5c42000 	strb	r2, [r4]
    732c:	e2802001 	add	r2, r0, #1	; 0x1
    7330:	e0813005 	add	r3, r1, r5
    7334:	e5cc2000 	strb	r2, [ip]
    7338:	e5ce3000 	strb	r3, [lr]
    733c:	e5dc3000 	ldrb	r3, [ip]
    7340:	e5de5000 	ldrb	r5, [lr]
    7344:	e5d42000 	ldrb	r2, [r4]
    7348:	e35300ff 	cmp	r3, #255	; 0xff
    734c:	e0822005 	add	r2, r2, r5
    7350:	024330ff 	subeq	r3, r3, #255	; 0xff
    7354:	e5c42000 	strb	r2, [r4]
    7358:	05cc3000 	streqb	r3, [ip]
    735c:	e7c61000 	strb	r1, [r6, r0]
    7360:	e5dc0000 	ldrb	r0, [ip]
    7364:	e55b101f 	ldrb	r1, [fp, #-31]
    7368:	e2802001 	add	r2, r0, #1	; 0x1
    736c:	e5cc2000 	strb	r2, [ip]
    7370:	e0813005 	add	r3, r1, r5
    7374:	e5ce3000 	strb	r3, [lr]
    7378:	e5dc3000 	ldrb	r3, [ip]
    737c:	e35300ff 	cmp	r3, #255	; 0xff
    7380:	024330ff 	subeq	r3, r3, #255	; 0xff
    7384:	05cc3000 	streqb	r3, [ip]
    7388:	e5de5000 	ldrb	r5, [lr]
    738c:	e5d42000 	ldrb	r2, [r4]
    7390:	e7c61000 	strb	r1, [r6, r0]
    7394:	e5dc0000 	ldrb	r0, [ip]
    7398:	e0822005 	add	r2, r2, r5
    739c:	e5c42000 	strb	r2, [r4]
    73a0:	e55b1022 	ldrb	r1, [fp, #-34]
    73a4:	e2802001 	add	r2, r0, #1	; 0x1
    73a8:	e5cc2000 	strb	r2, [ip]
    73ac:	e0813005 	add	r3, r1, r5
    73b0:	e5ce3000 	strb	r3, [lr]
    73b4:	e5dc3000 	ldrb	r3, [ip]
    73b8:	e35300ff 	cmp	r3, #255	; 0xff
    73bc:	024330ff 	subeq	r3, r3, #255	; 0xff
    73c0:	05cc3000 	streqb	r3, [ip]
    73c4:	e5de5000 	ldrb	r5, [lr]
    73c8:	e5d42000 	ldrb	r2, [r4]
    73cc:	e7c61000 	strb	r1, [r6, r0]
    73d0:	e5dc0000 	ldrb	r0, [ip]
    73d4:	e55b1021 	ldrb	r1, [fp, #-33]
    73d8:	e0822005 	add	r2, r2, r5
    73dc:	e5c42000 	strb	r2, [r4]
    73e0:	e2802001 	add	r2, r0, #1	; 0x1
    73e4:	e5cc2000 	strb	r2, [ip]
    73e8:	e0813005 	add	r3, r1, r5
    73ec:	e5ce3000 	strb	r3, [lr]
    73f0:	e5dc3000 	ldrb	r3, [ip]
    73f4:	e5de5000 	ldrb	r5, [lr]
    73f8:	e5d42000 	ldrb	r2, [r4]
    73fc:	e35300ff 	cmp	r3, #255	; 0xff
    7400:	e0822005 	add	r2, r2, r5
    7404:	024330ff 	subeq	r3, r3, #255	; 0xff
    7408:	05cc3000 	streqb	r3, [ip]
    740c:	e51f734c 	ldr	r7, [pc, #-844]	; 70c8 <.text+0x30c8>
    7410:	e5c42000 	strb	r2, [r4]
    7414:	e7c61000 	strb	r1, [r6, r0]
    7418:	e5dc0000 	ldrb	r0, [ip]
    741c:	e5d71000 	ldrb	r1, [r7]
    7420:	e2802001 	add	r2, r0, #1	; 0x1
    7424:	e0813005 	add	r3, r1, r5
    7428:	e5ce3000 	strb	r3, [lr]
    742c:	e5cc2000 	strb	r2, [ip]
    7430:	e5dc3000 	ldrb	r3, [ip]
    7434:	e35300ff 	cmp	r3, #255	; 0xff
    7438:	e5de5000 	ldrb	r5, [lr]
    743c:	e5d42000 	ldrb	r2, [r4]
    7440:	024330ff 	subeq	r3, r3, #255	; 0xff
    7444:	05cc3000 	streqb	r3, [ip]
    7448:	e0822005 	add	r2, r2, r5
    744c:	e5c42000 	strb	r2, [r4]
    7450:	e7c61000 	strb	r1, [r6, r0]
    7454:	e5dc0000 	ldrb	r0, [ip]
    7458:	e5d71001 	ldrb	r1, [r7, #1]
    745c:	e2802001 	add	r2, r0, #1	; 0x1
    7460:	e5cc2000 	strb	r2, [ip]
    7464:	e0813005 	add	r3, r1, r5
    7468:	e5ce3000 	strb	r3, [lr]
    746c:	e5dc3000 	ldrb	r3, [ip]
    7470:	e35300ff 	cmp	r3, #255	; 0xff
    7474:	e5de5000 	ldrb	r5, [lr]
    7478:	e5d42000 	ldrb	r2, [r4]
    747c:	024330ff 	subeq	r3, r3, #255	; 0xff
    7480:	05cc3000 	streqb	r3, [ip]
    7484:	e0822005 	add	r2, r2, r5
    7488:	e5c42000 	strb	r2, [r4]
    748c:	e7c61000 	strb	r1, [r6, r0]
    7490:	e5dc0000 	ldrb	r0, [ip]
    7494:	e5d71002 	ldrb	r1, [r7, #2]
    7498:	e2802001 	add	r2, r0, #1	; 0x1
    749c:	e5cc2000 	strb	r2, [ip]
    74a0:	e0813005 	add	r3, r1, r5
    74a4:	e5ce3000 	strb	r3, [lr]
    74a8:	e5dc3000 	ldrb	r3, [ip]
    74ac:	e5de5000 	ldrb	r5, [lr]
    74b0:	e35300ff 	cmp	r3, #255	; 0xff
    74b4:	e5d42000 	ldrb	r2, [r4]
    74b8:	024330ff 	subeq	r3, r3, #255	; 0xff
    74bc:	05cc3000 	streqb	r3, [ip]
    74c0:	e0822005 	add	r2, r2, r5
    74c4:	e5c42000 	strb	r2, [r4]
    74c8:	e7c61000 	strb	r1, [r6, r0]
    74cc:	e5dc1000 	ldrb	r1, [ip]
    74d0:	e5d70003 	ldrb	r0, [r7, #3]
    74d4:	e2812001 	add	r2, r1, #1	; 0x1
    74d8:	e0803005 	add	r3, r0, r5
    74dc:	e5cc2000 	strb	r2, [ip]
    74e0:	e5ce3000 	strb	r3, [lr]
    74e4:	e5dc3000 	ldrb	r3, [ip]
    74e8:	e5de5000 	ldrb	r5, [lr]
    74ec:	e5d42000 	ldrb	r2, [r4]
    74f0:	e35300ff 	cmp	r3, #255	; 0xff
    74f4:	e0822005 	add	r2, r2, r5
    74f8:	024330ff 	subeq	r3, r3, #255	; 0xff
    74fc:	e5c42000 	strb	r2, [r4]
    7500:	05cc3000 	streqb	r3, [ip]
    7504:	e7c60001 	strb	r0, [r6, r1]
    7508:	e51f7444 	ldr	r7, [pc, #-1092]	; 70cc <.text+0x30cc>
    750c:	e5dc0000 	ldrb	r0, [ip]
    7510:	e5d71000 	ldrb	r1, [r7]
    7514:	e2802001 	add	r2, r0, #1	; 0x1
    7518:	e5cc2000 	strb	r2, [ip]
    751c:	e0813005 	add	r3, r1, r5
    7520:	e5ce3000 	strb	r3, [lr]
    7524:	e5dc3000 	ldrb	r3, [ip]
    7528:	e35300ff 	cmp	r3, #255	; 0xff
    752c:	e5de5000 	ldrb	r5, [lr]
    7530:	e5d42000 	ldrb	r2, [r4]
    7534:	024330ff 	subeq	r3, r3, #255	; 0xff
    7538:	05cc3000 	streqb	r3, [ip]
    753c:	e0822005 	add	r2, r2, r5
    7540:	e5c42000 	strb	r2, [r4]
    7544:	e7c61000 	strb	r1, [r6, r0]
    7548:	e5dc0000 	ldrb	r0, [ip]
    754c:	e5d71001 	ldrb	r1, [r7, #1]
    7550:	e2802001 	add	r2, r0, #1	; 0x1
    7554:	e5cc2000 	strb	r2, [ip]
    7558:	e0813005 	add	r3, r1, r5
    755c:	e5ce3000 	strb	r3, [lr]
    7560:	e5dc3000 	ldrb	r3, [ip]
    7564:	e5de5000 	ldrb	r5, [lr]
    7568:	e5d42000 	ldrb	r2, [r4]
    756c:	e35300ff 	cmp	r3, #255	; 0xff
    7570:	024330ff 	subeq	r3, r3, #255	; 0xff
    7574:	05cc3000 	streqb	r3, [ip]
    7578:	e0822005 	add	r2, r2, r5
    757c:	e5c42000 	strb	r2, [r4]
    7580:	e7c61000 	strb	r1, [r6, r0]
    7584:	e5dc0000 	ldrb	r0, [ip]
    7588:	e5d71002 	ldrb	r1, [r7, #2]
    758c:	e2802001 	add	r2, r0, #1	; 0x1
    7590:	e5cc2000 	strb	r2, [ip]
    7594:	e0813005 	add	r3, r1, r5
    7598:	e5ce3000 	strb	r3, [lr]
    759c:	e5dc3000 	ldrb	r3, [ip]
    75a0:	e5de5000 	ldrb	r5, [lr]
    75a4:	e5d42000 	ldrb	r2, [r4]
    75a8:	e35300ff 	cmp	r3, #255	; 0xff
    75ac:	024330ff 	subeq	r3, r3, #255	; 0xff
    75b0:	e0822005 	add	r2, r2, r5
    75b4:	05cc3000 	streqb	r3, [ip]
    75b8:	e5c42000 	strb	r2, [r4]
    75bc:	e7c61000 	strb	r1, [r6, r0]
    75c0:	e5dc1000 	ldrb	r1, [ip]
    75c4:	e5d70003 	ldrb	r0, [r7, #3]
    75c8:	e2812001 	add	r2, r1, #1	; 0x1
    75cc:	e0803005 	add	r3, r0, r5
    75d0:	e5ce3000 	strb	r3, [lr]
    75d4:	e5cc2000 	strb	r2, [ip]
    75d8:	e5dee000 	ldrb	lr, [lr]
    75dc:	e5dc2000 	ldrb	r2, [ip]
    75e0:	e5d43000 	ldrb	r3, [r4]
    75e4:	e35200ff 	cmp	r2, #255	; 0xff
    75e8:	e083300e 	add	r3, r3, lr
    75ec:	e5c43000 	strb	r3, [r4]
    75f0:	03a03000 	moveq	r3, #0	; 0x0
    75f4:	05cc3000 	streqb	r3, [ip]
    75f8:	e5dc3000 	ldrb	r3, [ip]
    75fc:	e2832001 	add	r2, r3, #1	; 0x1
    7600:	e5cc2000 	strb	r2, [ip]
    7604:	e5dc2000 	ldrb	r2, [ip]
    7608:	e35200ff 	cmp	r2, #255	; 0xff
    760c:	e7c60001 	strb	r0, [r6, r1]
    7610:	e7c6e003 	strb	lr, [r6, r3]
    7614:	03a03000 	moveq	r3, #0	; 0x0
    7618:	05cc3000 	streqb	r3, [ip]
    761c:	e5dc1000 	ldrb	r1, [ip]
    7620:	e2813001 	add	r3, r1, #1	; 0x1
    7624:	e5cc3000 	strb	r3, [ip]
    7628:	e5dc3000 	ldrb	r3, [ip]
    762c:	e5d42000 	ldrb	r2, [r4]
    7630:	e35300ff 	cmp	r3, #255	; 0xff
    7634:	024330ff 	subeq	r3, r3, #255	; 0xff
    7638:	e7c62001 	strb	r2, [r6, r1]
    763c:	05cc3000 	streqb	r3, [ip]
    7640:	e24bd01c 	sub	sp, fp, #28	; 0x1c
    7644:	e89d68f0 	ldmia	sp, {r4, r5, r6, r7, fp, sp, lr}
    7648:	e12fff1e 	bx	lr

0000764c <constraint_task>:
    764c:	e12fff1e 	bx	lr

00007650 <guidance_task>:
    7650:	e1a0c00d 	mov	ip, sp
    7654:	e92dd9f0 	stmdb	sp!, {r4, r5, r6, r7, r8, fp, ip, lr, pc}
    7658:	e59f41c8 	ldr	r4, [pc, #456]	; 7828 <.text+0x3828>
    765c:	e5d43000 	ldrb	r3, [r4]
    7660:	e3530003 	cmp	r3, #3	; 0x3
    7664:	e24cb004 	sub	fp, ip, #4	; 0x4
    7668:	0b0034c1 	bleq	14974 <v_ctl_altitude_loop>
    766c:	e59f31b8 	ldr	r3, [pc, #440]	; 782c <.text+0x382c>
    7670:	e5d33000 	ldrb	r3, [r3]
    7674:	e2433002 	sub	r3, r3, #2	; 0x2
    7678:	e3530002 	cmp	r3, #2	; 0x2
    767c:	8a000050 	bhi	77c4 <guidance_task+0x174>
    7680:	e59f31a8 	ldr	r3, [pc, #424]	; 7830 <.text+0x3830>
    7684:	e5d33000 	ldrb	r3, [r3]
    7688:	e3530002 	cmp	r3, #2	; 0x2
    768c:	e59f31a0 	ldr	r3, [pc, #416]	; 7834 <.text+0x3834>
    7690:	e3a08000 	mov	r8, #0	; 0x0
    7694:	e5c38000 	strb	r8, [r3]
    7698:	8b0031f9 	blhi	13e84 <h_ctl_course_loop>
    769c:	e5d43000 	ldrb	r3, [r4]
    76a0:	e3530001 	cmp	r3, #1	; 0x1
    76a4:	8b0034f4 	blhi	14a7c <v_ctl_climb_loop>
    76a8:	e5d43000 	ldrb	r3, [r4]
    76ac:	e3530001 	cmp	r3, #1	; 0x1
    76b0:	059f2180 	ldreq	r2, [pc, #384]	; 7838 <.text+0x3838>
    76b4:	059f3180 	ldreq	r3, [pc, #384]	; 783c <.text+0x383c>
    76b8:	01d220b0 	ldreqh	r2, [r2]
    76bc:	e59f7178 	ldr	r7, [pc, #376]	; 783c <.text+0x383c>
    76c0:	01c320b0 	streqh	r2, [r3]
    76c4:	e1d700f0 	ldrsh	r0, [r7]
    76c8:	eb003e90 	bl	17110 <__floatsidf>
    76cc:	e59f316c 	ldr	r3, [pc, #364]	; 7840 <.text+0x3840>
    76d0:	e1d340d0 	ldrsb	r4, [r3]
    76d4:	e1a06001 	mov	r6, r1
    76d8:	e1a05000 	mov	r5, r0
    76dc:	e1a00004 	mov	r0, r4
    76e0:	eb0040fe 	bl	17ae0 <__floatsisf>
    76e4:	e3540000 	cmp	r4, #0	; 0x0
    76e8:	b59f1154 	ldrlt	r1, [pc, #340]	; 7844 <.text+0x3844>
    76ec:	bb004089 	bllt	17918 <__addsf3>
    76f0:	eb003e91 	bl	1713c <__extendsfdf2>
    76f4:	e1a03001 	mov	r3, r1
    76f8:	e1a02000 	mov	r2, r0
    76fc:	e28f0f45 	add	r0, pc, #276	; 0x114
    7700:	e8900003 	ldmia	r0, {r0, r1}
    7704:	eb003f3d 	bl	17400 <__divdf3>
    7708:	e1a03001 	mov	r3, r1
    770c:	e1a02000 	mov	r2, r0
    7710:	e1a01006 	mov	r1, r6
    7714:	e1a00005 	mov	r0, r5
    7718:	eb003e9a 	bl	17188 <__muldf3>
    771c:	eb004001 	bl	17728 <__fixdfsi>
    7720:	e1c700b0 	strh	r0, [r7]
    7724:	e1d730f0 	ldrsh	r3, [r7]
    7728:	e3530000 	cmp	r3, #0	; 0x0
    772c:	e1a0c007 	mov	ip, r7
    7730:	b1a02008 	movlt	r2, r8
    7734:	ba000002 	blt	7744 <guidance_task+0xf4>
    7738:	e3530d96 	cmp	r3, #9600	; 0x2580
    773c:	b1a02003 	movlt	r2, r3
    7740:	a3a02d96 	movge	r2, #9600	; 0x2580
    7744:	e59f30fc 	ldr	r3, [pc, #252]	; 7848 <.text+0x3848>
    7748:	e59f60fc 	ldr	r6, [pc, #252]	; 784c <.text+0x384c>
    774c:	e5934000 	ldr	r4, [r3]
    7750:	e3a0143f 	mov	r1, #1056964608	; 0x3f000000
    7754:	e1a00004 	mov	r0, r4
    7758:	e1cc20b0 	strh	r2, [ip]
    775c:	e5864000 	str	r4, [r6]
    7760:	eb0041bd 	bl	17e5c <__gesf2>
    7764:	e3500000 	cmp	r0, #0	; 0x0
    7768:	c3a0343f 	movgt	r3, #1056964608	; 0x3f000000
    776c:	ca000005 	bgt	7788 <guidance_task+0x138>
    7770:	e1a00004 	mov	r0, r4
    7774:	e3a014bf 	mov	r1, #-1090519040	; 0xbf000000
    7778:	eb0041b9 	bl	17e64 <__lesf2>
    777c:	e3500000 	cmp	r0, #0	; 0x0
    7780:	aa000001 	bge	778c <guidance_task+0x13c>
    7784:	e3a034bf 	mov	r3, #-1090519040	; 0xbf000000
    7788:	e5863000 	str	r3, [r6]
    778c:	e59f30bc 	ldr	r3, [pc, #188]	; 7850 <.text+0x3850>
    7790:	e5d33000 	ldrb	r3, [r3]
    7794:	e3530000 	cmp	r3, #0	; 0x0
    7798:	1a000007 	bne	77bc <guidance_task+0x16c>
    779c:	e59f30b0 	ldr	r3, [pc, #176]	; 7854 <.text+0x3854>
    77a0:	e1d330b0 	ldrh	r3, [r3]
    77a4:	e3530000 	cmp	r3, #0	; 0x0
    77a8:	1a000005 	bne	77c4 <guidance_task+0x174>
    77ac:	e59f30a4 	ldr	r3, [pc, #164]	; 7858 <.text+0x3858>
    77b0:	e5d33000 	ldrb	r3, [r3]
    77b4:	e3530000 	cmp	r3, #0	; 0x0
    77b8:	1a000001 	bne	77c4 <guidance_task+0x174>
    77bc:	e3a03000 	mov	r3, #0	; 0x0
    77c0:	e1c730b0 	strh	r3, [r7]
    77c4:	e59f6090 	ldr	r6, [pc, #144]	; 785c <.text+0x385c>
    77c8:	e5960000 	ldr	r0, [r6]
    77cc:	eb003e5a 	bl	1713c <__extendsfdf2>
    77d0:	e59f3064 	ldr	r3, [pc, #100]	; 783c <.text+0x383c>
    77d4:	e1a05001 	mov	r5, r1
    77d8:	e1a04000 	mov	r4, r0
    77dc:	e1d300f0 	ldrsh	r0, [r3]
    77e0:	eb0040be 	bl	17ae0 <__floatsisf>
    77e4:	eb003e54 	bl	1713c <__extendsfdf2>
    77e8:	e28f2030 	add	r2, pc, #48	; 0x30
    77ec:	e892000c 	ldmia	r2, {r2, r3}
    77f0:	eb003e64 	bl	17188 <__muldf3>
    77f4:	e1a03001 	mov	r3, r1
    77f8:	e1a02000 	mov	r2, r0
    77fc:	e1a01005 	mov	r1, r5
    7800:	e1a00004 	mov	r0, r4
    7804:	eb003d76 	bl	16de4 <__adddf3>
    7808:	eb004003 	bl	1781c <__truncdfsf2>
    780c:	e5860000 	str	r0, [r6]
    7810:	e89d69f0 	ldmia	sp, {r4, r5, r6, r7, r8, fp, sp, lr}
    7814:	e12fff1e 	bx	lr
    7818:	405bc000 	submis	ip, fp, r0
    781c:	00000000 	andeq	r0, r0, r0
    7820:	3ef77bd5 	mrccc	11, 7, r7, cr7, cr5, {6}
    7824:	f29ea6d8 	addnvs	sl, lr, #226492416	; 0xd800000
    7828:	40001158 	andmi	r1, r0, r8, asr r1
    782c:	40000003 	andmi	r0, r0, r3
    7830:	400004b8 	strmih	r0, [r0], -r8
    7834:	400010e0 	andmi	r1, r0, r0, ror #1
    7838:	40001094 	mulmi	r0, r4, r0
    783c:	40001170 	andmi	r1, r0, r0, ror r1
    7840:	40000a20 	andmi	r0, r0, r0, lsr #20
    7844:	43800000 	orrmi	r0, r0, #0	; 0x0
    7848:	40000668 	andmi	r0, r0, r8, ror #12
    784c:	40001110 	andmi	r1, r0, r0, lsl r1
    7850:	400004b6 	strmih	r0, [r0], -r6
    7854:	40001034 	andmi	r1, r0, r4, lsr r0
    7858:	400004b5 	strmih	r0, [r0], -r5
    785c:	40000a1c 	andmi	r0, r0, ip, lsl sl

00007860 <controllability_task>:
    7860:	e12fff1e 	bx	lr

00007864 <statistics_task>:
    7864:	e12fff1e 	bx	lr

00007868 <periodic_task_ap>:
    7868:	e1a0c00d 	mov	ip, sp
    786c:	e92ddff0 	stmdb	sp!, {r4, r5, r6, r7, r8, r9, sl, fp, ip, lr, pc}
    7870:	e59f2628 	ldr	r2, [pc, #1576]	; 7ea0 <.text+0x3ea0>
    7874:	e24cb004 	sub	fp, ip, #4	; 0x4
    7878:	e24dd01c 	sub	sp, sp, #28	; 0x1c
    787c:	e5d23000 	ldrb	r3, [r2]
    7880:	e2833001 	add	r3, r3, #1	; 0x1
    7884:	e5c23000 	strb	r3, [r2]
    7888:	e5d23000 	ldrb	r3, [r2]
    788c:	e3530002 	cmp	r3, #2	; 0x2
    7890:	83a03000 	movhi	r3, #0	; 0x0
    7894:	85c23000 	strhib	r3, [r2]
    7898:	e59f2604 	ldr	r2, [pc, #1540]	; 7ea4 <.text+0x3ea4>
    789c:	e5d23000 	ldrb	r3, [r2]
    78a0:	e2833001 	add	r3, r3, #1	; 0x1
    78a4:	e5c23000 	strb	r3, [r2]
    78a8:	e5d23000 	ldrb	r3, [r2]
    78ac:	e3530005 	cmp	r3, #5	; 0x5
    78b0:	83a03000 	movhi	r3, #0	; 0x0
    78b4:	85c23000 	strhib	r3, [r2]
    78b8:	e59f25e8 	ldr	r2, [pc, #1512]	; 7ea8 <.text+0x3ea8>
    78bc:	e5d23000 	ldrb	r3, [r2]
    78c0:	e2833001 	add	r3, r3, #1	; 0x1
    78c4:	e5c23000 	strb	r3, [r2]
    78c8:	e5d23000 	ldrb	r3, [r2]
    78cc:	e353000e 	cmp	r3, #14	; 0xe
    78d0:	83a03000 	movhi	r3, #0	; 0x0
    78d4:	85c23000 	strhib	r3, [r2]
    78d8:	e59f25cc 	ldr	r2, [pc, #1484]	; 7eac <.text+0x3eac>
    78dc:	e5d23000 	ldrb	r3, [r2]
    78e0:	e2833001 	add	r3, r3, #1	; 0x1
    78e4:	e5c23000 	strb	r3, [r2]
    78e8:	e5d23000 	ldrb	r3, [r2]
    78ec:	e59f75bc 	ldr	r7, [pc, #1468]	; 7eb0 <.text+0x3eb0>
    78f0:	e353003c 	cmp	r3, #60	; 0x3c
    78f4:	83a03000 	movhi	r3, #0	; 0x0
    78f8:	85c23000 	strhib	r3, [r2]
    78fc:	e5d73000 	ldrb	r3, [r7]
    7900:	e3530000 	cmp	r3, #0	; 0x0
    7904:	0a000071 	beq	7ad0 <periodic_task_ap+0x268>
    7908:	e59f15fc 	ldr	r1, [pc, #1532]	; 7f0c <.text+0x3f0c>
    790c:	e59f0600 	ldr	r0, [pc, #1536]	; 7f14 <.text+0x3f14>
    7910:	e5d13000 	ldrb	r3, [r1]
    7914:	e5d02000 	ldrb	r2, [r0]
    7918:	e1520003 	cmp	r2, r3
    791c:	25d13000 	ldrcsb	r3, [r1]
    7920:	35d13000 	ldrccb	r3, [r1]
    7924:	20633002 	rsbcs	r3, r3, r2
    7928:	30623003 	rsbcc	r3, r2, r3
    792c:	226330ff 	rsbcs	r3, r3, #255	; 0xff
    7930:	e3530008 	cmp	r3, #8	; 0x8
    7934:	d59f25b4 	ldrle	r2, [pc, #1460]	; 7ef0 <.text+0x3ef0>
    7938:	d5d23000 	ldrleb	r3, [r2]
    793c:	d2833001 	addle	r3, r3, #1	; 0x1
    7940:	d5c23000 	strleb	r3, [r2]
    7944:	da00005e 	ble	7ac4 <periodic_task_ap+0x25c>
    7948:	e5d02000 	ldrb	r2, [r0]
    794c:	e2823001 	add	r3, r2, #1	; 0x1
    7950:	e5c03000 	strb	r3, [r0]
    7954:	e5d03000 	ldrb	r3, [r0]
    7958:	e59f45b0 	ldr	r4, [pc, #1456]	; 7f10 <.text+0x3f10>
    795c:	e35300ff 	cmp	r3, #255	; 0xff
    7960:	e3e03066 	mvn	r3, #102	; 0x66
    7964:	e7c43002 	strb	r3, [r4, r2]
    7968:	02833067 	addeq	r3, r3, #103	; 0x67
    796c:	e59fc5a0 	ldr	ip, [pc, #1440]	; 7f14 <.text+0x3f14>
    7970:	05c03000 	streqb	r3, [r0]
    7974:	e5dc2000 	ldrb	r2, [ip]
    7978:	e2823001 	add	r3, r2, #1	; 0x1
    797c:	e5cc3000 	strb	r3, [ip]
    7980:	e5dc3000 	ldrb	r3, [ip]
    7984:	e35300ff 	cmp	r3, #255	; 0xff
    7988:	e3a03008 	mov	r3, #8	; 0x8
    798c:	e7c43002 	strb	r3, [r4, r2]
    7990:	02433008 	subeq	r3, r3, #8	; 0x8
    7994:	05cc3000 	streqb	r3, [ip]
    7998:	e5dc2000 	ldrb	r2, [ip]
    799c:	e2823001 	add	r3, r2, #1	; 0x1
    79a0:	e5cc3000 	strb	r3, [ip]
    79a4:	e5dc3000 	ldrb	r3, [ip]
    79a8:	e59fe568 	ldr	lr, [pc, #1384]	; 7f18 <.text+0x3f18>
    79ac:	e59f5568 	ldr	r5, [pc, #1384]	; 7f1c <.text+0x3f1c>
    79b0:	e35300ff 	cmp	r3, #255	; 0xff
    79b4:	e3a0300f 	mov	r3, #15	; 0xf
    79b8:	e5ce3000 	strb	r3, [lr]
    79bc:	e2833008 	add	r3, r3, #8	; 0x8
    79c0:	e5c53000 	strb	r3, [r5]
    79c4:	e2433010 	sub	r3, r3, #16	; 0x10
    79c8:	e7c43002 	strb	r3, [r4, r2]
    79cc:	02433007 	subeq	r3, r3, #7	; 0x7
    79d0:	05cc3000 	streqb	r3, [ip]
    79d4:	e5dc2000 	ldrb	r2, [ip]
    79d8:	e2823001 	add	r3, r2, #1	; 0x1
    79dc:	e5cc3000 	strb	r3, [ip]
    79e0:	e5dc3000 	ldrb	r3, [ip]
    79e4:	e35300ff 	cmp	r3, #255	; 0xff
    79e8:	e3a03010 	mov	r3, #16	; 0x10
    79ec:	e5ce3000 	strb	r3, [lr]
    79f0:	e2833017 	add	r3, r3, #23	; 0x17
    79f4:	e5c53000 	strb	r3, [r5]
    79f8:	e2433026 	sub	r3, r3, #38	; 0x26
    79fc:	e7c43002 	strb	r3, [r4, r2]
    7a00:	02433001 	subeq	r3, r3, #1	; 0x1
    7a04:	05cc3000 	streqb	r3, [ip]
    7a08:	e59f64a4 	ldr	r6, [pc, #1188]	; 7eb4 <.text+0x3eb4>
    7a0c:	e5dc0000 	ldrb	r0, [ip]
    7a10:	e5d61000 	ldrb	r1, [r6]
    7a14:	e2802001 	add	r2, r0, #1	; 0x1
    7a18:	e2813010 	add	r3, r1, #16	; 0x10
    7a1c:	e5cc2000 	strb	r2, [ip]
    7a20:	e5ce3000 	strb	r3, [lr]
    7a24:	e5dc3000 	ldrb	r3, [ip]
    7a28:	e5de2000 	ldrb	r2, [lr]
    7a2c:	e35300ff 	cmp	r3, #255	; 0xff
    7a30:	e2823027 	add	r3, r2, #39	; 0x27
    7a34:	e5c53000 	strb	r3, [r5]
    7a38:	03a03000 	moveq	r3, #0	; 0x0
    7a3c:	05cc3000 	streqb	r3, [ip]
    7a40:	e7c41000 	strb	r1, [r4, r0]
    7a44:	e5dc1000 	ldrb	r1, [ip]
    7a48:	e5d60001 	ldrb	r0, [r6, #1]
    7a4c:	e0803002 	add	r3, r0, r2
    7a50:	e2812001 	add	r2, r1, #1	; 0x1
    7a54:	e5ce3000 	strb	r3, [lr]
    7a58:	e5cc2000 	strb	r2, [ip]
    7a5c:	e5dee000 	ldrb	lr, [lr]
    7a60:	e5dc2000 	ldrb	r2, [ip]
    7a64:	e5d53000 	ldrb	r3, [r5]
    7a68:	e35200ff 	cmp	r2, #255	; 0xff
    7a6c:	e083300e 	add	r3, r3, lr
    7a70:	e5c53000 	strb	r3, [r5]
    7a74:	03a03000 	moveq	r3, #0	; 0x0
    7a78:	05cc3000 	streqb	r3, [ip]
    7a7c:	e5dc3000 	ldrb	r3, [ip]
    7a80:	e2832001 	add	r2, r3, #1	; 0x1
    7a84:	e5cc2000 	strb	r2, [ip]
    7a88:	e5dc2000 	ldrb	r2, [ip]
    7a8c:	e35200ff 	cmp	r2, #255	; 0xff
    7a90:	e7c40001 	strb	r0, [r4, r1]
    7a94:	e7c4e003 	strb	lr, [r4, r3]
    7a98:	03a03000 	moveq	r3, #0	; 0x0
    7a9c:	05cc3000 	streqb	r3, [ip]
    7aa0:	e5dc1000 	ldrb	r1, [ip]
    7aa4:	e2813001 	add	r3, r1, #1	; 0x1
    7aa8:	e5cc3000 	strb	r3, [ip]
    7aac:	e5dc3000 	ldrb	r3, [ip]
    7ab0:	e5d52000 	ldrb	r2, [r5]
    7ab4:	e35300ff 	cmp	r3, #255	; 0xff
    7ab8:	024330ff 	subeq	r3, r3, #255	; 0xff
    7abc:	e7c42001 	strb	r2, [r4, r1]
    7ac0:	05cc3000 	streqb	r3, [ip]
    7ac4:	e3a03000 	mov	r3, #0	; 0x0
    7ac8:	e5c73000 	strb	r3, [r7]
    7acc:	ea000ff1 	b	ba98 <.text+0x7a98>
    7ad0:	e59f33e0 	ldr	r3, [pc, #992]	; 7eb8 <.text+0x3eb8>
    7ad4:	e5d31000 	ldrb	r1, [r3]
    7ad8:	e3510000 	cmp	r1, #0	; 0x0
    7adc:	1a000e81 	bne	b4e8 <.text+0x74e8>
    7ae0:	e59f93d4 	ldr	r9, [pc, #980]	; 7ebc <.text+0x3ebc>
    7ae4:	e5d93000 	ldrb	r3, [r9]
    7ae8:	e2833001 	add	r3, r3, #1	; 0x1
    7aec:	e5c93000 	strb	r3, [r9]
    7af0:	e59f2404 	ldr	r2, [pc, #1028]	; 7efc <.text+0x3efc>
    7af4:	e5d93000 	ldrb	r3, [r9]
    7af8:	e353001d 	cmp	r3, #29	; 0x1d
    7afc:	e5d23000 	ldrb	r3, [r2]
    7b00:	e2833001 	add	r3, r3, #1	; 0x1
    7b04:	e5c23000 	strb	r3, [r2]
    7b08:	e5d23000 	ldrb	r3, [r2]
    7b0c:	85c91000 	strhib	r1, [r9]
    7b10:	e353003b 	cmp	r3, #59	; 0x3b
    7b14:	85c21000 	strhib	r1, [r2]
    7b18:	e59f23a0 	ldr	r2, [pc, #928]	; 7ec0 <.text+0x3ec0>
    7b1c:	e5d23000 	ldrb	r3, [r2]
    7b20:	e2833001 	add	r3, r3, #1	; 0x1
    7b24:	e5c23000 	strb	r3, [r2]
    7b28:	e5d23000 	ldrb	r3, [r2]
    7b2c:	e3530077 	cmp	r3, #119	; 0x77
    7b30:	85c21000 	strhib	r1, [r2]
    7b34:	e59f2388 	ldr	r2, [pc, #904]	; 7ec4 <.text+0x3ec4>
    7b38:	e1d230b0 	ldrh	r3, [r2]
    7b3c:	e2833001 	add	r3, r3, #1	; 0x1
    7b40:	e1c230b0 	strh	r3, [r2]
    7b44:	e1d230b0 	ldrh	r3, [r2]
    7b48:	e3530f4b 	cmp	r3, #300	; 0x12c
    7b4c:	21c210b0 	strcsh	r1, [r2]
    7b50:	e59f2370 	ldr	r2, [pc, #880]	; 7ec8 <.text+0x3ec8>
    7b54:	e1d230b0 	ldrh	r3, [r2]
    7b58:	e2833001 	add	r3, r3, #1	; 0x1
    7b5c:	e1c230b0 	strh	r3, [r2]
    7b60:	e1d230b0 	ldrh	r3, [r2]
    7b64:	e3530f87 	cmp	r3, #540	; 0x21c
    7b68:	e5d93000 	ldrb	r3, [r9]
    7b6c:	21c210b0 	strcsh	r1, [r2]
    7b70:	e3530000 	cmp	r3, #0	; 0x0
    7b74:	1a0000ed 	bne	7f30 <.text+0x3f30>
    7b78:	e59f334c 	ldr	r3, [pc, #844]	; 7ecc <.text+0x3ecc>
    7b7c:	e5930000 	ldr	r0, [r3]
    7b80:	eb003d6d 	bl	1713c <__extendsfdf2>
    7b84:	e28f2fc1 	add	r2, pc, #772	; 0x304
    7b88:	e892000c 	ldmia	r2, {r2, r3}
    7b8c:	eb003e1b 	bl	17400 <__divdf3>
    7b90:	e28f2c03 	add	r2, pc, #768	; 0x300
    7b94:	e892000c 	ldmia	r2, {r2, r3}
    7b98:	eb003d7a 	bl	17188 <__muldf3>
    7b9c:	eb003ee1 	bl	17728 <__fixdfsi>
    7ba0:	e59f3328 	ldr	r3, [pc, #808]	; 7ed0 <.text+0x3ed0>
    7ba4:	e14b02ba 	strh	r0, [fp, #-42]
    7ba8:	e5930000 	ldr	r0, [r3]
    7bac:	eb003d62 	bl	1713c <__extendsfdf2>
    7bb0:	e28f2fb6 	add	r2, pc, #728	; 0x2d8
    7bb4:	e892000c 	ldmia	r2, {r2, r3}
    7bb8:	eb003e10 	bl	17400 <__divdf3>
    7bbc:	e28f2fb5 	add	r2, pc, #724	; 0x2d4
    7bc0:	e892000c 	ldmia	r2, {r2, r3}
    7bc4:	eb003d6f 	bl	17188 <__muldf3>
    7bc8:	eb003ed6 	bl	17728 <__fixdfsi>
    7bcc:	e59f3300 	ldr	r3, [pc, #768]	; 7ed4 <.text+0x3ed4>
    7bd0:	e14b02bc 	strh	r0, [fp, #-44]
    7bd4:	e5930000 	ldr	r0, [r3]
    7bd8:	eb003d57 	bl	1713c <__extendsfdf2>
    7bdc:	e28f2fab 	add	r2, pc, #684	; 0x2ac
    7be0:	e892000c 	ldmia	r2, {r2, r3}
    7be4:	eb003e05 	bl	17400 <__divdf3>
    7be8:	e28f2faa 	add	r2, pc, #680	; 0x2a8
    7bec:	e892000c 	ldmia	r2, {r2, r3}
    7bf0:	eb003d64 	bl	17188 <__muldf3>
    7bf4:	eb003ecb 	bl	17728 <__fixdfsi>
    7bf8:	e59f130c 	ldr	r1, [pc, #780]	; 7f0c <.text+0x3f0c>
    7bfc:	e59fe310 	ldr	lr, [pc, #784]	; 7f14 <.text+0x3f14>
    7c00:	e5d13000 	ldrb	r3, [r1]
    7c04:	e5de2000 	ldrb	r2, [lr]
    7c08:	e14b02be 	strh	r0, [fp, #-46]
    7c0c:	e1520003 	cmp	r2, r3
    7c10:	25d13000 	ldrcsb	r3, [r1]
    7c14:	35d13000 	ldrccb	r3, [r1]
    7c18:	20633002 	rsbcs	r3, r3, r2
    7c1c:	226330ff 	rsbcs	r3, r3, #255	; 0xff
    7c20:	30623003 	rsbcc	r3, r2, r3
    7c24:	e353000c 	cmp	r3, #12	; 0xc
    7c28:	da0001f9 	ble	8414 <.text+0x4414>
    7c2c:	e5de2000 	ldrb	r2, [lr]
    7c30:	e2823001 	add	r3, r2, #1	; 0x1
    7c34:	e5ce3000 	strb	r3, [lr]
    7c38:	e5de3000 	ldrb	r3, [lr]
    7c3c:	e59f62cc 	ldr	r6, [pc, #716]	; 7f10 <.text+0x3f10>
    7c40:	e35300ff 	cmp	r3, #255	; 0xff
    7c44:	e3e03066 	mvn	r3, #102	; 0x66
    7c48:	e7c63002 	strb	r3, [r6, r2]
    7c4c:	02833067 	addeq	r3, r3, #103	; 0x67
    7c50:	e59fc2bc 	ldr	ip, [pc, #700]	; 7f14 <.text+0x3f14>
    7c54:	05ce3000 	streqb	r3, [lr]
    7c58:	e5dc2000 	ldrb	r2, [ip]
    7c5c:	e2823001 	add	r3, r2, #1	; 0x1
    7c60:	e5cc3000 	strb	r3, [ip]
    7c64:	e5dc3000 	ldrb	r3, [ip]
    7c68:	e35300ff 	cmp	r3, #255	; 0xff
    7c6c:	e3a0300c 	mov	r3, #12	; 0xc
    7c70:	e7c63002 	strb	r3, [r6, r2]
    7c74:	0243300c 	subeq	r3, r3, #12	; 0xc
    7c78:	05cc3000 	streqb	r3, [ip]
    7c7c:	e5dc2000 	ldrb	r2, [ip]
    7c80:	e2823001 	add	r3, r2, #1	; 0x1
    7c84:	e5cc3000 	strb	r3, [ip]
    7c88:	e5dc3000 	ldrb	r3, [ip]
    7c8c:	e59f4284 	ldr	r4, [pc, #644]	; 7f18 <.text+0x3f18>
    7c90:	e59f5284 	ldr	r5, [pc, #644]	; 7f1c <.text+0x3f1c>
    7c94:	e35300ff 	cmp	r3, #255	; 0xff
    7c98:	e3a03013 	mov	r3, #19	; 0x13
    7c9c:	e5c43000 	strb	r3, [r4]
    7ca0:	e283300c 	add	r3, r3, #12	; 0xc
    7ca4:	e5c53000 	strb	r3, [r5]
    7ca8:	e2433018 	sub	r3, r3, #24	; 0x18
    7cac:	e7c63002 	strb	r3, [r6, r2]
    7cb0:	02433007 	subeq	r3, r3, #7	; 0x7
    7cb4:	05cc3000 	streqb	r3, [ip]
    7cb8:	e5dc2000 	ldrb	r2, [ip]
    7cbc:	e2823001 	add	r3, r2, #1	; 0x1
    7cc0:	e5cc3000 	strb	r3, [ip]
    7cc4:	e5dc3000 	ldrb	r3, [ip]
    7cc8:	e35300ff 	cmp	r3, #255	; 0xff
    7ccc:	e3a03019 	mov	r3, #25	; 0x19
    7cd0:	e5c43000 	strb	r3, [r4]
    7cd4:	e283301f 	add	r3, r3, #31	; 0x1f
    7cd8:	e5c53000 	strb	r3, [r5]
    7cdc:	e2433032 	sub	r3, r3, #50	; 0x32
    7ce0:	e7c63002 	strb	r3, [r6, r2]
    7ce4:	02433006 	subeq	r3, r3, #6	; 0x6
    7ce8:	05cc3000 	streqb	r3, [ip]
    7cec:	e55b102a 	ldrb	r1, [fp, #-42]
    7cf0:	e5dc0000 	ldrb	r0, [ip]
    7cf4:	e2813019 	add	r3, r1, #25	; 0x19
    7cf8:	e2802001 	add	r2, r0, #1	; 0x1
    7cfc:	e5cc2000 	strb	r2, [ip]
    7d00:	e5c43000 	strb	r3, [r4]
    7d04:	e5dc3000 	ldrb	r3, [ip]
    7d08:	e5d4e000 	ldrb	lr, [r4]
    7d0c:	e35300ff 	cmp	r3, #255	; 0xff
    7d10:	e28e3038 	add	r3, lr, #56	; 0x38
    7d14:	e5c53000 	strb	r3, [r5]
    7d18:	03a03000 	moveq	r3, #0	; 0x0
    7d1c:	05cc3000 	streqb	r3, [ip]
    7d20:	e7c61000 	strb	r1, [r6, r0]
    7d24:	e5dc0000 	ldrb	r0, [ip]
    7d28:	e55b1029 	ldrb	r1, [fp, #-41]
    7d2c:	e2802001 	add	r2, r0, #1	; 0x1
    7d30:	e081300e 	add	r3, r1, lr
    7d34:	e5c43000 	strb	r3, [r4]
    7d38:	e5cc2000 	strb	r2, [ip]
    7d3c:	e5dc3000 	ldrb	r3, [ip]
    7d40:	e35300ff 	cmp	r3, #255	; 0xff
    7d44:	e5d4e000 	ldrb	lr, [r4]
    7d48:	e5d52000 	ldrb	r2, [r5]
    7d4c:	024330ff 	subeq	r3, r3, #255	; 0xff
    7d50:	05cc3000 	streqb	r3, [ip]
    7d54:	e082200e 	add	r2, r2, lr
    7d58:	e5c52000 	strb	r2, [r5]
    7d5c:	e7c61000 	strb	r1, [r6, r0]
    7d60:	e5dc0000 	ldrb	r0, [ip]
    7d64:	e55b102c 	ldrb	r1, [fp, #-44]
    7d68:	e2802001 	add	r2, r0, #1	; 0x1
    7d6c:	e5cc2000 	strb	r2, [ip]
    7d70:	e081300e 	add	r3, r1, lr
    7d74:	e5c43000 	strb	r3, [r4]
    7d78:	e5dc3000 	ldrb	r3, [ip]
    7d7c:	e35300ff 	cmp	r3, #255	; 0xff
    7d80:	e5d4e000 	ldrb	lr, [r4]
    7d84:	e5d52000 	ldrb	r2, [r5]
    7d88:	024330ff 	subeq	r3, r3, #255	; 0xff
    7d8c:	05cc3000 	streqb	r3, [ip]
    7d90:	e082200e 	add	r2, r2, lr
    7d94:	e5c52000 	strb	r2, [r5]
    7d98:	e7c61000 	strb	r1, [r6, r0]
    7d9c:	e5dc0000 	ldrb	r0, [ip]
    7da0:	e55b102b 	ldrb	r1, [fp, #-43]
    7da4:	e2802001 	add	r2, r0, #1	; 0x1
    7da8:	e5cc2000 	strb	r2, [ip]
    7dac:	e081300e 	add	r3, r1, lr
    7db0:	e5c43000 	strb	r3, [r4]
    7db4:	e5dc3000 	ldrb	r3, [ip]
    7db8:	e5d4e000 	ldrb	lr, [r4]
    7dbc:	e35300ff 	cmp	r3, #255	; 0xff
    7dc0:	e5d52000 	ldrb	r2, [r5]
    7dc4:	024330ff 	subeq	r3, r3, #255	; 0xff
    7dc8:	05cc3000 	streqb	r3, [ip]
    7dcc:	e082200e 	add	r2, r2, lr
    7dd0:	e5c52000 	strb	r2, [r5]
    7dd4:	e7c61000 	strb	r1, [r6, r0]
    7dd8:	e5dc0000 	ldrb	r0, [ip]
    7ddc:	e55b102e 	ldrb	r1, [fp, #-46]
    7de0:	e2802001 	add	r2, r0, #1	; 0x1
    7de4:	e081300e 	add	r3, r1, lr
    7de8:	e5cc2000 	strb	r2, [ip]
    7dec:	e5c43000 	strb	r3, [r4]
    7df0:	e5dc3000 	ldrb	r3, [ip]
    7df4:	e5d4e000 	ldrb	lr, [r4]
    7df8:	e5d52000 	ldrb	r2, [r5]
    7dfc:	e35300ff 	cmp	r3, #255	; 0xff
    7e00:	e082200e 	add	r2, r2, lr
    7e04:	024330ff 	subeq	r3, r3, #255	; 0xff
    7e08:	e5c52000 	strb	r2, [r5]
    7e0c:	05cc3000 	streqb	r3, [ip]
    7e10:	e7c61000 	strb	r1, [r6, r0]
    7e14:	e5dc0000 	ldrb	r0, [ip]
    7e18:	e55b102d 	ldrb	r1, [fp, #-45]
    7e1c:	e2802001 	add	r2, r0, #1	; 0x1
    7e20:	e081300e 	add	r3, r1, lr
    7e24:	e5cc2000 	strb	r2, [ip]
    7e28:	e5c43000 	strb	r3, [r4]
    7e2c:	e5dc2000 	ldrb	r2, [ip]
    7e30:	e5d4e000 	ldrb	lr, [r4]
    7e34:	e5d53000 	ldrb	r3, [r5]
    7e38:	e35200ff 	cmp	r2, #255	; 0xff
    7e3c:	e083300e 	add	r3, r3, lr
    7e40:	e5c53000 	strb	r3, [r5]
    7e44:	03a03000 	moveq	r3, #0	; 0x0
    7e48:	05cc3000 	streqb	r3, [ip]
    7e4c:	e5dc3000 	ldrb	r3, [ip]
    7e50:	e2832001 	add	r2, r3, #1	; 0x1
    7e54:	e5cc2000 	strb	r2, [ip]
    7e58:	e5dc2000 	ldrb	r2, [ip]
    7e5c:	e35200ff 	cmp	r2, #255	; 0xff
    7e60:	e7c61000 	strb	r1, [r6, r0]
    7e64:	e7c6e003 	strb	lr, [r6, r3]
    7e68:	03a03000 	moveq	r3, #0	; 0x0
    7e6c:	05cc3000 	streqb	r3, [ip]
    7e70:	e5dc1000 	ldrb	r1, [ip]
    7e74:	e2813001 	add	r3, r1, #1	; 0x1
    7e78:	e5cc3000 	strb	r3, [ip]
    7e7c:	e5dc3000 	ldrb	r3, [ip]
    7e80:	e5d52000 	ldrb	r2, [r5]
    7e84:	e35300ff 	cmp	r3, #255	; 0xff
    7e88:	e7c62001 	strb	r2, [r6, r1]
    7e8c:	ea00015d 	b	8408 <.text+0x4408>
    7e90:	400921fb 	strmid	r2, [r9], -fp
    7e94:	54442d18 	strplb	r2, [r4], #-3352
    7e98:	40668000 	rsbmi	r8, r6, r0
    7e9c:	00000000 	andeq	r0, r0, r0
    7ea0:	400004c1 	andmi	r0, r0, r1, asr #9
    7ea4:	400004c2 	andmi	r0, r0, r2, asr #9
    7ea8:	400004c3 	andmi	r0, r0, r3, asr #9
    7eac:	400004c4 	andmi	r0, r0, r4, asr #9
    7eb0:	40000004 	andmi	r0, r0, r4
    7eb4:	00018054 	andeq	r8, r1, r4, asr r0
    7eb8:	400004f0 	strmid	r0, [r0], -r0
    7ebc:	400004c5 	andmi	r0, r0, r5, asr #9
    7ec0:	400004c7 	andmi	r0, r0, r7, asr #9
    7ec4:	400004c8 	andmi	r0, r0, r8, asr #9
    7ec8:	400004ca 	andmi	r0, r0, sl, asr #9
    7ecc:	4000105c 	andmi	r1, r0, ip, asr r0
    7ed0:	40001038 	andmi	r1, r0, r8, lsr r0
    7ed4:	40001054 	andmi	r1, r0, r4, asr r0
    7ed8:	400004cc 	andmi	r0, r0, ip, asr #9
    7edc:	00018090 	muleq	r1, r0, r0
    7ee0:	40000088 	andmi	r0, r0, r8, lsl #1
    7ee4:	40000034 	andmi	r0, r0, r4, lsr r0
    7ee8:	40000084 	andmi	r0, r0, r4, lsl #1
    7eec:	4000003c 	andmi	r0, r0, ip, lsr r0
    7ef0:	40000a93 	mulmi	r0, r3, sl
    7ef4:	4000103c 	andmi	r1, r0, ip, lsr r0
    7ef8:	40001030 	andmi	r1, r0, r0, lsr r0
    7efc:	400004c6 	andmi	r0, r0, r6, asr #9
    7f00:	40001034 	andmi	r1, r0, r4, lsr r0
    7f04:	40000570 	andmi	r0, r0, r0, ror r5
    7f08:	40000ff0 	strmid	r0, [r0], -r0
    7f0c:	40000d2c 	andmi	r0, r0, ip, lsr #26
    7f10:	40000d2d 	andmi	r0, r0, sp, lsr #26
    7f14:	40000d2b 	andmi	r0, r0, fp, lsr #26
    7f18:	40000d27 	andmi	r0, r0, r7, lsr #26
    7f1c:	40000c24 	andmi	r0, r0, r4, lsr #24
    7f20:	40001134 	andmi	r1, r0, r4, lsr r1
    7f24:	40001110 	andmi	r1, r0, r0, lsl r1
    7f28:	40001088 	andmi	r1, r0, r8, lsl #1
    7f2c:	4000109c 	mulmi	r0, ip, r0
    7f30:	e3530006 	cmp	r3, #6	; 0x6
    7f34:	0a00013a 	beq	8424 <.text+0x4424>
    7f38:	e353000c 	cmp	r3, #12	; 0xc
    7f3c:	0a000138 	beq	8424 <.text+0x4424>
    7f40:	e3530012 	cmp	r3, #18	; 0x12
    7f44:	0a000136 	beq	8424 <.text+0x4424>
    7f48:	e3530018 	cmp	r3, #24	; 0x18
    7f4c:	1a000134 	bne	8424 <.text+0x4424>
    7f50:	e51f6080 	ldr	r6, [pc, #-128]	; 7ed8 <.text+0x3ed8>
    7f54:	e5d63000 	ldrb	r3, [r6]
    7f58:	e2833001 	add	r3, r3, #1	; 0x1
    7f5c:	e5c63000 	strb	r3, [r6]
    7f60:	e51f308c 	ldr	r3, [pc, #-140]	; 7edc <.text+0x3edc>
    7f64:	e5d32000 	ldrb	r2, [r3]
    7f68:	e5d63000 	ldrb	r3, [r6]
    7f6c:	e1530002 	cmp	r3, r2
    7f70:	e51f3098 	ldr	r3, [pc, #-152]	; 7ee0 <.text+0x3ee0>
    7f74:	85c61000 	strhib	r1, [r6]
    7f78:	e5930000 	ldr	r0, [r3]
    7f7c:	eb003ed7 	bl	17ae0 <__floatsisf>
    7f80:	e5d64000 	ldrb	r4, [r6]
    7f84:	e51f30a8 	ldr	r3, [pc, #-168]	; 7ee4 <.text+0x3ee4>
    7f88:	e0844084 	add	r4, r4, r4, lsl #1
    7f8c:	e1a04104 	mov	r4, r4, lsl #2
    7f90:	e7941003 	ldr	r1, [r4, r3]
    7f94:	e0844003 	add	r4, r4, r3
    7f98:	eb003e5e 	bl	17918 <__addsf3>
    7f9c:	e51f30bc 	ldr	r3, [pc, #-188]	; 7ee8 <.text+0x3ee8>
    7fa0:	e50b003c 	str	r0, [fp, #-60]
    7fa4:	e5930000 	ldr	r0, [r3]
    7fa8:	eb003ecc 	bl	17ae0 <__floatsisf>
    7fac:	e5941004 	ldr	r1, [r4, #4]
    7fb0:	eb003e58 	bl	17918 <__addsf3>
    7fb4:	e51f10b0 	ldr	r1, [pc, #-176]	; 7f0c <.text+0x3f0c>
    7fb8:	e51fe0ac 	ldr	lr, [pc, #-172]	; 7f14 <.text+0x3f14>
    7fbc:	e5d13000 	ldrb	r3, [r1]
    7fc0:	e5de2000 	ldrb	r2, [lr]
    7fc4:	e50b0040 	str	r0, [fp, #-64]
    7fc8:	e1520003 	cmp	r2, r3
    7fcc:	25d13000 	ldrcsb	r3, [r1]
    7fd0:	35d13000 	ldrccb	r3, [r1]
    7fd4:	20633002 	rsbcs	r3, r3, r2
    7fd8:	226330ff 	rsbcs	r3, r3, #255	; 0xff
    7fdc:	30623003 	rsbcc	r3, r2, r3
    7fe0:	e3530013 	cmp	r3, #19	; 0x13
    7fe4:	da00010a 	ble	8414 <.text+0x4414>
    7fe8:	e5de2000 	ldrb	r2, [lr]
    7fec:	e2823001 	add	r3, r2, #1	; 0x1
    7ff0:	e5ce3000 	strb	r3, [lr]
    7ff4:	e5de3000 	ldrb	r3, [lr]
    7ff8:	e51f70f0 	ldr	r7, [pc, #-240]	; 7f10 <.text+0x3f10>
    7ffc:	e35300ff 	cmp	r3, #255	; 0xff
    8000:	e3e03066 	mvn	r3, #102	; 0x66
    8004:	e7c73002 	strb	r3, [r7, r2]
    8008:	02833067 	addeq	r3, r3, #103	; 0x67
    800c:	e51fc100 	ldr	ip, [pc, #-256]	; 7f14 <.text+0x3f14>
    8010:	05ce3000 	streqb	r3, [lr]
    8014:	e5dc2000 	ldrb	r2, [ip]
    8018:	e2823001 	add	r3, r2, #1	; 0x1
    801c:	e5cc3000 	strb	r3, [ip]
    8020:	e5dc3000 	ldrb	r3, [ip]
    8024:	e35300ff 	cmp	r3, #255	; 0xff
    8028:	e3a03013 	mov	r3, #19	; 0x13
    802c:	e7c73002 	strb	r3, [r7, r2]
    8030:	02433013 	subeq	r3, r3, #19	; 0x13
    8034:	05cc3000 	streqb	r3, [ip]
    8038:	e5dc2000 	ldrb	r2, [ip]
    803c:	e2823001 	add	r3, r2, #1	; 0x1
    8040:	e5cc3000 	strb	r3, [ip]
    8044:	e5dc3000 	ldrb	r3, [ip]
    8048:	e51fe138 	ldr	lr, [pc, #-312]	; 7f18 <.text+0x3f18>
    804c:	e51f5138 	ldr	r5, [pc, #-312]	; 7f1c <.text+0x3f1c>
    8050:	e35300ff 	cmp	r3, #255	; 0xff
    8054:	e3a0301a 	mov	r3, #26	; 0x1a
    8058:	e5ce3000 	strb	r3, [lr]
    805c:	e2833013 	add	r3, r3, #19	; 0x13
    8060:	e5c53000 	strb	r3, [r5]
    8064:	e2433026 	sub	r3, r3, #38	; 0x26
    8068:	e7c73002 	strb	r3, [r7, r2]
    806c:	02433007 	subeq	r3, r3, #7	; 0x7
    8070:	05cc3000 	streqb	r3, [ip]
    8074:	e5dc2000 	ldrb	r2, [ip]
    8078:	e2823001 	add	r3, r2, #1	; 0x1
    807c:	e5cc3000 	strb	r3, [ip]
    8080:	e5dc3000 	ldrb	r3, [ip]
    8084:	e35300ff 	cmp	r3, #255	; 0xff
    8088:	e3a0303d 	mov	r3, #61	; 0x3d
    808c:	e5ce3000 	strb	r3, [lr]
    8090:	e283302d 	add	r3, r3, #45	; 0x2d
    8094:	e5c53000 	strb	r3, [r5]
    8098:	e2433047 	sub	r3, r3, #71	; 0x47
    809c:	e7c73002 	strb	r3, [r7, r2]
    80a0:	02433023 	subeq	r3, r3, #35	; 0x23
    80a4:	05cc3000 	streqb	r3, [ip]
    80a8:	e5d6a000 	ldrb	sl, [r6]
    80ac:	e5dc1000 	ldrb	r1, [ip]
    80b0:	e20a60ff 	and	r6, sl, #255	; 0xff
    80b4:	e2812001 	add	r2, r1, #1	; 0x1
    80b8:	e286303d 	add	r3, r6, #61	; 0x3d
    80bc:	e5cc2000 	strb	r2, [ip]
    80c0:	e5ce3000 	strb	r3, [lr]
    80c4:	e5dc3000 	ldrb	r3, [ip]
    80c8:	e5de4000 	ldrb	r4, [lr]
    80cc:	e35300ff 	cmp	r3, #255	; 0xff
    80d0:	e284306a 	add	r3, r4, #106	; 0x6a
    80d4:	e5c53000 	strb	r3, [r5]
    80d8:	03a03000 	moveq	r3, #0	; 0x0
    80dc:	05cc3000 	streqb	r3, [ip]
    80e0:	e7c76001 	strb	r6, [r7, r1]
    80e4:	e5dc0000 	ldrb	r0, [ip]
    80e8:	e55b103c 	ldrb	r1, [fp, #-60]
    80ec:	e2802001 	add	r2, r0, #1	; 0x1
    80f0:	e0813004 	add	r3, r1, r4
    80f4:	e5ce3000 	strb	r3, [lr]
    80f8:	e5cc2000 	strb	r2, [ip]
    80fc:	e5dc3000 	ldrb	r3, [ip]
    8100:	e35300ff 	cmp	r3, #255	; 0xff
    8104:	e5de4000 	ldrb	r4, [lr]
    8108:	e5d52000 	ldrb	r2, [r5]
    810c:	024330ff 	subeq	r3, r3, #255	; 0xff
    8110:	05cc3000 	streqb	r3, [ip]
    8114:	e0822004 	add	r2, r2, r4
    8118:	e5c52000 	strb	r2, [r5]
    811c:	e7c71000 	strb	r1, [r7, r0]
    8120:	e5dc0000 	ldrb	r0, [ip]
    8124:	e55b103b 	ldrb	r1, [fp, #-59]
    8128:	e2802001 	add	r2, r0, #1	; 0x1
    812c:	e5cc2000 	strb	r2, [ip]
    8130:	e0813004 	add	r3, r1, r4
    8134:	e5ce3000 	strb	r3, [lr]
    8138:	e5dc3000 	ldrb	r3, [ip]
    813c:	e35300ff 	cmp	r3, #255	; 0xff
    8140:	e5de4000 	ldrb	r4, [lr]
    8144:	e5d52000 	ldrb	r2, [r5]
    8148:	024330ff 	subeq	r3, r3, #255	; 0xff
    814c:	05cc3000 	streqb	r3, [ip]
    8150:	e0822004 	add	r2, r2, r4
    8154:	e5c52000 	strb	r2, [r5]
    8158:	e7c71000 	strb	r1, [r7, r0]
    815c:	e5dc0000 	ldrb	r0, [ip]
    8160:	e55b103a 	ldrb	r1, [fp, #-58]
    8164:	e2802001 	add	r2, r0, #1	; 0x1
    8168:	e5cc2000 	strb	r2, [ip]
    816c:	e0813004 	add	r3, r1, r4
    8170:	e5ce3000 	strb	r3, [lr]
    8174:	e5dc3000 	ldrb	r3, [ip]
    8178:	e5de4000 	ldrb	r4, [lr]
    817c:	e35300ff 	cmp	r3, #255	; 0xff
    8180:	e5d52000 	ldrb	r2, [r5]
    8184:	024330ff 	subeq	r3, r3, #255	; 0xff
    8188:	05cc3000 	streqb	r3, [ip]
    818c:	e0822004 	add	r2, r2, r4
    8190:	e5c52000 	strb	r2, [r5]
    8194:	e7c71000 	strb	r1, [r7, r0]
    8198:	e5dc0000 	ldrb	r0, [ip]
    819c:	e55b1039 	ldrb	r1, [fp, #-57]
    81a0:	e2802001 	add	r2, r0, #1	; 0x1
    81a4:	e0813004 	add	r3, r1, r4
    81a8:	e5cc2000 	strb	r2, [ip]
    81ac:	e5ce3000 	strb	r3, [lr]
    81b0:	e5dc3000 	ldrb	r3, [ip]
    81b4:	e5de4000 	ldrb	r4, [lr]
    81b8:	e5d52000 	ldrb	r2, [r5]
    81bc:	e35300ff 	cmp	r3, #255	; 0xff
    81c0:	e0822004 	add	r2, r2, r4
    81c4:	024330ff 	subeq	r3, r3, #255	; 0xff
    81c8:	e5c52000 	strb	r2, [r5]
    81cc:	05cc3000 	streqb	r3, [ip]
    81d0:	e7c71000 	strb	r1, [r7, r0]
    81d4:	e5dc0000 	ldrb	r0, [ip]
    81d8:	e55b1040 	ldrb	r1, [fp, #-64]
    81dc:	e2802001 	add	r2, r0, #1	; 0x1
    81e0:	e5cc2000 	strb	r2, [ip]
    81e4:	e0813004 	add	r3, r1, r4
    81e8:	e5ce3000 	strb	r3, [lr]
    81ec:	e5dc3000 	ldrb	r3, [ip]
    81f0:	e35300ff 	cmp	r3, #255	; 0xff
    81f4:	e5de4000 	ldrb	r4, [lr]
    81f8:	e5d52000 	ldrb	r2, [r5]
    81fc:	024330ff 	subeq	r3, r3, #255	; 0xff
    8200:	05cc3000 	streqb	r3, [ip]
    8204:	e0822004 	add	r2, r2, r4
    8208:	e5c52000 	strb	r2, [r5]
    820c:	e7c71000 	strb	r1, [r7, r0]
    8210:	e5dc0000 	ldrb	r0, [ip]
    8214:	e55b103f 	ldrb	r1, [fp, #-63]
    8218:	e2802001 	add	r2, r0, #1	; 0x1
    821c:	e5cc2000 	strb	r2, [ip]
    8220:	e0813004 	add	r3, r1, r4
    8224:	e5ce3000 	strb	r3, [lr]
    8228:	e5dc3000 	ldrb	r3, [ip]
    822c:	e5de4000 	ldrb	r4, [lr]
    8230:	e5d52000 	ldrb	r2, [r5]
    8234:	e35300ff 	cmp	r3, #255	; 0xff
    8238:	024330ff 	subeq	r3, r3, #255	; 0xff
    823c:	05cc3000 	streqb	r3, [ip]
    8240:	e0822004 	add	r2, r2, r4
    8244:	e5c52000 	strb	r2, [r5]
    8248:	e7c71000 	strb	r1, [r7, r0]
    824c:	e5dc0000 	ldrb	r0, [ip]
    8250:	e55b103e 	ldrb	r1, [fp, #-62]
    8254:	e2802001 	add	r2, r0, #1	; 0x1
    8258:	e5cc2000 	strb	r2, [ip]
    825c:	e0813004 	add	r3, r1, r4
    8260:	e5ce3000 	strb	r3, [lr]
    8264:	e5dc3000 	ldrb	r3, [ip]
    8268:	e5de4000 	ldrb	r4, [lr]
    826c:	e5d52000 	ldrb	r2, [r5]
    8270:	e35300ff 	cmp	r3, #255	; 0xff
    8274:	e0822004 	add	r2, r2, r4
    8278:	024330ff 	subeq	r3, r3, #255	; 0xff
    827c:	05cc3000 	streqb	r3, [ip]
    8280:	e5c52000 	strb	r2, [r5]
    8284:	e7c71000 	strb	r1, [r7, r0]
    8288:	e5dc0000 	ldrb	r0, [ip]
    828c:	e55b103d 	ldrb	r1, [fp, #-61]
    8290:	e2802001 	add	r2, r0, #1	; 0x1
    8294:	e0813004 	add	r3, r1, r4
    8298:	e5ce3000 	strb	r3, [lr]
    829c:	e5cc2000 	strb	r2, [ip]
    82a0:	e5dc3000 	ldrb	r3, [ip]
    82a4:	e35300ff 	cmp	r3, #255	; 0xff
    82a8:	e5de4000 	ldrb	r4, [lr]
    82ac:	e5d52000 	ldrb	r2, [r5]
    82b0:	024330ff 	subeq	r3, r3, #255	; 0xff
    82b4:	05cc3000 	streqb	r3, [ip]
    82b8:	e0822004 	add	r2, r2, r4
    82bc:	e5c52000 	strb	r2, [r5]
    82c0:	e7c71000 	strb	r1, [r7, r0]
    82c4:	e51f83e0 	ldr	r8, [pc, #-992]	; 7eec <.text+0x3eec>
    82c8:	e5dc1000 	ldrb	r1, [ip]
    82cc:	e0863086 	add	r3, r6, r6, lsl #1
    82d0:	e7d80103 	ldrb	r0, [r8, r3, lsl #2]
    82d4:	e2812001 	add	r2, r1, #1	; 0x1
    82d8:	e5cc2000 	strb	r2, [ip]
    82dc:	e0803004 	add	r3, r0, r4
    82e0:	e5ce3000 	strb	r3, [lr]
    82e4:	e5dc3000 	ldrb	r3, [ip]
    82e8:	e35300ff 	cmp	r3, #255	; 0xff
    82ec:	e5de4000 	ldrb	r4, [lr]
    82f0:	e5d52000 	ldrb	r2, [r5]
    82f4:	024330ff 	subeq	r3, r3, #255	; 0xff
    82f8:	05cc3000 	streqb	r3, [ip]
    82fc:	e0822004 	add	r2, r2, r4
    8300:	e5c52000 	strb	r2, [r5]
    8304:	e7c70001 	strb	r0, [r7, r1]
    8308:	e5dc1000 	ldrb	r1, [ip]
    830c:	e08a608a 	add	r6, sl, sl, lsl #1
    8310:	e2883001 	add	r3, r8, #1	; 0x1
    8314:	e7d30106 	ldrb	r0, [r3, r6, lsl #2]
    8318:	e2812001 	add	r2, r1, #1	; 0x1
    831c:	e5cc2000 	strb	r2, [ip]
    8320:	e0803004 	add	r3, r0, r4
    8324:	e5ce3000 	strb	r3, [lr]
    8328:	e5dc3000 	ldrb	r3, [ip]
    832c:	e5de4000 	ldrb	r4, [lr]
    8330:	e35300ff 	cmp	r3, #255	; 0xff
    8334:	e5d52000 	ldrb	r2, [r5]
    8338:	024330ff 	subeq	r3, r3, #255	; 0xff
    833c:	05cc3000 	streqb	r3, [ip]
    8340:	e0822004 	add	r2, r2, r4
    8344:	e5c52000 	strb	r2, [r5]
    8348:	e7c70001 	strb	r0, [r7, r1]
    834c:	e2883002 	add	r3, r8, #2	; 0x2
    8350:	e5dc1000 	ldrb	r1, [ip]
    8354:	e7d30106 	ldrb	r0, [r3, r6, lsl #2]
    8358:	e2812001 	add	r2, r1, #1	; 0x1
    835c:	e0803004 	add	r3, r0, r4
    8360:	e5cc2000 	strb	r2, [ip]
    8364:	e5ce3000 	strb	r3, [lr]
    8368:	e5dc3000 	ldrb	r3, [ip]
    836c:	e5de4000 	ldrb	r4, [lr]
    8370:	e5d52000 	ldrb	r2, [r5]
    8374:	e35300ff 	cmp	r3, #255	; 0xff
    8378:	024330ff 	subeq	r3, r3, #255	; 0xff
    837c:	e0822004 	add	r2, r2, r4
    8380:	e5c52000 	strb	r2, [r5]
    8384:	05cc3000 	streqb	r3, [ip]
    8388:	e7c70001 	strb	r0, [r7, r1]
    838c:	e2883003 	add	r3, r8, #3	; 0x3
    8390:	e7d30106 	ldrb	r0, [r3, r6, lsl #2]
    8394:	e5dc1000 	ldrb	r1, [ip]
    8398:	e0803004 	add	r3, r0, r4
    839c:	e2812001 	add	r2, r1, #1	; 0x1
    83a0:	e5cc2000 	strb	r2, [ip]
    83a4:	e5ce3000 	strb	r3, [lr]
    83a8:	e5dc2000 	ldrb	r2, [ip]
    83ac:	e5dee000 	ldrb	lr, [lr]
    83b0:	e5d53000 	ldrb	r3, [r5]
    83b4:	e35200ff 	cmp	r2, #255	; 0xff
    83b8:	e083300e 	add	r3, r3, lr
    83bc:	e5c53000 	strb	r3, [r5]
    83c0:	03a03000 	moveq	r3, #0	; 0x0
    83c4:	05cc3000 	streqb	r3, [ip]
    83c8:	e5dc3000 	ldrb	r3, [ip]
    83cc:	e2832001 	add	r2, r3, #1	; 0x1
    83d0:	e5cc2000 	strb	r2, [ip]
    83d4:	e5dc2000 	ldrb	r2, [ip]
    83d8:	e35200ff 	cmp	r2, #255	; 0xff
    83dc:	e7c70001 	strb	r0, [r7, r1]
    83e0:	e7c7e003 	strb	lr, [r7, r3]
    83e4:	03a03000 	moveq	r3, #0	; 0x0
    83e8:	05cc3000 	streqb	r3, [ip]
    83ec:	e5dc1000 	ldrb	r1, [ip]
    83f0:	e2813001 	add	r3, r1, #1	; 0x1
    83f4:	e5cc3000 	strb	r3, [ip]
    83f8:	e5d52000 	ldrb	r2, [r5]
    83fc:	e5dc3000 	ldrb	r3, [ip]
    8400:	e7c72001 	strb	r2, [r7, r1]
    8404:	e35300ff 	cmp	r3, #255	; 0xff
    8408:	024330ff 	subeq	r3, r3, #255	; 0xff
    840c:	05cc3000 	streqb	r3, [ip]
    8410:	ea000003 	b	8424 <.text+0x4424>
    8414:	e51f252c 	ldr	r2, [pc, #-1324]	; 7ef0 <.text+0x3ef0>
    8418:	e5d23000 	ldrb	r3, [r2]
    841c:	e2833001 	add	r3, r3, #1	; 0x1
    8420:	e5c23000 	strb	r3, [r2]
    8424:	e5d93000 	ldrb	r3, [r9]
    8428:	e3530000 	cmp	r3, #0	; 0x0
    842c:	1a0000c9 	bne	8758 <.text+0x4758>
    8430:	e51f152c 	ldr	r1, [pc, #-1324]	; 7f0c <.text+0x3f0c>
    8434:	e51f0528 	ldr	r0, [pc, #-1320]	; 7f14 <.text+0x3f14>
    8438:	e5d13000 	ldrb	r3, [r1]
    843c:	e5d02000 	ldrb	r2, [r0]
    8440:	e1520003 	cmp	r2, r3
    8444:	25d13000 	ldrcsb	r3, [r1]
    8448:	35d13000 	ldrccb	r3, [r1]
    844c:	20633002 	rsbcs	r3, r3, r2
    8450:	30623003 	rsbcc	r3, r2, r3
    8454:	226330ff 	rsbcs	r3, r3, #255	; 0xff
    8458:	e353000e 	cmp	r3, #14	; 0xe
    845c:	d51f2574 	ldrle	r2, [pc, #-1396]	; 7ef0 <.text+0x3ef0>
    8460:	d5d23000 	ldrleb	r3, [r2]
    8464:	d2833001 	addle	r3, r3, #1	; 0x1
    8468:	d5c23000 	strleb	r3, [r2]
    846c:	da0000b9 	ble	8758 <.text+0x4758>
    8470:	e5d02000 	ldrb	r2, [r0]
    8474:	e2823001 	add	r3, r2, #1	; 0x1
    8478:	e5c03000 	strb	r3, [r0]
    847c:	e5d03000 	ldrb	r3, [r0]
    8480:	e51f6578 	ldr	r6, [pc, #-1400]	; 7f10 <.text+0x3f10>
    8484:	e35300ff 	cmp	r3, #255	; 0xff
    8488:	e3e03066 	mvn	r3, #102	; 0x66
    848c:	e7c63002 	strb	r3, [r6, r2]
    8490:	02833067 	addeq	r3, r3, #103	; 0x67
    8494:	e51fc588 	ldr	ip, [pc, #-1416]	; 7f14 <.text+0x3f14>
    8498:	05c03000 	streqb	r3, [r0]
    849c:	e5dc2000 	ldrb	r2, [ip]
    84a0:	e2823001 	add	r3, r2, #1	; 0x1
    84a4:	e5cc3000 	strb	r3, [ip]
    84a8:	e5dc3000 	ldrb	r3, [ip]
    84ac:	e35300ff 	cmp	r3, #255	; 0xff
    84b0:	e3a0300e 	mov	r3, #14	; 0xe
    84b4:	e7c63002 	strb	r3, [r6, r2]
    84b8:	0243300e 	subeq	r3, r3, #14	; 0xe
    84bc:	05cc3000 	streqb	r3, [ip]
    84c0:	e5dc2000 	ldrb	r2, [ip]
    84c4:	e2823001 	add	r3, r2, #1	; 0x1
    84c8:	e5cc3000 	strb	r3, [ip]
    84cc:	e5dc3000 	ldrb	r3, [ip]
    84d0:	e51fe5c0 	ldr	lr, [pc, #-1472]	; 7f18 <.text+0x3f18>
    84d4:	e51f55c0 	ldr	r5, [pc, #-1472]	; 7f1c <.text+0x3f1c>
    84d8:	e35300ff 	cmp	r3, #255	; 0xff
    84dc:	e3a03015 	mov	r3, #21	; 0x15
    84e0:	e5ce3000 	strb	r3, [lr]
    84e4:	e283300e 	add	r3, r3, #14	; 0xe
    84e8:	e5c53000 	strb	r3, [r5]
    84ec:	e243301c 	sub	r3, r3, #28	; 0x1c
    84f0:	e7c63002 	strb	r3, [r6, r2]
    84f4:	02433007 	subeq	r3, r3, #7	; 0x7
    84f8:	05cc3000 	streqb	r3, [ip]
    84fc:	e5dc2000 	ldrb	r2, [ip]
    8500:	e2823001 	add	r3, r2, #1	; 0x1
    8504:	e5cc3000 	strb	r3, [ip]
    8508:	e5dc3000 	ldrb	r3, [ip]
    850c:	e35300ff 	cmp	r3, #255	; 0xff
    8510:	e3a0303f 	mov	r3, #63	; 0x3f
    8514:	e5ce3000 	strb	r3, [lr]
    8518:	e2833023 	add	r3, r3, #35	; 0x23
    851c:	e5c53000 	strb	r3, [r5]
    8520:	e2433038 	sub	r3, r3, #56	; 0x38
    8524:	e7c63002 	strb	r3, [r6, r2]
    8528:	0243302a 	subeq	r3, r3, #42	; 0x2a
    852c:	05cc3000 	streqb	r3, [ip]
    8530:	e51f7644 	ldr	r7, [pc, #-1604]	; 7ef4 <.text+0x3ef4>
    8534:	e5dc0000 	ldrb	r0, [ip]
    8538:	e5d71000 	ldrb	r1, [r7]
    853c:	e2802001 	add	r2, r0, #1	; 0x1
    8540:	e281303f 	add	r3, r1, #63	; 0x3f
    8544:	e5cc2000 	strb	r2, [ip]
    8548:	e5ce3000 	strb	r3, [lr]
    854c:	e5dc3000 	ldrb	r3, [ip]
    8550:	e5de4000 	ldrb	r4, [lr]
    8554:	e35300ff 	cmp	r3, #255	; 0xff
    8558:	e2843062 	add	r3, r4, #98	; 0x62
    855c:	e5c53000 	strb	r3, [r5]
    8560:	03a03000 	moveq	r3, #0	; 0x0
    8564:	05cc3000 	streqb	r3, [ip]
    8568:	e7c61000 	strb	r1, [r6, r0]
    856c:	e5dc0000 	ldrb	r0, [ip]
    8570:	e5d71001 	ldrb	r1, [r7, #1]
    8574:	e2802001 	add	r2, r0, #1	; 0x1
    8578:	e0813004 	add	r3, r1, r4
    857c:	e5ce3000 	strb	r3, [lr]
    8580:	e5cc2000 	strb	r2, [ip]
    8584:	e5dc3000 	ldrb	r3, [ip]
    8588:	e35300ff 	cmp	r3, #255	; 0xff
    858c:	e5de4000 	ldrb	r4, [lr]
    8590:	e5d52000 	ldrb	r2, [r5]
    8594:	024330ff 	subeq	r3, r3, #255	; 0xff
    8598:	05cc3000 	streqb	r3, [ip]
    859c:	e0822004 	add	r2, r2, r4
    85a0:	e5c52000 	strb	r2, [r5]
    85a4:	e7c61000 	strb	r1, [r6, r0]
    85a8:	e5dc0000 	ldrb	r0, [ip]
    85ac:	e5d71002 	ldrb	r1, [r7, #2]
    85b0:	e2802001 	add	r2, r0, #1	; 0x1
    85b4:	e5cc2000 	strb	r2, [ip]
    85b8:	e0813004 	add	r3, r1, r4
    85bc:	e5ce3000 	strb	r3, [lr]
    85c0:	e5dc3000 	ldrb	r3, [ip]
    85c4:	e35300ff 	cmp	r3, #255	; 0xff
    85c8:	e5de4000 	ldrb	r4, [lr]
    85cc:	e5d52000 	ldrb	r2, [r5]
    85d0:	024330ff 	subeq	r3, r3, #255	; 0xff
    85d4:	05cc3000 	streqb	r3, [ip]
    85d8:	e0822004 	add	r2, r2, r4
    85dc:	e5c52000 	strb	r2, [r5]
    85e0:	e7c61000 	strb	r1, [r6, r0]
    85e4:	e5dc1000 	ldrb	r1, [ip]
    85e8:	e5d70003 	ldrb	r0, [r7, #3]
    85ec:	e2812001 	add	r2, r1, #1	; 0x1
    85f0:	e5cc2000 	strb	r2, [ip]
    85f4:	e0803004 	add	r3, r0, r4
    85f8:	e5ce3000 	strb	r3, [lr]
    85fc:	e5dc3000 	ldrb	r3, [ip]
    8600:	e5de4000 	ldrb	r4, [lr]
    8604:	e35300ff 	cmp	r3, #255	; 0xff
    8608:	e5d52000 	ldrb	r2, [r5]
    860c:	024330ff 	subeq	r3, r3, #255	; 0xff
    8610:	05cc3000 	streqb	r3, [ip]
    8614:	e0822004 	add	r2, r2, r4
    8618:	e5c52000 	strb	r2, [r5]
    861c:	e51f772c 	ldr	r7, [pc, #-1836]	; 7ef8 <.text+0x3ef8>
    8620:	e7c60001 	strb	r0, [r6, r1]
    8624:	e5dc0000 	ldrb	r0, [ip]
    8628:	e5d71000 	ldrb	r1, [r7]
    862c:	e2802001 	add	r2, r0, #1	; 0x1
    8630:	e0813004 	add	r3, r1, r4
    8634:	e5cc2000 	strb	r2, [ip]
    8638:	e5ce3000 	strb	r3, [lr]
    863c:	e5dc3000 	ldrb	r3, [ip]
    8640:	e5de4000 	ldrb	r4, [lr]
    8644:	e5d52000 	ldrb	r2, [r5]
    8648:	e35300ff 	cmp	r3, #255	; 0xff
    864c:	e0822004 	add	r2, r2, r4
    8650:	024330ff 	subeq	r3, r3, #255	; 0xff
    8654:	e5c52000 	strb	r2, [r5]
    8658:	05cc3000 	streqb	r3, [ip]
    865c:	e7c61000 	strb	r1, [r6, r0]
    8660:	e5dc0000 	ldrb	r0, [ip]
    8664:	e5d71001 	ldrb	r1, [r7, #1]
    8668:	e2802001 	add	r2, r0, #1	; 0x1
    866c:	e5cc2000 	strb	r2, [ip]
    8670:	e0813004 	add	r3, r1, r4
    8674:	e5ce3000 	strb	r3, [lr]
    8678:	e5dc3000 	ldrb	r3, [ip]
    867c:	e5de4000 	ldrb	r4, [lr]
    8680:	e5d52000 	ldrb	r2, [r5]
    8684:	e35300ff 	cmp	r3, #255	; 0xff
    8688:	024330ff 	subeq	r3, r3, #255	; 0xff
    868c:	05cc3000 	streqb	r3, [ip]
    8690:	e0822004 	add	r2, r2, r4
    8694:	e5c52000 	strb	r2, [r5]
    8698:	e7c61000 	strb	r1, [r6, r0]
    869c:	e5dc0000 	ldrb	r0, [ip]
    86a0:	e5d71002 	ldrb	r1, [r7, #2]
    86a4:	e2802001 	add	r2, r0, #1	; 0x1
    86a8:	e5cc2000 	strb	r2, [ip]
    86ac:	e0813004 	add	r3, r1, r4
    86b0:	e5ce3000 	strb	r3, [lr]
    86b4:	e5dc3000 	ldrb	r3, [ip]
    86b8:	e5de4000 	ldrb	r4, [lr]
    86bc:	e5d52000 	ldrb	r2, [r5]
    86c0:	e35300ff 	cmp	r3, #255	; 0xff
    86c4:	024330ff 	subeq	r3, r3, #255	; 0xff
    86c8:	e0822004 	add	r2, r2, r4
    86cc:	05cc3000 	streqb	r3, [ip]
    86d0:	e5c52000 	strb	r2, [r5]
    86d4:	e7c61000 	strb	r1, [r6, r0]
    86d8:	e5dc1000 	ldrb	r1, [ip]
    86dc:	e5d70003 	ldrb	r0, [r7, #3]
    86e0:	e2812001 	add	r2, r1, #1	; 0x1
    86e4:	e0803004 	add	r3, r0, r4
    86e8:	e5cc2000 	strb	r2, [ip]
    86ec:	e5ce3000 	strb	r3, [lr]
    86f0:	e5dc2000 	ldrb	r2, [ip]
    86f4:	e5dee000 	ldrb	lr, [lr]
    86f8:	e5d53000 	ldrb	r3, [r5]
    86fc:	e35200ff 	cmp	r2, #255	; 0xff
    8700:	e083300e 	add	r3, r3, lr
    8704:	e5c53000 	strb	r3, [r5]
    8708:	03a03000 	moveq	r3, #0	; 0x0
    870c:	05cc3000 	streqb	r3, [ip]
    8710:	e5dc3000 	ldrb	r3, [ip]
    8714:	e2832001 	add	r2, r3, #1	; 0x1
    8718:	e7c60001 	strb	r0, [r6, r1]
    871c:	e5cc2000 	strb	r2, [ip]
    8720:	e5dc2000 	ldrb	r2, [ip]
    8724:	e35200ff 	cmp	r2, #255	; 0xff
    8728:	e7c6e003 	strb	lr, [r6, r3]
    872c:	03a03000 	moveq	r3, #0	; 0x0
    8730:	05cc3000 	streqb	r3, [ip]
    8734:	e5dc1000 	ldrb	r1, [ip]
    8738:	e2813001 	add	r3, r1, #1	; 0x1
    873c:	e5cc3000 	strb	r3, [ip]
    8740:	e5dc3000 	ldrb	r3, [ip]
    8744:	e5d52000 	ldrb	r2, [r5]
    8748:	e35300ff 	cmp	r3, #255	; 0xff
    874c:	024330ff 	subeq	r3, r3, #255	; 0xff
    8750:	e7c62001 	strb	r2, [r6, r1]
    8754:	05cc3000 	streqb	r3, [ip]
    8758:	e51f2864 	ldr	r2, [pc, #-2148]	; 7efc <.text+0x3efc>
    875c:	e5d23000 	ldrb	r3, [r2]
    8760:	e3530006 	cmp	r3, #6	; 0x6
    8764:	1a000054 	bne	88bc <.text+0x48bc>
    8768:	e51f3870 	ldr	r3, [pc, #-2160]	; 7f00 <.text+0x3f00>
    876c:	e1d330b0 	ldrh	r3, [r3]
    8770:	e3530000 	cmp	r3, #0	; 0x0
    8774:	1a000605 	bne	9f90 <.text+0x5f90>
    8778:	e51f387c 	ldr	r3, [pc, #-2172]	; 7f04 <.text+0x3f04>
    877c:	e5d33000 	ldrb	r3, [r3]
    8780:	e3530001 	cmp	r3, #1	; 0x1
    8784:	1a000601 	bne	9f90 <.text+0x5f90>
    8788:	e51f1884 	ldr	r1, [pc, #-2180]	; 7f0c <.text+0x3f0c>
    878c:	e51f0880 	ldr	r0, [pc, #-2176]	; 7f14 <.text+0x3f14>
    8790:	e5d13000 	ldrb	r3, [r1]
    8794:	e5d02000 	ldrb	r2, [r0]
    8798:	e1520003 	cmp	r2, r3
    879c:	25d13000 	ldrcsb	r3, [r1]
    87a0:	35d13000 	ldrccb	r3, [r1]
    87a4:	20633002 	rsbcs	r3, r3, r2
    87a8:	226330ff 	rsbcs	r3, r3, #255	; 0xff
    87ac:	30623003 	rsbcc	r3, r2, r3
    87b0:	e3530006 	cmp	r3, #6	; 0x6
    87b4:	da0005f1 	ble	9f80 <.text+0x5f80>
    87b8:	e5d02000 	ldrb	r2, [r0]
    87bc:	e2823001 	add	r3, r2, #1	; 0x1
    87c0:	e5c03000 	strb	r3, [r0]
    87c4:	e5d03000 	ldrb	r3, [r0]
    87c8:	e51fc8c0 	ldr	ip, [pc, #-2240]	; 7f10 <.text+0x3f10>
    87cc:	e35300ff 	cmp	r3, #255	; 0xff
    87d0:	e3e03066 	mvn	r3, #102	; 0x66
    87d4:	e7cc3002 	strb	r3, [ip, r2]
    87d8:	02833067 	addeq	r3, r3, #103	; 0x67
    87dc:	05c03000 	streqb	r3, [r0]
    87e0:	e51f18d4 	ldr	r1, [pc, #-2260]	; 7f14 <.text+0x3f14>
    87e4:	e5d12000 	ldrb	r2, [r1]
    87e8:	e2823001 	add	r3, r2, #1	; 0x1
    87ec:	e5c13000 	strb	r3, [r1]
    87f0:	e5d13000 	ldrb	r3, [r1]
    87f4:	e35300ff 	cmp	r3, #255	; 0xff
    87f8:	e3a03006 	mov	r3, #6	; 0x6
    87fc:	e7cc3002 	strb	r3, [ip, r2]
    8800:	02433006 	subeq	r3, r3, #6	; 0x6
    8804:	05c13000 	streqb	r3, [r1]
    8808:	e5d12000 	ldrb	r2, [r1]
    880c:	e2823001 	add	r3, r2, #1	; 0x1
    8810:	e5c13000 	strb	r3, [r1]
    8814:	e5d13000 	ldrb	r3, [r1]
    8818:	e51fe908 	ldr	lr, [pc, #-2312]	; 7f18 <.text+0x3f18>
    881c:	e35300ff 	cmp	r3, #255	; 0xff
    8820:	e51f490c 	ldr	r4, [pc, #-2316]	; 7f1c <.text+0x3f1c>
    8824:	e3a0300d 	mov	r3, #13	; 0xd
    8828:	e5ce3000 	strb	r3, [lr]
    882c:	e2833006 	add	r3, r3, #6	; 0x6
    8830:	e5c43000 	strb	r3, [r4]
    8834:	e243300c 	sub	r3, r3, #12	; 0xc
    8838:	e7cc3002 	strb	r3, [ip, r2]
    883c:	02433007 	subeq	r3, r3, #7	; 0x7
    8840:	05c13000 	streqb	r3, [r1]
    8844:	e5d12000 	ldrb	r2, [r1]
    8848:	e2823001 	add	r3, r2, #1	; 0x1
    884c:	e5c13000 	strb	r3, [r1]
    8850:	e5d13000 	ldrb	r3, [r1]
    8854:	e35300ff 	cmp	r3, #255	; 0xff
    8858:	e3a03002 	mov	r3, #2	; 0x2
    885c:	e7cc3002 	strb	r3, [ip, r2]
    8860:	02433002 	subeq	r3, r3, #2	; 0x2
    8864:	05c13000 	streqb	r3, [r1]
    8868:	e5d13000 	ldrb	r3, [r1]
    886c:	e2832001 	add	r2, r3, #1	; 0x1
    8870:	e5c12000 	strb	r2, [r1]
    8874:	e5d12000 	ldrb	r2, [r1]
    8878:	e3a0000f 	mov	r0, #15	; 0xf
    887c:	e35200ff 	cmp	r2, #255	; 0xff
    8880:	e7cc0003 	strb	r0, [ip, r3]
    8884:	03a03000 	moveq	r3, #0	; 0x0
    8888:	05c13000 	streqb	r3, [r1]
    888c:	e5d13000 	ldrb	r3, [r1]
    8890:	e2832001 	add	r2, r3, #1	; 0x1
    8894:	e5c12000 	strb	r2, [r1]
    8898:	e5d12000 	ldrb	r2, [r1]
    889c:	e3a05022 	mov	r5, #34	; 0x22
    88a0:	e35200ff 	cmp	r2, #255	; 0xff
    88a4:	e7cc5003 	strb	r5, [ip, r3]
    88a8:	03a03000 	moveq	r3, #0	; 0x0
    88ac:	e5ce0000 	strb	r0, [lr]
    88b0:	e5c45000 	strb	r5, [r4]
    88b4:	05c13000 	streqb	r3, [r1]
    88b8:	ea0005b4 	b	9f90 <.text+0x5f90>
    88bc:	e353000c 	cmp	r3, #12	; 0xc
    88c0:	1a000071 	bne	8a8c <.text+0x4a8c>
    88c4:	e51f39cc 	ldr	r3, [pc, #-2508]	; 7f00 <.text+0x3f00>
    88c8:	e1d330b0 	ldrh	r3, [r3]
    88cc:	e3530000 	cmp	r3, #0	; 0x0
    88d0:	1a0005ae 	bne	9f90 <.text+0x5f90>
    88d4:	e51f39d8 	ldr	r3, [pc, #-2520]	; 7f04 <.text+0x3f04>
    88d8:	e5d33000 	ldrb	r3, [r3]
    88dc:	e3530002 	cmp	r3, #2	; 0x2
    88e0:	1a0005aa 	bne	9f90 <.text+0x5f90>
    88e4:	e51f19e0 	ldr	r1, [pc, #-2528]	; 7f0c <.text+0x3f0c>
    88e8:	e51f09dc 	ldr	r0, [pc, #-2524]	; 7f14 <.text+0x3f14>
    88ec:	e5d13000 	ldrb	r3, [r1]
    88f0:	e5d02000 	ldrb	r2, [r0]
    88f4:	e1520003 	cmp	r2, r3
    88f8:	25d13000 	ldrcsb	r3, [r1]
    88fc:	35d13000 	ldrccb	r3, [r1]
    8900:	20633002 	rsbcs	r3, r3, r2
    8904:	226330ff 	rsbcs	r3, r3, #255	; 0xff
    8908:	30623003 	rsbcc	r3, r2, r3
    890c:	e3530008 	cmp	r3, #8	; 0x8
    8910:	da00059a 	ble	9f80 <.text+0x5f80>
    8914:	e5d02000 	ldrb	r2, [r0]
    8918:	e2823001 	add	r3, r2, #1	; 0x1
    891c:	e5c03000 	strb	r3, [r0]
    8920:	e5d03000 	ldrb	r3, [r0]
    8924:	e51f4a1c 	ldr	r4, [pc, #-2588]	; 7f10 <.text+0x3f10>
    8928:	e35300ff 	cmp	r3, #255	; 0xff
    892c:	e3e03066 	mvn	r3, #102	; 0x66
    8930:	e7c43002 	strb	r3, [r4, r2]
    8934:	02833067 	addeq	r3, r3, #103	; 0x67
    8938:	e51fca2c 	ldr	ip, [pc, #-2604]	; 7f14 <.text+0x3f14>
    893c:	05c03000 	streqb	r3, [r0]
    8940:	e5dc2000 	ldrb	r2, [ip]
    8944:	e2823001 	add	r3, r2, #1	; 0x1
    8948:	e5cc3000 	strb	r3, [ip]
    894c:	e5dc3000 	ldrb	r3, [ip]
    8950:	e35300ff 	cmp	r3, #255	; 0xff
    8954:	e3a03008 	mov	r3, #8	; 0x8
    8958:	e7c43002 	strb	r3, [r4, r2]
    895c:	02433008 	subeq	r3, r3, #8	; 0x8
    8960:	05cc3000 	streqb	r3, [ip]
    8964:	e5dc2000 	ldrb	r2, [ip]
    8968:	e2823001 	add	r3, r2, #1	; 0x1
    896c:	e5cc3000 	strb	r3, [ip]
    8970:	e5dc3000 	ldrb	r3, [ip]
    8974:	e51fea64 	ldr	lr, [pc, #-2660]	; 7f18 <.text+0x3f18>
    8978:	e51f5a64 	ldr	r5, [pc, #-2660]	; 7f1c <.text+0x3f1c>
    897c:	e35300ff 	cmp	r3, #255	; 0xff
    8980:	e3a0300f 	mov	r3, #15	; 0xf
    8984:	e5ce3000 	strb	r3, [lr]
    8988:	e2833008 	add	r3, r3, #8	; 0x8
    898c:	e5c53000 	strb	r3, [r5]
    8990:	e2433010 	sub	r3, r3, #16	; 0x10
    8994:	e7c43002 	strb	r3, [r4, r2]
    8998:	02433007 	subeq	r3, r3, #7	; 0x7
    899c:	05cc3000 	streqb	r3, [ip]
    89a0:	e5dc2000 	ldrb	r2, [ip]
    89a4:	e2823001 	add	r3, r2, #1	; 0x1
    89a8:	e5cc3000 	strb	r3, [ip]
    89ac:	e5dc3000 	ldrb	r3, [ip]
    89b0:	e35300ff 	cmp	r3, #255	; 0xff
    89b4:	e3a03012 	mov	r3, #18	; 0x12
    89b8:	e5ce3000 	strb	r3, [lr]
    89bc:	e2833017 	add	r3, r3, #23	; 0x17
    89c0:	e5c53000 	strb	r3, [r5]
    89c4:	e2433026 	sub	r3, r3, #38	; 0x26
    89c8:	e7c43002 	strb	r3, [r4, r2]
    89cc:	02433003 	subeq	r3, r3, #3	; 0x3
    89d0:	05cc3000 	streqb	r3, [ip]
    89d4:	e51f6ad4 	ldr	r6, [pc, #-2772]	; 7f08 <.text+0x3f08>
    89d8:	e5dc0000 	ldrb	r0, [ip]
    89dc:	e5d61000 	ldrb	r1, [r6]
    89e0:	e2802001 	add	r2, r0, #1	; 0x1
    89e4:	e2813012 	add	r3, r1, #18	; 0x12
    89e8:	e5cc2000 	strb	r2, [ip]
    89ec:	e5ce3000 	strb	r3, [lr]
    89f0:	e5dc3000 	ldrb	r3, [ip]
    89f4:	e5de2000 	ldrb	r2, [lr]
    89f8:	e35300ff 	cmp	r3, #255	; 0xff
    89fc:	e2823029 	add	r3, r2, #41	; 0x29
    8a00:	e5c53000 	strb	r3, [r5]
    8a04:	03a03000 	moveq	r3, #0	; 0x0
    8a08:	05cc3000 	streqb	r3, [ip]
    8a0c:	e7c41000 	strb	r1, [r4, r0]
    8a10:	e5dc1000 	ldrb	r1, [ip]
    8a14:	e5d60001 	ldrb	r0, [r6, #1]
    8a18:	e0803002 	add	r3, r0, r2
    8a1c:	e2812001 	add	r2, r1, #1	; 0x1
    8a20:	e5ce3000 	strb	r3, [lr]
    8a24:	e5cc2000 	strb	r2, [ip]
    8a28:	e5dee000 	ldrb	lr, [lr]
    8a2c:	e5dc2000 	ldrb	r2, [ip]
    8a30:	e5d53000 	ldrb	r3, [r5]
    8a34:	e35200ff 	cmp	r2, #255	; 0xff
    8a38:	e083300e 	add	r3, r3, lr
    8a3c:	e5c53000 	strb	r3, [r5]
    8a40:	03a03000 	moveq	r3, #0	; 0x0
    8a44:	05cc3000 	streqb	r3, [ip]
    8a48:	e5dc3000 	ldrb	r3, [ip]
    8a4c:	e2832001 	add	r2, r3, #1	; 0x1
    8a50:	e5cc2000 	strb	r2, [ip]
    8a54:	e5dc2000 	ldrb	r2, [ip]
    8a58:	e35200ff 	cmp	r2, #255	; 0xff
    8a5c:	e7c40001 	strb	r0, [r4, r1]
    8a60:	e7c4e003 	strb	lr, [r4, r3]
    8a64:	03a03000 	moveq	r3, #0	; 0x0
    8a68:	05cc3000 	streqb	r3, [ip]
    8a6c:	e5dc1000 	ldrb	r1, [ip]
    8a70:	e2813001 	add	r3, r1, #1	; 0x1
    8a74:	e5cc3000 	strb	r3, [ip]
    8a78:	e5dc3000 	ldrb	r3, [ip]
    8a7c:	e5d52000 	ldrb	r2, [r5]
    8a80:	e35300ff 	cmp	r3, #255	; 0xff
    8a84:	e7c42001 	strb	r2, [r4, r1]
    8a88:	ea000539 	b	9f74 <.text+0x5f74>
    8a8c:	e3530012 	cmp	r3, #18	; 0x12
    8a90:	1a0001b6 	bne	9170 <.text+0x5170>
    8a94:	e51f1b90 	ldr	r1, [pc, #-2960]	; 7f0c <.text+0x3f0c>
    8a98:	e51f0b8c 	ldr	r0, [pc, #-2956]	; 7f14 <.text+0x3f14>
    8a9c:	e5d13000 	ldrb	r3, [r1]
    8aa0:	e5d02000 	ldrb	r2, [r0]
    8aa4:	e1520003 	cmp	r2, r3
    8aa8:	25d13000 	ldrcsb	r3, [r1]
    8aac:	35d13000 	ldrccb	r3, [r1]
    8ab0:	20633002 	rsbcs	r3, r3, r2
    8ab4:	226330ff 	rsbcs	r3, r3, #255	; 0xff
    8ab8:	30623003 	rsbcc	r3, r2, r3
    8abc:	e353001e 	cmp	r3, #30	; 0x1e
    8ac0:	da00052e 	ble	9f80 <.text+0x5f80>
    8ac4:	e5d02000 	ldrb	r2, [r0]
    8ac8:	e2823001 	add	r3, r2, #1	; 0x1
    8acc:	e5c03000 	strb	r3, [r0]
    8ad0:	e5d03000 	ldrb	r3, [r0]
    8ad4:	e51f6bcc 	ldr	r6, [pc, #-3020]	; 7f10 <.text+0x3f10>
    8ad8:	e35300ff 	cmp	r3, #255	; 0xff
    8adc:	e3e03066 	mvn	r3, #102	; 0x66
    8ae0:	e7c63002 	strb	r3, [r6, r2]
    8ae4:	02833067 	addeq	r3, r3, #103	; 0x67
    8ae8:	e51fcbdc 	ldr	ip, [pc, #-3036]	; 7f14 <.text+0x3f14>
    8aec:	05c03000 	streqb	r3, [r0]
    8af0:	e5dc2000 	ldrb	r2, [ip]
    8af4:	e2823001 	add	r3, r2, #1	; 0x1
    8af8:	e5cc3000 	strb	r3, [ip]
    8afc:	e5dc3000 	ldrb	r3, [ip]
    8b00:	e35300ff 	cmp	r3, #255	; 0xff
    8b04:	e3a0301e 	mov	r3, #30	; 0x1e
    8b08:	e7c63002 	strb	r3, [r6, r2]
    8b0c:	0243301e 	subeq	r3, r3, #30	; 0x1e
    8b10:	05cc3000 	streqb	r3, [ip]
    8b14:	e5dc2000 	ldrb	r2, [ip]
    8b18:	e2823001 	add	r3, r2, #1	; 0x1
    8b1c:	e5cc3000 	strb	r3, [ip]
    8b20:	e5dc3000 	ldrb	r3, [ip]
    8b24:	e51fec14 	ldr	lr, [pc, #-3092]	; 7f18 <.text+0x3f18>
    8b28:	e51f4c14 	ldr	r4, [pc, #-3092]	; 7f1c <.text+0x3f1c>
    8b2c:	e35300ff 	cmp	r3, #255	; 0xff
    8b30:	e3a03025 	mov	r3, #37	; 0x25
    8b34:	e5ce3000 	strb	r3, [lr]
    8b38:	e283301e 	add	r3, r3, #30	; 0x1e
    8b3c:	e5c43000 	strb	r3, [r4]
    8b40:	e243303c 	sub	r3, r3, #60	; 0x3c
    8b44:	e7c63002 	strb	r3, [r6, r2]
    8b48:	02433007 	subeq	r3, r3, #7	; 0x7
    8b4c:	05cc3000 	streqb	r3, [ip]
    8b50:	e5dc2000 	ldrb	r2, [ip]
    8b54:	e2823001 	add	r3, r2, #1	; 0x1
    8b58:	e5cc3000 	strb	r3, [ip]
    8b5c:	e5dc3000 	ldrb	r3, [ip]
    8b60:	e35300ff 	cmp	r3, #255	; 0xff
    8b64:	e3a03035 	mov	r3, #53	; 0x35
    8b68:	e5ce3000 	strb	r3, [lr]
    8b6c:	e2833043 	add	r3, r3, #67	; 0x43
    8b70:	e5c43000 	strb	r3, [r4]
    8b74:	e2433068 	sub	r3, r3, #104	; 0x68
    8b78:	e7c63002 	strb	r3, [r6, r2]
    8b7c:	02433010 	subeq	r3, r3, #16	; 0x10
    8b80:	05cc3000 	streqb	r3, [ip]
    8b84:	e51f7c6c 	ldr	r7, [pc, #-3180]	; 7f20 <.text+0x3f20>
    8b88:	e5dc0000 	ldrb	r0, [ip]
    8b8c:	e5d71000 	ldrb	r1, [r7]
    8b90:	e2802001 	add	r2, r0, #1	; 0x1
    8b94:	e2813035 	add	r3, r1, #53	; 0x35
    8b98:	e5cc2000 	strb	r2, [ip]
    8b9c:	e5ce3000 	strb	r3, [lr]
    8ba0:	e5dc3000 	ldrb	r3, [ip]
    8ba4:	e5de5000 	ldrb	r5, [lr]
    8ba8:	e35300ff 	cmp	r3, #255	; 0xff
    8bac:	e2853078 	add	r3, r5, #120	; 0x78
    8bb0:	e5c43000 	strb	r3, [r4]
    8bb4:	03a03000 	moveq	r3, #0	; 0x0
    8bb8:	05cc3000 	streqb	r3, [ip]
    8bbc:	e7c61000 	strb	r1, [r6, r0]
    8bc0:	e5dc0000 	ldrb	r0, [ip]
    8bc4:	e5d71001 	ldrb	r1, [r7, #1]
    8bc8:	e2802001 	add	r2, r0, #1	; 0x1
    8bcc:	e0813005 	add	r3, r1, r5
    8bd0:	e5ce3000 	strb	r3, [lr]
    8bd4:	e5cc2000 	strb	r2, [ip]
    8bd8:	e5dc3000 	ldrb	r3, [ip]
    8bdc:	e35300ff 	cmp	r3, #255	; 0xff
    8be0:	e5de5000 	ldrb	r5, [lr]
    8be4:	e5d42000 	ldrb	r2, [r4]
    8be8:	024330ff 	subeq	r3, r3, #255	; 0xff
    8bec:	05cc3000 	streqb	r3, [ip]
    8bf0:	e0822005 	add	r2, r2, r5
    8bf4:	e5c42000 	strb	r2, [r4]
    8bf8:	e7c61000 	strb	r1, [r6, r0]
    8bfc:	e5dc0000 	ldrb	r0, [ip]
    8c00:	e5d71002 	ldrb	r1, [r7, #2]
    8c04:	e2802001 	add	r2, r0, #1	; 0x1
    8c08:	e5cc2000 	strb	r2, [ip]
    8c0c:	e0813005 	add	r3, r1, r5
    8c10:	e5ce3000 	strb	r3, [lr]
    8c14:	e5dc3000 	ldrb	r3, [ip]
    8c18:	e35300ff 	cmp	r3, #255	; 0xff
    8c1c:	e5de5000 	ldrb	r5, [lr]
    8c20:	e5d42000 	ldrb	r2, [r4]
    8c24:	024330ff 	subeq	r3, r3, #255	; 0xff
    8c28:	05cc3000 	streqb	r3, [ip]
    8c2c:	e0822005 	add	r2, r2, r5
    8c30:	e5c42000 	strb	r2, [r4]
    8c34:	e7c61000 	strb	r1, [r6, r0]
    8c38:	e5dc1000 	ldrb	r1, [ip]
    8c3c:	e5d70003 	ldrb	r0, [r7, #3]
    8c40:	e2812001 	add	r2, r1, #1	; 0x1
    8c44:	e5cc2000 	strb	r2, [ip]
    8c48:	e0803005 	add	r3, r0, r5
    8c4c:	e5ce3000 	strb	r3, [lr]
    8c50:	e5dc3000 	ldrb	r3, [ip]
    8c54:	e5de5000 	ldrb	r5, [lr]
    8c58:	e35300ff 	cmp	r3, #255	; 0xff
    8c5c:	e5d42000 	ldrb	r2, [r4]
    8c60:	024330ff 	subeq	r3, r3, #255	; 0xff
    8c64:	05cc3000 	streqb	r3, [ip]
    8c68:	e0822005 	add	r2, r2, r5
    8c6c:	e51f7d50 	ldr	r7, [pc, #-3408]	; 7f24 <.text+0x3f24>
    8c70:	e5c42000 	strb	r2, [r4]
    8c74:	e7c60001 	strb	r0, [r6, r1]
    8c78:	e5dc0000 	ldrb	r0, [ip]
    8c7c:	e5d71000 	ldrb	r1, [r7]
    8c80:	e2802001 	add	r2, r0, #1	; 0x1
    8c84:	e0813005 	add	r3, r1, r5
    8c88:	e5cc2000 	strb	r2, [ip]
    8c8c:	e5ce3000 	strb	r3, [lr]
    8c90:	e5dc3000 	ldrb	r3, [ip]
    8c94:	e5de5000 	ldrb	r5, [lr]
    8c98:	e5d42000 	ldrb	r2, [r4]
    8c9c:	e35300ff 	cmp	r3, #255	; 0xff
    8ca0:	e0822005 	add	r2, r2, r5
    8ca4:	024330ff 	subeq	r3, r3, #255	; 0xff
    8ca8:	e5c42000 	strb	r2, [r4]
    8cac:	05cc3000 	streqb	r3, [ip]
    8cb0:	e7c61000 	strb	r1, [r6, r0]
    8cb4:	e5dc0000 	ldrb	r0, [ip]
    8cb8:	e5d71001 	ldrb	r1, [r7, #1]
    8cbc:	e2802001 	add	r2, r0, #1	; 0x1
    8cc0:	e5cc2000 	strb	r2, [ip]
    8cc4:	e0813005 	add	r3, r1, r5
    8cc8:	e5ce3000 	strb	r3, [lr]
    8ccc:	e5dc3000 	ldrb	r3, [ip]
    8cd0:	e35300ff 	cmp	r3, #255	; 0xff
    8cd4:	e5de5000 	ldrb	r5, [lr]
    8cd8:	e5d42000 	ldrb	r2, [r4]
    8cdc:	024330ff 	subeq	r3, r3, #255	; 0xff
    8ce0:	05cc3000 	streqb	r3, [ip]
    8ce4:	e0822005 	add	r2, r2, r5
    8ce8:	e5c42000 	strb	r2, [r4]
    8cec:	e7c61000 	strb	r1, [r6, r0]
    8cf0:	e5dc0000 	ldrb	r0, [ip]
    8cf4:	e5d71002 	ldrb	r1, [r7, #2]
    8cf8:	e2802001 	add	r2, r0, #1	; 0x1
    8cfc:	e5cc2000 	strb	r2, [ip]
    8d00:	e0813005 	add	r3, r1, r5
    8d04:	e5ce3000 	strb	r3, [lr]
    8d08:	e5dc3000 	ldrb	r3, [ip]
    8d0c:	e5de5000 	ldrb	r5, [lr]
    8d10:	e5d42000 	ldrb	r2, [r4]
    8d14:	e35300ff 	cmp	r3, #255	; 0xff
    8d18:	024330ff 	subeq	r3, r3, #255	; 0xff
    8d1c:	05cc3000 	streqb	r3, [ip]
    8d20:	e0822005 	add	r2, r2, r5
    8d24:	e5c42000 	strb	r2, [r4]
    8d28:	e7c61000 	strb	r1, [r6, r0]
    8d2c:	e5dc1000 	ldrb	r1, [ip]
    8d30:	e5d70003 	ldrb	r0, [r7, #3]
    8d34:	e2812001 	add	r2, r1, #1	; 0x1
    8d38:	e5cc2000 	strb	r2, [ip]
    8d3c:	e0803005 	add	r3, r0, r5
    8d40:	e5ce3000 	strb	r3, [lr]
    8d44:	e5dc3000 	ldrb	r3, [ip]
    8d48:	e5de5000 	ldrb	r5, [lr]
    8d4c:	e5d42000 	ldrb	r2, [r4]
    8d50:	e35300ff 	cmp	r3, #255	; 0xff
    8d54:	e0822005 	add	r2, r2, r5
    8d58:	024330ff 	subeq	r3, r3, #255	; 0xff
    8d5c:	05cc3000 	streqb	r3, [ip]
    8d60:	e51f7e40 	ldr	r7, [pc, #-3648]	; 7f28 <.text+0x3f28>
    8d64:	e5c42000 	strb	r2, [r4]
    8d68:	e7c60001 	strb	r0, [r6, r1]
    8d6c:	e5dc0000 	ldrb	r0, [ip]
    8d70:	e5d71000 	ldrb	r1, [r7]
    8d74:	e2802001 	add	r2, r0, #1	; 0x1
    8d78:	e0813005 	add	r3, r1, r5
    8d7c:	e5ce3000 	strb	r3, [lr]
    8d80:	e5cc2000 	strb	r2, [ip]
    8d84:	e5dc3000 	ldrb	r3, [ip]
    8d88:	e35300ff 	cmp	r3, #255	; 0xff
    8d8c:	e5de5000 	ldrb	r5, [lr]
    8d90:	e5d42000 	ldrb	r2, [r4]
    8d94:	024330ff 	subeq	r3, r3, #255	; 0xff
    8d98:	05cc3000 	streqb	r3, [ip]
    8d9c:	e0822005 	add	r2, r2, r5
    8da0:	e5c42000 	strb	r2, [r4]
    8da4:	e7c61000 	strb	r1, [r6, r0]
    8da8:	e5dc0000 	ldrb	r0, [ip]
    8dac:	e5d71001 	ldrb	r1, [r7, #1]
    8db0:	e2802001 	add	r2, r0, #1	; 0x1
    8db4:	e5cc2000 	strb	r2, [ip]
    8db8:	e0813005 	add	r3, r1, r5
    8dbc:	e5ce3000 	strb	r3, [lr]
    8dc0:	e5dc3000 	ldrb	r3, [ip]
    8dc4:	e35300ff 	cmp	r3, #255	; 0xff
    8dc8:	e5de5000 	ldrb	r5, [lr]
    8dcc:	e5d42000 	ldrb	r2, [r4]
    8dd0:	024330ff 	subeq	r3, r3, #255	; 0xff
    8dd4:	05cc3000 	streqb	r3, [ip]
    8dd8:	e0822005 	add	r2, r2, r5
    8ddc:	e5c42000 	strb	r2, [r4]
    8de0:	e7c61000 	strb	r1, [r6, r0]
    8de4:	e5dc0000 	ldrb	r0, [ip]
    8de8:	e5d71002 	ldrb	r1, [r7, #2]
    8dec:	e2802001 	add	r2, r0, #1	; 0x1
    8df0:	e5cc2000 	strb	r2, [ip]
    8df4:	e0813005 	add	r3, r1, r5
    8df8:	e5ce3000 	strb	r3, [lr]
    8dfc:	e5dc3000 	ldrb	r3, [ip]
    8e00:	e5de5000 	ldrb	r5, [lr]
    8e04:	e35300ff 	cmp	r3, #255	; 0xff
    8e08:	e5d42000 	ldrb	r2, [r4]
    8e0c:	024330ff 	subeq	r3, r3, #255	; 0xff
    8e10:	05cc3000 	streqb	r3, [ip]
    8e14:	e0822005 	add	r2, r2, r5
    8e18:	e5c42000 	strb	r2, [r4]
    8e1c:	e7c61000 	strb	r1, [r6, r0]
    8e20:	e5dc1000 	ldrb	r1, [ip]
    8e24:	e5d70003 	ldrb	r0, [r7, #3]
    8e28:	e2812001 	add	r2, r1, #1	; 0x1
    8e2c:	e0803005 	add	r3, r0, r5
    8e30:	e5cc2000 	strb	r2, [ip]
    8e34:	e5ce3000 	strb	r3, [lr]
    8e38:	e5dc3000 	ldrb	r3, [ip]
    8e3c:	e5de5000 	ldrb	r5, [lr]
    8e40:	e5d42000 	ldrb	r2, [r4]
    8e44:	e35300ff 	cmp	r3, #255	; 0xff
    8e48:	e0822005 	add	r2, r2, r5
    8e4c:	024330ff 	subeq	r3, r3, #255	; 0xff
    8e50:	e5c42000 	strb	r2, [r4]
    8e54:	05cc3000 	streqb	r3, [ip]
    8e58:	e7c60001 	strb	r0, [r6, r1]
    8e5c:	e51f7f38 	ldr	r7, [pc, #-3896]	; 7f2c <.text+0x3f2c>
    8e60:	e5dc0000 	ldrb	r0, [ip]
    8e64:	e5d71000 	ldrb	r1, [r7]
    8e68:	e2802001 	add	r2, r0, #1	; 0x1
    8e6c:	e5cc2000 	strb	r2, [ip]
    8e70:	e0813005 	add	r3, r1, r5
    8e74:	e5ce3000 	strb	r3, [lr]
    8e78:	e5dc3000 	ldrb	r3, [ip]
    8e7c:	e35300ff 	cmp	r3, #255	; 0xff
    8e80:	e5de5000 	ldrb	r5, [lr]
    8e84:	e5d42000 	ldrb	r2, [r4]
    8e88:	024330ff 	subeq	r3, r3, #255	; 0xff
    8e8c:	05cc3000 	streqb	r3, [ip]
    8e90:	e0822005 	add	r2, r2, r5
    8e94:	e5c42000 	strb	r2, [r4]
    8e98:	e7c61000 	strb	r1, [r6, r0]
    8e9c:	e5dc0000 	ldrb	r0, [ip]
    8ea0:	e5d71001 	ldrb	r1, [r7, #1]
    8ea4:	e2802001 	add	r2, r0, #1	; 0x1
    8ea8:	e5cc2000 	strb	r2, [ip]
    8eac:	e0813005 	add	r3, r1, r5
    8eb0:	e5ce3000 	strb	r3, [lr]
    8eb4:	e5dc3000 	ldrb	r3, [ip]
    8eb8:	e5de5000 	ldrb	r5, [lr]
    8ebc:	e5d42000 	ldrb	r2, [r4]
    8ec0:	e35300ff 	cmp	r3, #255	; 0xff
    8ec4:	024330ff 	subeq	r3, r3, #255	; 0xff
    8ec8:	05cc3000 	streqb	r3, [ip]
    8ecc:	e0822005 	add	r2, r2, r5
    8ed0:	e5c42000 	strb	r2, [r4]
    8ed4:	e7c61000 	strb	r1, [r6, r0]
    8ed8:	e5dc0000 	ldrb	r0, [ip]
    8edc:	e5d71002 	ldrb	r1, [r7, #2]
    8ee0:	e2802001 	add	r2, r0, #1	; 0x1
    8ee4:	e5cc2000 	strb	r2, [ip]
    8ee8:	e0813005 	add	r3, r1, r5
    8eec:	e5ce3000 	strb	r3, [lr]
    8ef0:	e5dc3000 	ldrb	r3, [ip]
    8ef4:	e5de5000 	ldrb	r5, [lr]
    8ef8:	e5d42000 	ldrb	r2, [r4]
    8efc:	e35300ff 	cmp	r3, #255	; 0xff
    8f00:	e0822005 	add	r2, r2, r5
    8f04:	024330ff 	subeq	r3, r3, #255	; 0xff
    8f08:	05cc3000 	streqb	r3, [ip]
    8f0c:	e5c42000 	strb	r2, [r4]
    8f10:	e7c61000 	strb	r1, [r6, r0]
    8f14:	e5dc1000 	ldrb	r1, [ip]
    8f18:	e5d70003 	ldrb	r0, [r7, #3]
    8f1c:	e2812001 	add	r2, r1, #1	; 0x1
    8f20:	e0803005 	add	r3, r0, r5
    8f24:	e5ce3000 	strb	r3, [lr]
    8f28:	e5cc2000 	strb	r2, [ip]
    8f2c:	e5dc3000 	ldrb	r3, [ip]
    8f30:	e35300ff 	cmp	r3, #255	; 0xff
    8f34:	e5de5000 	ldrb	r5, [lr]
    8f38:	e5d42000 	ldrb	r2, [r4]
    8f3c:	024330ff 	subeq	r3, r3, #255	; 0xff
    8f40:	05cc3000 	streqb	r3, [ip]
    8f44:	e0822005 	add	r2, r2, r5
    8f48:	e5c42000 	strb	r2, [r4]
    8f4c:	e7c60001 	strb	r0, [r6, r1]
    8f50:	e59f7cd0 	ldr	r7, [pc, #3280]	; 9c28 <.text+0x5c28>
    8f54:	e5dc0000 	ldrb	r0, [ip]
    8f58:	e5d71000 	ldrb	r1, [r7]
    8f5c:	e2802001 	add	r2, r0, #1	; 0x1
    8f60:	e5cc2000 	strb	r2, [ip]
    8f64:	e0813005 	add	r3, r1, r5
    8f68:	e5ce3000 	strb	r3, [lr]
    8f6c:	e5dc3000 	ldrb	r3, [ip]
    8f70:	e35300ff 	cmp	r3, #255	; 0xff
    8f74:	e5de5000 	ldrb	r5, [lr]
    8f78:	e5d42000 	ldrb	r2, [r4]
    8f7c:	024330ff 	subeq	r3, r3, #255	; 0xff
    8f80:	05cc3000 	streqb	r3, [ip]
    8f84:	e0822005 	add	r2, r2, r5
    8f88:	e5c42000 	strb	r2, [r4]
    8f8c:	e7c61000 	strb	r1, [r6, r0]
    8f90:	e5dc0000 	ldrb	r0, [ip]
    8f94:	e5d71001 	ldrb	r1, [r7, #1]
    8f98:	e2802001 	add	r2, r0, #1	; 0x1
    8f9c:	e5cc2000 	strb	r2, [ip]
    8fa0:	e0813005 	add	r3, r1, r5
    8fa4:	e5ce3000 	strb	r3, [lr]
    8fa8:	e5dc3000 	ldrb	r3, [ip]
    8fac:	e5de5000 	ldrb	r5, [lr]
    8fb0:	e35300ff 	cmp	r3, #255	; 0xff
    8fb4:	e5d42000 	ldrb	r2, [r4]
    8fb8:	024330ff 	subeq	r3, r3, #255	; 0xff
    8fbc:	05cc3000 	streqb	r3, [ip]
    8fc0:	e0822005 	add	r2, r2, r5
    8fc4:	e5c42000 	strb	r2, [r4]
    8fc8:	e7c61000 	strb	r1, [r6, r0]
    8fcc:	e5dc0000 	ldrb	r0, [ip]
    8fd0:	e5d71002 	ldrb	r1, [r7, #2]
    8fd4:	e2802001 	add	r2, r0, #1	; 0x1
    8fd8:	e0813005 	add	r3, r1, r5
    8fdc:	e5cc2000 	strb	r2, [ip]
    8fe0:	e5ce3000 	strb	r3, [lr]
    8fe4:	e5dc3000 	ldrb	r3, [ip]
    8fe8:	e5de5000 	ldrb	r5, [lr]
    8fec:	e5d42000 	ldrb	r2, [r4]
    8ff0:	e35300ff 	cmp	r3, #255	; 0xff
    8ff4:	e0822005 	add	r2, r2, r5
    8ff8:	024330ff 	subeq	r3, r3, #255	; 0xff
    8ffc:	e5c42000 	strb	r2, [r4]
    9000:	05cc3000 	streqb	r3, [ip]
    9004:	e7c61000 	strb	r1, [r6, r0]
    9008:	e5dc1000 	ldrb	r1, [ip]
    900c:	e5d70003 	ldrb	r0, [r7, #3]
    9010:	e2812001 	add	r2, r1, #1	; 0x1
    9014:	e5cc2000 	strb	r2, [ip]
    9018:	e0803005 	add	r3, r0, r5
    901c:	e5ce3000 	strb	r3, [lr]
    9020:	e5dc3000 	ldrb	r3, [ip]
    9024:	e35300ff 	cmp	r3, #255	; 0xff
    9028:	e5de5000 	ldrb	r5, [lr]
    902c:	e5d42000 	ldrb	r2, [r4]
    9030:	024330ff 	subeq	r3, r3, #255	; 0xff
    9034:	05cc3000 	streqb	r3, [ip]
    9038:	e0822005 	add	r2, r2, r5
    903c:	e5c42000 	strb	r2, [r4]
    9040:	e7c60001 	strb	r0, [r6, r1]
    9044:	e59f7be0 	ldr	r7, [pc, #3040]	; 9c2c <.text+0x5c2c>
    9048:	e5dc0000 	ldrb	r0, [ip]
    904c:	e5d71000 	ldrb	r1, [r7]
    9050:	e2802001 	add	r2, r0, #1	; 0x1
    9054:	e5cc2000 	strb	r2, [ip]
    9058:	e0813005 	add	r3, r1, r5
    905c:	e5ce3000 	strb	r3, [lr]
    9060:	e5dc3000 	ldrb	r3, [ip]
    9064:	e5de5000 	ldrb	r5, [lr]
    9068:	e5d42000 	ldrb	r2, [r4]
    906c:	e35300ff 	cmp	r3, #255	; 0xff
    9070:	024330ff 	subeq	r3, r3, #255	; 0xff
    9074:	05cc3000 	streqb	r3, [ip]
    9078:	e0822005 	add	r2, r2, r5
    907c:	e5c42000 	strb	r2, [r4]
    9080:	e7c61000 	strb	r1, [r6, r0]
    9084:	e5dc0000 	ldrb	r0, [ip]
    9088:	e5d71001 	ldrb	r1, [r7, #1]
    908c:	e2802001 	add	r2, r0, #1	; 0x1
    9090:	e5cc2000 	strb	r2, [ip]
    9094:	e0813005 	add	r3, r1, r5
    9098:	e5ce3000 	strb	r3, [lr]
    909c:	e5dc3000 	ldrb	r3, [ip]
    90a0:	e5de5000 	ldrb	r5, [lr]
    90a4:	e5d42000 	ldrb	r2, [r4]
    90a8:	e35300ff 	cmp	r3, #255	; 0xff
    90ac:	e0822005 	add	r2, r2, r5
    90b0:	024330ff 	subeq	r3, r3, #255	; 0xff
    90b4:	05cc3000 	streqb	r3, [ip]
    90b8:	e5c42000 	strb	r2, [r4]
    90bc:	e7c61000 	strb	r1, [r6, r0]
    90c0:	e5dc0000 	ldrb	r0, [ip]
    90c4:	e5d71002 	ldrb	r1, [r7, #2]
    90c8:	e2802001 	add	r2, r0, #1	; 0x1
    90cc:	e0813005 	add	r3, r1, r5
    90d0:	e5ce3000 	strb	r3, [lr]
    90d4:	e5cc2000 	strb	r2, [ip]
    90d8:	e5dc3000 	ldrb	r3, [ip]
    90dc:	e5de5000 	ldrb	r5, [lr]
    90e0:	e5d42000 	ldrb	r2, [r4]
    90e4:	e35300ff 	cmp	r3, #255	; 0xff
    90e8:	024330ff 	subeq	r3, r3, #255	; 0xff
    90ec:	e0822005 	add	r2, r2, r5
    90f0:	05cc3000 	streqb	r3, [ip]
    90f4:	e5c42000 	strb	r2, [r4]
    90f8:	e7c61000 	strb	r1, [r6, r0]
    90fc:	e5dc1000 	ldrb	r1, [ip]
    9100:	e5d70003 	ldrb	r0, [r7, #3]
    9104:	e2812001 	add	r2, r1, #1	; 0x1
    9108:	e0803005 	add	r3, r0, r5
    910c:	e5cc2000 	strb	r2, [ip]
    9110:	e5ce3000 	strb	r3, [lr]
    9114:	e5dc2000 	ldrb	r2, [ip]
    9118:	e5dee000 	ldrb	lr, [lr]
    911c:	e5d43000 	ldrb	r3, [r4]
    9120:	e35200ff 	cmp	r2, #255	; 0xff
    9124:	e083300e 	add	r3, r3, lr
    9128:	e5c43000 	strb	r3, [r4]
    912c:	03a03000 	moveq	r3, #0	; 0x0
    9130:	05cc3000 	streqb	r3, [ip]
    9134:	e5dc3000 	ldrb	r3, [ip]
    9138:	e2832001 	add	r2, r3, #1	; 0x1
    913c:	e5cc2000 	strb	r2, [ip]
    9140:	e5dc2000 	ldrb	r2, [ip]
    9144:	e35200ff 	cmp	r2, #255	; 0xff
    9148:	e7c60001 	strb	r0, [r6, r1]
    914c:	e7c6e003 	strb	lr, [r6, r3]
    9150:	03a03000 	moveq	r3, #0	; 0x0
    9154:	05cc3000 	streqb	r3, [ip]
    9158:	e5dc1000 	ldrb	r1, [ip]
    915c:	e2813001 	add	r3, r1, #1	; 0x1
    9160:	e5cc3000 	strb	r3, [ip]
    9164:	e5d42000 	ldrb	r2, [r4]
    9168:	e5dc3000 	ldrb	r3, [ip]
    916c:	ea00037e 	b	9f6c <.text+0x5f6c>
    9170:	e3530018 	cmp	r3, #24	; 0x18
    9174:	1a00007e 	bne	9374 <.text+0x5374>
    9178:	e59f3ab0 	ldr	r3, [pc, #2736]	; 9c30 <.text+0x5c30>
    917c:	e5d33000 	ldrb	r3, [r3]
    9180:	e3530000 	cmp	r3, #0	; 0x0
    9184:	0a000381 	beq	9f90 <.text+0x5f90>
    9188:	e59f1b20 	ldr	r1, [pc, #2848]	; 9cb0 <.text+0x5cb0>
    918c:	e59f0b24 	ldr	r0, [pc, #2852]	; 9cb8 <.text+0x5cb8>
    9190:	e5d13000 	ldrb	r3, [r1]
    9194:	e5d02000 	ldrb	r2, [r0]
    9198:	e1520003 	cmp	r2, r3
    919c:	25d13000 	ldrcsb	r3, [r1]
    91a0:	35d13000 	ldrccb	r3, [r1]
    91a4:	20633002 	rsbcs	r3, r3, r2
    91a8:	226330ff 	rsbcs	r3, r3, #255	; 0xff
    91ac:	30623003 	rsbcc	r3, r2, r3
    91b0:	e353000c 	cmp	r3, #12	; 0xc
    91b4:	da000371 	ble	9f80 <.text+0x5f80>
    91b8:	e5d02000 	ldrb	r2, [r0]
    91bc:	e2823001 	add	r3, r2, #1	; 0x1
    91c0:	e5c03000 	strb	r3, [r0]
    91c4:	e5d03000 	ldrb	r3, [r0]
    91c8:	e59f6ae4 	ldr	r6, [pc, #2788]	; 9cb4 <.text+0x5cb4>
    91cc:	e35300ff 	cmp	r3, #255	; 0xff
    91d0:	e3e03066 	mvn	r3, #102	; 0x66
    91d4:	e7c63002 	strb	r3, [r6, r2]
    91d8:	02833067 	addeq	r3, r3, #103	; 0x67
    91dc:	e59fcad4 	ldr	ip, [pc, #2772]	; 9cb8 <.text+0x5cb8>
    91e0:	05c03000 	streqb	r3, [r0]
    91e4:	e5dc2000 	ldrb	r2, [ip]
    91e8:	e2823001 	add	r3, r2, #1	; 0x1
    91ec:	e5cc3000 	strb	r3, [ip]
    91f0:	e5dc3000 	ldrb	r3, [ip]
    91f4:	e35300ff 	cmp	r3, #255	; 0xff
    91f8:	e3a0300c 	mov	r3, #12	; 0xc
    91fc:	e7c63002 	strb	r3, [r6, r2]
    9200:	0243300c 	subeq	r3, r3, #12	; 0xc
    9204:	05cc3000 	streqb	r3, [ip]
    9208:	e5dc2000 	ldrb	r2, [ip]
    920c:	e2823001 	add	r3, r2, #1	; 0x1
    9210:	e5cc3000 	strb	r3, [ip]
    9214:	e5dc3000 	ldrb	r3, [ip]
    9218:	e59f4a9c 	ldr	r4, [pc, #2716]	; 9cbc <.text+0x5cbc>
    921c:	e59f5a9c 	ldr	r5, [pc, #2716]	; 9cc0 <.text+0x5cc0>
    9220:	e35300ff 	cmp	r3, #255	; 0xff
    9224:	e3a03013 	mov	r3, #19	; 0x13
    9228:	e5c43000 	strb	r3, [r4]
    922c:	e283300c 	add	r3, r3, #12	; 0xc
    9230:	e5c53000 	strb	r3, [r5]
    9234:	e2433018 	sub	r3, r3, #24	; 0x18
    9238:	e7c63002 	strb	r3, [r6, r2]
    923c:	02433007 	subeq	r3, r3, #7	; 0x7
    9240:	05cc3000 	streqb	r3, [ip]
    9244:	e5dc2000 	ldrb	r2, [ip]
    9248:	e2823001 	add	r3, r2, #1	; 0x1
    924c:	e5cc3000 	strb	r3, [ip]
    9250:	e5dc3000 	ldrb	r3, [ip]
    9254:	e35300ff 	cmp	r3, #255	; 0xff
    9258:	e3a03028 	mov	r3, #40	; 0x28
    925c:	e5c43000 	strb	r3, [r4]
    9260:	e283301f 	add	r3, r3, #31	; 0x1f
    9264:	e5c53000 	strb	r3, [r5]
    9268:	e2433032 	sub	r3, r3, #50	; 0x32
    926c:	e7c63002 	strb	r3, [r6, r2]
    9270:	02433015 	subeq	r3, r3, #21	; 0x15
    9274:	05cc3000 	streqb	r3, [ip]
    9278:	e59fe9b4 	ldr	lr, [pc, #2484]	; 9c34 <.text+0x5c34>
    927c:	e5dc0000 	ldrb	r0, [ip]
    9280:	e5de1000 	ldrb	r1, [lr]
    9284:	e2802001 	add	r2, r0, #1	; 0x1
    9288:	e2813028 	add	r3, r1, #40	; 0x28
    928c:	e5cc2000 	strb	r2, [ip]
    9290:	e5c43000 	strb	r3, [r4]
    9294:	e5dc3000 	ldrb	r3, [ip]
    9298:	e5d42000 	ldrb	r2, [r4]
    929c:	e35300ff 	cmp	r3, #255	; 0xff
    92a0:	e2823047 	add	r3, r2, #71	; 0x47
    92a4:	e5c53000 	strb	r3, [r5]
    92a8:	03a03000 	moveq	r3, #0	; 0x0
    92ac:	05cc3000 	streqb	r3, [ip]
    92b0:	e7c61000 	strb	r1, [r6, r0]
    92b4:	e5dc1000 	ldrb	r1, [ip]
    92b8:	e5de0001 	ldrb	r0, [lr, #1]
    92bc:	e0803002 	add	r3, r0, r2
    92c0:	e2812001 	add	r2, r1, #1	; 0x1
    92c4:	e5c43000 	strb	r3, [r4]
    92c8:	e5cc2000 	strb	r2, [ip]
    92cc:	e5dc3000 	ldrb	r3, [ip]
    92d0:	e35300ff 	cmp	r3, #255	; 0xff
    92d4:	e5d4e000 	ldrb	lr, [r4]
    92d8:	e5d52000 	ldrb	r2, [r5]
    92dc:	024330ff 	subeq	r3, r3, #255	; 0xff
    92e0:	05cc3000 	streqb	r3, [ip]
    92e4:	e082200e 	add	r2, r2, lr
    92e8:	e5c52000 	strb	r2, [r5]
    92ec:	e7c60001 	strb	r0, [r6, r1]
    92f0:	e59f7940 	ldr	r7, [pc, #2368]	; 9c38 <.text+0x5c38>
    92f4:	e5dc0000 	ldrb	r0, [ip]
    92f8:	e5d71000 	ldrb	r1, [r7]
    92fc:	e2802001 	add	r2, r0, #1	; 0x1
    9300:	e5cc2000 	strb	r2, [ip]
    9304:	e081300e 	add	r3, r1, lr
    9308:	e5c43000 	strb	r3, [r4]
    930c:	e5dc3000 	ldrb	r3, [ip]
    9310:	e5d4e000 	ldrb	lr, [r4]
    9314:	e35300ff 	cmp	r3, #255	; 0xff
    9318:	e5d52000 	ldrb	r2, [r5]
    931c:	024330ff 	subeq	r3, r3, #255	; 0xff
    9320:	05cc3000 	streqb	r3, [ip]
    9324:	e082200e 	add	r2, r2, lr
    9328:	e5c52000 	strb	r2, [r5]
    932c:	e7c61000 	strb	r1, [r6, r0]
    9330:	e5dc1000 	ldrb	r1, [ip]
    9334:	e5d70001 	ldrb	r0, [r7, #1]
    9338:	e2812001 	add	r2, r1, #1	; 0x1
    933c:	e080300e 	add	r3, r0, lr
    9340:	e5cc2000 	strb	r2, [ip]
    9344:	e5c43000 	strb	r3, [r4]
    9348:	e5dc3000 	ldrb	r3, [ip]
    934c:	e5d52000 	ldrb	r2, [r5]
    9350:	e5d4e000 	ldrb	lr, [r4]
    9354:	e35300ff 	cmp	r3, #255	; 0xff
    9358:	e59f78dc 	ldr	r7, [pc, #2268]	; 9c3c <.text+0x5c3c>
    935c:	e082200e 	add	r2, r2, lr
    9360:	024330ff 	subeq	r3, r3, #255	; 0xff
    9364:	e5c52000 	strb	r2, [r5]
    9368:	e7c60001 	strb	r0, [r6, r1]
    936c:	05cc3000 	streqb	r3, [ip]
    9370:	ea0002d2 	b	9ec0 <.text+0x5ec0>
    9374:	e353001e 	cmp	r3, #30	; 0x1e
    9378:	1a0000ad 	bne	9634 <.text+0x5634>
    937c:	e59f38bc 	ldr	r3, [pc, #2236]	; 9c40 <.text+0x5c40>
    9380:	e5d33000 	ldrb	r3, [r3]
    9384:	e3530000 	cmp	r3, #0	; 0x0
    9388:	0a000300 	beq	9f90 <.text+0x5f90>
    938c:	e59f191c 	ldr	r1, [pc, #2332]	; 9cb0 <.text+0x5cb0>
    9390:	e59f0920 	ldr	r0, [pc, #2336]	; 9cb8 <.text+0x5cb8>
    9394:	e5d13000 	ldrb	r3, [r1]
    9398:	e5d02000 	ldrb	r2, [r0]
    939c:	e1520003 	cmp	r2, r3
    93a0:	25d13000 	ldrcsb	r3, [r1]
    93a4:	35d13000 	ldrccb	r3, [r1]
    93a8:	20633002 	rsbcs	r3, r3, r2
    93ac:	226330ff 	rsbcs	r3, r3, #255	; 0xff
    93b0:	30623003 	rsbcc	r3, r2, r3
    93b4:	e353000e 	cmp	r3, #14	; 0xe
    93b8:	da0002f0 	ble	9f80 <.text+0x5f80>
    93bc:	e5d02000 	ldrb	r2, [r0]
    93c0:	e2823001 	add	r3, r2, #1	; 0x1
    93c4:	e5c03000 	strb	r3, [r0]
    93c8:	e5d03000 	ldrb	r3, [r0]
    93cc:	e59f68e0 	ldr	r6, [pc, #2272]	; 9cb4 <.text+0x5cb4>
    93d0:	e35300ff 	cmp	r3, #255	; 0xff
    93d4:	e3e03066 	mvn	r3, #102	; 0x66
    93d8:	e7c63002 	strb	r3, [r6, r2]
    93dc:	02833067 	addeq	r3, r3, #103	; 0x67
    93e0:	e59fc8d0 	ldr	ip, [pc, #2256]	; 9cb8 <.text+0x5cb8>
    93e4:	05c03000 	streqb	r3, [r0]
    93e8:	e5dc2000 	ldrb	r2, [ip]
    93ec:	e2823001 	add	r3, r2, #1	; 0x1
    93f0:	e5cc3000 	strb	r3, [ip]
    93f4:	e5dc3000 	ldrb	r3, [ip]
    93f8:	e35300ff 	cmp	r3, #255	; 0xff
    93fc:	e3a0300e 	mov	r3, #14	; 0xe
    9400:	e7c63002 	strb	r3, [r6, r2]
    9404:	0243300e 	subeq	r3, r3, #14	; 0xe
    9408:	05cc3000 	streqb	r3, [ip]
    940c:	e5dc2000 	ldrb	r2, [ip]
    9410:	e2823001 	add	r3, r2, #1	; 0x1
    9414:	e5cc3000 	strb	r3, [ip]
    9418:	e5dc3000 	ldrb	r3, [ip]
    941c:	e59fe898 	ldr	lr, [pc, #2200]	; 9cbc <.text+0x5cbc>
    9420:	e59f5898 	ldr	r5, [pc, #2200]	; 9cc0 <.text+0x5cc0>
    9424:	e35300ff 	cmp	r3, #255	; 0xff
    9428:	e3a03015 	mov	r3, #21	; 0x15
    942c:	e5ce3000 	strb	r3, [lr]
    9430:	e283300e 	add	r3, r3, #14	; 0xe
    9434:	e5c53000 	strb	r3, [r5]
    9438:	e243301c 	sub	r3, r3, #28	; 0x1c
    943c:	e7c63002 	strb	r3, [r6, r2]
    9440:	02433007 	subeq	r3, r3, #7	; 0x7
    9444:	05cc3000 	streqb	r3, [ip]
    9448:	e5dc2000 	ldrb	r2, [ip]
    944c:	e2823001 	add	r3, r2, #1	; 0x1
    9450:	e5cc3000 	strb	r3, [ip]
    9454:	e5dc3000 	ldrb	r3, [ip]
    9458:	e35300ff 	cmp	r3, #255	; 0xff
    945c:	e3a0302b 	mov	r3, #43	; 0x2b
    9460:	e5ce3000 	strb	r3, [lr]
    9464:	e2833023 	add	r3, r3, #35	; 0x23
    9468:	e5c53000 	strb	r3, [r5]
    946c:	e2433038 	sub	r3, r3, #56	; 0x38
    9470:	e7c63002 	strb	r3, [r6, r2]
    9474:	02433016 	subeq	r3, r3, #22	; 0x16
    9478:	05cc3000 	streqb	r3, [ip]
    947c:	e59f47c0 	ldr	r4, [pc, #1984]	; 9c44 <.text+0x5c44>
    9480:	e5dc0000 	ldrb	r0, [ip]
    9484:	e5d41000 	ldrb	r1, [r4]
    9488:	e2802001 	add	r2, r0, #1	; 0x1
    948c:	e281302b 	add	r3, r1, #43	; 0x2b
    9490:	e5cc2000 	strb	r2, [ip]
    9494:	e5ce3000 	strb	r3, [lr]
    9498:	e5dc3000 	ldrb	r3, [ip]
    949c:	e5de2000 	ldrb	r2, [lr]
    94a0:	e35300ff 	cmp	r3, #255	; 0xff
    94a4:	e282304e 	add	r3, r2, #78	; 0x4e
    94a8:	e5c53000 	strb	r3, [r5]
    94ac:	03a03000 	moveq	r3, #0	; 0x0
    94b0:	05cc3000 	streqb	r3, [ip]
    94b4:	e7c61000 	strb	r1, [r6, r0]
    94b8:	e5dc1000 	ldrb	r1, [ip]
    94bc:	e5d40001 	ldrb	r0, [r4, #1]
    94c0:	e0803002 	add	r3, r0, r2
    94c4:	e2812001 	add	r2, r1, #1	; 0x1
    94c8:	e5ce3000 	strb	r3, [lr]
    94cc:	e5cc2000 	strb	r2, [ip]
    94d0:	e5dc3000 	ldrb	r3, [ip]
    94d4:	e35300ff 	cmp	r3, #255	; 0xff
    94d8:	e5de4000 	ldrb	r4, [lr]
    94dc:	e5d52000 	ldrb	r2, [r5]
    94e0:	024330ff 	subeq	r3, r3, #255	; 0xff
    94e4:	05cc3000 	streqb	r3, [ip]
    94e8:	e0822004 	add	r2, r2, r4
    94ec:	e5c52000 	strb	r2, [r5]
    94f0:	e7c60001 	strb	r0, [r6, r1]
    94f4:	e59f774c 	ldr	r7, [pc, #1868]	; 9c48 <.text+0x5c48>
    94f8:	e5dc0000 	ldrb	r0, [ip]
    94fc:	e5d71000 	ldrb	r1, [r7]
    9500:	e2802001 	add	r2, r0, #1	; 0x1
    9504:	e5cc2000 	strb	r2, [ip]
    9508:	e0813004 	add	r3, r1, r4
    950c:	e5ce3000 	strb	r3, [lr]
    9510:	e5dc3000 	ldrb	r3, [ip]
    9514:	e35300ff 	cmp	r3, #255	; 0xff
    9518:	e5de4000 	ldrb	r4, [lr]
    951c:	e5d52000 	ldrb	r2, [r5]
    9520:	024330ff 	subeq	r3, r3, #255	; 0xff
    9524:	05cc3000 	streqb	r3, [ip]
    9528:	e0822004 	add	r2, r2, r4
    952c:	e5c52000 	strb	r2, [r5]
    9530:	e7c61000 	strb	r1, [r6, r0]
    9534:	e5dc1000 	ldrb	r1, [ip]
    9538:	e5d70001 	ldrb	r0, [r7, #1]
    953c:	e2812001 	add	r2, r1, #1	; 0x1
    9540:	e5cc2000 	strb	r2, [ip]
    9544:	e0803004 	add	r3, r0, r4
    9548:	e5ce3000 	strb	r3, [lr]
    954c:	e5dc3000 	ldrb	r3, [ip]
    9550:	e5de4000 	ldrb	r4, [lr]
    9554:	e35300ff 	cmp	r3, #255	; 0xff
    9558:	e5d52000 	ldrb	r2, [r5]
    955c:	024330ff 	subeq	r3, r3, #255	; 0xff
    9560:	05cc3000 	streqb	r3, [ip]
    9564:	e0822004 	add	r2, r2, r4
    9568:	e5c52000 	strb	r2, [r5]
    956c:	e7c60001 	strb	r0, [r6, r1]
    9570:	e59f76d4 	ldr	r7, [pc, #1748]	; 9c4c <.text+0x5c4c>
    9574:	e5dc0000 	ldrb	r0, [ip]
    9578:	e5d71000 	ldrb	r1, [r7]
    957c:	e2802001 	add	r2, r0, #1	; 0x1
    9580:	e0813004 	add	r3, r1, r4
    9584:	e5cc2000 	strb	r2, [ip]
    9588:	e5ce3000 	strb	r3, [lr]
    958c:	e5dc3000 	ldrb	r3, [ip]
    9590:	e5de4000 	ldrb	r4, [lr]
    9594:	e5d52000 	ldrb	r2, [r5]
    9598:	e35300ff 	cmp	r3, #255	; 0xff
    959c:	e0822004 	add	r2, r2, r4
    95a0:	024330ff 	subeq	r3, r3, #255	; 0xff
    95a4:	e5c52000 	strb	r2, [r5]
    95a8:	05cc3000 	streqb	r3, [ip]
    95ac:	e7c61000 	strb	r1, [r6, r0]
    95b0:	e5dc1000 	ldrb	r1, [ip]
    95b4:	e5d70001 	ldrb	r0, [r7, #1]
    95b8:	e2812001 	add	r2, r1, #1	; 0x1
    95bc:	e5cc2000 	strb	r2, [ip]
    95c0:	e0803004 	add	r3, r0, r4
    95c4:	e5ce3000 	strb	r3, [lr]
    95c8:	e5dc3000 	ldrb	r3, [ip]
    95cc:	e5de4000 	ldrb	r4, [lr]
    95d0:	e35300ff 	cmp	r3, #255	; 0xff
    95d4:	e5d52000 	ldrb	r2, [r5]
    95d8:	024330ff 	subeq	r3, r3, #255	; 0xff
    95dc:	05cc3000 	streqb	r3, [ip]
    95e0:	e0822004 	add	r2, r2, r4
    95e4:	e5c52000 	strb	r2, [r5]
    95e8:	e7c60001 	strb	r0, [r6, r1]
    95ec:	e59f765c 	ldr	r7, [pc, #1628]	; 9c50 <.text+0x5c50>
    95f0:	e5dc0000 	ldrb	r0, [ip]
    95f4:	e5d71000 	ldrb	r1, [r7]
    95f8:	e2802001 	add	r2, r0, #1	; 0x1
    95fc:	e5cc2000 	strb	r2, [ip]
    9600:	e0813004 	add	r3, r1, r4
    9604:	e5ce3000 	strb	r3, [lr]
    9608:	e5dc3000 	ldrb	r3, [ip]
    960c:	e5d52000 	ldrb	r2, [r5]
    9610:	e5de4000 	ldrb	r4, [lr]
    9614:	e35300ff 	cmp	r3, #255	; 0xff
    9618:	e0822004 	add	r2, r2, r4
    961c:	024330ff 	subeq	r3, r3, #255	; 0xff
    9620:	e5c52000 	strb	r2, [r5]
    9624:	e7c61000 	strb	r1, [r6, r0]
    9628:	05cc3000 	streqb	r3, [ip]
    962c:	e5d70001 	ldrb	r0, [r7, #1]
    9630:	ea000171 	b	9bfc <.text+0x5bfc>
    9634:	e3530024 	cmp	r3, #36	; 0x24
    9638:	1a0000bb 	bne	992c <.text+0x592c>
    963c:	e59f7610 	ldr	r7, [pc, #1552]	; 9c54 <.text+0x5c54>
    9640:	e5d73000 	ldrb	r3, [r7]
    9644:	e3530003 	cmp	r3, #3	; 0x3
    9648:	83a03000 	movhi	r3, #0	; 0x0
    964c:	85c73000 	strhib	r3, [r7]
    9650:	e5d73000 	ldrb	r3, [r7]
    9654:	e3530003 	cmp	r3, #3	; 0x3
    9658:	979ff103 	ldrls	pc, [pc, r3, lsl #2]
    965c:	ea000013 	b	96b0 <.text+0x56b0>
    9660:	00009670 	andeq	r9, r0, r0, ror r6
    9664:	0000967c 	andeq	r9, r0, ip, ror r6
    9668:	00009684 	andeq	r9, r0, r4, lsl #13
    966c:	0000968c 	andeq	r9, r0, ip, lsl #13
    9670:	e59f35e0 	ldr	r3, [pc, #1504]	; 9c58 <.text+0x5c58>
    9674:	e5933000 	ldr	r3, [r3]
    9678:	ea00000d 	b	96b4 <.text+0x56b4>
    967c:	e59f35d8 	ldr	r3, [pc, #1496]	; 9c5c <.text+0x5c5c>
    9680:	ea000002 	b	9690 <.text+0x5690>
    9684:	e59f35d4 	ldr	r3, [pc, #1492]	; 9c60 <.text+0x5c60>
    9688:	ea000000 	b	9690 <.text+0x5690>
    968c:	e59f3600 	ldr	r3, [pc, #1536]	; 9c94 <.text+0x5c94>
    9690:	e1d340d0 	ldrsb	r4, [r3]
    9694:	e1a00004 	mov	r0, r4
    9698:	eb003910 	bl	17ae0 <__floatsisf>
    969c:	e3540000 	cmp	r4, #0	; 0x0
    96a0:	b59f15bc 	ldrlt	r1, [pc, #1468]	; 9c64 <.text+0x5c64>
    96a4:	bb00389b 	bllt	17918 <__addsf3>
    96a8:	e50b0044 	str	r0, [fp, #-68]
    96ac:	ea000001 	b	96b8 <.text+0x56b8>
    96b0:	e3a03000 	mov	r3, #0	; 0x0
    96b4:	e50b3044 	str	r3, [fp, #-68]
    96b8:	e59f15f0 	ldr	r1, [pc, #1520]	; 9cb0 <.text+0x5cb0>
    96bc:	e59f05f4 	ldr	r0, [pc, #1524]	; 9cb8 <.text+0x5cb8>
    96c0:	e5d13000 	ldrb	r3, [r1]
    96c4:	e5d02000 	ldrb	r2, [r0]
    96c8:	e1520003 	cmp	r2, r3
    96cc:	25d13000 	ldrcsb	r3, [r1]
    96d0:	35d13000 	ldrccb	r3, [r1]
    96d4:	20633002 	rsbcs	r3, r3, r2
    96d8:	30623003 	rsbcc	r3, r2, r3
    96dc:	226330ff 	rsbcs	r3, r3, #255	; 0xff
    96e0:	e353000b 	cmp	r3, #11	; 0xb
    96e4:	d59f2590 	ldrle	r2, [pc, #1424]	; 9c7c <.text+0x5c7c>
    96e8:	d5d23000 	ldrleb	r3, [r2]
    96ec:	d2833001 	addle	r3, r3, #1	; 0x1
    96f0:	d5c23000 	strleb	r3, [r2]
    96f4:	da00008a 	ble	9924 <.text+0x5924>
    96f8:	e5d02000 	ldrb	r2, [r0]
    96fc:	e2823001 	add	r3, r2, #1	; 0x1
    9700:	e5c03000 	strb	r3, [r0]
    9704:	e5d03000 	ldrb	r3, [r0]
    9708:	e59f65a4 	ldr	r6, [pc, #1444]	; 9cb4 <.text+0x5cb4>
    970c:	e35300ff 	cmp	r3, #255	; 0xff
    9710:	e3e03066 	mvn	r3, #102	; 0x66
    9714:	e7c63002 	strb	r3, [r6, r2]
    9718:	02833067 	addeq	r3, r3, #103	; 0x67
    971c:	e59fc594 	ldr	ip, [pc, #1428]	; 9cb8 <.text+0x5cb8>
    9720:	05c03000 	streqb	r3, [r0]
    9724:	e5dc2000 	ldrb	r2, [ip]
    9728:	e2823001 	add	r3, r2, #1	; 0x1
    972c:	e5cc3000 	strb	r3, [ip]
    9730:	e5dc3000 	ldrb	r3, [ip]
    9734:	e35300ff 	cmp	r3, #255	; 0xff
    9738:	e3a0300b 	mov	r3, #11	; 0xb
    973c:	e7c63002 	strb	r3, [r6, r2]
    9740:	0243300b 	subeq	r3, r3, #11	; 0xb
    9744:	05cc3000 	streqb	r3, [ip]
    9748:	e5dc2000 	ldrb	r2, [ip]
    974c:	e2823001 	add	r3, r2, #1	; 0x1
    9750:	e5cc3000 	strb	r3, [ip]
    9754:	e5dc3000 	ldrb	r3, [ip]
    9758:	e59f455c 	ldr	r4, [pc, #1372]	; 9cbc <.text+0x5cbc>
    975c:	e59f555c 	ldr	r5, [pc, #1372]	; 9cc0 <.text+0x5cc0>
    9760:	e35300ff 	cmp	r3, #255	; 0xff
    9764:	e3a03012 	mov	r3, #18	; 0x12
    9768:	e5c43000 	strb	r3, [r4]
    976c:	e283300b 	add	r3, r3, #11	; 0xb
    9770:	e5c53000 	strb	r3, [r5]
    9774:	e2433016 	sub	r3, r3, #22	; 0x16
    9778:	e7c63002 	strb	r3, [r6, r2]
    977c:	02433007 	subeq	r3, r3, #7	; 0x7
    9780:	05cc3000 	streqb	r3, [ip]
    9784:	e5dc2000 	ldrb	r2, [ip]
    9788:	e2823001 	add	r3, r2, #1	; 0x1
    978c:	e5cc3000 	strb	r3, [ip]
    9790:	e5dc3000 	ldrb	r3, [ip]
    9794:	e35300ff 	cmp	r3, #255	; 0xff
    9798:	e3a03031 	mov	r3, #49	; 0x31
    979c:	e5c43000 	strb	r3, [r4]
    97a0:	e283301d 	add	r3, r3, #29	; 0x1d
    97a4:	e5c53000 	strb	r3, [r5]
    97a8:	e243302f 	sub	r3, r3, #47	; 0x2f
    97ac:	e7c63002 	strb	r3, [r6, r2]
    97b0:	0243301f 	subeq	r3, r3, #31	; 0x1f
    97b4:	05cc3000 	streqb	r3, [ip]
    97b8:	e5d70000 	ldrb	r0, [r7]
    97bc:	e5dc1000 	ldrb	r1, [ip]
    97c0:	e2803031 	add	r3, r0, #49	; 0x31
    97c4:	e2812001 	add	r2, r1, #1	; 0x1
    97c8:	e5cc2000 	strb	r2, [ip]
    97cc:	e5c43000 	strb	r3, [r4]
    97d0:	e5dc3000 	ldrb	r3, [ip]
    97d4:	e5d4e000 	ldrb	lr, [r4]
    97d8:	e35300ff 	cmp	r3, #255	; 0xff
    97dc:	e28e304e 	add	r3, lr, #78	; 0x4e
    97e0:	e5c53000 	strb	r3, [r5]
    97e4:	03a03000 	moveq	r3, #0	; 0x0
    97e8:	05cc3000 	streqb	r3, [ip]
    97ec:	e7c60001 	strb	r0, [r6, r1]
    97f0:	e5dc0000 	ldrb	r0, [ip]
    97f4:	e55b1044 	ldrb	r1, [fp, #-68]
    97f8:	e2802001 	add	r2, r0, #1	; 0x1
    97fc:	e081300e 	add	r3, r1, lr
    9800:	e5c43000 	strb	r3, [r4]
    9804:	e5cc2000 	strb	r2, [ip]
    9808:	e5dc3000 	ldrb	r3, [ip]
    980c:	e35300ff 	cmp	r3, #255	; 0xff
    9810:	e5d4e000 	ldrb	lr, [r4]
    9814:	e5d52000 	ldrb	r2, [r5]
    9818:	024330ff 	subeq	r3, r3, #255	; 0xff
    981c:	05cc3000 	streqb	r3, [ip]
    9820:	e082200e 	add	r2, r2, lr
    9824:	e5c52000 	strb	r2, [r5]
    9828:	e7c61000 	strb	r1, [r6, r0]
    982c:	e5dc0000 	ldrb	r0, [ip]
    9830:	e55b1043 	ldrb	r1, [fp, #-67]
    9834:	e2802001 	add	r2, r0, #1	; 0x1
    9838:	e5cc2000 	strb	r2, [ip]
    983c:	e081300e 	add	r3, r1, lr
    9840:	e5c43000 	strb	r3, [r4]
    9844:	e5dc3000 	ldrb	r3, [ip]
    9848:	e5d4e000 	ldrb	lr, [r4]
    984c:	e5d52000 	ldrb	r2, [r5]
    9850:	e35300ff 	cmp	r3, #255	; 0xff
    9854:	024330ff 	subeq	r3, r3, #255	; 0xff
    9858:	05cc3000 	streqb	r3, [ip]
    985c:	e082200e 	add	r2, r2, lr
    9860:	e5c52000 	strb	r2, [r5]
    9864:	e7c61000 	strb	r1, [r6, r0]
    9868:	e5dc0000 	ldrb	r0, [ip]
    986c:	e55b1042 	ldrb	r1, [fp, #-66]
    9870:	e2802001 	add	r2, r0, #1	; 0x1
    9874:	e5cc2000 	strb	r2, [ip]
    9878:	e081300e 	add	r3, r1, lr
    987c:	e5c43000 	strb	r3, [r4]
    9880:	e5dc3000 	ldrb	r3, [ip]
    9884:	e5d4e000 	ldrb	lr, [r4]
    9888:	e5d52000 	ldrb	r2, [r5]
    988c:	e35300ff 	cmp	r3, #255	; 0xff
    9890:	e082200e 	add	r2, r2, lr
    9894:	024330ff 	subeq	r3, r3, #255	; 0xff
    9898:	05cc3000 	streqb	r3, [ip]
    989c:	e5c52000 	strb	r2, [r5]
    98a0:	e7c61000 	strb	r1, [r6, r0]
    98a4:	e5dc0000 	ldrb	r0, [ip]
    98a8:	e55b1041 	ldrb	r1, [fp, #-65]
    98ac:	e2802001 	add	r2, r0, #1	; 0x1
    98b0:	e081300e 	add	r3, r1, lr
    98b4:	e5c43000 	strb	r3, [r4]
    98b8:	e5cc2000 	strb	r2, [ip]
    98bc:	e5d4e000 	ldrb	lr, [r4]
    98c0:	e5dc2000 	ldrb	r2, [ip]
    98c4:	e5d53000 	ldrb	r3, [r5]
    98c8:	e35200ff 	cmp	r2, #255	; 0xff
    98cc:	e083300e 	add	r3, r3, lr
    98d0:	e5c53000 	strb	r3, [r5]
    98d4:	03a03000 	moveq	r3, #0	; 0x0
    98d8:	05cc3000 	streqb	r3, [ip]
    98dc:	e5dc3000 	ldrb	r3, [ip]
    98e0:	e2832001 	add	r2, r3, #1	; 0x1
    98e4:	e5cc2000 	strb	r2, [ip]
    98e8:	e5dc2000 	ldrb	r2, [ip]
    98ec:	e35200ff 	cmp	r2, #255	; 0xff
    98f0:	e7c61000 	strb	r1, [r6, r0]
    98f4:	e7c6e003 	strb	lr, [r6, r3]
    98f8:	03a03000 	moveq	r3, #0	; 0x0
    98fc:	05cc3000 	streqb	r3, [ip]
    9900:	e5dc1000 	ldrb	r1, [ip]
    9904:	e2813001 	add	r3, r1, #1	; 0x1
    9908:	e5cc3000 	strb	r3, [ip]
    990c:	e5dc3000 	ldrb	r3, [ip]
    9910:	e5d52000 	ldrb	r2, [r5]
    9914:	e35300ff 	cmp	r3, #255	; 0xff
    9918:	024330ff 	subeq	r3, r3, #255	; 0xff
    991c:	e7c62001 	strb	r2, [r6, r1]
    9920:	05cc3000 	streqb	r3, [ip]
    9924:	e59f2328 	ldr	r2, [pc, #808]	; 9c54 <.text+0x5c54>
    9928:	ea000195 	b	9f84 <.text+0x5f84>
    992c:	e353002a 	cmp	r3, #42	; 0x2a
    9930:	1a0000e7 	bne	9cd4 <.text+0x5cd4>
    9934:	e59f332c 	ldr	r3, [pc, #812]	; 9c68 <.text+0x5c68>
    9938:	e5930000 	ldr	r0, [r3]
    993c:	eb0035fe 	bl	1713c <__extendsfdf2>
    9940:	e28f2e2d 	add	r2, pc, #720	; 0x2d0
    9944:	e892000c 	ldmia	r2, {r2, r3}
    9948:	eb0036ac 	bl	17400 <__divdf3>
    994c:	e28f2fb3 	add	r2, pc, #716	; 0x2cc
    9950:	e892000c 	ldmia	r2, {r2, r3}
    9954:	eb00360b 	bl	17188 <__muldf3>
    9958:	eb003772 	bl	17728 <__fixdfsi>
    995c:	e59f134c 	ldr	r1, [pc, #844]	; 9cb0 <.text+0x5cb0>
    9960:	e59fe350 	ldr	lr, [pc, #848]	; 9cb8 <.text+0x5cb8>
    9964:	e5d13000 	ldrb	r3, [r1]
    9968:	e5de2000 	ldrb	r2, [lr]
    996c:	e14b03b0 	strh	r0, [fp, #-48]
    9970:	e1520003 	cmp	r2, r3
    9974:	25d13000 	ldrcsb	r3, [r1]
    9978:	35d13000 	ldrccb	r3, [r1]
    997c:	20633002 	rsbcs	r3, r3, r2
    9980:	226330ff 	rsbcs	r3, r3, #255	; 0xff
    9984:	30623003 	rsbcc	r3, r2, r3
    9988:	e353000e 	cmp	r3, #14	; 0xe
    998c:	da00017b 	ble	9f80 <.text+0x5f80>
    9990:	e5de2000 	ldrb	r2, [lr]
    9994:	e2823001 	add	r3, r2, #1	; 0x1
    9998:	e5ce3000 	strb	r3, [lr]
    999c:	e5de3000 	ldrb	r3, [lr]
    99a0:	e59f630c 	ldr	r6, [pc, #780]	; 9cb4 <.text+0x5cb4>
    99a4:	e35300ff 	cmp	r3, #255	; 0xff
    99a8:	e3e03066 	mvn	r3, #102	; 0x66
    99ac:	e7c63002 	strb	r3, [r6, r2]
    99b0:	02833067 	addeq	r3, r3, #103	; 0x67
    99b4:	e59fc2fc 	ldr	ip, [pc, #764]	; 9cb8 <.text+0x5cb8>
    99b8:	05ce3000 	streqb	r3, [lr]
    99bc:	e5dc2000 	ldrb	r2, [ip]
    99c0:	e2823001 	add	r3, r2, #1	; 0x1
    99c4:	e5cc3000 	strb	r3, [ip]
    99c8:	e5dc3000 	ldrb	r3, [ip]
    99cc:	e35300ff 	cmp	r3, #255	; 0xff
    99d0:	e3a0300e 	mov	r3, #14	; 0xe
    99d4:	e7c63002 	strb	r3, [r6, r2]
    99d8:	0243300e 	subeq	r3, r3, #14	; 0xe
    99dc:	05cc3000 	streqb	r3, [ip]
    99e0:	e5dc2000 	ldrb	r2, [ip]
    99e4:	e2823001 	add	r3, r2, #1	; 0x1
    99e8:	e5cc3000 	strb	r3, [ip]
    99ec:	e5dc3000 	ldrb	r3, [ip]
    99f0:	e59fe2c4 	ldr	lr, [pc, #708]	; 9cbc <.text+0x5cbc>
    99f4:	e59f52c4 	ldr	r5, [pc, #708]	; 9cc0 <.text+0x5cc0>
    99f8:	e35300ff 	cmp	r3, #255	; 0xff
    99fc:	e3a03015 	mov	r3, #21	; 0x15
    9a00:	e5ce3000 	strb	r3, [lr]
    9a04:	e283300e 	add	r3, r3, #14	; 0xe
    9a08:	e5c53000 	strb	r3, [r5]
    9a0c:	e243301c 	sub	r3, r3, #28	; 0x1c
    9a10:	e7c63002 	strb	r3, [r6, r2]
    9a14:	02433007 	subeq	r3, r3, #7	; 0x7
    9a18:	05cc3000 	streqb	r3, [ip]
    9a1c:	e5dc2000 	ldrb	r2, [ip]
    9a20:	e2823001 	add	r3, r2, #1	; 0x1
    9a24:	e5cc3000 	strb	r3, [ip]
    9a28:	e5dc3000 	ldrb	r3, [ip]
    9a2c:	e35300ff 	cmp	r3, #255	; 0xff
    9a30:	e3a0301a 	mov	r3, #26	; 0x1a
    9a34:	e5ce3000 	strb	r3, [lr]
    9a38:	e2833023 	add	r3, r3, #35	; 0x23
    9a3c:	e5c53000 	strb	r3, [r5]
    9a40:	e2433038 	sub	r3, r3, #56	; 0x38
    9a44:	e7c63002 	strb	r3, [r6, r2]
    9a48:	02433005 	subeq	r3, r3, #5	; 0x5
    9a4c:	05cc3000 	streqb	r3, [ip]
    9a50:	e59f421c 	ldr	r4, [pc, #540]	; 9c74 <.text+0x5c74>
    9a54:	e5dc0000 	ldrb	r0, [ip]
    9a58:	e5d41000 	ldrb	r1, [r4]
    9a5c:	e2802001 	add	r2, r0, #1	; 0x1
    9a60:	e281301a 	add	r3, r1, #26	; 0x1a
    9a64:	e5cc2000 	strb	r2, [ip]
    9a68:	e5ce3000 	strb	r3, [lr]
    9a6c:	e5dc3000 	ldrb	r3, [ip]
    9a70:	e5de2000 	ldrb	r2, [lr]
    9a74:	e35300ff 	cmp	r3, #255	; 0xff
    9a78:	e282303d 	add	r3, r2, #61	; 0x3d
    9a7c:	e5c53000 	strb	r3, [r5]
    9a80:	03a03000 	moveq	r3, #0	; 0x0
    9a84:	05cc3000 	streqb	r3, [ip]
    9a88:	e7c61000 	strb	r1, [r6, r0]
    9a8c:	e5dc1000 	ldrb	r1, [ip]
    9a90:	e5d40001 	ldrb	r0, [r4, #1]
    9a94:	e0803002 	add	r3, r0, r2
    9a98:	e2812001 	add	r2, r1, #1	; 0x1
    9a9c:	e5ce3000 	strb	r3, [lr]
    9aa0:	e5cc2000 	strb	r2, [ip]
    9aa4:	e5dc3000 	ldrb	r3, [ip]
    9aa8:	e35300ff 	cmp	r3, #255	; 0xff
    9aac:	e5de4000 	ldrb	r4, [lr]
    9ab0:	e5d52000 	ldrb	r2, [r5]
    9ab4:	024330ff 	subeq	r3, r3, #255	; 0xff
    9ab8:	05cc3000 	streqb	r3, [ip]
    9abc:	e0822004 	add	r2, r2, r4
    9ac0:	e5c52000 	strb	r2, [r5]
    9ac4:	e7c60001 	strb	r0, [r6, r1]
    9ac8:	e5dc0000 	ldrb	r0, [ip]
    9acc:	e55b1030 	ldrb	r1, [fp, #-48]
    9ad0:	e2802001 	add	r2, r0, #1	; 0x1
    9ad4:	e5cc2000 	strb	r2, [ip]
    9ad8:	e0813004 	add	r3, r1, r4
    9adc:	e5ce3000 	strb	r3, [lr]
    9ae0:	e5dc3000 	ldrb	r3, [ip]
    9ae4:	e35300ff 	cmp	r3, #255	; 0xff
    9ae8:	e5de4000 	ldrb	r4, [lr]
    9aec:	e5d52000 	ldrb	r2, [r5]
    9af0:	024330ff 	subeq	r3, r3, #255	; 0xff
    9af4:	05cc3000 	streqb	r3, [ip]
    9af8:	e0822004 	add	r2, r2, r4
    9afc:	e5c52000 	strb	r2, [r5]
    9b00:	e7c61000 	strb	r1, [r6, r0]
    9b04:	e5dc0000 	ldrb	r0, [ip]
    9b08:	e55b102f 	ldrb	r1, [fp, #-47]
    9b0c:	e2802001 	add	r2, r0, #1	; 0x1
    9b10:	e5cc2000 	strb	r2, [ip]
    9b14:	e0813004 	add	r3, r1, r4
    9b18:	e5ce3000 	strb	r3, [lr]
    9b1c:	e5dc3000 	ldrb	r3, [ip]
    9b20:	e5de4000 	ldrb	r4, [lr]
    9b24:	e35300ff 	cmp	r3, #255	; 0xff
    9b28:	e5d52000 	ldrb	r2, [r5]
    9b2c:	024330ff 	subeq	r3, r3, #255	; 0xff
    9b30:	05cc3000 	streqb	r3, [ip]
    9b34:	e0822004 	add	r2, r2, r4
    9b38:	e5c52000 	strb	r2, [r5]
    9b3c:	e59f7128 	ldr	r7, [pc, #296]	; 9c6c <.text+0x5c6c>
    9b40:	e7c61000 	strb	r1, [r6, r0]
    9b44:	e5dc0000 	ldrb	r0, [ip]
    9b48:	e5d71000 	ldrb	r1, [r7]
    9b4c:	e2802001 	add	r2, r0, #1	; 0x1
    9b50:	e0813004 	add	r3, r1, r4
    9b54:	e5cc2000 	strb	r2, [ip]
    9b58:	e5ce3000 	strb	r3, [lr]
    9b5c:	e5dc3000 	ldrb	r3, [ip]
    9b60:	e5de4000 	ldrb	r4, [lr]
    9b64:	e5d52000 	ldrb	r2, [r5]
    9b68:	e35300ff 	cmp	r3, #255	; 0xff
    9b6c:	e0822004 	add	r2, r2, r4
    9b70:	024330ff 	subeq	r3, r3, #255	; 0xff
    9b74:	e5c52000 	strb	r2, [r5]
    9b78:	05cc3000 	streqb	r3, [ip]
    9b7c:	e7c61000 	strb	r1, [r6, r0]
    9b80:	e5dc0000 	ldrb	r0, [ip]
    9b84:	e5d71001 	ldrb	r1, [r7, #1]
    9b88:	e2802001 	add	r2, r0, #1	; 0x1
    9b8c:	e5cc2000 	strb	r2, [ip]
    9b90:	e0813004 	add	r3, r1, r4
    9b94:	e5ce3000 	strb	r3, [lr]
    9b98:	e5dc3000 	ldrb	r3, [ip]
    9b9c:	e5de4000 	ldrb	r4, [lr]
    9ba0:	e35300ff 	cmp	r3, #255	; 0xff
    9ba4:	e5d52000 	ldrb	r2, [r5]
    9ba8:	024330ff 	subeq	r3, r3, #255	; 0xff
    9bac:	05cc3000 	streqb	r3, [ip]
    9bb0:	e0822004 	add	r2, r2, r4
    9bb4:	e5c52000 	strb	r2, [r5]
    9bb8:	e7c61000 	strb	r1, [r6, r0]
    9bbc:	e5dc0000 	ldrb	r0, [ip]
    9bc0:	e5d71002 	ldrb	r1, [r7, #2]
    9bc4:	e2802001 	add	r2, r0, #1	; 0x1
    9bc8:	e5cc2000 	strb	r2, [ip]
    9bcc:	e0813004 	add	r3, r1, r4
    9bd0:	e5ce3000 	strb	r3, [lr]
    9bd4:	e5dc3000 	ldrb	r3, [ip]
    9bd8:	e5d52000 	ldrb	r2, [r5]
    9bdc:	e5de4000 	ldrb	r4, [lr]
    9be0:	e35300ff 	cmp	r3, #255	; 0xff
    9be4:	e0822004 	add	r2, r2, r4
    9be8:	024330ff 	subeq	r3, r3, #255	; 0xff
    9bec:	e5c52000 	strb	r2, [r5]
    9bf0:	e7c61000 	strb	r1, [r6, r0]
    9bf4:	05cc3000 	streqb	r3, [ip]
    9bf8:	e5d70003 	ldrb	r0, [r7, #3]
    9bfc:	e0803004 	add	r3, r0, r4
    9c00:	e5ce3000 	strb	r3, [lr]
    9c04:	e5dc1000 	ldrb	r1, [ip]
    9c08:	e5dee000 	ldrb	lr, [lr]
    9c0c:	e2812001 	add	r2, r1, #1	; 0x1
    9c10:	e5cc2000 	strb	r2, [ip]
    9c14:	ea0000bf 	b	9f18 <.text+0x5f18>
    9c18:	400921fb 	strmid	r2, [r9], -fp
    9c1c:	54442d18 	strplb	r2, [r4], #-3352
    9c20:	409c2000 	addmis	r2, ip, r0
    9c24:	00000000 	andeq	r0, r0, r0
    9c28:	40001154 	andmi	r1, r0, r4, asr r1
    9c2c:	40001174 	andmi	r1, r0, r4, ror r1
    9c30:	40000675 	andmi	r0, r0, r5, ror r6
    9c34:	400010c4 	andmi	r1, r0, r4, asr #1
    9c38:	400010a6 	andmi	r1, r0, r6, lsr #1
    9c3c:	4000108e 	andmi	r1, r0, lr, lsl #1
    9c40:	40000674 	andmi	r0, r0, r4, ror r6
    9c44:	40001084 	andmi	r1, r0, r4, lsl #1
    9c48:	400010c8 	andmi	r1, r0, r8, asr #1
    9c4c:	4000108c 	andmi	r1, r0, ip, lsl #1
    9c50:	400010c6 	andmi	r1, r0, r6, asr #1
    9c54:	400004cd 	andmi	r0, r0, sp, asr #9
    9c58:	400010dc 	ldrmid	r1, [r0], -ip
    9c5c:	40000003 	andmi	r0, r0, r3
    9c60:	400004b5 	strmih	r0, [r0], -r5
    9c64:	43800000 	orrmi	r0, r0, #0	; 0x0
    9c68:	40001018 	andmi	r1, r0, r8, lsl r0
    9c6c:	40000fec 	andmi	r0, r0, ip, ror #31
    9c70:	40000fe8 	andmi	r0, r0, r8, ror #31
    9c74:	40001024 	andmi	r1, r0, r4, lsr #32
    9c78:	40000fe2 	andmi	r0, r0, r2, ror #31
    9c7c:	40000a93 	mulmi	r0, r3, sl
    9c80:	400004c7 	andmi	r0, r0, r7, asr #9
    9c84:	40000a1c 	andmi	r0, r0, ip, lsl sl
    9c88:	40001180 	andmi	r1, r0, r0, lsl #3
    9c8c:	40000a20 	andmi	r0, r0, r0, lsr #20
    9c90:	40001034 	andmi	r1, r0, r4, lsr r0
    9c94:	400004b6 	strmih	r0, [r0], -r6
    9c98:	400010d6 	ldrmid	r1, [r0], -r6
    9c9c:	400010d4 	ldrmid	r1, [r0], -r4
    9ca0:	40001148 	andmi	r1, r0, r8, asr #2
    9ca4:	40001184 	andmi	r1, r0, r4, lsl #3
    9ca8:	40001118 	andmi	r1, r0, r8, lsl r1
    9cac:	4000114c 	andmi	r1, r0, ip, asr #2
    9cb0:	40000d2c 	andmi	r0, r0, ip, lsr #26
    9cb4:	40000d2d 	andmi	r0, r0, sp, lsr #26
    9cb8:	40000d2b 	andmi	r0, r0, fp, lsr #26
    9cbc:	40000d27 	andmi	r0, r0, r7, lsr #26
    9cc0:	40000c24 	andmi	r0, r0, r4, lsr #24
    9cc4:	400010c0 	andmi	r1, r0, r0, asr #1
    9cc8:	400010b0 	strmih	r1, [r0], -r0
    9ccc:	400010b8 	strmih	r1, [r0], -r8
    9cd0:	40001098 	mulmi	r0, r8, r0
    9cd4:	e3530030 	cmp	r3, #48	; 0x30
    9cd8:	1a0000ac 	bne	9f90 <.text+0x5f90>
    9cdc:	e51f1034 	ldr	r1, [pc, #-52]	; 9cb0 <.text+0x5cb0>
    9ce0:	e51f0030 	ldr	r0, [pc, #-48]	; 9cb8 <.text+0x5cb8>
    9ce4:	e5d13000 	ldrb	r3, [r1]
    9ce8:	e5d02000 	ldrb	r2, [r0]
    9cec:	e1520003 	cmp	r2, r3
    9cf0:	25d13000 	ldrcsb	r3, [r1]
    9cf4:	35d13000 	ldrccb	r3, [r1]
    9cf8:	20633002 	rsbcs	r3, r3, r2
    9cfc:	226330ff 	rsbcs	r3, r3, #255	; 0xff
    9d00:	30623003 	rsbcc	r3, r2, r3
    9d04:	e353000c 	cmp	r3, #12	; 0xc
    9d08:	da00009c 	ble	9f80 <.text+0x5f80>
    9d0c:	e5d02000 	ldrb	r2, [r0]
    9d10:	e2823001 	add	r3, r2, #1	; 0x1
    9d14:	e5c03000 	strb	r3, [r0]
    9d18:	e5d03000 	ldrb	r3, [r0]
    9d1c:	e51f6070 	ldr	r6, [pc, #-112]	; 9cb4 <.text+0x5cb4>
    9d20:	e35300ff 	cmp	r3, #255	; 0xff
    9d24:	e3e03066 	mvn	r3, #102	; 0x66
    9d28:	e7c63002 	strb	r3, [r6, r2]
    9d2c:	02833067 	addeq	r3, r3, #103	; 0x67
    9d30:	e51fc080 	ldr	ip, [pc, #-128]	; 9cb8 <.text+0x5cb8>
    9d34:	05c03000 	streqb	r3, [r0]
    9d38:	e5dc2000 	ldrb	r2, [ip]
    9d3c:	e2823001 	add	r3, r2, #1	; 0x1
    9d40:	e5cc3000 	strb	r3, [ip]
    9d44:	e5dc3000 	ldrb	r3, [ip]
    9d48:	e35300ff 	cmp	r3, #255	; 0xff
    9d4c:	e3a0300c 	mov	r3, #12	; 0xc
    9d50:	e7c63002 	strb	r3, [r6, r2]
    9d54:	0243300c 	subeq	r3, r3, #12	; 0xc
    9d58:	05cc3000 	streqb	r3, [ip]
    9d5c:	e5dc2000 	ldrb	r2, [ip]
    9d60:	e2823001 	add	r3, r2, #1	; 0x1
    9d64:	e5cc3000 	strb	r3, [ip]
    9d68:	e5dc3000 	ldrb	r3, [ip]
    9d6c:	e51f40b8 	ldr	r4, [pc, #-184]	; 9cbc <.text+0x5cbc>
    9d70:	e51f50b8 	ldr	r5, [pc, #-184]	; 9cc0 <.text+0x5cc0>
    9d74:	e35300ff 	cmp	r3, #255	; 0xff
    9d78:	e3a03013 	mov	r3, #19	; 0x13
    9d7c:	e5c43000 	strb	r3, [r4]
    9d80:	e283300c 	add	r3, r3, #12	; 0xc
    9d84:	e5c53000 	strb	r3, [r5]
    9d88:	0243301f 	subeq	r3, r3, #31	; 0x1f
    9d8c:	05cc3000 	streqb	r3, [ip]
    9d90:	e3a01007 	mov	r1, #7	; 0x7
    9d94:	e7c61002 	strb	r1, [r6, r2]
    9d98:	e5dc2000 	ldrb	r2, [ip]
    9d9c:	e2823001 	add	r3, r2, #1	; 0x1
    9da0:	e5cc3000 	strb	r3, [ip]
    9da4:	e5dc3000 	ldrb	r3, [ip]
    9da8:	e35300ff 	cmp	r3, #255	; 0xff
    9dac:	e3a0301a 	mov	r3, #26	; 0x1a
    9db0:	e5c43000 	strb	r3, [r4]
    9db4:	e283301f 	add	r3, r3, #31	; 0x1f
    9db8:	e5c53000 	strb	r3, [r5]
    9dbc:	02433039 	subeq	r3, r3, #57	; 0x39
    9dc0:	05cc3000 	streqb	r3, [ip]
    9dc4:	e7c61002 	strb	r1, [r6, r2]
    9dc8:	e51fe160 	ldr	lr, [pc, #-352]	; 9c70 <.text+0x5c70>
    9dcc:	e5dc0000 	ldrb	r0, [ip]
    9dd0:	e5de1000 	ldrb	r1, [lr]
    9dd4:	e2802001 	add	r2, r0, #1	; 0x1
    9dd8:	e281301a 	add	r3, r1, #26	; 0x1a
    9ddc:	e5cc2000 	strb	r2, [ip]
    9de0:	e5c43000 	strb	r3, [r4]
    9de4:	e5dc3000 	ldrb	r3, [ip]
    9de8:	e5d42000 	ldrb	r2, [r4]
    9dec:	e35300ff 	cmp	r3, #255	; 0xff
    9df0:	e2823039 	add	r3, r2, #57	; 0x39
    9df4:	e5c53000 	strb	r3, [r5]
    9df8:	03a03000 	moveq	r3, #0	; 0x0
    9dfc:	05cc3000 	streqb	r3, [ip]
    9e00:	e7c61000 	strb	r1, [r6, r0]
    9e04:	e5dc1000 	ldrb	r1, [ip]
    9e08:	e5de0001 	ldrb	r0, [lr, #1]
    9e0c:	e0803002 	add	r3, r0, r2
    9e10:	e2812001 	add	r2, r1, #1	; 0x1
    9e14:	e5c43000 	strb	r3, [r4]
    9e18:	e5cc2000 	strb	r2, [ip]
    9e1c:	e5dc3000 	ldrb	r3, [ip]
    9e20:	e35300ff 	cmp	r3, #255	; 0xff
    9e24:	e5d4e000 	ldrb	lr, [r4]
    9e28:	e5d52000 	ldrb	r2, [r5]
    9e2c:	024330ff 	subeq	r3, r3, #255	; 0xff
    9e30:	05cc3000 	streqb	r3, [ip]
    9e34:	e082200e 	add	r2, r2, lr
    9e38:	e5c52000 	strb	r2, [r5]
    9e3c:	e7c60001 	strb	r0, [r6, r1]
    9e40:	e51f71d4 	ldr	r7, [pc, #-468]	; 9c74 <.text+0x5c74>
    9e44:	e5dc0000 	ldrb	r0, [ip]
    9e48:	e5d71000 	ldrb	r1, [r7]
    9e4c:	e2802001 	add	r2, r0, #1	; 0x1
    9e50:	e5cc2000 	strb	r2, [ip]
    9e54:	e081300e 	add	r3, r1, lr
    9e58:	e5c43000 	strb	r3, [r4]
    9e5c:	e5dc3000 	ldrb	r3, [ip]
    9e60:	e5d4e000 	ldrb	lr, [r4]
    9e64:	e35300ff 	cmp	r3, #255	; 0xff
    9e68:	e5d52000 	ldrb	r2, [r5]
    9e6c:	024330ff 	subeq	r3, r3, #255	; 0xff
    9e70:	05cc3000 	streqb	r3, [ip]
    9e74:	e082200e 	add	r2, r2, lr
    9e78:	e5c52000 	strb	r2, [r5]
    9e7c:	e7c61000 	strb	r1, [r6, r0]
    9e80:	e5dc1000 	ldrb	r1, [ip]
    9e84:	e5d70001 	ldrb	r0, [r7, #1]
    9e88:	e2812001 	add	r2, r1, #1	; 0x1
    9e8c:	e080300e 	add	r3, r0, lr
    9e90:	e5cc2000 	strb	r2, [ip]
    9e94:	e5c43000 	strb	r3, [r4]
    9e98:	e5dc3000 	ldrb	r3, [ip]
    9e9c:	e5d52000 	ldrb	r2, [r5]
    9ea0:	e5d4e000 	ldrb	lr, [r4]
    9ea4:	e35300ff 	cmp	r3, #255	; 0xff
    9ea8:	e082200e 	add	r2, r2, lr
    9eac:	024330ff 	subeq	r3, r3, #255	; 0xff
    9eb0:	e5c52000 	strb	r2, [r5]
    9eb4:	e7c60001 	strb	r0, [r6, r1]
    9eb8:	05cc3000 	streqb	r3, [ip]
    9ebc:	e51f724c 	ldr	r7, [pc, #-588]	; 9c78 <.text+0x5c78>
    9ec0:	e5dc0000 	ldrb	r0, [ip]
    9ec4:	e5d71000 	ldrb	r1, [r7]
    9ec8:	e2802001 	add	r2, r0, #1	; 0x1
    9ecc:	e5cc2000 	strb	r2, [ip]
    9ed0:	e081300e 	add	r3, r1, lr
    9ed4:	e5c43000 	strb	r3, [r4]
    9ed8:	e5dc3000 	ldrb	r3, [ip]
    9edc:	e5d4e000 	ldrb	lr, [r4]
    9ee0:	e5d52000 	ldrb	r2, [r5]
    9ee4:	e35300ff 	cmp	r3, #255	; 0xff
    9ee8:	e082200e 	add	r2, r2, lr
    9eec:	024330ff 	subeq	r3, r3, #255	; 0xff
    9ef0:	05cc3000 	streqb	r3, [ip]
    9ef4:	e5c52000 	strb	r2, [r5]
    9ef8:	e7c61000 	strb	r1, [r6, r0]
    9efc:	e5d70001 	ldrb	r0, [r7, #1]
    9f00:	e5dc1000 	ldrb	r1, [ip]
    9f04:	e080300e 	add	r3, r0, lr
    9f08:	e5c43000 	strb	r3, [r4]
    9f0c:	e2812001 	add	r2, r1, #1	; 0x1
    9f10:	e5cc2000 	strb	r2, [ip]
    9f14:	e5d4e000 	ldrb	lr, [r4]
    9f18:	e5dc2000 	ldrb	r2, [ip]
    9f1c:	e5d53000 	ldrb	r3, [r5]
    9f20:	e35200ff 	cmp	r2, #255	; 0xff
    9f24:	e083300e 	add	r3, r3, lr
    9f28:	e5c53000 	strb	r3, [r5]
    9f2c:	03a03000 	moveq	r3, #0	; 0x0
    9f30:	05cc3000 	streqb	r3, [ip]
    9f34:	e5dc3000 	ldrb	r3, [ip]
    9f38:	e2832001 	add	r2, r3, #1	; 0x1
    9f3c:	e5cc2000 	strb	r2, [ip]
    9f40:	e5dc2000 	ldrb	r2, [ip]
    9f44:	e35200ff 	cmp	r2, #255	; 0xff
    9f48:	e7c60001 	strb	r0, [r6, r1]
    9f4c:	e7c6e003 	strb	lr, [r6, r3]
    9f50:	03a03000 	moveq	r3, #0	; 0x0
    9f54:	05cc3000 	streqb	r3, [ip]
    9f58:	e5dc1000 	ldrb	r1, [ip]
    9f5c:	e2813001 	add	r3, r1, #1	; 0x1
    9f60:	e5cc3000 	strb	r3, [ip]
    9f64:	e5d52000 	ldrb	r2, [r5]
    9f68:	e5dc3000 	ldrb	r3, [ip]
    9f6c:	e7c62001 	strb	r2, [r6, r1]
    9f70:	e35300ff 	cmp	r3, #255	; 0xff
    9f74:	024330ff 	subeq	r3, r3, #255	; 0xff
    9f78:	05cc3000 	streqb	r3, [ip]
    9f7c:	ea000003 	b	9f90 <.text+0x5f90>
    9f80:	e51f230c 	ldr	r2, [pc, #-780]	; 9c7c <.text+0x5c7c>
    9f84:	e5d23000 	ldrb	r3, [r2]
    9f88:	e2833001 	add	r3, r3, #1	; 0x1
    9f8c:	e5c23000 	strb	r3, [r2]
    9f90:	e51f2318 	ldr	r2, [pc, #-792]	; 9c80 <.text+0x5c80>
    9f94:	e5d23000 	ldrb	r3, [r2]
    9f98:	e353003c 	cmp	r3, #60	; 0x3c
    9f9c:	1a0000f7 	bne	a380 <.text+0x6380>
    9fa0:	e51f3324 	ldr	r3, [pc, #-804]	; 9c84 <.text+0x5c84>
    9fa4:	e5930000 	ldr	r0, [r3]
    9fa8:	eb0037d2 	bl	17ef8 <__fixsfsi>
    9fac:	e51f1304 	ldr	r1, [pc, #-772]	; 9cb0 <.text+0x5cb0>
    9fb0:	e51fe300 	ldr	lr, [pc, #-768]	; 9cb8 <.text+0x5cb8>
    9fb4:	e5d13000 	ldrb	r3, [r1]
    9fb8:	e5de2000 	ldrb	r2, [lr]
    9fbc:	e14b03b2 	strh	r0, [fp, #-50]
    9fc0:	e1520003 	cmp	r2, r3
    9fc4:	25d13000 	ldrcsb	r3, [r1]
    9fc8:	35d13000 	ldrccb	r3, [r1]
    9fcc:	20633002 	rsbcs	r3, r3, r2
    9fd0:	226330ff 	rsbcs	r3, r3, #255	; 0xff
    9fd4:	30623003 	rsbcc	r3, r2, r3
    9fd8:	e3530012 	cmp	r3, #18	; 0x12
    9fdc:	da00033c 	ble	acd4 <.text+0x6cd4>
    9fe0:	e5de2000 	ldrb	r2, [lr]
    9fe4:	e2823001 	add	r3, r2, #1	; 0x1
    9fe8:	e5ce3000 	strb	r3, [lr]
    9fec:	e5de3000 	ldrb	r3, [lr]
    9ff0:	e51f6344 	ldr	r6, [pc, #-836]	; 9cb4 <.text+0x5cb4>
    9ff4:	e35300ff 	cmp	r3, #255	; 0xff
    9ff8:	e3e03066 	mvn	r3, #102	; 0x66
    9ffc:	e7c63002 	strb	r3, [r6, r2]
    a000:	02833067 	addeq	r3, r3, #103	; 0x67
    a004:	e51fc354 	ldr	ip, [pc, #-852]	; 9cb8 <.text+0x5cb8>
    a008:	05ce3000 	streqb	r3, [lr]
    a00c:	e5dc2000 	ldrb	r2, [ip]
    a010:	e2823001 	add	r3, r2, #1	; 0x1
    a014:	e5cc3000 	strb	r3, [ip]
    a018:	e5dc3000 	ldrb	r3, [ip]
    a01c:	e35300ff 	cmp	r3, #255	; 0xff
    a020:	e3a03012 	mov	r3, #18	; 0x12
    a024:	e7c63002 	strb	r3, [r6, r2]
    a028:	02433012 	subeq	r3, r3, #18	; 0x12
    a02c:	05cc3000 	streqb	r3, [ip]
    a030:	e5dc2000 	ldrb	r2, [ip]
    a034:	e2823001 	add	r3, r2, #1	; 0x1
    a038:	e5cc3000 	strb	r3, [ip]
    a03c:	e5dc3000 	ldrb	r3, [ip]
    a040:	e51fe38c 	ldr	lr, [pc, #-908]	; 9cbc <.text+0x5cbc>
    a044:	e51f538c 	ldr	r5, [pc, #-908]	; 9cc0 <.text+0x5cc0>
    a048:	e35300ff 	cmp	r3, #255	; 0xff
    a04c:	e3a03019 	mov	r3, #25	; 0x19
    a050:	e5ce3000 	strb	r3, [lr]
    a054:	e2833012 	add	r3, r3, #18	; 0x12
    a058:	e5c53000 	strb	r3, [r5]
    a05c:	e2433024 	sub	r3, r3, #36	; 0x24
    a060:	e7c63002 	strb	r3, [r6, r2]
    a064:	02433007 	subeq	r3, r3, #7	; 0x7
    a068:	05cc3000 	streqb	r3, [ip]
    a06c:	e5dc2000 	ldrb	r2, [ip]
    a070:	e2823001 	add	r3, r2, #1	; 0x1
    a074:	e5cc3000 	strb	r3, [ip]
    a078:	e5dc3000 	ldrb	r3, [ip]
    a07c:	e35300ff 	cmp	r3, #255	; 0xff
    a080:	e3a03025 	mov	r3, #37	; 0x25
    a084:	e5ce3000 	strb	r3, [lr]
    a088:	e283302b 	add	r3, r3, #43	; 0x2b
    a08c:	e5c53000 	strb	r3, [r5]
    a090:	e2433044 	sub	r3, r3, #68	; 0x44
    a094:	e7c63002 	strb	r3, [r6, r2]
    a098:	0243300c 	subeq	r3, r3, #12	; 0xc
    a09c:	05cc3000 	streqb	r3, [ip]
    a0a0:	e51f4420 	ldr	r4, [pc, #-1056]	; 9c88 <.text+0x5c88>
    a0a4:	e5dc0000 	ldrb	r0, [ip]
    a0a8:	e5d41000 	ldrb	r1, [r4]
    a0ac:	e2802001 	add	r2, r0, #1	; 0x1
    a0b0:	e2813025 	add	r3, r1, #37	; 0x25
    a0b4:	e5cc2000 	strb	r2, [ip]
    a0b8:	e5ce3000 	strb	r3, [lr]
    a0bc:	e5dc3000 	ldrb	r3, [ip]
    a0c0:	e5de2000 	ldrb	r2, [lr]
    a0c4:	e35300ff 	cmp	r3, #255	; 0xff
    a0c8:	e2823050 	add	r3, r2, #80	; 0x50
    a0cc:	e5c53000 	strb	r3, [r5]
    a0d0:	03a03000 	moveq	r3, #0	; 0x0
    a0d4:	05cc3000 	streqb	r3, [ip]
    a0d8:	e7c61000 	strb	r1, [r6, r0]
    a0dc:	e5dc1000 	ldrb	r1, [ip]
    a0e0:	e5d40001 	ldrb	r0, [r4, #1]
    a0e4:	e0803002 	add	r3, r0, r2
    a0e8:	e2812001 	add	r2, r1, #1	; 0x1
    a0ec:	e5ce3000 	strb	r3, [lr]
    a0f0:	e5cc2000 	strb	r2, [ip]
    a0f4:	e5dc3000 	ldrb	r3, [ip]
    a0f8:	e35300ff 	cmp	r3, #255	; 0xff
    a0fc:	e5de4000 	ldrb	r4, [lr]
    a100:	e5d52000 	ldrb	r2, [r5]
    a104:	024330ff 	subeq	r3, r3, #255	; 0xff
    a108:	05cc3000 	streqb	r3, [ip]
    a10c:	e0822004 	add	r2, r2, r4
    a110:	e5c52000 	strb	r2, [r5]
    a114:	e7c60001 	strb	r0, [r6, r1]
    a118:	e51f3494 	ldr	r3, [pc, #-1172]	; 9c8c <.text+0x5c8c>
    a11c:	e5dc1000 	ldrb	r1, [ip]
    a120:	e5d30000 	ldrb	r0, [r3]
    a124:	e2812001 	add	r2, r1, #1	; 0x1
    a128:	e5cc2000 	strb	r2, [ip]
    a12c:	e0803004 	add	r3, r0, r4
    a130:	e5ce3000 	strb	r3, [lr]
    a134:	e5dc3000 	ldrb	r3, [ip]
    a138:	e35300ff 	cmp	r3, #255	; 0xff
    a13c:	e5de4000 	ldrb	r4, [lr]
    a140:	e5d52000 	ldrb	r2, [r5]
    a144:	024330ff 	subeq	r3, r3, #255	; 0xff
    a148:	05cc3000 	streqb	r3, [ip]
    a14c:	e0822004 	add	r2, r2, r4
    a150:	e5c52000 	strb	r2, [r5]
    a154:	e7c60001 	strb	r0, [r6, r1]
    a158:	e51f74d0 	ldr	r7, [pc, #-1232]	; 9c90 <.text+0x5c90>
    a15c:	e5dc0000 	ldrb	r0, [ip]
    a160:	e5d71000 	ldrb	r1, [r7]
    a164:	e2802001 	add	r2, r0, #1	; 0x1
    a168:	e5cc2000 	strb	r2, [ip]
    a16c:	e0813004 	add	r3, r1, r4
    a170:	e5ce3000 	strb	r3, [lr]
    a174:	e5dc3000 	ldrb	r3, [ip]
    a178:	e5de4000 	ldrb	r4, [lr]
    a17c:	e35300ff 	cmp	r3, #255	; 0xff
    a180:	e5d52000 	ldrb	r2, [r5]
    a184:	024330ff 	subeq	r3, r3, #255	; 0xff
    a188:	05cc3000 	streqb	r3, [ip]
    a18c:	e0822004 	add	r2, r2, r4
    a190:	e5c52000 	strb	r2, [r5]
    a194:	e7c61000 	strb	r1, [r6, r0]
    a198:	e5dc1000 	ldrb	r1, [ip]
    a19c:	e5d70001 	ldrb	r0, [r7, #1]
    a1a0:	e2812001 	add	r2, r1, #1	; 0x1
    a1a4:	e0803004 	add	r3, r0, r4
    a1a8:	e5cc2000 	strb	r2, [ip]
    a1ac:	e5ce3000 	strb	r3, [lr]
    a1b0:	e5dc3000 	ldrb	r3, [ip]
    a1b4:	e5de4000 	ldrb	r4, [lr]
    a1b8:	e5d52000 	ldrb	r2, [r5]
    a1bc:	e35300ff 	cmp	r3, #255	; 0xff
    a1c0:	e0822004 	add	r2, r2, r4
    a1c4:	024330ff 	subeq	r3, r3, #255	; 0xff
    a1c8:	e5c52000 	strb	r2, [r5]
    a1cc:	05cc3000 	streqb	r3, [ip]
    a1d0:	e7c60001 	strb	r0, [r6, r1]
    a1d4:	e51f3548 	ldr	r3, [pc, #-1352]	; 9c94 <.text+0x5c94>
    a1d8:	e5dc1000 	ldrb	r1, [ip]
    a1dc:	e5d30000 	ldrb	r0, [r3]
    a1e0:	e2812001 	add	r2, r1, #1	; 0x1
    a1e4:	e5cc2000 	strb	r2, [ip]
    a1e8:	e0803004 	add	r3, r0, r4
    a1ec:	e5ce3000 	strb	r3, [lr]
    a1f0:	e5dc3000 	ldrb	r3, [ip]
    a1f4:	e35300ff 	cmp	r3, #255	; 0xff
    a1f8:	e5de4000 	ldrb	r4, [lr]
    a1fc:	e5d52000 	ldrb	r2, [r5]
    a200:	024330ff 	subeq	r3, r3, #255	; 0xff
    a204:	05cc3000 	streqb	r3, [ip]
    a208:	e0822004 	add	r2, r2, r4
    a20c:	e5c52000 	strb	r2, [r5]
    a210:	e7c60001 	strb	r0, [r6, r1]
    a214:	e51f7584 	ldr	r7, [pc, #-1412]	; 9c98 <.text+0x5c98>
    a218:	e5dc0000 	ldrb	r0, [ip]
    a21c:	e5d71000 	ldrb	r1, [r7]
    a220:	e2802001 	add	r2, r0, #1	; 0x1
    a224:	e5cc2000 	strb	r2, [ip]
    a228:	e0813004 	add	r3, r1, r4
    a22c:	e5ce3000 	strb	r3, [lr]
    a230:	e5dc3000 	ldrb	r3, [ip]
    a234:	e5de4000 	ldrb	r4, [lr]
    a238:	e5d52000 	ldrb	r2, [r5]
    a23c:	e35300ff 	cmp	r3, #255	; 0xff
    a240:	024330ff 	subeq	r3, r3, #255	; 0xff
    a244:	05cc3000 	streqb	r3, [ip]
    a248:	e0822004 	add	r2, r2, r4
    a24c:	e5c52000 	strb	r2, [r5]
    a250:	e7c61000 	strb	r1, [r6, r0]
    a254:	e5dc1000 	ldrb	r1, [ip]
    a258:	e5d70001 	ldrb	r0, [r7, #1]
    a25c:	e2812001 	add	r2, r1, #1	; 0x1
    a260:	e5cc2000 	strb	r2, [ip]
    a264:	e0803004 	add	r3, r0, r4
    a268:	e5ce3000 	strb	r3, [lr]
    a26c:	e5dc3000 	ldrb	r3, [ip]
    a270:	e5de4000 	ldrb	r4, [lr]
    a274:	e5d52000 	ldrb	r2, [r5]
    a278:	e35300ff 	cmp	r3, #255	; 0xff
    a27c:	e0822004 	add	r2, r2, r4
    a280:	024330ff 	subeq	r3, r3, #255	; 0xff
    a284:	05cc3000 	streqb	r3, [ip]
    a288:	e5c52000 	strb	r2, [r5]
    a28c:	e7c60001 	strb	r0, [r6, r1]
    a290:	e51f75fc 	ldr	r7, [pc, #-1532]	; 9c9c <.text+0x5c9c>
    a294:	e5dc0000 	ldrb	r0, [ip]
    a298:	e5d71000 	ldrb	r1, [r7]
    a29c:	e2802001 	add	r2, r0, #1	; 0x1
    a2a0:	e0813004 	add	r3, r1, r4
    a2a4:	e5ce3000 	strb	r3, [lr]
    a2a8:	e5cc2000 	strb	r2, [ip]
    a2ac:	e5dc3000 	ldrb	r3, [ip]
    a2b0:	e35300ff 	cmp	r3, #255	; 0xff
    a2b4:	e5de4000 	ldrb	r4, [lr]
    a2b8:	e5d52000 	ldrb	r2, [r5]
    a2bc:	024330ff 	subeq	r3, r3, #255	; 0xff
    a2c0:	05cc3000 	streqb	r3, [ip]
    a2c4:	e0822004 	add	r2, r2, r4
    a2c8:	e5c52000 	strb	r2, [r5]
    a2cc:	e7c61000 	strb	r1, [r6, r0]
    a2d0:	e5dc1000 	ldrb	r1, [ip]
    a2d4:	e5d70001 	ldrb	r0, [r7, #1]
    a2d8:	e2812001 	add	r2, r1, #1	; 0x1
    a2dc:	e5cc2000 	strb	r2, [ip]
    a2e0:	e0803004 	add	r3, r0, r4
    a2e4:	e5ce3000 	strb	r3, [lr]
    a2e8:	e5dc3000 	ldrb	r3, [ip]
    a2ec:	e5de4000 	ldrb	r4, [lr]
    a2f0:	e5d52000 	ldrb	r2, [r5]
    a2f4:	e35300ff 	cmp	r3, #255	; 0xff
    a2f8:	024330ff 	subeq	r3, r3, #255	; 0xff
    a2fc:	05cc3000 	streqb	r3, [ip]
    a300:	e0822004 	add	r2, r2, r4
    a304:	e5c52000 	strb	r2, [r5]
    a308:	e7c60001 	strb	r0, [r6, r1]
    a30c:	e5dc0000 	ldrb	r0, [ip]
    a310:	e55b1032 	ldrb	r1, [fp, #-50]
    a314:	e2802001 	add	r2, r0, #1	; 0x1
    a318:	e5cc2000 	strb	r2, [ip]
    a31c:	e0813004 	add	r3, r1, r4
    a320:	e5ce3000 	strb	r3, [lr]
    a324:	e5dc3000 	ldrb	r3, [ip]
    a328:	e5de4000 	ldrb	r4, [lr]
    a32c:	e5d52000 	ldrb	r2, [r5]
    a330:	e35300ff 	cmp	r3, #255	; 0xff
    a334:	024330ff 	subeq	r3, r3, #255	; 0xff
    a338:	e0822004 	add	r2, r2, r4
    a33c:	05cc3000 	streqb	r3, [ip]
    a340:	e5c52000 	strb	r2, [r5]
    a344:	e7c61000 	strb	r1, [r6, r0]
    a348:	e5dc0000 	ldrb	r0, [ip]
    a34c:	e55b1031 	ldrb	r1, [fp, #-49]
    a350:	e2802001 	add	r2, r0, #1	; 0x1
    a354:	e0813004 	add	r3, r1, r4
    a358:	e5ce3000 	strb	r3, [lr]
    a35c:	e5cc2000 	strb	r2, [ip]
    a360:	e5dee000 	ldrb	lr, [lr]
    a364:	e5d53000 	ldrb	r3, [r5]
    a368:	e5dc2000 	ldrb	r2, [ip]
    a36c:	e083300e 	add	r3, r3, lr
    a370:	e35200ff 	cmp	r2, #255	; 0xff
    a374:	e5c53000 	strb	r3, [r5]
    a378:	e7c61000 	strb	r1, [r6, r0]
    a37c:	ea000101 	b	a788 <.text+0x6788>
    a380:	e3530042 	cmp	r3, #66	; 0x42
    a384:	1a00010f 	bne	a7c8 <.text+0x67c8>
    a388:	e51f16e0 	ldr	r1, [pc, #-1760]	; 9cb0 <.text+0x5cb0>
    a38c:	e51f06dc 	ldr	r0, [pc, #-1756]	; 9cb8 <.text+0x5cb8>
    a390:	e5d13000 	ldrb	r3, [r1]
    a394:	e5d02000 	ldrb	r2, [r0]
    a398:	e1520003 	cmp	r2, r3
    a39c:	25d13000 	ldrcsb	r3, [r1]
    a3a0:	35d13000 	ldrccb	r3, [r1]
    a3a4:	20633002 	rsbcs	r3, r3, r2
    a3a8:	226330ff 	rsbcs	r3, r3, #255	; 0xff
    a3ac:	30623003 	rsbcc	r3, r2, r3
    a3b0:	e3530013 	cmp	r3, #19	; 0x13
    a3b4:	da000246 	ble	acd4 <.text+0x6cd4>
    a3b8:	e5d02000 	ldrb	r2, [r0]
    a3bc:	e2823001 	add	r3, r2, #1	; 0x1
    a3c0:	e5c03000 	strb	r3, [r0]
    a3c4:	e5d03000 	ldrb	r3, [r0]
    a3c8:	e51f671c 	ldr	r6, [pc, #-1820]	; 9cb4 <.text+0x5cb4>
    a3cc:	e35300ff 	cmp	r3, #255	; 0xff
    a3d0:	e3e03066 	mvn	r3, #102	; 0x66
    a3d4:	e7c63002 	strb	r3, [r6, r2]
    a3d8:	02833067 	addeq	r3, r3, #103	; 0x67
    a3dc:	e51fc72c 	ldr	ip, [pc, #-1836]	; 9cb8 <.text+0x5cb8>
    a3e0:	05c03000 	streqb	r3, [r0]
    a3e4:	e5dc2000 	ldrb	r2, [ip]
    a3e8:	e2823001 	add	r3, r2, #1	; 0x1
    a3ec:	e5cc3000 	strb	r3, [ip]
    a3f0:	e5dc3000 	ldrb	r3, [ip]
    a3f4:	e35300ff 	cmp	r3, #255	; 0xff
    a3f8:	e3a03013 	mov	r3, #19	; 0x13
    a3fc:	e7c63002 	strb	r3, [r6, r2]
    a400:	02433013 	subeq	r3, r3, #19	; 0x13
    a404:	05cc3000 	streqb	r3, [ip]
    a408:	e5dc2000 	ldrb	r2, [ip]
    a40c:	e2823001 	add	r3, r2, #1	; 0x1
    a410:	e5cc3000 	strb	r3, [ip]
    a414:	e5dc3000 	ldrb	r3, [ip]
    a418:	e51fe764 	ldr	lr, [pc, #-1892]	; 9cbc <.text+0x5cbc>
    a41c:	e51f5764 	ldr	r5, [pc, #-1892]	; 9cc0 <.text+0x5cc0>
    a420:	e35300ff 	cmp	r3, #255	; 0xff
    a424:	e3a0301a 	mov	r3, #26	; 0x1a
    a428:	e5ce3000 	strb	r3, [lr]
    a42c:	e2833013 	add	r3, r3, #19	; 0x13
    a430:	e5c53000 	strb	r3, [r5]
    a434:	e2433026 	sub	r3, r3, #38	; 0x26
    a438:	e7c63002 	strb	r3, [r6, r2]
    a43c:	02433007 	subeq	r3, r3, #7	; 0x7
    a440:	05cc3000 	streqb	r3, [ip]
    a444:	e5dc2000 	ldrb	r2, [ip]
    a448:	e2823001 	add	r3, r2, #1	; 0x1
    a44c:	e5cc3000 	strb	r3, [ip]
    a450:	e5dc3000 	ldrb	r3, [ip]
    a454:	e35300ff 	cmp	r3, #255	; 0xff
    a458:	e3a03028 	mov	r3, #40	; 0x28
    a45c:	e5ce3000 	strb	r3, [lr]
    a460:	e283302d 	add	r3, r3, #45	; 0x2d
    a464:	e5c53000 	strb	r3, [r5]
    a468:	e2433047 	sub	r3, r3, #71	; 0x47
    a46c:	e7c63002 	strb	r3, [r6, r2]
    a470:	0243300e 	subeq	r3, r3, #14	; 0xe
    a474:	05cc3000 	streqb	r3, [ip]
    a478:	e51f77e0 	ldr	r7, [pc, #-2016]	; 9ca0 <.text+0x5ca0>
    a47c:	e5dc0000 	ldrb	r0, [ip]
    a480:	e5d71000 	ldrb	r1, [r7]
    a484:	e2802001 	add	r2, r0, #1	; 0x1
    a488:	e2813028 	add	r3, r1, #40	; 0x28
    a48c:	e5cc2000 	strb	r2, [ip]
    a490:	e5ce3000 	strb	r3, [lr]
    a494:	e5dc3000 	ldrb	r3, [ip]
    a498:	e5de4000 	ldrb	r4, [lr]
    a49c:	e35300ff 	cmp	r3, #255	; 0xff
    a4a0:	e2843055 	add	r3, r4, #85	; 0x55
    a4a4:	e5c53000 	strb	r3, [r5]
    a4a8:	03a03000 	moveq	r3, #0	; 0x0
    a4ac:	05cc3000 	streqb	r3, [ip]
    a4b0:	e7c61000 	strb	r1, [r6, r0]
    a4b4:	e5dc0000 	ldrb	r0, [ip]
    a4b8:	e5d71001 	ldrb	r1, [r7, #1]
    a4bc:	e2802001 	add	r2, r0, #1	; 0x1
    a4c0:	e0813004 	add	r3, r1, r4
    a4c4:	e5ce3000 	strb	r3, [lr]
    a4c8:	e5cc2000 	strb	r2, [ip]
    a4cc:	e5dc3000 	ldrb	r3, [ip]
    a4d0:	e35300ff 	cmp	r3, #255	; 0xff
    a4d4:	e5de4000 	ldrb	r4, [lr]
    a4d8:	e5d52000 	ldrb	r2, [r5]
    a4dc:	024330ff 	subeq	r3, r3, #255	; 0xff
    a4e0:	05cc3000 	streqb	r3, [ip]
    a4e4:	e0822004 	add	r2, r2, r4
    a4e8:	e5c52000 	strb	r2, [r5]
    a4ec:	e7c61000 	strb	r1, [r6, r0]
    a4f0:	e5dc0000 	ldrb	r0, [ip]
    a4f4:	e5d71002 	ldrb	r1, [r7, #2]
    a4f8:	e2802001 	add	r2, r0, #1	; 0x1
    a4fc:	e5cc2000 	strb	r2, [ip]
    a500:	e0813004 	add	r3, r1, r4
    a504:	e5ce3000 	strb	r3, [lr]
    a508:	e5dc3000 	ldrb	r3, [ip]
    a50c:	e35300ff 	cmp	r3, #255	; 0xff
    a510:	e5de4000 	ldrb	r4, [lr]
    a514:	e5d52000 	ldrb	r2, [r5]
    a518:	024330ff 	subeq	r3, r3, #255	; 0xff
    a51c:	05cc3000 	streqb	r3, [ip]
    a520:	e0822004 	add	r2, r2, r4
    a524:	e5c52000 	strb	r2, [r5]
    a528:	e7c61000 	strb	r1, [r6, r0]
    a52c:	e5dc1000 	ldrb	r1, [ip]
    a530:	e5d70003 	ldrb	r0, [r7, #3]
    a534:	e2812001 	add	r2, r1, #1	; 0x1
    a538:	e5cc2000 	strb	r2, [ip]
    a53c:	e0803004 	add	r3, r0, r4
    a540:	e5ce3000 	strb	r3, [lr]
    a544:	e5dc3000 	ldrb	r3, [ip]
    a548:	e5de4000 	ldrb	r4, [lr]
    a54c:	e35300ff 	cmp	r3, #255	; 0xff
    a550:	e5d52000 	ldrb	r2, [r5]
    a554:	024330ff 	subeq	r3, r3, #255	; 0xff
    a558:	05cc3000 	streqb	r3, [ip]
    a55c:	e0822004 	add	r2, r2, r4
    a560:	e51f78c4 	ldr	r7, [pc, #-2244]	; 9ca4 <.text+0x5ca4>
    a564:	e5c52000 	strb	r2, [r5]
    a568:	e7c60001 	strb	r0, [r6, r1]
    a56c:	e5dc0000 	ldrb	r0, [ip]
    a570:	e5d71000 	ldrb	r1, [r7]
    a574:	e2802001 	add	r2, r0, #1	; 0x1
    a578:	e0813004 	add	r3, r1, r4
    a57c:	e5cc2000 	strb	r2, [ip]
    a580:	e5ce3000 	strb	r3, [lr]
    a584:	e5dc3000 	ldrb	r3, [ip]
    a588:	e5de4000 	ldrb	r4, [lr]
    a58c:	e5d52000 	ldrb	r2, [r5]
    a590:	e35300ff 	cmp	r3, #255	; 0xff
    a594:	e0822004 	add	r2, r2, r4
    a598:	024330ff 	subeq	r3, r3, #255	; 0xff
    a59c:	e5c52000 	strb	r2, [r5]
    a5a0:	05cc3000 	streqb	r3, [ip]
    a5a4:	e7c61000 	strb	r1, [r6, r0]
    a5a8:	e5dc0000 	ldrb	r0, [ip]
    a5ac:	e5d71001 	ldrb	r1, [r7, #1]
    a5b0:	e2802001 	add	r2, r0, #1	; 0x1
    a5b4:	e5cc2000 	strb	r2, [ip]
    a5b8:	e0813004 	add	r3, r1, r4
    a5bc:	e5ce3000 	strb	r3, [lr]
    a5c0:	e5dc3000 	ldrb	r3, [ip]
    a5c4:	e35300ff 	cmp	r3, #255	; 0xff
    a5c8:	e5de4000 	ldrb	r4, [lr]
    a5cc:	e5d52000 	ldrb	r2, [r5]
    a5d0:	024330ff 	subeq	r3, r3, #255	; 0xff
    a5d4:	05cc3000 	streqb	r3, [ip]
    a5d8:	e0822004 	add	r2, r2, r4
    a5dc:	e5c52000 	strb	r2, [r5]
    a5e0:	e7c61000 	strb	r1, [r6, r0]
    a5e4:	e5dc0000 	ldrb	r0, [ip]
    a5e8:	e5d71002 	ldrb	r1, [r7, #2]
    a5ec:	e2802001 	add	r2, r0, #1	; 0x1
    a5f0:	e5cc2000 	strb	r2, [ip]
    a5f4:	e0813004 	add	r3, r1, r4
    a5f8:	e5ce3000 	strb	r3, [lr]
    a5fc:	e5dc3000 	ldrb	r3, [ip]
    a600:	e5de4000 	ldrb	r4, [lr]
    a604:	e5d52000 	ldrb	r2, [r5]
    a608:	e35300ff 	cmp	r3, #255	; 0xff
    a60c:	024330ff 	subeq	r3, r3, #255	; 0xff
    a610:	05cc3000 	streqb	r3, [ip]
    a614:	e0822004 	add	r2, r2, r4
    a618:	e5c52000 	strb	r2, [r5]
    a61c:	e7c61000 	strb	r1, [r6, r0]
    a620:	e5dc1000 	ldrb	r1, [ip]
    a624:	e5d70003 	ldrb	r0, [r7, #3]
    a628:	e2812001 	add	r2, r1, #1	; 0x1
    a62c:	e5cc2000 	strb	r2, [ip]
    a630:	e0803004 	add	r3, r0, r4
    a634:	e5ce3000 	strb	r3, [lr]
    a638:	e5dc3000 	ldrb	r3, [ip]
    a63c:	e5de4000 	ldrb	r4, [lr]
    a640:	e5d52000 	ldrb	r2, [r5]
    a644:	e35300ff 	cmp	r3, #255	; 0xff
    a648:	e0822004 	add	r2, r2, r4
    a64c:	024330ff 	subeq	r3, r3, #255	; 0xff
    a650:	05cc3000 	streqb	r3, [ip]
    a654:	e51f79b4 	ldr	r7, [pc, #-2484]	; 9ca8 <.text+0x5ca8>
    a658:	e5c52000 	strb	r2, [r5]
    a65c:	e7c60001 	strb	r0, [r6, r1]
    a660:	e5dc0000 	ldrb	r0, [ip]
    a664:	e5d71000 	ldrb	r1, [r7]
    a668:	e2802001 	add	r2, r0, #1	; 0x1
    a66c:	e0813004 	add	r3, r1, r4
    a670:	e5ce3000 	strb	r3, [lr]
    a674:	e5cc2000 	strb	r2, [ip]
    a678:	e5dc3000 	ldrb	r3, [ip]
    a67c:	e35300ff 	cmp	r3, #255	; 0xff
    a680:	e5de4000 	ldrb	r4, [lr]
    a684:	e5d52000 	ldrb	r2, [r5]
    a688:	024330ff 	subeq	r3, r3, #255	; 0xff
    a68c:	05cc3000 	streqb	r3, [ip]
    a690:	e0822004 	add	r2, r2, r4
    a694:	e5c52000 	strb	r2, [r5]
    a698:	e7c61000 	strb	r1, [r6, r0]
    a69c:	e5dc0000 	ldrb	r0, [ip]
    a6a0:	e5d71001 	ldrb	r1, [r7, #1]
    a6a4:	e2802001 	add	r2, r0, #1	; 0x1
    a6a8:	e5cc2000 	strb	r2, [ip]
    a6ac:	e0813004 	add	r3, r1, r4
    a6b0:	e5ce3000 	strb	r3, [lr]
    a6b4:	e5dc3000 	ldrb	r3, [ip]
    a6b8:	e35300ff 	cmp	r3, #255	; 0xff
    a6bc:	e5de4000 	ldrb	r4, [lr]
    a6c0:	e5d52000 	ldrb	r2, [r5]
    a6c4:	024330ff 	subeq	r3, r3, #255	; 0xff
    a6c8:	05cc3000 	streqb	r3, [ip]
    a6cc:	e0822004 	add	r2, r2, r4
    a6d0:	e5c52000 	strb	r2, [r5]
    a6d4:	e7c61000 	strb	r1, [r6, r0]
    a6d8:	e5dc0000 	ldrb	r0, [ip]
    a6dc:	e5d71002 	ldrb	r1, [r7, #2]
    a6e0:	e2802001 	add	r2, r0, #1	; 0x1
    a6e4:	e5cc2000 	strb	r2, [ip]
    a6e8:	e0813004 	add	r3, r1, r4
    a6ec:	e5ce3000 	strb	r3, [lr]
    a6f0:	e5dc3000 	ldrb	r3, [ip]
    a6f4:	e5de4000 	ldrb	r4, [lr]
    a6f8:	e35300ff 	cmp	r3, #255	; 0xff
    a6fc:	e5d52000 	ldrb	r2, [r5]
    a700:	024330ff 	subeq	r3, r3, #255	; 0xff
    a704:	05cc3000 	streqb	r3, [ip]
    a708:	e0822004 	add	r2, r2, r4
    a70c:	e5c52000 	strb	r2, [r5]
    a710:	e7c61000 	strb	r1, [r6, r0]
    a714:	e5dc1000 	ldrb	r1, [ip]
    a718:	e5d70003 	ldrb	r0, [r7, #3]
    a71c:	e2812001 	add	r2, r1, #1	; 0x1
    a720:	e0803004 	add	r3, r0, r4
    a724:	e5cc2000 	strb	r2, [ip]
    a728:	e5ce3000 	strb	r3, [lr]
    a72c:	e5dc3000 	ldrb	r3, [ip]
    a730:	e5de4000 	ldrb	r4, [lr]
    a734:	e5d52000 	ldrb	r2, [r5]
    a738:	e35300ff 	cmp	r3, #255	; 0xff
    a73c:	024330ff 	subeq	r3, r3, #255	; 0xff
    a740:	e0822004 	add	r2, r2, r4
    a744:	e5c52000 	strb	r2, [r5]
    a748:	05cc3000 	streqb	r3, [ip]
    a74c:	e7c60001 	strb	r0, [r6, r1]
    a750:	e51f3aac 	ldr	r3, [pc, #-2732]	; 9cac <.text+0x5cac>
    a754:	e5d30000 	ldrb	r0, [r3]
    a758:	e5dc1000 	ldrb	r1, [ip]
    a75c:	e0803004 	add	r3, r0, r4
    a760:	e5ce3000 	strb	r3, [lr]
    a764:	e2812001 	add	r2, r1, #1	; 0x1
    a768:	e5d53000 	ldrb	r3, [r5]
    a76c:	e5cc2000 	strb	r2, [ip]
    a770:	e5dee000 	ldrb	lr, [lr]
    a774:	e5dc2000 	ldrb	r2, [ip]
    a778:	e083300e 	add	r3, r3, lr
    a77c:	e5c53000 	strb	r3, [r5]
    a780:	e7c60001 	strb	r0, [r6, r1]
    a784:	e35200ff 	cmp	r2, #255	; 0xff
    a788:	03a03000 	moveq	r3, #0	; 0x0
    a78c:	05cc3000 	streqb	r3, [ip]
    a790:	e5dc3000 	ldrb	r3, [ip]
    a794:	e2832001 	add	r2, r3, #1	; 0x1
    a798:	e5cc2000 	strb	r2, [ip]
    a79c:	e5dc2000 	ldrb	r2, [ip]
    a7a0:	e35200ff 	cmp	r2, #255	; 0xff
    a7a4:	e7c6e003 	strb	lr, [r6, r3]
    a7a8:	03a03000 	moveq	r3, #0	; 0x0
    a7ac:	05cc3000 	streqb	r3, [ip]
    a7b0:	e5dc1000 	ldrb	r1, [ip]
    a7b4:	e2813001 	add	r3, r1, #1	; 0x1
    a7b8:	e5cc3000 	strb	r3, [ip]
    a7bc:	e5d52000 	ldrb	r2, [r5]
    a7c0:	e5dc3000 	ldrb	r3, [ip]
    a7c4:	ea00013d 	b	acc0 <.text+0x6cc0>
    a7c8:	e3530048 	cmp	r3, #72	; 0x48
    a7cc:	1a000144 	bne	ace4 <.text+0x6ce4>
    a7d0:	e51f1b28 	ldr	r1, [pc, #-2856]	; 9cb0 <.text+0x5cb0>
    a7d4:	e51f0b24 	ldr	r0, [pc, #-2852]	; 9cb8 <.text+0x5cb8>
    a7d8:	e5d13000 	ldrb	r3, [r1]
    a7dc:	e5d02000 	ldrb	r2, [r0]
    a7e0:	e1520003 	cmp	r2, r3
    a7e4:	25d13000 	ldrcsb	r3, [r1]
    a7e8:	35d13000 	ldrccb	r3, [r1]
    a7ec:	20633002 	rsbcs	r3, r3, r2
    a7f0:	226330ff 	rsbcs	r3, r3, #255	; 0xff
    a7f4:	30623003 	rsbcc	r3, r2, r3
    a7f8:	e3530016 	cmp	r3, #22	; 0x16
    a7fc:	da000134 	ble	acd4 <.text+0x6cd4>
    a800:	e5d02000 	ldrb	r2, [r0]
    a804:	e2823001 	add	r3, r2, #1	; 0x1
    a808:	e5c03000 	strb	r3, [r0]
    a80c:	e5d03000 	ldrb	r3, [r0]
    a810:	e51f6b64 	ldr	r6, [pc, #-2916]	; 9cb4 <.text+0x5cb4>
    a814:	e35300ff 	cmp	r3, #255	; 0xff
    a818:	e3e03066 	mvn	r3, #102	; 0x66
    a81c:	e7c63002 	strb	r3, [r6, r2]
    a820:	02833067 	addeq	r3, r3, #103	; 0x67
    a824:	e51fcb74 	ldr	ip, [pc, #-2932]	; 9cb8 <.text+0x5cb8>
    a828:	05c03000 	streqb	r3, [r0]
    a82c:	e5dc2000 	ldrb	r2, [ip]
    a830:	e2823001 	add	r3, r2, #1	; 0x1
    a834:	e5cc3000 	strb	r3, [ip]
    a838:	e5dc3000 	ldrb	r3, [ip]
    a83c:	e35300ff 	cmp	r3, #255	; 0xff
    a840:	e3a03016 	mov	r3, #22	; 0x16
    a844:	e7c63002 	strb	r3, [r6, r2]
    a848:	02433016 	subeq	r3, r3, #22	; 0x16
    a84c:	05cc3000 	streqb	r3, [ip]
    a850:	e5dc2000 	ldrb	r2, [ip]
    a854:	e2823001 	add	r3, r2, #1	; 0x1
    a858:	e5cc3000 	strb	r3, [ip]
    a85c:	e5dc3000 	ldrb	r3, [ip]
    a860:	e51febac 	ldr	lr, [pc, #-2988]	; 9cbc <.text+0x5cbc>
    a864:	e51f4bac 	ldr	r4, [pc, #-2988]	; 9cc0 <.text+0x5cc0>
    a868:	e35300ff 	cmp	r3, #255	; 0xff
    a86c:	e3a0301d 	mov	r3, #29	; 0x1d
    a870:	e5ce3000 	strb	r3, [lr]
    a874:	e2833016 	add	r3, r3, #22	; 0x16
    a878:	e5c43000 	strb	r3, [r4]
    a87c:	e243302c 	sub	r3, r3, #44	; 0x2c
    a880:	e7c63002 	strb	r3, [r6, r2]
    a884:	02433007 	subeq	r3, r3, #7	; 0x7
    a888:	05cc3000 	streqb	r3, [ip]
    a88c:	e5dc2000 	ldrb	r2, [ip]
    a890:	e2823001 	add	r3, r2, #1	; 0x1
    a894:	e5cc3000 	strb	r3, [ip]
    a898:	e5dc3000 	ldrb	r3, [ip]
    a89c:	e35300ff 	cmp	r3, #255	; 0xff
    a8a0:	e3a03038 	mov	r3, #56	; 0x38
    a8a4:	e5ce3000 	strb	r3, [lr]
    a8a8:	e2833033 	add	r3, r3, #51	; 0x33
    a8ac:	e5c43000 	strb	r3, [r4]
    a8b0:	e2433050 	sub	r3, r3, #80	; 0x50
    a8b4:	e7c63002 	strb	r3, [r6, r2]
    a8b8:	0243301b 	subeq	r3, r3, #27	; 0x1b
    a8bc:	05cc3000 	streqb	r3, [ip]
    a8c0:	e51f7c04 	ldr	r7, [pc, #-3076]	; 9cc4 <.text+0x5cc4>
    a8c4:	e5dc0000 	ldrb	r0, [ip]
    a8c8:	e5d71000 	ldrb	r1, [r7]
    a8cc:	e2802001 	add	r2, r0, #1	; 0x1
    a8d0:	e2813038 	add	r3, r1, #56	; 0x38
    a8d4:	e5cc2000 	strb	r2, [ip]
    a8d8:	e5ce3000 	strb	r3, [lr]
    a8dc:	e5dc3000 	ldrb	r3, [ip]
    a8e0:	e5de5000 	ldrb	r5, [lr]
    a8e4:	e35300ff 	cmp	r3, #255	; 0xff
    a8e8:	e285306b 	add	r3, r5, #107	; 0x6b
    a8ec:	e5c43000 	strb	r3, [r4]
    a8f0:	03a03000 	moveq	r3, #0	; 0x0
    a8f4:	05cc3000 	streqb	r3, [ip]
    a8f8:	e7c61000 	strb	r1, [r6, r0]
    a8fc:	e5dc0000 	ldrb	r0, [ip]
    a900:	e5d71001 	ldrb	r1, [r7, #1]
    a904:	e2802001 	add	r2, r0, #1	; 0x1
    a908:	e0813005 	add	r3, r1, r5
    a90c:	e5ce3000 	strb	r3, [lr]
    a910:	e5cc2000 	strb	r2, [ip]
    a914:	e5dc3000 	ldrb	r3, [ip]
    a918:	e35300ff 	cmp	r3, #255	; 0xff
    a91c:	e5de5000 	ldrb	r5, [lr]
    a920:	e5d42000 	ldrb	r2, [r4]
    a924:	024330ff 	subeq	r3, r3, #255	; 0xff
    a928:	05cc3000 	streqb	r3, [ip]
    a92c:	e0822005 	add	r2, r2, r5
    a930:	e5c42000 	strb	r2, [r4]
    a934:	e7c61000 	strb	r1, [r6, r0]
    a938:	e5dc0000 	ldrb	r0, [ip]
    a93c:	e5d71002 	ldrb	r1, [r7, #2]
    a940:	e2802001 	add	r2, r0, #1	; 0x1
    a944:	e5cc2000 	strb	r2, [ip]
    a948:	e0813005 	add	r3, r1, r5
    a94c:	e5ce3000 	strb	r3, [lr]
    a950:	e5dc3000 	ldrb	r3, [ip]
    a954:	e35300ff 	cmp	r3, #255	; 0xff
    a958:	e5de5000 	ldrb	r5, [lr]
    a95c:	e5d42000 	ldrb	r2, [r4]
    a960:	024330ff 	subeq	r3, r3, #255	; 0xff
    a964:	05cc3000 	streqb	r3, [ip]
    a968:	e0822005 	add	r2, r2, r5
    a96c:	e5c42000 	strb	r2, [r4]
    a970:	e7c61000 	strb	r1, [r6, r0]
    a974:	e5dc1000 	ldrb	r1, [ip]
    a978:	e5d70003 	ldrb	r0, [r7, #3]
    a97c:	e2812001 	add	r2, r1, #1	; 0x1
    a980:	e5cc2000 	strb	r2, [ip]
    a984:	e0803005 	add	r3, r0, r5
    a988:	e5ce3000 	strb	r3, [lr]
    a98c:	e5dc3000 	ldrb	r3, [ip]
    a990:	e5de5000 	ldrb	r5, [lr]
    a994:	e35300ff 	cmp	r3, #255	; 0xff
    a998:	e5d42000 	ldrb	r2, [r4]
    a99c:	024330ff 	subeq	r3, r3, #255	; 0xff
    a9a0:	05cc3000 	streqb	r3, [ip]
    a9a4:	e0822005 	add	r2, r2, r5
    a9a8:	e51f7ce8 	ldr	r7, [pc, #-3304]	; 9cc8 <.text+0x5cc8>
    a9ac:	e5c42000 	strb	r2, [r4]
    a9b0:	e7c60001 	strb	r0, [r6, r1]
    a9b4:	e5dc0000 	ldrb	r0, [ip]
    a9b8:	e5d71000 	ldrb	r1, [r7]
    a9bc:	e2802001 	add	r2, r0, #1	; 0x1
    a9c0:	e0813005 	add	r3, r1, r5
    a9c4:	e5cc2000 	strb	r2, [ip]
    a9c8:	e5ce3000 	strb	r3, [lr]
    a9cc:	e5dc3000 	ldrb	r3, [ip]
    a9d0:	e5de5000 	ldrb	r5, [lr]
    a9d4:	e5d42000 	ldrb	r2, [r4]
    a9d8:	e35300ff 	cmp	r3, #255	; 0xff
    a9dc:	e0822005 	add	r2, r2, r5
    a9e0:	024330ff 	subeq	r3, r3, #255	; 0xff
    a9e4:	e5c42000 	strb	r2, [r4]
    a9e8:	05cc3000 	streqb	r3, [ip]
    a9ec:	e7c61000 	strb	r1, [r6, r0]
    a9f0:	e5dc0000 	ldrb	r0, [ip]
    a9f4:	e5d71001 	ldrb	r1, [r7, #1]
    a9f8:	e2802001 	add	r2, r0, #1	; 0x1
    a9fc:	e5cc2000 	strb	r2, [ip]
    aa00:	e0813005 	add	r3, r1, r5
    aa04:	e5ce3000 	strb	r3, [lr]
    aa08:	e5dc3000 	ldrb	r3, [ip]
    aa0c:	e35300ff 	cmp	r3, #255	; 0xff
    aa10:	e5de5000 	ldrb	r5, [lr]
    aa14:	e5d42000 	ldrb	r2, [r4]
    aa18:	024330ff 	subeq	r3, r3, #255	; 0xff
    aa1c:	05cc3000 	streqb	r3, [ip]
    aa20:	e0822005 	add	r2, r2, r5
    aa24:	e5c42000 	strb	r2, [r4]
    aa28:	e7c61000 	strb	r1, [r6, r0]
    aa2c:	e5dc0000 	ldrb	r0, [ip]
    aa30:	e5d71002 	ldrb	r1, [r7, #2]
    aa34:	e2802001 	add	r2, r0, #1	; 0x1
    aa38:	e5cc2000 	strb	r2, [ip]
    aa3c:	e0813005 	add	r3, r1, r5
    aa40:	e5ce3000 	strb	r3, [lr]
    aa44:	e5dc3000 	ldrb	r3, [ip]
    aa48:	e5de5000 	ldrb	r5, [lr]
    aa4c:	e5d42000 	ldrb	r2, [r4]
    aa50:	e35300ff 	cmp	r3, #255	; 0xff
    aa54:	024330ff 	subeq	r3, r3, #255	; 0xff
    aa58:	05cc3000 	streqb	r3, [ip]
    aa5c:	e0822005 	add	r2, r2, r5
    aa60:	e5c42000 	strb	r2, [r4]
    aa64:	e7c61000 	strb	r1, [r6, r0]
    aa68:	e5dc1000 	ldrb	r1, [ip]
    aa6c:	e5d70003 	ldrb	r0, [r7, #3]
    aa70:	e2812001 	add	r2, r1, #1	; 0x1
    aa74:	e5cc2000 	strb	r2, [ip]
    aa78:	e0803005 	add	r3, r0, r5
    aa7c:	e5ce3000 	strb	r3, [lr]
    aa80:	e5dc3000 	ldrb	r3, [ip]
    aa84:	e5de5000 	ldrb	r5, [lr]
    aa88:	e5d42000 	ldrb	r2, [r4]
    aa8c:	e35300ff 	cmp	r3, #255	; 0xff
    aa90:	e0822005 	add	r2, r2, r5
    aa94:	024330ff 	subeq	r3, r3, #255	; 0xff
    aa98:	05cc3000 	streqb	r3, [ip]
    aa9c:	e51f7dd8 	ldr	r7, [pc, #-3544]	; 9ccc <.text+0x5ccc>
    aaa0:	e5c42000 	strb	r2, [r4]
    aaa4:	e7c60001 	strb	r0, [r6, r1]
    aaa8:	e5dc0000 	ldrb	r0, [ip]
    aaac:	e5d71000 	ldrb	r1, [r7]
    aab0:	e2802001 	add	r2, r0, #1	; 0x1
    aab4:	e0813005 	add	r3, r1, r5
    aab8:	e5ce3000 	strb	r3, [lr]
    aabc:	e5cc2000 	strb	r2, [ip]
    aac0:	e5dc3000 	ldrb	r3, [ip]
    aac4:	e35300ff 	cmp	r3, #255	; 0xff
    aac8:	e5de5000 	ldrb	r5, [lr]
    aacc:	e5d42000 	ldrb	r2, [r4]
    aad0:	024330ff 	subeq	r3, r3, #255	; 0xff
    aad4:	05cc3000 	streqb	r3, [ip]
    aad8:	e0822005 	add	r2, r2, r5
    aadc:	e5c42000 	strb	r2, [r4]
    aae0:	e7c61000 	strb	r1, [r6, r0]
    aae4:	e5dc0000 	ldrb	r0, [ip]
    aae8:	e5d71001 	ldrb	r1, [r7, #1]
    aaec:	e2802001 	add	r2, r0, #1	; 0x1
    aaf0:	e5cc2000 	strb	r2, [ip]
    aaf4:	e0813005 	add	r3, r1, r5
    aaf8:	e5ce3000 	strb	r3, [lr]
    aafc:	e5dc3000 	ldrb	r3, [ip]
    ab00:	e35300ff 	cmp	r3, #255	; 0xff
    ab04:	e5de5000 	ldrb	r5, [lr]
    ab08:	e5d42000 	ldrb	r2, [r4]
    ab0c:	024330ff 	subeq	r3, r3, #255	; 0xff
    ab10:	05cc3000 	streqb	r3, [ip]
    ab14:	e0822005 	add	r2, r2, r5
    ab18:	e5c42000 	strb	r2, [r4]
    ab1c:	e7c61000 	strb	r1, [r6, r0]
    ab20:	e5dc0000 	ldrb	r0, [ip]
    ab24:	e5d71002 	ldrb	r1, [r7, #2]
    ab28:	e2802001 	add	r2, r0, #1	; 0x1
    ab2c:	e5cc2000 	strb	r2, [ip]
    ab30:	e0813005 	add	r3, r1, r5
    ab34:	e5ce3000 	strb	r3, [lr]
    ab38:	e5dc3000 	ldrb	r3, [ip]
    ab3c:	e5de5000 	ldrb	r5, [lr]
    ab40:	e35300ff 	cmp	r3, #255	; 0xff
    ab44:	e5d42000 	ldrb	r2, [r4]
    ab48:	024330ff 	subeq	r3, r3, #255	; 0xff
    ab4c:	05cc3000 	streqb	r3, [ip]
    ab50:	e0822005 	add	r2, r2, r5
    ab54:	e5c42000 	strb	r2, [r4]
    ab58:	e7c61000 	strb	r1, [r6, r0]
    ab5c:	e5dc1000 	ldrb	r1, [ip]
    ab60:	e5d70003 	ldrb	r0, [r7, #3]
    ab64:	e2812001 	add	r2, r1, #1	; 0x1
    ab68:	e0803005 	add	r3, r0, r5
    ab6c:	e5cc2000 	strb	r2, [ip]
    ab70:	e5ce3000 	strb	r3, [lr]
    ab74:	e5dc3000 	ldrb	r3, [ip]
    ab78:	e5de5000 	ldrb	r5, [lr]
    ab7c:	e5d42000 	ldrb	r2, [r4]
    ab80:	e35300ff 	cmp	r3, #255	; 0xff
    ab84:	e0822005 	add	r2, r2, r5
    ab88:	024330ff 	subeq	r3, r3, #255	; 0xff
    ab8c:	e5c42000 	strb	r2, [r4]
    ab90:	05cc3000 	streqb	r3, [ip]
    ab94:	e7c60001 	strb	r0, [r6, r1]
    ab98:	e51f7ed0 	ldr	r7, [pc, #-3792]	; 9cd0 <.text+0x5cd0>
    ab9c:	e5dc0000 	ldrb	r0, [ip]
    aba0:	e5d71000 	ldrb	r1, [r7]
    aba4:	e2802001 	add	r2, r0, #1	; 0x1
    aba8:	e5cc2000 	strb	r2, [ip]
    abac:	e0813005 	add	r3, r1, r5
    abb0:	e5ce3000 	strb	r3, [lr]
    abb4:	e5dc3000 	ldrb	r3, [ip]
    abb8:	e35300ff 	cmp	r3, #255	; 0xff
    abbc:	e5de5000 	ldrb	r5, [lr]
    abc0:	e5d42000 	ldrb	r2, [r4]
    abc4:	024330ff 	subeq	r3, r3, #255	; 0xff
    abc8:	05cc3000 	streqb	r3, [ip]
    abcc:	e0822005 	add	r2, r2, r5
    abd0:	e5c42000 	strb	r2, [r4]
    abd4:	e7c61000 	strb	r1, [r6, r0]
    abd8:	e5dc0000 	ldrb	r0, [ip]
    abdc:	e5d71001 	ldrb	r1, [r7, #1]
    abe0:	e2802001 	add	r2, r0, #1	; 0x1
    abe4:	e5cc2000 	strb	r2, [ip]
    abe8:	e0813005 	add	r3, r1, r5
    abec:	e5ce3000 	strb	r3, [lr]
    abf0:	e5dc3000 	ldrb	r3, [ip]
    abf4:	e5de5000 	ldrb	r5, [lr]
    abf8:	e5d42000 	ldrb	r2, [r4]
    abfc:	e35300ff 	cmp	r3, #255	; 0xff
    ac00:	024330ff 	subeq	r3, r3, #255	; 0xff
    ac04:	05cc3000 	streqb	r3, [ip]
    ac08:	e0822005 	add	r2, r2, r5
    ac0c:	e5c42000 	strb	r2, [r4]
    ac10:	e7c61000 	strb	r1, [r6, r0]
    ac14:	e5dc0000 	ldrb	r0, [ip]
    ac18:	e5d71002 	ldrb	r1, [r7, #2]
    ac1c:	e2802001 	add	r2, r0, #1	; 0x1
    ac20:	e5cc2000 	strb	r2, [ip]
    ac24:	e0813005 	add	r3, r1, r5
    ac28:	e5ce3000 	strb	r3, [lr]
    ac2c:	e5dc3000 	ldrb	r3, [ip]
    ac30:	e5de5000 	ldrb	r5, [lr]
    ac34:	e5d42000 	ldrb	r2, [r4]
    ac38:	e35300ff 	cmp	r3, #255	; 0xff
    ac3c:	024330ff 	subeq	r3, r3, #255	; 0xff
    ac40:	e0822005 	add	r2, r2, r5
    ac44:	05cc3000 	streqb	r3, [ip]
    ac48:	e5c42000 	strb	r2, [r4]
    ac4c:	e7c61000 	strb	r1, [r6, r0]
    ac50:	e5dc1000 	ldrb	r1, [ip]
    ac54:	e5d70003 	ldrb	r0, [r7, #3]
    ac58:	e2812001 	add	r2, r1, #1	; 0x1
    ac5c:	e0803005 	add	r3, r0, r5
    ac60:	e5ce3000 	strb	r3, [lr]
    ac64:	e5cc2000 	strb	r2, [ip]
    ac68:	e5dee000 	ldrb	lr, [lr]
    ac6c:	e5dc2000 	ldrb	r2, [ip]
    ac70:	e5d43000 	ldrb	r3, [r4]
    ac74:	e35200ff 	cmp	r2, #255	; 0xff
    ac78:	e083300e 	add	r3, r3, lr
    ac7c:	e5c43000 	strb	r3, [r4]
    ac80:	03a03000 	moveq	r3, #0	; 0x0
    ac84:	05cc3000 	streqb	r3, [ip]
    ac88:	e5dc3000 	ldrb	r3, [ip]
    ac8c:	e2832001 	add	r2, r3, #1	; 0x1
    ac90:	e5cc2000 	strb	r2, [ip]
    ac94:	e5dc2000 	ldrb	r2, [ip]
    ac98:	e35200ff 	cmp	r2, #255	; 0xff
    ac9c:	e7c60001 	strb	r0, [r6, r1]
    aca0:	e7c6e003 	strb	lr, [r6, r3]
    aca4:	03a03000 	moveq	r3, #0	; 0x0
    aca8:	05cc3000 	streqb	r3, [ip]
    acac:	e5dc1000 	ldrb	r1, [ip]
    acb0:	e2813001 	add	r3, r1, #1	; 0x1
    acb4:	e5cc3000 	strb	r3, [ip]
    acb8:	e5d42000 	ldrb	r2, [r4]
    acbc:	e5dc3000 	ldrb	r3, [ip]
    acc0:	e35300ff 	cmp	r3, #255	; 0xff
    acc4:	024330ff 	subeq	r3, r3, #255	; 0xff
    acc8:	e7c62001 	strb	r2, [r6, r1]
    accc:	05cc3000 	streqb	r3, [ip]
    acd0:	ea000003 	b	ace4 <.text+0x6ce4>
    acd4:	e59f2d60 	ldr	r2, [pc, #3424]	; ba3c <.text+0x7a3c>
    acd8:	e5d23000 	ldrb	r3, [r2]
    acdc:	e2833001 	add	r3, r3, #1	; 0x1
    ace0:	e5c23000 	strb	r3, [r2]
    ace4:	e59f2cc4 	ldr	r2, [pc, #3268]	; b9b0 <.text+0x79b0>
    ace8:	e1d230b0 	ldrh	r3, [r2]
    acec:	e353004e 	cmp	r3, #78	; 0x4e
    acf0:	1a0000ba 	bne	afe0 <.text+0x6fe0>
    acf4:	e59f1d38 	ldr	r1, [pc, #3384]	; ba34 <.text+0x7a34>
    acf8:	e59f0d44 	ldr	r0, [pc, #3396]	; ba44 <.text+0x7a44>
    acfc:	e5d13000 	ldrb	r3, [r1]
    ad00:	e5d02000 	ldrb	r2, [r0]
    ad04:	e1520003 	cmp	r2, r3
    ad08:	25d13000 	ldrcsb	r3, [r1]
    ad0c:	35d13000 	ldrccb	r3, [r1]
    ad10:	20633002 	rsbcs	r3, r3, r2
    ad14:	226330ff 	rsbcs	r3, r3, #255	; 0xff
    ad18:	30623003 	rsbcc	r3, r2, r3
    ad1c:	e353000d 	cmp	r3, #13	; 0xd
    ad20:	da00010e 	ble	b160 <.text+0x7160>
    ad24:	e5d02000 	ldrb	r2, [r0]
    ad28:	e2823001 	add	r3, r2, #1	; 0x1
    ad2c:	e5c03000 	strb	r3, [r0]
    ad30:	e5d03000 	ldrb	r3, [r0]
    ad34:	e59f6d04 	ldr	r6, [pc, #3332]	; ba40 <.text+0x7a40>
    ad38:	e35300ff 	cmp	r3, #255	; 0xff
    ad3c:	e3e03066 	mvn	r3, #102	; 0x66
    ad40:	e7c63002 	strb	r3, [r6, r2]
    ad44:	02833067 	addeq	r3, r3, #103	; 0x67
    ad48:	e59fccf4 	ldr	ip, [pc, #3316]	; ba44 <.text+0x7a44>
    ad4c:	05c03000 	streqb	r3, [r0]
    ad50:	e5dc2000 	ldrb	r2, [ip]
    ad54:	e2823001 	add	r3, r2, #1	; 0x1
    ad58:	e5cc3000 	strb	r3, [ip]
    ad5c:	e5dc3000 	ldrb	r3, [ip]
    ad60:	e35300ff 	cmp	r3, #255	; 0xff
    ad64:	e3a0300d 	mov	r3, #13	; 0xd
    ad68:	e7c63002 	strb	r3, [r6, r2]
    ad6c:	0243300d 	subeq	r3, r3, #13	; 0xd
    ad70:	05cc3000 	streqb	r3, [ip]
    ad74:	e5dc2000 	ldrb	r2, [ip]
    ad78:	e2823001 	add	r3, r2, #1	; 0x1
    ad7c:	e5cc3000 	strb	r3, [ip]
    ad80:	e5dc3000 	ldrb	r3, [ip]
    ad84:	e59fecbc 	ldr	lr, [pc, #3260]	; ba48 <.text+0x7a48>
    ad88:	e59f5cbc 	ldr	r5, [pc, #3260]	; ba4c <.text+0x7a4c>
    ad8c:	e35300ff 	cmp	r3, #255	; 0xff
    ad90:	e3a03014 	mov	r3, #20	; 0x14
    ad94:	e5ce3000 	strb	r3, [lr]
    ad98:	e283300d 	add	r3, r3, #13	; 0xd
    ad9c:	e5c53000 	strb	r3, [r5]
    ada0:	e243301a 	sub	r3, r3, #26	; 0x1a
    ada4:	e7c63002 	strb	r3, [r6, r2]
    ada8:	02433007 	subeq	r3, r3, #7	; 0x7
    adac:	05cc3000 	streqb	r3, [ip]
    adb0:	e5dc2000 	ldrb	r2, [ip]
    adb4:	e2823001 	add	r3, r2, #1	; 0x1
    adb8:	e5cc3000 	strb	r3, [ip]
    adbc:	e5dc3000 	ldrb	r3, [ip]
    adc0:	e35300ff 	cmp	r3, #255	; 0xff
    adc4:	e3a0301f 	mov	r3, #31	; 0x1f
    adc8:	e5ce3000 	strb	r3, [lr]
    adcc:	e2833021 	add	r3, r3, #33	; 0x21
    add0:	e5c53000 	strb	r3, [r5]
    add4:	e2433035 	sub	r3, r3, #53	; 0x35
    add8:	e7c63002 	strb	r3, [r6, r2]
    addc:	0243300b 	subeq	r3, r3, #11	; 0xb
    ade0:	05cc3000 	streqb	r3, [ip]
    ade4:	e59f3bc8 	ldr	r3, [pc, #3016]	; b9b4 <.text+0x79b4>
    ade8:	e5dc1000 	ldrb	r1, [ip]
    adec:	e5d30000 	ldrb	r0, [r3]
    adf0:	e2812001 	add	r2, r1, #1	; 0x1
    adf4:	e280301f 	add	r3, r0, #31	; 0x1f
    adf8:	e5cc2000 	strb	r2, [ip]
    adfc:	e5ce3000 	strb	r3, [lr]
    ae00:	e5dc3000 	ldrb	r3, [ip]
    ae04:	e5de2000 	ldrb	r2, [lr]
    ae08:	e35300ff 	cmp	r3, #255	; 0xff
    ae0c:	e2823040 	add	r3, r2, #64	; 0x40
    ae10:	e5c53000 	strb	r3, [r5]
    ae14:	03a03000 	moveq	r3, #0	; 0x0
    ae18:	05cc3000 	streqb	r3, [ip]
    ae1c:	e7c60001 	strb	r0, [r6, r1]
    ae20:	e59f3b90 	ldr	r3, [pc, #2960]	; b9b8 <.text+0x79b8>
    ae24:	e5dc1000 	ldrb	r1, [ip]
    ae28:	e5d30000 	ldrb	r0, [r3]
    ae2c:	e0803002 	add	r3, r0, r2
    ae30:	e2812001 	add	r2, r1, #1	; 0x1
    ae34:	e5ce3000 	strb	r3, [lr]
    ae38:	e5cc2000 	strb	r2, [ip]
    ae3c:	e5dc3000 	ldrb	r3, [ip]
    ae40:	e35300ff 	cmp	r3, #255	; 0xff
    ae44:	e5de4000 	ldrb	r4, [lr]
    ae48:	e5d52000 	ldrb	r2, [r5]
    ae4c:	024330ff 	subeq	r3, r3, #255	; 0xff
    ae50:	05cc3000 	streqb	r3, [ip]
    ae54:	e0822004 	add	r2, r2, r4
    ae58:	e5c52000 	strb	r2, [r5]
    ae5c:	e7c60001 	strb	r0, [r6, r1]
    ae60:	e59f3b54 	ldr	r3, [pc, #2900]	; b9bc <.text+0x79bc>
    ae64:	e5dc1000 	ldrb	r1, [ip]
    ae68:	e5d30000 	ldrb	r0, [r3]
    ae6c:	e2812001 	add	r2, r1, #1	; 0x1
    ae70:	e5cc2000 	strb	r2, [ip]
    ae74:	e0803004 	add	r3, r0, r4
    ae78:	e5ce3000 	strb	r3, [lr]
    ae7c:	e5dc3000 	ldrb	r3, [ip]
    ae80:	e35300ff 	cmp	r3, #255	; 0xff
    ae84:	e5de4000 	ldrb	r4, [lr]
    ae88:	e5d52000 	ldrb	r2, [r5]
    ae8c:	024330ff 	subeq	r3, r3, #255	; 0xff
    ae90:	05cc3000 	streqb	r3, [ip]
    ae94:	e0822004 	add	r2, r2, r4
    ae98:	e5c52000 	strb	r2, [r5]
    ae9c:	e7c60001 	strb	r0, [r6, r1]
    aea0:	e59f3b18 	ldr	r3, [pc, #2840]	; b9c0 <.text+0x79c0>
    aea4:	e5dc1000 	ldrb	r1, [ip]
    aea8:	e5d30000 	ldrb	r0, [r3]
    aeac:	e2812001 	add	r2, r1, #1	; 0x1
    aeb0:	e5cc2000 	strb	r2, [ip]
    aeb4:	e0803004 	add	r3, r0, r4
    aeb8:	e5ce3000 	strb	r3, [lr]
    aebc:	e5dc3000 	ldrb	r3, [ip]
    aec0:	e5de4000 	ldrb	r4, [lr]
    aec4:	e35300ff 	cmp	r3, #255	; 0xff
    aec8:	e5d52000 	ldrb	r2, [r5]
    aecc:	024330ff 	subeq	r3, r3, #255	; 0xff
    aed0:	05cc3000 	streqb	r3, [ip]
    aed4:	e0822004 	add	r2, r2, r4
    aed8:	e5c52000 	strb	r2, [r5]
    aedc:	e7c60001 	strb	r0, [r6, r1]
    aee0:	e59f3adc 	ldr	r3, [pc, #2780]	; b9c4 <.text+0x79c4>
    aee4:	e5dc1000 	ldrb	r1, [ip]
    aee8:	e5d30000 	ldrb	r0, [r3]
    aeec:	e2812001 	add	r2, r1, #1	; 0x1
    aef0:	e0803004 	add	r3, r0, r4
    aef4:	e5cc2000 	strb	r2, [ip]
    aef8:	e5ce3000 	strb	r3, [lr]
    aefc:	e5dc3000 	ldrb	r3, [ip]
    af00:	e5de4000 	ldrb	r4, [lr]
    af04:	e5d52000 	ldrb	r2, [r5]
    af08:	e35300ff 	cmp	r3, #255	; 0xff
    af0c:	e0822004 	add	r2, r2, r4
    af10:	024330ff 	subeq	r3, r3, #255	; 0xff
    af14:	e5c52000 	strb	r2, [r5]
    af18:	05cc3000 	streqb	r3, [ip]
    af1c:	e7c60001 	strb	r0, [r6, r1]
    af20:	e59f3aa0 	ldr	r3, [pc, #2720]	; b9c8 <.text+0x79c8>
    af24:	e5dc1000 	ldrb	r1, [ip]
    af28:	e5d30000 	ldrb	r0, [r3]
    af2c:	e2812001 	add	r2, r1, #1	; 0x1
    af30:	e5cc2000 	strb	r2, [ip]
    af34:	e0803004 	add	r3, r0, r4
    af38:	e5ce3000 	strb	r3, [lr]
    af3c:	e5dc3000 	ldrb	r3, [ip]
    af40:	e5de4000 	ldrb	r4, [lr]
    af44:	e5d52000 	ldrb	r2, [r5]
    af48:	e35300ff 	cmp	r3, #255	; 0xff
    af4c:	024330ff 	subeq	r3, r3, #255	; 0xff
    af50:	e0822004 	add	r2, r2, r4
    af54:	05cc3000 	streqb	r3, [ip]
    af58:	e5c52000 	strb	r2, [r5]
    af5c:	e7c60001 	strb	r0, [r6, r1]
    af60:	e59f3a64 	ldr	r3, [pc, #2660]	; b9cc <.text+0x79cc>
    af64:	e5dc1000 	ldrb	r1, [ip]
    af68:	e5d30000 	ldrb	r0, [r3]
    af6c:	e2812001 	add	r2, r1, #1	; 0x1
    af70:	e0803004 	add	r3, r0, r4
    af74:	e5cc2000 	strb	r2, [ip]
    af78:	e5ce3000 	strb	r3, [lr]
    af7c:	e5dc2000 	ldrb	r2, [ip]
    af80:	e5dee000 	ldrb	lr, [lr]
    af84:	e5d53000 	ldrb	r3, [r5]
    af88:	e35200ff 	cmp	r2, #255	; 0xff
    af8c:	e083300e 	add	r3, r3, lr
    af90:	e5c53000 	strb	r3, [r5]
    af94:	03a03000 	moveq	r3, #0	; 0x0
    af98:	05cc3000 	streqb	r3, [ip]
    af9c:	e5dc3000 	ldrb	r3, [ip]
    afa0:	e2832001 	add	r2, r3, #1	; 0x1
    afa4:	e5cc2000 	strb	r2, [ip]
    afa8:	e5dc2000 	ldrb	r2, [ip]
    afac:	e35200ff 	cmp	r2, #255	; 0xff
    afb0:	e7c60001 	strb	r0, [r6, r1]
    afb4:	e7c6e003 	strb	lr, [r6, r3]
    afb8:	03a03000 	moveq	r3, #0	; 0x0
    afbc:	05cc3000 	streqb	r3, [ip]
    afc0:	e5dc1000 	ldrb	r1, [ip]
    afc4:	e2813001 	add	r3, r1, #1	; 0x1
    afc8:	e5cc3000 	strb	r3, [ip]
    afcc:	e5dc3000 	ldrb	r3, [ip]
    afd0:	e5d52000 	ldrb	r2, [r5]
    afd4:	e35300ff 	cmp	r3, #255	; 0xff
    afd8:	e7c62001 	strb	r2, [r6, r1]
    afdc:	ea00005c 	b	b154 <.text+0x7154>
    afe0:	e3530054 	cmp	r3, #84	; 0x54
    afe4:	0a000061 	beq	b170 <.text+0x7170>
    afe8:	e353005a 	cmp	r3, #90	; 0x5a
    afec:	1a00005f 	bne	b170 <.text+0x7170>
    aff0:	e59f1a3c 	ldr	r1, [pc, #2620]	; ba34 <.text+0x7a34>
    aff4:	e59f0a48 	ldr	r0, [pc, #2632]	; ba44 <.text+0x7a44>
    aff8:	e5d13000 	ldrb	r3, [r1]
    affc:	e5d02000 	ldrb	r2, [r0]
    b000:	e1520003 	cmp	r2, r3
    b004:	25d13000 	ldrcsb	r3, [r1]
    b008:	35d13000 	ldrccb	r3, [r1]
    b00c:	20633002 	rsbcs	r3, r3, r2
    b010:	226330ff 	rsbcs	r3, r3, #255	; 0xff
    b014:	30623003 	rsbcc	r3, r2, r3
    b018:	e3530007 	cmp	r3, #7	; 0x7
    b01c:	da00004f 	ble	b160 <.text+0x7160>
    b020:	e5d02000 	ldrb	r2, [r0]
    b024:	e2823001 	add	r3, r2, #1	; 0x1
    b028:	e5c03000 	strb	r3, [r0]
    b02c:	e5d03000 	ldrb	r3, [r0]
    b030:	e59f4a08 	ldr	r4, [pc, #2568]	; ba40 <.text+0x7a40>
    b034:	e35300ff 	cmp	r3, #255	; 0xff
    b038:	e3e03066 	mvn	r3, #102	; 0x66
    b03c:	e7c43002 	strb	r3, [r4, r2]
    b040:	02833067 	addeq	r3, r3, #103	; 0x67
    b044:	e59fc9f8 	ldr	ip, [pc, #2552]	; ba44 <.text+0x7a44>
    b048:	05c03000 	streqb	r3, [r0]
    b04c:	e5dc3000 	ldrb	r3, [ip]
    b050:	e2832001 	add	r2, r3, #1	; 0x1
    b054:	e5cc2000 	strb	r2, [ip]
    b058:	e5dc2000 	ldrb	r2, [ip]
    b05c:	e3a01007 	mov	r1, #7	; 0x7
    b060:	e35200ff 	cmp	r2, #255	; 0xff
    b064:	e7c41003 	strb	r1, [r4, r3]
    b068:	03a03000 	moveq	r3, #0	; 0x0
    b06c:	05cc3000 	streqb	r3, [ip]
    b070:	e5dc2000 	ldrb	r2, [ip]
    b074:	e2823001 	add	r3, r2, #1	; 0x1
    b078:	e5cc3000 	strb	r3, [ip]
    b07c:	e5dc3000 	ldrb	r3, [ip]
    b080:	e59fe9c0 	ldr	lr, [pc, #2496]	; ba48 <.text+0x7a48>
    b084:	e59f59c0 	ldr	r5, [pc, #2496]	; ba4c <.text+0x7a4c>
    b088:	e35300ff 	cmp	r3, #255	; 0xff
    b08c:	e3a0300e 	mov	r3, #14	; 0xe
    b090:	e5ce3000 	strb	r3, [lr]
    b094:	e2833007 	add	r3, r3, #7	; 0x7
    b098:	e5c53000 	strb	r3, [r5]
    b09c:	02433015 	subeq	r3, r3, #21	; 0x15
    b0a0:	05cc3000 	streqb	r3, [ip]
    b0a4:	e7c41002 	strb	r1, [r4, r2]
    b0a8:	e5dc2000 	ldrb	r2, [ip]
    b0ac:	e2823001 	add	r3, r2, #1	; 0x1
    b0b0:	e5cc3000 	strb	r3, [ip]
    b0b4:	e5dc3000 	ldrb	r3, [ip]
    b0b8:	e35300ff 	cmp	r3, #255	; 0xff
    b0bc:	e3a0302c 	mov	r3, #44	; 0x2c
    b0c0:	e5ce3000 	strb	r3, [lr]
    b0c4:	e2833015 	add	r3, r3, #21	; 0x15
    b0c8:	e5c53000 	strb	r3, [r5]
    b0cc:	e2433023 	sub	r3, r3, #35	; 0x23
    b0d0:	e7c43002 	strb	r3, [r4, r2]
    b0d4:	0243301e 	subeq	r3, r3, #30	; 0x1e
    b0d8:	05cc3000 	streqb	r3, [ip]
    b0dc:	e59f38ec 	ldr	r3, [pc, #2284]	; b9d0 <.text+0x79d0>
    b0e0:	e5dc1000 	ldrb	r1, [ip]
    b0e4:	e5d30000 	ldrb	r0, [r3]
    b0e8:	e2812001 	add	r2, r1, #1	; 0x1
    b0ec:	e280302c 	add	r3, r0, #44	; 0x2c
    b0f0:	e5cc2000 	strb	r2, [ip]
    b0f4:	e5ce3000 	strb	r3, [lr]
    b0f8:	e5dc3000 	ldrb	r3, [ip]
    b0fc:	e5dee000 	ldrb	lr, [lr]
    b100:	e35300ff 	cmp	r3, #255	; 0xff
    b104:	e28e3041 	add	r3, lr, #65	; 0x41
    b108:	e5c53000 	strb	r3, [r5]
    b10c:	03a03000 	moveq	r3, #0	; 0x0
    b110:	05cc3000 	streqb	r3, [ip]
    b114:	e5dc3000 	ldrb	r3, [ip]
    b118:	e2832001 	add	r2, r3, #1	; 0x1
    b11c:	e7c40001 	strb	r0, [r4, r1]
    b120:	e5cc2000 	strb	r2, [ip]
    b124:	e5dc2000 	ldrb	r2, [ip]
    b128:	e35200ff 	cmp	r2, #255	; 0xff
    b12c:	e7c4e003 	strb	lr, [r4, r3]
    b130:	03a03000 	moveq	r3, #0	; 0x0
    b134:	05cc3000 	streqb	r3, [ip]
    b138:	e5dc1000 	ldrb	r1, [ip]
    b13c:	e2813001 	add	r3, r1, #1	; 0x1
    b140:	e5cc3000 	strb	r3, [ip]
    b144:	e5d52000 	ldrb	r2, [r5]
    b148:	e5dc3000 	ldrb	r3, [ip]
    b14c:	e7c42001 	strb	r2, [r4, r1]
    b150:	e35300ff 	cmp	r3, #255	; 0xff
    b154:	024330ff 	subeq	r3, r3, #255	; 0xff
    b158:	05cc3000 	streqb	r3, [ip]
    b15c:	ea000003 	b	b170 <.text+0x7170>
    b160:	e59f28d4 	ldr	r2, [pc, #2260]	; ba3c <.text+0x7a3c>
    b164:	e5d23000 	ldrb	r3, [r2]
    b168:	e2833001 	add	r3, r3, #1	; 0x1
    b16c:	e5c23000 	strb	r3, [r2]
    b170:	e59f285c 	ldr	r2, [pc, #2140]	; b9d4 <.text+0x79d4>
    b174:	e1d230b0 	ldrh	r3, [r2]
    b178:	e3530060 	cmp	r3, #96	; 0x60
    b17c:	1a0000d9 	bne	b4e8 <.text+0x74e8>
    b180:	e59f18ac 	ldr	r1, [pc, #2220]	; ba34 <.text+0x7a34>
    b184:	e59f08b8 	ldr	r0, [pc, #2232]	; ba44 <.text+0x7a44>
    b188:	e5d13000 	ldrb	r3, [r1]
    b18c:	e5d02000 	ldrb	r2, [r0]
    b190:	e1520003 	cmp	r2, r3
    b194:	25d13000 	ldrcsb	r3, [r1]
    b198:	35d13000 	ldrccb	r3, [r1]
    b19c:	20633002 	rsbcs	r3, r3, r2
    b1a0:	30623003 	rsbcc	r3, r2, r3
    b1a4:	226330ff 	rsbcs	r3, r3, #255	; 0xff
    b1a8:	e353000f 	cmp	r3, #15	; 0xf
    b1ac:	d59f2888 	ldrle	r2, [pc, #2184]	; ba3c <.text+0x7a3c>
    b1b0:	d5d23000 	ldrleb	r3, [r2]
    b1b4:	d2833001 	addle	r3, r3, #1	; 0x1
    b1b8:	d5c23000 	strleb	r3, [r2]
    b1bc:	da0000c9 	ble	b4e8 <.text+0x74e8>
    b1c0:	e5d02000 	ldrb	r2, [r0]
    b1c4:	e2823001 	add	r3, r2, #1	; 0x1
    b1c8:	e5c03000 	strb	r3, [r0]
    b1cc:	e5d03000 	ldrb	r3, [r0]
    b1d0:	e59f6868 	ldr	r6, [pc, #2152]	; ba40 <.text+0x7a40>
    b1d4:	e35300ff 	cmp	r3, #255	; 0xff
    b1d8:	e3e03066 	mvn	r3, #102	; 0x66
    b1dc:	e7c63002 	strb	r3, [r6, r2]
    b1e0:	02833067 	addeq	r3, r3, #103	; 0x67
    b1e4:	e59fc858 	ldr	ip, [pc, #2136]	; ba44 <.text+0x7a44>
    b1e8:	05c03000 	streqb	r3, [r0]
    b1ec:	e5dc2000 	ldrb	r2, [ip]
    b1f0:	e2823001 	add	r3, r2, #1	; 0x1
    b1f4:	e5cc3000 	strb	r3, [ip]
    b1f8:	e5dc3000 	ldrb	r3, [ip]
    b1fc:	e35300ff 	cmp	r3, #255	; 0xff
    b200:	e3a0300f 	mov	r3, #15	; 0xf
    b204:	e7c63002 	strb	r3, [r6, r2]
    b208:	0243300f 	subeq	r3, r3, #15	; 0xf
    b20c:	05cc3000 	streqb	r3, [ip]
    b210:	e5dc2000 	ldrb	r2, [ip]
    b214:	e2823001 	add	r3, r2, #1	; 0x1
    b218:	e5cc3000 	strb	r3, [ip]
    b21c:	e5dc3000 	ldrb	r3, [ip]
    b220:	e59fe820 	ldr	lr, [pc, #2080]	; ba48 <.text+0x7a48>
    b224:	e59f5820 	ldr	r5, [pc, #2080]	; ba4c <.text+0x7a4c>
    b228:	e35300ff 	cmp	r3, #255	; 0xff
    b22c:	e3a03016 	mov	r3, #22	; 0x16
    b230:	e5ce3000 	strb	r3, [lr]
    b234:	e283300f 	add	r3, r3, #15	; 0xf
    b238:	e5c53000 	strb	r3, [r5]
    b23c:	e243301e 	sub	r3, r3, #30	; 0x1e
    b240:	e7c63002 	strb	r3, [r6, r2]
    b244:	02433007 	subeq	r3, r3, #7	; 0x7
    b248:	05cc3000 	streqb	r3, [ip]
    b24c:	e5dc2000 	ldrb	r2, [ip]
    b250:	e2823001 	add	r3, r2, #1	; 0x1
    b254:	e5cc3000 	strb	r3, [ip]
    b258:	e5dc3000 	ldrb	r3, [ip]
    b25c:	e35300ff 	cmp	r3, #255	; 0xff
    b260:	e3a0301f 	mov	r3, #31	; 0x1f
    b264:	e5ce3000 	strb	r3, [lr]
    b268:	e2833025 	add	r3, r3, #37	; 0x25
    b26c:	e5c53000 	strb	r3, [r5]
    b270:	e243303b 	sub	r3, r3, #59	; 0x3b
    b274:	e7c63002 	strb	r3, [r6, r2]
    b278:	02433009 	subeq	r3, r3, #9	; 0x9
    b27c:	05cc3000 	streqb	r3, [ip]
    b280:	e59f7750 	ldr	r7, [pc, #1872]	; b9d8 <.text+0x79d8>
    b284:	e5dc0000 	ldrb	r0, [ip]
    b288:	e5d71000 	ldrb	r1, [r7]
    b28c:	e2802001 	add	r2, r0, #1	; 0x1
    b290:	e281301f 	add	r3, r1, #31	; 0x1f
    b294:	e5cc2000 	strb	r2, [ip]
    b298:	e5ce3000 	strb	r3, [lr]
    b29c:	e5dc3000 	ldrb	r3, [ip]
    b2a0:	e5de4000 	ldrb	r4, [lr]
    b2a4:	e35300ff 	cmp	r3, #255	; 0xff
    b2a8:	e2843044 	add	r3, r4, #68	; 0x44
    b2ac:	e5c53000 	strb	r3, [r5]
    b2b0:	03a03000 	moveq	r3, #0	; 0x0
    b2b4:	05cc3000 	streqb	r3, [ip]
    b2b8:	e7c61000 	strb	r1, [r6, r0]
    b2bc:	e5dc0000 	ldrb	r0, [ip]
    b2c0:	e5d71001 	ldrb	r1, [r7, #1]
    b2c4:	e2802001 	add	r2, r0, #1	; 0x1
    b2c8:	e0813004 	add	r3, r1, r4
    b2cc:	e5ce3000 	strb	r3, [lr]
    b2d0:	e5cc2000 	strb	r2, [ip]
    b2d4:	e5dc3000 	ldrb	r3, [ip]
    b2d8:	e35300ff 	cmp	r3, #255	; 0xff
    b2dc:	e5de4000 	ldrb	r4, [lr]
    b2e0:	e5d52000 	ldrb	r2, [r5]
    b2e4:	024330ff 	subeq	r3, r3, #255	; 0xff
    b2e8:	05cc3000 	streqb	r3, [ip]
    b2ec:	e0822004 	add	r2, r2, r4
    b2f0:	e5c52000 	strb	r2, [r5]
    b2f4:	e7c61000 	strb	r1, [r6, r0]
    b2f8:	e5dc0000 	ldrb	r0, [ip]
    b2fc:	e5d71002 	ldrb	r1, [r7, #2]
    b300:	e2802001 	add	r2, r0, #1	; 0x1
    b304:	e5cc2000 	strb	r2, [ip]
    b308:	e0813004 	add	r3, r1, r4
    b30c:	e5ce3000 	strb	r3, [lr]
    b310:	e5dc3000 	ldrb	r3, [ip]
    b314:	e35300ff 	cmp	r3, #255	; 0xff
    b318:	e5de4000 	ldrb	r4, [lr]
    b31c:	e5d52000 	ldrb	r2, [r5]
    b320:	024330ff 	subeq	r3, r3, #255	; 0xff
    b324:	05cc3000 	streqb	r3, [ip]
    b328:	e0822004 	add	r2, r2, r4
    b32c:	e5c52000 	strb	r2, [r5]
    b330:	e7c61000 	strb	r1, [r6, r0]
    b334:	e5dc1000 	ldrb	r1, [ip]
    b338:	e5d70003 	ldrb	r0, [r7, #3]
    b33c:	e2812001 	add	r2, r1, #1	; 0x1
    b340:	e5cc2000 	strb	r2, [ip]
    b344:	e0803004 	add	r3, r0, r4
    b348:	e5ce3000 	strb	r3, [lr]
    b34c:	e5dc3000 	ldrb	r3, [ip]
    b350:	e5de4000 	ldrb	r4, [lr]
    b354:	e35300ff 	cmp	r3, #255	; 0xff
    b358:	e5d52000 	ldrb	r2, [r5]
    b35c:	024330ff 	subeq	r3, r3, #255	; 0xff
    b360:	05cc3000 	streqb	r3, [ip]
    b364:	e0822004 	add	r2, r2, r4
    b368:	e5c52000 	strb	r2, [r5]
    b36c:	e59f7668 	ldr	r7, [pc, #1640]	; b9dc <.text+0x79dc>
    b370:	e7c60001 	strb	r0, [r6, r1]
    b374:	e5dc0000 	ldrb	r0, [ip]
    b378:	e5d71000 	ldrb	r1, [r7]
    b37c:	e2802001 	add	r2, r0, #1	; 0x1
    b380:	e0813004 	add	r3, r1, r4
    b384:	e5cc2000 	strb	r2, [ip]
    b388:	e5ce3000 	strb	r3, [lr]
    b38c:	e5dc3000 	ldrb	r3, [ip]
    b390:	e5de4000 	ldrb	r4, [lr]
    b394:	e5d52000 	ldrb	r2, [r5]
    b398:	e35300ff 	cmp	r3, #255	; 0xff
    b39c:	e0822004 	add	r2, r2, r4
    b3a0:	024330ff 	subeq	r3, r3, #255	; 0xff
    b3a4:	e5c52000 	strb	r2, [r5]
    b3a8:	05cc3000 	streqb	r3, [ip]
    b3ac:	e7c61000 	strb	r1, [r6, r0]
    b3b0:	e5dc0000 	ldrb	r0, [ip]
    b3b4:	e5d71001 	ldrb	r1, [r7, #1]
    b3b8:	e2802001 	add	r2, r0, #1	; 0x1
    b3bc:	e5cc2000 	strb	r2, [ip]
    b3c0:	e0813004 	add	r3, r1, r4
    b3c4:	e5ce3000 	strb	r3, [lr]
    b3c8:	e5dc3000 	ldrb	r3, [ip]
    b3cc:	e35300ff 	cmp	r3, #255	; 0xff
    b3d0:	e5de4000 	ldrb	r4, [lr]
    b3d4:	e5d52000 	ldrb	r2, [r5]
    b3d8:	024330ff 	subeq	r3, r3, #255	; 0xff
    b3dc:	05cc3000 	streqb	r3, [ip]
    b3e0:	e0822004 	add	r2, r2, r4
    b3e4:	e5c52000 	strb	r2, [r5]
    b3e8:	e7c61000 	strb	r1, [r6, r0]
    b3ec:	e5dc0000 	ldrb	r0, [ip]
    b3f0:	e5d71002 	ldrb	r1, [r7, #2]
    b3f4:	e2802001 	add	r2, r0, #1	; 0x1
    b3f8:	e5cc2000 	strb	r2, [ip]
    b3fc:	e0813004 	add	r3, r1, r4
    b400:	e5ce3000 	strb	r3, [lr]
    b404:	e5dc3000 	ldrb	r3, [ip]
    b408:	e5de4000 	ldrb	r4, [lr]
    b40c:	e5d52000 	ldrb	r2, [r5]
    b410:	e35300ff 	cmp	r3, #255	; 0xff
    b414:	024330ff 	subeq	r3, r3, #255	; 0xff
    b418:	05cc3000 	streqb	r3, [ip]
    b41c:	e0822004 	add	r2, r2, r4
    b420:	e5c52000 	strb	r2, [r5]
    b424:	e7c61000 	strb	r1, [r6, r0]
    b428:	e5dc1000 	ldrb	r1, [ip]
    b42c:	e5d70003 	ldrb	r0, [r7, #3]
    b430:	e2812001 	add	r2, r1, #1	; 0x1
    b434:	e5cc2000 	strb	r2, [ip]
    b438:	e0803004 	add	r3, r0, r4
    b43c:	e5ce3000 	strb	r3, [lr]
    b440:	e5dc3000 	ldrb	r3, [ip]
    b444:	e5de4000 	ldrb	r4, [lr]
    b448:	e5d52000 	ldrb	r2, [r5]
    b44c:	e35300ff 	cmp	r3, #255	; 0xff
    b450:	024330ff 	subeq	r3, r3, #255	; 0xff
    b454:	e0822004 	add	r2, r2, r4
    b458:	05cc3000 	streqb	r3, [ip]
    b45c:	e5c52000 	strb	r2, [r5]
    b460:	e7c60001 	strb	r0, [r6, r1]
    b464:	e59f3574 	ldr	r3, [pc, #1396]	; b9e0 <.text+0x79e0>
    b468:	e5dc1000 	ldrb	r1, [ip]
    b46c:	e5d30000 	ldrb	r0, [r3]
    b470:	e2812001 	add	r2, r1, #1	; 0x1
    b474:	e0803004 	add	r3, r0, r4
    b478:	e5ce3000 	strb	r3, [lr]
    b47c:	e5cc2000 	strb	r2, [ip]
    b480:	e5dee000 	ldrb	lr, [lr]
    b484:	e5dc2000 	ldrb	r2, [ip]
    b488:	e5d53000 	ldrb	r3, [r5]
    b48c:	e35200ff 	cmp	r2, #255	; 0xff
    b490:	e083300e 	add	r3, r3, lr
    b494:	e5c53000 	strb	r3, [r5]
    b498:	03a03000 	moveq	r3, #0	; 0x0
    b49c:	05cc3000 	streqb	r3, [ip]
    b4a0:	e5dc3000 	ldrb	r3, [ip]
    b4a4:	e2832001 	add	r2, r3, #1	; 0x1
    b4a8:	e5cc2000 	strb	r2, [ip]
    b4ac:	e5dc2000 	ldrb	r2, [ip]
    b4b0:	e35200ff 	cmp	r2, #255	; 0xff
    b4b4:	e7c60001 	strb	r0, [r6, r1]
    b4b8:	e7c6e003 	strb	lr, [r6, r3]
    b4bc:	03a03000 	moveq	r3, #0	; 0x0
    b4c0:	05cc3000 	streqb	r3, [ip]
    b4c4:	e5dc1000 	ldrb	r1, [ip]
    b4c8:	e2813001 	add	r3, r1, #1	; 0x1
    b4cc:	e5cc3000 	strb	r3, [ip]
    b4d0:	e5dc3000 	ldrb	r3, [ip]
    b4d4:	e5d52000 	ldrb	r2, [r5]
    b4d8:	e35300ff 	cmp	r3, #255	; 0xff
    b4dc:	024330ff 	subeq	r3, r3, #255	; 0xff
    b4e0:	e7c62001 	strb	r2, [r6, r1]
    b4e4:	05cc3000 	streqb	r3, [ip]
    b4e8:	e59f24f4 	ldr	r2, [pc, #1268]	; b9e4 <.text+0x79e4>
    b4ec:	e5d23000 	ldrb	r3, [r2]
    b4f0:	e3530001 	cmp	r3, #1	; 0x1
    b4f4:	1a000167 	bne	ba98 <.text+0x7a98>
    b4f8:	e59f24e8 	ldr	r2, [pc, #1256]	; b9e8 <.text+0x79e8>
    b4fc:	e5d23000 	ldrb	r3, [r2]
    b500:	e2833001 	add	r3, r3, #1	; 0x1
    b504:	e5c23000 	strb	r3, [r2]
    b508:	e5d23000 	ldrb	r3, [r2]
    b50c:	e353001d 	cmp	r3, #29	; 0x1d
    b510:	83a03000 	movhi	r3, #0	; 0x0
    b514:	85c23000 	strhib	r3, [r2]
    b518:	e5d23000 	ldrb	r3, [r2]
    b51c:	e3530000 	cmp	r3, #0	; 0x0
    b520:	1a000054 	bne	b678 <.text+0x7678>
    b524:	e59f34fc 	ldr	r3, [pc, #1276]	; ba28 <.text+0x7a28>
    b528:	e1d330b0 	ldrh	r3, [r3]
    b52c:	e3530000 	cmp	r3, #0	; 0x0
    b530:	1a000158 	bne	ba98 <.text+0x7a98>
    b534:	e59f34b0 	ldr	r3, [pc, #1200]	; b9ec <.text+0x79ec>
    b538:	e5d33000 	ldrb	r3, [r3]
    b53c:	e3530001 	cmp	r3, #1	; 0x1
    b540:	1a000154 	bne	ba98 <.text+0x7a98>
    b544:	e59f14e8 	ldr	r1, [pc, #1256]	; ba34 <.text+0x7a34>
    b548:	e59f04f4 	ldr	r0, [pc, #1268]	; ba44 <.text+0x7a44>
    b54c:	e5d13000 	ldrb	r3, [r1]
    b550:	e5d02000 	ldrb	r2, [r0]
    b554:	e1520003 	cmp	r2, r3
    b558:	25d13000 	ldrcsb	r3, [r1]
    b55c:	35d13000 	ldrccb	r3, [r1]
    b560:	20633002 	rsbcs	r3, r3, r2
    b564:	226330ff 	rsbcs	r3, r3, #255	; 0xff
    b568:	30623003 	rsbcc	r3, r2, r3
    b56c:	e3530006 	cmp	r3, #6	; 0x6
    b570:	da000144 	ble	ba88 <.text+0x7a88>
    b574:	e5d02000 	ldrb	r2, [r0]
    b578:	e2823001 	add	r3, r2, #1	; 0x1
    b57c:	e5c03000 	strb	r3, [r0]
    b580:	e5d03000 	ldrb	r3, [r0]
    b584:	e59fc4b4 	ldr	ip, [pc, #1204]	; ba40 <.text+0x7a40>
    b588:	e35300ff 	cmp	r3, #255	; 0xff
    b58c:	e3e03066 	mvn	r3, #102	; 0x66
    b590:	e7cc3002 	strb	r3, [ip, r2]
    b594:	02833067 	addeq	r3, r3, #103	; 0x67
    b598:	05c03000 	streqb	r3, [r0]
    b59c:	e59f14a0 	ldr	r1, [pc, #1184]	; ba44 <.text+0x7a44>
    b5a0:	e5d12000 	ldrb	r2, [r1]
    b5a4:	e2823001 	add	r3, r2, #1	; 0x1
    b5a8:	e5c13000 	strb	r3, [r1]
    b5ac:	e5d13000 	ldrb	r3, [r1]
    b5b0:	e35300ff 	cmp	r3, #255	; 0xff
    b5b4:	e3a03006 	mov	r3, #6	; 0x6
    b5b8:	e7cc3002 	strb	r3, [ip, r2]
    b5bc:	02433006 	subeq	r3, r3, #6	; 0x6
    b5c0:	05c13000 	streqb	r3, [r1]
    b5c4:	e5d12000 	ldrb	r2, [r1]
    b5c8:	e2823001 	add	r3, r2, #1	; 0x1
    b5cc:	e5c13000 	strb	r3, [r1]
    b5d0:	e5d13000 	ldrb	r3, [r1]
    b5d4:	e59fe46c 	ldr	lr, [pc, #1132]	; ba48 <.text+0x7a48>
    b5d8:	e35300ff 	cmp	r3, #255	; 0xff
    b5dc:	e59f4468 	ldr	r4, [pc, #1128]	; ba4c <.text+0x7a4c>
    b5e0:	e3a0300d 	mov	r3, #13	; 0xd
    b5e4:	e5ce3000 	strb	r3, [lr]
    b5e8:	e2833006 	add	r3, r3, #6	; 0x6
    b5ec:	e5c43000 	strb	r3, [r4]
    b5f0:	e243300c 	sub	r3, r3, #12	; 0xc
    b5f4:	e7cc3002 	strb	r3, [ip, r2]
    b5f8:	02433007 	subeq	r3, r3, #7	; 0x7
    b5fc:	05c13000 	streqb	r3, [r1]
    b600:	e5d12000 	ldrb	r2, [r1]
    b604:	e2823001 	add	r3, r2, #1	; 0x1
    b608:	e5c13000 	strb	r3, [r1]
    b60c:	e5d13000 	ldrb	r3, [r1]
    b610:	e35300ff 	cmp	r3, #255	; 0xff
    b614:	e3a03002 	mov	r3, #2	; 0x2
    b618:	e7cc3002 	strb	r3, [ip, r2]
    b61c:	02433002 	subeq	r3, r3, #2	; 0x2
    b620:	05c13000 	streqb	r3, [r1]
    b624:	e5d13000 	ldrb	r3, [r1]
    b628:	e2832001 	add	r2, r3, #1	; 0x1
    b62c:	e5c12000 	strb	r2, [r1]
    b630:	e5d12000 	ldrb	r2, [r1]
    b634:	e3a0000f 	mov	r0, #15	; 0xf
    b638:	e35200ff 	cmp	r2, #255	; 0xff
    b63c:	e7cc0003 	strb	r0, [ip, r3]
    b640:	03a03000 	moveq	r3, #0	; 0x0
    b644:	05c13000 	streqb	r3, [r1]
    b648:	e5d13000 	ldrb	r3, [r1]
    b64c:	e2832001 	add	r2, r3, #1	; 0x1
    b650:	e5c12000 	strb	r2, [r1]
    b654:	e5d12000 	ldrb	r2, [r1]
    b658:	e3a05022 	mov	r5, #34	; 0x22
    b65c:	e35200ff 	cmp	r2, #255	; 0xff
    b660:	e7cc5003 	strb	r5, [ip, r3]
    b664:	03a03000 	moveq	r3, #0	; 0x0
    b668:	e5ce0000 	strb	r0, [lr]
    b66c:	e5c45000 	strb	r5, [r4]
    b670:	05c13000 	streqb	r3, [r1]
    b674:	ea000107 	b	ba98 <.text+0x7a98>
    b678:	e3530006 	cmp	r3, #6	; 0x6
    b67c:	1a000105 	bne	ba98 <.text+0x7a98>
    b680:	e59f3368 	ldr	r3, [pc, #872]	; b9f0 <.text+0x79f0>
    b684:	e5930000 	ldr	r0, [r3]
    b688:	eb002eab 	bl	1713c <__extendsfdf2>
    b68c:	e28f2fc3 	add	r2, pc, #780	; 0x30c
    b690:	e892000c 	ldmia	r2, {r2, r3}
    b694:	eb002f59 	bl	17400 <__divdf3>
    b698:	e28f2fc2 	add	r2, pc, #776	; 0x308
    b69c:	e892000c 	ldmia	r2, {r2, r3}
    b6a0:	eb002eb8 	bl	17188 <__muldf3>
    b6a4:	eb00301f 	bl	17728 <__fixdfsi>
    b6a8:	e59f3344 	ldr	r3, [pc, #836]	; b9f4 <.text+0x79f4>
    b6ac:	e14b03b4 	strh	r0, [fp, #-52]
    b6b0:	e5930000 	ldr	r0, [r3]
    b6b4:	eb002ea0 	bl	1713c <__extendsfdf2>
    b6b8:	e28f2e2e 	add	r2, pc, #736	; 0x2e0
    b6bc:	e892000c 	ldmia	r2, {r2, r3}
    b6c0:	eb002f4e 	bl	17400 <__divdf3>
    b6c4:	e28f2fb7 	add	r2, pc, #732	; 0x2dc
    b6c8:	e892000c 	ldmia	r2, {r2, r3}
    b6cc:	eb002ead 	bl	17188 <__muldf3>
    b6d0:	eb003014 	bl	17728 <__fixdfsi>
    b6d4:	e59f331c 	ldr	r3, [pc, #796]	; b9f8 <.text+0x79f8>
    b6d8:	e14b03b6 	strh	r0, [fp, #-54]
    b6dc:	e5930000 	ldr	r0, [r3]
    b6e0:	eb002e95 	bl	1713c <__extendsfdf2>
    b6e4:	e28f2fad 	add	r2, pc, #692	; 0x2b4
    b6e8:	e892000c 	ldmia	r2, {r2, r3}
    b6ec:	eb002f43 	bl	17400 <__divdf3>
    b6f0:	e28f2e2b 	add	r2, pc, #688	; 0x2b0
    b6f4:	e892000c 	ldmia	r2, {r2, r3}
    b6f8:	eb002ea2 	bl	17188 <__muldf3>
    b6fc:	eb003009 	bl	17728 <__fixdfsi>
    b700:	e59f132c 	ldr	r1, [pc, #812]	; ba34 <.text+0x7a34>
    b704:	e59fe338 	ldr	lr, [pc, #824]	; ba44 <.text+0x7a44>
    b708:	e5d13000 	ldrb	r3, [r1]
    b70c:	e5de2000 	ldrb	r2, [lr]
    b710:	e14b03b8 	strh	r0, [fp, #-56]
    b714:	e1520003 	cmp	r2, r3
    b718:	25d13000 	ldrcsb	r3, [r1]
    b71c:	35d13000 	ldrccb	r3, [r1]
    b720:	20633002 	rsbcs	r3, r3, r2
    b724:	226330ff 	rsbcs	r3, r3, #255	; 0xff
    b728:	30623003 	rsbcc	r3, r2, r3
    b72c:	e353000c 	cmp	r3, #12	; 0xc
    b730:	da0000d4 	ble	ba88 <.text+0x7a88>
    b734:	e5de2000 	ldrb	r2, [lr]
    b738:	e2823001 	add	r3, r2, #1	; 0x1
    b73c:	e5ce3000 	strb	r3, [lr]
    b740:	e5de3000 	ldrb	r3, [lr]
    b744:	e59f62f4 	ldr	r6, [pc, #756]	; ba40 <.text+0x7a40>
    b748:	e35300ff 	cmp	r3, #255	; 0xff
    b74c:	e3e03066 	mvn	r3, #102	; 0x66
    b750:	e7c63002 	strb	r3, [r6, r2]
    b754:	02833067 	addeq	r3, r3, #103	; 0x67
    b758:	e59fc2e4 	ldr	ip, [pc, #740]	; ba44 <.text+0x7a44>
    b75c:	05ce3000 	streqb	r3, [lr]
    b760:	e5dc2000 	ldrb	r2, [ip]
    b764:	e2823001 	add	r3, r2, #1	; 0x1
    b768:	e5cc3000 	strb	r3, [ip]
    b76c:	e5dc3000 	ldrb	r3, [ip]
    b770:	e35300ff 	cmp	r3, #255	; 0xff
    b774:	e3a0300c 	mov	r3, #12	; 0xc
    b778:	e7c63002 	strb	r3, [r6, r2]
    b77c:	0243300c 	subeq	r3, r3, #12	; 0xc
    b780:	05cc3000 	streqb	r3, [ip]
    b784:	e5dc2000 	ldrb	r2, [ip]
    b788:	e2823001 	add	r3, r2, #1	; 0x1
    b78c:	e5cc3000 	strb	r3, [ip]
    b790:	e5dc3000 	ldrb	r3, [ip]
    b794:	e59f42ac 	ldr	r4, [pc, #684]	; ba48 <.text+0x7a48>
    b798:	e59f52ac 	ldr	r5, [pc, #684]	; ba4c <.text+0x7a4c>
    b79c:	e35300ff 	cmp	r3, #255	; 0xff
    b7a0:	e3a03013 	mov	r3, #19	; 0x13
    b7a4:	e5c43000 	strb	r3, [r4]
    b7a8:	e283300c 	add	r3, r3, #12	; 0xc
    b7ac:	e5c53000 	strb	r3, [r5]
    b7b0:	e2433018 	sub	r3, r3, #24	; 0x18
    b7b4:	e7c63002 	strb	r3, [r6, r2]
    b7b8:	02433007 	subeq	r3, r3, #7	; 0x7
    b7bc:	05cc3000 	streqb	r3, [ip]
    b7c0:	e5dc2000 	ldrb	r2, [ip]
    b7c4:	e2823001 	add	r3, r2, #1	; 0x1
    b7c8:	e5cc3000 	strb	r3, [ip]
    b7cc:	e5dc3000 	ldrb	r3, [ip]
    b7d0:	e35300ff 	cmp	r3, #255	; 0xff
    b7d4:	e3a03019 	mov	r3, #25	; 0x19
    b7d8:	e5c43000 	strb	r3, [r4]
    b7dc:	e283301f 	add	r3, r3, #31	; 0x1f
    b7e0:	e5c53000 	strb	r3, [r5]
    b7e4:	e2433032 	sub	r3, r3, #50	; 0x32
    b7e8:	e7c63002 	strb	r3, [r6, r2]
    b7ec:	02433006 	subeq	r3, r3, #6	; 0x6
    b7f0:	05cc3000 	streqb	r3, [ip]
    b7f4:	e55b1034 	ldrb	r1, [fp, #-52]
    b7f8:	e5dc0000 	ldrb	r0, [ip]
    b7fc:	e2813019 	add	r3, r1, #25	; 0x19
    b800:	e2802001 	add	r2, r0, #1	; 0x1
    b804:	e5cc2000 	strb	r2, [ip]
    b808:	e5c43000 	strb	r3, [r4]
    b80c:	e5dc3000 	ldrb	r3, [ip]
    b810:	e5d4e000 	ldrb	lr, [r4]
    b814:	e35300ff 	cmp	r3, #255	; 0xff
    b818:	e28e3038 	add	r3, lr, #56	; 0x38
    b81c:	e5c53000 	strb	r3, [r5]
    b820:	03a03000 	moveq	r3, #0	; 0x0
    b824:	05cc3000 	streqb	r3, [ip]
    b828:	e7c61000 	strb	r1, [r6, r0]
    b82c:	e5dc0000 	ldrb	r0, [ip]
    b830:	e55b1033 	ldrb	r1, [fp, #-51]
    b834:	e2802001 	add	r2, r0, #1	; 0x1
    b838:	e081300e 	add	r3, r1, lr
    b83c:	e5c43000 	strb	r3, [r4]
    b840:	e5cc2000 	strb	r2, [ip]
    b844:	e5dc3000 	ldrb	r3, [ip]
    b848:	e35300ff 	cmp	r3, #255	; 0xff
    b84c:	e5d4e000 	ldrb	lr, [r4]
    b850:	e5d52000 	ldrb	r2, [r5]
    b854:	024330ff 	subeq	r3, r3, #255	; 0xff
    b858:	05cc3000 	streqb	r3, [ip]
    b85c:	e082200e 	add	r2, r2, lr
    b860:	e5c52000 	strb	r2, [r5]
    b864:	e7c61000 	strb	r1, [r6, r0]
    b868:	e5dc0000 	ldrb	r0, [ip]
    b86c:	e55b1036 	ldrb	r1, [fp, #-54]
    b870:	e2802001 	add	r2, r0, #1	; 0x1
    b874:	e5cc2000 	strb	r2, [ip]
    b878:	e081300e 	add	r3, r1, lr
    b87c:	e5c43000 	strb	r3, [r4]
    b880:	e5dc3000 	ldrb	r3, [ip]
    b884:	e35300ff 	cmp	r3, #255	; 0xff
    b888:	e5d4e000 	ldrb	lr, [r4]
    b88c:	e5d52000 	ldrb	r2, [r5]
    b890:	024330ff 	subeq	r3, r3, #255	; 0xff
    b894:	05cc3000 	streqb	r3, [ip]
    b898:	e082200e 	add	r2, r2, lr
    b89c:	e5c52000 	strb	r2, [r5]
    b8a0:	e7c61000 	strb	r1, [r6, r0]
    b8a4:	e5dc0000 	ldrb	r0, [ip]
    b8a8:	e55b1035 	ldrb	r1, [fp, #-53]
    b8ac:	e2802001 	add	r2, r0, #1	; 0x1
    b8b0:	e5cc2000 	strb	r2, [ip]
    b8b4:	e081300e 	add	r3, r1, lr
    b8b8:	e5c43000 	strb	r3, [r4]
    b8bc:	e5dc3000 	ldrb	r3, [ip]
    b8c0:	e5d4e000 	ldrb	lr, [r4]
    b8c4:	e35300ff 	cmp	r3, #255	; 0xff
    b8c8:	e5d52000 	ldrb	r2, [r5]
    b8cc:	024330ff 	subeq	r3, r3, #255	; 0xff
    b8d0:	05cc3000 	streqb	r3, [ip]
    b8d4:	e082200e 	add	r2, r2, lr
    b8d8:	e5c52000 	strb	r2, [r5]
    b8dc:	e7c61000 	strb	r1, [r6, r0]
    b8e0:	e5dc0000 	ldrb	r0, [ip]
    b8e4:	e55b1038 	ldrb	r1, [fp, #-56]
    b8e8:	e2802001 	add	r2, r0, #1	; 0x1
    b8ec:	e081300e 	add	r3, r1, lr
    b8f0:	e5cc2000 	strb	r2, [ip]
    b8f4:	e5c43000 	strb	r3, [r4]
    b8f8:	e5dc3000 	ldrb	r3, [ip]
    b8fc:	e5d4e000 	ldrb	lr, [r4]
    b900:	e5d52000 	ldrb	r2, [r5]
    b904:	e35300ff 	cmp	r3, #255	; 0xff
    b908:	e082200e 	add	r2, r2, lr
    b90c:	024330ff 	subeq	r3, r3, #255	; 0xff
    b910:	e5c52000 	strb	r2, [r5]
    b914:	05cc3000 	streqb	r3, [ip]
    b918:	e7c61000 	strb	r1, [r6, r0]
    b91c:	e5dc0000 	ldrb	r0, [ip]
    b920:	e55b1037 	ldrb	r1, [fp, #-55]
    b924:	e2802001 	add	r2, r0, #1	; 0x1
    b928:	e081300e 	add	r3, r1, lr
    b92c:	e5cc2000 	strb	r2, [ip]
    b930:	e5c43000 	strb	r3, [r4]
    b934:	e5dc2000 	ldrb	r2, [ip]
    b938:	e5d4e000 	ldrb	lr, [r4]
    b93c:	e5d53000 	ldrb	r3, [r5]
    b940:	e35200ff 	cmp	r2, #255	; 0xff
    b944:	e083300e 	add	r3, r3, lr
    b948:	e5c53000 	strb	r3, [r5]
    b94c:	03a03000 	moveq	r3, #0	; 0x0
    b950:	05cc3000 	streqb	r3, [ip]
    b954:	e5dc3000 	ldrb	r3, [ip]
    b958:	e2832001 	add	r2, r3, #1	; 0x1
    b95c:	e5cc2000 	strb	r2, [ip]
    b960:	e5dc2000 	ldrb	r2, [ip]
    b964:	e35200ff 	cmp	r2, #255	; 0xff
    b968:	e7c61000 	strb	r1, [r6, r0]
    b96c:	e7c6e003 	strb	lr, [r6, r3]
    b970:	03a03000 	moveq	r3, #0	; 0x0
    b974:	05cc3000 	streqb	r3, [ip]
    b978:	e5dc1000 	ldrb	r1, [ip]
    b97c:	e2813001 	add	r3, r1, #1	; 0x1
    b980:	e5cc3000 	strb	r3, [ip]
    b984:	e5dc3000 	ldrb	r3, [ip]
    b988:	e5d52000 	ldrb	r2, [r5]
    b98c:	e35300ff 	cmp	r3, #255	; 0xff
    b990:	024330ff 	subeq	r3, r3, #255	; 0xff
    b994:	e7c62001 	strb	r2, [r6, r1]
    b998:	05cc3000 	streqb	r3, [ip]
    b99c:	ea00003d 	b	ba98 <.text+0x7a98>
    b9a0:	400921fb 	strmid	r2, [r9], -fp
    b9a4:	54442d18 	strplb	r2, [r4], #-3352
    b9a8:	40668000 	rsbmi	r8, r6, r0
    b9ac:	00000000 	andeq	r0, r0, r0
    b9b0:	400004c8 	andmi	r0, r0, r8, asr #9
    b9b4:	40000003 	andmi	r0, r0, r3
    b9b8:	40001158 	andmi	r1, r0, r8, asr r1
    b9bc:	400004b8 	strmih	r0, [r0], -r8
    b9c0:	400010a4 	andmi	r1, r0, r4, lsr #1
    b9c4:	400004ba 	strmih	r0, [r0], -sl
    b9c8:	400004d4 	ldrmid	r0, [r0], -r4
    b9cc:	400004b7 	strmih	r0, [r0], -r7
    b9d0:	40000d29 	andmi	r0, r0, r9, lsr #26
    b9d4:	400004ca 	andmi	r0, r0, sl, asr #9
    b9d8:	40000088 	andmi	r0, r0, r8, lsl #1
    b9dc:	40000084 	andmi	r0, r0, r4, lsl #1
    b9e0:	40000080 	andmi	r0, r0, r0, lsl #1
    b9e4:	400004f0 	strmid	r0, [r0], -r0
    b9e8:	400004ce 	andmi	r0, r0, lr, asr #9
    b9ec:	40000570 	andmi	r0, r0, r0, ror r5
    b9f0:	4000105c 	andmi	r1, r0, ip, asr r0
    b9f4:	40001038 	andmi	r1, r0, r8, lsr r0
    b9f8:	40001054 	andmi	r1, r0, r4, asr r0
    b9fc:	400004c2 	andmi	r0, r0, r2, asr #9
    ba00:	400004c4 	andmi	r0, r0, r4, asr #9
    ba04:	40001090 	mulmi	r0, r0, r0
    ba08:	400010d6 	ldrmid	r1, [r0], -r6
    ba0c:	400010d4 	ldrmid	r1, [r0], -r4
    ba10:	40000a20 	andmi	r0, r0, r0, lsr #20
    ba14:	400004cf 	andmi	r0, r0, pc, asr #9
    ba18:	400004b6 	strmih	r0, [r0], -r6
    ba1c:	400010b4 	strmih	r1, [r0], -r4
    ba20:	48afc800 	stmmiia	pc!, {fp, lr, pc}
    ba24:	400004c3 	andmi	r0, r0, r3, asr #9
    ba28:	40001034 	andmi	r1, r0, r4, lsr r0
    ba2c:	40001058 	andmi	r1, r0, r8, asr r0
    ba30:	40a00000 	adcmi	r0, r0, r0
    ba34:	40000d2c 	andmi	r0, r0, ip, lsr #26
    ba38:	400004b5 	strmih	r0, [r0], -r5
    ba3c:	40000a93 	mulmi	r0, r3, sl
    ba40:	40000d2d 	andmi	r0, r0, sp, lsr #26
    ba44:	40000d2b 	andmi	r0, r0, fp, lsr #26
    ba48:	40000d27 	andmi	r0, r0, r7, lsr #26
    ba4c:	40000c24 	andmi	r0, r0, r4, lsr #24
    ba50:	4000118c 	andmi	r1, r0, ip, lsl #3
    ba54:	e0028000 	and	r8, r2, r0
    ba58:	400007dc 	ldrmid	r0, [r0], -ip
    ba5c:	4000000c 	andmi	r0, r0, ip
    ba60:	40001180 	andmi	r1, r0, r0, lsl #3
    ba64:	4000110c 	andmi	r1, r0, ip, lsl #2
    ba68:	400010f8 	strmid	r1, [r0], -r8
    ba6c:	400004fc 	strmid	r0, [r0], -ip
    ba70:	3fb99999 	swicc	0x00b99999
    ba74:	9999999a 	ldmlsib	r9, {r1, r3, r4, r7, r8, fp, ip, pc}
    ba78:	3fe00000 	swicc	0x00e00000
    ba7c:	00000000 	andeq	r0, r0, r0
    ba80:	40574000 	submis	r4, r7, r0
    ba84:	00000000 	andeq	r0, r0, r0
    ba88:	e51f2054 	ldr	r2, [pc, #-84]	; ba3c <.text+0x7a3c>
    ba8c:	e5d23000 	ldrb	r3, [r2]
    ba90:	e2833001 	add	r3, r3, #1	; 0x1
    ba94:	e5c23000 	strb	r3, [r2]
    ba98:	e51f20a4 	ldr	r2, [pc, #-164]	; b9fc <.text+0x79fc>
    ba9c:	e5d23000 	ldrb	r3, [r2]
    baa0:	e3530000 	cmp	r3, #0	; 0x0
    baa4:	1a000007 	bne	bac8 <.text+0x7ac8>
    baa8:	e51f40ac 	ldr	r4, [pc, #-172]	; ba04 <.text+0x7a04>
    baac:	e5940000 	ldr	r0, [r4]
    bab0:	eb002da1 	bl	1713c <__extendsfdf2>
    bab4:	e24f204c 	sub	r2, pc, #76	; 0x4c
    bab8:	e892000c 	ldmia	r2, {r2, r3}
    babc:	eb002cc8 	bl	16de4 <__adddf3>
    bac0:	eb002f55 	bl	1781c <__truncdfsf2>
    bac4:	e5840000 	str	r0, [r4]
    bac8:	e51f30d0 	ldr	r3, [pc, #-208]	; ba00 <.text+0x7a00>
    bacc:	e5d37000 	ldrb	r7, [r3]
    bad0:	e3570000 	cmp	r7, #0	; 0x0
    bad4:	1a00003e 	bne	bbd4 <.text+0x7bd4>
    bad8:	e51f20b8 	ldr	r2, [pc, #-184]	; ba28 <.text+0x7a28>
    badc:	e1d230b0 	ldrh	r3, [r2]
    bae0:	e51f60e4 	ldr	r6, [pc, #-228]	; ba04 <.text+0x7a04>
    bae4:	e3530000 	cmp	r3, #0	; 0x0
    bae8:	12833001 	addne	r3, r3, #1	; 0x1
    baec:	11c230b0 	strneh	r3, [r2]
    baf0:	e5960000 	ldr	r0, [r6]
    baf4:	eb002d90 	bl	1713c <__extendsfdf2>
    baf8:	e24f2088 	sub	r2, pc, #136	; 0x88
    bafc:	e892000c 	ldmia	r2, {r2, r3}
    bb00:	eb002cb7 	bl	16de4 <__adddf3>
    bb04:	eb002f07 	bl	17728 <__fixdfsi>
    bb08:	e1a00800 	mov	r0, r0, lsl #16
    bb0c:	e1a00840 	mov	r0, r0, asr #16
    bb10:	eb002ff2 	bl	17ae0 <__floatsisf>
    bb14:	e51f4114 	ldr	r4, [pc, #-276]	; ba08 <.text+0x7a08>
    bb18:	e51fe114 	ldr	lr, [pc, #-276]	; ba0c <.text+0x7a0c>
    bb1c:	e51f50cc 	ldr	r5, [pc, #-204]	; ba58 <.text+0x7a58>
    bb20:	e1de20b0 	ldrh	r2, [lr]
    bb24:	e1d410b0 	ldrh	r1, [r4]
    bb28:	e1d5c0b0 	ldrh	ip, [r5]
    bb2c:	e51f3124 	ldr	r3, [pc, #-292]	; ba10 <.text+0x7a10>
    bb30:	e2822001 	add	r2, r2, #1	; 0x1
    bb34:	e28cc001 	add	ip, ip, #1	; 0x1
    bb38:	e2811001 	add	r1, r1, #1	; 0x1
    bb3c:	e5860000 	str	r0, [r6]
    bb40:	e1ce20b0 	strh	r2, [lr]
    bb44:	e1c5c0b0 	strh	ip, [r5]
    bb48:	e5d30000 	ldrb	r0, [r3]
    bb4c:	e1c410b0 	strh	r1, [r4]
    bb50:	eb002d6e 	bl	17110 <__floatsidf>
    bb54:	e24f20dc 	sub	r2, pc, #220	; 0xdc
    bb58:	e892000c 	ldmia	r2, {r2, r3}
    bb5c:	eb002ec6 	bl	1767c <__ledf2>
    bb60:	e51f2154 	ldr	r2, [pc, #-340]	; ba14 <.text+0x7a14>
    bb64:	e3500000 	cmp	r0, #0	; 0x0
    bb68:	b5d23000 	ldrltb	r3, [r2]
    bb6c:	b2833001 	addlt	r3, r3, #1	; 0x1
    bb70:	b5c23000 	strltb	r3, [r2]
    bb74:	e51f3144 	ldr	r3, [pc, #-324]	; ba38 <.text+0x7a38>
    bb78:	a5c27000 	strgeb	r7, [r2]
    bb7c:	e51f016c 	ldr	r0, [pc, #-364]	; ba18 <.text+0x7a18>
    bb80:	e5d31000 	ldrb	r1, [r3]
    bb84:	e51f3178 	ldr	r3, [pc, #-376]	; ba14 <.text+0x7a14>
    bb88:	e5d32000 	ldrb	r2, [r3]
    bb8c:	e5d03000 	ldrb	r3, [r0]
    bb90:	e51f6180 	ldr	r6, [pc, #-384]	; ba18 <.text+0x7a18>
    bb94:	e3520004 	cmp	r2, #4	; 0x4
    bb98:	83833001 	orrhi	r3, r3, #1	; 0x1
    bb9c:	e3510000 	cmp	r1, #0	; 0x0
    bba0:	e5c03000 	strb	r3, [r0]
    bba4:	e1a05006 	mov	r5, r6
    bba8:	e3a04000 	mov	r4, #0	; 0x0
    bbac:	0a000005 	beq	bbc8 <.text+0x7bc8>
    bbb0:	e51f319c 	ldr	r3, [pc, #-412]	; ba1c <.text+0x7a1c>
    bbb4:	e51f119c 	ldr	r1, [pc, #-412]	; ba20 <.text+0x7a20>
    bbb8:	e5930000 	ldr	r0, [r3]
    bbbc:	eb0030a6 	bl	17e5c <__gesf2>
    bbc0:	e3500000 	cmp	r0, #0	; 0x0
    bbc4:	c3a04001 	movgt	r4, #1	; 0x1
    bbc8:	e5d53000 	ldrb	r3, [r5]
    bbcc:	e1833004 	orr	r3, r3, r4
    bbd0:	e5c63000 	strb	r3, [r6]
    bbd4:	e51f21b8 	ldr	r2, [pc, #-440]	; ba24 <.text+0x7a24>
    bbd8:	e5d24000 	ldrb	r4, [r2]
    bbdc:	e3540001 	cmp	r4, #1	; 0x1
    bbe0:	0a00000b 	beq	bc14 <.text+0x7c14>
    bbe4:	ca000002 	bgt	bbf4 <.text+0x7bf4>
    bbe8:	e3540000 	cmp	r4, #0	; 0x0
    bbec:	0a000003 	beq	bc00 <.text+0x7c00>
    bbf0:	ea00008d 	b	be2c <.text+0x7e2c>
    bbf4:	e3540003 	cmp	r4, #3	; 0x3
    bbf8:	0a000082 	beq	be08 <.text+0x7e08>
    bbfc:	ea00008a 	b	be2c <.text+0x7e2c>
    bc00:	eb001845 	bl	11d1c <estimator_propagate_state>
    bc04:	ebffeb5d 	bl	6980 <checkGPS>
    bc08:	ebffed10 	bl	7050 <navigation_task>
    bc0c:	ebffee8f 	bl	7650 <guidance_task>
    bc10:	ea000085 	b	be2c <.text+0x7e2c>
    bc14:	e51f51f4 	ldr	r5, [pc, #-500]	; ba28 <.text+0x7a28>
    bc18:	e1d530b0 	ldrh	r3, [r5]
    bc1c:	e3530000 	cmp	r3, #0	; 0x0
    bc20:	1a000081 	bne	be2c <.text+0x7e2c>
    bc24:	e51f3200 	ldr	r3, [pc, #-512]	; ba2c <.text+0x7a2c>
    bc28:	e51f1200 	ldr	r1, [pc, #-512]	; ba30 <.text+0x7a30>
    bc2c:	e5930000 	ldr	r0, [r3]
    bc30:	eb003089 	bl	17e5c <__gesf2>
    bc34:	e3500000 	cmp	r0, #0	; 0x0
    bc38:	da00007b 	ble	be2c <.text+0x7e2c>
    bc3c:	e51f1210 	ldr	r1, [pc, #-528]	; ba34 <.text+0x7a34>
    bc40:	e51f0204 	ldr	r0, [pc, #-516]	; ba44 <.text+0x7a44>
    bc44:	e5d13000 	ldrb	r3, [r1]
    bc48:	e5d02000 	ldrb	r2, [r0]
    bc4c:	e1520003 	cmp	r2, r3
    bc50:	e51f3220 	ldr	r3, [pc, #-544]	; ba38 <.text+0x7a38>
    bc54:	e5c34000 	strb	r4, [r3]
    bc58:	25d13000 	ldrcsb	r3, [r1]
    bc5c:	35d13000 	ldrccb	r3, [r1]
    bc60:	20633002 	rsbcs	r3, r3, r2
    bc64:	30623003 	rsbcc	r3, r2, r3
    bc68:	226330ff 	rsbcs	r3, r3, #255	; 0xff
    bc6c:	e3530008 	cmp	r3, #8	; 0x8
    bc70:	d51f223c 	ldrle	r2, [pc, #-572]	; ba3c <.text+0x7a3c>
    bc74:	d5d23000 	ldrleb	r3, [r2]
    bc78:	d2833001 	addle	r3, r3, #1	; 0x1
    bc7c:	e1c540b0 	strh	r4, [r5]
    bc80:	d5c23000 	strleb	r3, [r2]
    bc84:	da000068 	ble	be2c <.text+0x7e2c>
    bc88:	e5d02000 	ldrb	r2, [r0]
    bc8c:	e2823001 	add	r3, r2, #1	; 0x1
    bc90:	e5c03000 	strb	r3, [r0]
    bc94:	e5d03000 	ldrb	r3, [r0]
    bc98:	e51f4260 	ldr	r4, [pc, #-608]	; ba40 <.text+0x7a40>
    bc9c:	e35300ff 	cmp	r3, #255	; 0xff
    bca0:	e3e03066 	mvn	r3, #102	; 0x66
    bca4:	e7c43002 	strb	r3, [r4, r2]
    bca8:	02833067 	addeq	r3, r3, #103	; 0x67
    bcac:	e51fc270 	ldr	ip, [pc, #-624]	; ba44 <.text+0x7a44>
    bcb0:	05c03000 	streqb	r3, [r0]
    bcb4:	e5dc2000 	ldrb	r2, [ip]
    bcb8:	e2823001 	add	r3, r2, #1	; 0x1
    bcbc:	e5cc3000 	strb	r3, [ip]
    bcc0:	e5dc3000 	ldrb	r3, [ip]
    bcc4:	e35300ff 	cmp	r3, #255	; 0xff
    bcc8:	e3a03008 	mov	r3, #8	; 0x8
    bccc:	e7c43002 	strb	r3, [r4, r2]
    bcd0:	02433008 	subeq	r3, r3, #8	; 0x8
    bcd4:	05cc3000 	streqb	r3, [ip]
    bcd8:	e5dc2000 	ldrb	r2, [ip]
    bcdc:	e2823001 	add	r3, r2, #1	; 0x1
    bce0:	e5cc3000 	strb	r3, [ip]
    bce4:	e5dc3000 	ldrb	r3, [ip]
    bce8:	e51fe2a8 	ldr	lr, [pc, #-680]	; ba48 <.text+0x7a48>
    bcec:	e51f52a8 	ldr	r5, [pc, #-680]	; ba4c <.text+0x7a4c>
    bcf0:	e35300ff 	cmp	r3, #255	; 0xff
    bcf4:	e3a0300f 	mov	r3, #15	; 0xf
    bcf8:	e5ce3000 	strb	r3, [lr]
    bcfc:	e2833008 	add	r3, r3, #8	; 0x8
    bd00:	e5c53000 	strb	r3, [r5]
    bd04:	e2433010 	sub	r3, r3, #16	; 0x10
    bd08:	e7c43002 	strb	r3, [r4, r2]
    bd0c:	02433007 	subeq	r3, r3, #7	; 0x7
    bd10:	05cc3000 	streqb	r3, [ip]
    bd14:	e5dc2000 	ldrb	r2, [ip]
    bd18:	e2823001 	add	r3, r2, #1	; 0x1
    bd1c:	e5cc3000 	strb	r3, [ip]
    bd20:	e5dc3000 	ldrb	r3, [ip]
    bd24:	e35300ff 	cmp	r3, #255	; 0xff
    bd28:	e3a03013 	mov	r3, #19	; 0x13
    bd2c:	e5ce3000 	strb	r3, [lr]
    bd30:	e2833017 	add	r3, r3, #23	; 0x17
    bd34:	e5c53000 	strb	r3, [r5]
    bd38:	e2433026 	sub	r3, r3, #38	; 0x26
    bd3c:	e7c43002 	strb	r3, [r4, r2]
    bd40:	02433004 	subeq	r3, r3, #4	; 0x4
    bd44:	05cc3000 	streqb	r3, [ip]
    bd48:	e51f62f8 	ldr	r6, [pc, #-760]	; ba58 <.text+0x7a58>
    bd4c:	e5dc0000 	ldrb	r0, [ip]
    bd50:	e5d61000 	ldrb	r1, [r6]
    bd54:	e2802001 	add	r2, r0, #1	; 0x1
    bd58:	e2813013 	add	r3, r1, #19	; 0x13
    bd5c:	e5cc2000 	strb	r2, [ip]
    bd60:	e5ce3000 	strb	r3, [lr]
    bd64:	e5dc3000 	ldrb	r3, [ip]
    bd68:	e5de2000 	ldrb	r2, [lr]
    bd6c:	e35300ff 	cmp	r3, #255	; 0xff
    bd70:	e282302a 	add	r3, r2, #42	; 0x2a
    bd74:	e5c53000 	strb	r3, [r5]
    bd78:	03a03000 	moveq	r3, #0	; 0x0
    bd7c:	05cc3000 	streqb	r3, [ip]
    bd80:	e7c41000 	strb	r1, [r4, r0]
    bd84:	e5dc1000 	ldrb	r1, [ip]
    bd88:	e5d60001 	ldrb	r0, [r6, #1]
    bd8c:	e0803002 	add	r3, r0, r2
    bd90:	e2812001 	add	r2, r1, #1	; 0x1
    bd94:	e5ce3000 	strb	r3, [lr]
    bd98:	e5cc2000 	strb	r2, [ip]
    bd9c:	e5dee000 	ldrb	lr, [lr]
    bda0:	e5dc2000 	ldrb	r2, [ip]
    bda4:	e5d53000 	ldrb	r3, [r5]
    bda8:	e35200ff 	cmp	r2, #255	; 0xff
    bdac:	e083300e 	add	r3, r3, lr
    bdb0:	e5c53000 	strb	r3, [r5]
    bdb4:	03a03000 	moveq	r3, #0	; 0x0
    bdb8:	05cc3000 	streqb	r3, [ip]
    bdbc:	e5dc3000 	ldrb	r3, [ip]
    bdc0:	e2832001 	add	r2, r3, #1	; 0x1
    bdc4:	e5cc2000 	strb	r2, [ip]
    bdc8:	e5dc2000 	ldrb	r2, [ip]
    bdcc:	e35200ff 	cmp	r2, #255	; 0xff
    bdd0:	e7c40001 	strb	r0, [r4, r1]
    bdd4:	e7c4e003 	strb	lr, [r4, r3]
    bdd8:	03a03000 	moveq	r3, #0	; 0x0
    bddc:	05cc3000 	streqb	r3, [ip]
    bde0:	e5dc1000 	ldrb	r1, [ip]
    bde4:	e2813001 	add	r3, r1, #1	; 0x1
    bde8:	e5cc3000 	strb	r3, [ip]
    bdec:	e5dc3000 	ldrb	r3, [ip]
    bdf0:	e5d52000 	ldrb	r2, [r5]
    bdf4:	e35300ff 	cmp	r3, #255	; 0xff
    bdf8:	024330ff 	subeq	r3, r3, #255	; 0xff
    bdfc:	e7c42001 	strb	r2, [r4, r1]
    be00:	05cc3000 	streqb	r3, [ip]
    be04:	ea000008 	b	be2c <.text+0x7e2c>
    be08:	e51f33c0 	ldr	r3, [pc, #-960]	; ba50 <.text+0x7a50>
    be0c:	e5d33000 	ldrb	r3, [r3]
    be10:	e3530000 	cmp	r3, #0	; 0x0
    be14:	151f33c8 	ldrne	r3, [pc, #-968]	; ba54 <.text+0x7a54>
    be18:	051f33cc 	ldreq	r3, [pc, #-972]	; ba54 <.text+0x7a54>
    be1c:	13a02080 	movne	r2, #128	; 0x80
    be20:	03a02080 	moveq	r2, #128	; 0x80
    be24:	15832004 	strne	r2, [r3, #4]
    be28:	0583200c 	streq	r2, [r3, #12]
    be2c:	eb001059 	bl	ff98 <ir_update>
    be30:	eb0012c2 	bl	10940 <estimator_update_state_infrared>
    be34:	eb0020a3 	bl	140c8 <h_ctl_attitude_loop>
    be38:	eb002451 	bl	14f84 <v_ctl_throttle_slew>
    be3c:	e51f33ec 	ldr	r3, [pc, #-1004]	; ba58 <.text+0x7a58>
    be40:	e1d310b0 	ldrh	r1, [r3]
    be44:	e51f33f0 	ldr	r3, [pc, #-1008]	; ba5c <.text+0x7a5c>
    be48:	e5932000 	ldr	r2, [r3]
    be4c:	e51f33f4 	ldr	r3, [pc, #-1012]	; ba60 <.text+0x7a60>
    be50:	e1d330b0 	ldrh	r3, [r3]
    be54:	e1c230b0 	strh	r3, [r2]
    be58:	e51f33fc 	ldr	r3, [pc, #-1020]	; ba64 <.text+0x7a64>
    be5c:	e1d330b0 	ldrh	r3, [r3]
    be60:	e1c230b2 	strh	r3, [r2, #2]
    be64:	e51f3404 	ldr	r3, [pc, #-1028]	; ba68 <.text+0x7a68>
    be68:	e1d330b0 	ldrh	r3, [r3]
    be6c:	e3510003 	cmp	r1, #3	; 0x3
    be70:	e1c230b4 	strh	r3, [r2, #4]
    be74:	0b0006c3 	bleq	d988 <gps_reset>
    be78:	e51f3414 	ldr	r3, [pc, #-1044]	; ba6c <.text+0x7a6c>
    be7c:	e3a02001 	mov	r2, #1	; 0x1
    be80:	e5c32000 	strb	r2, [r3]
    be84:	e24bd028 	sub	sp, fp, #40	; 0x28
    be88:	e89d6ff0 	ldmia	sp, {r4, r5, r6, r7, r8, r9, sl, fp, sp, lr}
    be8c:	e12fff1e 	bx	lr

0000be90 <init_ap>:
    be90:	e1a0c00d 	mov	ip, sp
    be94:	e92dd8f0 	stmdb	sp!, {r4, r5, r6, r7, fp, ip, lr, pc}
    be98:	e24cb004 	sub	fp, ip, #4	; 0x4
    be9c:	eb000ff0 	bl	fe64 <ir_init>
    bea0:	eb0006b3 	bl	d974 <gps_init>
    bea4:	eb000296 	bl	c904 <uart1_init_tx>
    bea8:	eb0002df 	bl	ca2c <uart1_init_rx>
    beac:	e59f115c 	ldr	r1, [pc, #348]	; c010 <.text+0x8010>
    beb0:	e5913000 	ldr	r3, [r1]
    beb4:	e59f2158 	ldr	r2, [pc, #344]	; c014 <.text+0x8014>
    beb8:	e5813000 	str	r3, [r1]
    bebc:	e5923008 	ldr	r3, [r2, #8]
    bec0:	e3833080 	orr	r3, r3, #128	; 0x80
    bec4:	e5823008 	str	r3, [r2, #8]
    bec8:	e3a03080 	mov	r3, #128	; 0x80
    becc:	e582300c 	str	r3, [r2, #12]
    bed0:	e5913004 	ldr	r3, [r1, #4]
    bed4:	e2033702 	and	r3, r3, #524288	; 0x80000
    bed8:	e5813004 	str	r3, [r1, #4]
    bedc:	e5913004 	ldr	r3, [r1, #4]
    bee0:	e1e03003 	mvn	r3, r3
    bee4:	e59f012c 	ldr	r0, [pc, #300]	; c018 <.text+0x8018>
    bee8:	e2033701 	and	r3, r3, #262144	; 0x40000
    beec:	e3a02002 	mov	r2, #2	; 0x2
    bef0:	e1e03003 	mvn	r3, r3
    bef4:	e5813004 	str	r3, [r1, #4]
    bef8:	e5802004 	str	r2, [r0, #4]
    befc:	e580200c 	str	r2, [r0, #12]
    bf00:	e59f2114 	ldr	r2, [pc, #276]	; c01c <.text+0x801c>
    bf04:	e592300c 	ldr	r3, [r2, #12]
    bf08:	e3c33020 	bic	r3, r3, #32	; 0x20
    bf0c:	e582300c 	str	r3, [r2, #12]
    bf10:	e3a03020 	mov	r3, #32	; 0x20
    bf14:	e5823010 	str	r3, [r2, #16]
    bf18:	e2833005 	add	r3, r3, #5	; 0x5
    bf1c:	e5823208 	str	r3, [r2, #520]
    bf20:	e59f30f8 	ldr	r3, [pc, #248]	; c020 <.text+0x8020>
    bf24:	e5823108 	str	r3, [r2, #264]
    bf28:	e59f30f4 	ldr	r3, [pc, #244]	; c024 <.text+0x8024>
    bf2c:	e5803018 	str	r3, [r0, #24]
    bf30:	e59f30f0 	ldr	r3, [pc, #240]	; c028 <.text+0x8028>
    bf34:	e5902014 	ldr	r2, [r0, #20]
    bf38:	e3a01000 	mov	r1, #0	; 0x0
    bf3c:	e5c31000 	strb	r1, [r3]
    bf40:	e3822003 	orr	r2, r2, #3	; 0x3
    bf44:	e3a03001 	mov	r3, #1	; 0x1
    bf48:	e5802014 	str	r2, [r0, #20]
    bf4c:	e5803004 	str	r3, [r0, #4]
    bf50:	eb001f77 	bl	13d34 <h_ctl_init>
    bf54:	eb00223a 	bl	14844 <v_ctl_init>
    bf58:	eb001732 	bl	11c28 <estimator_init>
    bf5c:	eb001778 	bl	11d44 <alt_kalman_init>
    bf60:	eb001c02 	bl	12f70 <nav_init>
    bf64:	ebffe102 	bl	4374 <enableIRQ>
    bf68:	e3a0501e 	mov	r5, #30	; 0x1e
    bf6c:	e59f30b8 	ldr	r3, [pc, #184]	; c02c <.text+0x802c>
    bf70:	e59f70b8 	ldr	r7, [pc, #184]	; c030 <.text+0x8030>
    bf74:	e5932008 	ldr	r2, [r3, #8]
    bf78:	e5971000 	ldr	r1, [r7]
    bf7c:	e59f30b0 	ldr	r3, [pc, #176]	; c034 <.text+0x8034>
    bf80:	e59fc0b0 	ldr	ip, [pc, #176]	; c038 <.text+0x8038>
    bf84:	e0612002 	rsb	r2, r1, r2
    bf88:	e1520003 	cmp	r2, r3
    bf8c:	e59f40a8 	ldr	r4, [pc, #168]	; c03c <.text+0x803c>
    bf90:	e081000c 	add	r0, r1, ip
    bf94:	93a03000 	movls	r3, #0	; 0x0
    bf98:	9a000015 	bls	bff4 <init_ap+0x164>
    bf9c:	e5942000 	ldr	r2, [r4]
    bfa0:	e59f3098 	ldr	r3, [pc, #152]	; c040 <.text+0x8040>
    bfa4:	e082c00c 	add	ip, r2, ip
    bfa8:	e59f1094 	ldr	r1, [pc, #148]	; c044 <.text+0x8044>
    bfac:	e15c0003 	cmp	ip, r3
    bfb0:	e59fe05c 	ldr	lr, [pc, #92]	; c014 <.text+0x8014>
    bfb4:	e59f608c 	ldr	r6, [pc, #140]	; c048 <.text+0x8048>
    bfb8:	e0821001 	add	r1, r2, r1
    bfbc:	e5870000 	str	r0, [r7]
    bfc0:	e584c000 	str	ip, [r4]
    bfc4:	9a000009 	bls	bff0 <init_ap+0x160>
    bfc8:	e59e2010 	ldr	r2, [lr, #16]
    bfcc:	e1d630b0 	ldrh	r3, [r6]
    bfd0:	e3120201 	tst	r2, #268435456	; 0x10000000
    bfd4:	e2833001 	add	r3, r3, #1	; 0x1
    bfd8:	e1c630b0 	strh	r3, [r6]
    bfdc:	13a03201 	movne	r3, #268435456	; 0x10000000
    bfe0:	03a03201 	moveq	r3, #268435456	; 0x10000000
    bfe4:	e5841000 	str	r1, [r4]
    bfe8:	158e301c 	strne	r3, [lr, #28]
    bfec:	058e3014 	streq	r3, [lr, #20]
    bff0:	e3a03001 	mov	r3, #1	; 0x1
    bff4:	e3530000 	cmp	r3, #0	; 0x0
    bff8:	e2453001 	sub	r3, r5, #1	; 0x1
    bffc:	120350ff 	andne	r5, r3, #255	; 0xff
    c000:	e3550000 	cmp	r5, #0	; 0x0
    c004:	1affffd8 	bne	bf6c <init_ap+0xdc>
    c008:	e89d68f0 	ldmia	sp, {r4, r5, r6, r7, fp, sp, lr}
    c00c:	e12fff1e 	bx	lr
    c010:	e002c000 	and	ip, r2, r0
    c014:	e0028000 	and	r8, r2, r0
    c018:	e0008000 	and	r8, r0, r0
    c01c:	fffff000 	swinv	0x00fff000
    c020:	0000d5f0 	streqd	sp, [r0], -r0
    c024:	00000106 	andeq	r0, r0, r6, lsl #2
    c028:	4000118c 	andmi	r1, r0, ip, lsl #3
    c02c:	e0004000 	and	r4, r0, r0
    c030:	400004d0 	ldrmid	r0, [r0], -r0
    c034:	00039386 	andeq	r9, r3, r6, lsl #7
    c038:	00039387 	andeq	r9, r3, r7, lsl #7
    c03c:	400007e0 	andmi	r0, r0, r0, ror #15
    c040:	00e4e1c0 	rsceq	lr, r4, r0, asr #3
    c044:	ff1eb1c7 	swinv	0x001eb1c7
    c048:	400007dc 	ldrmid	r0, [r0], -ip

0000c04c <event_task_ap>:
    c04c:	e1a0c00d 	mov	ip, sp
    c050:	e92dd9f0 	stmdb	sp!, {r4, r5, r6, r7, r8, fp, ip, lr, pc}
    c054:	e24cb004 	sub	fp, ip, #4	; 0x4
    c058:	e59f5674 	ldr	r5, [pc, #1652]	; c6d4 <.text+0x86d4>
    c05c:	e59fc674 	ldr	ip, [pc, #1652]	; c6d8 <.text+0x86d8>
    c060:	e1d520b0 	ldrh	r2, [r5]
    c064:	e1dc30b0 	ldrh	r3, [ip]
    c068:	e1520003 	cmp	r2, r3
    c06c:	0a00000f 	beq	c0b0 <event_task_ap+0x64>
    c070:	e59f4664 	ldr	r4, [pc, #1636]	; c6dc <.text+0x86dc>
    c074:	e5d43000 	ldrb	r3, [r4]
    c078:	e3530000 	cmp	r3, #0	; 0x0
    c07c:	1a00000b 	bne	c0b0 <event_task_ap+0x64>
    c080:	e1dc10b0 	ldrh	r1, [ip]
    c084:	e59f2654 	ldr	r2, [pc, #1620]	; c6e0 <.text+0x86e0>
    c088:	e2813001 	add	r3, r1, #1	; 0x1
    c08c:	e203307f 	and	r3, r3, #127	; 0x7f
    c090:	e1cc30b0 	strh	r3, [ip]
    c094:	e7d20001 	ldrb	r0, [r2, r1]
    c098:	eb000bae 	bl	ef58 <parse_ubx>
    c09c:	e59fc634 	ldr	ip, [pc, #1588]	; c6d8 <.text+0x86d8>
    c0a0:	e1d520b0 	ldrh	r2, [r5]
    c0a4:	e1dc30b0 	ldrh	r3, [ip]
    c0a8:	e1520003 	cmp	r2, r3
    c0ac:	1afffff0 	bne	c074 <event_task_ap+0x28>
    c0b0:	e59f6624 	ldr	r6, [pc, #1572]	; c6dc <.text+0x86dc>
    c0b4:	e5d63000 	ldrb	r3, [r6]
    c0b8:	e3530000 	cmp	r3, #0	; 0x0
    c0bc:	0a000008 	beq	c0e4 <event_task_ap+0x98>
    c0c0:	e59f561c 	ldr	r5, [pc, #1564]	; c6e4 <.text+0x86e4>
    c0c4:	eb000b31 	bl	ed90 <parse_gps_msg>
    c0c8:	e5d53000 	ldrb	r3, [r5]
    c0cc:	e3a04000 	mov	r4, #0	; 0x0
    c0d0:	e3530000 	cmp	r3, #0	; 0x0
    c0d4:	e5c64000 	strb	r4, [r6]
    c0d8:	0a000001 	beq	c0e4 <event_task_ap+0x98>
    c0dc:	eb000c8c 	bl	f314 <use_gps_pos>
    c0e0:	e5c54000 	strb	r4, [r5]
    c0e4:	e59f25fc 	ldr	r2, [pc, #1532]	; c6e8 <.text+0x86e8>
    c0e8:	e5d23000 	ldrb	r3, [r2]
    c0ec:	e3530000 	cmp	r3, #0	; 0x0
    c0f0:	0a000171 	beq	c6bc <event_task_ap+0x670>
    c0f4:	e59f85f0 	ldr	r8, [pc, #1520]	; c6ec <.text+0x86ec>
    c0f8:	e3a03000 	mov	r3, #0	; 0x0
    c0fc:	e5c23000 	strb	r3, [r2]
    c100:	e5982000 	ldr	r2, [r8]
    c104:	e5d22011 	ldrb	r2, [r2, #17]
    c108:	e3120002 	tst	r2, #2	; 0x2
    c10c:	e1a0c003 	mov	ip, r3
    c110:	e1a02003 	mov	r2, r3
    c114:	0a000004 	beq	c12c <event_task_ap+0xe0>
    c118:	e59f35d0 	ldr	r3, [pc, #1488]	; c6f0 <.text+0x86f0>
    c11c:	e5d33000 	ldrb	r3, [r3]
    c120:	e3530001 	cmp	r3, #1	; 0x1
    c124:	83a02000 	movhi	r2, #0	; 0x0
    c128:	93a02001 	movls	r2, #1	; 0x1
    c12c:	e59f05bc 	ldr	r0, [pc, #1468]	; c6f0 <.text+0x86f0>
    c130:	e5d03000 	ldrb	r3, [r0]
    c134:	e2433003 	sub	r3, r3, #3	; 0x3
    c138:	e3530001 	cmp	r3, #1	; 0x1
    c13c:	9a00000d 	bls	c178 <event_task_ap+0x12c>
    c140:	e59f35ac 	ldr	r3, [pc, #1452]	; c6f4 <.text+0x86f4>
    c144:	e5d33000 	ldrb	r3, [r3]
    c148:	e3530000 	cmp	r3, #0	; 0x0
    c14c:	0a000009 	beq	c178 <event_task_ap+0x12c>
    c150:	e59f35a0 	ldr	r3, [pc, #1440]	; c6f8 <.text+0x86f8>
    c154:	e5d33000 	ldrb	r3, [r3]
    c158:	e3530000 	cmp	r3, #0	; 0x0
    c15c:	13a03003 	movne	r3, #3	; 0x3
    c160:	15c03000 	strneb	r3, [r0]
    c164:	13a0c001 	movne	ip, #1	; 0x1
    c168:	e3520000 	cmp	r2, #0	; 0x0
    c16c:	13a03003 	movne	r3, #3	; 0x3
    c170:	15c03000 	strneb	r3, [r0]
    c174:	13a0c001 	movne	ip, #1	; 0x1
    c178:	e5981000 	ldr	r1, [r8]
    c17c:	e5d13011 	ldrb	r3, [r1, #17]
    c180:	e3130010 	tst	r3, #16	; 0x10
    c184:	0a000017 	beq	c1e8 <event_task_ap+0x19c>
    c188:	e5d03000 	ldrb	r3, [r0]
    c18c:	e2433003 	sub	r3, r3, #3	; 0x3
    c190:	e3530001 	cmp	r3, #1	; 0x1
    c194:	8a000005 	bhi	c1b0 <event_task_ap+0x164>
    c198:	e59f255c 	ldr	r2, [pc, #1372]	; c6fc <.text+0x86fc>
    c19c:	e5d23000 	ldrb	r3, [r2]
    c1a0:	e3530000 	cmp	r3, #0	; 0x0
    c1a4:	0a00000e 	beq	c1e4 <event_task_ap+0x198>
    c1a8:	e3a03000 	mov	r3, #0	; 0x0
    c1ac:	e5c23000 	strb	r3, [r2]
    c1b0:	e1d130fe 	ldrsh	r3, [r1, #14]
    c1b4:	e3530d4b 	cmp	r3, #4800	; 0x12c0
    c1b8:	c3a02002 	movgt	r2, #2	; 0x2
    c1bc:	ca000002 	bgt	c1cc <event_task_ap+0x180>
    c1c0:	e3730d4b 	cmn	r3, #4800	; 0x12c0
    c1c4:	d3a02000 	movle	r2, #0	; 0x0
    c1c8:	c3a02001 	movgt	r2, #1	; 0x1
    c1cc:	e5d03000 	ldrb	r3, [r0]
    c1d0:	e1530002 	cmp	r3, r2
    c1d4:	13a03001 	movne	r3, #1	; 0x1
    c1d8:	03a03000 	moveq	r3, #0	; 0x0
    c1dc:	15c02000 	strneb	r2, [r0]
    c1e0:	e20330ff 	and	r3, r3, #255	; 0xff
    c1e4:	e18cc003 	orr	ip, ip, r3
    c1e8:	e5983000 	ldr	r3, [r8]
    c1ec:	e59f750c 	ldr	r7, [pc, #1292]	; c700 <.text+0x8700>
    c1f0:	e5d33011 	ldrb	r3, [r3, #17]
    c1f4:	e5d72000 	ldrb	r2, [r7]
    c1f8:	e20310ff 	and	r1, r3, #255	; 0xff
    c1fc:	e1520001 	cmp	r2, r1
    c200:	03a02000 	moveq	r2, #0	; 0x0
    c204:	0a000004 	beq	c21c <event_task_ap+0x1d0>
    c208:	e202200f 	and	r2, r2, #15	; 0xf
    c20c:	e203300f 	and	r3, r3, #15	; 0xf
    c210:	e5c71000 	strb	r1, [r7]
    c214:	e0522003 	subs	r2, r2, r3
    c218:	13a02001 	movne	r2, #1	; 0x1
    c21c:	e19cc002 	orrs	ip, ip, r2
    c220:	0a0000be 	beq	c520 <event_task_ap+0x4d4>
    c224:	e59f14d8 	ldr	r1, [pc, #1240]	; c704 <.text+0x8704>
    c228:	e59f04d8 	ldr	r0, [pc, #1240]	; c708 <.text+0x8708>
    c22c:	e5d13000 	ldrb	r3, [r1]
    c230:	e5d02000 	ldrb	r2, [r0]
    c234:	e1520003 	cmp	r2, r3
    c238:	25d13000 	ldrcsb	r3, [r1]
    c23c:	35d13000 	ldrccb	r3, [r1]
    c240:	20633002 	rsbcs	r3, r3, r2
    c244:	30623003 	rsbcc	r3, r2, r3
    c248:	226330ff 	rsbcs	r3, r3, #255	; 0xff
    c24c:	e353000d 	cmp	r3, #13	; 0xd
    c250:	d59f24b4 	ldrle	r2, [pc, #1204]	; c70c <.text+0x870c>
    c254:	d5d23000 	ldrleb	r3, [r2]
    c258:	d2833001 	addle	r3, r3, #1	; 0x1
    c25c:	d5c23000 	strleb	r3, [r2]
    c260:	da0000ae 	ble	c520 <event_task_ap+0x4d4>
    c264:	e5d02000 	ldrb	r2, [r0]
    c268:	e2823001 	add	r3, r2, #1	; 0x1
    c26c:	e5c03000 	strb	r3, [r0]
    c270:	e5d03000 	ldrb	r3, [r0]
    c274:	e59f6494 	ldr	r6, [pc, #1172]	; c710 <.text+0x8710>
    c278:	e35300ff 	cmp	r3, #255	; 0xff
    c27c:	e3e03066 	mvn	r3, #102	; 0x66
    c280:	e7c63002 	strb	r3, [r6, r2]
    c284:	02833067 	addeq	r3, r3, #103	; 0x67
    c288:	e59fc478 	ldr	ip, [pc, #1144]	; c708 <.text+0x8708>
    c28c:	05c03000 	streqb	r3, [r0]
    c290:	e5dc2000 	ldrb	r2, [ip]
    c294:	e2823001 	add	r3, r2, #1	; 0x1
    c298:	e5cc3000 	strb	r3, [ip]
    c29c:	e5dc3000 	ldrb	r3, [ip]
    c2a0:	e35300ff 	cmp	r3, #255	; 0xff
    c2a4:	e3a0300d 	mov	r3, #13	; 0xd
    c2a8:	e7c63002 	strb	r3, [r6, r2]
    c2ac:	0243300d 	subeq	r3, r3, #13	; 0xd
    c2b0:	05cc3000 	streqb	r3, [ip]
    c2b4:	e5dc2000 	ldrb	r2, [ip]
    c2b8:	e2823001 	add	r3, r2, #1	; 0x1
    c2bc:	e5cc3000 	strb	r3, [ip]
    c2c0:	e5dc3000 	ldrb	r3, [ip]
    c2c4:	e59fe448 	ldr	lr, [pc, #1096]	; c714 <.text+0x8714>
    c2c8:	e59f5448 	ldr	r5, [pc, #1096]	; c718 <.text+0x8718>
    c2cc:	e35300ff 	cmp	r3, #255	; 0xff
    c2d0:	e3a03014 	mov	r3, #20	; 0x14
    c2d4:	e5ce3000 	strb	r3, [lr]
    c2d8:	e283300d 	add	r3, r3, #13	; 0xd
    c2dc:	e5c53000 	strb	r3, [r5]
    c2e0:	e243301a 	sub	r3, r3, #26	; 0x1a
    c2e4:	e7c63002 	strb	r3, [r6, r2]
    c2e8:	02433007 	subeq	r3, r3, #7	; 0x7
    c2ec:	05cc3000 	streqb	r3, [ip]
    c2f0:	e5dc2000 	ldrb	r2, [ip]
    c2f4:	e2823001 	add	r3, r2, #1	; 0x1
    c2f8:	e5cc3000 	strb	r3, [ip]
    c2fc:	e5dc3000 	ldrb	r3, [ip]
    c300:	e35300ff 	cmp	r3, #255	; 0xff
    c304:	e3a0301f 	mov	r3, #31	; 0x1f
    c308:	e5ce3000 	strb	r3, [lr]
    c30c:	e2833021 	add	r3, r3, #33	; 0x21
    c310:	e5c53000 	strb	r3, [r5]
    c314:	e2433035 	sub	r3, r3, #53	; 0x35
    c318:	e7c63002 	strb	r3, [r6, r2]
    c31c:	0243300b 	subeq	r3, r3, #11	; 0xb
    c320:	05cc3000 	streqb	r3, [ip]
    c324:	e59f33c4 	ldr	r3, [pc, #964]	; c6f0 <.text+0x86f0>
    c328:	e5dc1000 	ldrb	r1, [ip]
    c32c:	e5d30000 	ldrb	r0, [r3]
    c330:	e2812001 	add	r2, r1, #1	; 0x1
    c334:	e280301f 	add	r3, r0, #31	; 0x1f
    c338:	e5cc2000 	strb	r2, [ip]
    c33c:	e5ce3000 	strb	r3, [lr]
    c340:	e5dc3000 	ldrb	r3, [ip]
    c344:	e5de2000 	ldrb	r2, [lr]
    c348:	e35300ff 	cmp	r3, #255	; 0xff
    c34c:	e2823040 	add	r3, r2, #64	; 0x40
    c350:	e5c53000 	strb	r3, [r5]
    c354:	03a03000 	moveq	r3, #0	; 0x0
    c358:	05cc3000 	streqb	r3, [ip]
    c35c:	e7c60001 	strb	r0, [r6, r1]
    c360:	e59f33b4 	ldr	r3, [pc, #948]	; c71c <.text+0x871c>
    c364:	e5dc1000 	ldrb	r1, [ip]
    c368:	e5d30000 	ldrb	r0, [r3]
    c36c:	e0803002 	add	r3, r0, r2
    c370:	e2812001 	add	r2, r1, #1	; 0x1
    c374:	e5ce3000 	strb	r3, [lr]
    c378:	e5cc2000 	strb	r2, [ip]
    c37c:	e5dc3000 	ldrb	r3, [ip]
    c380:	e35300ff 	cmp	r3, #255	; 0xff
    c384:	e5de4000 	ldrb	r4, [lr]
    c388:	e5d52000 	ldrb	r2, [r5]
    c38c:	024330ff 	subeq	r3, r3, #255	; 0xff
    c390:	05cc3000 	streqb	r3, [ip]
    c394:	e0822004 	add	r2, r2, r4
    c398:	e5c52000 	strb	r2, [r5]
    c39c:	e7c60001 	strb	r0, [r6, r1]
    c3a0:	e59f3378 	ldr	r3, [pc, #888]	; c720 <.text+0x8720>
    c3a4:	e5dc1000 	ldrb	r1, [ip]
    c3a8:	e5d30000 	ldrb	r0, [r3]
    c3ac:	e2812001 	add	r2, r1, #1	; 0x1
    c3b0:	e5cc2000 	strb	r2, [ip]
    c3b4:	e0803004 	add	r3, r0, r4
    c3b8:	e5ce3000 	strb	r3, [lr]
    c3bc:	e5dc3000 	ldrb	r3, [ip]
    c3c0:	e35300ff 	cmp	r3, #255	; 0xff
    c3c4:	e5de4000 	ldrb	r4, [lr]
    c3c8:	e5d52000 	ldrb	r2, [r5]
    c3cc:	024330ff 	subeq	r3, r3, #255	; 0xff
    c3d0:	05cc3000 	streqb	r3, [ip]
    c3d4:	e0822004 	add	r2, r2, r4
    c3d8:	e5c52000 	strb	r2, [r5]
    c3dc:	e7c60001 	strb	r0, [r6, r1]
    c3e0:	e59f333c 	ldr	r3, [pc, #828]	; c724 <.text+0x8724>
    c3e4:	e5dc1000 	ldrb	r1, [ip]
    c3e8:	e5d30000 	ldrb	r0, [r3]
    c3ec:	e2812001 	add	r2, r1, #1	; 0x1
    c3f0:	e5cc2000 	strb	r2, [ip]
    c3f4:	e0803004 	add	r3, r0, r4
    c3f8:	e5ce3000 	strb	r3, [lr]
    c3fc:	e5dc3000 	ldrb	r3, [ip]
    c400:	e5de4000 	ldrb	r4, [lr]
    c404:	e35300ff 	cmp	r3, #255	; 0xff
    c408:	e5d52000 	ldrb	r2, [r5]
    c40c:	024330ff 	subeq	r3, r3, #255	; 0xff
    c410:	05cc3000 	streqb	r3, [ip]
    c414:	e0822004 	add	r2, r2, r4
    c418:	e5c52000 	strb	r2, [r5]
    c41c:	e7c60001 	strb	r0, [r6, r1]
    c420:	e59f3300 	ldr	r3, [pc, #768]	; c728 <.text+0x8728>
    c424:	e5dc1000 	ldrb	r1, [ip]
    c428:	e5d30000 	ldrb	r0, [r3]
    c42c:	e2812001 	add	r2, r1, #1	; 0x1
    c430:	e0803004 	add	r3, r0, r4
    c434:	e5cc2000 	strb	r2, [ip]
    c438:	e5ce3000 	strb	r3, [lr]
    c43c:	e5dc3000 	ldrb	r3, [ip]
    c440:	e5de4000 	ldrb	r4, [lr]
    c444:	e5d52000 	ldrb	r2, [r5]
    c448:	e35300ff 	cmp	r3, #255	; 0xff
    c44c:	e0822004 	add	r2, r2, r4
    c450:	024330ff 	subeq	r3, r3, #255	; 0xff
    c454:	e5c52000 	strb	r2, [r5]
    c458:	05cc3000 	streqb	r3, [ip]
    c45c:	e7c60001 	strb	r0, [r6, r1]
    c460:	e5dc1000 	ldrb	r1, [ip]
    c464:	e5d70000 	ldrb	r0, [r7]
    c468:	e2812001 	add	r2, r1, #1	; 0x1
    c46c:	e5cc2000 	strb	r2, [ip]
    c470:	e0803004 	add	r3, r0, r4
    c474:	e5ce3000 	strb	r3, [lr]
    c478:	e5dc3000 	ldrb	r3, [ip]
    c47c:	e5de4000 	ldrb	r4, [lr]
    c480:	e5d52000 	ldrb	r2, [r5]
    c484:	e35300ff 	cmp	r3, #255	; 0xff
    c488:	024330ff 	subeq	r3, r3, #255	; 0xff
    c48c:	e0822004 	add	r2, r2, r4
    c490:	05cc3000 	streqb	r3, [ip]
    c494:	e5c52000 	strb	r2, [r5]
    c498:	e7c60001 	strb	r0, [r6, r1]
    c49c:	e59f3288 	ldr	r3, [pc, #648]	; c72c <.text+0x872c>
    c4a0:	e5dc1000 	ldrb	r1, [ip]
    c4a4:	e5d30000 	ldrb	r0, [r3]
    c4a8:	e2812001 	add	r2, r1, #1	; 0x1
    c4ac:	e0803004 	add	r3, r0, r4
    c4b0:	e5cc2000 	strb	r2, [ip]
    c4b4:	e5ce3000 	strb	r3, [lr]
    c4b8:	e5dc2000 	ldrb	r2, [ip]
    c4bc:	e5dee000 	ldrb	lr, [lr]
    c4c0:	e5d53000 	ldrb	r3, [r5]
    c4c4:	e35200ff 	cmp	r2, #255	; 0xff
    c4c8:	e083300e 	add	r3, r3, lr
    c4cc:	e5c53000 	strb	r3, [r5]
    c4d0:	03a03000 	moveq	r3, #0	; 0x0
    c4d4:	05cc3000 	streqb	r3, [ip]
    c4d8:	e5dc3000 	ldrb	r3, [ip]
    c4dc:	e2832001 	add	r2, r3, #1	; 0x1
    c4e0:	e5cc2000 	strb	r2, [ip]
    c4e4:	e5dc2000 	ldrb	r2, [ip]
    c4e8:	e35200ff 	cmp	r2, #255	; 0xff
    c4ec:	e7c60001 	strb	r0, [r6, r1]
    c4f0:	e7c6e003 	strb	lr, [r6, r3]
    c4f4:	03a03000 	moveq	r3, #0	; 0x0
    c4f8:	05cc3000 	streqb	r3, [ip]
    c4fc:	e5dc1000 	ldrb	r1, [ip]
    c500:	e2813001 	add	r3, r1, #1	; 0x1
    c504:	e5cc3000 	strb	r3, [ip]
    c508:	e5dc3000 	ldrb	r3, [ip]
    c50c:	e5d52000 	ldrb	r2, [r5]
    c510:	e35300ff 	cmp	r3, #255	; 0xff
    c514:	024330ff 	subeq	r3, r3, #255	; 0xff
    c518:	e7c62001 	strb	r2, [r6, r1]
    c51c:	05cc3000 	streqb	r3, [ip]
    c520:	e59f61c8 	ldr	r6, [pc, #456]	; c6f0 <.text+0x86f0>
    c524:	e5d65000 	ldrb	r5, [r6]
    c528:	e3550001 	cmp	r5, #1	; 0x1
    c52c:	1a00001c 	bne	c5a4 <event_task_ap+0x558>
    c530:	e5984000 	ldr	r4, [r8]
    c534:	e1d400f0 	ldrsh	r0, [r4]
    c538:	eb002d68 	bl	17ae0 <__floatsisf>
    c53c:	e59f11ec 	ldr	r1, [pc, #492]	; c730 <.text+0x8730>
    c540:	eb002ddd 	bl	17cbc <__divsf3>
    c544:	eb002afc 	bl	1713c <__extendsfdf2>
    c548:	e28f2f5d 	add	r2, pc, #372	; 0x174
    c54c:	e892000c 	ldmia	r2, {r2, r3}
    c550:	eb002b0c 	bl	17188 <__muldf3>
    c554:	e28f2e17 	add	r2, pc, #368	; 0x170
    c558:	e892000c 	ldmia	r2, {r2, r3}
    c55c:	eb002a20 	bl	16de4 <__adddf3>
    c560:	eb002cad 	bl	1781c <__truncdfsf2>
    c564:	e59f31c8 	ldr	r3, [pc, #456]	; c734 <.text+0x8734>
    c568:	e5830000 	str	r0, [r3]
    c56c:	e1d400f2 	ldrsh	r0, [r4, #2]
    c570:	eb002d5a 	bl	17ae0 <__floatsisf>
    c574:	e59f11b4 	ldr	r1, [pc, #436]	; c730 <.text+0x8730>
    c578:	eb002dcf 	bl	17cbc <__divsf3>
    c57c:	eb002aee 	bl	1713c <__extendsfdf2>
    c580:	e28f2f4f 	add	r2, pc, #316	; 0x13c
    c584:	e892000c 	ldmia	r2, {r2, r3}
    c588:	eb002afe 	bl	17188 <__muldf3>
    c58c:	e28f2f4e 	add	r2, pc, #312	; 0x138
    c590:	e892000c 	ldmia	r2, {r2, r3}
    c594:	eb002a12 	bl	16de4 <__adddf3>
    c598:	eb002c9f 	bl	1781c <__truncdfsf2>
    c59c:	e59f3194 	ldr	r3, [pc, #404]	; c738 <.text+0x8738>
    c5a0:	e5830000 	str	r0, [r3]
    c5a4:	e3550001 	cmp	r5, #1	; 0x1
    c5a8:	959f313c 	ldrls	r3, [pc, #316]	; c6ec <.text+0x86ec>
    c5ac:	95932000 	ldrls	r2, [r3]
    c5b0:	e59f4134 	ldr	r4, [pc, #308]	; c6ec <.text+0x86ec>
    c5b4:	91d220b4 	ldrlsh	r2, [r2, #4]
    c5b8:	959f317c 	ldrls	r3, [pc, #380]	; c73c <.text+0x873c>
    c5bc:	91c320b0 	strlsh	r2, [r3]
    c5c0:	e5942000 	ldr	r2, [r4]
    c5c4:	e59f3174 	ldr	r3, [pc, #372]	; c740 <.text+0x8740>
    c5c8:	e5d21010 	ldrb	r1, [r2, #16]
    c5cc:	e5c31000 	strb	r1, [r3]
    c5d0:	e59f316c 	ldr	r3, [pc, #364]	; c744 <.text+0x8744>
    c5d4:	e5d21013 	ldrb	r1, [r2, #19]
    c5d8:	e5c31000 	strb	r1, [r3]
    c5dc:	e59f3164 	ldr	r3, [pc, #356]	; c748 <.text+0x8748>
    c5e0:	e1d220fa 	ldrsh	r2, [r2, #10]
    c5e4:	e1520003 	cmp	r2, r3
    c5e8:	e59f215c 	ldr	r2, [pc, #348]	; c74c <.text+0x874c>
    c5ec:	d3a03000 	movle	r3, #0	; 0x0
    c5f0:	d1c230b0 	strleh	r3, [r2]
    c5f4:	da000009 	ble	c620 <event_task_ap+0x5d4>
    c5f8:	e1d230b0 	ldrh	r3, [r2]
    c5fc:	e3530013 	cmp	r3, #19	; 0x13
    c600:	8a000006 	bhi	c620 <event_task_ap+0x5d4>
    c604:	e2833001 	add	r3, r3, #1	; 0x1
    c608:	e1c230b0 	strh	r3, [r2]
    c60c:	e1d230b0 	ldrh	r3, [r2]
    c610:	e3530014 	cmp	r3, #20	; 0x14
    c614:	059f30e0 	ldreq	r3, [pc, #224]	; c6fc <.text+0x86fc>
    c618:	03a02001 	moveq	r2, #1	; 0x1
    c61c:	05c32000 	streqb	r2, [r3]
    c620:	e5943000 	ldr	r3, [r4]
    c624:	e1d320fa 	ldrsh	r2, [r3, #10]
    c628:	e59f3120 	ldr	r3, [pc, #288]	; c750 <.text+0x8750>
    c62c:	e1520003 	cmp	r2, r3
    c630:	e59f211c 	ldr	r2, [pc, #284]	; c754 <.text+0x8754>
    c634:	a3a03000 	movge	r3, #0	; 0x0
    c638:	a1c230b0 	strgeh	r3, [r2]
    c63c:	aa000009 	bge	c668 <event_task_ap+0x61c>
    c640:	e1d230b0 	ldrh	r3, [r2]
    c644:	e3530013 	cmp	r3, #19	; 0x13
    c648:	8a000006 	bhi	c668 <event_task_ap+0x61c>
    c64c:	e2833001 	add	r3, r3, #1	; 0x1
    c650:	e1c230b0 	strh	r3, [r2]
    c654:	e1d230b0 	ldrh	r3, [r2]
    c658:	e3530014 	cmp	r3, #20	; 0x14
    c65c:	059f30f4 	ldreq	r3, [pc, #244]	; c758 <.text+0x8758>
    c660:	03a02001 	moveq	r2, #1	; 0x1
    c664:	05c32000 	streqb	r2, [r3]
    c668:	e59f30ec 	ldr	r3, [pc, #236]	; c75c <.text+0x875c>
    c66c:	e1d330b0 	ldrh	r3, [r3]
    c670:	e3530000 	cmp	r3, #0	; 0x0
    c674:	1a000010 	bne	c6bc <event_task_ap+0x670>
    c678:	e5943000 	ldr	r3, [r4]
    c67c:	e1d300b0 	ldrh	r0, [r3]
    c680:	e2800d4b 	add	r0, r0, #4800	; 0x12c0
    c684:	e1a00800 	mov	r0, r0, lsl #16
    c688:	e3500596 	cmp	r0, #629145600	; 0x25800000
    c68c:	93a00000 	movls	r0, #0	; 0x0
    c690:	83a00001 	movhi	r0, #1	; 0x1
    c694:	eb000e8b 	bl	100c8 <ground_calibrate>
    c698:	e5d63000 	ldrb	r3, [r6]
    c69c:	e3530002 	cmp	r3, #2	; 0x2
    c6a0:	1a000005 	bne	c6bc <event_task_ap+0x670>
    c6a4:	e5943000 	ldr	r3, [r4]
    c6a8:	e1d330f4 	ldrsh	r3, [r3, #4]
    c6ac:	e3530d87 	cmp	r3, #8640	; 0x21c0
    c6b0:	c59f303c 	ldrgt	r3, [pc, #60]	; c6f4 <.text+0x86f4>
    c6b4:	c3a02001 	movgt	r2, #1	; 0x1
    c6b8:	c5c32000 	strgtb	r2, [r3]
    c6bc:	e89d69f0 	ldmia	sp, {r4, r5, r6, r7, r8, fp, sp, lr}
    c6c0:	e12fff1e 	bx	lr
    c6c4:	3fe33333 	swicc	0x00e33333
    c6c8:	33333333 	teqcc	r3, #-872415232	; 0xcc000000
	...
    c6d4:	40000a94 	mulmi	r0, r4, sl
    c6d8:	40000b9a 	mulmi	r0, sl, fp
    c6dc:	40000f36 	andmi	r0, r0, r6, lsr pc
    c6e0:	40000b16 	andmi	r0, r0, r6, lsl fp
    c6e4:	40000f54 	andmi	r0, r0, r4, asr pc
    c6e8:	400004fd 	strmid	r0, [r0], -sp
    c6ec:	40000010 	andmi	r0, r0, r0, lsl r0
    c6f0:	40000003 	andmi	r0, r0, r3
    c6f4:	400004b5 	strmih	r0, [r0], -r5
    c6f8:	400010a8 	andmi	r1, r0, r8, lsr #1
    c6fc:	4000082c 	andmi	r0, r0, ip, lsr #16
    c700:	400004d4 	ldrmid	r0, [r0], -r4
    c704:	40000d2c 	andmi	r0, r0, ip, lsr #26
    c708:	40000d2b 	andmi	r0, r0, fp, lsr #26
    c70c:	40000a93 	mulmi	r0, r3, sl
    c710:	40000d2d 	andmi	r0, r0, sp, lsr #26
    c714:	40000d27 	andmi	r0, r0, r7, lsr #26
    c718:	40000c24 	andmi	r0, r0, r4, lsr #24
    c71c:	40001158 	andmi	r1, r0, r8, asr r1
    c720:	400004b8 	strmih	r0, [r0], -r8
    c724:	400010a4 	andmi	r1, r0, r4, lsr #1
    c728:	400004ba 	strmih	r0, [r0], -sl
    c72c:	400004b7 	strmih	r0, [r0], -r7
    c730:	46160000 	ldrmi	r0, [r6], -r0
    c734:	40001134 	andmi	r1, r0, r4, lsr r1
    c738:	40001110 	andmi	r1, r0, r0, lsl r1
    c73c:	40001170 	andmi	r1, r0, r0, ror r1
    c740:	400004d5 	ldrmid	r0, [r0], -r5
    c744:	40000a20 	andmi	r0, r0, r0, lsr #20
    c748:	00001c20 	andeq	r1, r0, r0, lsr #24
    c74c:	400004bc 	strmih	r0, [r0], -ip
    c750:	ffffe3e0 	swinv	0x00ffe3e0
    c754:	400004be 	strmih	r0, [r0], -lr
    c758:	40000a18 	andmi	r0, r0, r8, lsl sl
    c75c:	40001034 	andmi	r1, r0, r4, lsr r0

0000c760 <main>:
    c760:	e1a0c00d 	mov	ip, sp
    c764:	e92dd870 	stmdb	sp!, {r4, r5, r6, fp, ip, lr, pc}
    c768:	e24cb004 	sub	fp, ip, #4	; 0x4
    c76c:	ebffdf13 	bl	43c0 <init_fbw>
    c770:	ebfffdc6 	bl	be90 <init_ap>
    c774:	e59f309c 	ldr	r3, [pc, #156]	; c818 <.text+0x8818>
    c778:	e59f609c 	ldr	r6, [pc, #156]	; c81c <.text+0x881c>
    c77c:	e5932008 	ldr	r2, [r3, #8]
    c780:	e5961000 	ldr	r1, [r6]
    c784:	e59f3094 	ldr	r3, [pc, #148]	; c820 <.text+0x8820>
    c788:	e59fc094 	ldr	ip, [pc, #148]	; c824 <.text+0x8824>
    c78c:	e0612002 	rsb	r2, r1, r2
    c790:	e1520003 	cmp	r2, r3
    c794:	e59f408c 	ldr	r4, [pc, #140]	; c828 <.text+0x8828>
    c798:	e081000c 	add	r0, r1, ip
    c79c:	93a03000 	movls	r3, #0	; 0x0
    c7a0:	9a000015 	bls	c7fc <main+0x9c>
    c7a4:	e5942000 	ldr	r2, [r4]
    c7a8:	e59f307c 	ldr	r3, [pc, #124]	; c82c <.text+0x882c>
    c7ac:	e082c00c 	add	ip, r2, ip
    c7b0:	e59f1078 	ldr	r1, [pc, #120]	; c830 <.text+0x8830>
    c7b4:	e15c0003 	cmp	ip, r3
    c7b8:	e59fe074 	ldr	lr, [pc, #116]	; c834 <.text+0x8834>
    c7bc:	e59f5074 	ldr	r5, [pc, #116]	; c838 <.text+0x8838>
    c7c0:	e0821001 	add	r1, r2, r1
    c7c4:	e5860000 	str	r0, [r6]
    c7c8:	e584c000 	str	ip, [r4]
    c7cc:	9a000009 	bls	c7f8 <main+0x98>
    c7d0:	e59e2010 	ldr	r2, [lr, #16]
    c7d4:	e1d530b0 	ldrh	r3, [r5]
    c7d8:	e3120201 	tst	r2, #268435456	; 0x10000000
    c7dc:	e2833001 	add	r3, r3, #1	; 0x1
    c7e0:	e1c530b0 	strh	r3, [r5]
    c7e4:	13a03201 	movne	r3, #268435456	; 0x10000000
    c7e8:	03a03201 	moveq	r3, #268435456	; 0x10000000
    c7ec:	e5841000 	str	r1, [r4]
    c7f0:	158e301c 	strne	r3, [lr, #28]
    c7f4:	058e3014 	streq	r3, [lr, #20]
    c7f8:	e3a03001 	mov	r3, #1	; 0x1
    c7fc:	e3530000 	cmp	r3, #0	; 0x0
    c800:	0a000001 	beq	c80c <main+0xac>
    c804:	ebffe0e0 	bl	4b8c <periodic_task_fbw>
    c808:	ebffec16 	bl	7868 <periodic_task_ap>
    c80c:	ebffdf5e 	bl	458c <event_task_fbw>
    c810:	ebfffe0d 	bl	c04c <event_task_ap>
    c814:	eaffffd6 	b	c774 <main+0x14>
    c818:	e0004000 	and	r4, r0, r0
    c81c:	400004d8 	ldrmid	r0, [r0], -r8
    c820:	00039386 	andeq	r9, r3, r6, lsl #7
    c824:	00039387 	andeq	r9, r3, r7, lsl #7
    c828:	400007e0 	andmi	r0, r0, r0, ror #15
    c82c:	00e4e1c0 	rsceq	lr, r4, r0, asr #3
    c830:	ff1eb1c7 	swinv	0x001eb1c7
    c834:	e0028000 	and	r8, r2, r0
    c838:	400007dc 	ldrmid	r0, [r0], -ip

0000c83c <actuators_init>:
    c83c:	e59f20a8 	ldr	r2, [pc, #168]	; c8ec <.text+0x88ec>
    c840:	e5923008 	ldr	r3, [r2, #8]
    c844:	e3833020 	orr	r3, r3, #32	; 0x20
    c848:	e5823008 	str	r3, [r2, #8]
    c84c:	e59f109c 	ldr	r1, [pc, #156]	; c8f0 <.text+0x88f0>
    c850:	e5913000 	ldr	r3, [r1]
    c854:	e3833b02 	orr	r3, r3, #2048	; 0x800
    c858:	e5813000 	str	r3, [r1]
    c85c:	e5923018 	ldr	r3, [r2, #24]
    c860:	e3833202 	orr	r3, r3, #536870912	; 0x20000000
    c864:	e5823018 	str	r3, [r2, #24]
    c868:	e5913014 	ldr	r3, [r1, #20]
    c86c:	e3c33008 	bic	r3, r3, #8	; 0x8
    c870:	e5813014 	str	r3, [r1, #20]
    c874:	e3a03202 	mov	r3, #536870912	; 0x20000000
    c878:	e5823014 	str	r3, [r2, #20]
    c87c:	e5923018 	ldr	r3, [r2, #24]
    c880:	e3833601 	orr	r3, r3, #1048576	; 0x100000
    c884:	e5823018 	str	r3, [r2, #24]
    c888:	e2422909 	sub	r2, r2, #147456	; 0x24000
    c88c:	e5923014 	ldr	r3, [r2, #20]
    c890:	e3833008 	orr	r3, r3, #8	; 0x8
    c894:	e5823014 	str	r3, [r2, #20]
    c898:	e592303c 	ldr	r3, [r2, #60]
    c89c:	e3c33002 	bic	r3, r3, #2	; 0x2
    c8a0:	e582303c 	str	r3, [r2, #60]
    c8a4:	e59f3048 	ldr	r3, [pc, #72]	; c8f4 <.text+0x88f4>
    c8a8:	e592103c 	ldr	r1, [r2, #60]
    c8ac:	e3a00008 	mov	r0, #8	; 0x8
    c8b0:	e5c30000 	strb	r0, [r3]
    c8b4:	e59f303c 	ldr	r3, [pc, #60]	; c8f8 <.text+0x88f8>
    c8b8:	e3811080 	orr	r1, r1, #128	; 0x80
    c8bc:	e582103c 	str	r1, [r2, #60]
    c8c0:	e582301c 	str	r3, [r2, #28]
    c8c4:	e2400008 	sub	r0, r0, #8	; 0x8
    c8c8:	e2803001 	add	r3, r0, #1	; 0x1
    c8cc:	e1a01080 	mov	r1, r0, lsl #1
    c8d0:	e59f2024 	ldr	r2, [pc, #36]	; c8fc <.text+0x88fc>
    c8d4:	e20300ff 	and	r0, r3, #255	; 0xff
    c8d8:	e59f3020 	ldr	r3, [pc, #32]	; c900 <.text+0x8900>
    c8dc:	e3500007 	cmp	r0, #7	; 0x7
    c8e0:	e18120b3 	strh	r2, [r1, r3]
    c8e4:	9afffff7 	bls	c8c8 <actuators_init+0x8c>
    c8e8:	e12fff1e 	bx	lr
    c8ec:	e0028000 	and	r8, r2, r0
    c8f0:	e002c000 	and	ip, r2, r0
    c8f4:	40000a2a 	andmi	r0, r0, sl, lsr #20
    c8f8:	0000ffff 	streqd	pc, [r0], -pc
    c8fc:	000057e4 	andeq	r5, r0, r4, ror #15
    c900:	40000a2c 	andmi	r0, r0, ip, lsr #20

0000c904 <uart1_init_tx>:
    c904:	e52de004 	str	lr, [sp, #-4]!
    c908:	e59f20a8 	ldr	r2, [pc, #168]	; c9b8 <.text+0x89b8>
    c90c:	e5923000 	ldr	r3, [r2]
    c910:	e59f00a4 	ldr	r0, [pc, #164]	; c9bc <.text+0x89bc>
    c914:	e3c3380f 	bic	r3, r3, #983040	; 0xf0000
    c918:	e3a0e000 	mov	lr, #0	; 0x0
    c91c:	e3833805 	orr	r3, r3, #327680	; 0x50000
    c920:	e5823000 	str	r3, [r2]
    c924:	e5c0e004 	strb	lr, [r0, #4]
    c928:	e5d03008 	ldrb	r3, [r0, #8]
    c92c:	e5d03000 	ldrb	r3, [r0]
    c930:	e5d03014 	ldrb	r3, [r0, #20]
    c934:	e3e0307f 	mvn	r3, #127	; 0x7f
    c938:	e5c0300c 	strb	r3, [r0, #12]
    c93c:	e28330b1 	add	r3, r3, #177	; 0xb1
    c940:	e5c03000 	strb	r3, [r0]
    c944:	e243302e 	sub	r3, r3, #46	; 0x2e
    c948:	e5c0e004 	strb	lr, [r0, #4]
    c94c:	e5c0300c 	strb	r3, [r0, #12]
    c950:	e283307e 	add	r3, r3, #126	; 0x7e
    c954:	e5c03008 	strb	r3, [r0, #8]
    c958:	e59fc060 	ldr	ip, [pc, #96]	; c9c0 <.text+0x89c0>
    c95c:	e59f3060 	ldr	r3, [pc, #96]	; c9c4 <.text+0x89c4>
    c960:	e59c200c 	ldr	r2, [ip, #12]
    c964:	e5c3e000 	strb	lr, [r3]
    c968:	e59f3058 	ldr	r3, [pc, #88]	; c9c8 <.text+0x89c8>
    c96c:	e1c3e0b0 	strh	lr, [r3]
    c970:	e59f3054 	ldr	r3, [pc, #84]	; c9cc <.text+0x89cc>
    c974:	e3c22080 	bic	r2, r2, #128	; 0x80
    c978:	e1c3e0b0 	strh	lr, [r3]
    c97c:	e3a03080 	mov	r3, #128	; 0x80
    c980:	e58c200c 	str	r2, [ip, #12]
    c984:	e58c3010 	str	r3, [ip, #16]
    c988:	e59f3040 	ldr	r3, [pc, #64]	; c9d0 <.text+0x89d0>
    c98c:	e1c3e0b0 	strh	lr, [r3]
    c990:	e3a03027 	mov	r3, #39	; 0x27
    c994:	e58c321c 	str	r3, [ip, #540]
    c998:	e59f3034 	ldr	r3, [pc, #52]	; c9d4 <.text+0x89d4>
    c99c:	e58c311c 	str	r3, [ip, #284]
    c9a0:	e3a03001 	mov	r3, #1	; 0x1
    c9a4:	e5c03004 	strb	r3, [r0, #4]
    c9a8:	e59f3028 	ldr	r3, [pc, #40]	; c9d8 <.text+0x89d8>
    c9ac:	e1c3e0b0 	strh	lr, [r3]
    c9b0:	e49de004 	ldr	lr, [sp], #4
    c9b4:	e12fff1e 	bx	lr
    c9b8:	e002c000 	and	ip, r2, r0
    c9bc:	e0010000 	and	r0, r1, r0
    c9c0:	fffff000 	swinv	0x00fff000
    c9c4:	40000b96 	mulmi	r0, r6, fp
    c9c8:	40000a94 	mulmi	r0, r4, sl
    c9cc:	40000b9c 	mulmi	r0, ip, fp
    c9d0:	40000b98 	mulmi	r0, r8, fp
    c9d4:	0000cad4 	ldreqd	ip, [r0], -r4
    c9d8:	40000b9a 	mulmi	r0, sl, fp

0000c9dc <uart1_check_free_space>:
    c9dc:	e59f3040 	ldr	r3, [pc, #64]	; ca24 <.text+0x8a24>
    c9e0:	e1d320b0 	ldrh	r2, [r3]
    c9e4:	e59f303c 	ldr	r3, [pc, #60]	; ca28 <.text+0x8a28>
    c9e8:	e1d330b0 	ldrh	r3, [r3]
    c9ec:	e0632002 	rsb	r2, r3, r2
    c9f0:	e1a02802 	mov	r2, r2, lsl #16
    c9f4:	e3520000 	cmp	r2, #0	; 0x0
    c9f8:	e1a02822 	mov	r2, r2, lsr #16
    c9fc:	e2823080 	add	r3, r2, #128	; 0x80
    ca00:	e1a03803 	mov	r3, r3, lsl #16
    ca04:	d1a02823 	movle	r2, r3, lsr #16
    ca08:	e2423001 	sub	r3, r2, #1	; 0x1
    ca0c:	e20000ff 	and	r0, r0, #255	; 0xff
    ca10:	e1a03803 	mov	r3, r3, lsl #16
    ca14:	e1500823 	cmp	r0, r3, lsr #16
    ca18:	83a00000 	movhi	r0, #0	; 0x0
    ca1c:	93a00001 	movls	r0, #1	; 0x1
    ca20:	e12fff1e 	bx	lr
    ca24:	40000b9c 	mulmi	r0, ip, fp
    ca28:	40000b98 	mulmi	r0, r8, fp

0000ca2c <uart1_init_rx>:
    ca2c:	e12fff1e 	bx	lr

0000ca30 <uart1_transmit>:
    ca30:	e1a0c00d 	mov	ip, sp
    ca34:	e92dd8f0 	stmdb	sp!, {r4, r5, r6, r7, fp, ip, lr, pc}
    ca38:	e59f5080 	ldr	r5, [pc, #128]	; cac0 <.text+0x8ac0>
    ca3c:	e59f2080 	ldr	r2, [pc, #128]	; cac4 <.text+0x8ac4>
    ca40:	e1d530b0 	ldrh	r3, [r5]
    ca44:	e1d220b0 	ldrh	r2, [r2]
    ca48:	e2833001 	add	r3, r3, #1	; 0x1
    ca4c:	e203707f 	and	r7, r3, #127	; 0x7f
    ca50:	e1520007 	cmp	r2, r7
    ca54:	e24cb004 	sub	fp, ip, #4	; 0x4
    ca58:	e59f6068 	ldr	r6, [pc, #104]	; cac8 <.text+0x8ac8>
    ca5c:	e20040ff 	and	r4, r0, #255	; 0xff
    ca60:	0a000014 	beq	cab8 <uart1_transmit+0x88>
    ca64:	ebffde37 	bl	4348 <disableIRQ>
    ca68:	e5d63004 	ldrb	r3, [r6, #4]
    ca6c:	e3c33002 	bic	r3, r3, #2	; 0x2
    ca70:	e5c63004 	strb	r3, [r6, #4]
    ca74:	ebffde37 	bl	4358 <restoreIRQ>
    ca78:	e59f204c 	ldr	r2, [pc, #76]	; cacc <.text+0x8acc>
    ca7c:	e5d23000 	ldrb	r3, [r2]
    ca80:	e3530000 	cmp	r3, #0	; 0x0
    ca84:	11d520b0 	ldrneh	r2, [r5]
    ca88:	159f3040 	ldrne	r3, [pc, #64]	; cad0 <.text+0x8ad0>
    ca8c:	03a03001 	moveq	r3, #1	; 0x1
    ca90:	05c23000 	streqb	r3, [r2]
    ca94:	17c34002 	strneb	r4, [r3, r2]
    ca98:	05c64000 	streqb	r4, [r6]
    ca9c:	11c570b0 	strneh	r7, [r5]
    caa0:	ebffde28 	bl	4348 <disableIRQ>
    caa4:	e59f201c 	ldr	r2, [pc, #28]	; cac8 <.text+0x8ac8>
    caa8:	e5d23004 	ldrb	r3, [r2, #4]
    caac:	e3833002 	orr	r3, r3, #2	; 0x2
    cab0:	e5c23004 	strb	r3, [r2, #4]
    cab4:	ebffde27 	bl	4358 <restoreIRQ>
    cab8:	e89d68f0 	ldmia	sp, {r4, r5, r6, r7, fp, sp, lr}
    cabc:	e12fff1e 	bx	lr
    cac0:	40000b98 	mulmi	r0, r8, fp
    cac4:	40000b9c 	mulmi	r0, ip, fp
    cac8:	e0010000 	and	r0, r1, r0
    cacc:	40000b96 	mulmi	r0, r6, fp
    cad0:	40000a96 	mulmi	r0, r6, sl

0000cad4 <uart1_ISR>:
    cad4:	e24ee004 	sub	lr, lr, #4	; 0x4
    cad8:	e92d5fff 	stmdb	sp!, {r0, r1, r2, r3, r4, r5, r6, r7, r8, r9, sl, fp, ip, lr}
    cadc:	e14f1000 	mrs	r1, SPSR
    cae0:	e92d0002 	stmdb	sp!, {r1}
    cae4:	e59f313c 	ldr	r3, [pc, #316]	; cc28 <.text+0x8c28>
    cae8:	e5d33008 	ldrb	r3, [r3, #8]
    caec:	e20330ff 	and	r3, r3, #255	; 0xff
    caf0:	e3130001 	tst	r3, #1	; 0x1
    caf4:	1a000045 	bne	cc10 <.text+0x8c10>
    caf8:	e203300e 	and	r3, r3, #14	; 0xe
    cafc:	e353000c 	cmp	r3, #12	; 0xc
    cb00:	979ff103 	ldrls	pc, [pc, r3, lsl #2]
    cb04:	ea00003c 	b	cbfc <.text+0x8bfc>
    cb08:	0000cbf4 	streqd	ip, [r0], -r4
    cb0c:	0000cbfc 	streqd	ip, [r0], -ip
    cb10:	0000cb98 	muleq	r0, r8, fp
    cb14:	0000cbfc 	streqd	ip, [r0], -ip
    cb18:	0000cb48 	andeq	ip, r0, r8, asr #22
    cb1c:	0000cbfc 	streqd	ip, [r0], -ip
    cb20:	0000cb3c 	andeq	ip, r0, ip, lsr fp
    cb24:	0000cbfc 	streqd	ip, [r0], -ip
    cb28:	0000cbfc 	streqd	ip, [r0], -ip
    cb2c:	0000cbfc 	streqd	ip, [r0], -ip
    cb30:	0000cbfc 	streqd	ip, [r0], -ip
    cb34:	0000cbfc 	streqd	ip, [r0], -ip
    cb38:	0000cb48 	andeq	ip, r0, r8, asr #22
    cb3c:	e59f30e4 	ldr	r3, [pc, #228]	; cc28 <.text+0x8c28>
    cb40:	e5d33014 	ldrb	r3, [r3, #20]
    cb44:	eaffffe6 	b	cae4 <uart1_ISR+0x10>
    cb48:	e59f40dc 	ldr	r4, [pc, #220]	; cc2c <.text+0x8c2c>
    cb4c:	e59f30dc 	ldr	r3, [pc, #220]	; cc30 <.text+0x8c30>
    cb50:	e1d400b0 	ldrh	r0, [r4]
    cb54:	e59fe0cc 	ldr	lr, [pc, #204]	; cc28 <.text+0x8c28>
    cb58:	e1d310b0 	ldrh	r1, [r3]
    cb5c:	e2803001 	add	r3, r0, #1	; 0x1
    cb60:	e203c07f 	and	ip, r3, #127	; 0x7f
    cb64:	e5de2000 	ldrb	r2, [lr]
    cb68:	e59f30c4 	ldr	r3, [pc, #196]	; cc34 <.text+0x8c34>
    cb6c:	e151000c 	cmp	r1, ip
    cb70:	11c4c0b0 	strneh	ip, [r4]
    cb74:	e7c32000 	strb	r2, [r3, r0]
    cb78:	e5de3014 	ldrb	r3, [lr, #20]
    cb7c:	e3130001 	tst	r3, #1	; 0x1
    cb80:	1afffff0 	bne	cb48 <.text+0x8b48>
    cb84:	eaffffd6 	b	cae4 <uart1_ISR+0x10>
    cb88:	e59f30a8 	ldr	r3, [pc, #168]	; cc38 <.text+0x8c38>
    cb8c:	e3a02000 	mov	r2, #0	; 0x0
    cb90:	e5c32000 	strb	r2, [r3]
    cb94:	eaffffd2 	b	cae4 <uart1_ISR+0x10>
    cb98:	e59f3088 	ldr	r3, [pc, #136]	; cc28 <.text+0x8c28>
    cb9c:	e5d33014 	ldrb	r3, [r3, #20]
    cba0:	e3130020 	tst	r3, #32	; 0x20
    cba4:	0affffce 	beq	cae4 <uart1_ISR+0x10>
    cba8:	e59f008c 	ldr	r0, [pc, #140]	; cc3c <.text+0x8c3c>
    cbac:	e59f208c 	ldr	r2, [pc, #140]	; cc40 <.text+0x8c40>
    cbb0:	e1d030b0 	ldrh	r3, [r0]
    cbb4:	e1d220b0 	ldrh	r2, [r2]
    cbb8:	e1520003 	cmp	r2, r3
    cbbc:	e59fe064 	ldr	lr, [pc, #100]	; cc28 <.text+0x8c28>
    cbc0:	e283c001 	add	ip, r3, #1	; 0x1
    cbc4:	e1a01003 	mov	r1, r3
    cbc8:	0affffee 	beq	cb88 <.text+0x8b88>
    cbcc:	e59f3070 	ldr	r3, [pc, #112]	; cc44 <.text+0x8c44>
    cbd0:	e7d33001 	ldrb	r3, [r3, r1]
    cbd4:	e1c0c0b0 	strh	ip, [r0]
    cbd8:	e5ce3000 	strb	r3, [lr]
    cbdc:	e5de2014 	ldrb	r2, [lr, #20]
    cbe0:	e1d030b0 	ldrh	r3, [r0]
    cbe4:	e3120020 	tst	r2, #32	; 0x20
    cbe8:	e203307f 	and	r3, r3, #127	; 0x7f
    cbec:	e1c030b0 	strh	r3, [r0]
    cbf0:	eaffffeb 	b	cba4 <.text+0x8ba4>
    cbf4:	e59f302c 	ldr	r3, [pc, #44]	; cc28 <.text+0x8c28>
    cbf8:	ea000002 	b	cc08 <.text+0x8c08>
    cbfc:	e59f3024 	ldr	r3, [pc, #36]	; cc28 <.text+0x8c28>
    cc00:	e5d32014 	ldrb	r2, [r3, #20]
    cc04:	e5d32000 	ldrb	r2, [r3]
    cc08:	e5d33018 	ldrb	r3, [r3, #24]
    cc0c:	eaffffb4 	b	cae4 <uart1_ISR+0x10>
    cc10:	e59f3030 	ldr	r3, [pc, #48]	; cc48 <.text+0x8c48>
    cc14:	e3a02000 	mov	r2, #0	; 0x0
    cc18:	e5832030 	str	r2, [r3, #48]
    cc1c:	e8bd0002 	ldmia	sp!, {r1}
    cc20:	e161f001 	msr	SPSR_c, r1
    cc24:	e8fd9fff 	ldmia	sp!, {r0, r1, r2, r3, r4, r5, r6, r7, r8, r9, sl, fp, ip, pc}^
    cc28:	e0010000 	and	r0, r1, r0
    cc2c:	40000a94 	mulmi	r0, r4, sl
    cc30:	40000b9a 	mulmi	r0, sl, fp
    cc34:	40000b16 	andmi	r0, r0, r6, lsl fp
    cc38:	40000b96 	mulmi	r0, r6, fp
    cc3c:	40000b9c 	mulmi	r0, ip, fp
    cc40:	40000b98 	mulmi	r0, r8, fp
    cc44:	40000a96 	mulmi	r0, r6, sl
    cc48:	fffff000 	swinv	0x00fff000

0000cc4c <dl_parse_msg>:
    cc4c:	e1a0c00d 	mov	ip, sp
    cc50:	e92ddff0 	stmdb	sp!, {r4, r5, r6, r7, r8, r9, sl, fp, ip, lr, pc}
    cc54:	e24cb004 	sub	fp, ip, #4	; 0x4
    cc58:	e24dd014 	sub	sp, sp, #20	; 0x14
    cc5c:	e59f5104 	ldr	r5, [pc, #260]	; cd68 <.text+0x8d68>
    cc60:	e5d53001 	ldrb	r3, [r5, #1]
    cc64:	e3530001 	cmp	r3, #1	; 0x1
    cc68:	1a000055 	bne	cdc4 <.text+0x8dc4>
    cc6c:	e5950004 	ldr	r0, [r5, #4]
    cc70:	eb002b9a 	bl	17ae0 <__floatsisf>
    cc74:	e59f1100 	ldr	r1, [pc, #256]	; cd7c <.text+0x8d7c>
    cc78:	eb002c0f 	bl	17cbc <__divsf3>
    cc7c:	e1a08000 	mov	r8, r0
    cc80:	e5950008 	ldr	r0, [r5, #8]
    cc84:	eb002b95 	bl	17ae0 <__floatsisf>
    cc88:	e59f10ec 	ldr	r1, [pc, #236]	; cd7c <.text+0x8d7c>
    cc8c:	eb002c0a 	bl	17cbc <__divsf3>
    cc90:	e1a0a000 	mov	sl, r0
    cc94:	e595000c 	ldr	r0, [r5, #12]
    cc98:	eb002b90 	bl	17ae0 <__floatsisf>
    cc9c:	e59f10d8 	ldr	r1, [pc, #216]	; cd7c <.text+0x8d7c>
    cca0:	eb002c05 	bl	17cbc <__divsf3>
    cca4:	e1a09000 	mov	r9, r0
    cca8:	e1d500f2 	ldrsh	r0, [r5, #2]
    ccac:	eb002b8b 	bl	17ae0 <__floatsisf>
    ccb0:	eb002921 	bl	1713c <__extendsfdf2>
    ccb4:	e28f2094 	add	r2, pc, #148	; 0x94
    ccb8:	e892000c 	ldmia	r2, {r2, r3}
    ccbc:	eb0029cf 	bl	17400 <__divdf3>
    ccc0:	e28f2090 	add	r2, pc, #144	; 0x90
    ccc4:	e892000c 	ldmia	r2, {r2, r3}
    ccc8:	eb0029cc 	bl	17400 <__divdf3>
    cccc:	e28f208c 	add	r2, pc, #140	; 0x8c
    ccd0:	e892000c 	ldmia	r2, {r2, r3}
    ccd4:	eb00292b 	bl	17188 <__muldf3>
    ccd8:	eb002acf 	bl	1781c <__truncdfsf2>
    ccdc:	e1d541f4 	ldrsh	r4, [r5, #20]
    cce0:	e1a07000 	mov	r7, r0
    cce4:	e1a00004 	mov	r0, r4
    cce8:	eb002b7c 	bl	17ae0 <__floatsisf>
    ccec:	e3540000 	cmp	r4, #0	; 0x0
    ccf0:	e5d54018 	ldrb	r4, [r5, #24]
    ccf4:	b59f1070 	ldrlt	r1, [pc, #112]	; cd6c <.text+0x8d6c>
    ccf8:	bb002b06 	bllt	17918 <__addsf3>
    ccfc:	e59f1078 	ldr	r1, [pc, #120]	; cd7c <.text+0x8d7c>
    cd00:	eb002bed 	bl	17cbc <__divsf3>
    cd04:	e3540017 	cmp	r4, #23	; 0x17
    cd08:	e1a06000 	mov	r6, r0
    cd0c:	8a000234 	bhi	d5e4 <.text+0x95e4>
    cd10:	e59f1058 	ldr	r1, [pc, #88]	; cd70 <.text+0x8d70>
    cd14:	e1a00008 	mov	r0, r8
    cd18:	eb002afd 	bl	17914 <__subsf3>
    cd1c:	e59f5050 	ldr	r5, [pc, #80]	; cd74 <.text+0x8d74>
    cd20:	e0844104 	add	r4, r4, r4, lsl #2
    cd24:	e1a04104 	mov	r4, r4, lsl #2
    cd28:	e7840005 	str	r0, [r4, r5]
    cd2c:	e59f1044 	ldr	r1, [pc, #68]	; cd78 <.text+0x8d78>
    cd30:	e1a0000a 	mov	r0, sl
    cd34:	eb002af6 	bl	17914 <__subsf3>
    cd38:	e0844005 	add	r4, r4, r5
    cd3c:	e5846010 	str	r6, [r4, #16]
    cd40:	e5840004 	str	r0, [r4, #4]
    cd44:	e5847008 	str	r7, [r4, #8]
    cd48:	e584900c 	str	r9, [r4, #12]
    cd4c:	ea000224 	b	d5e4 <.text+0x95e4>
    cd50:	40240000 	eormi	r0, r4, r0
    cd54:	00000000 	andeq	r0, r0, r0
    cd58:	40668000 	rsbmi	r8, r6, r0
    cd5c:	00000000 	andeq	r0, r0, r0
    cd60:	400921fb 	strmid	r2, [r9], -fp
    cd64:	54442d18 	strplb	r2, [r4], #-3352
    cd68:	40000ba4 	andmi	r0, r0, r4, lsr #23
    cd6c:	47800000 	strmi	r0, [r0, r0]
    cd70:	48afeba0 	stmmiia	pc!, {r5, r7, r8, r9, fp, sp, lr, pc}
    cd74:	40000830 	andmi	r0, r0, r0, lsr r8
    cd78:	4a92e636 	bmi	fe4c6658 <_end+0xbe4c4458>
    cd7c:	42c80000 	sbcmi	r0, r8, #0	; 0x0
    cd80:	00018090 	muleq	r1, r0, r0
    cd84:	40000088 	andmi	r0, r0, r8, lsl #1
    cd88:	40000034 	andmi	r0, r0, r4, lsr r0
    cd8c:	40000084 	andmi	r0, r0, r4, lsl #1
    cd90:	40001048 	andmi	r1, r0, r8, asr #32
    cd94:	4000106c 	andmi	r1, r0, ip, rrx
    cd98:	400004f0 	strmid	r0, [r0], -r0
    cd9c:	400010dc 	ldrmid	r1, [r0], -ip
    cda0:	40000003 	andmi	r0, r0, r3
    cda4:	400004b5 	strmih	r0, [r0], -r5
    cda8:	400004b6 	strmih	r0, [r0], -r6
    cdac:	40000d2c 	andmi	r0, r0, ip, lsr #26
    cdb0:	40000d2d 	andmi	r0, r0, sp, lsr #26
    cdb4:	40000d2b 	andmi	r0, r0, fp, lsr #26
    cdb8:	40000d27 	andmi	r0, r0, r7, lsr #26
    cdbc:	40000c24 	andmi	r0, r0, r4, lsr #24
    cdc0:	40000a93 	mulmi	r0, r3, sl
    cdc4:	e3530002 	cmp	r3, #2	; 0x2
    cdc8:	1a000138 	bne	d2b0 <.text+0x92b0>
    cdcc:	e5d53002 	ldrb	r3, [r5, #2]
    cdd0:	e5950004 	ldr	r0, [r5, #4]
    cdd4:	e54b3029 	strb	r3, [fp, #-41]
    cdd8:	eb002b40 	bl	17ae0 <__floatsisf>
    cddc:	e51f1068 	ldr	r1, [pc, #-104]	; cd7c <.text+0x8d7c>
    cde0:	eb002bb5 	bl	17cbc <__divsf3>
    cde4:	e1a06000 	mov	r6, r0
    cde8:	e5950008 	ldr	r0, [r5, #8]
    cdec:	e50b6030 	str	r6, [fp, #-48]
    cdf0:	eb002b3a 	bl	17ae0 <__floatsisf>
    cdf4:	e51f1080 	ldr	r1, [pc, #-128]	; cd7c <.text+0x8d7c>
    cdf8:	eb002baf 	bl	17cbc <__divsf3>
    cdfc:	e1a08000 	mov	r8, r0
    ce00:	e595000c 	ldr	r0, [r5, #12]
    ce04:	e50b8034 	str	r8, [fp, #-52]
    ce08:	eb002b34 	bl	17ae0 <__floatsisf>
    ce0c:	e51f1098 	ldr	r1, [pc, #-152]	; cd7c <.text+0x8d7c>
    ce10:	eb002ba9 	bl	17cbc <__divsf3>
    ce14:	e51f309c 	ldr	r3, [pc, #-156]	; cd80 <.text+0x8d80>
    ce18:	e55ba029 	ldrb	sl, [fp, #-41]
    ce1c:	e5d33000 	ldrb	r3, [r3]
    ce20:	e20a20ff 	and	r2, sl, #255	; 0xff
    ce24:	e1520003 	cmp	r2, r3
    ce28:	e1a07000 	mov	r7, r0
    ce2c:	e50b0038 	str	r0, [fp, #-56]
    ce30:	2a000012 	bcs	ce80 <.text+0x8e80>
    ce34:	e51f30b8 	ldr	r3, [pc, #-184]	; cd84 <.text+0x8d84>
    ce38:	e5930000 	ldr	r0, [r3]
    ce3c:	e0824082 	add	r4, r2, r2, lsl #1
    ce40:	eb002b26 	bl	17ae0 <__floatsisf>
    ce44:	e1a01000 	mov	r1, r0
    ce48:	e1a00006 	mov	r0, r6
    ce4c:	eb002ab0 	bl	17914 <__subsf3>
    ce50:	e51f50d0 	ldr	r5, [pc, #-208]	; cd88 <.text+0x8d88>
    ce54:	e51f30d0 	ldr	r3, [pc, #-208]	; cd8c <.text+0x8d8c>
    ce58:	e1a04104 	mov	r4, r4, lsl #2
    ce5c:	e7840005 	str	r0, [r4, r5]
    ce60:	e5930000 	ldr	r0, [r3]
    ce64:	eb002b1d 	bl	17ae0 <__floatsisf>
    ce68:	e1a01000 	mov	r1, r0
    ce6c:	e1a00008 	mov	r0, r8
    ce70:	eb002aa7 	bl	17914 <__subsf3>
    ce74:	e0844005 	add	r4, r4, r5
    ce78:	e5847008 	str	r7, [r4, #8]
    ce7c:	e5840004 	str	r0, [r4, #4]
    ce80:	e51f10dc 	ldr	r1, [pc, #-220]	; cdac <.text+0x8dac>
    ce84:	e51f00d8 	ldr	r0, [pc, #-216]	; cdb4 <.text+0x8db4>
    ce88:	e5d13000 	ldrb	r3, [r1]
    ce8c:	e5d02000 	ldrb	r2, [r0]
    ce90:	e1520003 	cmp	r2, r3
    ce94:	25d13000 	ldrcsb	r3, [r1]
    ce98:	35d13000 	ldrccb	r3, [r1]
    ce9c:	20633002 	rsbcs	r3, r3, r2
    cea0:	226330ff 	rsbcs	r3, r3, #255	; 0xff
    cea4:	30623003 	rsbcc	r3, r2, r3
    cea8:	e3530013 	cmp	r3, #19	; 0x13
    ceac:	da0001c8 	ble	d5d4 <.text+0x95d4>
    ceb0:	e5d02000 	ldrb	r2, [r0]
    ceb4:	e2823001 	add	r3, r2, #1	; 0x1
    ceb8:	e5c03000 	strb	r3, [r0]
    cebc:	e5d03000 	ldrb	r3, [r0]
    cec0:	e51f6118 	ldr	r6, [pc, #-280]	; cdb0 <.text+0x8db0>
    cec4:	e35300ff 	cmp	r3, #255	; 0xff
    cec8:	e3e03066 	mvn	r3, #102	; 0x66
    cecc:	e7c63002 	strb	r3, [r6, r2]
    ced0:	02833067 	addeq	r3, r3, #103	; 0x67
    ced4:	e51fc128 	ldr	ip, [pc, #-296]	; cdb4 <.text+0x8db4>
    ced8:	05c03000 	streqb	r3, [r0]
    cedc:	e5dc2000 	ldrb	r2, [ip]
    cee0:	e2823001 	add	r3, r2, #1	; 0x1
    cee4:	e5cc3000 	strb	r3, [ip]
    cee8:	e5dc3000 	ldrb	r3, [ip]
    ceec:	e35300ff 	cmp	r3, #255	; 0xff
    cef0:	e3a03013 	mov	r3, #19	; 0x13
    cef4:	e7c63002 	strb	r3, [r6, r2]
    cef8:	02433013 	subeq	r3, r3, #19	; 0x13
    cefc:	05cc3000 	streqb	r3, [ip]
    cf00:	e5dc2000 	ldrb	r2, [ip]
    cf04:	e2823001 	add	r3, r2, #1	; 0x1
    cf08:	e5cc3000 	strb	r3, [ip]
    cf0c:	e5dc3000 	ldrb	r3, [ip]
    cf10:	e51fe160 	ldr	lr, [pc, #-352]	; cdb8 <.text+0x8db8>
    cf14:	e51f4160 	ldr	r4, [pc, #-352]	; cdbc <.text+0x8dbc>
    cf18:	e35300ff 	cmp	r3, #255	; 0xff
    cf1c:	e3a0301a 	mov	r3, #26	; 0x1a
    cf20:	e5ce3000 	strb	r3, [lr]
    cf24:	e2833013 	add	r3, r3, #19	; 0x13
    cf28:	e5c43000 	strb	r3, [r4]
    cf2c:	e2433026 	sub	r3, r3, #38	; 0x26
    cf30:	e7c63002 	strb	r3, [r6, r2]
    cf34:	02433007 	subeq	r3, r3, #7	; 0x7
    cf38:	05cc3000 	streqb	r3, [ip]
    cf3c:	e5dc2000 	ldrb	r2, [ip]
    cf40:	e2823001 	add	r3, r2, #1	; 0x1
    cf44:	e5cc3000 	strb	r3, [ip]
    cf48:	e5dc3000 	ldrb	r3, [ip]
    cf4c:	e35300ff 	cmp	r3, #255	; 0xff
    cf50:	e3a0303d 	mov	r3, #61	; 0x3d
    cf54:	e5ce3000 	strb	r3, [lr]
    cf58:	e283302d 	add	r3, r3, #45	; 0x2d
    cf5c:	e5c43000 	strb	r3, [r4]
    cf60:	e2433047 	sub	r3, r3, #71	; 0x47
    cf64:	e7c63002 	strb	r3, [r6, r2]
    cf68:	02433023 	subeq	r3, r3, #35	; 0x23
    cf6c:	05cc3000 	streqb	r3, [ip]
    cf70:	e5dc0000 	ldrb	r0, [ip]
    cf74:	e20a10ff 	and	r1, sl, #255	; 0xff
    cf78:	e2802001 	add	r2, r0, #1	; 0x1
    cf7c:	e281303d 	add	r3, r1, #61	; 0x3d
    cf80:	e5cc2000 	strb	r2, [ip]
    cf84:	e5ce3000 	strb	r3, [lr]
    cf88:	e5dc3000 	ldrb	r3, [ip]
    cf8c:	e5de5000 	ldrb	r5, [lr]
    cf90:	e35300ff 	cmp	r3, #255	; 0xff
    cf94:	e285306a 	add	r3, r5, #106	; 0x6a
    cf98:	e5c43000 	strb	r3, [r4]
    cf9c:	03a03000 	moveq	r3, #0	; 0x0
    cfa0:	05cc3000 	streqb	r3, [ip]
    cfa4:	e7c61000 	strb	r1, [r6, r0]
    cfa8:	e5dc0000 	ldrb	r0, [ip]
    cfac:	e55b1030 	ldrb	r1, [fp, #-48]
    cfb0:	e2802001 	add	r2, r0, #1	; 0x1
    cfb4:	e0813005 	add	r3, r1, r5
    cfb8:	e5ce3000 	strb	r3, [lr]
    cfbc:	e5cc2000 	strb	r2, [ip]
    cfc0:	e5dc3000 	ldrb	r3, [ip]
    cfc4:	e35300ff 	cmp	r3, #255	; 0xff
    cfc8:	e5de5000 	ldrb	r5, [lr]
    cfcc:	e5d42000 	ldrb	r2, [r4]
    cfd0:	024330ff 	subeq	r3, r3, #255	; 0xff
    cfd4:	05cc3000 	streqb	r3, [ip]
    cfd8:	e0822005 	add	r2, r2, r5
    cfdc:	e5c42000 	strb	r2, [r4]
    cfe0:	e7c61000 	strb	r1, [r6, r0]
    cfe4:	e5dc0000 	ldrb	r0, [ip]
    cfe8:	e55b102f 	ldrb	r1, [fp, #-47]
    cfec:	e2802001 	add	r2, r0, #1	; 0x1
    cff0:	e5cc2000 	strb	r2, [ip]
    cff4:	e0813005 	add	r3, r1, r5
    cff8:	e5ce3000 	strb	r3, [lr]
    cffc:	e5dc3000 	ldrb	r3, [ip]
    d000:	e35300ff 	cmp	r3, #255	; 0xff
    d004:	e5de5000 	ldrb	r5, [lr]
    d008:	e5d42000 	ldrb	r2, [r4]
    d00c:	024330ff 	subeq	r3, r3, #255	; 0xff
    d010:	05cc3000 	streqb	r3, [ip]
    d014:	e0822005 	add	r2, r2, r5
    d018:	e5c42000 	strb	r2, [r4]
    d01c:	e7c61000 	strb	r1, [r6, r0]
    d020:	e5dc0000 	ldrb	r0, [ip]
    d024:	e55b102e 	ldrb	r1, [fp, #-46]
    d028:	e2802001 	add	r2, r0, #1	; 0x1
    d02c:	e5cc2000 	strb	r2, [ip]
    d030:	e0813005 	add	r3, r1, r5
    d034:	e5ce3000 	strb	r3, [lr]
    d038:	e5dc3000 	ldrb	r3, [ip]
    d03c:	e5de5000 	ldrb	r5, [lr]
    d040:	e35300ff 	cmp	r3, #255	; 0xff
    d044:	e5d42000 	ldrb	r2, [r4]
    d048:	024330ff 	subeq	r3, r3, #255	; 0xff
    d04c:	05cc3000 	streqb	r3, [ip]
    d050:	e0822005 	add	r2, r2, r5
    d054:	e5c42000 	strb	r2, [r4]
    d058:	e7c61000 	strb	r1, [r6, r0]
    d05c:	e5dc0000 	ldrb	r0, [ip]
    d060:	e55b102d 	ldrb	r1, [fp, #-45]
    d064:	e2802001 	add	r2, r0, #1	; 0x1
    d068:	e0813005 	add	r3, r1, r5
    d06c:	e5cc2000 	strb	r2, [ip]
    d070:	e5ce3000 	strb	r3, [lr]
    d074:	e5dc3000 	ldrb	r3, [ip]
    d078:	e5de5000 	ldrb	r5, [lr]
    d07c:	e5d42000 	ldrb	r2, [r4]
    d080:	e35300ff 	cmp	r3, #255	; 0xff
    d084:	e0822005 	add	r2, r2, r5
    d088:	024330ff 	subeq	r3, r3, #255	; 0xff
    d08c:	e5c42000 	strb	r2, [r4]
    d090:	05cc3000 	streqb	r3, [ip]
    d094:	e7c61000 	strb	r1, [r6, r0]
    d098:	e5dc0000 	ldrb	r0, [ip]
    d09c:	e55b1034 	ldrb	r1, [fp, #-52]
    d0a0:	e2802001 	add	r2, r0, #1	; 0x1
    d0a4:	e5cc2000 	strb	r2, [ip]
    d0a8:	e0813005 	add	r3, r1, r5
    d0ac:	e5ce3000 	strb	r3, [lr]
    d0b0:	e5dc3000 	ldrb	r3, [ip]
    d0b4:	e35300ff 	cmp	r3, #255	; 0xff
    d0b8:	e5de5000 	ldrb	r5, [lr]
    d0bc:	e5d42000 	ldrb	r2, [r4]
    d0c0:	024330ff 	subeq	r3, r3, #255	; 0xff
    d0c4:	05cc3000 	streqb	r3, [ip]
    d0c8:	e0822005 	add	r2, r2, r5
    d0cc:	e5c42000 	strb	r2, [r4]
    d0d0:	e7c61000 	strb	r1, [r6, r0]
    d0d4:	e5dc0000 	ldrb	r0, [ip]
    d0d8:	e55b1033 	ldrb	r1, [fp, #-51]
    d0dc:	e2802001 	add	r2, r0, #1	; 0x1
    d0e0:	e5cc2000 	strb	r2, [ip]
    d0e4:	e0813005 	add	r3, r1, r5
    d0e8:	e5ce3000 	strb	r3, [lr]
    d0ec:	e5dc3000 	ldrb	r3, [ip]
    d0f0:	e5de5000 	ldrb	r5, [lr]
    d0f4:	e5d42000 	ldrb	r2, [r4]
    d0f8:	e35300ff 	cmp	r3, #255	; 0xff
    d0fc:	024330ff 	subeq	r3, r3, #255	; 0xff
    d100:	05cc3000 	streqb	r3, [ip]
    d104:	e0822005 	add	r2, r2, r5
    d108:	e5c42000 	strb	r2, [r4]
    d10c:	e7c61000 	strb	r1, [r6, r0]
    d110:	e5dc0000 	ldrb	r0, [ip]
    d114:	e55b1032 	ldrb	r1, [fp, #-50]
    d118:	e2802001 	add	r2, r0, #1	; 0x1
    d11c:	e5cc2000 	strb	r2, [ip]
    d120:	e0813005 	add	r3, r1, r5
    d124:	e5ce3000 	strb	r3, [lr]
    d128:	e5dc3000 	ldrb	r3, [ip]
    d12c:	e5de5000 	ldrb	r5, [lr]
    d130:	e5d42000 	ldrb	r2, [r4]
    d134:	e35300ff 	cmp	r3, #255	; 0xff
    d138:	e0822005 	add	r2, r2, r5
    d13c:	024330ff 	subeq	r3, r3, #255	; 0xff
    d140:	05cc3000 	streqb	r3, [ip]
    d144:	e5c42000 	strb	r2, [r4]
    d148:	e7c61000 	strb	r1, [r6, r0]
    d14c:	e5dc0000 	ldrb	r0, [ip]
    d150:	e55b1031 	ldrb	r1, [fp, #-49]
    d154:	e2802001 	add	r2, r0, #1	; 0x1
    d158:	e0813005 	add	r3, r1, r5
    d15c:	e5ce3000 	strb	r3, [lr]
    d160:	e5cc2000 	strb	r2, [ip]
    d164:	e5dc3000 	ldrb	r3, [ip]
    d168:	e35300ff 	cmp	r3, #255	; 0xff
    d16c:	e5de5000 	ldrb	r5, [lr]
    d170:	e5d42000 	ldrb	r2, [r4]
    d174:	024330ff 	subeq	r3, r3, #255	; 0xff
    d178:	05cc3000 	streqb	r3, [ip]
    d17c:	e0822005 	add	r2, r2, r5
    d180:	e5c42000 	strb	r2, [r4]
    d184:	e7c61000 	strb	r1, [r6, r0]
    d188:	e5dc0000 	ldrb	r0, [ip]
    d18c:	e55b1038 	ldrb	r1, [fp, #-56]
    d190:	e2802001 	add	r2, r0, #1	; 0x1
    d194:	e5cc2000 	strb	r2, [ip]
    d198:	e0813005 	add	r3, r1, r5
    d19c:	e5ce3000 	strb	r3, [lr]
    d1a0:	e5dc3000 	ldrb	r3, [ip]
    d1a4:	e35300ff 	cmp	r3, #255	; 0xff
    d1a8:	e5de5000 	ldrb	r5, [lr]
    d1ac:	e5d42000 	ldrb	r2, [r4]
    d1b0:	024330ff 	subeq	r3, r3, #255	; 0xff
    d1b4:	05cc3000 	streqb	r3, [ip]
    d1b8:	e0822005 	add	r2, r2, r5
    d1bc:	e5c42000 	strb	r2, [r4]
    d1c0:	e7c61000 	strb	r1, [r6, r0]
    d1c4:	e5dc0000 	ldrb	r0, [ip]
    d1c8:	e55b1037 	ldrb	r1, [fp, #-55]
    d1cc:	e2802001 	add	r2, r0, #1	; 0x1
    d1d0:	e5cc2000 	strb	r2, [ip]
    d1d4:	e0813005 	add	r3, r1, r5
    d1d8:	e5ce3000 	strb	r3, [lr]
    d1dc:	e5dc3000 	ldrb	r3, [ip]
    d1e0:	e5de5000 	ldrb	r5, [lr]
    d1e4:	e35300ff 	cmp	r3, #255	; 0xff
    d1e8:	e5d42000 	ldrb	r2, [r4]
    d1ec:	024330ff 	subeq	r3, r3, #255	; 0xff
    d1f0:	05cc3000 	streqb	r3, [ip]
    d1f4:	e0822005 	add	r2, r2, r5
    d1f8:	e5c42000 	strb	r2, [r4]
    d1fc:	e7c61000 	strb	r1, [r6, r0]
    d200:	e5dc0000 	ldrb	r0, [ip]
    d204:	e55b1036 	ldrb	r1, [fp, #-54]
    d208:	e2802001 	add	r2, r0, #1	; 0x1
    d20c:	e0813005 	add	r3, r1, r5
    d210:	e5cc2000 	strb	r2, [ip]
    d214:	e5ce3000 	strb	r3, [lr]
    d218:	e5dc3000 	ldrb	r3, [ip]
    d21c:	e5de5000 	ldrb	r5, [lr]
    d220:	e5d42000 	ldrb	r2, [r4]
    d224:	e35300ff 	cmp	r3, #255	; 0xff
    d228:	024330ff 	subeq	r3, r3, #255	; 0xff
    d22c:	e0822005 	add	r2, r2, r5
    d230:	e5c42000 	strb	r2, [r4]
    d234:	05cc3000 	streqb	r3, [ip]
    d238:	e7c61000 	strb	r1, [r6, r0]
    d23c:	e5dc0000 	ldrb	r0, [ip]
    d240:	e55b1035 	ldrb	r1, [fp, #-53]
    d244:	e2802001 	add	r2, r0, #1	; 0x1
    d248:	e0813005 	add	r3, r1, r5
    d24c:	e5cc2000 	strb	r2, [ip]
    d250:	e5ce3000 	strb	r3, [lr]
    d254:	e5dc2000 	ldrb	r2, [ip]
    d258:	e5dee000 	ldrb	lr, [lr]
    d25c:	e5d43000 	ldrb	r3, [r4]
    d260:	e35200ff 	cmp	r2, #255	; 0xff
    d264:	e083300e 	add	r3, r3, lr
    d268:	e5c43000 	strb	r3, [r4]
    d26c:	03a03000 	moveq	r3, #0	; 0x0
    d270:	05cc3000 	streqb	r3, [ip]
    d274:	e5dc3000 	ldrb	r3, [ip]
    d278:	e2832001 	add	r2, r3, #1	; 0x1
    d27c:	e5cc2000 	strb	r2, [ip]
    d280:	e5dc2000 	ldrb	r2, [ip]
    d284:	e35200ff 	cmp	r2, #255	; 0xff
    d288:	e7c61000 	strb	r1, [r6, r0]
    d28c:	e7c6e003 	strb	lr, [r6, r3]
    d290:	03a03000 	moveq	r3, #0	; 0x0
    d294:	05cc3000 	streqb	r3, [ip]
    d298:	e5dc1000 	ldrb	r1, [ip]
    d29c:	e2813001 	add	r3, r1, #1	; 0x1
    d2a0:	e5cc3000 	strb	r3, [ip]
    d2a4:	e5d42000 	ldrb	r2, [r4]
    d2a8:	e5dc3000 	ldrb	r3, [ip]
    d2ac:	ea0000c3 	b	d5c0 <.text+0x95c0>
    d2b0:	e3530005 	cmp	r3, #5	; 0x5
    d2b4:	1a000002 	bne	d2c4 <.text+0x92c4>
    d2b8:	e5d50002 	ldrb	r0, [r5, #2]
    d2bc:	eb001413 	bl	12310 <nav_goto_block>
    d2c0:	ea0000c7 	b	d5e4 <.text+0x95e4>
    d2c4:	e3530003 	cmp	r3, #3	; 0x3
    d2c8:	1a000006 	bne	d2e8 <.text+0x92e8>
    d2cc:	e5952004 	ldr	r2, [r5, #4]
    d2d0:	e51f3548 	ldr	r3, [pc, #-1352]	; cd90 <.text+0x8d90>
    d2d4:	e5951008 	ldr	r1, [r5, #8]
    d2d8:	e5832000 	str	r2, [r3]
    d2dc:	e51f3550 	ldr	r3, [pc, #-1360]	; cd94 <.text+0x8d94>
    d2e0:	e5831000 	str	r1, [r3]
    d2e4:	ea0000be 	b	d5e4 <.text+0x95e4>
    d2e8:	e3530008 	cmp	r3, #8	; 0x8
    d2ec:	05d52002 	ldreqb	r2, [r5, #2]
    d2f0:	051f3560 	ldreq	r3, [pc, #-1376]	; cd98 <.text+0x8d98>
    d2f4:	05c32000 	streqb	r2, [r3]
    d2f8:	0a0000b9 	beq	d5e4 <.text+0x95e4>
    d2fc:	e3530004 	cmp	r3, #4	; 0x4
    d300:	1a0000b7 	bne	d5e4 <.text+0x95e4>
    d304:	e5d53002 	ldrb	r3, [r5, #2]
    d308:	e54b302a 	strb	r3, [fp, #-42]
    d30c:	e5953004 	ldr	r3, [r5, #4]
    d310:	e55b702a 	ldrb	r7, [fp, #-42]
    d314:	e50b303c 	str	r3, [fp, #-60]
    d318:	e3570003 	cmp	r7, #3	; 0x3
    d31c:	979ff107 	ldrls	pc, [pc, r7, lsl #2]
    d320:	ea000013 	b	d374 <.text+0x9374>
    d324:	0000d334 	andeq	sp, r0, r4, lsr r3
    d328:	0000d344 	andeq	sp, r0, r4, asr #6
    d32c:	0000d354 	andeq	sp, r0, r4, asr r3
    d330:	0000d364 	andeq	sp, r0, r4, ror #6
    d334:	e51b203c 	ldr	r2, [fp, #-60]
    d338:	e51f35a4 	ldr	r3, [pc, #-1444]	; cd9c <.text+0x8d9c>
    d33c:	e5832000 	str	r2, [r3]
    d340:	ea00000b 	b	d374 <.text+0x9374>
    d344:	e51b003c 	ldr	r0, [fp, #-60]
    d348:	eb002b04 	bl	17f60 <__fixunssfsi>
    d34c:	e51f35b4 	ldr	r3, [pc, #-1460]	; cda0 <.text+0x8da0>
    d350:	ea000006 	b	d370 <.text+0x9370>
    d354:	e51b003c 	ldr	r0, [fp, #-60]
    d358:	eb002b00 	bl	17f60 <__fixunssfsi>
    d35c:	e51f35c0 	ldr	r3, [pc, #-1472]	; cda4 <.text+0x8da4>
    d360:	ea000002 	b	d370 <.text+0x9370>
    d364:	e51b003c 	ldr	r0, [fp, #-60]
    d368:	eb002afc 	bl	17f60 <__fixunssfsi>
    d36c:	e51f35cc 	ldr	r3, [pc, #-1484]	; cda8 <.text+0x8da8>
    d370:	e5c30000 	strb	r0, [r3]
    d374:	e51f15d0 	ldr	r1, [pc, #-1488]	; cdac <.text+0x8dac>
    d378:	e51f05cc 	ldr	r0, [pc, #-1484]	; cdb4 <.text+0x8db4>
    d37c:	e5d13000 	ldrb	r3, [r1]
    d380:	e5d02000 	ldrb	r2, [r0]
    d384:	e1520003 	cmp	r2, r3
    d388:	25d13000 	ldrcsb	r3, [r1]
    d38c:	35d13000 	ldrccb	r3, [r1]
    d390:	20633002 	rsbcs	r3, r3, r2
    d394:	226330ff 	rsbcs	r3, r3, #255	; 0xff
    d398:	30623003 	rsbcc	r3, r2, r3
    d39c:	e353000b 	cmp	r3, #11	; 0xb
    d3a0:	da00008b 	ble	d5d4 <.text+0x95d4>
    d3a4:	e5d02000 	ldrb	r2, [r0]
    d3a8:	e2823001 	add	r3, r2, #1	; 0x1
    d3ac:	e5c03000 	strb	r3, [r0]
    d3b0:	e5d03000 	ldrb	r3, [r0]
    d3b4:	e51f660c 	ldr	r6, [pc, #-1548]	; cdb0 <.text+0x8db0>
    d3b8:	e35300ff 	cmp	r3, #255	; 0xff
    d3bc:	e3e03066 	mvn	r3, #102	; 0x66
    d3c0:	e7c63002 	strb	r3, [r6, r2]
    d3c4:	02833067 	addeq	r3, r3, #103	; 0x67
    d3c8:	e51fc61c 	ldr	ip, [pc, #-1564]	; cdb4 <.text+0x8db4>
    d3cc:	05c03000 	streqb	r3, [r0]
    d3d0:	e5dc2000 	ldrb	r2, [ip]
    d3d4:	e2823001 	add	r3, r2, #1	; 0x1
    d3d8:	e5cc3000 	strb	r3, [ip]
    d3dc:	e5dc3000 	ldrb	r3, [ip]
    d3e0:	e35300ff 	cmp	r3, #255	; 0xff
    d3e4:	e3a0300b 	mov	r3, #11	; 0xb
    d3e8:	e7c63002 	strb	r3, [r6, r2]
    d3ec:	0243300b 	subeq	r3, r3, #11	; 0xb
    d3f0:	05cc3000 	streqb	r3, [ip]
    d3f4:	e5dc2000 	ldrb	r2, [ip]
    d3f8:	e2823001 	add	r3, r2, #1	; 0x1
    d3fc:	e5cc3000 	strb	r3, [ip]
    d400:	e5dc3000 	ldrb	r3, [ip]
    d404:	e51f4654 	ldr	r4, [pc, #-1620]	; cdb8 <.text+0x8db8>
    d408:	e51f5654 	ldr	r5, [pc, #-1620]	; cdbc <.text+0x8dbc>
    d40c:	e35300ff 	cmp	r3, #255	; 0xff
    d410:	e3a03012 	mov	r3, #18	; 0x12
    d414:	e5c43000 	strb	r3, [r4]
    d418:	e283300b 	add	r3, r3, #11	; 0xb
    d41c:	e5c53000 	strb	r3, [r5]
    d420:	e2433016 	sub	r3, r3, #22	; 0x16
    d424:	e7c63002 	strb	r3, [r6, r2]
    d428:	02433007 	subeq	r3, r3, #7	; 0x7
    d42c:	05cc3000 	streqb	r3, [ip]
    d430:	e5dc2000 	ldrb	r2, [ip]
    d434:	e2823001 	add	r3, r2, #1	; 0x1
    d438:	e5cc3000 	strb	r3, [ip]
    d43c:	e5dc3000 	ldrb	r3, [ip]
    d440:	e35300ff 	cmp	r3, #255	; 0xff
    d444:	e3a03031 	mov	r3, #49	; 0x31
    d448:	e5c43000 	strb	r3, [r4]
    d44c:	e283301d 	add	r3, r3, #29	; 0x1d
    d450:	e5c53000 	strb	r3, [r5]
    d454:	e243302f 	sub	r3, r3, #47	; 0x2f
    d458:	e7c63002 	strb	r3, [r6, r2]
    d45c:	0243301f 	subeq	r3, r3, #31	; 0x1f
    d460:	05cc3000 	streqb	r3, [ip]
    d464:	e5dc0000 	ldrb	r0, [ip]
    d468:	e20710ff 	and	r1, r7, #255	; 0xff
    d46c:	e2802001 	add	r2, r0, #1	; 0x1
    d470:	e2813031 	add	r3, r1, #49	; 0x31
    d474:	e5cc2000 	strb	r2, [ip]
    d478:	e5c43000 	strb	r3, [r4]
    d47c:	e5dc3000 	ldrb	r3, [ip]
    d480:	e5d4e000 	ldrb	lr, [r4]
    d484:	e35300ff 	cmp	r3, #255	; 0xff
    d488:	e28e304e 	add	r3, lr, #78	; 0x4e
    d48c:	e5c53000 	strb	r3, [r5]
    d490:	03a03000 	moveq	r3, #0	; 0x0
    d494:	05cc3000 	streqb	r3, [ip]
    d498:	e7c61000 	strb	r1, [r6, r0]
    d49c:	e5dc0000 	ldrb	r0, [ip]
    d4a0:	e55b103c 	ldrb	r1, [fp, #-60]
    d4a4:	e2802001 	add	r2, r0, #1	; 0x1
    d4a8:	e081300e 	add	r3, r1, lr
    d4ac:	e5c43000 	strb	r3, [r4]
    d4b0:	e5cc2000 	strb	r2, [ip]
    d4b4:	e5dc3000 	ldrb	r3, [ip]
    d4b8:	e35300ff 	cmp	r3, #255	; 0xff
    d4bc:	e5d4e000 	ldrb	lr, [r4]
    d4c0:	e5d52000 	ldrb	r2, [r5]
    d4c4:	024330ff 	subeq	r3, r3, #255	; 0xff
    d4c8:	05cc3000 	streqb	r3, [ip]
    d4cc:	e082200e 	add	r2, r2, lr
    d4d0:	e5c52000 	strb	r2, [r5]
    d4d4:	e7c61000 	strb	r1, [r6, r0]
    d4d8:	e5dc0000 	ldrb	r0, [ip]
    d4dc:	e55b103b 	ldrb	r1, [fp, #-59]
    d4e0:	e2802001 	add	r2, r0, #1	; 0x1
    d4e4:	e5cc2000 	strb	r2, [ip]
    d4e8:	e081300e 	add	r3, r1, lr
    d4ec:	e5c43000 	strb	r3, [r4]
    d4f0:	e5dc3000 	ldrb	r3, [ip]
    d4f4:	e5d4e000 	ldrb	lr, [r4]
    d4f8:	e5d52000 	ldrb	r2, [r5]
    d4fc:	e35300ff 	cmp	r3, #255	; 0xff
    d500:	024330ff 	subeq	r3, r3, #255	; 0xff
    d504:	05cc3000 	streqb	r3, [ip]
    d508:	e082200e 	add	r2, r2, lr
    d50c:	e5c52000 	strb	r2, [r5]
    d510:	e7c61000 	strb	r1, [r6, r0]
    d514:	e5dc0000 	ldrb	r0, [ip]
    d518:	e55b103a 	ldrb	r1, [fp, #-58]
    d51c:	e2802001 	add	r2, r0, #1	; 0x1
    d520:	e5cc2000 	strb	r2, [ip]
    d524:	e081300e 	add	r3, r1, lr
    d528:	e5c43000 	strb	r3, [r4]
    d52c:	e5dc3000 	ldrb	r3, [ip]
    d530:	e5d4e000 	ldrb	lr, [r4]
    d534:	e5d52000 	ldrb	r2, [r5]
    d538:	e35300ff 	cmp	r3, #255	; 0xff
    d53c:	e082200e 	add	r2, r2, lr
    d540:	024330ff 	subeq	r3, r3, #255	; 0xff
    d544:	05cc3000 	streqb	r3, [ip]
    d548:	e5c52000 	strb	r2, [r5]
    d54c:	e7c61000 	strb	r1, [r6, r0]
    d550:	e5dc0000 	ldrb	r0, [ip]
    d554:	e55b1039 	ldrb	r1, [fp, #-57]
    d558:	e2802001 	add	r2, r0, #1	; 0x1
    d55c:	e081300e 	add	r3, r1, lr
    d560:	e5c43000 	strb	r3, [r4]
    d564:	e5cc2000 	strb	r2, [ip]
    d568:	e5d4e000 	ldrb	lr, [r4]
    d56c:	e5dc2000 	ldrb	r2, [ip]
    d570:	e5d53000 	ldrb	r3, [r5]
    d574:	e35200ff 	cmp	r2, #255	; 0xff
    d578:	e083300e 	add	r3, r3, lr
    d57c:	e5c53000 	strb	r3, [r5]
    d580:	03a03000 	moveq	r3, #0	; 0x0
    d584:	05cc3000 	streqb	r3, [ip]
    d588:	e5dc3000 	ldrb	r3, [ip]
    d58c:	e2832001 	add	r2, r3, #1	; 0x1
    d590:	e5cc2000 	strb	r2, [ip]
    d594:	e5dc2000 	ldrb	r2, [ip]
    d598:	e35200ff 	cmp	r2, #255	; 0xff
    d59c:	e7c61000 	strb	r1, [r6, r0]
    d5a0:	e7c6e003 	strb	lr, [r6, r3]
    d5a4:	03a03000 	moveq	r3, #0	; 0x0
    d5a8:	05cc3000 	streqb	r3, [ip]
    d5ac:	e5dc1000 	ldrb	r1, [ip]
    d5b0:	e2813001 	add	r3, r1, #1	; 0x1
    d5b4:	e5cc3000 	strb	r3, [ip]
    d5b8:	e5d52000 	ldrb	r2, [r5]
    d5bc:	e5dc3000 	ldrb	r3, [ip]
    d5c0:	e35300ff 	cmp	r3, #255	; 0xff
    d5c4:	024330ff 	subeq	r3, r3, #255	; 0xff
    d5c8:	e7c62001 	strb	r2, [r6, r1]
    d5cc:	05cc3000 	streqb	r3, [ip]
    d5d0:	ea000003 	b	d5e4 <.text+0x95e4>
    d5d4:	e51f281c 	ldr	r2, [pc, #-2076]	; cdc0 <.text+0x8dc0>
    d5d8:	e5d23000 	ldrb	r3, [r2]
    d5dc:	e2833001 	add	r3, r3, #1	; 0x1
    d5e0:	e5c23000 	strb	r3, [r2]
    d5e4:	e24bd028 	sub	sp, fp, #40	; 0x28
    d5e8:	e89d6ff0 	ldmia	sp, {r4, r5, r6, r7, r8, r9, sl, fp, sp, lr}
    d5ec:	e12fff1e 	bx	lr

0000d5f0 <TIMER1_ISR>:
    d5f0:	e24ee004 	sub	lr, lr, #4	; 0x4
    d5f4:	e92d5fff 	stmdb	sp!, {r0, r1, r2, r3, r4, r5, r6, r7, r8, r9, sl, fp, ip, lr}
    d5f8:	e14f1000 	mrs	r1, SPSR
    d5fc:	e92d0002 	stmdb	sp!, {r1}
    d600:	e59f0120 	ldr	r0, [pc, #288]	; d728 <.text+0x9728>
    d604:	e59f6120 	ldr	r6, [pc, #288]	; d72c <.text+0x972c>
    d608:	e59f5120 	ldr	r5, [pc, #288]	; d730 <.text+0x9730>
    d60c:	e5d02000 	ldrb	r2, [r0]
    d610:	e5d64000 	ldrb	r4, [r6]
    d614:	e5d5c000 	ldrb	ip, [r5]
    d618:	e2823001 	add	r3, r2, #1	; 0x1
    d61c:	e08c1084 	add	r1, ip, r4, lsl #1
    d620:	e5c03000 	strb	r3, [r0]
    d624:	e0822101 	add	r2, r2, r1, lsl #2
    d628:	e59f3104 	ldr	r3, [pc, #260]	; d734 <.text+0x9734>
    d62c:	e1a02082 	mov	r2, r2, lsl #1
    d630:	e19220b3 	ldrh	r2, [r2, r3]
    d634:	e5d03000 	ldrb	r3, [r0]
    d638:	e3530004 	cmp	r3, #4	; 0x4
    d63c:	e59f30f4 	ldr	r3, [pc, #244]	; d738 <.text+0x9738>
    d640:	e1a02302 	mov	r2, r2, lsl #6
    d644:	e5832000 	str	r2, [r3]
    d648:	1a00002d 	bne	d704 <TIMER1_ISR+0x114>
    d64c:	e59fe0e8 	ldr	lr, [pc, #232]	; d73c <.text+0x973c>
    d650:	e5de1000 	ldrb	r1, [lr]
    d654:	e02c2004 	eor	r2, ip, r4
    d658:	e3510000 	cmp	r1, #0	; 0x0
    d65c:	e3a03000 	mov	r3, #0	; 0x0
    d660:	e5c03000 	strb	r3, [r0]
    d664:	e5c52000 	strb	r2, [r5]
    d668:	e1a04006 	mov	r4, r6
    d66c:	01a0c001 	moveq	ip, r1
    d670:	0a000006 	beq	d690 <TIMER1_ISR+0xa0>
    d674:	e3510008 	cmp	r1, #8	; 0x8
    d678:	959f30c0 	ldrls	r3, [pc, #192]	; d740 <.text+0x9740>
    d67c:	95d32000 	ldrlsb	r2, [r3]
    d680:	91a010a2 	movls	r1, r2, lsr #1
    d684:	95c31000 	strlsb	r1, [r3]
    d688:	9202c001 	andls	ip, r2, #1	; 0x1
    d68c:	83a0c001 	movhi	ip, #1	; 0x1
    d690:	e5de3000 	ldrb	r3, [lr]
    d694:	e2833001 	add	r3, r3, #1	; 0x1
    d698:	e5ce3000 	strb	r3, [lr]
    d69c:	e5de1000 	ldrb	r1, [lr]
    d6a0:	e3510009 	cmp	r1, #9	; 0x9
    d6a4:	9a000015 	bls	d700 <TIMER1_ISR+0x110>
    d6a8:	e59f3094 	ldr	r3, [pc, #148]	; d744 <.text+0x9744>
    d6ac:	e59f0094 	ldr	r0, [pc, #148]	; d748 <.text+0x9748>
    d6b0:	e5d32000 	ldrb	r2, [r3]
    d6b4:	e5d03000 	ldrb	r3, [r0]
    d6b8:	e1520003 	cmp	r2, r3
    d6bc:	02413001 	subeq	r3, r1, #1	; 0x1
    d6c0:	05ce3000 	streqb	r3, [lr]
    d6c4:	0a00000d 	beq	d700 <TIMER1_ISR+0x110>
    d6c8:	e5d01000 	ldrb	r1, [r0]
    d6cc:	e5d03000 	ldrb	r3, [r0]
    d6d0:	e2833001 	add	r3, r3, #1	; 0x1
    d6d4:	e5c03000 	strb	r3, [r0]
    d6d8:	e59f306c 	ldr	r3, [pc, #108]	; d74c <.text+0x974c>
    d6dc:	e7d31001 	ldrb	r1, [r3, r1]
    d6e0:	e59f3058 	ldr	r3, [pc, #88]	; d740 <.text+0x9740>
    d6e4:	e5d02000 	ldrb	r2, [r0]
    d6e8:	e5c31000 	strb	r1, [r3]
    d6ec:	e59f3048 	ldr	r3, [pc, #72]	; d73c <.text+0x973c>
    d6f0:	e35200ff 	cmp	r2, #255	; 0xff
    d6f4:	e3a02000 	mov	r2, #0	; 0x0
    d6f8:	e5c32000 	strb	r2, [r3]
    d6fc:	05c02000 	streqb	r2, [r0]
    d700:	e5c4c000 	strb	ip, [r4]
    d704:	e59f3044 	ldr	r3, [pc, #68]	; d750 <.text+0x9750>
    d708:	e3a02001 	mov	r2, #1	; 0x1
    d70c:	e5832000 	str	r2, [r3]
    d710:	e59f303c 	ldr	r3, [pc, #60]	; d754 <.text+0x9754>
    d714:	e2422001 	sub	r2, r2, #1	; 0x1
    d718:	e5832030 	str	r2, [r3, #48]
    d71c:	e8bd0002 	ldmia	sp!, {r1}
    d720:	e161f001 	msr	SPSR_c, r1
    d724:	e8fd9fff 	ldmia	sp!, {r0, r1, r2, r3, r4, r5, r6, r7, r8, r9, sl, fp, ip, pc}^
    d728:	400004f9 	strmid	r0, [r0], -r9
    d72c:	400004fb 	strmid	r0, [r0], -fp
    d730:	400004fa 	strmid	r0, [r0], -sl
    d734:	0001805e 	andeq	r8, r1, lr, asr r0
    d738:	e006c000 	and	ip, r6, r0
    d73c:	40000e2c 	andmi	r0, r0, ip, lsr #28
    d740:	40000d2a 	andmi	r0, r0, sl, lsr #26
    d744:	40000d2b 	andmi	r0, r0, fp, lsr #26
    d748:	40000d2c 	andmi	r0, r0, ip, lsr #26
    d74c:	40000d2d 	andmi	r0, r0, sp, lsr #26
    d750:	e0008000 	and	r8, r0, r0
    d754:	fffff000 	swinv	0x00fff000

0000d758 <adc_buf_channel>:
    d758:	e59f300c 	ldr	r3, [pc, #12]	; d76c <.text+0x976c>
    d75c:	e20000ff 	and	r0, r0, #255	; 0xff
    d760:	e7831100 	str	r1, [r3, r0, lsl #2]
    d764:	e5c12043 	strb	r2, [r1, #67]
    d768:	e12fff1e 	bx	lr
    d76c:	40000520 	andmi	r0, r0, r0, lsr #10

0000d770 <adc_init>:
    d770:	e59f2080 	ldr	r2, [pc, #128]	; d7f8 <.text+0x97f8>
    d774:	e5923000 	ldr	r3, [r2]
    d778:	e38334cf 	orr	r3, r3, #-822083584	; 0xcf000000
    d77c:	e5823000 	str	r3, [r2]
    d780:	e5923004 	ldr	r3, [r2, #4]
    d784:	e3833305 	orr	r3, r3, #335544320	; 0x14000000
    d788:	e3833b02 	orr	r3, r3, #2048	; 0x800
    d78c:	e5823004 	str	r3, [r2, #4]
    d790:	e59f2064 	ldr	r2, [pc, #100]	; d7fc <.text+0x97fc>
    d794:	e59f3064 	ldr	r3, [pc, #100]	; d800 <.text+0x9800>
    d798:	e5832000 	str	r2, [r3]
    d79c:	e59f2060 	ldr	r2, [pc, #96]	; d804 <.text+0x9804>
    d7a0:	e592300c 	ldr	r3, [r2, #12]
    d7a4:	e3c33701 	bic	r3, r3, #262144	; 0x40000
    d7a8:	e582300c 	str	r3, [r2, #12]
    d7ac:	e3a03701 	mov	r3, #262144	; 0x40000
    d7b0:	e5823010 	str	r3, [r2, #16]
    d7b4:	e3a03032 	mov	r3, #50	; 0x32
    d7b8:	e582320c 	str	r3, [r2, #524]
    d7bc:	e59f3044 	ldr	r3, [pc, #68]	; d808 <.text+0x9808>
    d7c0:	e59f1044 	ldr	r1, [pc, #68]	; d80c <.text+0x980c>
    d7c4:	e582310c 	str	r3, [r2, #268]
    d7c8:	e59f3040 	ldr	r3, [pc, #64]	; d810 <.text+0x9810>
    d7cc:	e5831000 	str	r1, [r3]
    d7d0:	e592300c 	ldr	r3, [r2, #12]
    d7d4:	e3c33602 	bic	r3, r3, #2097152	; 0x200000
    d7d8:	e582300c 	str	r3, [r2, #12]
    d7dc:	e3a03602 	mov	r3, #2097152	; 0x200000
    d7e0:	e5823010 	str	r3, [r2, #16]
    d7e4:	e3a03035 	mov	r3, #53	; 0x35
    d7e8:	e5823210 	str	r3, [r2, #528]
    d7ec:	e59f3020 	ldr	r3, [pc, #32]	; d814 <.text+0x9814>
    d7f0:	e5823110 	str	r3, [r2, #272]
    d7f4:	e12fff1e 	bx	lr
    d7f8:	e002c000 	and	ip, r2, r0
    d7fc:	0021ff0c 	eoreq	pc, r1, ip, lsl #30
    d800:	e0034000 	and	r4, r3, r0
    d804:	fffff000 	swinv	0x00fff000
    d808:	0000d818 	andeq	sp, r0, r8, lsl r8
    d80c:	0021ff78 	eoreq	pc, r1, r8, ror pc
    d810:	e0060000 	and	r0, r6, r0
    d814:	0000d8c4 	andeq	sp, r0, r4, asr #17

0000d818 <adcISR0>:
    d818:	e24ee004 	sub	lr, lr, #4	; 0x4
    d81c:	e92d5fff 	stmdb	sp!, {r0, r1, r2, r3, r4, r5, r6, r7, r8, r9, sl, fp, ip, lr}
    d820:	e14f1000 	mrs	r1, SPSR
    d824:	e92d0002 	stmdb	sp!, {r1}
    d828:	e59f3084 	ldr	r3, [pc, #132]	; d8b4 <.text+0x98b4>
    d82c:	e5932004 	ldr	r2, [r3, #4]
    d830:	e59f3080 	ldr	r3, [pc, #128]	; d8b8 <.text+0x98b8>
    d834:	e1a01c22 	mov	r1, r2, lsr #24
    d838:	e2011007 	and	r1, r1, #7	; 0x7
    d83c:	e793c101 	ldr	ip, [r3, r1, lsl #2]
    d840:	e1a02802 	mov	r2, r2, lsl #16
    d844:	e59f3070 	ldr	r3, [pc, #112]	; d8bc <.text+0x98bc>
    d848:	e1a0eb22 	mov	lr, r2, lsr #22
    d84c:	e1a01081 	mov	r1, r1, lsl #1
    d850:	e35c0000 	cmp	ip, #0	; 0x0
    d854:	e181e0b3 	strh	lr, [r1, r3]
    d858:	0a00000f 	beq	d89c <adcISR0+0x84>
    d85c:	e5dc2042 	ldrb	r2, [ip, #66]
    d860:	e5dc3043 	ldrb	r3, [ip, #67]
    d864:	e2822001 	add	r2, r2, #1	; 0x1
    d868:	e20220ff 	and	r2, r2, #255	; 0xff
    d86c:	e1530002 	cmp	r3, r2
    d870:	93a02000 	movls	r2, #0	; 0x0
    d874:	e08c0082 	add	r0, ip, r2, lsl #1
    d878:	e1dc30b0 	ldrh	r3, [ip]
    d87c:	e1d010b2 	ldrh	r1, [r0, #2]
    d880:	e0613003 	rsb	r3, r1, r3
    d884:	e1cc30b0 	strh	r3, [ip]
    d888:	e1dc30b0 	ldrh	r3, [ip]
    d88c:	e08e3003 	add	r3, lr, r3
    d890:	e5cc2042 	strb	r2, [ip, #66]
    d894:	e1c0e0b2 	strh	lr, [r0, #2]
    d898:	e1cc30b0 	strh	r3, [ip]
    d89c:	e59f301c 	ldr	r3, [pc, #28]	; d8c0 <.text+0x98c0>
    d8a0:	e3a02000 	mov	r2, #0	; 0x0
    d8a4:	e5832030 	str	r2, [r3, #48]
    d8a8:	e8bd0002 	ldmia	sp!, {r1}
    d8ac:	e161f001 	msr	SPSR_c, r1
    d8b0:	e8fd9fff 	ldmia	sp!, {r0, r1, r2, r3, r4, r5, r6, r7, r8, r9, sl, fp, ip, pc}^
    d8b4:	e0034000 	and	r4, r3, r0
    d8b8:	40000520 	andmi	r0, r0, r0, lsr #10
    d8bc:	40000024 	andmi	r0, r0, r4, lsr #32
    d8c0:	fffff000 	swinv	0x00fff000

0000d8c4 <adcISR1>:
    d8c4:	e24ee004 	sub	lr, lr, #4	; 0x4
    d8c8:	e92d5fff 	stmdb	sp!, {r0, r1, r2, r3, r4, r5, r6, r7, r8, r9, sl, fp, ip, lr}
    d8cc:	e14f1000 	mrs	r1, SPSR
    d8d0:	e92d0002 	stmdb	sp!, {r1}
    d8d4:	e59f3088 	ldr	r3, [pc, #136]	; d964 <.text+0x9964>
    d8d8:	e5932004 	ldr	r2, [r3, #4]
    d8dc:	e59f3084 	ldr	r3, [pc, #132]	; d968 <.text+0x9968>
    d8e0:	e1a01c22 	mov	r1, r2, lsr #24
    d8e4:	e2011007 	and	r1, r1, #7	; 0x7
    d8e8:	e0833101 	add	r3, r3, r1, lsl #2
    d8ec:	e593c020 	ldr	ip, [r3, #32]
    d8f0:	e1a02802 	mov	r2, r2, lsl #16
    d8f4:	e59f3070 	ldr	r3, [pc, #112]	; d96c <.text+0x996c>
    d8f8:	e1a0eb22 	mov	lr, r2, lsr #22
    d8fc:	e1a01081 	mov	r1, r1, lsl #1
    d900:	e35c0000 	cmp	ip, #0	; 0x0
    d904:	e181e0b3 	strh	lr, [r1, r3]
    d908:	0a00000f 	beq	d94c <adcISR1+0x88>
    d90c:	e5dc2042 	ldrb	r2, [ip, #66]
    d910:	e5dc3043 	ldrb	r3, [ip, #67]
    d914:	e2822001 	add	r2, r2, #1	; 0x1
    d918:	e20220ff 	and	r2, r2, #255	; 0xff
    d91c:	e1530002 	cmp	r3, r2
    d920:	93a02000 	movls	r2, #0	; 0x0
    d924:	e08c0082 	add	r0, ip, r2, lsl #1
    d928:	e1dc30b0 	ldrh	r3, [ip]
    d92c:	e1d010b2 	ldrh	r1, [r0, #2]
    d930:	e0613003 	rsb	r3, r1, r3
    d934:	e1cc30b0 	strh	r3, [ip]
    d938:	e1dc30b0 	ldrh	r3, [ip]
    d93c:	e08e3003 	add	r3, lr, r3
    d940:	e5cc2042 	strb	r2, [ip, #66]
    d944:	e1c0e0b2 	strh	lr, [r0, #2]
    d948:	e1cc30b0 	strh	r3, [ip]
    d94c:	e59f301c 	ldr	r3, [pc, #28]	; d970 <.text+0x9970>
    d950:	e3a02000 	mov	r2, #0	; 0x0
    d954:	e5832030 	str	r2, [r3, #48]
    d958:	e8bd0002 	ldmia	sp!, {r1}
    d95c:	e161f001 	msr	SPSR_c, r1
    d960:	e8fd9fff 	ldmia	sp!, {r0, r1, r2, r3, r4, r5, r6, r7, r8, r9, sl, fp, ip, pc}^
    d964:	e0060000 	and	r0, r6, r0
    d968:	40000520 	andmi	r0, r0, r0, lsr #10
    d96c:	40000014 	andmi	r0, r0, r4, lsl r0
    d970:	fffff000 	swinv	0x00fff000

0000d974 <gps_init>:
    d974:	e59f3008 	ldr	r3, [pc, #8]	; d984 <.text+0x9984>
    d978:	e3a02000 	mov	r2, #0	; 0x0
    d97c:	e5c32000 	strb	r2, [r3]
    d980:	e12fff1e 	bx	lr
    d984:	40000560 	andmi	r0, r0, r0, ror #10

0000d988 <gps_reset>:
    d988:	e1a0c00d 	mov	ip, sp
    d98c:	e92dd8f0 	stmdb	sp!, {r4, r5, r6, r7, fp, ip, lr, pc}
    d990:	e24cb004 	sub	fp, ip, #4	; 0x4
    d994:	e24dd004 	sub	sp, sp, #4	; 0x4
    d998:	e3a000b5 	mov	r0, #181	; 0xb5
    d99c:	e59f515c 	ldr	r5, [pc, #348]	; db00 <.text+0x9b00>
    d9a0:	e59f615c 	ldr	r6, [pc, #348]	; db04 <.text+0x9b04>
    d9a4:	ebfffc21 	bl	ca30 <uart1_transmit>
    d9a8:	e3a00062 	mov	r0, #98	; 0x62
    d9ac:	ebfffc1f 	bl	ca30 <uart1_transmit>
    d9b0:	e3a07000 	mov	r7, #0	; 0x0
    d9b4:	e3a00006 	mov	r0, #6	; 0x6
    d9b8:	e5c67000 	strb	r7, [r6]
    d9bc:	e5c57000 	strb	r7, [r5]
    d9c0:	ebfffc1a 	bl	ca30 <uart1_transmit>
    d9c4:	e5d53000 	ldrb	r3, [r5]
    d9c8:	e2833006 	add	r3, r3, #6	; 0x6
    d9cc:	e5c53000 	strb	r3, [r5]
    d9d0:	e5d63000 	ldrb	r3, [r6]
    d9d4:	e5d52000 	ldrb	r2, [r5]
    d9d8:	e3a04004 	mov	r4, #4	; 0x4
    d9dc:	e0833002 	add	r3, r3, r2
    d9e0:	e1a00004 	mov	r0, r4
    d9e4:	e5c63000 	strb	r3, [r6]
    d9e8:	ebfffc10 	bl	ca30 <uart1_transmit>
    d9ec:	e5d53000 	ldrb	r3, [r5]
    d9f0:	e0833004 	add	r3, r3, r4
    d9f4:	e5c53000 	strb	r3, [r5]
    d9f8:	e5d63000 	ldrb	r3, [r6]
    d9fc:	e5d52000 	ldrb	r2, [r5]
    da00:	e1a00004 	mov	r0, r4
    da04:	e0833002 	add	r3, r3, r2
    da08:	e5c63000 	strb	r3, [r6]
    da0c:	ebfffc07 	bl	ca30 <uart1_transmit>
    da10:	e5d53000 	ldrb	r3, [r5]
    da14:	e0833004 	add	r3, r3, r4
    da18:	e5c53000 	strb	r3, [r5]
    da1c:	e5d63000 	ldrb	r3, [r6]
    da20:	e5d52000 	ldrb	r2, [r5]
    da24:	e1a00007 	mov	r0, r7
    da28:	e0833002 	add	r3, r3, r2
    da2c:	e5c63000 	strb	r3, [r6]
    da30:	ebfffbfe 	bl	ca30 <uart1_transmit>
    da34:	e3a03001 	mov	r3, #1	; 0x1
    da38:	e14b31be 	strh	r3, [fp, #-30]
    da3c:	e5d62000 	ldrb	r2, [r6]
    da40:	e55b401e 	ldrb	r4, [fp, #-30]
    da44:	e5d53000 	ldrb	r3, [r5]
    da48:	e1a00004 	mov	r0, r4
    da4c:	e0822003 	add	r2, r2, r3
    da50:	e5c62000 	strb	r2, [r6]
    da54:	ebfffbf5 	bl	ca30 <uart1_transmit>
    da58:	e5d53000 	ldrb	r3, [r5]
    da5c:	e0844003 	add	r4, r4, r3
    da60:	e5c54000 	strb	r4, [r5]
    da64:	e5d62000 	ldrb	r2, [r6]
    da68:	e55b401d 	ldrb	r4, [fp, #-29]
    da6c:	e5d53000 	ldrb	r3, [r5]
    da70:	e1a00004 	mov	r0, r4
    da74:	e0822003 	add	r2, r2, r3
    da78:	e5c62000 	strb	r2, [r6]
    da7c:	ebfffbeb 	bl	ca30 <uart1_transmit>
    da80:	e5d53000 	ldrb	r3, [r5]
    da84:	e0844003 	add	r4, r4, r3
    da88:	e5c54000 	strb	r4, [r5]
    da8c:	e5d63000 	ldrb	r3, [r6]
    da90:	e5d52000 	ldrb	r2, [r5]
    da94:	e3a01002 	mov	r1, #2	; 0x2
    da98:	e1a00001 	mov	r0, r1
    da9c:	e0833002 	add	r3, r3, r2
    daa0:	e54b101f 	strb	r1, [fp, #-31]
    daa4:	e5c63000 	strb	r3, [r6]
    daa8:	ebfffbe0 	bl	ca30 <uart1_transmit>
    daac:	e5d53000 	ldrb	r3, [r5]
    dab0:	e2833002 	add	r3, r3, #2	; 0x2
    dab4:	e5c53000 	strb	r3, [r5]
    dab8:	e5d63000 	ldrb	r3, [r6]
    dabc:	e5d52000 	ldrb	r2, [r5]
    dac0:	e1a00007 	mov	r0, r7
    dac4:	e0833002 	add	r3, r3, r2
    dac8:	e5c63000 	strb	r3, [r6]
    dacc:	e54b7020 	strb	r7, [fp, #-32]
    dad0:	ebfffbd6 	bl	ca30 <uart1_transmit>
    dad4:	e5d52000 	ldrb	r2, [r5]
    dad8:	e5d63000 	ldrb	r3, [r6]
    dadc:	e1a00002 	mov	r0, r2
    dae0:	e0833002 	add	r3, r3, r2
    dae4:	e5c63000 	strb	r3, [r6]
    dae8:	ebfffbd0 	bl	ca30 <uart1_transmit>
    daec:	e5d60000 	ldrb	r0, [r6]
    daf0:	ebfffbce 	bl	ca30 <uart1_transmit>
    daf4:	e24bd01c 	sub	sp, fp, #28	; 0x1c
    daf8:	e89d68f0 	ldmia	sp, {r4, r5, r6, r7, fp, sp, lr}
    dafc:	e12fff1e 	bx	lr
    db00:	40000f4c 	andmi	r0, r0, ip, asr #30
    db04:	40000f48 	andmi	r0, r0, r8, asr #30

0000db08 <gps_configure>:
    db08:	e1a0c00d 	mov	ip, sp
    db0c:	e92ddff0 	stmdb	sp!, {r4, r5, r6, r7, r8, r9, sl, fp, ip, lr, pc}
    db10:	e24cb004 	sub	fp, ip, #4	; 0x4
    db14:	e24dd058 	sub	sp, sp, #88	; 0x58
    db18:	e3a000b5 	mov	r0, #181	; 0xb5
    db1c:	e59f4ff8 	ldr	r4, [pc, #4088]	; eb1c <.text+0xab1c>
    db20:	e59f5ff8 	ldr	r5, [pc, #4088]	; eb20 <.text+0xab20>
    db24:	e3a09006 	mov	r9, #6	; 0x6
    db28:	ebfffbc0 	bl	ca30 <uart1_transmit>
    db2c:	e3a00062 	mov	r0, #98	; 0x62
    db30:	e3a07000 	mov	r7, #0	; 0x0
    db34:	ebfffbbd 	bl	ca30 <uart1_transmit>
    db38:	e1a00009 	mov	r0, r9
    db3c:	e5c57000 	strb	r7, [r5]
    db40:	e5c47000 	strb	r7, [r4]
    db44:	ebfffbb9 	bl	ca30 <uart1_transmit>
    db48:	e5d43000 	ldrb	r3, [r4]
    db4c:	e0833009 	add	r3, r3, r9
    db50:	e5c43000 	strb	r3, [r4]
    db54:	e5d53000 	ldrb	r3, [r5]
    db58:	e5d42000 	ldrb	r2, [r4]
    db5c:	e1a00007 	mov	r0, r7
    db60:	e0833002 	add	r3, r3, r2
    db64:	e5c53000 	strb	r3, [r5]
    db68:	ebfffbb0 	bl	ca30 <uart1_transmit>
    db6c:	e5d53000 	ldrb	r3, [r5]
    db70:	e5d42000 	ldrb	r2, [r4]
    db74:	e3a08014 	mov	r8, #20	; 0x14
    db78:	e0833002 	add	r3, r3, r2
    db7c:	e1a00008 	mov	r0, r8
    db80:	e5c53000 	strb	r3, [r5]
    db84:	ebfffba9 	bl	ca30 <uart1_transmit>
    db88:	e5d43000 	ldrb	r3, [r4]
    db8c:	e0833008 	add	r3, r3, r8
    db90:	e5c43000 	strb	r3, [r4]
    db94:	e5d53000 	ldrb	r3, [r5]
    db98:	e5d42000 	ldrb	r2, [r4]
    db9c:	e1a00007 	mov	r0, r7
    dba0:	e0833002 	add	r3, r3, r2
    dba4:	e5c53000 	strb	r3, [r5]
    dba8:	ebfffba0 	bl	ca30 <uart1_transmit>
    dbac:	e5d53000 	ldrb	r3, [r5]
    dbb0:	e5d42000 	ldrb	r2, [r4]
    dbb4:	e3a0a001 	mov	sl, #1	; 0x1
    dbb8:	e0833002 	add	r3, r3, r2
    dbbc:	e1a0000a 	mov	r0, sl
    dbc0:	e5c53000 	strb	r3, [r5]
    dbc4:	e54ba029 	strb	sl, [fp, #-41]
    dbc8:	ebfffb98 	bl	ca30 <uart1_transmit>
    dbcc:	e5d43000 	ldrb	r3, [r4]
    dbd0:	e083300a 	add	r3, r3, sl
    dbd4:	e5c43000 	strb	r3, [r4]
    dbd8:	e5d53000 	ldrb	r3, [r5]
    dbdc:	e5d42000 	ldrb	r2, [r4]
    dbe0:	e1a00007 	mov	r0, r7
    dbe4:	e0833002 	add	r3, r3, r2
    dbe8:	e5c53000 	strb	r3, [r5]
    dbec:	e54b702a 	strb	r7, [fp, #-42]
    dbf0:	ebfffb8e 	bl	ca30 <uart1_transmit>
    dbf4:	e14b72bc 	strh	r7, [fp, #-44]
    dbf8:	e5d52000 	ldrb	r2, [r5]
    dbfc:	e55b602c 	ldrb	r6, [fp, #-44]
    dc00:	e5d43000 	ldrb	r3, [r4]
    dc04:	e1a00006 	mov	r0, r6
    dc08:	e0822003 	add	r2, r2, r3
    dc0c:	e5c52000 	strb	r2, [r5]
    dc10:	ebfffb86 	bl	ca30 <uart1_transmit>
    dc14:	e5d43000 	ldrb	r3, [r4]
    dc18:	e0866003 	add	r6, r6, r3
    dc1c:	e5c46000 	strb	r6, [r4]
    dc20:	e5d52000 	ldrb	r2, [r5]
    dc24:	e55b602b 	ldrb	r6, [fp, #-43]
    dc28:	e5d43000 	ldrb	r3, [r4]
    dc2c:	e1a00006 	mov	r0, r6
    dc30:	e0822003 	add	r2, r2, r3
    dc34:	e5c52000 	strb	r2, [r5]
    dc38:	ebfffb7c 	bl	ca30 <uart1_transmit>
    dc3c:	e5d43000 	ldrb	r3, [r4]
    dc40:	e0866003 	add	r6, r6, r3
    dc44:	e59f3ed8 	ldr	r3, [pc, #3800]	; eb24 <.text+0xab24>
    dc48:	e5c46000 	strb	r6, [r4]
    dc4c:	e50b3078 	str	r3, [fp, #-120]
    dc50:	e5d52000 	ldrb	r2, [r5]
    dc54:	e55b6078 	ldrb	r6, [fp, #-120]
    dc58:	e5d43000 	ldrb	r3, [r4]
    dc5c:	e1a00006 	mov	r0, r6
    dc60:	e0822003 	add	r2, r2, r3
    dc64:	e5c52000 	strb	r2, [r5]
    dc68:	ebfffb70 	bl	ca30 <uart1_transmit>
    dc6c:	e5d43000 	ldrb	r3, [r4]
    dc70:	e0866003 	add	r6, r6, r3
    dc74:	e5c46000 	strb	r6, [r4]
    dc78:	e5d52000 	ldrb	r2, [r5]
    dc7c:	e55b6077 	ldrb	r6, [fp, #-119]
    dc80:	e5d43000 	ldrb	r3, [r4]
    dc84:	e1a00006 	mov	r0, r6
    dc88:	e0822003 	add	r2, r2, r3
    dc8c:	e5c52000 	strb	r2, [r5]
    dc90:	ebfffb66 	bl	ca30 <uart1_transmit>
    dc94:	e5d43000 	ldrb	r3, [r4]
    dc98:	e0866003 	add	r6, r6, r3
    dc9c:	e5c46000 	strb	r6, [r4]
    dca0:	e5d52000 	ldrb	r2, [r5]
    dca4:	e55b6076 	ldrb	r6, [fp, #-118]
    dca8:	e5d43000 	ldrb	r3, [r4]
    dcac:	e1a00006 	mov	r0, r6
    dcb0:	e0822003 	add	r2, r2, r3
    dcb4:	e5c52000 	strb	r2, [r5]
    dcb8:	ebfffb5c 	bl	ca30 <uart1_transmit>
    dcbc:	e5d43000 	ldrb	r3, [r4]
    dcc0:	e0866003 	add	r6, r6, r3
    dcc4:	e5c46000 	strb	r6, [r4]
    dcc8:	e5d52000 	ldrb	r2, [r5]
    dccc:	e55b6075 	ldrb	r6, [fp, #-117]
    dcd0:	e5d43000 	ldrb	r3, [r4]
    dcd4:	e1a00006 	mov	r0, r6
    dcd8:	e0822003 	add	r2, r2, r3
    dcdc:	e5c52000 	strb	r2, [r5]
    dce0:	ebfffb52 	bl	ca30 <uart1_transmit>
    dce4:	e5d43000 	ldrb	r3, [r4]
    dce8:	e0866003 	add	r6, r6, r3
    dcec:	e3a03c96 	mov	r3, #38400	; 0x9600
    dcf0:	e5c46000 	strb	r6, [r4]
    dcf4:	e50b307c 	str	r3, [fp, #-124]
    dcf8:	e5d52000 	ldrb	r2, [r5]
    dcfc:	e55b607c 	ldrb	r6, [fp, #-124]
    dd00:	e5d43000 	ldrb	r3, [r4]
    dd04:	e1a00006 	mov	r0, r6
    dd08:	e0822003 	add	r2, r2, r3
    dd0c:	e5c52000 	strb	r2, [r5]
    dd10:	ebfffb46 	bl	ca30 <uart1_transmit>
    dd14:	e5d43000 	ldrb	r3, [r4]
    dd18:	e0866003 	add	r6, r6, r3
    dd1c:	e5c46000 	strb	r6, [r4]
    dd20:	e5d52000 	ldrb	r2, [r5]
    dd24:	e55b607b 	ldrb	r6, [fp, #-123]
    dd28:	e5d43000 	ldrb	r3, [r4]
    dd2c:	e1a00006 	mov	r0, r6
    dd30:	e0822003 	add	r2, r2, r3
    dd34:	e5c52000 	strb	r2, [r5]
    dd38:	ebfffb3c 	bl	ca30 <uart1_transmit>
    dd3c:	e5d43000 	ldrb	r3, [r4]
    dd40:	e0866003 	add	r6, r6, r3
    dd44:	e5c46000 	strb	r6, [r4]
    dd48:	e5d52000 	ldrb	r2, [r5]
    dd4c:	e55b607a 	ldrb	r6, [fp, #-122]
    dd50:	e5d43000 	ldrb	r3, [r4]
    dd54:	e1a00006 	mov	r0, r6
    dd58:	e0822003 	add	r2, r2, r3
    dd5c:	e5c52000 	strb	r2, [r5]
    dd60:	ebfffb32 	bl	ca30 <uart1_transmit>
    dd64:	e5d43000 	ldrb	r3, [r4]
    dd68:	e0866003 	add	r6, r6, r3
    dd6c:	e5c46000 	strb	r6, [r4]
    dd70:	e5d52000 	ldrb	r2, [r5]
    dd74:	e55b6079 	ldrb	r6, [fp, #-121]
    dd78:	e5d43000 	ldrb	r3, [r4]
    dd7c:	e1a00006 	mov	r0, r6
    dd80:	e0822003 	add	r2, r2, r3
    dd84:	e5c52000 	strb	r2, [r5]
    dd88:	ebfffb28 	bl	ca30 <uart1_transmit>
    dd8c:	e5d43000 	ldrb	r3, [r4]
    dd90:	e0866003 	add	r6, r6, r3
    dd94:	e5c46000 	strb	r6, [r4]
    dd98:	e14ba2be 	strh	sl, [fp, #-46]
    dd9c:	e5d52000 	ldrb	r2, [r5]
    dda0:	e55b602e 	ldrb	r6, [fp, #-46]
    dda4:	e5d43000 	ldrb	r3, [r4]
    dda8:	e1a00006 	mov	r0, r6
    ddac:	e0822003 	add	r2, r2, r3
    ddb0:	e5c52000 	strb	r2, [r5]
    ddb4:	ebfffb1d 	bl	ca30 <uart1_transmit>
    ddb8:	e5d43000 	ldrb	r3, [r4]
    ddbc:	e0866003 	add	r6, r6, r3
    ddc0:	e5c46000 	strb	r6, [r4]
    ddc4:	e5d52000 	ldrb	r2, [r5]
    ddc8:	e55b602d 	ldrb	r6, [fp, #-45]
    ddcc:	e5d43000 	ldrb	r3, [r4]
    ddd0:	e1a00006 	mov	r0, r6
    ddd4:	e0822003 	add	r2, r2, r3
    ddd8:	e5c52000 	strb	r2, [r5]
    dddc:	ebfffb13 	bl	ca30 <uart1_transmit>
    dde0:	e5d43000 	ldrb	r3, [r4]
    dde4:	e0866003 	add	r6, r6, r3
    dde8:	e5c46000 	strb	r6, [r4]
    ddec:	e14ba3b0 	strh	sl, [fp, #-48]
    ddf0:	e5d52000 	ldrb	r2, [r5]
    ddf4:	e55b6030 	ldrb	r6, [fp, #-48]
    ddf8:	e5d43000 	ldrb	r3, [r4]
    ddfc:	e1a00006 	mov	r0, r6
    de00:	e0822003 	add	r2, r2, r3
    de04:	e5c52000 	strb	r2, [r5]
    de08:	ebfffb08 	bl	ca30 <uart1_transmit>
    de0c:	e5d43000 	ldrb	r3, [r4]
    de10:	e0866003 	add	r6, r6, r3
    de14:	e5c46000 	strb	r6, [r4]
    de18:	e5d52000 	ldrb	r2, [r5]
    de1c:	e55b602f 	ldrb	r6, [fp, #-47]
    de20:	e5d43000 	ldrb	r3, [r4]
    de24:	e1a00006 	mov	r0, r6
    de28:	e0822003 	add	r2, r2, r3
    de2c:	e5c52000 	strb	r2, [r5]
    de30:	ebfffafe 	bl	ca30 <uart1_transmit>
    de34:	e5d43000 	ldrb	r3, [r4]
    de38:	e0866003 	add	r6, r6, r3
    de3c:	e5c46000 	strb	r6, [r4]
    de40:	e14b73b2 	strh	r7, [fp, #-50]
    de44:	e5d52000 	ldrb	r2, [r5]
    de48:	e55b6032 	ldrb	r6, [fp, #-50]
    de4c:	e5d43000 	ldrb	r3, [r4]
    de50:	e1a00006 	mov	r0, r6
    de54:	e0822003 	add	r2, r2, r3
    de58:	e5c52000 	strb	r2, [r5]
    de5c:	ebfffaf3 	bl	ca30 <uart1_transmit>
    de60:	e5d43000 	ldrb	r3, [r4]
    de64:	e0866003 	add	r6, r6, r3
    de68:	e5c46000 	strb	r6, [r4]
    de6c:	e5d52000 	ldrb	r2, [r5]
    de70:	e55b6031 	ldrb	r6, [fp, #-49]
    de74:	e5d43000 	ldrb	r3, [r4]
    de78:	e1a00006 	mov	r0, r6
    de7c:	e0822003 	add	r2, r2, r3
    de80:	e5c52000 	strb	r2, [r5]
    de84:	ebfffae9 	bl	ca30 <uart1_transmit>
    de88:	e5d43000 	ldrb	r3, [r4]
    de8c:	e0866003 	add	r6, r6, r3
    de90:	e5c46000 	strb	r6, [r4]
    de94:	e14b73b4 	strh	r7, [fp, #-52]
    de98:	e5d52000 	ldrb	r2, [r5]
    de9c:	e55b6034 	ldrb	r6, [fp, #-52]
    dea0:	e5d43000 	ldrb	r3, [r4]
    dea4:	e1a00006 	mov	r0, r6
    dea8:	e0822003 	add	r2, r2, r3
    deac:	e5c52000 	strb	r2, [r5]
    deb0:	ebfffade 	bl	ca30 <uart1_transmit>
    deb4:	e5d43000 	ldrb	r3, [r4]
    deb8:	e0866003 	add	r6, r6, r3
    debc:	e5c46000 	strb	r6, [r4]
    dec0:	e5d52000 	ldrb	r2, [r5]
    dec4:	e55b6033 	ldrb	r6, [fp, #-51]
    dec8:	e5d43000 	ldrb	r3, [r4]
    decc:	e1a00006 	mov	r0, r6
    ded0:	e0822003 	add	r2, r2, r3
    ded4:	e5c52000 	strb	r2, [r5]
    ded8:	ebfffad4 	bl	ca30 <uart1_transmit>
    dedc:	e5d43000 	ldrb	r3, [r4]
    dee0:	e0866003 	add	r6, r6, r3
    dee4:	e5c46000 	strb	r6, [r4]
    dee8:	e5d53000 	ldrb	r3, [r5]
    deec:	e5d40000 	ldrb	r0, [r4]
    def0:	e0833000 	add	r3, r3, r0
    def4:	e5c53000 	strb	r3, [r5]
    def8:	ebfffacc 	bl	ca30 <uart1_transmit>
    defc:	e5d50000 	ldrb	r0, [r5]
    df00:	ebfffaca 	bl	ca30 <uart1_transmit>
    df04:	e3a000b5 	mov	r0, #181	; 0xb5
    df08:	ebfffac8 	bl	ca30 <uart1_transmit>
    df0c:	e3a00062 	mov	r0, #98	; 0x62
    df10:	ebfffac6 	bl	ca30 <uart1_transmit>
    df14:	e1a00009 	mov	r0, r9
    df18:	e5c57000 	strb	r7, [r5]
    df1c:	e5c47000 	strb	r7, [r4]
    df20:	ebfffac2 	bl	ca30 <uart1_transmit>
    df24:	e5d43000 	ldrb	r3, [r4]
    df28:	e0833009 	add	r3, r3, r9
    df2c:	e5c43000 	strb	r3, [r4]
    df30:	e5d53000 	ldrb	r3, [r5]
    df34:	e5d42000 	ldrb	r2, [r4]
    df38:	e3a00003 	mov	r0, #3	; 0x3
    df3c:	e0833002 	add	r3, r3, r2
    df40:	e5c53000 	strb	r3, [r5]
    df44:	ebfffab9 	bl	ca30 <uart1_transmit>
    df48:	e5d43000 	ldrb	r3, [r4]
    df4c:	e2833003 	add	r3, r3, #3	; 0x3
    df50:	e5c43000 	strb	r3, [r4]
    df54:	e5d53000 	ldrb	r3, [r5]
    df58:	e5d42000 	ldrb	r2, [r4]
    df5c:	e3a0001c 	mov	r0, #28	; 0x1c
    df60:	e0833002 	add	r3, r3, r2
    df64:	e5c53000 	strb	r3, [r5]
    df68:	ebfffab0 	bl	ca30 <uart1_transmit>
    df6c:	e5d43000 	ldrb	r3, [r4]
    df70:	e283301c 	add	r3, r3, #28	; 0x1c
    df74:	e5c43000 	strb	r3, [r4]
    df78:	e5d53000 	ldrb	r3, [r5]
    df7c:	e5d42000 	ldrb	r2, [r4]
    df80:	e1a00007 	mov	r0, r7
    df84:	e0833002 	add	r3, r3, r2
    df88:	e5c53000 	strb	r3, [r5]
    df8c:	ebfffaa7 	bl	ca30 <uart1_transmit>
    df90:	e5d53000 	ldrb	r3, [r5]
    df94:	e5d42000 	ldrb	r2, [r4]
    df98:	e1a00009 	mov	r0, r9
    df9c:	e0833002 	add	r3, r3, r2
    dfa0:	e5c53000 	strb	r3, [r5]
    dfa4:	e54b9035 	strb	r9, [fp, #-53]
    dfa8:	ebfffaa0 	bl	ca30 <uart1_transmit>
    dfac:	e5d43000 	ldrb	r3, [r4]
    dfb0:	e0833009 	add	r3, r3, r9
    dfb4:	e5c43000 	strb	r3, [r4]
    dfb8:	e5d53000 	ldrb	r3, [r5]
    dfbc:	e5d42000 	ldrb	r2, [r4]
    dfc0:	e0833002 	add	r3, r3, r2
    dfc4:	e5c53000 	strb	r3, [r5]
    dfc8:	e3a00003 	mov	r0, #3	; 0x3
    dfcc:	e3a03003 	mov	r3, #3	; 0x3
    dfd0:	e54b3036 	strb	r3, [fp, #-54]
    dfd4:	ebfffa95 	bl	ca30 <uart1_transmit>
    dfd8:	e5d43000 	ldrb	r3, [r4]
    dfdc:	e2833003 	add	r3, r3, #3	; 0x3
    dfe0:	e5c43000 	strb	r3, [r4]
    dfe4:	e5d53000 	ldrb	r3, [r5]
    dfe8:	e5d42000 	ldrb	r2, [r4]
    dfec:	e3a01010 	mov	r1, #16	; 0x10
    dff0:	e0833002 	add	r3, r3, r2
    dff4:	e1a00001 	mov	r0, r1
    dff8:	e5c53000 	strb	r3, [r5]
    dffc:	e54b1037 	strb	r1, [fp, #-55]
    e000:	ebfffa8a 	bl	ca30 <uart1_transmit>
    e004:	e5d43000 	ldrb	r3, [r4]
    e008:	e2833010 	add	r3, r3, #16	; 0x10
    e00c:	e5c43000 	strb	r3, [r4]
    e010:	e5d53000 	ldrb	r3, [r5]
    e014:	e5d42000 	ldrb	r2, [r4]
    e018:	e3a01018 	mov	r1, #24	; 0x18
    e01c:	e0833002 	add	r3, r3, r2
    e020:	e1a00001 	mov	r0, r1
    e024:	e54b1038 	strb	r1, [fp, #-56]
    e028:	e5c53000 	strb	r3, [r5]
    e02c:	ebfffa7f 	bl	ca30 <uart1_transmit>
    e030:	e5d43000 	ldrb	r3, [r4]
    e034:	e2833018 	add	r3, r3, #24	; 0x18
    e038:	e5c43000 	strb	r3, [r4]
    e03c:	e5d53000 	ldrb	r3, [r5]
    e040:	e5d42000 	ldrb	r2, [r4]
    e044:	e1a00008 	mov	r0, r8
    e048:	e0833002 	add	r3, r3, r2
    e04c:	e5c53000 	strb	r3, [r5]
    e050:	e54b8039 	strb	r8, [fp, #-57]
    e054:	ebfffa75 	bl	ca30 <uart1_transmit>
    e058:	e5d43000 	ldrb	r3, [r4]
    e05c:	e0833008 	add	r3, r3, r8
    e060:	e5c43000 	strb	r3, [r4]
    e064:	e5d53000 	ldrb	r3, [r5]
    e068:	e5d42000 	ldrb	r2, [r4]
    e06c:	e3a01005 	mov	r1, #5	; 0x5
    e070:	e1a00001 	mov	r0, r1
    e074:	e0833002 	add	r3, r3, r2
    e078:	e54b103a 	strb	r1, [fp, #-58]
    e07c:	e5c53000 	strb	r3, [r5]
    e080:	ebfffa6a 	bl	ca30 <uart1_transmit>
    e084:	e5d43000 	ldrb	r3, [r4]
    e088:	e2833005 	add	r3, r3, #5	; 0x5
    e08c:	e5c43000 	strb	r3, [r4]
    e090:	e5d53000 	ldrb	r3, [r5]
    e094:	e5d42000 	ldrb	r2, [r4]
    e098:	e1a00007 	mov	r0, r7
    e09c:	e0833002 	add	r3, r3, r2
    e0a0:	e5c53000 	strb	r3, [r5]
    e0a4:	e54b703b 	strb	r7, [fp, #-59]
    e0a8:	ebfffa60 	bl	ca30 <uart1_transmit>
    e0ac:	e5d53000 	ldrb	r3, [r5]
    e0b0:	e5d42000 	ldrb	r2, [r4]
    e0b4:	e3a0603c 	mov	r6, #60	; 0x3c
    e0b8:	e0833002 	add	r3, r3, r2
    e0bc:	e1a00006 	mov	r0, r6
    e0c0:	e5c53000 	strb	r3, [r5]
    e0c4:	e54b603c 	strb	r6, [fp, #-60]
    e0c8:	ebfffa58 	bl	ca30 <uart1_transmit>
    e0cc:	e5d43000 	ldrb	r3, [r4]
    e0d0:	e0833006 	add	r3, r3, r6
    e0d4:	e5c43000 	strb	r3, [r4]
    e0d8:	e5d53000 	ldrb	r3, [r5]
    e0dc:	e5d42000 	ldrb	r2, [r4]
    e0e0:	e1a00006 	mov	r0, r6
    e0e4:	e0833002 	add	r3, r3, r2
    e0e8:	e5c53000 	strb	r3, [r5]
    e0ec:	e54b603d 	strb	r6, [fp, #-61]
    e0f0:	ebfffa4e 	bl	ca30 <uart1_transmit>
    e0f4:	e5d43000 	ldrb	r3, [r4]
    e0f8:	e0833006 	add	r3, r3, r6
    e0fc:	e5c43000 	strb	r3, [r4]
    e100:	e5d53000 	ldrb	r3, [r5]
    e104:	e5d42000 	ldrb	r2, [r4]
    e108:	e1a00008 	mov	r0, r8
    e10c:	e0833002 	add	r3, r3, r2
    e110:	e5c53000 	strb	r3, [r5]
    e114:	e54b803e 	strb	r8, [fp, #-62]
    e118:	ebfffa44 	bl	ca30 <uart1_transmit>
    e11c:	e5d43000 	ldrb	r3, [r4]
    e120:	e0833008 	add	r3, r3, r8
    e124:	e5c43000 	strb	r3, [r4]
    e128:	e3a03ffa 	mov	r3, #1000	; 0x3e8
    e12c:	e14b34b0 	strh	r3, [fp, #-64]
    e130:	e5d52000 	ldrb	r2, [r5]
    e134:	e55b6040 	ldrb	r6, [fp, #-64]
    e138:	e5d43000 	ldrb	r3, [r4]
    e13c:	e1a00006 	mov	r0, r6
    e140:	e0822003 	add	r2, r2, r3
    e144:	e5c52000 	strb	r2, [r5]
    e148:	ebfffa38 	bl	ca30 <uart1_transmit>
    e14c:	e5d43000 	ldrb	r3, [r4]
    e150:	e0866003 	add	r6, r6, r3
    e154:	e5c46000 	strb	r6, [r4]
    e158:	e5d52000 	ldrb	r2, [r5]
    e15c:	e55b603f 	ldrb	r6, [fp, #-63]
    e160:	e5d43000 	ldrb	r3, [r4]
    e164:	e1a00006 	mov	r0, r6
    e168:	e0822003 	add	r2, r2, r3
    e16c:	e5c52000 	strb	r2, [r5]
    e170:	ebfffa2e 	bl	ca30 <uart1_transmit>
    e174:	e5d43000 	ldrb	r3, [r4]
    e178:	e0866003 	add	r6, r6, r3
    e17c:	e5c46000 	strb	r6, [r4]
    e180:	e14b74b2 	strh	r7, [fp, #-66]
    e184:	e5d52000 	ldrb	r2, [r5]
    e188:	e55b6042 	ldrb	r6, [fp, #-66]
    e18c:	e5d43000 	ldrb	r3, [r4]
    e190:	e1a00006 	mov	r0, r6
    e194:	e0822003 	add	r2, r2, r3
    e198:	e5c52000 	strb	r2, [r5]
    e19c:	ebfffa23 	bl	ca30 <uart1_transmit>
    e1a0:	e5d43000 	ldrb	r3, [r4]
    e1a4:	e0866003 	add	r6, r6, r3
    e1a8:	e5c46000 	strb	r6, [r4]
    e1ac:	e5d52000 	ldrb	r2, [r5]
    e1b0:	e55b6041 	ldrb	r6, [fp, #-65]
    e1b4:	e5d43000 	ldrb	r3, [r4]
    e1b8:	e1a00006 	mov	r0, r6
    e1bc:	e0822003 	add	r2, r2, r3
    e1c0:	e5c52000 	strb	r2, [r5]
    e1c4:	ebfffa19 	bl	ca30 <uart1_transmit>
    e1c8:	e5d43000 	ldrb	r3, [r4]
    e1cc:	e0866003 	add	r6, r6, r3
    e1d0:	e5c46000 	strb	r6, [r4]
    e1d4:	e5d53000 	ldrb	r3, [r5]
    e1d8:	e5d42000 	ldrb	r2, [r4]
    e1dc:	e1a00007 	mov	r0, r7
    e1e0:	e0833002 	add	r3, r3, r2
    e1e4:	e5c53000 	strb	r3, [r5]
    e1e8:	e54b7043 	strb	r7, [fp, #-67]
    e1ec:	ebfffa0f 	bl	ca30 <uart1_transmit>
    e1f0:	e5d53000 	ldrb	r3, [r5]
    e1f4:	e5d42000 	ldrb	r2, [r4]
    e1f8:	e3a01017 	mov	r1, #23	; 0x17
    e1fc:	e1a00001 	mov	r0, r1
    e200:	e0833002 	add	r3, r3, r2
    e204:	e54b1044 	strb	r1, [fp, #-68]
    e208:	e5c53000 	strb	r3, [r5]
    e20c:	ebfffa07 	bl	ca30 <uart1_transmit>
    e210:	e5d43000 	ldrb	r3, [r4]
    e214:	e28880e6 	add	r8, r8, #230	; 0xe6
    e218:	e2833017 	add	r3, r3, #23	; 0x17
    e21c:	e14b84b6 	strh	r8, [fp, #-70]
    e220:	e5c43000 	strb	r3, [r4]
    e224:	e5d52000 	ldrb	r2, [r5]
    e228:	e55b6046 	ldrb	r6, [fp, #-70]
    e22c:	e5d43000 	ldrb	r3, [r4]
    e230:	e1a00006 	mov	r0, r6
    e234:	e0822003 	add	r2, r2, r3
    e238:	e5c52000 	strb	r2, [r5]
    e23c:	ebfff9fb 	bl	ca30 <uart1_transmit>
    e240:	e5d43000 	ldrb	r3, [r4]
    e244:	e0866003 	add	r6, r6, r3
    e248:	e5c46000 	strb	r6, [r4]
    e24c:	e5d52000 	ldrb	r2, [r5]
    e250:	e55b6045 	ldrb	r6, [fp, #-69]
    e254:	e5d43000 	ldrb	r3, [r4]
    e258:	e1a00006 	mov	r0, r6
    e25c:	e0822003 	add	r2, r2, r3
    e260:	e5c52000 	strb	r2, [r5]
    e264:	ebfff9f1 	bl	ca30 <uart1_transmit>
    e268:	e5d43000 	ldrb	r3, [r4]
    e26c:	e0866003 	add	r6, r6, r3
    e270:	e5c46000 	strb	r6, [r4]
    e274:	e14b84b8 	strh	r8, [fp, #-72]
    e278:	e5d52000 	ldrb	r2, [r5]
    e27c:	e55b6048 	ldrb	r6, [fp, #-72]
    e280:	e5d43000 	ldrb	r3, [r4]
    e284:	e1a00006 	mov	r0, r6
    e288:	e0822003 	add	r2, r2, r3
    e28c:	e5c52000 	strb	r2, [r5]
    e290:	ebfff9e6 	bl	ca30 <uart1_transmit>
    e294:	e5d43000 	ldrb	r3, [r4]
    e298:	e0866003 	add	r6, r6, r3
    e29c:	e5c46000 	strb	r6, [r4]
    e2a0:	e5d52000 	ldrb	r2, [r5]
    e2a4:	e55b6047 	ldrb	r6, [fp, #-71]
    e2a8:	e5d43000 	ldrb	r3, [r4]
    e2ac:	e1a00006 	mov	r0, r6
    e2b0:	e0822003 	add	r2, r2, r3
    e2b4:	e5c52000 	strb	r2, [r5]
    e2b8:	ebfff9dc 	bl	ca30 <uart1_transmit>
    e2bc:	e5d43000 	ldrb	r3, [r4]
    e2c0:	e0866003 	add	r6, r6, r3
    e2c4:	e3a03064 	mov	r3, #100	; 0x64
    e2c8:	e5c46000 	strb	r6, [r4]
    e2cc:	e14b34ba 	strh	r3, [fp, #-74]
    e2d0:	e5d52000 	ldrb	r2, [r5]
    e2d4:	e55b604a 	ldrb	r6, [fp, #-74]
    e2d8:	e5d43000 	ldrb	r3, [r4]
    e2dc:	e1a00006 	mov	r0, r6
    e2e0:	e0822003 	add	r2, r2, r3
    e2e4:	e5c52000 	strb	r2, [r5]
    e2e8:	ebfff9d0 	bl	ca30 <uart1_transmit>
    e2ec:	e5d43000 	ldrb	r3, [r4]
    e2f0:	e0866003 	add	r6, r6, r3
    e2f4:	e5c46000 	strb	r6, [r4]
    e2f8:	e5d52000 	ldrb	r2, [r5]
    e2fc:	e55b6049 	ldrb	r6, [fp, #-73]
    e300:	e5d43000 	ldrb	r3, [r4]
    e304:	e1a00006 	mov	r0, r6
    e308:	e0822003 	add	r2, r2, r3
    e30c:	e5c52000 	strb	r2, [r5]
    e310:	ebfff9c6 	bl	ca30 <uart1_transmit>
    e314:	e5d43000 	ldrb	r3, [r4]
    e318:	e0866003 	add	r6, r6, r3
    e31c:	e3a03f4b 	mov	r3, #300	; 0x12c
    e320:	e5c46000 	strb	r6, [r4]
    e324:	e14b34bc 	strh	r3, [fp, #-76]
    e328:	e5d52000 	ldrb	r2, [r5]
    e32c:	e55b604c 	ldrb	r6, [fp, #-76]
    e330:	e5d43000 	ldrb	r3, [r4]
    e334:	e1a00006 	mov	r0, r6
    e338:	e0822003 	add	r2, r2, r3
    e33c:	e5c52000 	strb	r2, [r5]
    e340:	ebfff9ba 	bl	ca30 <uart1_transmit>
    e344:	e5d43000 	ldrb	r3, [r4]
    e348:	e0866003 	add	r6, r6, r3
    e34c:	e5c46000 	strb	r6, [r4]
    e350:	e5d52000 	ldrb	r2, [r5]
    e354:	e55b604b 	ldrb	r6, [fp, #-75]
    e358:	e5d43000 	ldrb	r3, [r4]
    e35c:	e1a00006 	mov	r0, r6
    e360:	e0822003 	add	r2, r2, r3
    e364:	e5c52000 	strb	r2, [r5]
    e368:	ebfff9b0 	bl	ca30 <uart1_transmit>
    e36c:	e5d43000 	ldrb	r3, [r4]
    e370:	e0866003 	add	r6, r6, r3
    e374:	e3a0300f 	mov	r3, #15	; 0xf
    e378:	e5c46000 	strb	r6, [r4]
    e37c:	e14b34be 	strh	r3, [fp, #-78]
    e380:	e5d52000 	ldrb	r2, [r5]
    e384:	e55b604e 	ldrb	r6, [fp, #-78]
    e388:	e5d43000 	ldrb	r3, [r4]
    e38c:	e1a00006 	mov	r0, r6
    e390:	e0822003 	add	r2, r2, r3
    e394:	e5c52000 	strb	r2, [r5]
    e398:	ebfff9a4 	bl	ca30 <uart1_transmit>
    e39c:	e5d43000 	ldrb	r3, [r4]
    e3a0:	e0866003 	add	r6, r6, r3
    e3a4:	e5c46000 	strb	r6, [r4]
    e3a8:	e5d52000 	ldrb	r2, [r5]
    e3ac:	e55b604d 	ldrb	r6, [fp, #-77]
    e3b0:	e5d43000 	ldrb	r3, [r4]
    e3b4:	e1a00006 	mov	r0, r6
    e3b8:	e0822003 	add	r2, r2, r3
    e3bc:	e5c52000 	strb	r2, [r5]
    e3c0:	ebfff99a 	bl	ca30 <uart1_transmit>
    e3c4:	e5d43000 	ldrb	r3, [r4]
    e3c8:	e0866003 	add	r6, r6, r3
    e3cc:	e5c46000 	strb	r6, [r4]
    e3d0:	e5d53000 	ldrb	r3, [r5]
    e3d4:	e5d42000 	ldrb	r2, [r4]
    e3d8:	e1a00007 	mov	r0, r7
    e3dc:	e0833002 	add	r3, r3, r2
    e3e0:	e5c53000 	strb	r3, [r5]
    e3e4:	e54b704f 	strb	r7, [fp, #-79]
    e3e8:	ebfff990 	bl	ca30 <uart1_transmit>
    e3ec:	e5d42000 	ldrb	r2, [r4]
    e3f0:	e5d53000 	ldrb	r3, [r5]
    e3f4:	e1a00007 	mov	r0, r7
    e3f8:	e0833002 	add	r3, r3, r2
    e3fc:	e5c53000 	strb	r3, [r5]
    e400:	e54b7050 	strb	r7, [fp, #-80]
    e404:	ebfff989 	bl	ca30 <uart1_transmit>
    e408:	e5d53000 	ldrb	r3, [r5]
    e40c:	e5d40000 	ldrb	r0, [r4]
    e410:	e0833000 	add	r3, r3, r0
    e414:	e5c53000 	strb	r3, [r5]
    e418:	ebfff984 	bl	ca30 <uart1_transmit>
    e41c:	e5d50000 	ldrb	r0, [r5]
    e420:	ebfff982 	bl	ca30 <uart1_transmit>
    e424:	e3a000b5 	mov	r0, #181	; 0xb5
    e428:	ebfff980 	bl	ca30 <uart1_transmit>
    e42c:	e3a00062 	mov	r0, #98	; 0x62
    e430:	ebfff97e 	bl	ca30 <uart1_transmit>
    e434:	e1a00009 	mov	r0, r9
    e438:	e5c57000 	strb	r7, [r5]
    e43c:	e5c47000 	strb	r7, [r4]
    e440:	ebfff97a 	bl	ca30 <uart1_transmit>
    e444:	e5d43000 	ldrb	r3, [r4]
    e448:	e0833009 	add	r3, r3, r9
    e44c:	e5c43000 	strb	r3, [r4]
    e450:	e5d53000 	ldrb	r3, [r5]
    e454:	e5d42000 	ldrb	r2, [r4]
    e458:	e1a0000a 	mov	r0, sl
    e45c:	e0833002 	add	r3, r3, r2
    e460:	e5c53000 	strb	r3, [r5]
    e464:	ebfff971 	bl	ca30 <uart1_transmit>
    e468:	e5d43000 	ldrb	r3, [r4]
    e46c:	e083300a 	add	r3, r3, sl
    e470:	e5c43000 	strb	r3, [r4]
    e474:	e5d53000 	ldrb	r3, [r5]
    e478:	e5d42000 	ldrb	r2, [r4]
    e47c:	e1a00009 	mov	r0, r9
    e480:	e0833002 	add	r3, r3, r2
    e484:	e5c53000 	strb	r3, [r5]
    e488:	ebfff968 	bl	ca30 <uart1_transmit>
    e48c:	e5d43000 	ldrb	r3, [r4]
    e490:	e0833009 	add	r3, r3, r9
    e494:	e5c43000 	strb	r3, [r4]
    e498:	e5d53000 	ldrb	r3, [r5]
    e49c:	e5d42000 	ldrb	r2, [r4]
    e4a0:	e1a00007 	mov	r0, r7
    e4a4:	e0833002 	add	r3, r3, r2
    e4a8:	e5c53000 	strb	r3, [r5]
    e4ac:	ebfff95f 	bl	ca30 <uart1_transmit>
    e4b0:	e5d53000 	ldrb	r3, [r5]
    e4b4:	e5d42000 	ldrb	r2, [r4]
    e4b8:	e1a0000a 	mov	r0, sl
    e4bc:	e0833002 	add	r3, r3, r2
    e4c0:	e5c53000 	strb	r3, [r5]
    e4c4:	e54ba051 	strb	sl, [fp, #-81]
    e4c8:	ebfff958 	bl	ca30 <uart1_transmit>
    e4cc:	e5d43000 	ldrb	r3, [r4]
    e4d0:	e083300a 	add	r3, r3, sl
    e4d4:	e5c43000 	strb	r3, [r4]
    e4d8:	e5d53000 	ldrb	r3, [r5]
    e4dc:	e5d42000 	ldrb	r2, [r4]
    e4e0:	e3a01008 	mov	r1, #8	; 0x8
    e4e4:	e1a00001 	mov	r0, r1
    e4e8:	e0833002 	add	r3, r3, r2
    e4ec:	e54b1052 	strb	r1, [fp, #-82]
    e4f0:	e5c53000 	strb	r3, [r5]
    e4f4:	ebfff94d 	bl	ca30 <uart1_transmit>
    e4f8:	e5d43000 	ldrb	r3, [r4]
    e4fc:	e2833008 	add	r3, r3, #8	; 0x8
    e500:	e5c43000 	strb	r3, [r4]
    e504:	e5d53000 	ldrb	r3, [r5]
    e508:	e5d42000 	ldrb	r2, [r4]
    e50c:	e1a00007 	mov	r0, r7
    e510:	e0833002 	add	r3, r3, r2
    e514:	e5c53000 	strb	r3, [r5]
    e518:	e54b7053 	strb	r7, [fp, #-83]
    e51c:	ebfff943 	bl	ca30 <uart1_transmit>
    e520:	e5d53000 	ldrb	r3, [r5]
    e524:	e5d42000 	ldrb	r2, [r4]
    e528:	e1a0000a 	mov	r0, sl
    e52c:	e0833002 	add	r3, r3, r2
    e530:	e5c53000 	strb	r3, [r5]
    e534:	e54ba054 	strb	sl, [fp, #-84]
    e538:	ebfff93c 	bl	ca30 <uart1_transmit>
    e53c:	e5d43000 	ldrb	r3, [r4]
    e540:	e083300a 	add	r3, r3, sl
    e544:	e5c43000 	strb	r3, [r4]
    e548:	e5d53000 	ldrb	r3, [r5]
    e54c:	e5d42000 	ldrb	r2, [r4]
    e550:	e1a00007 	mov	r0, r7
    e554:	e0833002 	add	r3, r3, r2
    e558:	e5c53000 	strb	r3, [r5]
    e55c:	e54b7055 	strb	r7, [fp, #-85]
    e560:	ebfff932 	bl	ca30 <uart1_transmit>
    e564:	e5d42000 	ldrb	r2, [r4]
    e568:	e5d53000 	ldrb	r3, [r5]
    e56c:	e1a00007 	mov	r0, r7
    e570:	e0833002 	add	r3, r3, r2
    e574:	e5c53000 	strb	r3, [r5]
    e578:	e54b7056 	strb	r7, [fp, #-86]
    e57c:	ebfff92b 	bl	ca30 <uart1_transmit>
    e580:	e5d53000 	ldrb	r3, [r5]
    e584:	e5d40000 	ldrb	r0, [r4]
    e588:	e0833000 	add	r3, r3, r0
    e58c:	e5c53000 	strb	r3, [r5]
    e590:	ebfff926 	bl	ca30 <uart1_transmit>
    e594:	e5d50000 	ldrb	r0, [r5]
    e598:	ebfff924 	bl	ca30 <uart1_transmit>
    e59c:	e3a000b5 	mov	r0, #181	; 0xb5
    e5a0:	ebfff922 	bl	ca30 <uart1_transmit>
    e5a4:	e3a00062 	mov	r0, #98	; 0x62
    e5a8:	ebfff920 	bl	ca30 <uart1_transmit>
    e5ac:	e1a00009 	mov	r0, r9
    e5b0:	e5c57000 	strb	r7, [r5]
    e5b4:	e5c47000 	strb	r7, [r4]
    e5b8:	ebfff91c 	bl	ca30 <uart1_transmit>
    e5bc:	e5d43000 	ldrb	r3, [r4]
    e5c0:	e0833009 	add	r3, r3, r9
    e5c4:	e5c43000 	strb	r3, [r4]
    e5c8:	e5d53000 	ldrb	r3, [r5]
    e5cc:	e5d42000 	ldrb	r2, [r4]
    e5d0:	e1a0000a 	mov	r0, sl
    e5d4:	e0833002 	add	r3, r3, r2
    e5d8:	e5c53000 	strb	r3, [r5]
    e5dc:	ebfff913 	bl	ca30 <uart1_transmit>
    e5e0:	e5d43000 	ldrb	r3, [r4]
    e5e4:	e083300a 	add	r3, r3, sl
    e5e8:	e5c43000 	strb	r3, [r4]
    e5ec:	e5d53000 	ldrb	r3, [r5]
    e5f0:	e5d42000 	ldrb	r2, [r4]
    e5f4:	e1a00009 	mov	r0, r9
    e5f8:	e0833002 	add	r3, r3, r2
    e5fc:	e5c53000 	strb	r3, [r5]
    e600:	ebfff90a 	bl	ca30 <uart1_transmit>
    e604:	e5d43000 	ldrb	r3, [r4]
    e608:	e0833009 	add	r3, r3, r9
    e60c:	e5c43000 	strb	r3, [r4]
    e610:	e5d53000 	ldrb	r3, [r5]
    e614:	e5d42000 	ldrb	r2, [r4]
    e618:	e1a00007 	mov	r0, r7
    e61c:	e0833002 	add	r3, r3, r2
    e620:	e5c53000 	strb	r3, [r5]
    e624:	ebfff901 	bl	ca30 <uart1_transmit>
    e628:	e5d53000 	ldrb	r3, [r5]
    e62c:	e5d42000 	ldrb	r2, [r4]
    e630:	e1a0000a 	mov	r0, sl
    e634:	e0833002 	add	r3, r3, r2
    e638:	e5c53000 	strb	r3, [r5]
    e63c:	e54ba057 	strb	sl, [fp, #-87]
    e640:	ebfff8fa 	bl	ca30 <uart1_transmit>
    e644:	e5d43000 	ldrb	r3, [r4]
    e648:	e083300a 	add	r3, r3, sl
    e64c:	e5c43000 	strb	r3, [r4]
    e650:	e5d53000 	ldrb	r3, [r5]
    e654:	e5d42000 	ldrb	r2, [r4]
    e658:	e3a01012 	mov	r1, #18	; 0x12
    e65c:	e1a00001 	mov	r0, r1
    e660:	e0833002 	add	r3, r3, r2
    e664:	e54b1058 	strb	r1, [fp, #-88]
    e668:	e5c53000 	strb	r3, [r5]
    e66c:	ebfff8ef 	bl	ca30 <uart1_transmit>
    e670:	e5d43000 	ldrb	r3, [r4]
    e674:	e2833012 	add	r3, r3, #18	; 0x12
    e678:	e5c43000 	strb	r3, [r4]
    e67c:	e5d53000 	ldrb	r3, [r5]
    e680:	e5d42000 	ldrb	r2, [r4]
    e684:	e1a00007 	mov	r0, r7
    e688:	e0833002 	add	r3, r3, r2
    e68c:	e5c53000 	strb	r3, [r5]
    e690:	e54b7059 	strb	r7, [fp, #-89]
    e694:	ebfff8e5 	bl	ca30 <uart1_transmit>
    e698:	e5d53000 	ldrb	r3, [r5]
    e69c:	e5d42000 	ldrb	r2, [r4]
    e6a0:	e1a0000a 	mov	r0, sl
    e6a4:	e0833002 	add	r3, r3, r2
    e6a8:	e5c53000 	strb	r3, [r5]
    e6ac:	e54ba05a 	strb	sl, [fp, #-90]
    e6b0:	ebfff8de 	bl	ca30 <uart1_transmit>
    e6b4:	e5d43000 	ldrb	r3, [r4]
    e6b8:	e083300a 	add	r3, r3, sl
    e6bc:	e5c43000 	strb	r3, [r4]
    e6c0:	e5d53000 	ldrb	r3, [r5]
    e6c4:	e5d42000 	ldrb	r2, [r4]
    e6c8:	e1a00007 	mov	r0, r7
    e6cc:	e0833002 	add	r3, r3, r2
    e6d0:	e5c53000 	strb	r3, [r5]
    e6d4:	e54b705b 	strb	r7, [fp, #-91]
    e6d8:	ebfff8d4 	bl	ca30 <uart1_transmit>
    e6dc:	e5d42000 	ldrb	r2, [r4]
    e6e0:	e5d53000 	ldrb	r3, [r5]
    e6e4:	e1a00007 	mov	r0, r7
    e6e8:	e0833002 	add	r3, r3, r2
    e6ec:	e5c53000 	strb	r3, [r5]
    e6f0:	e54b705c 	strb	r7, [fp, #-92]
    e6f4:	ebfff8cd 	bl	ca30 <uart1_transmit>
    e6f8:	e5d53000 	ldrb	r3, [r5]
    e6fc:	e5d40000 	ldrb	r0, [r4]
    e700:	e0833000 	add	r3, r3, r0
    e704:	e5c53000 	strb	r3, [r5]
    e708:	ebfff8c8 	bl	ca30 <uart1_transmit>
    e70c:	e5d50000 	ldrb	r0, [r5]
    e710:	ebfff8c6 	bl	ca30 <uart1_transmit>
    e714:	e3a000b5 	mov	r0, #181	; 0xb5
    e718:	ebfff8c4 	bl	ca30 <uart1_transmit>
    e71c:	e3a00062 	mov	r0, #98	; 0x62
    e720:	ebfff8c2 	bl	ca30 <uart1_transmit>
    e724:	e1a00009 	mov	r0, r9
    e728:	e5c57000 	strb	r7, [r5]
    e72c:	e5c47000 	strb	r7, [r4]
    e730:	ebfff8be 	bl	ca30 <uart1_transmit>
    e734:	e5d43000 	ldrb	r3, [r4]
    e738:	e0833009 	add	r3, r3, r9
    e73c:	e5c43000 	strb	r3, [r4]
    e740:	e5d53000 	ldrb	r3, [r5]
    e744:	e5d42000 	ldrb	r2, [r4]
    e748:	e1a0000a 	mov	r0, sl
    e74c:	e0833002 	add	r3, r3, r2
    e750:	e5c53000 	strb	r3, [r5]
    e754:	ebfff8b5 	bl	ca30 <uart1_transmit>
    e758:	e5d43000 	ldrb	r3, [r4]
    e75c:	e083300a 	add	r3, r3, sl
    e760:	e5c43000 	strb	r3, [r4]
    e764:	e5d53000 	ldrb	r3, [r5]
    e768:	e5d42000 	ldrb	r2, [r4]
    e76c:	e1a00009 	mov	r0, r9
    e770:	e0833002 	add	r3, r3, r2
    e774:	e5c53000 	strb	r3, [r5]
    e778:	ebfff8ac 	bl	ca30 <uart1_transmit>
    e77c:	e5d43000 	ldrb	r3, [r4]
    e780:	e0833009 	add	r3, r3, r9
    e784:	e5c43000 	strb	r3, [r4]
    e788:	e5d53000 	ldrb	r3, [r5]
    e78c:	e5d42000 	ldrb	r2, [r4]
    e790:	e1a00007 	mov	r0, r7
    e794:	e0833002 	add	r3, r3, r2
    e798:	e5c53000 	strb	r3, [r5]
    e79c:	ebfff8a3 	bl	ca30 <uart1_transmit>
    e7a0:	e5d53000 	ldrb	r3, [r5]
    e7a4:	e5d42000 	ldrb	r2, [r4]
    e7a8:	e1a0000a 	mov	r0, sl
    e7ac:	e0833002 	add	r3, r3, r2
    e7b0:	e5c53000 	strb	r3, [r5]
    e7b4:	e54ba05d 	strb	sl, [fp, #-93]
    e7b8:	ebfff89c 	bl	ca30 <uart1_transmit>
    e7bc:	e5d43000 	ldrb	r3, [r4]
    e7c0:	e083300a 	add	r3, r3, sl
    e7c4:	e5c43000 	strb	r3, [r4]
    e7c8:	e5d52000 	ldrb	r2, [r5]
    e7cc:	e5d43000 	ldrb	r3, [r4]
    e7d0:	e3a00003 	mov	r0, #3	; 0x3
    e7d4:	e0822003 	add	r2, r2, r3
    e7d8:	e3a03003 	mov	r3, #3	; 0x3
    e7dc:	e5c52000 	strb	r2, [r5]
    e7e0:	e54b305e 	strb	r3, [fp, #-94]
    e7e4:	ebfff891 	bl	ca30 <uart1_transmit>
    e7e8:	e5d43000 	ldrb	r3, [r4]
    e7ec:	e2833003 	add	r3, r3, #3	; 0x3
    e7f0:	e5c43000 	strb	r3, [r4]
    e7f4:	e5d53000 	ldrb	r3, [r5]
    e7f8:	e5d42000 	ldrb	r2, [r4]
    e7fc:	e1a00007 	mov	r0, r7
    e800:	e0833002 	add	r3, r3, r2
    e804:	e5c53000 	strb	r3, [r5]
    e808:	e54b705f 	strb	r7, [fp, #-95]
    e80c:	ebfff887 	bl	ca30 <uart1_transmit>
    e810:	e5d53000 	ldrb	r3, [r5]
    e814:	e5d42000 	ldrb	r2, [r4]
    e818:	e1a0000a 	mov	r0, sl
    e81c:	e0833002 	add	r3, r3, r2
    e820:	e5c53000 	strb	r3, [r5]
    e824:	e54ba060 	strb	sl, [fp, #-96]
    e828:	ebfff880 	bl	ca30 <uart1_transmit>
    e82c:	e5d43000 	ldrb	r3, [r4]
    e830:	e083300a 	add	r3, r3, sl
    e834:	e5c43000 	strb	r3, [r4]
    e838:	e5d53000 	ldrb	r3, [r5]
    e83c:	e5d42000 	ldrb	r2, [r4]
    e840:	e1a00007 	mov	r0, r7
    e844:	e0833002 	add	r3, r3, r2
    e848:	e5c53000 	strb	r3, [r5]
    e84c:	e54b7061 	strb	r7, [fp, #-97]
    e850:	ebfff876 	bl	ca30 <uart1_transmit>
    e854:	e5d42000 	ldrb	r2, [r4]
    e858:	e5d53000 	ldrb	r3, [r5]
    e85c:	e1a00007 	mov	r0, r7
    e860:	e0833002 	add	r3, r3, r2
    e864:	e5c53000 	strb	r3, [r5]
    e868:	e54b7062 	strb	r7, [fp, #-98]
    e86c:	ebfff86f 	bl	ca30 <uart1_transmit>
    e870:	e5d53000 	ldrb	r3, [r5]
    e874:	e5d40000 	ldrb	r0, [r4]
    e878:	e0833000 	add	r3, r3, r0
    e87c:	e5c53000 	strb	r3, [r5]
    e880:	ebfff86a 	bl	ca30 <uart1_transmit>
    e884:	e5d50000 	ldrb	r0, [r5]
    e888:	ebfff868 	bl	ca30 <uart1_transmit>
    e88c:	e3a000b5 	mov	r0, #181	; 0xb5
    e890:	ebfff866 	bl	ca30 <uart1_transmit>
    e894:	e3a00062 	mov	r0, #98	; 0x62
    e898:	ebfff864 	bl	ca30 <uart1_transmit>
    e89c:	e1a00009 	mov	r0, r9
    e8a0:	e5c57000 	strb	r7, [r5]
    e8a4:	e5c47000 	strb	r7, [r4]
    e8a8:	ebfff860 	bl	ca30 <uart1_transmit>
    e8ac:	e5d43000 	ldrb	r3, [r4]
    e8b0:	e0833009 	add	r3, r3, r9
    e8b4:	e5c43000 	strb	r3, [r4]
    e8b8:	e5d53000 	ldrb	r3, [r5]
    e8bc:	e5d42000 	ldrb	r2, [r4]
    e8c0:	e1a0000a 	mov	r0, sl
    e8c4:	e0833002 	add	r3, r3, r2
    e8c8:	e5c53000 	strb	r3, [r5]
    e8cc:	ebfff857 	bl	ca30 <uart1_transmit>
    e8d0:	e5d43000 	ldrb	r3, [r4]
    e8d4:	e083300a 	add	r3, r3, sl
    e8d8:	e5c43000 	strb	r3, [r4]
    e8dc:	e5d53000 	ldrb	r3, [r5]
    e8e0:	e5d42000 	ldrb	r2, [r4]
    e8e4:	e1a00009 	mov	r0, r9
    e8e8:	e0833002 	add	r3, r3, r2
    e8ec:	e5c53000 	strb	r3, [r5]
    e8f0:	ebfff84e 	bl	ca30 <uart1_transmit>
    e8f4:	e5d43000 	ldrb	r3, [r4]
    e8f8:	e0833009 	add	r3, r3, r9
    e8fc:	e5c43000 	strb	r3, [r4]
    e900:	e5d53000 	ldrb	r3, [r5]
    e904:	e5d42000 	ldrb	r2, [r4]
    e908:	e1a00007 	mov	r0, r7
    e90c:	e0833002 	add	r3, r3, r2
    e910:	e5c53000 	strb	r3, [r5]
    e914:	ebfff845 	bl	ca30 <uart1_transmit>
    e918:	e5d53000 	ldrb	r3, [r5]
    e91c:	e5d42000 	ldrb	r2, [r4]
    e920:	e1a0000a 	mov	r0, sl
    e924:	e0833002 	add	r3, r3, r2
    e928:	e5c53000 	strb	r3, [r5]
    e92c:	e54ba063 	strb	sl, [fp, #-99]
    e930:	ebfff83e 	bl	ca30 <uart1_transmit>
    e934:	e5d43000 	ldrb	r3, [r4]
    e938:	e083300a 	add	r3, r3, sl
    e93c:	e5c43000 	strb	r3, [r4]
    e940:	e5d53000 	ldrb	r3, [r5]
    e944:	e5d42000 	ldrb	r2, [r4]
    e948:	e3a01030 	mov	r1, #48	; 0x30
    e94c:	e0833002 	add	r3, r3, r2
    e950:	e1a00001 	mov	r0, r1
    e954:	e54b1064 	strb	r1, [fp, #-100]
    e958:	e5c53000 	strb	r3, [r5]
    e95c:	ebfff833 	bl	ca30 <uart1_transmit>
    e960:	e5d43000 	ldrb	r3, [r4]
    e964:	e2833030 	add	r3, r3, #48	; 0x30
    e968:	e5c43000 	strb	r3, [r4]
    e96c:	e5d53000 	ldrb	r3, [r5]
    e970:	e5d42000 	ldrb	r2, [r4]
    e974:	e1a00007 	mov	r0, r7
    e978:	e0833002 	add	r3, r3, r2
    e97c:	e5c53000 	strb	r3, [r5]
    e980:	e54b7065 	strb	r7, [fp, #-101]
    e984:	ebfff829 	bl	ca30 <uart1_transmit>
    e988:	e5d53000 	ldrb	r3, [r5]
    e98c:	e5d42000 	ldrb	r2, [r4]
    e990:	e3a01004 	mov	r1, #4	; 0x4
    e994:	e1a00001 	mov	r0, r1
    e998:	e0833002 	add	r3, r3, r2
    e99c:	e54b1066 	strb	r1, [fp, #-102]
    e9a0:	e5c53000 	strb	r3, [r5]
    e9a4:	ebfff821 	bl	ca30 <uart1_transmit>
    e9a8:	e5d43000 	ldrb	r3, [r4]
    e9ac:	e2833004 	add	r3, r3, #4	; 0x4
    e9b0:	e5c43000 	strb	r3, [r4]
    e9b4:	e5d53000 	ldrb	r3, [r5]
    e9b8:	e5d42000 	ldrb	r2, [r4]
    e9bc:	e1a00007 	mov	r0, r7
    e9c0:	e0833002 	add	r3, r3, r2
    e9c4:	e5c53000 	strb	r3, [r5]
    e9c8:	e54b7067 	strb	r7, [fp, #-103]
    e9cc:	ebfff817 	bl	ca30 <uart1_transmit>
    e9d0:	e5d42000 	ldrb	r2, [r4]
    e9d4:	e5d53000 	ldrb	r3, [r5]
    e9d8:	e1a00007 	mov	r0, r7
    e9dc:	e0833002 	add	r3, r3, r2
    e9e0:	e5c53000 	strb	r3, [r5]
    e9e4:	e54b7068 	strb	r7, [fp, #-104]
    e9e8:	ebfff810 	bl	ca30 <uart1_transmit>
    e9ec:	e5d53000 	ldrb	r3, [r5]
    e9f0:	e5d40000 	ldrb	r0, [r4]
    e9f4:	e0833000 	add	r3, r3, r0
    e9f8:	e5c53000 	strb	r3, [r5]
    e9fc:	ebfff80b 	bl	ca30 <uart1_transmit>
    ea00:	e5d50000 	ldrb	r0, [r5]
    ea04:	ebfff809 	bl	ca30 <uart1_transmit>
    ea08:	e3a000b5 	mov	r0, #181	; 0xb5
    ea0c:	ebfff807 	bl	ca30 <uart1_transmit>
    ea10:	e3a00062 	mov	r0, #98	; 0x62
    ea14:	ebfff805 	bl	ca30 <uart1_transmit>
    ea18:	e1a00009 	mov	r0, r9
    ea1c:	e5c57000 	strb	r7, [r5]
    ea20:	e5c47000 	strb	r7, [r4]
    ea24:	ebfff801 	bl	ca30 <uart1_transmit>
    ea28:	e5d43000 	ldrb	r3, [r4]
    ea2c:	e0833009 	add	r3, r3, r9
    ea30:	e5c43000 	strb	r3, [r4]
    ea34:	e5d53000 	ldrb	r3, [r5]
    ea38:	e5d42000 	ldrb	r2, [r4]
    ea3c:	e3a00016 	mov	r0, #22	; 0x16
    ea40:	e0833002 	add	r3, r3, r2
    ea44:	e5c53000 	strb	r3, [r5]
    ea48:	ebfff7f8 	bl	ca30 <uart1_transmit>
    ea4c:	e5d43000 	ldrb	r3, [r4]
    ea50:	e2833016 	add	r3, r3, #22	; 0x16
    ea54:	e5c43000 	strb	r3, [r4]
    ea58:	e5d53000 	ldrb	r3, [r5]
    ea5c:	e5d42000 	ldrb	r2, [r4]
    ea60:	e24880f2 	sub	r8, r8, #242	; 0xf2
    ea64:	e0833002 	add	r3, r3, r2
    ea68:	e1a00008 	mov	r0, r8
    ea6c:	e5c53000 	strb	r3, [r5]
    ea70:	ebfff7ee 	bl	ca30 <uart1_transmit>
    ea74:	e5d43000 	ldrb	r3, [r4]
    ea78:	e0833008 	add	r3, r3, r8
    ea7c:	e5c43000 	strb	r3, [r4]
    ea80:	e5d53000 	ldrb	r3, [r5]
    ea84:	e5d42000 	ldrb	r2, [r4]
    ea88:	e1a00007 	mov	r0, r7
    ea8c:	e0833002 	add	r3, r3, r2
    ea90:	e5c53000 	strb	r3, [r5]
    ea94:	ebfff7e5 	bl	ca30 <uart1_transmit>
    ea98:	e5d53000 	ldrb	r3, [r5]
    ea9c:	e5d42000 	ldrb	r2, [r4]
    eaa0:	e1a00007 	mov	r0, r7
    eaa4:	e0833002 	add	r3, r3, r2
    eaa8:	e5c53000 	strb	r3, [r5]
    eaac:	e54b7069 	strb	r7, [fp, #-105]
    eab0:	ebfff7de 	bl	ca30 <uart1_transmit>
    eab4:	e5d53000 	ldrb	r3, [r5]
    eab8:	e5d42000 	ldrb	r2, [r4]
    eabc:	e1a00007 	mov	r0, r7
    eac0:	e0833002 	add	r3, r3, r2
    eac4:	e5c53000 	strb	r3, [r5]
    eac8:	e54b706a 	strb	r7, [fp, #-106]
    eacc:	ebfff7d7 	bl	ca30 <uart1_transmit>
    ead0:	e5d53000 	ldrb	r3, [r5]
    ead4:	e5d42000 	ldrb	r2, [r4]
    ead8:	e1a00007 	mov	r0, r7
    eadc:	e0833002 	add	r3, r3, r2
    eae0:	e5c53000 	strb	r3, [r5]
    eae4:	e54b706b 	strb	r7, [fp, #-107]
    eae8:	ebfff7d0 	bl	ca30 <uart1_transmit>
    eaec:	e5d53000 	ldrb	r3, [r5]
    eaf0:	e5d42000 	ldrb	r2, [r4]
    eaf4:	e1a00007 	mov	r0, r7
    eaf8:	e0833002 	add	r3, r3, r2
    eafc:	e5c53000 	strb	r3, [r5]
    eb00:	e54b706c 	strb	r7, [fp, #-108]
    eb04:	ebfff7c9 	bl	ca30 <uart1_transmit>
    eb08:	e50b7080 	str	r7, [fp, #-128]
    eb0c:	e5d52000 	ldrb	r2, [r5]
    eb10:	e55b6080 	ldrb	r6, [fp, #-128]
    eb14:	e5d43000 	ldrb	r3, [r4]
    eb18:	ea000002 	b	eb28 <.text+0xab28>
    eb1c:	40000f4c 	andmi	r0, r0, ip, asr #30
    eb20:	40000f48 	andmi	r0, r0, r8, asr #30
    eb24:	000080c0 	andeq	r8, r0, r0, asr #1
    eb28:	e1a00006 	mov	r0, r6
    eb2c:	e0822003 	add	r2, r2, r3
    eb30:	e5c52000 	strb	r2, [r5]
    eb34:	ebfff7bd 	bl	ca30 <uart1_transmit>
    eb38:	e5d43000 	ldrb	r3, [r4]
    eb3c:	e0866003 	add	r6, r6, r3
    eb40:	e5c46000 	strb	r6, [r4]
    eb44:	e5d52000 	ldrb	r2, [r5]
    eb48:	e55b607f 	ldrb	r6, [fp, #-127]
    eb4c:	e5d43000 	ldrb	r3, [r4]
    eb50:	e1a00006 	mov	r0, r6
    eb54:	e0822003 	add	r2, r2, r3
    eb58:	e5c52000 	strb	r2, [r5]
    eb5c:	ebfff7b3 	bl	ca30 <uart1_transmit>
    eb60:	e5d43000 	ldrb	r3, [r4]
    eb64:	e0866003 	add	r6, r6, r3
    eb68:	e5c46000 	strb	r6, [r4]
    eb6c:	e5d52000 	ldrb	r2, [r5]
    eb70:	e55b607e 	ldrb	r6, [fp, #-126]
    eb74:	e5d43000 	ldrb	r3, [r4]
    eb78:	e1a00006 	mov	r0, r6
    eb7c:	e0822003 	add	r2, r2, r3
    eb80:	e5c52000 	strb	r2, [r5]
    eb84:	ebfff7a9 	bl	ca30 <uart1_transmit>
    eb88:	e5d43000 	ldrb	r3, [r4]
    eb8c:	e0866003 	add	r6, r6, r3
    eb90:	e5c46000 	strb	r6, [r4]
    eb94:	e5d52000 	ldrb	r2, [r5]
    eb98:	e55b607d 	ldrb	r6, [fp, #-125]
    eb9c:	e5d43000 	ldrb	r3, [r4]
    eba0:	e1a00006 	mov	r0, r6
    eba4:	e0822003 	add	r2, r2, r3
    eba8:	e5c52000 	strb	r2, [r5]
    ebac:	ebfff79f 	bl	ca30 <uart1_transmit>
    ebb0:	e5d43000 	ldrb	r3, [r4]
    ebb4:	e0866003 	add	r6, r6, r3
    ebb8:	e5c46000 	strb	r6, [r4]
    ebbc:	e5d53000 	ldrb	r3, [r5]
    ebc0:	e5d40000 	ldrb	r0, [r4]
    ebc4:	e0833000 	add	r3, r3, r0
    ebc8:	e5c53000 	strb	r3, [r5]
    ebcc:	ebfff797 	bl	ca30 <uart1_transmit>
    ebd0:	e5d50000 	ldrb	r0, [r5]
    ebd4:	ebfff795 	bl	ca30 <uart1_transmit>
    ebd8:	e3a000b5 	mov	r0, #181	; 0xb5
    ebdc:	ebfff793 	bl	ca30 <uart1_transmit>
    ebe0:	e3a00062 	mov	r0, #98	; 0x62
    ebe4:	ebfff791 	bl	ca30 <uart1_transmit>
    ebe8:	e1a00009 	mov	r0, r9
    ebec:	e5c57000 	strb	r7, [r5]
    ebf0:	e5c47000 	strb	r7, [r4]
    ebf4:	ebfff78d 	bl	ca30 <uart1_transmit>
    ebf8:	e5d43000 	ldrb	r3, [r4]
    ebfc:	e0833009 	add	r3, r3, r9
    ec00:	e5c43000 	strb	r3, [r4]
    ec04:	e5d53000 	ldrb	r3, [r5]
    ec08:	e5d42000 	ldrb	r2, [r4]
    ec0c:	e1a00008 	mov	r0, r8
    ec10:	e0833002 	add	r3, r3, r2
    ec14:	e5c53000 	strb	r3, [r5]
    ec18:	ebfff784 	bl	ca30 <uart1_transmit>
    ec1c:	e5d43000 	ldrb	r3, [r4]
    ec20:	e0833008 	add	r3, r3, r8
    ec24:	e5c43000 	strb	r3, [r4]
    ec28:	e5d53000 	ldrb	r3, [r5]
    ec2c:	e5d42000 	ldrb	r2, [r4]
    ec30:	e1a00009 	mov	r0, r9
    ec34:	e0833002 	add	r3, r3, r2
    ec38:	e5c53000 	strb	r3, [r5]
    ec3c:	ebfff77b 	bl	ca30 <uart1_transmit>
    ec40:	e5d43000 	ldrb	r3, [r4]
    ec44:	e0833009 	add	r3, r3, r9
    ec48:	e5c43000 	strb	r3, [r4]
    ec4c:	e5d53000 	ldrb	r3, [r5]
    ec50:	e5d42000 	ldrb	r2, [r4]
    ec54:	e1a00007 	mov	r0, r7
    ec58:	e0833002 	add	r3, r3, r2
    ec5c:	e5c53000 	strb	r3, [r5]
    ec60:	ebfff772 	bl	ca30 <uart1_transmit>
    ec64:	e3a030fa 	mov	r3, #250	; 0xfa
    ec68:	e14b36be 	strh	r3, [fp, #-110]
    ec6c:	e5d52000 	ldrb	r2, [r5]
    ec70:	e55b606e 	ldrb	r6, [fp, #-110]
    ec74:	e5d43000 	ldrb	r3, [r4]
    ec78:	e1a00006 	mov	r0, r6
    ec7c:	e0822003 	add	r2, r2, r3
    ec80:	e5c52000 	strb	r2, [r5]
    ec84:	ebfff769 	bl	ca30 <uart1_transmit>
    ec88:	e5d43000 	ldrb	r3, [r4]
    ec8c:	e0866003 	add	r6, r6, r3
    ec90:	e5c46000 	strb	r6, [r4]
    ec94:	e5d52000 	ldrb	r2, [r5]
    ec98:	e55b606d 	ldrb	r6, [fp, #-109]
    ec9c:	e5d43000 	ldrb	r3, [r4]
    eca0:	e1a00006 	mov	r0, r6
    eca4:	e0822003 	add	r2, r2, r3
    eca8:	e5c52000 	strb	r2, [r5]
    ecac:	ebfff75f 	bl	ca30 <uart1_transmit>
    ecb0:	e5d43000 	ldrb	r3, [r4]
    ecb4:	e0866003 	add	r6, r6, r3
    ecb8:	e5c46000 	strb	r6, [r4]
    ecbc:	e14ba7b0 	strh	sl, [fp, #-112]
    ecc0:	e5d52000 	ldrb	r2, [r5]
    ecc4:	e55b6070 	ldrb	r6, [fp, #-112]
    ecc8:	e5d43000 	ldrb	r3, [r4]
    eccc:	e1a00006 	mov	r0, r6
    ecd0:	e0822003 	add	r2, r2, r3
    ecd4:	e5c52000 	strb	r2, [r5]
    ecd8:	ebfff754 	bl	ca30 <uart1_transmit>
    ecdc:	e5d43000 	ldrb	r3, [r4]
    ece0:	e0866003 	add	r6, r6, r3
    ece4:	e5c46000 	strb	r6, [r4]
    ece8:	e5d52000 	ldrb	r2, [r5]
    ecec:	e55b606f 	ldrb	r6, [fp, #-111]
    ecf0:	e5d43000 	ldrb	r3, [r4]
    ecf4:	e1a00006 	mov	r0, r6
    ecf8:	e0822003 	add	r2, r2, r3
    ecfc:	e5c52000 	strb	r2, [r5]
    ed00:	ebfff74a 	bl	ca30 <uart1_transmit>
    ed04:	e5d43000 	ldrb	r3, [r4]
    ed08:	e0866003 	add	r6, r6, r3
    ed0c:	e5c46000 	strb	r6, [r4]
    ed10:	e14b77b2 	strh	r7, [fp, #-114]
    ed14:	e5d52000 	ldrb	r2, [r5]
    ed18:	e55b6072 	ldrb	r6, [fp, #-114]
    ed1c:	e5d43000 	ldrb	r3, [r4]
    ed20:	e1a00006 	mov	r0, r6
    ed24:	e0822003 	add	r2, r2, r3
    ed28:	e5c52000 	strb	r2, [r5]
    ed2c:	ebfff73f 	bl	ca30 <uart1_transmit>
    ed30:	e5d43000 	ldrb	r3, [r4]
    ed34:	e0866003 	add	r6, r6, r3
    ed38:	e5c46000 	strb	r6, [r4]
    ed3c:	e5d52000 	ldrb	r2, [r5]
    ed40:	e55b6071 	ldrb	r6, [fp, #-113]
    ed44:	e5d43000 	ldrb	r3, [r4]
    ed48:	e1a00006 	mov	r0, r6
    ed4c:	e0822003 	add	r2, r2, r3
    ed50:	e5c52000 	strb	r2, [r5]
    ed54:	ebfff735 	bl	ca30 <uart1_transmit>
    ed58:	e5d43000 	ldrb	r3, [r4]
    ed5c:	e0866003 	add	r6, r6, r3
    ed60:	e5c46000 	strb	r6, [r4]
    ed64:	e5d53000 	ldrb	r3, [r5]
    ed68:	e5d42000 	ldrb	r2, [r4]
    ed6c:	e1a00002 	mov	r0, r2
    ed70:	e0833002 	add	r3, r3, r2
    ed74:	e5c53000 	strb	r3, [r5]
    ed78:	ebfff72c 	bl	ca30 <uart1_transmit>
    ed7c:	e5d50000 	ldrb	r0, [r5]
    ed80:	ebfff72a 	bl	ca30 <uart1_transmit>
    ed84:	e24bd028 	sub	sp, fp, #40	; 0x28
    ed88:	e89d6ff0 	ldmia	sp, {r4, r5, r6, r7, r8, r9, sl, fp, sp, lr}
    ed8c:	e12fff1e 	bx	lr

0000ed90 <parse_gps_msg>:
    ed90:	e1a0c00d 	mov	ip, sp
    ed94:	e92ddff0 	stmdb	sp!, {r4, r5, r6, r7, r8, r9, sl, fp, ip, lr, pc}
    ed98:	e59f3170 	ldr	r3, [pc, #368]	; ef10 <.text+0xaf10>
    ed9c:	e5d35000 	ldrb	r5, [r3]
    eda0:	e3550001 	cmp	r5, #1	; 0x1
    eda4:	e24cb004 	sub	fp, ip, #4	; 0x4
    eda8:	1a000056 	bne	ef08 <parse_gps_msg+0x178>
    edac:	e59f3160 	ldr	r3, [pc, #352]	; ef14 <.text+0xaf14>
    edb0:	e5d33000 	ldrb	r3, [r3]
    edb4:	e3530008 	cmp	r3, #8	; 0x8
    edb8:	1a00000d 	bne	edf4 <parse_gps_msg+0x64>
    edbc:	e59f3154 	ldr	r3, [pc, #340]	; ef18 <.text+0xaf18>
    edc0:	e5932000 	ldr	r2, [r3]
    edc4:	e5d3c00c 	ldrb	ip, [r3, #12]
    edc8:	e5931004 	ldr	r1, [r3, #4]
    edcc:	e5930008 	ldr	r0, [r3, #8]
    edd0:	e59f3144 	ldr	r3, [pc, #324]	; ef1c <.text+0xaf1c>
    edd4:	e5832000 	str	r2, [r3]
    edd8:	e59f3140 	ldr	r3, [pc, #320]	; ef20 <.text+0xaf20>
    eddc:	e5831000 	str	r1, [r3]
    ede0:	e59f313c 	ldr	r3, [pc, #316]	; ef24 <.text+0xaf24>
    ede4:	e5830000 	str	r0, [r3]
    ede8:	e59f3138 	ldr	r3, [pc, #312]	; ef28 <.text+0xaf28>
    edec:	e5c3c000 	strb	ip, [r3]
    edf0:	ea000044 	b	ef08 <parse_gps_msg+0x178>
    edf4:	e3530003 	cmp	r3, #3	; 0x3
    edf8:	059f3118 	ldreq	r3, [pc, #280]	; ef18 <.text+0xaf18>
    edfc:	05d32000 	ldreqb	r2, [r3]
    ee00:	059f3124 	ldreq	r3, [pc, #292]	; ef2c <.text+0xaf2c>
    ee04:	05c32000 	streqb	r2, [r3]
    ee08:	0a00003e 	beq	ef08 <parse_gps_msg+0x178>
    ee0c:	e3530012 	cmp	r3, #18	; 0x12
    ee10:	1a000012 	bne	ee60 <parse_gps_msg+0xd0>
    ee14:	e59f4114 	ldr	r4, [pc, #276]	; ef30 <.text+0xaf30>
    ee18:	e5142008 	ldr	r2, [r4, #-8]
    ee1c:	e59f3110 	ldr	r3, [pc, #272]	; ef34 <.text+0xaf34>
    ee20:	e2622000 	rsb	r2, r2, #0	; 0x0
    ee24:	e1c320b0 	strh	r2, [r3]
    ee28:	e1d420b0 	ldrh	r2, [r4]
    ee2c:	e59f3104 	ldr	r3, [pc, #260]	; ef38 <.text+0xaf38>
    ee30:	e5940004 	ldr	r0, [r4, #4]
    ee34:	e1c320b0 	strh	r2, [r3]
    ee38:	e59f10fc 	ldr	r1, [pc, #252]	; ef3c <.text+0xaf3c>
    ee3c:	eb00245e 	bl	17fbc <____divsi3_from_arm>
    ee40:	e59f30f8 	ldr	r3, [pc, #248]	; ef40 <.text+0xaf40>
    ee44:	e5142014 	ldr	r2, [r4, #-20]
    ee48:	e1c300b0 	strh	r0, [r3]
    ee4c:	e59f30f0 	ldr	r3, [pc, #240]	; ef44 <.text+0xaf44>
    ee50:	e5832000 	str	r2, [r3]
    ee54:	e59f30ec 	ldr	r3, [pc, #236]	; ef48 <.text+0xaf48>
    ee58:	e5c35000 	strb	r5, [r3]
    ee5c:	ea000029 	b	ef08 <parse_gps_msg+0x178>
    ee60:	e3530030 	cmp	r3, #48	; 0x30
    ee64:	1a000027 	bne	ef08 <parse_gps_msg+0x178>
    ee68:	e59f30a8 	ldr	r3, [pc, #168]	; ef18 <.text+0xaf18>
    ee6c:	e59fc0d8 	ldr	ip, [pc, #216]	; ef4c <.text+0xaf4c>
    ee70:	e5d33000 	ldrb	r3, [r3]
    ee74:	e3a04000 	mov	r4, #0	; 0x0
    ee78:	e5cc3000 	strb	r3, [ip]
    ee7c:	ea00000d 	b	eeb8 <parse_gps_msg+0x128>
    ee80:	e7d2c100 	ldrb	ip, [r2, r0, lsl #2]
    ee84:	e7da2100 	ldrb	r2, [sl, r0, lsl #2]
    ee88:	e7d13100 	ldrb	r3, [r1, r0, lsl #2]
    ee8c:	e19660b8 	ldrh	r6, [r6, r8]
    ee90:	e7d91100 	ldrb	r1, [r9, r0, lsl #2]
    ee94:	e7d50100 	ldrb	r0, [r5, r0, lsl #2]
    ee98:	e5ce2002 	strb	r2, [lr, #2]
    ee9c:	e59f20ac 	ldr	r2, [pc, #172]	; ef50 <.text+0xaf50>
    eea0:	e1ce60b6 	strh	r6, [lr, #6]
    eea4:	e5ce3001 	strb	r3, [lr, #1]
    eea8:	e5ce1003 	strb	r1, [lr, #3]
    eeac:	e5cec004 	strb	ip, [lr, #4]
    eeb0:	e7c20184 	strb	r0, [r2, r4, lsl #3]
    eeb4:	e20740ff 	and	r4, r7, #255	; 0xff
    eeb8:	e59f3090 	ldr	r3, [pc, #144]	; ef50 <.text+0xaf50>
    eebc:	e59fc088 	ldr	ip, [pc, #136]	; ef4c <.text+0xaf4c>
    eec0:	e083e184 	add	lr, r3, r4, lsl #3
    eec4:	e5dc3000 	ldrb	r3, [ip]
    eec8:	e59f5084 	ldr	r5, [pc, #132]	; ef54 <.text+0xaf54>
    eecc:	e0840084 	add	r0, r4, r4, lsl #1
    eed0:	e353000f 	cmp	r3, #15	; 0xf
    eed4:	e2851001 	add	r1, r5, #1	; 0x1
    eed8:	e285a002 	add	sl, r5, #2	; 0x2
    eedc:	e2859003 	add	r9, r5, #3	; 0x3
    eee0:	e2852004 	add	r2, r5, #4	; 0x4
    eee4:	e2858005 	add	r8, r5, #5	; 0x5
    eee8:	e2847001 	add	r7, r4, #1	; 0x1
    eeec:	e1a06100 	mov	r6, r0, lsl #2
    eef0:	8a000002 	bhi	ef00 <parse_gps_msg+0x170>
    eef4:	e1540003 	cmp	r4, r3
    eef8:	baffffe0 	blt	ee80 <parse_gps_msg+0xf0>
    eefc:	ea000001 	b	ef08 <parse_gps_msg+0x178>
    ef00:	e354000f 	cmp	r4, #15	; 0xf
    ef04:	daffffdd 	ble	ee80 <parse_gps_msg+0xf0>
    ef08:	e89d6ff0 	ldmia	sp, {r4, r5, r6, r7, r8, r9, sl, fp, sp, lr}
    ef0c:	e12fff1e 	bx	lr
    ef10:	40000f38 	andmi	r0, r0, r8, lsr pc
    ef14:	40000f39 	andmi	r0, r0, r9, lsr pc
    ef18:	40000e34 	andmi	r0, r0, r4, lsr lr
    ef1c:	40000f40 	andmi	r0, r0, r0, asr #30
    ef20:	40000f3c 	andmi	r0, r0, ip, lsr pc
    ef24:	40000f30 	andmi	r0, r0, r0, lsr pc
    ef28:	40000f56 	andmi	r0, r0, r6, asr pc
    ef2c:	40000f55 	andmi	r0, r0, r5, asr pc
    ef30:	40000e44 	andmi	r0, r0, r4, asr #28
    ef34:	40000f34 	andmi	r0, r0, r4, lsr pc
    ef38:	40000f4a 	andmi	r0, r0, sl, asr #30
    ef3c:	00002710 	andeq	r2, r0, r0, lsl r7
    ef40:	40000f46 	andmi	r0, r0, r6, asr #30
    ef44:	40000f50 	andmi	r0, r0, r0, asr pc
    ef48:	40000f54 	andmi	r0, r0, r4, asr pc
    ef4c:	40000f37 	andmi	r0, r0, r7, lsr pc
    ef50:	40000f58 	andmi	r0, r0, r8, asr pc
    ef54:	40000e39 	andmi	r0, r0, r9, lsr lr

0000ef58 <parse_ubx>:
    ef58:	e52de004 	str	lr, [sp, #-4]!
    ef5c:	e59fe198 	ldr	lr, [pc, #408]	; f0fc <.text+0xb0fc>
    ef60:	e5dec000 	ldrb	ip, [lr]
    ef64:	e35c0006 	cmp	ip, #6	; 0x6
    ef68:	e20000ff 	and	r0, r0, #255	; 0xff
    ef6c:	8a000008 	bhi	ef94 <parse_ubx+0x3c>
    ef70:	e59f2188 	ldr	r2, [pc, #392]	; f100 <.text+0xb100>
    ef74:	e5d23000 	ldrb	r3, [r2]
    ef78:	e0803003 	add	r3, r0, r3
    ef7c:	e5c23000 	strb	r3, [r2]
    ef80:	e59f117c 	ldr	r1, [pc, #380]	; f104 <.text+0xb104>
    ef84:	e5d22000 	ldrb	r2, [r2]
    ef88:	e5d13000 	ldrb	r3, [r1]
    ef8c:	e0833002 	add	r3, r3, r2
    ef90:	e5c13000 	strb	r3, [r1]
    ef94:	e35c0008 	cmp	ip, #8	; 0x8
    ef98:	979ff10c 	ldrls	pc, [pc, ip, lsl #2]
    ef9c:	ea000054 	b	f0f4 <.text+0xb0f4>
    efa0:	0000efc4 	andeq	lr, r0, r4, asr #31
    efa4:	0000efd0 	ldreqd	lr, [r0], -r0
    efa8:	0000effc 	streqd	lr, [r0], -ip
    efac:	0000f02c 	andeq	pc, r0, ip, lsr #32
    efb0:	0000f040 	andeq	pc, r0, r0, asr #32
    efb4:	0000f054 	andeq	pc, r0, r4, asr r0
    efb8:	0000f088 	andeq	pc, r0, r8, lsl #1
    efbc:	0000f0b8 	streqh	pc, [r0], -r8
    efc0:	0000f0d4 	ldreqd	pc, [r0], -r4
    efc4:	e35000b5 	cmp	r0, #181	; 0xb5
    efc8:	1a000049 	bne	f0f4 <.text+0xb0f4>
    efcc:	ea00003d 	b	f0c8 <.text+0xb0c8>
    efd0:	e3500062 	cmp	r0, #98	; 0x62
    efd4:	1a000044 	bne	f0ec <.text+0xb0ec>
    efd8:	e59f3124 	ldr	r3, [pc, #292]	; f104 <.text+0xb104>
    efdc:	e5de2000 	ldrb	r2, [lr]
    efe0:	e3a01000 	mov	r1, #0	; 0x0
    efe4:	e5c31000 	strb	r1, [r3]
    efe8:	e59f3110 	ldr	r3, [pc, #272]	; f100 <.text+0xb100>
    efec:	e2822001 	add	r2, r2, #1	; 0x1
    eff0:	e5ce2000 	strb	r2, [lr]
    eff4:	e5c31000 	strb	r1, [r3]
    eff8:	ea00003d 	b	f0f4 <.text+0xb0f4>
    effc:	e59f3104 	ldr	r3, [pc, #260]	; f108 <.text+0xb108>
    f000:	e5d33000 	ldrb	r3, [r3]
    f004:	e3530000 	cmp	r3, #0	; 0x0
    f008:	159f20fc 	ldrne	r2, [pc, #252]	; f10c <.text+0xb10c>
    f00c:	15d23000 	ldrneb	r3, [r2]
    f010:	12833001 	addne	r3, r3, #1	; 0x1
    f014:	15c23000 	strneb	r3, [r2]
    f018:	1a000033 	bne	f0ec <.text+0xb0ec>
    f01c:	e5de3000 	ldrb	r3, [lr]
    f020:	e59f20e8 	ldr	r2, [pc, #232]	; f110 <.text+0xb110>
    f024:	e2833001 	add	r3, r3, #1	; 0x1
    f028:	ea000002 	b	f038 <.text+0xb038>
    f02c:	e5de3000 	ldrb	r3, [lr]
    f030:	e59f20dc 	ldr	r2, [pc, #220]	; f114 <.text+0xb114>
    f034:	e2833001 	add	r3, r3, #1	; 0x1
    f038:	e5c20000 	strb	r0, [r2]
    f03c:	ea00002b 	b	f0f0 <.text+0xb0f0>
    f040:	e5de3000 	ldrb	r3, [lr]
    f044:	e59f20cc 	ldr	r2, [pc, #204]	; f118 <.text+0xb118>
    f048:	e2833001 	add	r3, r3, #1	; 0x1
    f04c:	e1c200b0 	strh	r0, [r2]
    f050:	ea000026 	b	f0f0 <.text+0xb0f0>
    f054:	e59f30bc 	ldr	r3, [pc, #188]	; f118 <.text+0xb118>
    f058:	e1d320b0 	ldrh	r2, [r3]
    f05c:	e1822400 	orr	r2, r2, r0, lsl #8
    f060:	e1c320b0 	strh	r2, [r3]
    f064:	e1d330b0 	ldrh	r3, [r3]
    f068:	e35300ff 	cmp	r3, #255	; 0xff
    f06c:	8a00001e 	bhi	f0ec <.text+0xb0ec>
    f070:	e5de3000 	ldrb	r3, [lr]
    f074:	e59f20a0 	ldr	r2, [pc, #160]	; f11c <.text+0xb11c>
    f078:	e3a01000 	mov	r1, #0	; 0x0
    f07c:	e2833001 	add	r3, r3, #1	; 0x1
    f080:	e5c21000 	strb	r1, [r2]
    f084:	ea000019 	b	f0f0 <.text+0xb0f0>
    f088:	e59f308c 	ldr	r3, [pc, #140]	; f11c <.text+0xb11c>
    f08c:	e5d31000 	ldrb	r1, [r3]
    f090:	e2812001 	add	r2, r1, #1	; 0x1
    f094:	e5c32000 	strb	r2, [r3]
    f098:	e5d32000 	ldrb	r2, [r3]
    f09c:	e59f3074 	ldr	r3, [pc, #116]	; f118 <.text+0xb118>
    f0a0:	e1d330b0 	ldrh	r3, [r3]
    f0a4:	e1520003 	cmp	r2, r3
    f0a8:	e59f3070 	ldr	r3, [pc, #112]	; f120 <.text+0xb120>
    f0ac:	e7c30001 	strb	r0, [r3, r1]
    f0b0:	3a00000f 	bcc	f0f4 <.text+0xb0f4>
    f0b4:	ea000003 	b	f0c8 <.text+0xb0c8>
    f0b8:	e59f3040 	ldr	r3, [pc, #64]	; f100 <.text+0xb100>
    f0bc:	e5d33000 	ldrb	r3, [r3]
    f0c0:	e1530000 	cmp	r3, r0
    f0c4:	1a000008 	bne	f0ec <.text+0xb0ec>
    f0c8:	e5de3000 	ldrb	r3, [lr]
    f0cc:	e2833001 	add	r3, r3, #1	; 0x1
    f0d0:	ea000006 	b	f0f0 <.text+0xb0f0>
    f0d4:	e59f3028 	ldr	r3, [pc, #40]	; f104 <.text+0xb104>
    f0d8:	e5d33000 	ldrb	r3, [r3]
    f0dc:	e1530000 	cmp	r3, r0
    f0e0:	059f3020 	ldreq	r3, [pc, #32]	; f108 <.text+0xb108>
    f0e4:	03a02001 	moveq	r2, #1	; 0x1
    f0e8:	05c32000 	streqb	r2, [r3]
    f0ec:	e3a03000 	mov	r3, #0	; 0x0
    f0f0:	e5ce3000 	strb	r3, [lr]
    f0f4:	e49de004 	ldr	lr, [sp], #4
    f0f8:	e12fff1e 	bx	lr
    f0fc:	40000560 	andmi	r0, r0, r0, ror #10
    f100:	40000565 	andmi	r0, r0, r5, ror #10
    f104:	40000566 	andmi	r0, r0, r6, ror #10
    f108:	40000f36 	andmi	r0, r0, r6, lsr pc
    f10c:	40000f44 	andmi	r0, r0, r4, asr #30
    f110:	40000f38 	andmi	r0, r0, r8, lsr pc
    f114:	40000f39 	andmi	r0, r0, r9, lsr pc
    f118:	40000562 	andmi	r0, r0, r2, ror #10
    f11c:	40000564 	andmi	r0, r0, r4, ror #10
    f120:	40000e30 	andmi	r0, r0, r0, lsr lr

0000f124 <estimator_update_state_gps>:
    f124:	e1a0c00d 	mov	ip, sp
    f128:	e92dd870 	stmdb	sp!, {r4, r5, r6, fp, ip, lr, pc}
    f12c:	e59f31a0 	ldr	r3, [pc, #416]	; f2d4 <.text+0xb2d4>
    f130:	e24cb004 	sub	fp, ip, #4	; 0x4
    f134:	e5930000 	ldr	r0, [r3]
    f138:	eb001ff4 	bl	17110 <__floatsidf>
    f13c:	e28f2e17 	add	r2, pc, #368	; 0x170
    f140:	e892000c 	ldmia	r2, {r2, r3}
    f144:	eb0020ad 	bl	17400 <__divdf3>
    f148:	e59f3188 	ldr	r3, [pc, #392]	; f2d8 <.text+0xb2d8>
    f14c:	e1a05001 	mov	r5, r1
    f150:	e1a04000 	mov	r4, r0
    f154:	e5930000 	ldr	r0, [r3]
    f158:	eb001fec 	bl	17110 <__floatsidf>
    f15c:	e1a03001 	mov	r3, r1
    f160:	e1a02000 	mov	r2, r0
    f164:	e1a01005 	mov	r1, r5
    f168:	e1a00004 	mov	r0, r4
    f16c:	eb001f1b 	bl	16de0 <__subdf3>
    f170:	eb0021a9 	bl	1781c <__truncdfsf2>
    f174:	e59f3160 	ldr	r3, [pc, #352]	; f2dc <.text+0xb2dc>
    f178:	e1a06000 	mov	r6, r0
    f17c:	e5930000 	ldr	r0, [r3]
    f180:	eb001fe2 	bl	17110 <__floatsidf>
    f184:	e28f2f4a 	add	r2, pc, #296	; 0x128
    f188:	e892000c 	ldmia	r2, {r2, r3}
    f18c:	eb00209b 	bl	17400 <__divdf3>
    f190:	e59f3148 	ldr	r3, [pc, #328]	; f2e0 <.text+0xb2e0>
    f194:	e1a05001 	mov	r5, r1
    f198:	e1a04000 	mov	r4, r0
    f19c:	e5930000 	ldr	r0, [r3]
    f1a0:	eb001fda 	bl	17110 <__floatsidf>
    f1a4:	e1a03001 	mov	r3, r1
    f1a8:	e1a02000 	mov	r2, r0
    f1ac:	e1a01005 	mov	r1, r5
    f1b0:	e1a00004 	mov	r0, r4
    f1b4:	eb001f09 	bl	16de0 <__subdf3>
    f1b8:	eb002197 	bl	1781c <__truncdfsf2>
    f1bc:	e59f3120 	ldr	r3, [pc, #288]	; f2e4 <.text+0xb2e4>
    f1c0:	e1a04000 	mov	r4, r0
    f1c4:	e5930000 	ldr	r0, [r3]
    f1c8:	eb001fd0 	bl	17110 <__floatsidf>
    f1cc:	e28f20e0 	add	r2, pc, #224	; 0xe0
    f1d0:	e892000c 	ldmia	r2, {r2, r3}
    f1d4:	eb002089 	bl	17400 <__divdf3>
    f1d8:	eb00218f 	bl	1781c <__truncdfsf2>
    f1dc:	e59f5104 	ldr	r5, [pc, #260]	; f2e8 <.text+0xb2e8>
    f1e0:	e5d53000 	ldrb	r3, [r5]
    f1e4:	e3530000 	cmp	r3, #0	; 0x0
    f1e8:	e59f30fc 	ldr	r3, [pc, #252]	; f2ec <.text+0xb2ec>
    f1ec:	e5836000 	str	r6, [r3]
    f1f0:	e59f30f8 	ldr	r3, [pc, #248]	; f2f0 <.text+0xb2f0>
    f1f4:	e5834000 	str	r4, [r3]
    f1f8:	059f30f4 	ldreq	r3, [pc, #244]	; f2f4 <.text+0xb2f4>
    f1fc:	e1a02000 	mov	r2, r0
    f200:	05832000 	streq	r2, [r3]
    f204:	1b000867 	blne	113a8 <alt_kalman>
    f208:	e59f30e8 	ldr	r3, [pc, #232]	; f2f8 <.text+0xb2f8>
    f20c:	e1d300b0 	ldrh	r0, [r3]
    f210:	eb001fbe 	bl	17110 <__floatsidf>
    f214:	e28f2098 	add	r2, pc, #152	; 0x98
    f218:	e892000c 	ldmia	r2, {r2, r3}
    f21c:	eb002077 	bl	17400 <__divdf3>
    f220:	eb00217d 	bl	1781c <__truncdfsf2>
    f224:	e59f30d0 	ldr	r3, [pc, #208]	; f2fc <.text+0xb2fc>
    f228:	e1a04000 	mov	r4, r0
    f22c:	e1d300f0 	ldrsh	r0, [r3]
    f230:	eb001fb6 	bl	17110 <__floatsidf>
    f234:	e28f2078 	add	r2, pc, #120	; 0x78
    f238:	e892000c 	ldmia	r2, {r2, r3}
    f23c:	eb00206f 	bl	17400 <__divdf3>
    f240:	eb002175 	bl	1781c <__truncdfsf2>
    f244:	e59f30b4 	ldr	r3, [pc, #180]	; f300 <.text+0xb300>
    f248:	e1a06000 	mov	r6, r0
    f24c:	e1d300f0 	ldrsh	r0, [r3]
    f250:	eb001fae 	bl	17110 <__floatsidf>
    f254:	e28f2060 	add	r2, pc, #96	; 0x60
    f258:	e892000c 	ldmia	r2, {r2, r3}
    f25c:	eb002067 	bl	17400 <__divdf3>
    f260:	e28f205c 	add	r2, pc, #92	; 0x5c
    f264:	e892000c 	ldmia	r2, {r2, r3}
    f268:	eb002064 	bl	17400 <__divdf3>
    f26c:	e28f2058 	add	r2, pc, #88	; 0x58
    f270:	e892000c 	ldmia	r2, {r2, r3}
    f274:	eb001fc3 	bl	17188 <__muldf3>
    f278:	eb002167 	bl	1781c <__truncdfsf2>
    f27c:	e59f3080 	ldr	r3, [pc, #128]	; f304 <.text+0xb304>
    f280:	e1d310b0 	ldrh	r1, [r3]
    f284:	e59f307c 	ldr	r3, [pc, #124]	; f308 <.text+0xb308>
    f288:	e5d52000 	ldrb	r2, [r5]
    f28c:	e5834000 	str	r4, [r3]
    f290:	e59f3074 	ldr	r3, [pc, #116]	; f30c <.text+0xb30c>
    f294:	e3520000 	cmp	r2, #0	; 0x0
    f298:	e5830000 	str	r0, [r3]
    f29c:	059f306c 	ldreq	r3, [pc, #108]	; f310 <.text+0xb310>
    f2a0:	05836000 	streq	r6, [r3]
    f2a4:	e3510000 	cmp	r1, #0	; 0x0
    f2a8:	1b00047e 	blne	104a8 <estimator_update_ir_estim>
    f2ac:	e89d6870 	ldmia	sp, {r4, r5, r6, fp, sp, lr}
    f2b0:	e12fff1e 	bx	lr
    f2b4:	40590000 	submis	r0, r9, r0
    f2b8:	00000000 	andeq	r0, r0, r0
    f2bc:	40240000 	eormi	r0, r4, r0
    f2c0:	00000000 	andeq	r0, r0, r0
    f2c4:	40668000 	rsbmi	r8, r6, r0
    f2c8:	00000000 	andeq	r0, r0, r0
    f2cc:	400921fb 	strmid	r2, [r9], -fp
    f2d0:	54442d18 	strplb	r2, [r4], #-3352
    f2d4:	40000f40 	andmi	r0, r0, r0, asr #30
    f2d8:	40000088 	andmi	r0, r0, r8, lsl #1
    f2dc:	40000f3c 	andmi	r0, r0, ip, lsr pc
    f2e0:	40000084 	andmi	r0, r0, r4, lsl #1
    f2e4:	40000f30 	andmi	r0, r0, r0, lsr pc
    f2e8:	40001074 	andmi	r1, r0, r4, ror r0
    f2ec:	40001060 	andmi	r1, r0, r0, rrx
    f2f0:	40001078 	andmi	r1, r0, r8, ror r0
    f2f4:	4000103c 	andmi	r1, r0, ip, lsr r0
    f2f8:	40000f4a 	andmi	r0, r0, sl, asr #30
    f2fc:	40000f34 	andmi	r0, r0, r4, lsr pc
    f300:	40000f46 	andmi	r0, r0, r6, asr #30
    f304:	40001034 	andmi	r1, r0, r4, lsr r0
    f308:	40001058 	andmi	r1, r0, r8, asr r0
    f30c:	40001068 	andmi	r1, r0, r8, rrx
    f310:	40001030 	andmi	r1, r0, r0, lsr r0

0000f314 <use_gps_pos>:
    f314:	e1a0c00d 	mov	ip, sp
    f318:	e92dd9f0 	stmdb	sp!, {r4, r5, r6, r7, r8, fp, ip, lr, pc}
    f31c:	e59f5ae8 	ldr	r5, [pc, #2792]	; fe0c <.text+0xbe0c>
    f320:	e5d53000 	ldrb	r3, [r5]
    f324:	e3530003 	cmp	r3, #3	; 0x3
    f328:	e24cb004 	sub	fp, ip, #4	; 0x4
    f32c:	059f2adc 	ldreq	r2, [pc, #2780]	; fe10 <.text+0xbe10>
    f330:	059f3adc 	ldreq	r3, [pc, #2780]	; fe14 <.text+0xbe14>
    f334:	01d220b0 	ldreqh	r2, [r2]
    f338:	01c320b0 	streqh	r2, [r3]
    f33c:	0bffff78 	bleq	f124 <estimator_update_state_gps>
    f340:	e59f8ad0 	ldr	r8, [pc, #2768]	; fe18 <.text+0xbe18>
    f344:	e59f1ad0 	ldr	r1, [pc, #2768]	; fe1c <.text+0xbe1c>
    f348:	e5d83000 	ldrb	r3, [r8]
    f34c:	e5d12000 	ldrb	r2, [r1]
    f350:	e1520003 	cmp	r2, r3
    f354:	25d83000 	ldrcsb	r3, [r8]
    f358:	35d83000 	ldrccb	r3, [r8]
    f35c:	20633002 	rsbcs	r3, r3, r2
    f360:	30623003 	rsbcc	r3, r2, r3
    f364:	226330ff 	rsbcs	r3, r3, #255	; 0xff
    f368:	e353001f 	cmp	r3, #31	; 0x1f
    f36c:	d59f2aac 	ldrle	r2, [pc, #2732]	; fe20 <.text+0xbe20>
    f370:	d5d23000 	ldrleb	r3, [r2]
    f374:	d2833001 	addle	r3, r3, #1	; 0x1
    f378:	d5c23000 	strleb	r3, [r2]
    f37c:	da0001bf 	ble	fa80 <use_gps_pos+0x76c>
    f380:	e5d12000 	ldrb	r2, [r1]
    f384:	e2823001 	add	r3, r2, #1	; 0x1
    f388:	e5c13000 	strb	r3, [r1]
    f38c:	e5d13000 	ldrb	r3, [r1]
    f390:	e59f6a8c 	ldr	r6, [pc, #2700]	; fe24 <.text+0xbe24>
    f394:	e35300ff 	cmp	r3, #255	; 0xff
    f398:	e3e03066 	mvn	r3, #102	; 0x66
    f39c:	e7c63002 	strb	r3, [r6, r2]
    f3a0:	02833067 	addeq	r3, r3, #103	; 0x67
    f3a4:	e59fca70 	ldr	ip, [pc, #2672]	; fe1c <.text+0xbe1c>
    f3a8:	05c13000 	streqb	r3, [r1]
    f3ac:	e5dc2000 	ldrb	r2, [ip]
    f3b0:	e2823001 	add	r3, r2, #1	; 0x1
    f3b4:	e5cc3000 	strb	r3, [ip]
    f3b8:	e5dc3000 	ldrb	r3, [ip]
    f3bc:	e35300ff 	cmp	r3, #255	; 0xff
    f3c0:	e3a0301f 	mov	r3, #31	; 0x1f
    f3c4:	e7c63002 	strb	r3, [r6, r2]
    f3c8:	0243301f 	subeq	r3, r3, #31	; 0x1f
    f3cc:	05cc3000 	streqb	r3, [ip]
    f3d0:	e5dc2000 	ldrb	r2, [ip]
    f3d4:	e2823001 	add	r3, r2, #1	; 0x1
    f3d8:	e5cc3000 	strb	r3, [ip]
    f3dc:	e5dc3000 	ldrb	r3, [ip]
    f3e0:	e59fea40 	ldr	lr, [pc, #2624]	; fe28 <.text+0xbe28>
    f3e4:	e59f4a40 	ldr	r4, [pc, #2624]	; fe2c <.text+0xbe2c>
    f3e8:	e35300ff 	cmp	r3, #255	; 0xff
    f3ec:	e3a03026 	mov	r3, #38	; 0x26
    f3f0:	e5ce3000 	strb	r3, [lr]
    f3f4:	e283301f 	add	r3, r3, #31	; 0x1f
    f3f8:	e5c43000 	strb	r3, [r4]
    f3fc:	e243303e 	sub	r3, r3, #62	; 0x3e
    f400:	e7c63002 	strb	r3, [r6, r2]
    f404:	02433007 	subeq	r3, r3, #7	; 0x7
    f408:	05cc3000 	streqb	r3, [ip]
    f40c:	e5dc2000 	ldrb	r2, [ip]
    f410:	e2823001 	add	r3, r2, #1	; 0x1
    f414:	e5cc3000 	strb	r3, [ip]
    f418:	e5dc3000 	ldrb	r3, [ip]
    f41c:	e35300ff 	cmp	r3, #255	; 0xff
    f420:	e3a0302e 	mov	r3, #46	; 0x2e
    f424:	e5ce3000 	strb	r3, [lr]
    f428:	e2833045 	add	r3, r3, #69	; 0x45
    f42c:	e5c43000 	strb	r3, [r4]
    f430:	e243306b 	sub	r3, r3, #107	; 0x6b
    f434:	e7c63002 	strb	r3, [r6, r2]
    f438:	02433008 	subeq	r3, r3, #8	; 0x8
    f43c:	05cc3000 	streqb	r3, [ip]
    f440:	e5d50000 	ldrb	r0, [r5]
    f444:	e5dc1000 	ldrb	r1, [ip]
    f448:	e280302e 	add	r3, r0, #46	; 0x2e
    f44c:	e2812001 	add	r2, r1, #1	; 0x1
    f450:	e5cc2000 	strb	r2, [ip]
    f454:	e5ce3000 	strb	r3, [lr]
    f458:	e5dc3000 	ldrb	r3, [ip]
    f45c:	e5de5000 	ldrb	r5, [lr]
    f460:	e35300ff 	cmp	r3, #255	; 0xff
    f464:	e2853073 	add	r3, r5, #115	; 0x73
    f468:	e5c43000 	strb	r3, [r4]
    f46c:	03a03000 	moveq	r3, #0	; 0x0
    f470:	05cc3000 	streqb	r3, [ip]
    f474:	e59f79b4 	ldr	r7, [pc, #2484]	; fe30 <.text+0xbe30>
    f478:	e7c60001 	strb	r0, [r6, r1]
    f47c:	e5dc0000 	ldrb	r0, [ip]
    f480:	e5d71000 	ldrb	r1, [r7]
    f484:	e2802001 	add	r2, r0, #1	; 0x1
    f488:	e0813005 	add	r3, r1, r5
    f48c:	e5ce3000 	strb	r3, [lr]
    f490:	e5cc2000 	strb	r2, [ip]
    f494:	e5dc3000 	ldrb	r3, [ip]
    f498:	e35300ff 	cmp	r3, #255	; 0xff
    f49c:	e5de5000 	ldrb	r5, [lr]
    f4a0:	e5d42000 	ldrb	r2, [r4]
    f4a4:	024330ff 	subeq	r3, r3, #255	; 0xff
    f4a8:	05cc3000 	streqb	r3, [ip]
    f4ac:	e0822005 	add	r2, r2, r5
    f4b0:	e5c42000 	strb	r2, [r4]
    f4b4:	e7c61000 	strb	r1, [r6, r0]
    f4b8:	e5dc0000 	ldrb	r0, [ip]
    f4bc:	e5d71001 	ldrb	r1, [r7, #1]
    f4c0:	e2802001 	add	r2, r0, #1	; 0x1
    f4c4:	e5cc2000 	strb	r2, [ip]
    f4c8:	e0813005 	add	r3, r1, r5
    f4cc:	e5ce3000 	strb	r3, [lr]
    f4d0:	e5dc3000 	ldrb	r3, [ip]
    f4d4:	e35300ff 	cmp	r3, #255	; 0xff
    f4d8:	e5de5000 	ldrb	r5, [lr]
    f4dc:	e5d42000 	ldrb	r2, [r4]
    f4e0:	024330ff 	subeq	r3, r3, #255	; 0xff
    f4e4:	05cc3000 	streqb	r3, [ip]
    f4e8:	e0822005 	add	r2, r2, r5
    f4ec:	e5c42000 	strb	r2, [r4]
    f4f0:	e7c61000 	strb	r1, [r6, r0]
    f4f4:	e5dc0000 	ldrb	r0, [ip]
    f4f8:	e5d71002 	ldrb	r1, [r7, #2]
    f4fc:	e2802001 	add	r2, r0, #1	; 0x1
    f500:	e5cc2000 	strb	r2, [ip]
    f504:	e0813005 	add	r3, r1, r5
    f508:	e5ce3000 	strb	r3, [lr]
    f50c:	e5dc3000 	ldrb	r3, [ip]
    f510:	e5de5000 	ldrb	r5, [lr]
    f514:	e35300ff 	cmp	r3, #255	; 0xff
    f518:	e5d42000 	ldrb	r2, [r4]
    f51c:	024330ff 	subeq	r3, r3, #255	; 0xff
    f520:	05cc3000 	streqb	r3, [ip]
    f524:	e0822005 	add	r2, r2, r5
    f528:	e5c42000 	strb	r2, [r4]
    f52c:	e7c61000 	strb	r1, [r6, r0]
    f530:	e5dc1000 	ldrb	r1, [ip]
    f534:	e5d70003 	ldrb	r0, [r7, #3]
    f538:	e2812001 	add	r2, r1, #1	; 0x1
    f53c:	e0803005 	add	r3, r0, r5
    f540:	e5cc2000 	strb	r2, [ip]
    f544:	e5ce3000 	strb	r3, [lr]
    f548:	e5dc3000 	ldrb	r3, [ip]
    f54c:	e5de5000 	ldrb	r5, [lr]
    f550:	e5d42000 	ldrb	r2, [r4]
    f554:	e35300ff 	cmp	r3, #255	; 0xff
    f558:	e0822005 	add	r2, r2, r5
    f55c:	024330ff 	subeq	r3, r3, #255	; 0xff
    f560:	e5c42000 	strb	r2, [r4]
    f564:	05cc3000 	streqb	r3, [ip]
    f568:	e7c60001 	strb	r0, [r6, r1]
    f56c:	e59f78c0 	ldr	r7, [pc, #2240]	; fe34 <.text+0xbe34>
    f570:	e5dc0000 	ldrb	r0, [ip]
    f574:	e5d71000 	ldrb	r1, [r7]
    f578:	e2802001 	add	r2, r0, #1	; 0x1
    f57c:	e5cc2000 	strb	r2, [ip]
    f580:	e0813005 	add	r3, r1, r5
    f584:	e5ce3000 	strb	r3, [lr]
    f588:	e5dc3000 	ldrb	r3, [ip]
    f58c:	e35300ff 	cmp	r3, #255	; 0xff
    f590:	e5de5000 	ldrb	r5, [lr]
    f594:	e5d42000 	ldrb	r2, [r4]
    f598:	024330ff 	subeq	r3, r3, #255	; 0xff
    f59c:	05cc3000 	streqb	r3, [ip]
    f5a0:	e0822005 	add	r2, r2, r5
    f5a4:	e5c42000 	strb	r2, [r4]
    f5a8:	e7c61000 	strb	r1, [r6, r0]
    f5ac:	e5dc0000 	ldrb	r0, [ip]
    f5b0:	e5d71001 	ldrb	r1, [r7, #1]
    f5b4:	e2802001 	add	r2, r0, #1	; 0x1
    f5b8:	e5cc2000 	strb	r2, [ip]
    f5bc:	e0813005 	add	r3, r1, r5
    f5c0:	e5ce3000 	strb	r3, [lr]
    f5c4:	e5dc3000 	ldrb	r3, [ip]
    f5c8:	e5de5000 	ldrb	r5, [lr]
    f5cc:	e5d42000 	ldrb	r2, [r4]
    f5d0:	e35300ff 	cmp	r3, #255	; 0xff
    f5d4:	024330ff 	subeq	r3, r3, #255	; 0xff
    f5d8:	05cc3000 	streqb	r3, [ip]
    f5dc:	e0822005 	add	r2, r2, r5
    f5e0:	e5c42000 	strb	r2, [r4]
    f5e4:	e7c61000 	strb	r1, [r6, r0]
    f5e8:	e5dc0000 	ldrb	r0, [ip]
    f5ec:	e5d71002 	ldrb	r1, [r7, #2]
    f5f0:	e2802001 	add	r2, r0, #1	; 0x1
    f5f4:	e5cc2000 	strb	r2, [ip]
    f5f8:	e0813005 	add	r3, r1, r5
    f5fc:	e5ce3000 	strb	r3, [lr]
    f600:	e5dc3000 	ldrb	r3, [ip]
    f604:	e5de5000 	ldrb	r5, [lr]
    f608:	e5d42000 	ldrb	r2, [r4]
    f60c:	e35300ff 	cmp	r3, #255	; 0xff
    f610:	e0822005 	add	r2, r2, r5
    f614:	024330ff 	subeq	r3, r3, #255	; 0xff
    f618:	05cc3000 	streqb	r3, [ip]
    f61c:	e5c42000 	strb	r2, [r4]
    f620:	e7c61000 	strb	r1, [r6, r0]
    f624:	e5dc1000 	ldrb	r1, [ip]
    f628:	e5d70003 	ldrb	r0, [r7, #3]
    f62c:	e2812001 	add	r2, r1, #1	; 0x1
    f630:	e0803005 	add	r3, r0, r5
    f634:	e5ce3000 	strb	r3, [lr]
    f638:	e5cc2000 	strb	r2, [ip]
    f63c:	e5dc3000 	ldrb	r3, [ip]
    f640:	e35300ff 	cmp	r3, #255	; 0xff
    f644:	e5de5000 	ldrb	r5, [lr]
    f648:	e5d42000 	ldrb	r2, [r4]
    f64c:	024330ff 	subeq	r3, r3, #255	; 0xff
    f650:	05cc3000 	streqb	r3, [ip]
    f654:	e0822005 	add	r2, r2, r5
    f658:	e5c42000 	strb	r2, [r4]
    f65c:	e7c60001 	strb	r0, [r6, r1]
    f660:	e59f77d0 	ldr	r7, [pc, #2000]	; fe38 <.text+0xbe38>
    f664:	e5dc0000 	ldrb	r0, [ip]
    f668:	e5d71000 	ldrb	r1, [r7]
    f66c:	e2802001 	add	r2, r0, #1	; 0x1
    f670:	e5cc2000 	strb	r2, [ip]
    f674:	e0813005 	add	r3, r1, r5
    f678:	e5ce3000 	strb	r3, [lr]
    f67c:	e5dc3000 	ldrb	r3, [ip]
    f680:	e35300ff 	cmp	r3, #255	; 0xff
    f684:	e5de5000 	ldrb	r5, [lr]
    f688:	e5d42000 	ldrb	r2, [r4]
    f68c:	024330ff 	subeq	r3, r3, #255	; 0xff
    f690:	05cc3000 	streqb	r3, [ip]
    f694:	e0822005 	add	r2, r2, r5
    f698:	e5c42000 	strb	r2, [r4]
    f69c:	e7c61000 	strb	r1, [r6, r0]
    f6a0:	e5dc1000 	ldrb	r1, [ip]
    f6a4:	e5d70001 	ldrb	r0, [r7, #1]
    f6a8:	e2812001 	add	r2, r1, #1	; 0x1
    f6ac:	e5cc2000 	strb	r2, [ip]
    f6b0:	e0803005 	add	r3, r0, r5
    f6b4:	e5ce3000 	strb	r3, [lr]
    f6b8:	e5dc3000 	ldrb	r3, [ip]
    f6bc:	e5de5000 	ldrb	r5, [lr]
    f6c0:	e35300ff 	cmp	r3, #255	; 0xff
    f6c4:	e5d42000 	ldrb	r2, [r4]
    f6c8:	024330ff 	subeq	r3, r3, #255	; 0xff
    f6cc:	05cc3000 	streqb	r3, [ip]
    f6d0:	e0822005 	add	r2, r2, r5
    f6d4:	e59f7760 	ldr	r7, [pc, #1888]	; fe3c <.text+0xbe3c>
    f6d8:	e5c42000 	strb	r2, [r4]
    f6dc:	e7c60001 	strb	r0, [r6, r1]
    f6e0:	e5dc0000 	ldrb	r0, [ip]
    f6e4:	e5d71000 	ldrb	r1, [r7]
    f6e8:	e2802001 	add	r2, r0, #1	; 0x1
    f6ec:	e0813005 	add	r3, r1, r5
    f6f0:	e5cc2000 	strb	r2, [ip]
    f6f4:	e5ce3000 	strb	r3, [lr]
    f6f8:	e5dc3000 	ldrb	r3, [ip]
    f6fc:	e5de5000 	ldrb	r5, [lr]
    f700:	e5d42000 	ldrb	r2, [r4]
    f704:	e35300ff 	cmp	r3, #255	; 0xff
    f708:	e0822005 	add	r2, r2, r5
    f70c:	024330ff 	subeq	r3, r3, #255	; 0xff
    f710:	e5c42000 	strb	r2, [r4]
    f714:	05cc3000 	streqb	r3, [ip]
    f718:	e7c61000 	strb	r1, [r6, r0]
    f71c:	e5dc0000 	ldrb	r0, [ip]
    f720:	e5d71001 	ldrb	r1, [r7, #1]
    f724:	e2802001 	add	r2, r0, #1	; 0x1
    f728:	e5cc2000 	strb	r2, [ip]
    f72c:	e0813005 	add	r3, r1, r5
    f730:	e5ce3000 	strb	r3, [lr]
    f734:	e5dc3000 	ldrb	r3, [ip]
    f738:	e35300ff 	cmp	r3, #255	; 0xff
    f73c:	e5de5000 	ldrb	r5, [lr]
    f740:	e5d42000 	ldrb	r2, [r4]
    f744:	024330ff 	subeq	r3, r3, #255	; 0xff
    f748:	05cc3000 	streqb	r3, [ip]
    f74c:	e0822005 	add	r2, r2, r5
    f750:	e5c42000 	strb	r2, [r4]
    f754:	e7c61000 	strb	r1, [r6, r0]
    f758:	e5dc0000 	ldrb	r0, [ip]
    f75c:	e5d71002 	ldrb	r1, [r7, #2]
    f760:	e2802001 	add	r2, r0, #1	; 0x1
    f764:	e5cc2000 	strb	r2, [ip]
    f768:	e0813005 	add	r3, r1, r5
    f76c:	e5ce3000 	strb	r3, [lr]
    f770:	e5dc3000 	ldrb	r3, [ip]
    f774:	e5de5000 	ldrb	r5, [lr]
    f778:	e5d42000 	ldrb	r2, [r4]
    f77c:	e35300ff 	cmp	r3, #255	; 0xff
    f780:	024330ff 	subeq	r3, r3, #255	; 0xff
    f784:	05cc3000 	streqb	r3, [ip]
    f788:	e0822005 	add	r2, r2, r5
    f78c:	e5c42000 	strb	r2, [r4]
    f790:	e7c61000 	strb	r1, [r6, r0]
    f794:	e5dc1000 	ldrb	r1, [ip]
    f798:	e5d70003 	ldrb	r0, [r7, #3]
    f79c:	e2812001 	add	r2, r1, #1	; 0x1
    f7a0:	e5cc2000 	strb	r2, [ip]
    f7a4:	e0803005 	add	r3, r0, r5
    f7a8:	e5ce3000 	strb	r3, [lr]
    f7ac:	e5dc3000 	ldrb	r3, [ip]
    f7b0:	e5de5000 	ldrb	r5, [lr]
    f7b4:	e5d42000 	ldrb	r2, [r4]
    f7b8:	e35300ff 	cmp	r3, #255	; 0xff
    f7bc:	e0822005 	add	r2, r2, r5
    f7c0:	024330ff 	subeq	r3, r3, #255	; 0xff
    f7c4:	05cc3000 	streqb	r3, [ip]
    f7c8:	e5c42000 	strb	r2, [r4]
    f7cc:	e7c60001 	strb	r0, [r6, r1]
    f7d0:	e59f7668 	ldr	r7, [pc, #1640]	; fe40 <.text+0xbe40>
    f7d4:	e5dc0000 	ldrb	r0, [ip]
    f7d8:	e5d71000 	ldrb	r1, [r7]
    f7dc:	e2802001 	add	r2, r0, #1	; 0x1
    f7e0:	e0813005 	add	r3, r1, r5
    f7e4:	e5ce3000 	strb	r3, [lr]
    f7e8:	e5cc2000 	strb	r2, [ip]
    f7ec:	e5dc3000 	ldrb	r3, [ip]
    f7f0:	e35300ff 	cmp	r3, #255	; 0xff
    f7f4:	e5de5000 	ldrb	r5, [lr]
    f7f8:	e5d42000 	ldrb	r2, [r4]
    f7fc:	024330ff 	subeq	r3, r3, #255	; 0xff
    f800:	05cc3000 	streqb	r3, [ip]
    f804:	e0822005 	add	r2, r2, r5
    f808:	e5c42000 	strb	r2, [r4]
    f80c:	e7c61000 	strb	r1, [r6, r0]
    f810:	e5dc1000 	ldrb	r1, [ip]
    f814:	e5d70001 	ldrb	r0, [r7, #1]
    f818:	e2812001 	add	r2, r1, #1	; 0x1
    f81c:	e5cc2000 	strb	r2, [ip]
    f820:	e0803005 	add	r3, r0, r5
    f824:	e5ce3000 	strb	r3, [lr]
    f828:	e5dc3000 	ldrb	r3, [ip]
    f82c:	e35300ff 	cmp	r3, #255	; 0xff
    f830:	e5de5000 	ldrb	r5, [lr]
    f834:	e5d42000 	ldrb	r2, [r4]
    f838:	024330ff 	subeq	r3, r3, #255	; 0xff
    f83c:	05cc3000 	streqb	r3, [ip]
    f840:	e0822005 	add	r2, r2, r5
    f844:	e5c42000 	strb	r2, [r4]
    f848:	e7c60001 	strb	r0, [r6, r1]
    f84c:	e59f75f0 	ldr	r7, [pc, #1520]	; fe44 <.text+0xbe44>
    f850:	e5dc0000 	ldrb	r0, [ip]
    f854:	e5d71000 	ldrb	r1, [r7]
    f858:	e2802001 	add	r2, r0, #1	; 0x1
    f85c:	e5cc2000 	strb	r2, [ip]
    f860:	e0813005 	add	r3, r1, r5
    f864:	e5ce3000 	strb	r3, [lr]
    f868:	e5dc3000 	ldrb	r3, [ip]
    f86c:	e5de5000 	ldrb	r5, [lr]
    f870:	e35300ff 	cmp	r3, #255	; 0xff
    f874:	e5d42000 	ldrb	r2, [r4]
    f878:	024330ff 	subeq	r3, r3, #255	; 0xff
    f87c:	05cc3000 	streqb	r3, [ip]
    f880:	e0822005 	add	r2, r2, r5
    f884:	e5c42000 	strb	r2, [r4]
    f888:	e7c61000 	strb	r1, [r6, r0]
    f88c:	e5dc1000 	ldrb	r1, [ip]
    f890:	e5d70001 	ldrb	r0, [r7, #1]
    f894:	e2812001 	add	r2, r1, #1	; 0x1
    f898:	e0803005 	add	r3, r0, r5
    f89c:	e5cc2000 	strb	r2, [ip]
    f8a0:	e5ce3000 	strb	r3, [lr]
    f8a4:	e5dc3000 	ldrb	r3, [ip]
    f8a8:	e5de5000 	ldrb	r5, [lr]
    f8ac:	e5d42000 	ldrb	r2, [r4]
    f8b0:	e35300ff 	cmp	r3, #255	; 0xff
    f8b4:	e0822005 	add	r2, r2, r5
    f8b8:	024330ff 	subeq	r3, r3, #255	; 0xff
    f8bc:	e5c42000 	strb	r2, [r4]
    f8c0:	05cc3000 	streqb	r3, [ip]
    f8c4:	e7c60001 	strb	r0, [r6, r1]
    f8c8:	e59f7578 	ldr	r7, [pc, #1400]	; fe48 <.text+0xbe48>
    f8cc:	e5dc0000 	ldrb	r0, [ip]
    f8d0:	e5d71000 	ldrb	r1, [r7]
    f8d4:	e2802001 	add	r2, r0, #1	; 0x1
    f8d8:	e5cc2000 	strb	r2, [ip]
    f8dc:	e0813005 	add	r3, r1, r5
    f8e0:	e5ce3000 	strb	r3, [lr]
    f8e4:	e5dc3000 	ldrb	r3, [ip]
    f8e8:	e35300ff 	cmp	r3, #255	; 0xff
    f8ec:	e5de5000 	ldrb	r5, [lr]
    f8f0:	e5d42000 	ldrb	r2, [r4]
    f8f4:	024330ff 	subeq	r3, r3, #255	; 0xff
    f8f8:	05cc3000 	streqb	r3, [ip]
    f8fc:	e0822005 	add	r2, r2, r5
    f900:	e5c42000 	strb	r2, [r4]
    f904:	e7c61000 	strb	r1, [r6, r0]
    f908:	e5dc0000 	ldrb	r0, [ip]
    f90c:	e5d71001 	ldrb	r1, [r7, #1]
    f910:	e2802001 	add	r2, r0, #1	; 0x1
    f914:	e5cc2000 	strb	r2, [ip]
    f918:	e0813005 	add	r3, r1, r5
    f91c:	e5ce3000 	strb	r3, [lr]
    f920:	e5dc3000 	ldrb	r3, [ip]
    f924:	e5de5000 	ldrb	r5, [lr]
    f928:	e5d42000 	ldrb	r2, [r4]
    f92c:	e35300ff 	cmp	r3, #255	; 0xff
    f930:	024330ff 	subeq	r3, r3, #255	; 0xff
    f934:	05cc3000 	streqb	r3, [ip]
    f938:	e0822005 	add	r2, r2, r5
    f93c:	e5c42000 	strb	r2, [r4]
    f940:	e7c61000 	strb	r1, [r6, r0]
    f944:	e5dc0000 	ldrb	r0, [ip]
    f948:	e5d71002 	ldrb	r1, [r7, #2]
    f94c:	e2802001 	add	r2, r0, #1	; 0x1
    f950:	e5cc2000 	strb	r2, [ip]
    f954:	e0813005 	add	r3, r1, r5
    f958:	e5ce3000 	strb	r3, [lr]
    f95c:	e5dc3000 	ldrb	r3, [ip]
    f960:	e5de5000 	ldrb	r5, [lr]
    f964:	e5d42000 	ldrb	r2, [r4]
    f968:	e35300ff 	cmp	r3, #255	; 0xff
    f96c:	e0822005 	add	r2, r2, r5
    f970:	024330ff 	subeq	r3, r3, #255	; 0xff
    f974:	05cc3000 	streqb	r3, [ip]
    f978:	e5c42000 	strb	r2, [r4]
    f97c:	e7c61000 	strb	r1, [r6, r0]
    f980:	e5dc1000 	ldrb	r1, [ip]
    f984:	e5d70003 	ldrb	r0, [r7, #3]
    f988:	e2812001 	add	r2, r1, #1	; 0x1
    f98c:	e0803005 	add	r3, r0, r5
    f990:	e5ce3000 	strb	r3, [lr]
    f994:	e5cc2000 	strb	r2, [ip]
    f998:	e5dc3000 	ldrb	r3, [ip]
    f99c:	e5de5000 	ldrb	r5, [lr]
    f9a0:	e5d42000 	ldrb	r2, [r4]
    f9a4:	e35300ff 	cmp	r3, #255	; 0xff
    f9a8:	024330ff 	subeq	r3, r3, #255	; 0xff
    f9ac:	05cc3000 	streqb	r3, [ip]
    f9b0:	e0822005 	add	r2, r2, r5
    f9b4:	e5c42000 	strb	r2, [r4]
    f9b8:	e7c60001 	strb	r0, [r6, r1]
    f9bc:	e59f3488 	ldr	r3, [pc, #1160]	; fe4c <.text+0xbe4c>
    f9c0:	e5dc1000 	ldrb	r1, [ip]
    f9c4:	e5d30000 	ldrb	r0, [r3]
    f9c8:	e2812001 	add	r2, r1, #1	; 0x1
    f9cc:	e5cc2000 	strb	r2, [ip]
    f9d0:	e0803005 	add	r3, r0, r5
    f9d4:	e5ce3000 	strb	r3, [lr]
    f9d8:	e5dc3000 	ldrb	r3, [ip]
    f9dc:	e5de5000 	ldrb	r5, [lr]
    f9e0:	e5d42000 	ldrb	r2, [r4]
    f9e4:	e35300ff 	cmp	r3, #255	; 0xff
    f9e8:	024330ff 	subeq	r3, r3, #255	; 0xff
    f9ec:	e0822005 	add	r2, r2, r5
    f9f0:	05cc3000 	streqb	r3, [ip]
    f9f4:	e5c42000 	strb	r2, [r4]
    f9f8:	e7c60001 	strb	r0, [r6, r1]
    f9fc:	e59f344c 	ldr	r3, [pc, #1100]	; fe50 <.text+0xbe50>
    fa00:	e5dc1000 	ldrb	r1, [ip]
    fa04:	e5d30000 	ldrb	r0, [r3]
    fa08:	e2812001 	add	r2, r1, #1	; 0x1
    fa0c:	e0803005 	add	r3, r0, r5
    fa10:	e5cc2000 	strb	r2, [ip]
    fa14:	e5ce3000 	strb	r3, [lr]
    fa18:	e5dc2000 	ldrb	r2, [ip]
    fa1c:	e5dee000 	ldrb	lr, [lr]
    fa20:	e5d43000 	ldrb	r3, [r4]
    fa24:	e35200ff 	cmp	r2, #255	; 0xff
    fa28:	e083300e 	add	r3, r3, lr
    fa2c:	e5c43000 	strb	r3, [r4]
    fa30:	03a03000 	moveq	r3, #0	; 0x0
    fa34:	05cc3000 	streqb	r3, [ip]
    fa38:	e5dc3000 	ldrb	r3, [ip]
    fa3c:	e2832001 	add	r2, r3, #1	; 0x1
    fa40:	e5cc2000 	strb	r2, [ip]
    fa44:	e5dc2000 	ldrb	r2, [ip]
    fa48:	e35200ff 	cmp	r2, #255	; 0xff
    fa4c:	e7c60001 	strb	r0, [r6, r1]
    fa50:	e7c6e003 	strb	lr, [r6, r3]
    fa54:	03a03000 	moveq	r3, #0	; 0x0
    fa58:	05cc3000 	streqb	r3, [ip]
    fa5c:	e5dc1000 	ldrb	r1, [ip]
    fa60:	e2813001 	add	r3, r1, #1	; 0x1
    fa64:	e5cc3000 	strb	r3, [ip]
    fa68:	e5dc3000 	ldrb	r3, [ip]
    fa6c:	e5d42000 	ldrb	r2, [r4]
    fa70:	e35300ff 	cmp	r3, #255	; 0xff
    fa74:	024330ff 	subeq	r3, r3, #255	; 0xff
    fa78:	e7c62001 	strb	r2, [r6, r1]
    fa7c:	05cc3000 	streqb	r3, [ip]
    fa80:	e59f03cc 	ldr	r0, [pc, #972]	; fe54 <.text+0xbe54>
    fa84:	e59f33cc 	ldr	r3, [pc, #972]	; fe58 <.text+0xbe58>
    fa88:	e5d32000 	ldrb	r2, [r3]
    fa8c:	e5d03000 	ldrb	r3, [r0]
    fa90:	e1530002 	cmp	r3, r2
    fa94:	03a03000 	moveq	r3, #0	; 0x0
    fa98:	05c03000 	streqb	r3, [r0]
    fa9c:	e5d03000 	ldrb	r3, [r0]
    faa0:	e1530002 	cmp	r3, r2
    faa4:	2a0000d2 	bcs	fdf4 <use_gps_pos+0xae0>
    faa8:	e59f53ac 	ldr	r5, [pc, #940]	; fe5c <.text+0xbe5c>
    faac:	e0853183 	add	r3, r5, r3, lsl #3
    fab0:	e5d33003 	ldrb	r3, [r3, #3]
    fab4:	e3530000 	cmp	r3, #0	; 0x0
    fab8:	0a0000cd 	beq	fdf4 <use_gps_pos+0xae0>
    fabc:	e59f1358 	ldr	r1, [pc, #856]	; fe1c <.text+0xbe1c>
    fac0:	e5d83000 	ldrb	r3, [r8]
    fac4:	e5d12000 	ldrb	r2, [r1]
    fac8:	e1520003 	cmp	r2, r3
    facc:	359f3344 	ldrcc	r3, [pc, #836]	; fe18 <.text+0xbe18>
    fad0:	25d83000 	ldrcsb	r3, [r8]
    fad4:	35d33000 	ldrccb	r3, [r3]
    fad8:	20633002 	rsbcs	r3, r3, r2
    fadc:	30623003 	rsbcc	r3, r2, r3
    fae0:	226330ff 	rsbcs	r3, r3, #255	; 0xff
    fae4:	e353000e 	cmp	r3, #14	; 0xe
    fae8:	d59f2330 	ldrle	r2, [pc, #816]	; fe20 <.text+0xbe20>
    faec:	d5d23000 	ldrleb	r3, [r2]
    faf0:	d2833001 	addle	r3, r3, #1	; 0x1
    faf4:	d5c23000 	strleb	r3, [r2]
    faf8:	da0000bd 	ble	fdf4 <use_gps_pos+0xae0>
    fafc:	e5d12000 	ldrb	r2, [r1]
    fb00:	e2823001 	add	r3, r2, #1	; 0x1
    fb04:	e5c13000 	strb	r3, [r1]
    fb08:	e5d13000 	ldrb	r3, [r1]
    fb0c:	e59f7310 	ldr	r7, [pc, #784]	; fe24 <.text+0xbe24>
    fb10:	e35300ff 	cmp	r3, #255	; 0xff
    fb14:	e3e03066 	mvn	r3, #102	; 0x66
    fb18:	e7c73002 	strb	r3, [r7, r2]
    fb1c:	02833067 	addeq	r3, r3, #103	; 0x67
    fb20:	e59fc2f4 	ldr	ip, [pc, #756]	; fe1c <.text+0xbe1c>
    fb24:	05c13000 	streqb	r3, [r1]
    fb28:	e5dc2000 	ldrb	r2, [ip]
    fb2c:	e2823001 	add	r3, r2, #1	; 0x1
    fb30:	e5cc3000 	strb	r3, [ip]
    fb34:	e5dc3000 	ldrb	r3, [ip]
    fb38:	e35300ff 	cmp	r3, #255	; 0xff
    fb3c:	e3a0300e 	mov	r3, #14	; 0xe
    fb40:	e7c73002 	strb	r3, [r7, r2]
    fb44:	0243300e 	subeq	r3, r3, #14	; 0xe
    fb48:	05cc3000 	streqb	r3, [ip]
    fb4c:	e5dc2000 	ldrb	r2, [ip]
    fb50:	e2823001 	add	r3, r2, #1	; 0x1
    fb54:	e5cc3000 	strb	r3, [ip]
    fb58:	e5dc3000 	ldrb	r3, [ip]
    fb5c:	e59f42c4 	ldr	r4, [pc, #708]	; fe28 <.text+0xbe28>
    fb60:	e59f62c4 	ldr	r6, [pc, #708]	; fe2c <.text+0xbe2c>
    fb64:	e35300ff 	cmp	r3, #255	; 0xff
    fb68:	e3a03015 	mov	r3, #21	; 0x15
    fb6c:	e5c43000 	strb	r3, [r4]
    fb70:	e283300e 	add	r3, r3, #14	; 0xe
    fb74:	e5c63000 	strb	r3, [r6]
    fb78:	e243301c 	sub	r3, r3, #28	; 0x1c
    fb7c:	e7c73002 	strb	r3, [r7, r2]
    fb80:	02433007 	subeq	r3, r3, #7	; 0x7
    fb84:	05cc3000 	streqb	r3, [ip]
    fb88:	e5dc2000 	ldrb	r2, [ip]
    fb8c:	e2823001 	add	r3, r2, #1	; 0x1
    fb90:	e5cc3000 	strb	r3, [ip]
    fb94:	e5dc3000 	ldrb	r3, [ip]
    fb98:	e35300ff 	cmp	r3, #255	; 0xff
    fb9c:	e3a0302e 	mov	r3, #46	; 0x2e
    fba0:	e5c43000 	strb	r3, [r4]
    fba4:	e2833023 	add	r3, r3, #35	; 0x23
    fba8:	e5c63000 	strb	r3, [r6]
    fbac:	e2433038 	sub	r3, r3, #56	; 0x38
    fbb0:	e7c73002 	strb	r3, [r7, r2]
    fbb4:	02433019 	subeq	r3, r3, #25	; 0x19
    fbb8:	05cc3000 	streqb	r3, [ip]
    fbbc:	e5d0e000 	ldrb	lr, [r0]
    fbc0:	e5dc1000 	ldrb	r1, [ip]
    fbc4:	e28e302e 	add	r3, lr, #46	; 0x2e
    fbc8:	e2812001 	add	r2, r1, #1	; 0x1
    fbcc:	e5cc2000 	strb	r2, [ip]
    fbd0:	e5c43000 	strb	r3, [r4]
    fbd4:	e5dc3000 	ldrb	r3, [ip]
    fbd8:	e5d42000 	ldrb	r2, [r4]
    fbdc:	e35300ff 	cmp	r3, #255	; 0xff
    fbe0:	e2823051 	add	r3, r2, #81	; 0x51
    fbe4:	e5c63000 	strb	r3, [r6]
    fbe8:	03a03000 	moveq	r3, #0	; 0x0
    fbec:	05cc3000 	streqb	r3, [ip]
    fbf0:	e7c7e001 	strb	lr, [r7, r1]
    fbf4:	e5dc1000 	ldrb	r1, [ip]
    fbf8:	e7d5018e 	ldrb	r0, [r5, lr, lsl #3]
    fbfc:	e0803002 	add	r3, r0, r2
    fc00:	e2812001 	add	r2, r1, #1	; 0x1
    fc04:	e5c43000 	strb	r3, [r4]
    fc08:	e5cc2000 	strb	r2, [ip]
    fc0c:	e5dc3000 	ldrb	r3, [ip]
    fc10:	e35300ff 	cmp	r3, #255	; 0xff
    fc14:	e5d45000 	ldrb	r5, [r4]
    fc18:	e5d62000 	ldrb	r2, [r6]
    fc1c:	024330ff 	subeq	r3, r3, #255	; 0xff
    fc20:	05cc3000 	streqb	r3, [ip]
    fc24:	e0822005 	add	r2, r2, r5
    fc28:	e5c62000 	strb	r2, [r6]
    fc2c:	e7c70001 	strb	r0, [r7, r1]
    fc30:	e59f8228 	ldr	r8, [pc, #552]	; fe60 <.text+0xbe60>
    fc34:	e5dc0000 	ldrb	r0, [ip]
    fc38:	e7d8118e 	ldrb	r1, [r8, lr, lsl #3]
    fc3c:	e2802001 	add	r2, r0, #1	; 0x1
    fc40:	e5cc2000 	strb	r2, [ip]
    fc44:	e0813005 	add	r3, r1, r5
    fc48:	e5c43000 	strb	r3, [r4]
    fc4c:	e5dc3000 	ldrb	r3, [ip]
    fc50:	e35300ff 	cmp	r3, #255	; 0xff
    fc54:	e5d45000 	ldrb	r5, [r4]
    fc58:	e5d62000 	ldrb	r2, [r6]
    fc5c:	024330ff 	subeq	r3, r3, #255	; 0xff
    fc60:	05cc3000 	streqb	r3, [ip]
    fc64:	e0822005 	add	r2, r2, r5
    fc68:	e5c62000 	strb	r2, [r6]
    fc6c:	e7c71000 	strb	r1, [r7, r0]
    fc70:	e5dc1000 	ldrb	r1, [ip]
    fc74:	e2883001 	add	r3, r8, #1	; 0x1
    fc78:	e7d3018e 	ldrb	r0, [r3, lr, lsl #3]
    fc7c:	e2812001 	add	r2, r1, #1	; 0x1
    fc80:	e5cc2000 	strb	r2, [ip]
    fc84:	e0803005 	add	r3, r0, r5
    fc88:	e5c43000 	strb	r3, [r4]
    fc8c:	e5dc3000 	ldrb	r3, [ip]
    fc90:	e5d45000 	ldrb	r5, [r4]
    fc94:	e35300ff 	cmp	r3, #255	; 0xff
    fc98:	e5d62000 	ldrb	r2, [r6]
    fc9c:	024330ff 	subeq	r3, r3, #255	; 0xff
    fca0:	05cc3000 	streqb	r3, [ip]
    fca4:	e0822005 	add	r2, r2, r5
    fca8:	e5c62000 	strb	r2, [r6]
    fcac:	e7c70001 	strb	r0, [r7, r1]
    fcb0:	e2883002 	add	r3, r8, #2	; 0x2
    fcb4:	e5dc1000 	ldrb	r1, [ip]
    fcb8:	e7d3018e 	ldrb	r0, [r3, lr, lsl #3]
    fcbc:	e2812001 	add	r2, r1, #1	; 0x1
    fcc0:	e0803005 	add	r3, r0, r5
    fcc4:	e5cc2000 	strb	r2, [ip]
    fcc8:	e5c43000 	strb	r3, [r4]
    fccc:	e5dc3000 	ldrb	r3, [ip]
    fcd0:	e5d45000 	ldrb	r5, [r4]
    fcd4:	e5d62000 	ldrb	r2, [r6]
    fcd8:	e35300ff 	cmp	r3, #255	; 0xff
    fcdc:	e0822005 	add	r2, r2, r5
    fce0:	024330ff 	subeq	r3, r3, #255	; 0xff
    fce4:	e5c62000 	strb	r2, [r6]
    fce8:	05cc3000 	streqb	r3, [ip]
    fcec:	e7c70001 	strb	r0, [r7, r1]
    fcf0:	e5dc1000 	ldrb	r1, [ip]
    fcf4:	e2883003 	add	r3, r8, #3	; 0x3
    fcf8:	e7d3018e 	ldrb	r0, [r3, lr, lsl #3]
    fcfc:	e2812001 	add	r2, r1, #1	; 0x1
    fd00:	e5cc2000 	strb	r2, [ip]
    fd04:	e0803005 	add	r3, r0, r5
    fd08:	e5c43000 	strb	r3, [r4]
    fd0c:	e5dc3000 	ldrb	r3, [ip]
    fd10:	e5d45000 	ldrb	r5, [r4]
    fd14:	e5d62000 	ldrb	r2, [r6]
    fd18:	e35300ff 	cmp	r3, #255	; 0xff
    fd1c:	024330ff 	subeq	r3, r3, #255	; 0xff
    fd20:	05cc3000 	streqb	r3, [ip]
    fd24:	e0822005 	add	r2, r2, r5
    fd28:	e5c62000 	strb	r2, [r6]
    fd2c:	e7c70001 	strb	r0, [r7, r1]
    fd30:	e2883005 	add	r3, r8, #5	; 0x5
    fd34:	e5dc1000 	ldrb	r1, [ip]
    fd38:	e7d3018e 	ldrb	r0, [r3, lr, lsl #3]
    fd3c:	e2812001 	add	r2, r1, #1	; 0x1
    fd40:	e5cc2000 	strb	r2, [ip]
    fd44:	e0803005 	add	r3, r0, r5
    fd48:	e5c43000 	strb	r3, [r4]
    fd4c:	e5dc3000 	ldrb	r3, [ip]
    fd50:	e5d62000 	ldrb	r2, [r6]
    fd54:	e5d45000 	ldrb	r5, [r4]
    fd58:	e35300ff 	cmp	r3, #255	; 0xff
    fd5c:	024330ff 	subeq	r3, r3, #255	; 0xff
    fd60:	e0822005 	add	r2, r2, r5
    fd64:	05cc3000 	streqb	r3, [ip]
    fd68:	e5c62000 	strb	r2, [r6]
    fd6c:	e7c70001 	strb	r0, [r7, r1]
    fd70:	e2883006 	add	r3, r8, #6	; 0x6
    fd74:	e7d3018e 	ldrb	r0, [r3, lr, lsl #3]
    fd78:	e5dc1000 	ldrb	r1, [ip]
    fd7c:	e0803005 	add	r3, r0, r5
    fd80:	e2812001 	add	r2, r1, #1	; 0x1
    fd84:	e5cc2000 	strb	r2, [ip]
    fd88:	e5c43000 	strb	r3, [r4]
    fd8c:	e5dc2000 	ldrb	r2, [ip]
    fd90:	e5d4e000 	ldrb	lr, [r4]
    fd94:	e5d63000 	ldrb	r3, [r6]
    fd98:	e35200ff 	cmp	r2, #255	; 0xff
    fd9c:	e083300e 	add	r3, r3, lr
    fda0:	e5c63000 	strb	r3, [r6]
    fda4:	03a03000 	moveq	r3, #0	; 0x0
    fda8:	05cc3000 	streqb	r3, [ip]
    fdac:	e5dc3000 	ldrb	r3, [ip]
    fdb0:	e2832001 	add	r2, r3, #1	; 0x1
    fdb4:	e7c70001 	strb	r0, [r7, r1]
    fdb8:	e5cc2000 	strb	r2, [ip]
    fdbc:	e5dc2000 	ldrb	r2, [ip]
    fdc0:	e35200ff 	cmp	r2, #255	; 0xff
    fdc4:	e7c7e003 	strb	lr, [r7, r3]
    fdc8:	03a03000 	moveq	r3, #0	; 0x0
    fdcc:	05cc3000 	streqb	r3, [ip]
    fdd0:	e5dc1000 	ldrb	r1, [ip]
    fdd4:	e2813001 	add	r3, r1, #1	; 0x1
    fdd8:	e5cc3000 	strb	r3, [ip]
    fddc:	e5dc3000 	ldrb	r3, [ip]
    fde0:	e5d62000 	ldrb	r2, [r6]
    fde4:	e35300ff 	cmp	r3, #255	; 0xff
    fde8:	024330ff 	subeq	r3, r3, #255	; 0xff
    fdec:	e7c72001 	strb	r2, [r7, r1]
    fdf0:	05cc3000 	streqb	r3, [ip]
    fdf4:	e59f2058 	ldr	r2, [pc, #88]	; fe54 <.text+0xbe54>
    fdf8:	e5d23000 	ldrb	r3, [r2]
    fdfc:	e2833001 	add	r3, r3, #1	; 0x1
    fe00:	e5c23000 	strb	r3, [r2]
    fe04:	e89d69f0 	ldmia	sp, {r4, r5, r6, r7, r8, fp, sp, lr}
    fe08:	e12fff1e 	bx	lr
    fe0c:	40000f55 	andmi	r0, r0, r5, asr pc
    fe10:	400007dc 	ldrmid	r0, [r0], -ip
    fe14:	40000fd8 	ldrmid	r0, [r0], -r8
    fe18:	40000d2c 	andmi	r0, r0, ip, lsr #26
    fe1c:	40000d2b 	andmi	r0, r0, fp, lsr #26
    fe20:	40000a93 	mulmi	r0, r3, sl
    fe24:	40000d2d 	andmi	r0, r0, sp, lsr #26
    fe28:	40000d27 	andmi	r0, r0, r7, lsr #26
    fe2c:	40000c24 	andmi	r0, r0, r4, lsr #24
    fe30:	40000f40 	andmi	r0, r0, r0, asr #30
    fe34:	40000f3c 	andmi	r0, r0, ip, lsr pc
    fe38:	40000f46 	andmi	r0, r0, r6, asr #30
    fe3c:	40000f30 	andmi	r0, r0, r0, lsr pc
    fe40:	40000f4a 	andmi	r0, r0, sl, asr #30
    fe44:	40000f34 	andmi	r0, r0, r4, lsr pc
    fe48:	40000f50 	andmi	r0, r0, r0, asr pc
    fe4c:	40000f56 	andmi	r0, r0, r6, asr pc
    fe50:	40000f44 	andmi	r0, r0, r4, asr #30
    fe54:	40000568 	andmi	r0, r0, r8, ror #10
    fe58:	40000f37 	andmi	r0, r0, r7, lsr pc
    fe5c:	40000f58 	andmi	r0, r0, r8, asr pc
    fe60:	40000f59 	andmi	r0, r0, r9, asr pc

0000fe64 <ir_init>:
    fe64:	e1a0c00d 	mov	ip, sp
    fe68:	e92dd830 	stmdb	sp!, {r4, r5, fp, ip, lr, pc}
    fe6c:	e59f40d0 	ldr	r4, [pc, #208]	; ff44 <.text+0xbf44>
    fe70:	e59f50d0 	ldr	r5, [pc, #208]	; ff48 <.text+0xbf48>
    fe74:	e24cb004 	sub	fp, ip, #4	; 0x4
    fe78:	e3a00003 	mov	r0, #3	; 0x3
    fe7c:	e59f10c8 	ldr	r1, [pc, #200]	; ff4c <.text+0xbf4c>
    fe80:	e3a02010 	mov	r2, #16	; 0x10
    fe84:	e5845000 	str	r5, [r4]
    fe88:	ebfff632 	bl	d758 <adc_buf_channel>
    fe8c:	e3a00002 	mov	r0, #2	; 0x2
    fe90:	e59f10b8 	ldr	r1, [pc, #184]	; ff50 <.text+0xbf50>
    fe94:	e3a02010 	mov	r2, #16	; 0x10
    fe98:	ebfff62e 	bl	d758 <adc_buf_channel>
    fe9c:	e3a0000d 	mov	r0, #13	; 0xd
    fea0:	e59f10ac 	ldr	r1, [pc, #172]	; ff54 <.text+0xbf54>
    fea4:	e3a02010 	mov	r2, #16	; 0x10
    fea8:	ebfff62a 	bl	d758 <adc_buf_channel>
    feac:	e59f30a4 	ldr	r3, [pc, #164]	; ff58 <.text+0xbf58>
    feb0:	e3a02000 	mov	r2, #0	; 0x0
    feb4:	e5832000 	str	r2, [r3]
    feb8:	e59f209c 	ldr	r2, [pc, #156]	; ff5c <.text+0xbf5c>
    febc:	e59f309c 	ldr	r3, [pc, #156]	; ff60 <.text+0xbf60>
    fec0:	e594c000 	ldr	ip, [r4]
    fec4:	e5832000 	str	r2, [r3]
    fec8:	e59f3094 	ldr	r3, [pc, #148]	; ff64 <.text+0xbf64>
    fecc:	e583c000 	str	ip, [r3]
    fed0:	e59f3090 	ldr	r3, [pc, #144]	; ff68 <.text+0xbf68>
    fed4:	e3a015fe 	mov	r1, #1065353216	; 0x3f800000
    fed8:	e5831000 	str	r1, [r3]
    fedc:	e59f3088 	ldr	r3, [pc, #136]	; ff6c <.text+0xbf6c>
    fee0:	e3a02001 	mov	r2, #1	; 0x1
    fee4:	e59f0084 	ldr	r0, [pc, #132]	; ff70 <.text+0xbf70>
    fee8:	e5c32000 	strb	r2, [r3]
    feec:	e59f3080 	ldr	r3, [pc, #128]	; ff74 <.text+0xbf74>
    fef0:	e5830000 	str	r0, [r3]
    fef4:	e59f307c 	ldr	r3, [pc, #124]	; ff78 <.text+0xbf78>
    fef8:	e5831000 	str	r1, [r3]
    fefc:	e59f3078 	ldr	r3, [pc, #120]	; ff7c <.text+0xbf7c>
    ff00:	e5831000 	str	r1, [r3]
    ff04:	e59f3074 	ldr	r3, [pc, #116]	; ff80 <.text+0xbf80>
    ff08:	e5831000 	str	r1, [r3]
    ff0c:	e59f3070 	ldr	r3, [pc, #112]	; ff84 <.text+0xbf84>
    ff10:	e5831000 	str	r1, [r3]
    ff14:	e59f306c 	ldr	r3, [pc, #108]	; ff88 <.text+0xbf88>
    ff18:	e5830000 	str	r0, [r3]
    ff1c:	e59f3068 	ldr	r3, [pc, #104]	; ff8c <.text+0xbf8c>
    ff20:	e5830000 	str	r0, [r3]
    ff24:	e59f3064 	ldr	r3, [pc, #100]	; ff90 <.text+0xbf90>
    ff28:	e5830000 	str	r0, [r3]
    ff2c:	e59f3060 	ldr	r3, [pc, #96]	; ff94 <.text+0xbf94>
    ff30:	e3a020c8 	mov	r2, #200	; 0xc8
    ff34:	e5845000 	str	r5, [r4]
    ff38:	e1c320b0 	strh	r2, [r3]
    ff3c:	e89d6830 	ldmia	sp, {r4, r5, fp, sp, lr}
    ff40:	e12fff1e 	bx	lr
    ff44:	40000ff4 	strmid	r0, [r0], -r4
    ff48:	3b75c28f 	blcc	1d8098c <_etext+0x1d6866c>
    ff4c:	4000058c 	andmi	r0, r0, ip, lsl #11
    ff50:	400005d0 	ldrmid	r0, [r0], -r0
    ff54:	40000614 	andmi	r0, r0, r4, lsl r6
    ff58:	40001028 	andmi	r1, r0, r8, lsr #32
    ff5c:	3e32b8c2 	cdpcc	8, 3, cr11, cr2, cr2, {6}
    ff60:	40001000 	andmi	r1, r0, r0
    ff64:	40000fec 	andmi	r0, r0, ip, ror #31
    ff68:	40000ff8 	strmid	r0, [r0], -r8
    ff6c:	4000102c 	andmi	r1, r0, ip, lsr #32
    ff70:	3f666666 	swicc	0x00666666
    ff74:	40001014 	andmi	r1, r0, r4, lsl r0
    ff78:	4000100c 	andmi	r1, r0, ip
    ff7c:	40000fdc 	ldrmid	r0, [r0], -ip
    ff80:	40001010 	andmi	r1, r0, r0, lsl r0
    ff84:	4000101c 	andmi	r1, r0, ip, lsl r0
    ff88:	40001004 	andmi	r1, r0, r4
    ff8c:	40001020 	andmi	r1, r0, r0, lsr #32
    ff90:	40000fe4 	andmi	r0, r0, r4, ror #31
    ff94:	40000ff0 	strmid	r0, [r0], -r0

0000ff98 <ir_update>:
    ff98:	e1a0c00d 	mov	ip, sp
    ff9c:	e92ddbf0 	stmdb	sp!, {r4, r5, r6, r7, r8, r9, fp, ip, lr, pc}
    ffa0:	e59f3108 	ldr	r3, [pc, #264]	; 100b0 <.text+0xc0b0>
    ffa4:	e24cb004 	sub	fp, ip, #4	; 0x4
    ffa8:	e5d31043 	ldrb	r1, [r3, #67]
    ffac:	e1d300b0 	ldrh	r0, [r3]
    ffb0:	eb002001 	bl	17fbc <____divsi3_from_arm>
    ffb4:	e59f30f8 	ldr	r3, [pc, #248]	; 100b4 <.text+0xc0b4>
    ffb8:	e1a04800 	mov	r4, r0, lsl #16
    ffbc:	e5d31043 	ldrb	r1, [r3, #67]
    ffc0:	e1d300b0 	ldrh	r0, [r3]
    ffc4:	eb001ffc 	bl	17fbc <____divsi3_from_arm>
    ffc8:	e1a04824 	mov	r4, r4, lsr #16
    ffcc:	e1a04804 	mov	r4, r4, lsl #16
    ffd0:	e28f80c8 	add	r8, pc, #200	; 0xc8
    ffd4:	e8980300 	ldmia	r8, {r8, r9}
    ffd8:	e1a05800 	mov	r5, r0, lsl #16
    ffdc:	e1a00844 	mov	r0, r4, asr #16
    ffe0:	eb001c4a 	bl	17110 <__floatsidf>
    ffe4:	e1a03009 	mov	r3, r9
    ffe8:	e1a02008 	mov	r2, r8
    ffec:	eb001c65 	bl	17188 <__muldf3>
    fff0:	e1a05825 	mov	r5, r5, lsr #16
    fff4:	e1a05805 	mov	r5, r5, lsl #16
    fff8:	e1a07001 	mov	r7, r1
    fffc:	e1a06000 	mov	r6, r0
   10000:	e1a00845 	mov	r0, r5, asr #16
   10004:	eb001c41 	bl	17110 <__floatsidf>
   10008:	e28f2098 	add	r2, pc, #152	; 0x98
   1000c:	e892000c 	ldmia	r2, {r2, r3}
   10010:	e1a05001 	mov	r5, r1
   10014:	e1a04000 	mov	r4, r0
   10018:	eb001c5a 	bl	17188 <__muldf3>
   1001c:	e1a03001 	mov	r3, r1
   10020:	e1a02000 	mov	r2, r0
   10024:	e1a01007 	mov	r1, r7
   10028:	e1a00006 	mov	r0, r6
   1002c:	eb001b6c 	bl	16de4 <__adddf3>
   10030:	eb001dbc 	bl	17728 <__fixdfsi>
   10034:	e59f307c 	ldr	r3, [pc, #124]	; 100b8 <.text+0xc0b8>
   10038:	e1c300b0 	strh	r0, [r3]
   1003c:	e1a03009 	mov	r3, r9
   10040:	e1a02008 	mov	r2, r8
   10044:	e1a01005 	mov	r1, r5
   10048:	e1a00004 	mov	r0, r4
   1004c:	eb001c4d 	bl	17188 <__muldf3>
   10050:	e1a03001 	mov	r3, r1
   10054:	e1a02000 	mov	r2, r0
   10058:	e1a01007 	mov	r1, r7
   1005c:	e1a00006 	mov	r0, r6
   10060:	eb001b5f 	bl	16de4 <__adddf3>
   10064:	eb001daf 	bl	17728 <__fixdfsi>
   10068:	e59f404c 	ldr	r4, [pc, #76]	; 100bc <.text+0xc0bc>
   1006c:	e59f304c 	ldr	r3, [pc, #76]	; 100c0 <.text+0xc0c0>
   10070:	e1c400b0 	strh	r0, [r4]
   10074:	e5d31043 	ldrb	r1, [r3, #67]
   10078:	e1d300b0 	ldrh	r0, [r3]
   1007c:	eb001fce 	bl	17fbc <____divsi3_from_arm>
   10080:	e1d420b0 	ldrh	r2, [r4]
   10084:	e59f3038 	ldr	r3, [pc, #56]	; 100c4 <.text+0xc0c4>
   10088:	e2400c02 	sub	r0, r0, #512	; 0x200
   1008c:	e2822fb3 	add	r2, r2, #716	; 0x2cc
   10090:	e1c300b0 	strh	r0, [r3]
   10094:	e1c420b0 	strh	r2, [r4]
   10098:	e89d6bf0 	ldmia	sp, {r4, r5, r6, r7, r8, r9, fp, sp, lr}
   1009c:	e12fff1e 	bx	lr
   100a0:	bfe66666 	swilt	0x00e66666
   100a4:	66666666 	strvsbt	r6, [r6], -r6, ror #12
   100a8:	3fe66666 	swicc	0x00e66666
   100ac:	66666666 	strvsbt	r6, [r6], -r6, ror #12
   100b0:	4000058c 	andmi	r0, r0, ip, lsl #11
   100b4:	400005d0 	ldrmid	r0, [r0], -r0
   100b8:	40001024 	andmi	r1, r0, r4, lsr #32
   100bc:	40000fe8 	andmi	r0, r0, r8, ror #31
   100c0:	40000614 	andmi	r0, r0, r4, lsl r6
   100c4:	40000fe2 	andmi	r0, r0, r2, ror #31

000100c8 <ground_calibrate>:
   100c8:	e1a0c00d 	mov	ip, sp
   100cc:	e92dd870 	stmdb	sp!, {r4, r5, r6, fp, ip, lr, pc}
   100d0:	e59f439c 	ldr	r4, [pc, #924]	; 10474 <.text+0xc474>
   100d4:	e5d43000 	ldrb	r3, [r4]
   100d8:	e3530000 	cmp	r3, #0	; 0x0
   100dc:	e24cb004 	sub	fp, ip, #4	; 0x4
   100e0:	e20000ff 	and	r0, r0, #255	; 0xff
   100e4:	0a000002 	beq	100f4 <ground_calibrate+0x2c>
   100e8:	e3530001 	cmp	r3, #1	; 0x1
   100ec:	0a000056 	beq	1024c <ground_calibrate+0x184>
   100f0:	ea0000db 	b	10464 <ground_calibrate+0x39c>
   100f4:	e59f337c 	ldr	r3, [pc, #892]	; 10478 <.text+0xc478>
   100f8:	e1d330b0 	ldrh	r3, [r3]
   100fc:	e3530009 	cmp	r3, #9	; 0x9
   10100:	8a0000d7 	bhi	10464 <ground_calibrate+0x39c>
   10104:	e59f3370 	ldr	r3, [pc, #880]	; 1047c <.text+0xc47c>
   10108:	e5d30000 	ldrb	r0, [r3]
   1010c:	e3500001 	cmp	r0, #1	; 0x1
   10110:	1a0000d3 	bne	10464 <ground_calibrate+0x39c>
   10114:	e59f1364 	ldr	r1, [pc, #868]	; 10480 <.text+0xc480>
   10118:	e59fc364 	ldr	ip, [pc, #868]	; 10484 <.text+0xc484>
   1011c:	e5d13000 	ldrb	r3, [r1]
   10120:	e5dc2000 	ldrb	r2, [ip]
   10124:	e1520003 	cmp	r2, r3
   10128:	25d13000 	ldrcsb	r3, [r1]
   1012c:	35d13000 	ldrccb	r3, [r1]
   10130:	20633002 	rsbcs	r3, r3, r2
   10134:	226330ff 	rsbcs	r3, r3, #255	; 0xff
   10138:	30623003 	rsbcc	r3, r2, r3
   1013c:	e3530006 	cmp	r3, #6	; 0x6
   10140:	e5c40000 	strb	r0, [r4]
   10144:	da0000c2 	ble	10454 <ground_calibrate+0x38c>
   10148:	e5dc2000 	ldrb	r2, [ip]
   1014c:	e2823001 	add	r3, r2, #1	; 0x1
   10150:	e5cc3000 	strb	r3, [ip]
   10154:	e5dc3000 	ldrb	r3, [ip]
   10158:	e59f0328 	ldr	r0, [pc, #808]	; 10488 <.text+0xc488>
   1015c:	e35300ff 	cmp	r3, #255	; 0xff
   10160:	e3e03066 	mvn	r3, #102	; 0x66
   10164:	e7c03002 	strb	r3, [r0, r2]
   10168:	02833067 	addeq	r3, r3, #103	; 0x67
   1016c:	05cc3000 	streqb	r3, [ip]
   10170:	e59f130c 	ldr	r1, [pc, #780]	; 10484 <.text+0xc484>
   10174:	e5d12000 	ldrb	r2, [r1]
   10178:	e2823001 	add	r3, r2, #1	; 0x1
   1017c:	e5c13000 	strb	r3, [r1]
   10180:	e5d13000 	ldrb	r3, [r1]
   10184:	e35300ff 	cmp	r3, #255	; 0xff
   10188:	e3a03006 	mov	r3, #6	; 0x6
   1018c:	e7c03002 	strb	r3, [r0, r2]
   10190:	02433006 	subeq	r3, r3, #6	; 0x6
   10194:	05c13000 	streqb	r3, [r1]
   10198:	e5d12000 	ldrb	r2, [r1]
   1019c:	e2823001 	add	r3, r2, #1	; 0x1
   101a0:	e5c13000 	strb	r3, [r1]
   101a4:	e5d13000 	ldrb	r3, [r1]
   101a8:	e59fe2dc 	ldr	lr, [pc, #732]	; 1048c <.text+0xc48c>
   101ac:	e35300ff 	cmp	r3, #255	; 0xff
   101b0:	e59f42d8 	ldr	r4, [pc, #728]	; 10490 <.text+0xc490>
   101b4:	e3a0300d 	mov	r3, #13	; 0xd
   101b8:	e5ce3000 	strb	r3, [lr]
   101bc:	e2833006 	add	r3, r3, #6	; 0x6
   101c0:	e5c43000 	strb	r3, [r4]
   101c4:	e243300c 	sub	r3, r3, #12	; 0xc
   101c8:	e7c03002 	strb	r3, [r0, r2]
   101cc:	02433007 	subeq	r3, r3, #7	; 0x7
   101d0:	05c13000 	streqb	r3, [r1]
   101d4:	e5d12000 	ldrb	r2, [r1]
   101d8:	e2823001 	add	r3, r2, #1	; 0x1
   101dc:	e5c13000 	strb	r3, [r1]
   101e0:	e5d13000 	ldrb	r3, [r1]
   101e4:	e35300ff 	cmp	r3, #255	; 0xff
   101e8:	e3a03002 	mov	r3, #2	; 0x2
   101ec:	e7c03002 	strb	r3, [r0, r2]
   101f0:	02433002 	subeq	r3, r3, #2	; 0x2
   101f4:	05c13000 	streqb	r3, [r1]
   101f8:	e5d13000 	ldrb	r3, [r1]
   101fc:	e2832001 	add	r2, r3, #1	; 0x1
   10200:	e5c12000 	strb	r2, [r1]
   10204:	e5d12000 	ldrb	r2, [r1]
   10208:	e3a0c00f 	mov	ip, #15	; 0xf
   1020c:	e35200ff 	cmp	r2, #255	; 0xff
   10210:	e7c0c003 	strb	ip, [r0, r3]
   10214:	03a03000 	moveq	r3, #0	; 0x0
   10218:	05c13000 	streqb	r3, [r1]
   1021c:	e5d13000 	ldrb	r3, [r1]
   10220:	e2832001 	add	r2, r3, #1	; 0x1
   10224:	e5c12000 	strb	r2, [r1]
   10228:	e5d12000 	ldrb	r2, [r1]
   1022c:	e3a05022 	mov	r5, #34	; 0x22
   10230:	e35200ff 	cmp	r2, #255	; 0xff
   10234:	e7c05003 	strb	r5, [r0, r3]
   10238:	03a03000 	moveq	r3, #0	; 0x0
   1023c:	e5cec000 	strb	ip, [lr]
   10240:	e5c45000 	strb	r5, [r4]
   10244:	05c13000 	streqb	r3, [r1]
   10248:	ea000085 	b	10464 <ground_calibrate+0x39c>
   1024c:	e3500000 	cmp	r0, #0	; 0x0
   10250:	0a000083 	beq	10464 <ground_calibrate+0x39c>
   10254:	e59f3238 	ldr	r3, [pc, #568]	; 10494 <.text+0xc494>
   10258:	e1d330f0 	ldrsh	r3, [r3]
   1025c:	e59f6234 	ldr	r6, [pc, #564]	; 10498 <.text+0xc498>
   10260:	e3530000 	cmp	r3, #0	; 0x0
   10264:	b2633000 	rsblt	r3, r3, #0	; 0x0
   10268:	e1c630b0 	strh	r3, [r6]
   1026c:	e1d600f0 	ldrsh	r0, [r6]
   10270:	eb001ba6 	bl	17110 <__floatsidf>
   10274:	e1a03001 	mov	r3, r1
   10278:	e1a02000 	mov	r2, r0
   1027c:	e28f0f7a 	add	r0, pc, #488	; 0x1e8
   10280:	e8900003 	ldmia	r0, {r0, r1}
   10284:	eb001c5d 	bl	17400 <__divdf3>
   10288:	eb001d63 	bl	1781c <__truncdfsf2>
   1028c:	e59f11ec 	ldr	r1, [pc, #492]	; 10480 <.text+0xc480>
   10290:	e59fe1ec 	ldr	lr, [pc, #492]	; 10484 <.text+0xc484>
   10294:	e5d13000 	ldrb	r3, [r1]
   10298:	e5de2000 	ldrb	r2, [lr]
   1029c:	e1520003 	cmp	r2, r3
   102a0:	e59f31f4 	ldr	r3, [pc, #500]	; 1049c <.text+0xc49c>
   102a4:	e5830000 	str	r0, [r3]
   102a8:	e3a03002 	mov	r3, #2	; 0x2
   102ac:	e5c43000 	strb	r3, [r4]
   102b0:	e59f31e8 	ldr	r3, [pc, #488]	; 104a0 <.text+0xc4a0>
   102b4:	e5830000 	str	r0, [r3]
   102b8:	25d13000 	ldrcsb	r3, [r1]
   102bc:	35d13000 	ldrccb	r3, [r1]
   102c0:	20633002 	rsbcs	r3, r3, r2
   102c4:	226330ff 	rsbcs	r3, r3, #255	; 0xff
   102c8:	30623003 	rsbcc	r3, r2, r3
   102cc:	e3530008 	cmp	r3, #8	; 0x8
   102d0:	da00005f 	ble	10454 <ground_calibrate+0x38c>
   102d4:	e5de2000 	ldrb	r2, [lr]
   102d8:	e2823001 	add	r3, r2, #1	; 0x1
   102dc:	e5ce3000 	strb	r3, [lr]
   102e0:	e5de3000 	ldrb	r3, [lr]
   102e4:	e59f419c 	ldr	r4, [pc, #412]	; 10488 <.text+0xc488>
   102e8:	e35300ff 	cmp	r3, #255	; 0xff
   102ec:	e3e03066 	mvn	r3, #102	; 0x66
   102f0:	e7c43002 	strb	r3, [r4, r2]
   102f4:	02833067 	addeq	r3, r3, #103	; 0x67
   102f8:	e59fc184 	ldr	ip, [pc, #388]	; 10484 <.text+0xc484>
   102fc:	05ce3000 	streqb	r3, [lr]
   10300:	e5dc2000 	ldrb	r2, [ip]
   10304:	e2823001 	add	r3, r2, #1	; 0x1
   10308:	e5cc3000 	strb	r3, [ip]
   1030c:	e5dc3000 	ldrb	r3, [ip]
   10310:	e35300ff 	cmp	r3, #255	; 0xff
   10314:	e3a03008 	mov	r3, #8	; 0x8
   10318:	e7c43002 	strb	r3, [r4, r2]
   1031c:	02433008 	subeq	r3, r3, #8	; 0x8
   10320:	05cc3000 	streqb	r3, [ip]
   10324:	e5dc2000 	ldrb	r2, [ip]
   10328:	e2823001 	add	r3, r2, #1	; 0x1
   1032c:	e5cc3000 	strb	r3, [ip]
   10330:	e5dc3000 	ldrb	r3, [ip]
   10334:	e59fe150 	ldr	lr, [pc, #336]	; 1048c <.text+0xc48c>
   10338:	e59f5150 	ldr	r5, [pc, #336]	; 10490 <.text+0xc490>
   1033c:	e35300ff 	cmp	r3, #255	; 0xff
   10340:	e3a0300f 	mov	r3, #15	; 0xf
   10344:	e5ce3000 	strb	r3, [lr]
   10348:	e2833008 	add	r3, r3, #8	; 0x8
   1034c:	e5c53000 	strb	r3, [r5]
   10350:	e2433010 	sub	r3, r3, #16	; 0x10
   10354:	e7c43002 	strb	r3, [r4, r2]
   10358:	02433007 	subeq	r3, r3, #7	; 0x7
   1035c:	05cc3000 	streqb	r3, [ip]
   10360:	e5dc2000 	ldrb	r2, [ip]
   10364:	e2823001 	add	r3, r2, #1	; 0x1
   10368:	e5cc3000 	strb	r3, [ip]
   1036c:	e5dc3000 	ldrb	r3, [ip]
   10370:	e35300ff 	cmp	r3, #255	; 0xff
   10374:	e3a03012 	mov	r3, #18	; 0x12
   10378:	e5ce3000 	strb	r3, [lr]
   1037c:	e2833017 	add	r3, r3, #23	; 0x17
   10380:	e5c53000 	strb	r3, [r5]
   10384:	e2433026 	sub	r3, r3, #38	; 0x26
   10388:	e7c43002 	strb	r3, [r4, r2]
   1038c:	02433003 	subeq	r3, r3, #3	; 0x3
   10390:	05cc3000 	streqb	r3, [ip]
   10394:	e5d60000 	ldrb	r0, [r6]
   10398:	e5dc1000 	ldrb	r1, [ip]
   1039c:	e2803012 	add	r3, r0, #18	; 0x12
   103a0:	e2812001 	add	r2, r1, #1	; 0x1
   103a4:	e5cc2000 	strb	r2, [ip]
   103a8:	e5ce3000 	strb	r3, [lr]
   103ac:	e5dc3000 	ldrb	r3, [ip]
   103b0:	e5de2000 	ldrb	r2, [lr]
   103b4:	e35300ff 	cmp	r3, #255	; 0xff
   103b8:	e2823029 	add	r3, r2, #41	; 0x29
   103bc:	e5c53000 	strb	r3, [r5]
   103c0:	03a03000 	moveq	r3, #0	; 0x0
   103c4:	05cc3000 	streqb	r3, [ip]
   103c8:	e7c40001 	strb	r0, [r4, r1]
   103cc:	e59f30c4 	ldr	r3, [pc, #196]	; 10498 <.text+0xc498>
   103d0:	e5dc1000 	ldrb	r1, [ip]
   103d4:	e5d30001 	ldrb	r0, [r3, #1]
   103d8:	e0803002 	add	r3, r0, r2
   103dc:	e2812001 	add	r2, r1, #1	; 0x1
   103e0:	e5ce3000 	strb	r3, [lr]
   103e4:	e5cc2000 	strb	r2, [ip]
   103e8:	e5dee000 	ldrb	lr, [lr]
   103ec:	e5dc2000 	ldrb	r2, [ip]
   103f0:	e5d53000 	ldrb	r3, [r5]
   103f4:	e35200ff 	cmp	r2, #255	; 0xff
   103f8:	e083300e 	add	r3, r3, lr
   103fc:	e5c53000 	strb	r3, [r5]
   10400:	03a03000 	moveq	r3, #0	; 0x0
   10404:	05cc3000 	streqb	r3, [ip]
   10408:	e5dc3000 	ldrb	r3, [ip]
   1040c:	e2832001 	add	r2, r3, #1	; 0x1
   10410:	e5cc2000 	strb	r2, [ip]
   10414:	e5dc2000 	ldrb	r2, [ip]
   10418:	e35200ff 	cmp	r2, #255	; 0xff
   1041c:	e7c40001 	strb	r0, [r4, r1]
   10420:	e7c4e003 	strb	lr, [r4, r3]
   10424:	03a03000 	moveq	r3, #0	; 0x0
   10428:	05cc3000 	streqb	r3, [ip]
   1042c:	e5dc1000 	ldrb	r1, [ip]
   10430:	e2813001 	add	r3, r1, #1	; 0x1
   10434:	e5cc3000 	strb	r3, [ip]
   10438:	e5dc3000 	ldrb	r3, [ip]
   1043c:	e5d52000 	ldrb	r2, [r5]
   10440:	e35300ff 	cmp	r3, #255	; 0xff
   10444:	024330ff 	subeq	r3, r3, #255	; 0xff
   10448:	e7c42001 	strb	r2, [r4, r1]
   1044c:	05cc3000 	streqb	r3, [ip]
   10450:	ea000003 	b	10464 <ground_calibrate+0x39c>
   10454:	e59f2048 	ldr	r2, [pc, #72]	; 104a4 <.text+0xc4a4>
   10458:	e5d23000 	ldrb	r3, [r2]
   1045c:	e2833001 	add	r3, r3, #1	; 0x1
   10460:	e5c23000 	strb	r3, [r2]
   10464:	e89d6870 	ldmia	sp, {r4, r5, r6, fp, sp, lr}
   10468:	e12fff1e 	bx	lr
   1046c:	3fe80000 	swicc	0x00e80000
   10470:	00000000 	andeq	r0, r0, r0
   10474:	40000570 	andmi	r0, r0, r0, ror r5
   10478:	400007dc 	ldrmid	r0, [r0], -ip
   1047c:	40000003 	andmi	r0, r0, r3
   10480:	40000d2c 	andmi	r0, r0, ip, lsr #26
   10484:	40000d2b 	andmi	r0, r0, fp, lsr #26
   10488:	40000d2d 	andmi	r0, r0, sp, lsr #26
   1048c:	40000d27 	andmi	r0, r0, r7, lsr #26
   10490:	40000c24 	andmi	r0, r0, r4, lsr #24
   10494:	40000fe8 	andmi	r0, r0, r8, ror #31
   10498:	40000ff0 	strmid	r0, [r0], -r0
   1049c:	40000fec 	andmi	r0, r0, ip, ror #31
   104a0:	40000ff4 	strmid	r0, [r0], -r4
   104a4:	40000a93 	mulmi	r0, r3, sl

000104a8 <estimator_update_ir_estim>:
   104a8:	e1a0c00d 	mov	ip, sp
   104ac:	e92dd9f0 	stmdb	sp!, {r4, r5, r6, r7, r8, fp, ip, lr, pc}
   104b0:	e59f2448 	ldr	r2, [pc, #1096]	; 10900 <.text+0xc900>
   104b4:	e5d23000 	ldrb	r3, [r2]
   104b8:	e3530000 	cmp	r3, #0	; 0x0
   104bc:	e24cb004 	sub	fp, ip, #4	; 0x4
   104c0:	0a0000cf 	beq	10804 <estimator_update_ir_estim+0x35c>
   104c4:	e59f3438 	ldr	r3, [pc, #1080]	; 10904 <.text+0xc904>
   104c8:	e5932000 	ldr	r2, [r3]
   104cc:	e59f3434 	ldr	r3, [pc, #1076]	; 10908 <.text+0xc908>
   104d0:	e5933000 	ldr	r3, [r3]
   104d4:	e0522003 	subs	r2, r2, r3
   104d8:	4a000002 	bmi	104e8 <estimator_update_ir_estim+0x40>
   104dc:	e1a00002 	mov	r0, r2
   104e0:	eb001d7e 	bl	17ae0 <__floatsisf>
   104e4:	ea000004 	b	104fc <estimator_update_ir_estim+0x54>
   104e8:	e2020001 	and	r0, r2, #1	; 0x1
   104ec:	e18000a2 	orr	r0, r0, r2, lsr #1
   104f0:	eb001d7a 	bl	17ae0 <__floatsisf>
   104f4:	e1a01000 	mov	r1, r0
   104f8:	eb001d06 	bl	17918 <__addsf3>
   104fc:	e59f1408 	ldr	r1, [pc, #1032]	; 1090c <.text+0xc90c>
   10500:	eb001ded 	bl	17cbc <__divsf3>
   10504:	e1a07000 	mov	r7, r0
   10508:	eb001b0b 	bl	1713c <__extendsfdf2>
   1050c:	e28f2fe5 	add	r2, pc, #916	; 0x394
   10510:	e892000c 	ldmia	r2, {r2, r3}
   10514:	eb001c56 	bl	17674 <__gedf2>
   10518:	e3500000 	cmp	r0, #0	; 0x0
   1051c:	da0000d7 	ble	10880 <estimator_update_ir_estim+0x3d8>
   10520:	e59f33e8 	ldr	r3, [pc, #1000]	; 10910 <.text+0xc910>
   10524:	e5930000 	ldr	r0, [r3]
   10528:	e59f33e4 	ldr	r3, [pc, #996]	; 10914 <.text+0xc914>
   1052c:	e5931000 	ldr	r1, [r3]
   10530:	eb001cf7 	bl	17914 <__subsf3>
   10534:	ea000001 	b	10540 <estimator_update_ir_estim+0x98>
   10538:	eb001a28 	bl	16de0 <__subdf3>
   1053c:	eb001cb6 	bl	1781c <__truncdfsf2>
   10540:	e1a06000 	mov	r6, r0
   10544:	eb001afc 	bl	1713c <__extendsfdf2>
   10548:	e28f2e36 	add	r2, pc, #864	; 0x360
   1054c:	e892000c 	ldmia	r2, {r2, r3}
   10550:	e1a05001 	mov	r5, r1
   10554:	e1a04000 	mov	r4, r0
   10558:	eb001c45 	bl	17674 <__gedf2>
   1055c:	e3500000 	cmp	r0, #0	; 0x0
   10560:	e28f2e35 	add	r2, pc, #848	; 0x350
   10564:	e892000c 	ldmia	r2, {r2, r3}
   10568:	e1a01005 	mov	r1, r5
   1056c:	e1a00004 	mov	r0, r4
   10570:	cafffff0 	bgt	10538 <estimator_update_ir_estim+0x90>
   10574:	ea000002 	b	10584 <estimator_update_ir_estim+0xdc>
   10578:	eb001a19 	bl	16de4 <__adddf3>
   1057c:	eb001ca6 	bl	1781c <__truncdfsf2>
   10580:	e1a06000 	mov	r6, r0
   10584:	e1a00006 	mov	r0, r6
   10588:	eb001aeb 	bl	1713c <__extendsfdf2>
   1058c:	e28f2fcb 	add	r2, pc, #812	; 0x32c
   10590:	e892000c 	ldmia	r2, {r2, r3}
   10594:	e1a05001 	mov	r5, r1
   10598:	e1a04000 	mov	r4, r0
   1059c:	eb001c36 	bl	1767c <__ledf2>
   105a0:	e3500000 	cmp	r0, #0	; 0x0
   105a4:	e28f2fc3 	add	r2, pc, #780	; 0x30c
   105a8:	e892000c 	ldmia	r2, {r2, r3}
   105ac:	e1a01005 	mov	r1, r5
   105b0:	e1a00004 	mov	r0, r4
   105b4:	baffffef 	blt	10578 <estimator_update_ir_estim+0xd0>
   105b8:	e1a01007 	mov	r1, r7
   105bc:	e1a00006 	mov	r0, r6
   105c0:	eb001dbd 	bl	17cbc <__divsf3>
   105c4:	eb001adc 	bl	1713c <__extendsfdf2>
   105c8:	e28f2fbe 	add	r2, pc, #760	; 0x2f8
   105cc:	e892000c 	ldmia	r2, {r2, r3}
   105d0:	eb001aec 	bl	17188 <__muldf3>
   105d4:	e28f2fbd 	add	r2, pc, #756	; 0x2f4
   105d8:	e892000c 	ldmia	r2, {r2, r3}
   105dc:	eb001b87 	bl	17400 <__divdf3>
   105e0:	eb001c8d 	bl	1781c <__truncdfsf2>
   105e4:	e59f732c 	ldr	r7, [pc, #812]	; 10918 <.text+0xc918>
   105e8:	e5870000 	str	r0, [r7]
   105ec:	ea000003 	b	10600 <estimator_update_ir_estim+0x158>
   105f0:	eb0019fa 	bl	16de0 <__subdf3>
   105f4:	eb001c88 	bl	1781c <__truncdfsf2>
   105f8:	e59f3318 	ldr	r3, [pc, #792]	; 10918 <.text+0xc918>
   105fc:	e5830000 	str	r0, [r3]
   10600:	e5970000 	ldr	r0, [r7]
   10604:	eb001acc 	bl	1713c <__extendsfdf2>
   10608:	e28f2e2a 	add	r2, pc, #672	; 0x2a0
   1060c:	e892000c 	ldmia	r2, {r2, r3}
   10610:	e1a05001 	mov	r5, r1
   10614:	e1a04000 	mov	r4, r0
   10618:	eb001c15 	bl	17674 <__gedf2>
   1061c:	e3500000 	cmp	r0, #0	; 0x0
   10620:	e28f2e29 	add	r2, pc, #656	; 0x290
   10624:	e892000c 	ldmia	r2, {r2, r3}
   10628:	e1a01005 	mov	r1, r5
   1062c:	e1a00004 	mov	r0, r4
   10630:	caffffee 	bgt	105f0 <estimator_update_ir_estim+0x148>
   10634:	ea000002 	b	10644 <estimator_update_ir_estim+0x19c>
   10638:	eb0019e9 	bl	16de4 <__adddf3>
   1063c:	eb001c76 	bl	1781c <__truncdfsf2>
   10640:	e5850000 	str	r0, [r5]
   10644:	e5970000 	ldr	r0, [r7]
   10648:	eb001abb 	bl	1713c <__extendsfdf2>
   1064c:	e28f2f9b 	add	r2, pc, #620	; 0x26c
   10650:	e892000c 	ldmia	r2, {r2, r3}
   10654:	e1a05001 	mov	r5, r1
   10658:	e1a04000 	mov	r4, r0
   1065c:	eb001c06 	bl	1767c <__ledf2>
   10660:	e3500000 	cmp	r0, #0	; 0x0
   10664:	e28f2f93 	add	r2, pc, #588	; 0x24c
   10668:	e892000c 	ldmia	r2, {r2, r3}
   1066c:	e1a01005 	mov	r1, r5
   10670:	e1a00004 	mov	r0, r4
   10674:	e59f529c 	ldr	r5, [pc, #668]	; 10918 <.text+0xc918>
   10678:	baffffee 	blt	10638 <estimator_update_ir_estim+0x190>
   1067c:	e59f3298 	ldr	r3, [pc, #664]	; 1091c <.text+0xc91c>
   10680:	e1d360f0 	ldrsh	r6, [r3]
   10684:	e1a00006 	mov	r0, r6
   10688:	eb001d14 	bl	17ae0 <__floatsisf>
   1068c:	e5973000 	ldr	r3, [r7]
   10690:	e3c34102 	bic	r4, r3, #-2147483648	; 0x80000000
   10694:	e59f3284 	ldr	r3, [pc, #644]	; 10920 <.text+0xc920>
   10698:	e1a08000 	mov	r8, r0
   1069c:	e3a015fe 	mov	r1, #1065353216	; 0x3f800000
   106a0:	e1a00004 	mov	r0, r4
   106a4:	e5838000 	str	r8, [r3]
   106a8:	eb001ded 	bl	17e64 <__lesf2>
   106ac:	e3500000 	cmp	r0, #0	; 0x0
   106b0:	aa000072 	bge	10880 <estimator_update_ir_estim+0x3d8>
   106b4:	e1a00004 	mov	r0, r4
   106b8:	eb001a9f 	bl	1713c <__extendsfdf2>
   106bc:	e28f2f85 	add	r2, pc, #532	; 0x214
   106c0:	e892000c 	ldmia	r2, {r2, r3}
   106c4:	eb001bea 	bl	17674 <__gedf2>
   106c8:	e3500000 	cmp	r0, #0	; 0x0
   106cc:	da00006b 	ble	10880 <estimator_update_ir_estim+0x3d8>
   106d0:	e59f324c 	ldr	r3, [pc, #588]	; 10924 <.text+0xc924>
   106d4:	e1d330b0 	ldrh	r3, [r3]
   106d8:	e1a01803 	mov	r1, r3, lsl #16
   106dc:	e1a02841 	mov	r2, r1, asr #16
   106e0:	e2623000 	rsb	r3, r2, #0	; 0x0
   106e4:	e0833fa3 	add	r3, r3, r3, lsr #31
   106e8:	e15600c3 	cmp	r6, r3, asr #1
   106ec:	da000063 	ble	10880 <estimator_update_ir_estim+0x3d8>
   106f0:	e0823fa1 	add	r3, r2, r1, lsr #31
   106f4:	e15600c3 	cmp	r6, r3, asr #1
   106f8:	aa000060 	bge	10880 <estimator_update_ir_estim+0x3d8>
   106fc:	e5950000 	ldr	r0, [r5]
   10700:	e1a01008 	mov	r1, r8
   10704:	eb001d08 	bl	17b2c <__mulsf3>
   10708:	eb001a8b 	bl	1713c <__extendsfdf2>
   1070c:	e59f6214 	ldr	r6, [pc, #532]	; 10928 <.text+0xc928>
   10710:	e1a05001 	mov	r5, r1
   10714:	e1a04000 	mov	r4, r0
   10718:	e5960000 	ldr	r0, [r6]
   1071c:	eb001a86 	bl	1713c <__extendsfdf2>
   10720:	e28f2f6e 	add	r2, pc, #440	; 0x1b8
   10724:	e892000c 	ldmia	r2, {r2, r3}
   10728:	eb001a96 	bl	17188 <__muldf3>
   1072c:	e1a03001 	mov	r3, r1
   10730:	e1a02000 	mov	r2, r0
   10734:	e1a01005 	mov	r1, r5
   10738:	e1a00004 	mov	r0, r4
   1073c:	eb0019a8 	bl	16de4 <__adddf3>
   10740:	eb001c35 	bl	1781c <__truncdfsf2>
   10744:	e1a07000 	mov	r7, r0
   10748:	e5867000 	str	r7, [r6]
   1074c:	e1a01008 	mov	r1, r8
   10750:	e1a00008 	mov	r0, r8
   10754:	eb001cf4 	bl	17b2c <__mulsf3>
   10758:	eb001a77 	bl	1713c <__extendsfdf2>
   1075c:	e59f61c8 	ldr	r6, [pc, #456]	; 1092c <.text+0xc92c>
   10760:	e1a05001 	mov	r5, r1
   10764:	e1a04000 	mov	r4, r0
   10768:	e5960000 	ldr	r0, [r6]
   1076c:	eb001a72 	bl	1713c <__extendsfdf2>
   10770:	e28f2f5a 	add	r2, pc, #360	; 0x168
   10774:	e892000c 	ldmia	r2, {r2, r3}
   10778:	eb001a82 	bl	17188 <__muldf3>
   1077c:	e1a03001 	mov	r3, r1
   10780:	e1a02000 	mov	r2, r0
   10784:	e1a01005 	mov	r1, r5
   10788:	e1a00004 	mov	r0, r4
   1078c:	eb001994 	bl	16de4 <__adddf3>
   10790:	eb001c21 	bl	1781c <__truncdfsf2>
   10794:	e1a03000 	mov	r3, r0
   10798:	e5863000 	str	r3, [r6]
   1079c:	e1a01000 	mov	r1, r0
   107a0:	e1a00007 	mov	r0, r7
   107a4:	eb001d44 	bl	17cbc <__divsf3>
   107a8:	e1a04000 	mov	r4, r0
   107ac:	eb001a62 	bl	1713c <__extendsfdf2>
   107b0:	e28f2e13 	add	r2, pc, #304	; 0x130
   107b4:	e892000c 	ldmia	r2, {r2, r3}
   107b8:	e1a07001 	mov	r7, r1
   107bc:	e1a06000 	mov	r6, r0
   107c0:	eb001bad 	bl	1767c <__ledf2>
   107c4:	e3500000 	cmp	r0, #0	; 0x0
   107c8:	b59f2160 	ldrlt	r2, [pc, #352]	; 10930 <.text+0xc930>
   107cc:	b59f3160 	ldrlt	r3, [pc, #352]	; 10934 <.text+0xc934>
   107d0:	b5832000 	strlt	r2, [r3]
   107d4:	ba000029 	blt	10880 <estimator_update_ir_estim+0x3d8>
   107d8:	e28f2e11 	add	r2, pc, #272	; 0x110
   107dc:	e892000c 	ldmia	r2, {r2, r3}
   107e0:	e1a01007 	mov	r1, r7
   107e4:	e1a00006 	mov	r0, r6
   107e8:	eb001ba1 	bl	17674 <__gedf2>
   107ec:	e3500000 	cmp	r0, #0	; 0x0
   107f0:	e59f213c 	ldr	r2, [pc, #316]	; 10934 <.text+0xc934>
   107f4:	c59f313c 	ldrgt	r3, [pc, #316]	; 10938 <.text+0xc938>
   107f8:	d5824000 	strle	r4, [r2]
   107fc:	c5823000 	strgt	r3, [r2]
   10800:	ea00001e 	b	10880 <estimator_update_ir_estim+0x3d8>
   10804:	e59f3118 	ldr	r3, [pc, #280]	; 10924 <.text+0xc924>
   10808:	e1d300f0 	ldrsh	r0, [r3]
   1080c:	e3a03001 	mov	r3, #1	; 0x1
   10810:	e5c23000 	strb	r3, [r2]
   10814:	eb001cb1 	bl	17ae0 <__floatsisf>
   10818:	e1a01000 	mov	r1, r0
   1081c:	eb001cc2 	bl	17b2c <__mulsf3>
   10820:	e59f310c 	ldr	r3, [pc, #268]	; 10934 <.text+0xc934>
   10824:	e1a06000 	mov	r6, r0
   10828:	e5930000 	ldr	r0, [r3]
   1082c:	eb001a42 	bl	1713c <__extendsfdf2>
   10830:	e28f20c0 	add	r2, pc, #192	; 0xc0
   10834:	e892000c 	ldmia	r2, {r2, r3}
   10838:	eb001a52 	bl	17188 <__muldf3>
   1083c:	e1a05001 	mov	r5, r1
   10840:	e1a04000 	mov	r4, r0
   10844:	e1a00006 	mov	r0, r6
   10848:	eb001a3b 	bl	1713c <__extendsfdf2>
   1084c:	e1a03001 	mov	r3, r1
   10850:	e1a02000 	mov	r2, r0
   10854:	e1a01005 	mov	r1, r5
   10858:	e1a00004 	mov	r0, r4
   1085c:	eb001a49 	bl	17188 <__muldf3>
   10860:	eb001bed 	bl	1781c <__truncdfsf2>
   10864:	e59f30bc 	ldr	r3, [pc, #188]	; 10928 <.text+0xc928>
   10868:	e59f10cc 	ldr	r1, [pc, #204]	; 1093c <.text+0xc93c>
   1086c:	e5830000 	str	r0, [r3]
   10870:	e1a00006 	mov	r0, r6
   10874:	eb001cac 	bl	17b2c <__mulsf3>
   10878:	e59f30ac 	ldr	r3, [pc, #172]	; 1092c <.text+0xc92c>
   1087c:	e5830000 	str	r0, [r3]
   10880:	e59f3088 	ldr	r3, [pc, #136]	; 10910 <.text+0xc910>
   10884:	e5932000 	ldr	r2, [r3]
   10888:	e59f3074 	ldr	r3, [pc, #116]	; 10904 <.text+0xc904>
   1088c:	e5931000 	ldr	r1, [r3]
   10890:	e59f307c 	ldr	r3, [pc, #124]	; 10914 <.text+0xc914>
   10894:	e5832000 	str	r2, [r3]
   10898:	e59f3068 	ldr	r3, [pc, #104]	; 10908 <.text+0xc908>
   1089c:	e5831000 	str	r1, [r3]
   108a0:	e89d69f0 	ldmia	sp, {r4, r5, r6, r7, r8, fp, sp, lr}
   108a4:	e12fff1e 	bx	lr
   108a8:	3fb99999 	swicc	0x00b99999
   108ac:	9999999a 	ldmlsib	r9, {r1, r3, r4, r7, r8, fp, ip, pc}
   108b0:	400921fb 	strmid	r2, [r9], -fp
   108b4:	54442d18 	strplb	r2, [r4], #-3352
   108b8:	401921fb 	ldrmish	r2, [r9], -fp
   108bc:	54442d18 	strplb	r2, [r4], #-3352
   108c0:	c00921fb 	strgtd	r2, [r9], -fp
   108c4:	54442d18 	strplb	r2, [r4], #-3352
   108c8:	40280000 	eormi	r0, r8, r0
   108cc:	00000000 	andeq	r0, r0, r0
   108d0:	40239eb8 	strmih	r9, [r3], -r8
   108d4:	51eb851f 	mvnpl	r8, pc, lsl r5
   108d8:	3fa99999 	swicc	0x00a99999
   108dc:	9999999a 	ldmlsib	r9, {r1, r3, r4, r7, r8, fp, ip, pc}
   108e0:	3fefd70a 	swicc	0x00efd70a
   108e4:	3d70a3d7 	ldcccl	3, cr10, [r0, #-860]!
   108e8:	3f489374 	swicc	0x00489374
   108ec:	bc6a7efa 	stcltl	14, cr7, [sl], #-1000
   108f0:	3f726e97 	swicc	0x00726e97
   108f4:	8d4fdf3b 	stchil	15, cr13, [pc, #-236]
   108f8:	40590000 	submis	r0, r9, r0
   108fc:	00000000 	andeq	r0, r0, r0
   10900:	4000057c 	andmi	r0, r0, ip, ror r5
   10904:	40000f50 	andmi	r0, r0, r0, asr pc
   10908:	40000578 	andmi	r0, r0, r8, ror r5
   1090c:	447a0000 	ldrmibt	r0, [sl]
   10910:	40001068 	andmi	r1, r0, r8, rrx
   10914:	40000574 	andmi	r0, r0, r4, ror r5
   10918:	40001018 	andmi	r1, r0, r8, lsl r0
   1091c:	40001024 	andmi	r1, r0, r4, lsr #32
   10920:	40000ffc 	strmid	r0, [r0], -ip
   10924:	40000ff0 	strmid	r0, [r0], -r0
   10928:	40000580 	andmi	r0, r0, r0, lsl #11
   1092c:	40000584 	andmi	r0, r0, r4, lsl #11
   10930:	3a449ba6 	bcc	11377d0 <_etext+0x111f4b0>
   10934:	40000fec 	andmi	r0, r0, ip, ror #31
   10938:	3b9374bc 	blcc	fe4edc30 <_end+0xbe4eba30>
   1093c:	42c80000 	sbcmi	r0, r8, #0	; 0x0

00010940 <estimator_update_state_infrared>:
   10940:	e1a0c00d 	mov	ip, sp
   10944:	e92ddff0 	stmdb	sp!, {r4, r5, r6, r7, r8, r9, sl, fp, ip, lr, pc}
   10948:	e59f350c 	ldr	r3, [pc, #1292]	; 10e5c <.text+0xce5c>
   1094c:	e24cb004 	sub	fp, ip, #4	; 0x4
   10950:	e24dd020 	sub	sp, sp, #32	; 0x20
   10954:	e5d33000 	ldrb	r3, [r3]
   10958:	e3530001 	cmp	r3, #1	; 0x1
   1095c:	059f34fc 	ldreq	r3, [pc, #1276]	; 10e60 <.text+0xce60>
   10960:	159f34fc 	ldrne	r3, [pc, #1276]	; 10e64 <.text+0xce64>
   10964:	e5935000 	ldr	r5, [r3]
   10968:	e59f34f8 	ldr	r3, [pc, #1272]	; 10e68 <.text+0xce68>
   1096c:	e5d33000 	ldrb	r3, [r3]
   10970:	e3530000 	cmp	r3, #0	; 0x0
   10974:	e59fa4f0 	ldr	sl, [pc, #1264]	; 10e6c <.text+0xce6c>
   10978:	e59f94f0 	ldr	r9, [pc, #1264]	; 10e70 <.text+0xce70>
   1097c:	0a0001f8 	beq	11164 <.text+0xd164>
   10980:	e59f2500 	ldr	r2, [pc, #1280]	; 10e88 <.text+0xce88>
   10984:	e1d200f0 	ldrsh	r0, [r2]
   10988:	eb0019e0 	bl	17110 <__floatsidf>
   1098c:	eb001ba2 	bl	1781c <__truncdfsf2>
   10990:	e59f34f8 	ldr	r3, [pc, #1272]	; 10e90 <.text+0xce90>
   10994:	e1a04000 	mov	r4, r0
   10998:	e1d300f0 	ldrsh	r0, [r3]
   1099c:	eb0019db 	bl	17110 <__floatsidf>
   109a0:	eb001b9d 	bl	1781c <__truncdfsf2>
   109a4:	e50b002c 	str	r0, [fp, #-44]
   109a8:	e1da00f0 	ldrsh	r0, [sl]
   109ac:	eb0019d7 	bl	17110 <__floatsidf>
   109b0:	eb001b99 	bl	1781c <__truncdfsf2>
   109b4:	e50b0030 	str	r0, [fp, #-48]
   109b8:	e1a00004 	mov	r0, r4
   109bc:	eb0019de 	bl	1713c <__extendsfdf2>
   109c0:	e1a05001 	mov	r5, r1
   109c4:	e1a04000 	mov	r4, r0
   109c8:	e51b0030 	ldr	r0, [fp, #-48]
   109cc:	eb0019da 	bl	1713c <__extendsfdf2>
   109d0:	e1a03001 	mov	r3, r1
   109d4:	e1a02000 	mov	r2, r0
   109d8:	e1a01005 	mov	r1, r5
   109dc:	e1a00004 	mov	r0, r4
   109e0:	eb001d78 	bl	17fc8 <__atan2_from_arm>
   109e4:	e59f64a0 	ldr	r6, [pc, #1184]	; 10e8c <.text+0xce8c>
   109e8:	e1a05001 	mov	r5, r1
   109ec:	e1a04000 	mov	r4, r0
   109f0:	e5960000 	ldr	r0, [r6]
   109f4:	eb0019d0 	bl	1713c <__extendsfdf2>
   109f8:	e1a03001 	mov	r3, r1
   109fc:	e1a02000 	mov	r2, r0
   10a00:	e1a01005 	mov	r1, r5
   10a04:	e1a00004 	mov	r0, r4
   10a08:	eb0018f4 	bl	16de0 <__subdf3>
   10a0c:	eb001b82 	bl	1781c <__truncdfsf2>
   10a10:	e59f345c 	ldr	r3, [pc, #1116]	; 10e74 <.text+0xce74>
   10a14:	e5933000 	ldr	r3, [r3]
   10a18:	e50b3034 	str	r3, [fp, #-52]
   10a1c:	e59f3454 	ldr	r3, [pc, #1108]	; 10e78 <.text+0xce78>
   10a20:	e1a06000 	mov	r6, r0
   10a24:	e5933000 	ldr	r3, [r3]
   10a28:	e3a01000 	mov	r1, #0	; 0x0
   10a2c:	e5896000 	str	r6, [r9]
   10a30:	e50b3038 	str	r3, [fp, #-56]
   10a34:	eb001d08 	bl	17e5c <__gesf2>
   10a38:	e3500000 	cmp	r0, #0	; 0x0
   10a3c:	ba00000d 	blt	10a78 <estimator_update_state_infrared+0x138>
   10a40:	e1a00006 	mov	r0, r6
   10a44:	e51b1034 	ldr	r1, [fp, #-52]
   10a48:	eb001d05 	bl	17e64 <__lesf2>
   10a4c:	e3500000 	cmp	r0, #0	; 0x0
   10a50:	aa000008 	bge	10a78 <estimator_update_state_infrared+0x138>
   10a54:	e1a00006 	mov	r0, r6
   10a58:	eb0019b7 	bl	1713c <__extendsfdf2>
   10a5c:	e28f2ffa 	add	r2, pc, #1000	; 0x3e8
   10a60:	e892000c 	ldmia	r2, {r2, r3}
   10a64:	eb0019c7 	bl	17188 <__muldf3>
   10a68:	e1a05001 	mov	r5, r1
   10a6c:	e1a04000 	mov	r4, r0
   10a70:	e51b0034 	ldr	r0, [fp, #-52]
   10a74:	ea000052 	b	10bc4 <estimator_update_state_infrared+0x284>
   10a78:	e1a00006 	mov	r0, r6
   10a7c:	eb0019ae 	bl	1713c <__extendsfdf2>
   10a80:	e1a0a001 	mov	sl, r1
   10a84:	e1a09000 	mov	r9, r0
   10a88:	e51b0034 	ldr	r0, [fp, #-52]
   10a8c:	eb0019aa 	bl	1713c <__extendsfdf2>
   10a90:	e1a03001 	mov	r3, r1
   10a94:	e1a02000 	mov	r2, r0
   10a98:	e1a08001 	mov	r8, r1
   10a9c:	e1a07000 	mov	r7, r0
   10aa0:	e28f0feb 	add	r0, pc, #940	; 0x3ac
   10aa4:	e8900003 	ldmia	r0, {r0, r1}
   10aa8:	eb0018cc 	bl	16de0 <__subdf3>
   10aac:	e1a05001 	mov	r5, r1
   10ab0:	e1a04000 	mov	r4, r0
   10ab4:	e1a03005 	mov	r3, r5
   10ab8:	e1a02004 	mov	r2, r4
   10abc:	e1a0100a 	mov	r1, sl
   10ac0:	e1a00009 	mov	r0, r9
   10ac4:	eb001aea 	bl	17674 <__gedf2>
   10ac8:	e3500000 	cmp	r0, #0	; 0x0
   10acc:	da00000d 	ble	10b08 <estimator_update_state_infrared+0x1c8>
   10ad0:	e1a03005 	mov	r3, r5
   10ad4:	e1a02004 	mov	r2, r4
   10ad8:	e1a0100a 	mov	r1, sl
   10adc:	e1a00009 	mov	r0, r9
   10ae0:	eb0018be 	bl	16de0 <__subdf3>
   10ae4:	e28f2e36 	add	r2, pc, #864	; 0x360
   10ae8:	e892000c 	ldmia	r2, {r2, r3}
   10aec:	eb0019a5 	bl	17188 <__muldf3>
   10af0:	e1a03008 	mov	r3, r8
   10af4:	e1a02007 	mov	r2, r7
   10af8:	eb001a40 	bl	17400 <__divdf3>
   10afc:	e28f2d0f 	add	r2, pc, #960	; 0x3c0
   10b00:	e892000c 	ldmia	r2, {r2, r3}
   10b04:	ea000019 	b	10b70 <estimator_update_state_infrared+0x230>
   10b08:	e1a00006 	mov	r0, r6
   10b0c:	e51b1034 	ldr	r1, [fp, #-52]
   10b10:	eb001cd1 	bl	17e5c <__gesf2>
   10b14:	e3500000 	cmp	r0, #0	; 0x0
   10b18:	ba000016 	blt	10b78 <estimator_update_state_infrared+0x238>
   10b1c:	e51b1034 	ldr	r1, [fp, #-52]
   10b20:	e1a00006 	mov	r0, r6
   10b24:	eb001b7a 	bl	17914 <__subsf3>
   10b28:	eb001983 	bl	1713c <__extendsfdf2>
   10b2c:	e28f2fc6 	add	r2, pc, #792	; 0x318
   10b30:	e892000c 	ldmia	r2, {r2, r3}
   10b34:	eb001993 	bl	17188 <__muldf3>
   10b38:	e1a03008 	mov	r3, r8
   10b3c:	e1a02007 	mov	r2, r7
   10b40:	e1a05001 	mov	r5, r1
   10b44:	e1a04000 	mov	r4, r0
   10b48:	e28f0fe1 	add	r0, pc, #900	; 0x384
   10b4c:	e8900003 	ldmia	r0, {r0, r1}
   10b50:	eb0018a2 	bl	16de0 <__subdf3>
   10b54:	e1a03001 	mov	r3, r1
   10b58:	e1a02000 	mov	r2, r0
   10b5c:	e1a01005 	mov	r1, r5
   10b60:	e1a00004 	mov	r0, r4
   10b64:	eb001a25 	bl	17400 <__divdf3>
   10b68:	e28f2fb7 	add	r2, pc, #732	; 0x2dc
   10b6c:	e892000c 	ldmia	r2, {r2, r3}
   10b70:	eb00189b 	bl	16de4 <__adddf3>
   10b74:	ea00005b 	b	10ce8 <estimator_update_state_infrared+0x3a8>
   10b78:	e1a00006 	mov	r0, r6
   10b7c:	e3a01000 	mov	r1, #0	; 0x0
   10b80:	eb001cb7 	bl	17e64 <__lesf2>
   10b84:	e3500000 	cmp	r0, #0	; 0x0
   10b88:	ca000014 	bgt	10be0 <estimator_update_state_infrared+0x2a0>
   10b8c:	e51bc038 	ldr	ip, [fp, #-56]
   10b90:	e1a00006 	mov	r0, r6
   10b94:	e22c1102 	eor	r1, ip, #-2147483648	; 0x80000000
   10b98:	eb001caf 	bl	17e5c <__gesf2>
   10b9c:	e3500000 	cmp	r0, #0	; 0x0
   10ba0:	da00000e 	ble	10be0 <estimator_update_state_infrared+0x2a0>
   10ba4:	e1a0100a 	mov	r1, sl
   10ba8:	e1a00009 	mov	r0, r9
   10bac:	e28f2fa6 	add	r2, pc, #664	; 0x298
   10bb0:	e892000c 	ldmia	r2, {r2, r3}
   10bb4:	eb001973 	bl	17188 <__muldf3>
   10bb8:	e1a05001 	mov	r5, r1
   10bbc:	e1a04000 	mov	r4, r0
   10bc0:	e51b0038 	ldr	r0, [fp, #-56]
   10bc4:	eb00195c 	bl	1713c <__extendsfdf2>
   10bc8:	e1a03001 	mov	r3, r1
   10bcc:	e1a02000 	mov	r2, r0
   10bd0:	e1a01005 	mov	r1, r5
   10bd4:	e1a00004 	mov	r0, r4
   10bd8:	eb001a08 	bl	17400 <__divdf3>
   10bdc:	ea000041 	b	10ce8 <estimator_update_state_infrared+0x3a8>
   10be0:	e1a00006 	mov	r0, r6
   10be4:	eb001954 	bl	1713c <__extendsfdf2>
   10be8:	e1a06001 	mov	r6, r1
   10bec:	e1a05000 	mov	r5, r0
   10bf0:	e51b0038 	ldr	r0, [fp, #-56]
   10bf4:	eb001950 	bl	1713c <__extendsfdf2>
   10bf8:	e1a03001 	mov	r3, r1
   10bfc:	e1a02000 	mov	r2, r0
   10c00:	e1a08001 	mov	r8, r1
   10c04:	e1a07000 	mov	r7, r0
   10c08:	e28f0f91 	add	r0, pc, #580	; 0x244
   10c0c:	e8900003 	ldmia	r0, {r0, r1}
   10c10:	eb001872 	bl	16de0 <__subdf3>
   10c14:	e28f3e29 	add	r3, pc, #656	; 0x290
   10c18:	e8930018 	ldmia	r3, {r3, r4}
   10c1c:	e0209003 	eor	r9, r0, r3
   10c20:	e021a004 	eor	sl, r1, r4
   10c24:	e1a0300a 	mov	r3, sl
   10c28:	e1a02009 	mov	r2, r9
   10c2c:	e1a01006 	mov	r1, r6
   10c30:	e1a00005 	mov	r0, r5
   10c34:	eb001a90 	bl	1767c <__ledf2>
   10c38:	e3500000 	cmp	r0, #0	; 0x0
   10c3c:	aa00000d 	bge	10c78 <estimator_update_state_infrared+0x338>
   10c40:	e28f2f83 	add	r2, pc, #524	; 0x20c
   10c44:	e892000c 	ldmia	r2, {r2, r3}
   10c48:	e1a01006 	mov	r1, r6
   10c4c:	e1a00005 	mov	r0, r5
   10c50:	eb001863 	bl	16de4 <__adddf3>
   10c54:	e28f2e1f 	add	r2, pc, #496	; 0x1f0
   10c58:	e892000c 	ldmia	r2, {r2, r3}
   10c5c:	eb001949 	bl	17188 <__muldf3>
   10c60:	e1a03008 	mov	r3, r8
   10c64:	e1a02007 	mov	r2, r7
   10c68:	eb0019e4 	bl	17400 <__divdf3>
   10c6c:	e28f2d09 	add	r2, pc, #576	; 0x240
   10c70:	e892000c 	ldmia	r2, {r2, r3}
   10c74:	eaffffbd 	b	10b70 <estimator_update_state_infrared+0x230>
   10c78:	e28f2f8d 	add	r2, pc, #564	; 0x234
   10c7c:	e892000c 	ldmia	r2, {r2, r3}
   10c80:	e1a01008 	mov	r1, r8
   10c84:	e1a00007 	mov	r0, r7
   10c88:	eb001855 	bl	16de4 <__adddf3>
   10c8c:	e1a03001 	mov	r3, r1
   10c90:	e1a02000 	mov	r2, r0
   10c94:	e1a01006 	mov	r1, r6
   10c98:	e1a00005 	mov	r0, r5
   10c9c:	eb00184f 	bl	16de0 <__subdf3>
   10ca0:	e28f2f69 	add	r2, pc, #420	; 0x1a4
   10ca4:	e892000c 	ldmia	r2, {r2, r3}
   10ca8:	eb001936 	bl	17188 <__muldf3>
   10cac:	e1a03008 	mov	r3, r8
   10cb0:	e1a02007 	mov	r2, r7
   10cb4:	e1a05001 	mov	r5, r1
   10cb8:	e1a04000 	mov	r4, r0
   10cbc:	e28f0e21 	add	r0, pc, #528	; 0x210
   10cc0:	e8900003 	ldmia	r0, {r0, r1}
   10cc4:	eb001845 	bl	16de0 <__subdf3>
   10cc8:	e1a03001 	mov	r3, r1
   10ccc:	e1a02000 	mov	r2, r0
   10cd0:	e1a01005 	mov	r1, r5
   10cd4:	e1a00004 	mov	r0, r4
   10cd8:	eb0019c8 	bl	17400 <__divdf3>
   10cdc:	e28f2e1e 	add	r2, pc, #480	; 0x1e0
   10ce0:	e892000c 	ldmia	r2, {r2, r3}
   10ce4:	eb00183d 	bl	16de0 <__subdf3>
   10ce8:	eb001acb 	bl	1781c <__truncdfsf2>
   10cec:	e59fa17c 	ldr	sl, [pc, #380]	; 10e70 <.text+0xce70>
   10cf0:	e1a03000 	mov	r3, r0
   10cf4:	e58a3000 	str	r3, [sl]
   10cf8:	e51b002c 	ldr	r0, [fp, #-44]
   10cfc:	eb00190e 	bl	1713c <__extendsfdf2>
   10d00:	e1a05001 	mov	r5, r1
   10d04:	e1a04000 	mov	r4, r0
   10d08:	e51b0030 	ldr	r0, [fp, #-48]
   10d0c:	eb00190a 	bl	1713c <__extendsfdf2>
   10d10:	e1a03001 	mov	r3, r1
   10d14:	e1a02000 	mov	r2, r0
   10d18:	e1a01005 	mov	r1, r5
   10d1c:	e1a00004 	mov	r0, r4
   10d20:	eb001ca8 	bl	17fc8 <__atan2_from_arm>
   10d24:	e59f3168 	ldr	r3, [pc, #360]	; 10e94 <.text+0xce94>
   10d28:	e1a05001 	mov	r5, r1
   10d2c:	e1a04000 	mov	r4, r0
   10d30:	e5930000 	ldr	r0, [r3]
   10d34:	eb001900 	bl	1713c <__extendsfdf2>
   10d38:	e1a03001 	mov	r3, r1
   10d3c:	e1a02000 	mov	r2, r0
   10d40:	e1a01005 	mov	r1, r5
   10d44:	e1a00004 	mov	r0, r4
   10d48:	eb001824 	bl	16de0 <__subdf3>
   10d4c:	eb001ab2 	bl	1781c <__truncdfsf2>
   10d50:	e59f3124 	ldr	r3, [pc, #292]	; 10e7c <.text+0xce7c>
   10d54:	e5933000 	ldr	r3, [r3]
   10d58:	e50b303c 	str	r3, [fp, #-60]
   10d5c:	e59f311c 	ldr	r3, [pc, #284]	; 10e80 <.text+0xce80>
   10d60:	e59f4140 	ldr	r4, [pc, #320]	; 10ea8 <.text+0xcea8>
   10d64:	e1a06000 	mov	r6, r0
   10d68:	e5933000 	ldr	r3, [r3]
   10d6c:	e3a01000 	mov	r1, #0	; 0x0
   10d70:	e5846000 	str	r6, [r4]
   10d74:	e50b3040 	str	r3, [fp, #-64]
   10d78:	eb001c37 	bl	17e5c <__gesf2>
   10d7c:	e3500000 	cmp	r0, #0	; 0x0
   10d80:	ba00000d 	blt	10dbc <estimator_update_state_infrared+0x47c>
   10d84:	e1a00006 	mov	r0, r6
   10d88:	e51b103c 	ldr	r1, [fp, #-60]
   10d8c:	eb001c34 	bl	17e64 <__lesf2>
   10d90:	e3500000 	cmp	r0, #0	; 0x0
   10d94:	aa000008 	bge	10dbc <estimator_update_state_infrared+0x47c>
   10d98:	e1a00006 	mov	r0, r6
   10d9c:	eb0018e6 	bl	1713c <__extendsfdf2>
   10da0:	e28f20a4 	add	r2, pc, #164	; 0xa4
   10da4:	e892000c 	ldmia	r2, {r2, r3}
   10da8:	eb0018f6 	bl	17188 <__muldf3>
   10dac:	e1a05001 	mov	r5, r1
   10db0:	e1a04000 	mov	r4, r0
   10db4:	e51b003c 	ldr	r0, [fp, #-60]
   10db8:	ea00007c 	b	10fb0 <.text+0xcfb0>
   10dbc:	e1a00006 	mov	r0, r6
   10dc0:	eb0018dd 	bl	1713c <__extendsfdf2>
   10dc4:	e1a0a001 	mov	sl, r1
   10dc8:	e1a09000 	mov	r9, r0
   10dcc:	e51b003c 	ldr	r0, [fp, #-60]
   10dd0:	eb0018d9 	bl	1713c <__extendsfdf2>
   10dd4:	e1a03001 	mov	r3, r1
   10dd8:	e1a02000 	mov	r2, r0
   10ddc:	e1a08001 	mov	r8, r1
   10de0:	e1a07000 	mov	r7, r0
   10de4:	e28f0068 	add	r0, pc, #104	; 0x68
   10de8:	e8900003 	ldmia	r0, {r0, r1}
   10dec:	eb0017fb 	bl	16de0 <__subdf3>
   10df0:	e1a05001 	mov	r5, r1
   10df4:	e1a04000 	mov	r4, r0
   10df8:	e1a03005 	mov	r3, r5
   10dfc:	e1a02004 	mov	r2, r4
   10e00:	e1a0100a 	mov	r1, sl
   10e04:	e1a00009 	mov	r0, r9
   10e08:	eb001a19 	bl	17674 <__gedf2>
   10e0c:	e3500000 	cmp	r0, #0	; 0x0
   10e10:	da000037 	ble	10ef4 <.text+0xcef4>
   10e14:	e1a03005 	mov	r3, r5
   10e18:	e1a02004 	mov	r2, r4
   10e1c:	e1a0100a 	mov	r1, sl
   10e20:	e1a00009 	mov	r0, r9
   10e24:	eb0017ed 	bl	16de0 <__subdf3>
   10e28:	e28f201c 	add	r2, pc, #28	; 0x1c
   10e2c:	e892000c 	ldmia	r2, {r2, r3}
   10e30:	eb0018d4 	bl	17188 <__muldf3>
   10e34:	e1a03008 	mov	r3, r8
   10e38:	e1a02007 	mov	r2, r7
   10e3c:	eb00196f 	bl	17400 <__divdf3>
   10e40:	e28f207c 	add	r2, pc, #124	; 0x7c
   10e44:	e892000c 	ldmia	r2, {r2, r3}
   10e48:	ea000043 	b	10f5c <.text+0xcf5c>
   10e4c:	3fe921fb 	swicc	0x00e921fb
   10e50:	54442d18 	strplb	r2, [r4], #-3352
   10e54:	400921fb 	strmid	r2, [r9], -fp
   10e58:	54442d18 	strplb	r2, [r4], #-3352
   10e5c:	400004b7 	strmih	r0, [r0], -r7
   10e60:	40000fec 	andmi	r0, r0, ip, ror #31
   10e64:	40000ff4 	strmid	r0, [r0], -r4
   10e68:	4000102c 	andmi	r1, r0, ip, lsr #32
   10e6c:	40000fe2 	andmi	r0, r0, r2, ror #31
   10e70:	4000105c 	andmi	r1, r0, ip, asr r0
   10e74:	40001004 	andmi	r1, r0, r4
   10e78:	40001020 	andmi	r1, r0, r0, lsr #32
   10e7c:	40000fe4 	andmi	r0, r0, r4, ror #31
   10e80:	40001014 	andmi	r1, r0, r4, lsl r0
   10e84:	4000100c 	andmi	r1, r0, ip
   10e88:	40001024 	andmi	r1, r0, r4, lsr #32
   10e8c:	40001028 	andmi	r1, r0, r8, lsr #32
   10e90:	40000fe8 	andmi	r0, r0, r8, ror #31
   10e94:	40001000 	andmi	r1, r0, r0
   10e98:	40001010 	andmi	r1, r0, r0, lsl r0
   10e9c:	40000fdc 	ldrmid	r0, [r0], -ip
   10ea0:	4000101c 	andmi	r1, r0, ip, lsl r0
   10ea4:	40000ff8 	strmid	r0, [r0], -r8
   10ea8:	40001054 	andmi	r1, r0, r4, asr r0
   10eac:	80000000 	andhi	r0, r0, r0
   10eb0:	00000000 	andeq	r0, r0, r0
   10eb4:	c00921fb 	strgtd	r2, [r9], -fp
   10eb8:	54442d18 	strplb	r2, [r4], #-3352
   10ebc:	3fe921fb 	swicc	0x00e921fb
   10ec0:	54442d18 	strplb	r2, [r4], #-3352
   10ec4:	4002d97c 	andmi	sp, r2, ip, ror r9
   10ec8:	7f3321d2 	swivc	0x003321d2
   10ecc:	bff921fb 	swilt	0x00f921fb
   10ed0:	54442d18 	strplb	r2, [r4], #-3352
   10ed4:	3ff921fb 	swicc	0x00f921fb
   10ed8:	54442d18 	strplb	r2, [r4], #-3352
   10edc:	400921fb 	strmid	r2, [r9], -fp
   10ee0:	54442d18 	strplb	r2, [r4], #-3352
   10ee4:	7fffffff 	swivc	0x00ffffff
   10ee8:	ffffffff 	swinv	0x00ffffff
   10eec:	3fe80000 	swicc	0x00e80000
   10ef0:	00000000 	andeq	r0, r0, r0
   10ef4:	e1a00006 	mov	r0, r6
   10ef8:	e51b103c 	ldr	r1, [fp, #-60]
   10efc:	eb001bd6 	bl	17e5c <__gesf2>
   10f00:	e3500000 	cmp	r0, #0	; 0x0
   10f04:	ba000016 	blt	10f64 <.text+0xcf64>
   10f08:	e51b103c 	ldr	r1, [fp, #-60]
   10f0c:	e1a00006 	mov	r0, r6
   10f10:	eb001a7f 	bl	17914 <__subsf3>
   10f14:	eb001888 	bl	1713c <__extendsfdf2>
   10f18:	e24f2064 	sub	r2, pc, #100	; 0x64
   10f1c:	e892000c 	ldmia	r2, {r2, r3}
   10f20:	eb001898 	bl	17188 <__muldf3>
   10f24:	e1a03008 	mov	r3, r8
   10f28:	e1a02007 	mov	r2, r7
   10f2c:	e1a05001 	mov	r5, r1
   10f30:	e1a04000 	mov	r4, r0
   10f34:	e24f0068 	sub	r0, pc, #104	; 0x68
   10f38:	e8900003 	ldmia	r0, {r0, r1}
   10f3c:	eb0017a7 	bl	16de0 <__subdf3>
   10f40:	e1a03001 	mov	r3, r1
   10f44:	e1a02000 	mov	r2, r0
   10f48:	e1a01005 	mov	r1, r5
   10f4c:	e1a00004 	mov	r0, r4
   10f50:	eb00192a 	bl	17400 <__divdf3>
   10f54:	e24f20a0 	sub	r2, pc, #160	; 0xa0
   10f58:	e892000c 	ldmia	r2, {r2, r3}
   10f5c:	eb0017a0 	bl	16de4 <__adddf3>
   10f60:	ea00005b 	b	110d4 <.text+0xd0d4>
   10f64:	e1a00006 	mov	r0, r6
   10f68:	e3a01000 	mov	r1, #0	; 0x0
   10f6c:	eb001bbc 	bl	17e64 <__lesf2>
   10f70:	e3500000 	cmp	r0, #0	; 0x0
   10f74:	ca000014 	bgt	10fcc <.text+0xcfcc>
   10f78:	e51bc040 	ldr	ip, [fp, #-64]
   10f7c:	e1a00006 	mov	r0, r6
   10f80:	e22c1102 	eor	r1, ip, #-2147483648	; 0x80000000
   10f84:	eb001bb4 	bl	17e5c <__gesf2>
   10f88:	e3500000 	cmp	r0, #0	; 0x0
   10f8c:	da00000e 	ble	10fcc <.text+0xcfcc>
   10f90:	e1a0100a 	mov	r1, sl
   10f94:	e1a00009 	mov	r0, r9
   10f98:	e24f20e4 	sub	r2, pc, #228	; 0xe4
   10f9c:	e892000c 	ldmia	r2, {r2, r3}
   10fa0:	eb001878 	bl	17188 <__muldf3>
   10fa4:	e1a05001 	mov	r5, r1
   10fa8:	e1a04000 	mov	r4, r0
   10fac:	e51b0040 	ldr	r0, [fp, #-64]
   10fb0:	eb001861 	bl	1713c <__extendsfdf2>
   10fb4:	e1a03001 	mov	r3, r1
   10fb8:	e1a02000 	mov	r2, r0
   10fbc:	e1a01005 	mov	r1, r5
   10fc0:	e1a00004 	mov	r0, r4
   10fc4:	eb00190d 	bl	17400 <__divdf3>
   10fc8:	ea000041 	b	110d4 <.text+0xd0d4>
   10fcc:	e1a00006 	mov	r0, r6
   10fd0:	eb001859 	bl	1713c <__extendsfdf2>
   10fd4:	e1a06001 	mov	r6, r1
   10fd8:	e1a05000 	mov	r5, r0
   10fdc:	e51b0040 	ldr	r0, [fp, #-64]
   10fe0:	eb001855 	bl	1713c <__extendsfdf2>
   10fe4:	e1a03001 	mov	r3, r1
   10fe8:	e1a02000 	mov	r2, r0
   10fec:	e1a08001 	mov	r8, r1
   10ff0:	e1a07000 	mov	r7, r0
   10ff4:	e24f0e12 	sub	r0, pc, #288	; 0x120
   10ff8:	e8900003 	ldmia	r0, {r0, r1}
   10ffc:	eb001777 	bl	16de0 <__subdf3>
   11000:	e24f3f57 	sub	r3, pc, #348	; 0x15c
   11004:	e8930018 	ldmia	r3, {r3, r4}
   11008:	e0209003 	eor	r9, r0, r3
   1100c:	e021a004 	eor	sl, r1, r4
   11010:	e1a0300a 	mov	r3, sl
   11014:	e1a02009 	mov	r2, r9
   11018:	e1a01006 	mov	r1, r6
   1101c:	e1a00005 	mov	r0, r5
   11020:	eb001995 	bl	1767c <__ledf2>
   11024:	e3500000 	cmp	r0, #0	; 0x0
   11028:	aa00000d 	bge	11064 <.text+0xd064>
   1102c:	e24f2f56 	sub	r2, pc, #344	; 0x158
   11030:	e892000c 	ldmia	r2, {r2, r3}
   11034:	e1a01006 	mov	r1, r6
   11038:	e1a00005 	mov	r0, r5
   1103c:	eb001768 	bl	16de4 <__adddf3>
   11040:	e24f2f63 	sub	r2, pc, #396	; 0x18c
   11044:	e892000c 	ldmia	r2, {r2, r3}
   11048:	eb00184e 	bl	17188 <__muldf3>
   1104c:	e1a03008 	mov	r3, r8
   11050:	e1a02007 	mov	r2, r7
   11054:	eb0018e9 	bl	17400 <__divdf3>
   11058:	e24f2f6b 	sub	r2, pc, #428	; 0x1ac
   1105c:	e892000c 	ldmia	r2, {r2, r3}
   11060:	eaffffbd 	b	10f5c <.text+0xcf5c>
   11064:	e24f2f6e 	sub	r2, pc, #440	; 0x1b8
   11068:	e892000c 	ldmia	r2, {r2, r3}
   1106c:	e1a01008 	mov	r1, r8
   11070:	e1a00007 	mov	r0, r7
   11074:	eb00175a 	bl	16de4 <__adddf3>
   11078:	e1a03001 	mov	r3, r1
   1107c:	e1a02000 	mov	r2, r0
   11080:	e1a01006 	mov	r1, r6
   11084:	e1a00005 	mov	r0, r5
   11088:	eb001754 	bl	16de0 <__subdf3>
   1108c:	e24f2f76 	sub	r2, pc, #472	; 0x1d8
   11090:	e892000c 	ldmia	r2, {r2, r3}
   11094:	eb00183b 	bl	17188 <__muldf3>
   11098:	e1a03008 	mov	r3, r8
   1109c:	e1a02007 	mov	r2, r7
   110a0:	e1a05001 	mov	r5, r1
   110a4:	e1a04000 	mov	r4, r0
   110a8:	e24f0f77 	sub	r0, pc, #476	; 0x1dc
   110ac:	e8900003 	ldmia	r0, {r0, r1}
   110b0:	eb00174a 	bl	16de0 <__subdf3>
   110b4:	e1a03001 	mov	r3, r1
   110b8:	e1a02000 	mov	r2, r0
   110bc:	e1a01005 	mov	r1, r5
   110c0:	e1a00004 	mov	r0, r4
   110c4:	eb0018cd 	bl	17400 <__divdf3>
   110c8:	e24f2f83 	sub	r2, pc, #524	; 0x20c
   110cc:	e892000c 	ldmia	r2, {r2, r3}
   110d0:	eb001742 	bl	16de0 <__subdf3>
   110d4:	eb0019d0 	bl	1781c <__truncdfsf2>
   110d8:	e51fa238 	ldr	sl, [pc, #-568]	; 10ea8 <.text+0xcea8>
   110dc:	e1a03000 	mov	r3, r0
   110e0:	e58a3000 	str	r3, [sl]
   110e4:	eb001814 	bl	1713c <__extendsfdf2>
   110e8:	e24f2f89 	sub	r2, pc, #548	; 0x224
   110ec:	e892000c 	ldmia	r2, {r2, r3}
   110f0:	e1a05001 	mov	r5, r1
   110f4:	e1a04000 	mov	r4, r0
   110f8:	eb00195f 	bl	1767c <__ledf2>
   110fc:	e3500000 	cmp	r0, #0	; 0x0
   11100:	aa000007 	bge	11124 <.text+0xd124>
   11104:	e24f2e23 	sub	r2, pc, #560	; 0x230
   11108:	e892000c 	ldmia	r2, {r2, r3}
   1110c:	e1a01005 	mov	r1, r5
   11110:	e1a00004 	mov	r0, r4
   11114:	eb001732 	bl	16de4 <__adddf3>
   11118:	eb0019bf 	bl	1781c <__truncdfsf2>
   1111c:	e58a0000 	str	r0, [sl]
   11120:	ea000095 	b	1137c <.text+0xd37c>
   11124:	e1a01005 	mov	r1, r5
   11128:	e1a00004 	mov	r0, r4
   1112c:	e24f2e26 	sub	r2, pc, #608	; 0x260
   11130:	e892000c 	ldmia	r2, {r2, r3}
   11134:	eb00194e 	bl	17674 <__gedf2>
   11138:	e3500000 	cmp	r0, #0	; 0x0
   1113c:	da00008e 	ble	1137c <.text+0xd37c>
   11140:	e24f2f9b 	sub	r2, pc, #620	; 0x26c
   11144:	e892000c 	ldmia	r2, {r2, r3}
   11148:	e1a01005 	mov	r1, r5
   1114c:	e1a00004 	mov	r0, r4
   11150:	eb001722 	bl	16de0 <__subdf3>
   11154:	eb0019b0 	bl	1781c <__truncdfsf2>
   11158:	e51f32b8 	ldr	r3, [pc, #-696]	; 10ea8 <.text+0xcea8>
   1115c:	e5830000 	str	r0, [r3]
   11160:	ea000085 	b	1137c <.text+0xd37c>
   11164:	e51f32e8 	ldr	r3, [pc, #-744]	; 10e84 <.text+0xce84>
   11168:	e5934000 	ldr	r4, [r3]
   1116c:	e1da30f0 	ldrsh	r3, [sl]
   11170:	e3530001 	cmp	r3, #1	; 0x1
   11174:	b3a03001 	movlt	r3, #1	; 0x1
   11178:	e1ca30b0 	strh	r3, [sl]
   1117c:	e1a01004 	mov	r1, r4
   11180:	e3a005fe 	mov	r0, #1065353216	; 0x3f800000
   11184:	eb0019e2 	bl	17914 <__subsf3>
   11188:	e1a01000 	mov	r1, r0
   1118c:	e1a00005 	mov	r0, r5
   11190:	eb001a65 	bl	17b2c <__mulsf3>
   11194:	eb0017e8 	bl	1713c <__extendsfdf2>
   11198:	e1a08001 	mov	r8, r1
   1119c:	e1a07000 	mov	r7, r0
   111a0:	e1a00004 	mov	r0, r4
   111a4:	eb0017e4 	bl	1713c <__extendsfdf2>
   111a8:	e24bc040 	sub	ip, fp, #64	; 0x40
   111ac:	e90c0003 	stmdb	ip, {r0, r1}
   111b0:	e1da00f0 	ldrsh	r0, [sl]
   111b4:	eb0017d5 	bl	17110 <__floatsidf>
   111b8:	e24f3fb7 	sub	r3, pc, #732	; 0x2dc
   111bc:	e8930018 	ldmia	r3, {r3, r4}
   111c0:	e0016004 	and	r6, r1, r4
   111c4:	e0005003 	and	r5, r0, r3
   111c8:	e1a03006 	mov	r3, r6
   111cc:	e1a02005 	mov	r2, r5
   111d0:	e24f0fbb 	sub	r0, pc, #748	; 0x2ec
   111d4:	e8900003 	ldmia	r0, {r0, r1}
   111d8:	eb001888 	bl	17400 <__divdf3>
   111dc:	e24b6040 	sub	r6, fp, #64	; 0x40
   111e0:	e1a03001 	mov	r3, r1
   111e4:	e1a02000 	mov	r2, r0
   111e8:	e9160003 	ldmdb	r6, {r0, r1}
   111ec:	eb0017e5 	bl	17188 <__muldf3>
   111f0:	e1a03001 	mov	r3, r1
   111f4:	e1a02000 	mov	r2, r0
   111f8:	e1a01008 	mov	r1, r8
   111fc:	e1a00007 	mov	r0, r7
   11200:	eb0016f7 	bl	16de4 <__adddf3>
   11204:	eb001984 	bl	1781c <__truncdfsf2>
   11208:	e51fa388 	ldr	sl, [pc, #-904]	; 10e88 <.text+0xce88>
   1120c:	e1a04000 	mov	r4, r0
   11210:	e1da00f0 	ldrsh	r0, [sl]
   11214:	eb001a31 	bl	17ae0 <__floatsisf>
   11218:	e1a01000 	mov	r1, r0
   1121c:	e1a00004 	mov	r0, r4
   11220:	eb001a41 	bl	17b2c <__mulsf3>
   11224:	e51fc3a0 	ldr	ip, [pc, #-928]	; 10e8c <.text+0xce8c>
   11228:	e59c1000 	ldr	r1, [ip]
   1122c:	eb0019b8 	bl	17914 <__subsf3>
   11230:	e51f23a8 	ldr	r2, [pc, #-936]	; 10e90 <.text+0xce90>
   11234:	e1a05000 	mov	r5, r0
   11238:	e5895000 	str	r5, [r9]
   1123c:	e1d200f0 	ldrsh	r0, [r2]
   11240:	eb001a26 	bl	17ae0 <__floatsisf>
   11244:	e1a01000 	mov	r1, r0
   11248:	e1a00004 	mov	r0, r4
   1124c:	eb001a36 	bl	17b2c <__mulsf3>
   11250:	e51f33c4 	ldr	r3, [pc, #-964]	; 10e94 <.text+0xce94>
   11254:	e5931000 	ldr	r1, [r3]
   11258:	eb0019ad 	bl	17914 <__subsf3>
   1125c:	e51f73bc 	ldr	r7, [pc, #-956]	; 10ea8 <.text+0xcea8>
   11260:	e3a01000 	mov	r1, #0	; 0x0
   11264:	e5870000 	str	r0, [r7]
   11268:	e1a00005 	mov	r0, r5
   1126c:	eb001afa 	bl	17e5c <__gesf2>
   11270:	e3500000 	cmp	r0, #0	; 0x0
   11274:	a51f33e4 	ldrge	r3, [pc, #-996]	; 10e98 <.text+0xce98>
   11278:	b51f33e4 	ldrlt	r3, [pc, #-996]	; 10e9c <.text+0xce9c>
   1127c:	a1a00005 	movge	r0, r5
   11280:	e5931000 	ldr	r1, [r3]
   11284:	b1a00005 	movlt	r0, r5
   11288:	eb001a27 	bl	17b2c <__mulsf3>
   1128c:	e5974000 	ldr	r4, [r7]
   11290:	e5890000 	str	r0, [r9]
   11294:	e3a01000 	mov	r1, #0	; 0x0
   11298:	e1a00004 	mov	r0, r4
   1129c:	eb001aee 	bl	17e5c <__gesf2>
   112a0:	e3500000 	cmp	r0, #0	; 0x0
   112a4:	e1a06009 	mov	r6, r9
   112a8:	ba000005 	blt	112c4 <.text+0xd2c4>
   112ac:	e51f3414 	ldr	r3, [pc, #-1044]	; 10ea0 <.text+0xcea0>
   112b0:	e1a00004 	mov	r0, r4
   112b4:	e5931000 	ldr	r1, [r3]
   112b8:	eb001a1b 	bl	17b2c <__mulsf3>
   112bc:	e5870000 	str	r0, [r7]
   112c0:	ea000005 	b	112dc <.text+0xd2dc>
   112c4:	e51f3428 	ldr	r3, [pc, #-1064]	; 10ea4 <.text+0xcea4>
   112c8:	e1a00004 	mov	r0, r4
   112cc:	e5931000 	ldr	r1, [r3]
   112d0:	eb001a15 	bl	17b2c <__mulsf3>
   112d4:	e51f3434 	ldr	r3, [pc, #-1076]	; 10ea8 <.text+0xcea8>
   112d8:	e5830000 	str	r0, [r3]
   112dc:	e5960000 	ldr	r0, [r6]
   112e0:	eb001795 	bl	1713c <__extendsfdf2>
   112e4:	e28f209c 	add	r2, pc, #156	; 0x9c
   112e8:	e892000c 	ldmia	r2, {r2, r3}
   112ec:	e1a05001 	mov	r5, r1
   112f0:	e1a04000 	mov	r4, r0
   112f4:	eb0018de 	bl	17674 <__gedf2>
   112f8:	e3500000 	cmp	r0, #0	; 0x0
   112fc:	c59f3094 	ldrgt	r3, [pc, #148]	; 11398 <.text+0xd398>
   11300:	c5863000 	strgt	r3, [r6]
   11304:	ca000008 	bgt	1132c <.text+0xd32c>
   11308:	e28f2080 	add	r2, pc, #128	; 0x80
   1130c:	e892000c 	ldmia	r2, {r2, r3}
   11310:	e1a01005 	mov	r1, r5
   11314:	e1a00004 	mov	r0, r4
   11318:	eb0018d7 	bl	1767c <__ledf2>
   1131c:	e3500000 	cmp	r0, #0	; 0x0
   11320:	b59f2074 	ldrlt	r2, [pc, #116]	; 1139c <.text+0xd39c>
   11324:	b59f3074 	ldrlt	r3, [pc, #116]	; 113a0 <.text+0xd3a0>
   11328:	b5832000 	strlt	r2, [r3]
   1132c:	e5970000 	ldr	r0, [r7]
   11330:	eb001781 	bl	1713c <__extendsfdf2>
   11334:	e28f204c 	add	r2, pc, #76	; 0x4c
   11338:	e892000c 	ldmia	r2, {r2, r3}
   1133c:	e1a05001 	mov	r5, r1
   11340:	e1a04000 	mov	r4, r0
   11344:	eb0018ca 	bl	17674 <__gedf2>
   11348:	e3500000 	cmp	r0, #0	; 0x0
   1134c:	c59f3044 	ldrgt	r3, [pc, #68]	; 11398 <.text+0xd398>
   11350:	c5873000 	strgt	r3, [r7]
   11354:	ca000008 	bgt	1137c <.text+0xd37c>
   11358:	e28f2030 	add	r2, pc, #48	; 0x30
   1135c:	e892000c 	ldmia	r2, {r2, r3}
   11360:	e1a01005 	mov	r1, r5
   11364:	e1a00004 	mov	r0, r4
   11368:	eb0018c3 	bl	1767c <__ledf2>
   1136c:	e3500000 	cmp	r0, #0	; 0x0
   11370:	b59f2024 	ldrlt	r2, [pc, #36]	; 1139c <.text+0xd39c>
   11374:	b59f3028 	ldrlt	r3, [pc, #40]	; 113a4 <.text+0xd3a4>
   11378:	b5832000 	strlt	r2, [r3]
   1137c:	e24bd028 	sub	sp, fp, #40	; 0x28
   11380:	e89d6ff0 	ldmia	sp, {r4, r5, r6, r7, r8, r9, sl, fp, sp, lr}
   11384:	e12fff1e 	bx	lr
   11388:	3ff921fb 	swicc	0x00f921fb
   1138c:	54442d18 	strplb	r2, [r4], #-3352
   11390:	bff921fb 	swilt	0x00f921fb
   11394:	54442d18 	strplb	r2, [r4], #-3352
   11398:	3fc90fdb 	swicc	0x00c90fdb
   1139c:	bfc90fdb 	swilt	0x00c90fdb
   113a0:	4000105c 	andmi	r1, r0, ip, asr r0
   113a4:	40001054 	andmi	r1, r0, r4, asr r0

000113a8 <alt_kalman>:
   113a8:	e1a0c00d 	mov	ip, sp
   113ac:	e92ddff0 	stmdb	sp!, {r4, r5, r6, r7, r8, r9, sl, fp, ip, lr, pc}
   113b0:	e59f141c 	ldr	r1, [pc, #1052]	; 117d4 <.text+0xd7d4>
   113b4:	e24cb004 	sub	fp, ip, #4	; 0x4
   113b8:	e24dd018 	sub	sp, sp, #24	; 0x18
   113bc:	e50b002c 	str	r0, [fp, #-44]
   113c0:	e5910000 	ldr	r0, [r1]
   113c4:	eb00175c 	bl	1713c <__extendsfdf2>
   113c8:	e59f2408 	ldr	r2, [pc, #1032]	; 117d8 <.text+0xd7d8>
   113cc:	e1a05001 	mov	r5, r1
   113d0:	e1a04000 	mov	r4, r0
   113d4:	e5920000 	ldr	r0, [r2]
   113d8:	eb001757 	bl	1713c <__extendsfdf2>
   113dc:	e28f2e3e 	add	r2, pc, #992	; 0x3e0
   113e0:	e892000c 	ldmia	r2, {r2, r3}
   113e4:	eb001767 	bl	17188 <__muldf3>
   113e8:	e1a03001 	mov	r3, r1
   113ec:	e1a02000 	mov	r2, r0
   113f0:	e1a01005 	mov	r1, r5
   113f4:	e1a00004 	mov	r0, r4
   113f8:	eb001679 	bl	16de4 <__adddf3>
   113fc:	eb001906 	bl	1781c <__truncdfsf2>
   11400:	e50b0030 	str	r0, [fp, #-48]
   11404:	e59fc3c8 	ldr	ip, [pc, #968]	; 117d4 <.text+0xd7d4>
   11408:	e59f33e8 	ldr	r3, [pc, #1000]	; 117f8 <.text+0xd7f8>
   1140c:	e51b1030 	ldr	r1, [fp, #-48]
   11410:	e5930000 	ldr	r0, [r3]
   11414:	e58c1000 	str	r1, [ip]
   11418:	eb001747 	bl	1713c <__extendsfdf2>
   1141c:	e59f23d4 	ldr	r2, [pc, #980]	; 117f8 <.text+0xd7f8>
   11420:	e1a05001 	mov	r5, r1
   11424:	e1a04000 	mov	r4, r0
   11428:	e5920008 	ldr	r0, [r2, #8]
   1142c:	eb001742 	bl	1713c <__extendsfdf2>
   11430:	e24b3030 	sub	r3, fp, #48	; 0x30
   11434:	e9030003 	stmdb	r3, {r0, r1}
   11438:	e28f2fe1 	add	r2, pc, #900	; 0x384
   1143c:	e892000c 	ldmia	r2, {r2, r3}
   11440:	eb001750 	bl	17188 <__muldf3>
   11444:	e1a03001 	mov	r3, r1
   11448:	e1a02000 	mov	r2, r0
   1144c:	e1a01005 	mov	r1, r5
   11450:	e1a00004 	mov	r0, r4
   11454:	eb001662 	bl	16de4 <__adddf3>
   11458:	e1a0a001 	mov	sl, r1
   1145c:	e1a09000 	mov	r9, r0
   11460:	e59f1390 	ldr	r1, [pc, #912]	; 117f8 <.text+0xd7f8>
   11464:	e5910004 	ldr	r0, [r1, #4]
   11468:	eb001733 	bl	1713c <__extendsfdf2>
   1146c:	e59f2384 	ldr	r2, [pc, #900]	; 117f8 <.text+0xd7f8>
   11470:	e1a05001 	mov	r5, r1
   11474:	e1a04000 	mov	r4, r0
   11478:	e592000c 	ldr	r0, [r2, #12]
   1147c:	eb00172e 	bl	1713c <__extendsfdf2>
   11480:	e28f2fcf 	add	r2, pc, #828	; 0x33c
   11484:	e892000c 	ldmia	r2, {r2, r3}
   11488:	eb00173e 	bl	17188 <__muldf3>
   1148c:	e24b3040 	sub	r3, fp, #64	; 0x40
   11490:	e8830003 	stmia	r3, {r0, r1}
   11494:	e24bc040 	sub	ip, fp, #64	; 0x40
   11498:	e89c000c 	ldmia	ip, {r2, r3}
   1149c:	e1a01005 	mov	r1, r5
   114a0:	e1a00004 	mov	r0, r4
   114a4:	eb00164e 	bl	16de4 <__adddf3>
   114a8:	e28f2fc5 	add	r2, pc, #788	; 0x314
   114ac:	e892000c 	ldmia	r2, {r2, r3}
   114b0:	e1a08001 	mov	r8, r1
   114b4:	e1a07000 	mov	r7, r0
   114b8:	eb001732 	bl	17188 <__muldf3>
   114bc:	e1a03001 	mov	r3, r1
   114c0:	e1a02000 	mov	r2, r0
   114c4:	e1a0100a 	mov	r1, sl
   114c8:	e1a00009 	mov	r0, r9
   114cc:	eb001644 	bl	16de4 <__adddf3>
   114d0:	e59f6304 	ldr	r6, [pc, #772]	; 117dc <.text+0xd7dc>
   114d4:	e1a05001 	mov	r5, r1
   114d8:	e1a04000 	mov	r4, r0
   114dc:	e5960000 	ldr	r0, [r6]
   114e0:	eb001715 	bl	1713c <__extendsfdf2>
   114e4:	e1a03001 	mov	r3, r1
   114e8:	e1a02000 	mov	r2, r0
   114ec:	e1a01005 	mov	r1, r5
   114f0:	e1a00004 	mov	r0, r4
   114f4:	eb00163a 	bl	16de4 <__adddf3>
   114f8:	eb0018c7 	bl	1781c <__truncdfsf2>
   114fc:	e59f12f4 	ldr	r1, [pc, #756]	; 117f8 <.text+0xd7f8>
   11500:	e1a09000 	mov	r9, r0
   11504:	e5819000 	str	r9, [r1]
   11508:	e5960004 	ldr	r0, [r6, #4]
   1150c:	eb00170a 	bl	1713c <__extendsfdf2>
   11510:	e1a03001 	mov	r3, r1
   11514:	e1a02000 	mov	r2, r0
   11518:	e1a01008 	mov	r1, r8
   1151c:	e1a00007 	mov	r0, r7
   11520:	eb00162f 	bl	16de4 <__adddf3>
   11524:	eb0018bc 	bl	1781c <__truncdfsf2>
   11528:	e24bc040 	sub	ip, fp, #64	; 0x40
   1152c:	e89c000c 	ldmia	ip, {r2, r3}
   11530:	e24bc030 	sub	ip, fp, #48	; 0x30
   11534:	e1a0a000 	mov	sl, r0
   11538:	e91c0003 	ldmdb	ip, {r0, r1}
   1153c:	e59fc2b4 	ldr	ip, [pc, #692]	; 117f8 <.text+0xd7f8>
   11540:	e58ca004 	str	sl, [ip, #4]
   11544:	eb001626 	bl	16de4 <__adddf3>
   11548:	e1a05001 	mov	r5, r1
   1154c:	e1a04000 	mov	r4, r0
   11550:	e5960008 	ldr	r0, [r6, #8]
   11554:	eb0016f8 	bl	1713c <__extendsfdf2>
   11558:	e1a03001 	mov	r3, r1
   1155c:	e1a02000 	mov	r2, r0
   11560:	e1a01005 	mov	r1, r5
   11564:	e1a00004 	mov	r0, r4
   11568:	eb00161d 	bl	16de4 <__adddf3>
   1156c:	eb0018aa 	bl	1781c <__truncdfsf2>
   11570:	e59f2280 	ldr	r2, [pc, #640]	; 117f8 <.text+0xd7f8>
   11574:	e1a07000 	mov	r7, r0
   11578:	e5827008 	str	r7, [r2, #8]
   1157c:	e592000c 	ldr	r0, [r2, #12]
   11580:	e596100c 	ldr	r1, [r6, #12]
   11584:	eb0018e3 	bl	17918 <__addsf3>
   11588:	e59f3268 	ldr	r3, [pc, #616]	; 117f8 <.text+0xd7f8>
   1158c:	e1a08000 	mov	r8, r0
   11590:	e583800c 	str	r8, [r3, #12]
   11594:	e3a01101 	mov	r1, #1073741824	; 0x40000000
   11598:	e1a00009 	mov	r0, r9
   1159c:	eb0018dd 	bl	17918 <__addsf3>
   115a0:	e1a04000 	mov	r4, r0
   115a4:	e3c00102 	bic	r0, r0, #-2147483648	; 0x80000000
   115a8:	eb0016e3 	bl	1713c <__extendsfdf2>
   115ac:	e28f2f86 	add	r2, pc, #536	; 0x218
   115b0:	e892000c 	ldmia	r2, {r2, r3}
   115b4:	eb00182e 	bl	17674 <__gedf2>
   115b8:	e3500000 	cmp	r0, #0	; 0x0
   115bc:	da00003c 	ble	116b4 <alt_kalman+0x30c>
   115c0:	e1a01004 	mov	r1, r4
   115c4:	e1a00009 	mov	r0, r9
   115c8:	eb0019bb 	bl	17cbc <__divsf3>
   115cc:	e1a01004 	mov	r1, r4
   115d0:	e1a05000 	mov	r5, r0
   115d4:	e1a00007 	mov	r0, r7
   115d8:	eb0019b7 	bl	17cbc <__divsf3>
   115dc:	e51b1030 	ldr	r1, [fp, #-48]
   115e0:	e1a06000 	mov	r6, r0
   115e4:	e51b002c 	ldr	r0, [fp, #-44]
   115e8:	eb0018c9 	bl	17914 <__subsf3>
   115ec:	e1a04000 	mov	r4, r0
   115f0:	e1a01004 	mov	r1, r4
   115f4:	e1a00005 	mov	r0, r5
   115f8:	eb00194b 	bl	17b2c <__mulsf3>
   115fc:	e1a01000 	mov	r1, r0
   11600:	e51b0030 	ldr	r0, [fp, #-48]
   11604:	eb0018c3 	bl	17918 <__addsf3>
   11608:	e59fc1c4 	ldr	ip, [pc, #452]	; 117d4 <.text+0xd7d4>
   1160c:	e1a01004 	mov	r1, r4
   11610:	e58c0000 	str	r0, [ip]
   11614:	e1a00006 	mov	r0, r6
   11618:	eb001943 	bl	17b2c <__mulsf3>
   1161c:	e59f21b4 	ldr	r2, [pc, #436]	; 117d8 <.text+0xd7d8>
   11620:	e1a01000 	mov	r1, r0
   11624:	e5920000 	ldr	r0, [r2]
   11628:	eb0018ba 	bl	17918 <__addsf3>
   1162c:	e59f31a4 	ldr	r3, [pc, #420]	; 117d8 <.text+0xd7d8>
   11630:	e1a01005 	mov	r1, r5
   11634:	e5830000 	str	r0, [r3]
   11638:	e3a005fe 	mov	r0, #1065353216	; 0x3f800000
   1163c:	eb0018b4 	bl	17914 <__subsf3>
   11640:	e1a05000 	mov	r5, r0
   11644:	e1a01005 	mov	r1, r5
   11648:	e1a00009 	mov	r0, r9
   1164c:	eb001936 	bl	17b2c <__mulsf3>
   11650:	e59fc1a0 	ldr	ip, [pc, #416]	; 117f8 <.text+0xd7f8>
   11654:	e1a04000 	mov	r4, r0
   11658:	e58c4000 	str	r4, [ip]
   1165c:	e1a01005 	mov	r1, r5
   11660:	e1a0000a 	mov	r0, sl
   11664:	eb001930 	bl	17b2c <__mulsf3>
   11668:	e59f2188 	ldr	r2, [pc, #392]	; 117f8 <.text+0xd7f8>
   1166c:	e1a05000 	mov	r5, r0
   11670:	e2244102 	eor	r4, r4, #-2147483648	; 0x80000000
   11674:	e5825004 	str	r5, [r2, #4]
   11678:	e1a01006 	mov	r1, r6
   1167c:	e1a00004 	mov	r0, r4
   11680:	eb001929 	bl	17b2c <__mulsf3>
   11684:	e1a01007 	mov	r1, r7
   11688:	eb0018a2 	bl	17918 <__addsf3>
   1168c:	e59f3164 	ldr	r3, [pc, #356]	; 117f8 <.text+0xd7f8>
   11690:	e2255102 	eor	r5, r5, #-2147483648	; 0x80000000
   11694:	e5830008 	str	r0, [r3, #8]
   11698:	e1a01006 	mov	r1, r6
   1169c:	e1a00005 	mov	r0, r5
   116a0:	eb001921 	bl	17b2c <__mulsf3>
   116a4:	e1a01008 	mov	r1, r8
   116a8:	eb00189a 	bl	17918 <__addsf3>
   116ac:	e59fc144 	ldr	ip, [pc, #324]	; 117f8 <.text+0xd7f8>
   116b0:	e58c000c 	str	r0, [ip, #12]
   116b4:	e59f1124 	ldr	r1, [pc, #292]	; 117e0 <.text+0xd7e0>
   116b8:	e59f0124 	ldr	r0, [pc, #292]	; 117e4 <.text+0xd7e4>
   116bc:	e5d13000 	ldrb	r3, [r1]
   116c0:	e5d02000 	ldrb	r2, [r0]
   116c4:	e1520003 	cmp	r2, r3
   116c8:	25d13000 	ldrcsb	r3, [r1]
   116cc:	35d13000 	ldrccb	r3, [r1]
   116d0:	20633002 	rsbcs	r3, r3, r2
   116d4:	30623003 	rsbcc	r3, r2, r3
   116d8:	226330ff 	rsbcs	r3, r3, #255	; 0xff
   116dc:	e3530016 	cmp	r3, #22	; 0x16
   116e0:	d59f2100 	ldrle	r2, [pc, #256]	; 117e8 <.text+0xd7e8>
   116e4:	d5d23000 	ldrleb	r3, [r2]
   116e8:	d2833001 	addle	r3, r3, #1	; 0x1
   116ec:	d5c23000 	strleb	r3, [r2]
   116f0:	da000149 	ble	11c1c <.text+0xdc1c>
   116f4:	e5d02000 	ldrb	r2, [r0]
   116f8:	e2823001 	add	r3, r2, #1	; 0x1
   116fc:	e5c03000 	strb	r3, [r0]
   11700:	e5d03000 	ldrb	r3, [r0]
   11704:	e59f70e0 	ldr	r7, [pc, #224]	; 117ec <.text+0xd7ec>
   11708:	e35300ff 	cmp	r3, #255	; 0xff
   1170c:	e3e03066 	mvn	r3, #102	; 0x66
   11710:	e7c73002 	strb	r3, [r7, r2]
   11714:	02833067 	addeq	r3, r3, #103	; 0x67
   11718:	e59fc0c4 	ldr	ip, [pc, #196]	; 117e4 <.text+0xd7e4>
   1171c:	05c03000 	streqb	r3, [r0]
   11720:	e5dc2000 	ldrb	r2, [ip]
   11724:	e2823001 	add	r3, r2, #1	; 0x1
   11728:	e5cc3000 	strb	r3, [ip]
   1172c:	e5dc3000 	ldrb	r3, [ip]
   11730:	e35300ff 	cmp	r3, #255	; 0xff
   11734:	e3a03016 	mov	r3, #22	; 0x16
   11738:	e7c73002 	strb	r3, [r7, r2]
   1173c:	02433016 	subeq	r3, r3, #22	; 0x16
   11740:	05cc3000 	streqb	r3, [ip]
   11744:	e5dc2000 	ldrb	r2, [ip]
   11748:	e2823001 	add	r3, r2, #1	; 0x1
   1174c:	e5cc3000 	strb	r3, [ip]
   11750:	e5dc3000 	ldrb	r3, [ip]
   11754:	e59fe094 	ldr	lr, [pc, #148]	; 117f0 <.text+0xd7f0>
   11758:	e59f4094 	ldr	r4, [pc, #148]	; 117f4 <.text+0xd7f4>
   1175c:	e35300ff 	cmp	r3, #255	; 0xff
   11760:	e3a0301d 	mov	r3, #29	; 0x1d
   11764:	e5ce3000 	strb	r3, [lr]
   11768:	e2833016 	add	r3, r3, #22	; 0x16
   1176c:	e5c43000 	strb	r3, [r4]
   11770:	e243302c 	sub	r3, r3, #44	; 0x2c
   11774:	e7c73002 	strb	r3, [r7, r2]
   11778:	02433007 	subeq	r3, r3, #7	; 0x7
   1177c:	05cc3000 	streqb	r3, [ip]
   11780:	e5dc2000 	ldrb	r2, [ip]
   11784:	e2823001 	add	r3, r2, #1	; 0x1
   11788:	e5cc3000 	strb	r3, [ip]
   1178c:	e5dc3000 	ldrb	r3, [ip]
   11790:	e35300ff 	cmp	r3, #255	; 0xff
   11794:	e3a03046 	mov	r3, #70	; 0x46
   11798:	e5ce3000 	strb	r3, [lr]
   1179c:	e2833033 	add	r3, r3, #51	; 0x33
   117a0:	e5c43000 	strb	r3, [r4]
   117a4:	e2433050 	sub	r3, r3, #80	; 0x50
   117a8:	e7c73002 	strb	r3, [r7, r2]
   117ac:	02433029 	subeq	r3, r3, #41	; 0x29
   117b0:	05cc3000 	streqb	r3, [ip]
   117b4:	e59f103c 	ldr	r1, [pc, #60]	; 117f8 <.text+0xd7f8>
   117b8:	e5d10000 	ldrb	r0, [r1]
   117bc:	e5dc1000 	ldrb	r1, [ip]
   117c0:	ea000010 	b	11808 <.text+0xd808>
   117c4:	3fd00000 	swicc	0x00d00000
   117c8:	00000000 	andeq	r0, r0, r0
   117cc:	3ee4f8b5 	mcrcc	8, 7, pc, cr4, cr5, {5}
   117d0:	88e368f1 	stmhiia	r3!, {r0, r4, r5, r6, r7, fp, sp, lr}^
   117d4:	4000103c 	andmi	r1, r0, ip, lsr r0
   117d8:	40001030 	andmi	r1, r0, r0, lsr r0
   117dc:	00018080 	andeq	r8, r1, r0, lsl #1
   117e0:	40000d2c 	andmi	r0, r0, ip, lsr #26
   117e4:	40000d2b 	andmi	r0, r0, fp, lsr #26
   117e8:	40000a93 	mulmi	r0, r3, sl
   117ec:	40000d2d 	andmi	r0, r0, sp, lsr #26
   117f0:	40000d27 	andmi	r0, r0, r7, lsr #26
   117f4:	40000c24 	andmi	r0, r0, r4, lsr #24
   117f8:	40000658 	andmi	r0, r0, r8, asr r6
   117fc:	40000659 	andmi	r0, r0, r9, asr r6
   11800:	4000065a 	andmi	r0, r0, sl, asr r6
   11804:	4000065b 	andmi	r0, r0, fp, asr r6
   11808:	e2803046 	add	r3, r0, #70	; 0x46
   1180c:	e2812001 	add	r2, r1, #1	; 0x1
   11810:	e5cc2000 	strb	r2, [ip]
   11814:	e5ce3000 	strb	r3, [lr]
   11818:	e5dc3000 	ldrb	r3, [ip]
   1181c:	e5de5000 	ldrb	r5, [lr]
   11820:	e35300ff 	cmp	r3, #255	; 0xff
   11824:	e2853079 	add	r3, r5, #121	; 0x79
   11828:	e5c43000 	strb	r3, [r4]
   1182c:	03a03000 	moveq	r3, #0	; 0x0
   11830:	e51f6040 	ldr	r6, [pc, #-64]	; 117f8 <.text+0xd7f8>
   11834:	05cc3000 	streqb	r3, [ip]
   11838:	e7c70001 	strb	r0, [r7, r1]
   1183c:	e5dc0000 	ldrb	r0, [ip]
   11840:	e5d61001 	ldrb	r1, [r6, #1]
   11844:	e2802001 	add	r2, r0, #1	; 0x1
   11848:	e0813005 	add	r3, r1, r5
   1184c:	e5ce3000 	strb	r3, [lr]
   11850:	e5cc2000 	strb	r2, [ip]
   11854:	e5dc3000 	ldrb	r3, [ip]
   11858:	e35300ff 	cmp	r3, #255	; 0xff
   1185c:	e5de5000 	ldrb	r5, [lr]
   11860:	e5d42000 	ldrb	r2, [r4]
   11864:	024330ff 	subeq	r3, r3, #255	; 0xff
   11868:	05cc3000 	streqb	r3, [ip]
   1186c:	e0822005 	add	r2, r2, r5
   11870:	e5c42000 	strb	r2, [r4]
   11874:	e7c71000 	strb	r1, [r7, r0]
   11878:	e5dc0000 	ldrb	r0, [ip]
   1187c:	e5d61002 	ldrb	r1, [r6, #2]
   11880:	e2802001 	add	r2, r0, #1	; 0x1
   11884:	e5cc2000 	strb	r2, [ip]
   11888:	e0813005 	add	r3, r1, r5
   1188c:	e5ce3000 	strb	r3, [lr]
   11890:	e5dc3000 	ldrb	r3, [ip]
   11894:	e35300ff 	cmp	r3, #255	; 0xff
   11898:	e5de5000 	ldrb	r5, [lr]
   1189c:	e5d42000 	ldrb	r2, [r4]
   118a0:	024330ff 	subeq	r3, r3, #255	; 0xff
   118a4:	05cc3000 	streqb	r3, [ip]
   118a8:	e0822005 	add	r2, r2, r5
   118ac:	e5c42000 	strb	r2, [r4]
   118b0:	e7c71000 	strb	r1, [r7, r0]
   118b4:	e5dc0000 	ldrb	r0, [ip]
   118b8:	e5d61003 	ldrb	r1, [r6, #3]
   118bc:	e2802001 	add	r2, r0, #1	; 0x1
   118c0:	e5cc2000 	strb	r2, [ip]
   118c4:	e0813005 	add	r3, r1, r5
   118c8:	e5ce3000 	strb	r3, [lr]
   118cc:	e5dc3000 	ldrb	r3, [ip]
   118d0:	e5de5000 	ldrb	r5, [lr]
   118d4:	e35300ff 	cmp	r3, #255	; 0xff
   118d8:	e5d42000 	ldrb	r2, [r4]
   118dc:	024330ff 	subeq	r3, r3, #255	; 0xff
   118e0:	05cc3000 	streqb	r3, [ip]
   118e4:	e0822005 	add	r2, r2, r5
   118e8:	e5c42000 	strb	r2, [r4]
   118ec:	e7c71000 	strb	r1, [r7, r0]
   118f0:	e5dc0000 	ldrb	r0, [ip]
   118f4:	e5d61004 	ldrb	r1, [r6, #4]
   118f8:	e2802001 	add	r2, r0, #1	; 0x1
   118fc:	e0813005 	add	r3, r1, r5
   11900:	e5cc2000 	strb	r2, [ip]
   11904:	e5ce3000 	strb	r3, [lr]
   11908:	e5dc3000 	ldrb	r3, [ip]
   1190c:	e5de5000 	ldrb	r5, [lr]
   11910:	e5d42000 	ldrb	r2, [r4]
   11914:	e35300ff 	cmp	r3, #255	; 0xff
   11918:	e0822005 	add	r2, r2, r5
   1191c:	024330ff 	subeq	r3, r3, #255	; 0xff
   11920:	e5c42000 	strb	r2, [r4]
   11924:	05cc3000 	streqb	r3, [ip]
   11928:	e7c71000 	strb	r1, [r7, r0]
   1192c:	e5dc0000 	ldrb	r0, [ip]
   11930:	e5d61005 	ldrb	r1, [r6, #5]
   11934:	e2802001 	add	r2, r0, #1	; 0x1
   11938:	e5cc2000 	strb	r2, [ip]
   1193c:	e0813005 	add	r3, r1, r5
   11940:	e5ce3000 	strb	r3, [lr]
   11944:	e5dc3000 	ldrb	r3, [ip]
   11948:	e35300ff 	cmp	r3, #255	; 0xff
   1194c:	e5de5000 	ldrb	r5, [lr]
   11950:	e5d42000 	ldrb	r2, [r4]
   11954:	024330ff 	subeq	r3, r3, #255	; 0xff
   11958:	05cc3000 	streqb	r3, [ip]
   1195c:	e0822005 	add	r2, r2, r5
   11960:	e5c42000 	strb	r2, [r4]
   11964:	e7c71000 	strb	r1, [r7, r0]
   11968:	e5dc0000 	ldrb	r0, [ip]
   1196c:	e5d61006 	ldrb	r1, [r6, #6]
   11970:	e2802001 	add	r2, r0, #1	; 0x1
   11974:	e5cc2000 	strb	r2, [ip]
   11978:	e0813005 	add	r3, r1, r5
   1197c:	e5ce3000 	strb	r3, [lr]
   11980:	e5dc3000 	ldrb	r3, [ip]
   11984:	e5de5000 	ldrb	r5, [lr]
   11988:	e5d42000 	ldrb	r2, [r4]
   1198c:	e35300ff 	cmp	r3, #255	; 0xff
   11990:	024330ff 	subeq	r3, r3, #255	; 0xff
   11994:	05cc3000 	streqb	r3, [ip]
   11998:	e0822005 	add	r2, r2, r5
   1199c:	e5c42000 	strb	r2, [r4]
   119a0:	e7c71000 	strb	r1, [r7, r0]
   119a4:	e5dc0000 	ldrb	r0, [ip]
   119a8:	e5d61007 	ldrb	r1, [r6, #7]
   119ac:	e2802001 	add	r2, r0, #1	; 0x1
   119b0:	e5cc2000 	strb	r2, [ip]
   119b4:	e0813005 	add	r3, r1, r5
   119b8:	e5ce3000 	strb	r3, [lr]
   119bc:	e5dc3000 	ldrb	r3, [ip]
   119c0:	e5de5000 	ldrb	r5, [lr]
   119c4:	e5d42000 	ldrb	r2, [r4]
   119c8:	e35300ff 	cmp	r3, #255	; 0xff
   119cc:	e0822005 	add	r2, r2, r5
   119d0:	024330ff 	subeq	r3, r3, #255	; 0xff
   119d4:	05cc3000 	streqb	r3, [ip]
   119d8:	e5c42000 	strb	r2, [r4]
   119dc:	e7c71000 	strb	r1, [r7, r0]
   119e0:	e5dc0000 	ldrb	r0, [ip]
   119e4:	e5d61008 	ldrb	r1, [r6, #8]
   119e8:	e2802001 	add	r2, r0, #1	; 0x1
   119ec:	e0813005 	add	r3, r1, r5
   119f0:	e5ce3000 	strb	r3, [lr]
   119f4:	e5cc2000 	strb	r2, [ip]
   119f8:	e5dc3000 	ldrb	r3, [ip]
   119fc:	e35300ff 	cmp	r3, #255	; 0xff
   11a00:	e5de5000 	ldrb	r5, [lr]
   11a04:	e5d42000 	ldrb	r2, [r4]
   11a08:	024330ff 	subeq	r3, r3, #255	; 0xff
   11a0c:	05cc3000 	streqb	r3, [ip]
   11a10:	e0822005 	add	r2, r2, r5
   11a14:	e5c42000 	strb	r2, [r4]
   11a18:	e7c71000 	strb	r1, [r7, r0]
   11a1c:	e5dc1000 	ldrb	r1, [ip]
   11a20:	e5d60009 	ldrb	r0, [r6, #9]
   11a24:	e2812001 	add	r2, r1, #1	; 0x1
   11a28:	e5cc2000 	strb	r2, [ip]
   11a2c:	e0803005 	add	r3, r0, r5
   11a30:	e5ce3000 	strb	r3, [lr]
   11a34:	e5dc3000 	ldrb	r3, [ip]
   11a38:	e35300ff 	cmp	r3, #255	; 0xff
   11a3c:	e5de5000 	ldrb	r5, [lr]
   11a40:	e5d42000 	ldrb	r2, [r4]
   11a44:	024330ff 	subeq	r3, r3, #255	; 0xff
   11a48:	05cc3000 	streqb	r3, [ip]
   11a4c:	e0822005 	add	r2, r2, r5
   11a50:	e5c42000 	strb	r2, [r4]
   11a54:	e7c70001 	strb	r0, [r7, r1]
   11a58:	e51f2264 	ldr	r2, [pc, #-612]	; 117fc <.text+0xd7fc>
   11a5c:	e5dc1000 	ldrb	r1, [ip]
   11a60:	e5d20009 	ldrb	r0, [r2, #9]
   11a64:	e2812001 	add	r2, r1, #1	; 0x1
   11a68:	e5cc2000 	strb	r2, [ip]
   11a6c:	e0803005 	add	r3, r0, r5
   11a70:	e5ce3000 	strb	r3, [lr]
   11a74:	e5dc3000 	ldrb	r3, [ip]
   11a78:	e5de5000 	ldrb	r5, [lr]
   11a7c:	e35300ff 	cmp	r3, #255	; 0xff
   11a80:	e5d42000 	ldrb	r2, [r4]
   11a84:	024330ff 	subeq	r3, r3, #255	; 0xff
   11a88:	05cc3000 	streqb	r3, [ip]
   11a8c:	e0822005 	add	r2, r2, r5
   11a90:	e5c42000 	strb	r2, [r4]
   11a94:	e7c70001 	strb	r0, [r7, r1]
   11a98:	e51f32a0 	ldr	r3, [pc, #-672]	; 11800 <.text+0xd800>
   11a9c:	e5dc1000 	ldrb	r1, [ip]
   11aa0:	e5d30009 	ldrb	r0, [r3, #9]
   11aa4:	e2812001 	add	r2, r1, #1	; 0x1
   11aa8:	e0803005 	add	r3, r0, r5
   11aac:	e5cc2000 	strb	r2, [ip]
   11ab0:	e5ce3000 	strb	r3, [lr]
   11ab4:	e5dc3000 	ldrb	r3, [ip]
   11ab8:	e5de5000 	ldrb	r5, [lr]
   11abc:	e5d42000 	ldrb	r2, [r4]
   11ac0:	e35300ff 	cmp	r3, #255	; 0xff
   11ac4:	e0822005 	add	r2, r2, r5
   11ac8:	024330ff 	subeq	r3, r3, #255	; 0xff
   11acc:	e5c42000 	strb	r2, [r4]
   11ad0:	05cc3000 	streqb	r3, [ip]
   11ad4:	e7c70001 	strb	r0, [r7, r1]
   11ad8:	e51f12dc 	ldr	r1, [pc, #-732]	; 11804 <.text+0xd804>
   11adc:	e5d10009 	ldrb	r0, [r1, #9]
   11ae0:	e5dc1000 	ldrb	r1, [ip]
   11ae4:	e2812001 	add	r2, r1, #1	; 0x1
   11ae8:	e5cc2000 	strb	r2, [ip]
   11aec:	e0803005 	add	r3, r0, r5
   11af0:	e5ce3000 	strb	r3, [lr]
   11af4:	e5dc3000 	ldrb	r3, [ip]
   11af8:	e35300ff 	cmp	r3, #255	; 0xff
   11afc:	e5de5000 	ldrb	r5, [lr]
   11b00:	e5d42000 	ldrb	r2, [r4]
   11b04:	024330ff 	subeq	r3, r3, #255	; 0xff
   11b08:	05cc3000 	streqb	r3, [ip]
   11b0c:	e0822005 	add	r2, r2, r5
   11b10:	e5c42000 	strb	r2, [r4]
   11b14:	e7c70001 	strb	r0, [r7, r1]
   11b18:	e5dc1000 	ldrb	r1, [ip]
   11b1c:	e286a004 	add	sl, r6, #4	; 0x4
   11b20:	e5da0009 	ldrb	r0, [sl, #9]
   11b24:	e2812001 	add	r2, r1, #1	; 0x1
   11b28:	e5cc2000 	strb	r2, [ip]
   11b2c:	e0803005 	add	r3, r0, r5
   11b30:	e5ce3000 	strb	r3, [lr]
   11b34:	e5dc3000 	ldrb	r3, [ip]
   11b38:	e5de5000 	ldrb	r5, [lr]
   11b3c:	e5d42000 	ldrb	r2, [r4]
   11b40:	e35300ff 	cmp	r3, #255	; 0xff
   11b44:	024330ff 	subeq	r3, r3, #255	; 0xff
   11b48:	05cc3000 	streqb	r3, [ip]
   11b4c:	e0822005 	add	r2, r2, r5
   11b50:	e5c42000 	strb	r2, [r4]
   11b54:	e7c70001 	strb	r0, [r7, r1]
   11b58:	e2869005 	add	r9, r6, #5	; 0x5
   11b5c:	e5dc1000 	ldrb	r1, [ip]
   11b60:	e5d90009 	ldrb	r0, [r9, #9]
   11b64:	e2812001 	add	r2, r1, #1	; 0x1
   11b68:	e5cc2000 	strb	r2, [ip]
   11b6c:	e0803005 	add	r3, r0, r5
   11b70:	e5ce3000 	strb	r3, [lr]
   11b74:	e5dc3000 	ldrb	r3, [ip]
   11b78:	e5de5000 	ldrb	r5, [lr]
   11b7c:	e5d42000 	ldrb	r2, [r4]
   11b80:	e35300ff 	cmp	r3, #255	; 0xff
   11b84:	024330ff 	subeq	r3, r3, #255	; 0xff
   11b88:	e0822005 	add	r2, r2, r5
   11b8c:	05cc3000 	streqb	r3, [ip]
   11b90:	e5c42000 	strb	r2, [r4]
   11b94:	e7c70001 	strb	r0, [r7, r1]
   11b98:	e2868006 	add	r8, r6, #6	; 0x6
   11b9c:	e5dc1000 	ldrb	r1, [ip]
   11ba0:	e5d80009 	ldrb	r0, [r8, #9]
   11ba4:	e2812001 	add	r2, r1, #1	; 0x1
   11ba8:	e0803005 	add	r3, r0, r5
   11bac:	e5ce3000 	strb	r3, [lr]
   11bb0:	e5cc2000 	strb	r2, [ip]
   11bb4:	e5dee000 	ldrb	lr, [lr]
   11bb8:	e5dc2000 	ldrb	r2, [ip]
   11bbc:	e5d43000 	ldrb	r3, [r4]
   11bc0:	e35200ff 	cmp	r2, #255	; 0xff
   11bc4:	e083300e 	add	r3, r3, lr
   11bc8:	e5c43000 	strb	r3, [r4]
   11bcc:	03a03000 	moveq	r3, #0	; 0x0
   11bd0:	05cc3000 	streqb	r3, [ip]
   11bd4:	e5dc3000 	ldrb	r3, [ip]
   11bd8:	e2832001 	add	r2, r3, #1	; 0x1
   11bdc:	e5cc2000 	strb	r2, [ip]
   11be0:	e5dc2000 	ldrb	r2, [ip]
   11be4:	e35200ff 	cmp	r2, #255	; 0xff
   11be8:	e7c70001 	strb	r0, [r7, r1]
   11bec:	e7c7e003 	strb	lr, [r7, r3]
   11bf0:	03a03000 	moveq	r3, #0	; 0x0
   11bf4:	05cc3000 	streqb	r3, [ip]
   11bf8:	e5dc1000 	ldrb	r1, [ip]
   11bfc:	e2813001 	add	r3, r1, #1	; 0x1
   11c00:	e5cc3000 	strb	r3, [ip]
   11c04:	e5dc3000 	ldrb	r3, [ip]
   11c08:	e5d42000 	ldrb	r2, [r4]
   11c0c:	e35300ff 	cmp	r3, #255	; 0xff
   11c10:	024330ff 	subeq	r3, r3, #255	; 0xff
   11c14:	e7c72001 	strb	r2, [r7, r1]
   11c18:	05cc3000 	streqb	r3, [ip]
   11c1c:	e24bd028 	sub	sp, fp, #40	; 0x28
   11c20:	e89d6ff0 	ldmia	sp, {r4, r5, r6, r7, r8, r9, sl, fp, sp, lr}
   11c24:	e12fff1e 	bx	lr

00011c28 <estimator_init>:
   11c28:	e1a0c00d 	mov	ip, sp
   11c2c:	e92dd810 	stmdb	sp!, {r4, fp, ip, lr, pc}
   11c30:	e59f40a4 	ldr	r4, [pc, #164]	; 11cdc <.text+0xdcdc>
   11c34:	e5d43000 	ldrb	r3, [r4]
   11c38:	e3530000 	cmp	r3, #0	; 0x0
   11c3c:	e59f309c 	ldr	r3, [pc, #156]	; 11ce0 <.text+0xdce0>
   11c40:	e3a02000 	mov	r2, #0	; 0x0
   11c44:	e5832000 	str	r2, [r3]
   11c48:	e59f3094 	ldr	r3, [pc, #148]	; 11ce4 <.text+0xdce4>
   11c4c:	e5832000 	str	r2, [r3]
   11c50:	059f3090 	ldreq	r3, [pc, #144]	; 11ce8 <.text+0xdce8>
   11c54:	e24cb004 	sub	fp, ip, #4	; 0x4
   11c58:	e1a00002 	mov	r0, r2
   11c5c:	05832000 	streq	r2, [r3]
   11c60:	1bfffdd0 	blne	113a8 <alt_kalman>
   11c64:	e5d43000 	ldrb	r3, [r4]
   11c68:	e3530000 	cmp	r3, #0	; 0x0
   11c6c:	e59f3078 	ldr	r3, [pc, #120]	; 11cec <.text+0xdcec>
   11c70:	e3a02000 	mov	r2, #0	; 0x0
   11c74:	e5832000 	str	r2, [r3]
   11c78:	e59f3070 	ldr	r3, [pc, #112]	; 11cf0 <.text+0xdcf0>
   11c7c:	e5832000 	str	r2, [r3]
   11c80:	e59f306c 	ldr	r3, [pc, #108]	; 11cf4 <.text+0xdcf4>
   11c84:	e5832000 	str	r2, [r3]
   11c88:	e59f3068 	ldr	r3, [pc, #104]	; 11cf8 <.text+0xdcf8>
   11c8c:	e5832000 	str	r2, [r3]
   11c90:	e59f3064 	ldr	r3, [pc, #100]	; 11cfc <.text+0xdcfc>
   11c94:	e5832000 	str	r2, [r3]
   11c98:	059f3060 	ldreq	r3, [pc, #96]	; 11d00 <.text+0xdd00>
   11c9c:	05832000 	streq	r2, [r3]
   11ca0:	e59f305c 	ldr	r3, [pc, #92]	; 11d04 <.text+0xdd04>
   11ca4:	e5832000 	str	r2, [r3]
   11ca8:	e59f3058 	ldr	r3, [pc, #88]	; 11d08 <.text+0xdd08>
   11cac:	e5832000 	str	r2, [r3]
   11cb0:	e59f3054 	ldr	r3, [pc, #84]	; 11d0c <.text+0xdd0c>
   11cb4:	e5832000 	str	r2, [r3]
   11cb8:	e59f3050 	ldr	r3, [pc, #80]	; 11d10 <.text+0xdd10>
   11cbc:	e5832000 	str	r2, [r3]
   11cc0:	e59f304c 	ldr	r3, [pc, #76]	; 11d14 <.text+0xdd14>
   11cc4:	e5832000 	str	r2, [r3]
   11cc8:	e59f3048 	ldr	r3, [pc, #72]	; 11d18 <.text+0xdd18>
   11ccc:	e3a02000 	mov	r2, #0	; 0x0
   11cd0:	e1c320b0 	strh	r2, [r3]
   11cd4:	e89d6810 	ldmia	sp, {r4, fp, sp, lr}
   11cd8:	e12fff1e 	bx	lr
   11cdc:	40001074 	andmi	r1, r0, r4, ror r0
   11ce0:	40001060 	andmi	r1, r0, r0, rrx
   11ce4:	40001078 	andmi	r1, r0, r8, ror r0
   11ce8:	4000103c 	andmi	r1, r0, ip, lsr r0
   11cec:	4000105c 	andmi	r1, r0, ip, asr r0
   11cf0:	40001038 	andmi	r1, r0, r8, lsr r0
   11cf4:	40001054 	andmi	r1, r0, r4, asr r0
   11cf8:	40001058 	andmi	r1, r0, r8, asr r0
   11cfc:	40001068 	andmi	r1, r0, r8, rrx
   11d00:	40001030 	andmi	r1, r0, r0, lsr r0
   11d04:	40001040 	andmi	r1, r0, r0, asr #32
   11d08:	40001050 	andmi	r1, r0, r0, asr r0
   11d0c:	40001064 	andmi	r1, r0, r4, rrx
   11d10:	40001070 	andmi	r1, r0, r0, ror r0
   11d14:	4000104c 	andmi	r1, r0, ip, asr #32
   11d18:	40001034 	andmi	r1, r0, r4, lsr r0

00011d1c <estimator_propagate_state>:
   11d1c:	e12fff1e 	bx	lr

00011d20 <alt_kalman_reset>:
   11d20:	e59f3018 	ldr	r3, [pc, #24]	; 11d40 <.text+0xdd40>
   11d24:	e3a025fe 	mov	r2, #1065353216	; 0x3f800000
   11d28:	e3a01000 	mov	r1, #0	; 0x0
   11d2c:	e583200c 	str	r2, [r3, #12]
   11d30:	e5831008 	str	r1, [r3, #8]
   11d34:	e5832000 	str	r2, [r3]
   11d38:	e5831004 	str	r1, [r3, #4]
   11d3c:	e12fff1e 	bx	lr
   11d40:	40000658 	andmi	r0, r0, r8, asr r6

00011d44 <alt_kalman_init>:
   11d44:	e59f3008 	ldr	r3, [pc, #8]	; 11d54 <.text+0xdd54>
   11d48:	e3a02001 	mov	r2, #1	; 0x1
   11d4c:	e5c32000 	strb	r2, [r3]
   11d50:	eafffff2 	b	11d20 <alt_kalman_reset>
   11d54:	40001074 	andmi	r1, r0, r4, ror r0

00011d58 <nav_init_stage>:
   11d58:	e52de004 	str	lr, [sp, #-4]!
   11d5c:	e59f3050 	ldr	r3, [pc, #80]	; 11db4 <.text+0xddb4>
   11d60:	e5931000 	ldr	r1, [r3]
   11d64:	e59f304c 	ldr	r3, [pc, #76]	; 11db8 <.text+0xddb8>
   11d68:	e5930000 	ldr	r0, [r3]
   11d6c:	e59f3048 	ldr	r3, [pc, #72]	; 11dbc <.text+0xddbc>
   11d70:	e5831000 	str	r1, [r3]
   11d74:	e59f3044 	ldr	r3, [pc, #68]	; 11dc0 <.text+0xddc0>
   11d78:	e5830000 	str	r0, [r3]
   11d7c:	e59f3040 	ldr	r3, [pc, #64]	; 11dc4 <.text+0xddc4>
   11d80:	e3a0e000 	mov	lr, #0	; 0x0
   11d84:	e583e000 	str	lr, [r3]
   11d88:	e59f3038 	ldr	r3, [pc, #56]	; 11dc8 <.text+0xddc8>
   11d8c:	e3a02000 	mov	r2, #0	; 0x0
   11d90:	e5c32000 	strb	r2, [r3]
   11d94:	e59f3030 	ldr	r3, [pc, #48]	; 11dcc <.text+0xddcc>
   11d98:	e5c32000 	strb	r2, [r3]
   11d9c:	e59f302c 	ldr	r3, [pc, #44]	; 11dd0 <.text+0xddd0>
   11da0:	e1c320b0 	strh	r2, [r3]
   11da4:	e59f3028 	ldr	r3, [pc, #40]	; 11dd4 <.text+0xddd4>
   11da8:	e583e000 	str	lr, [r3]
   11dac:	e49de004 	ldr	lr, [sp], #4
   11db0:	e12fff1e 	bx	lr
   11db4:	40001060 	andmi	r1, r0, r0, rrx
   11db8:	40001078 	andmi	r1, r0, r8, ror r0
   11dbc:	40000684 	andmi	r0, r0, r4, lsl #13
   11dc0:	40000688 	andmi	r0, r0, r8, lsl #13
   11dc4:	40000690 	mulmi	r0, r0, r6
   11dc8:	40000675 	andmi	r0, r0, r5, ror r6
   11dcc:	40000674 	andmi	r0, r0, r4, ror r6
   11dd0:	400010d4 	ldrmid	r1, [r0], -r4
   11dd4:	40001090 	mulmi	r0, r0, r0

00011dd8 <nav_circle_XY>:
   11dd8:	e1a0c00d 	mov	ip, sp
   11ddc:	e92ddff0 	stmdb	sp!, {r4, r5, r6, r7, r8, r9, sl, fp, ip, lr, pc}
   11de0:	e59f3270 	ldr	r3, [pc, #624]	; 12058 <.text+0xe058>
   11de4:	e24cb004 	sub	fp, ip, #4	; 0x4
   11de8:	e24dd014 	sub	sp, sp, #20	; 0x14
   11dec:	e50b002c 	str	r0, [fp, #-44]
   11df0:	e5930000 	ldr	r0, [r3]
   11df4:	e50b2034 	str	r2, [fp, #-52]
   11df8:	e50b1030 	str	r1, [fp, #-48]
   11dfc:	eb0016c4 	bl	17914 <__subsf3>
   11e00:	eb0014cd 	bl	1713c <__extendsfdf2>
   11e04:	e59fc258 	ldr	ip, [pc, #600]	; 12064 <.text+0xe064>
   11e08:	e1a05001 	mov	r5, r1
   11e0c:	e1a04000 	mov	r4, r0
   11e10:	e59c0000 	ldr	r0, [ip]
   11e14:	e51b102c 	ldr	r1, [fp, #-44]
   11e18:	eb0016bd 	bl	17914 <__subsf3>
   11e1c:	eb0014c6 	bl	1713c <__extendsfdf2>
   11e20:	e59f920c 	ldr	r9, [pc, #524]	; 12034 <.text+0xe034>
   11e24:	e1a03001 	mov	r3, r1
   11e28:	e1a02000 	mov	r2, r0
   11e2c:	e1a01005 	mov	r1, r5
   11e30:	e1a00004 	mov	r0, r4
   11e34:	e5994000 	ldr	r4, [r9]
   11e38:	eb001862 	bl	17fc8 <__atan2_from_arm>
   11e3c:	eb001676 	bl	1781c <__truncdfsf2>
   11e40:	e59f2224 	ldr	r2, [pc, #548]	; 1206c <.text+0xe06c>
   11e44:	e5d23000 	ldrb	r3, [r2]
   11e48:	e3530000 	cmp	r3, #0	; 0x0
   11e4c:	e5890000 	str	r0, [r9]
   11e50:	0a000027 	beq	11ef4 <nav_circle_XY+0x11c>
   11e54:	e1a01004 	mov	r1, r4
   11e58:	eb0016ad 	bl	17914 <__subsf3>
   11e5c:	ea000001 	b	11e68 <nav_circle_XY+0x90>
   11e60:	eb0013de 	bl	16de0 <__subdf3>
   11e64:	eb00166c 	bl	1781c <__truncdfsf2>
   11e68:	e1a06000 	mov	r6, r0
   11e6c:	eb0014b2 	bl	1713c <__extendsfdf2>
   11e70:	e28f2f67 	add	r2, pc, #412	; 0x19c
   11e74:	e892000c 	ldmia	r2, {r2, r3}
   11e78:	e1a05001 	mov	r5, r1
   11e7c:	e1a04000 	mov	r4, r0
   11e80:	eb0015fb 	bl	17674 <__gedf2>
   11e84:	e3500000 	cmp	r0, #0	; 0x0
   11e88:	e28f2f63 	add	r2, pc, #396	; 0x18c
   11e8c:	e892000c 	ldmia	r2, {r2, r3}
   11e90:	e1a01005 	mov	r1, r5
   11e94:	e1a00004 	mov	r0, r4
   11e98:	cafffff0 	bgt	11e60 <nav_circle_XY+0x88>
   11e9c:	ea000002 	b	11eac <nav_circle_XY+0xd4>
   11ea0:	eb0013cf 	bl	16de4 <__adddf3>
   11ea4:	eb00165c 	bl	1781c <__truncdfsf2>
   11ea8:	e1a06000 	mov	r6, r0
   11eac:	e1a00006 	mov	r0, r6
   11eb0:	eb0014a1 	bl	1713c <__extendsfdf2>
   11eb4:	e28f2f5a 	add	r2, pc, #360	; 0x168
   11eb8:	e892000c 	ldmia	r2, {r2, r3}
   11ebc:	e1a05001 	mov	r5, r1
   11ec0:	e1a04000 	mov	r4, r0
   11ec4:	eb0015ec 	bl	1767c <__ledf2>
   11ec8:	e3500000 	cmp	r0, #0	; 0x0
   11ecc:	e28f2f52 	add	r2, pc, #328	; 0x148
   11ed0:	e892000c 	ldmia	r2, {r2, r3}
   11ed4:	e1a01005 	mov	r1, r5
   11ed8:	e1a00004 	mov	r0, r4
   11edc:	baffffef 	blt	11ea0 <nav_circle_XY+0xc8>
   11ee0:	e59f4150 	ldr	r4, [pc, #336]	; 12038 <.text+0xe038>
   11ee4:	e1a01006 	mov	r1, r6
   11ee8:	e5940000 	ldr	r0, [r4]
   11eec:	eb001689 	bl	17918 <__addsf3>
   11ef0:	e5840000 	str	r0, [r4]
   11ef4:	e59f3168 	ldr	r3, [pc, #360]	; 12064 <.text+0xe064>
   11ef8:	e51b102c 	ldr	r1, [fp, #-44]
   11efc:	e5930000 	ldr	r0, [r3]
   11f00:	eb001683 	bl	17914 <__subsf3>
   11f04:	e1a01000 	mov	r1, r0
   11f08:	eb001707 	bl	17b2c <__mulsf3>
   11f0c:	e59fc144 	ldr	ip, [pc, #324]	; 12058 <.text+0xe058>
   11f10:	e1a04000 	mov	r4, r0
   11f14:	e51b1030 	ldr	r1, [fp, #-48]
   11f18:	e59c0000 	ldr	r0, [ip]
   11f1c:	eb00167c 	bl	17914 <__subsf3>
   11f20:	e1a01000 	mov	r1, r0
   11f24:	eb001700 	bl	17b2c <__mulsf3>
   11f28:	e1a01000 	mov	r1, r0
   11f2c:	e1a00004 	mov	r0, r4
   11f30:	eb001678 	bl	17918 <__addsf3>
   11f34:	e59f310c 	ldr	r3, [pc, #268]	; 12048 <.text+0xe048>
   11f38:	e5938000 	ldr	r8, [r3]
   11f3c:	e1a05000 	mov	r5, r0
   11f40:	e59f10f4 	ldr	r1, [pc, #244]	; 1203c <.text+0xe03c>
   11f44:	e1a00008 	mov	r0, r8
   11f48:	eb0016f7 	bl	17b2c <__mulsf3>
   11f4c:	e3a01000 	mov	r1, #0	; 0x0
   11f50:	e1a04000 	mov	r4, r0
   11f54:	e51b0034 	ldr	r0, [fp, #-52]
   11f58:	eb0017bf 	bl	17e5c <__gesf2>
   11f5c:	e51b2034 	ldr	r2, [fp, #-52]
   11f60:	e59fa0d8 	ldr	sl, [pc, #216]	; 12040 <.text+0xe040>
   11f64:	e3c26102 	bic	r6, r2, #-2147483648	; 0x80000000
   11f68:	e3500000 	cmp	r0, #0	; 0x0
   11f6c:	e3a035fe 	mov	r3, #1065353216	; 0x3f800000
   11f70:	e1a01004 	mov	r1, r4
   11f74:	e1a00006 	mov	r0, r6
   11f78:	c1a0a003 	movgt	sl, r3
   11f7c:	eb001665 	bl	17918 <__addsf3>
   11f80:	e1a01000 	mov	r1, r0
   11f84:	eb0016e8 	bl	17b2c <__mulsf3>
   11f88:	e1a01000 	mov	r1, r0
   11f8c:	e1a00005 	mov	r0, r5
   11f90:	eb0017b1 	bl	17e5c <__gesf2>
   11f94:	e3500000 	cmp	r0, #0	; 0x0
   11f98:	ca00003f 	bgt	1209c <.text+0xe09c>
   11f9c:	e1a01004 	mov	r1, r4
   11fa0:	e1a00006 	mov	r0, r6
   11fa4:	eb00165a 	bl	17914 <__subsf3>
   11fa8:	e1a01000 	mov	r1, r0
   11fac:	eb0016de 	bl	17b2c <__mulsf3>
   11fb0:	e1a01000 	mov	r1, r0
   11fb4:	e1a00005 	mov	r0, r5
   11fb8:	eb0017a9 	bl	17e64 <__lesf2>
   11fbc:	e3500000 	cmp	r0, #0	; 0x0
   11fc0:	ba000035 	blt	1209c <.text+0xe09c>
   11fc4:	e1a01008 	mov	r1, r8
   11fc8:	e1a00008 	mov	r0, r8
   11fcc:	eb0016d6 	bl	17b2c <__mulsf3>
   11fd0:	eb001459 	bl	1713c <__extendsfdf2>
   11fd4:	e1a05001 	mov	r5, r1
   11fd8:	e1a04000 	mov	r4, r0
   11fdc:	e51b0034 	ldr	r0, [fp, #-52]
   11fe0:	eb001455 	bl	1713c <__extendsfdf2>
   11fe4:	e28f2040 	add	r2, pc, #64	; 0x40
   11fe8:	e892000c 	ldmia	r2, {r2, r3}
   11fec:	eb001465 	bl	17188 <__muldf3>
   11ff0:	e1a03001 	mov	r3, r1
   11ff4:	e1a02000 	mov	r2, r0
   11ff8:	e1a01005 	mov	r1, r5
   11ffc:	e1a00004 	mov	r0, r4
   12000:	eb0014fe 	bl	17400 <__divdf3>
   12004:	eb0017f2 	bl	17fd4 <__atan_from_arm>
   12008:	eb001603 	bl	1781c <__truncdfsf2>
   1200c:	e1a02000 	mov	r2, r0
   12010:	ea000022 	b	120a0 <.text+0xe0a0>
   12014:	400921fb 	strmid	r2, [r9], -fp
   12018:	54442d18 	strplb	r2, [r4], #-3352
   1201c:	401921fb 	ldrmish	r2, [r9], -fp
   12020:	54442d18 	strplb	r2, [r4], #-3352
   12024:	c00921fb 	strgtd	r2, [r9], -fp
   12028:	54442d18 	strplb	r2, [r4], #-3352
   1202c:	40239cac 	eormi	r9, r3, ip, lsr #25
   12030:	083126e9 	ldmeqda	r1!, {r0, r3, r5, r6, r7, r9, sl, sp}
   12034:	400010d8 	ldrmid	r1, [r0], -r8
   12038:	40000690 	mulmi	r0, r0, r6
   1203c:	40a00000 	adcmi	r0, r0, r0
   12040:	bf800000 	swilt	0x00800000
   12044:	40000670 	andmi	r0, r0, r0, ror r6
   12048:	40001058 	andmi	r1, r0, r8, asr r0
   1204c:	3f490fdb 	swicc	0x00490fdb
   12050:	3e490fdb 	mcrcc	15, 2, r0, cr9, cr11, {6}
   12054:	400010a4 	andmi	r1, r0, r4, lsr #1
   12058:	40001078 	andmi	r1, r0, r8, ror r0
   1205c:	40001088 	andmi	r1, r0, r8, lsl #1
   12060:	4000109c 	mulmi	r0, ip, r0
   12064:	40001060 	andmi	r1, r0, r0, rrx
   12068:	400010e4 	andmi	r1, r0, r4, ror #1
   1206c:	40000675 	andmi	r0, r0, r5, ror r6
   12070:	400010c4 	andmi	r1, r0, r4, asr #1
   12074:	400010a6 	andmi	r1, r0, r6, lsr #1
   12078:	4000108e 	andmi	r1, r0, lr, lsl #1
   1207c:	40140000 	andmis	r0, r4, r0
   12080:	00000000 	andeq	r0, r0, r0
   12084:	3fe921fb 	swicc	0x00e921fb
   12088:	54442d18 	strplb	r2, [r4], #-3352
   1208c:	3fc921fb 	swicc	0x00c921fb
   12090:	54442d18 	strplb	r2, [r4], #-3352
   12094:	3ff921fb 	swicc	0x00f921fb
   12098:	54442d18 	strplb	r2, [r4], #-3352
   1209c:	e3a02000 	mov	r2, #0	; 0x0
   120a0:	e51f3064 	ldr	r3, [pc, #-100]	; 12044 <.text+0xe044>
   120a4:	e1a00006 	mov	r0, r6
   120a8:	e5832000 	str	r2, [r3]
   120ac:	eb001422 	bl	1713c <__extendsfdf2>
   120b0:	e1a07001 	mov	r7, r1
   120b4:	e1a06000 	mov	r6, r0
   120b8:	e1a03001 	mov	r3, r1
   120bc:	e1a02000 	mov	r2, r0
   120c0:	e24f004c 	sub	r0, pc, #76	; 0x4c
   120c4:	e8900003 	ldmia	r0, {r0, r1}
   120c8:	eb0014cc 	bl	17400 <__divdf3>
   120cc:	e51f308c 	ldr	r3, [pc, #-140]	; 12048 <.text+0xe048>
   120d0:	e1a05001 	mov	r5, r1
   120d4:	e1a04000 	mov	r4, r0
   120d8:	e5930000 	ldr	r0, [r3]
   120dc:	eb001416 	bl	1713c <__extendsfdf2>
   120e0:	e1a03001 	mov	r3, r1
   120e4:	e1a02000 	mov	r2, r0
   120e8:	e1a01005 	mov	r1, r5
   120ec:	e1a00004 	mov	r0, r4
   120f0:	eb001424 	bl	17188 <__muldf3>
   120f4:	eb0015c8 	bl	1781c <__truncdfsf2>
   120f8:	e1a04000 	mov	r4, r0
   120fc:	eb00140e 	bl	1713c <__extendsfdf2>
   12100:	e24f2084 	sub	r2, pc, #132	; 0x84
   12104:	e892000c 	ldmia	r2, {r2, r3}
   12108:	eb00155b 	bl	1767c <__ledf2>
   1210c:	e51f30c8 	ldr	r3, [pc, #-200]	; 1204c <.text+0xe04c>
   12110:	e3500000 	cmp	r0, #0	; 0x0
   12114:	a1a04003 	movge	r4, r3
   12118:	e1a00004 	mov	r0, r4
   1211c:	eb001406 	bl	1713c <__extendsfdf2>
   12120:	e24f209c 	sub	r2, pc, #156	; 0x9c
   12124:	e892000c 	ldmia	r2, {r2, r3}
   12128:	eb001551 	bl	17674 <__gedf2>
   1212c:	e51f30e4 	ldr	r3, [pc, #-228]	; 12050 <.text+0xe050>
   12130:	e3500000 	cmp	r0, #0	; 0x0
   12134:	d1a04003 	movle	r4, r3
   12138:	e1a01004 	mov	r1, r4
   1213c:	e1a0000a 	mov	r0, sl
   12140:	eb001679 	bl	17b2c <__mulsf3>
   12144:	e1a01000 	mov	r1, r0
   12148:	e5990000 	ldr	r0, [r9]
   1214c:	eb0015f0 	bl	17914 <__subsf3>
   12150:	e51f3104 	ldr	r3, [pc, #-260]	; 12054 <.text+0xe054>
   12154:	e3a02002 	mov	r2, #2	; 0x2
   12158:	e1a05000 	mov	r5, r0
   1215c:	e5c32000 	strb	r2, [r3]
   12160:	e1a00004 	mov	r0, r4
   12164:	eb0013f4 	bl	1713c <__extendsfdf2>
   12168:	eb00179c 	bl	17fe0 <__cos_from_arm>
   1216c:	e1a03001 	mov	r3, r1
   12170:	e1a02000 	mov	r2, r0
   12174:	e1a01007 	mov	r1, r7
   12178:	e1a00006 	mov	r0, r6
   1217c:	eb00149f 	bl	17400 <__divdf3>
   12180:	e1a03007 	mov	r3, r7
   12184:	e1a02006 	mov	r2, r6
   12188:	eb001314 	bl	16de0 <__subdf3>
   1218c:	e1a03001 	mov	r3, r1
   12190:	e1a02000 	mov	r2, r0
   12194:	e1a01007 	mov	r1, r7
   12198:	e1a00006 	mov	r0, r6
   1219c:	eb001310 	bl	16de4 <__adddf3>
   121a0:	eb00159d 	bl	1781c <__truncdfsf2>
   121a4:	e1a06000 	mov	r6, r0
   121a8:	e51b002c 	ldr	r0, [fp, #-44]
   121ac:	eb0013e2 	bl	1713c <__extendsfdf2>
   121b0:	e24b3040 	sub	r3, fp, #64	; 0x40
   121b4:	e9830003 	stmib	r3, {r0, r1}
   121b8:	e1a00005 	mov	r0, r5
   121bc:	eb0013de 	bl	1713c <__extendsfdf2>
   121c0:	e1a09001 	mov	r9, r1
   121c4:	e1a08000 	mov	r8, r0
   121c8:	eb001784 	bl	17fe0 <__cos_from_arm>
   121cc:	e1a05001 	mov	r5, r1
   121d0:	e1a04000 	mov	r4, r0
   121d4:	e1a00006 	mov	r0, r6
   121d8:	eb0013d7 	bl	1713c <__extendsfdf2>
   121dc:	e1a07001 	mov	r7, r1
   121e0:	e1a06000 	mov	r6, r0
   121e4:	e1a03007 	mov	r3, r7
   121e8:	e1a02006 	mov	r2, r6
   121ec:	e1a01005 	mov	r1, r5
   121f0:	e1a00004 	mov	r0, r4
   121f4:	eb0013e3 	bl	17188 <__muldf3>
   121f8:	e24bc040 	sub	ip, fp, #64	; 0x40
   121fc:	e1a03001 	mov	r3, r1
   12200:	e1a02000 	mov	r2, r0
   12204:	e99c0003 	ldmib	ip, {r0, r1}
   12208:	eb0012f5 	bl	16de4 <__adddf3>
   1220c:	eb001582 	bl	1781c <__truncdfsf2>
   12210:	e1a0a000 	mov	sl, r0
   12214:	e51b0030 	ldr	r0, [fp, #-48]
   12218:	eb0013c7 	bl	1713c <__extendsfdf2>
   1221c:	e1a05001 	mov	r5, r1
   12220:	e1a04000 	mov	r4, r0
   12224:	e1a01009 	mov	r1, r9
   12228:	e1a00008 	mov	r0, r8
   1222c:	eb00176e 	bl	17fec <__sin_from_arm>
   12230:	e1a03007 	mov	r3, r7
   12234:	e1a02006 	mov	r2, r6
   12238:	eb0013d2 	bl	17188 <__muldf3>
   1223c:	e1a03001 	mov	r3, r1
   12240:	e1a02000 	mov	r2, r0
   12244:	e1a01005 	mov	r1, r5
   12248:	e1a00004 	mov	r0, r4
   1224c:	eb0012e4 	bl	16de4 <__adddf3>
   12250:	eb001571 	bl	1781c <__truncdfsf2>
   12254:	e51f3204 	ldr	r3, [pc, #-516]	; 12058 <.text+0xe058>
   12258:	e5931000 	ldr	r1, [r3]
   1225c:	e51f3208 	ldr	r3, [pc, #-520]	; 1205c <.text+0xe05c>
   12260:	e583a000 	str	sl, [r3]
   12264:	e51f320c 	ldr	r3, [pc, #-524]	; 12060 <.text+0xe060>
   12268:	e1a02000 	mov	r2, r0
   1226c:	e5832000 	str	r2, [r3]
   12270:	eb0015a7 	bl	17914 <__subsf3>
   12274:	eb0013b0 	bl	1713c <__extendsfdf2>
   12278:	e51fc21c 	ldr	ip, [pc, #-540]	; 12064 <.text+0xe064>
   1227c:	e1a05001 	mov	r5, r1
   12280:	e1a04000 	mov	r4, r0
   12284:	e59c1000 	ldr	r1, [ip]
   12288:	e1a0000a 	mov	r0, sl
   1228c:	eb0015a0 	bl	17914 <__subsf3>
   12290:	eb0013a9 	bl	1713c <__extendsfdf2>
   12294:	e1a03001 	mov	r3, r1
   12298:	e1a02000 	mov	r2, r0
   1229c:	e1a01005 	mov	r1, r5
   122a0:	e1a00004 	mov	r0, r4
   122a4:	eb001747 	bl	17fc8 <__atan2_from_arm>
   122a8:	e1a03001 	mov	r3, r1
   122ac:	e1a02000 	mov	r2, r0
   122b0:	e24f0f89 	sub	r0, pc, #548	; 0x224
   122b4:	e8900003 	ldmia	r0, {r0, r1}
   122b8:	eb0012c8 	bl	16de0 <__subdf3>
   122bc:	eb001556 	bl	1781c <__truncdfsf2>
   122c0:	e51f3260 	ldr	r3, [pc, #-608]	; 12068 <.text+0xe068>
   122c4:	e51f2260 	ldr	r2, [pc, #-608]	; 1206c <.text+0xe06c>
   122c8:	e5830000 	str	r0, [r3]
   122cc:	e3a03001 	mov	r3, #1	; 0x1
   122d0:	e5c23000 	strb	r3, [r2]
   122d4:	e51b002c 	ldr	r0, [fp, #-44]
   122d8:	eb001706 	bl	17ef8 <__fixsfsi>
   122dc:	e51f3274 	ldr	r3, [pc, #-628]	; 12070 <.text+0xe070>
   122e0:	e1c300b0 	strh	r0, [r3]
   122e4:	e51b0030 	ldr	r0, [fp, #-48]
   122e8:	eb001702 	bl	17ef8 <__fixsfsi>
   122ec:	e51f3280 	ldr	r3, [pc, #-640]	; 12074 <.text+0xe074>
   122f0:	e1c300b0 	strh	r0, [r3]
   122f4:	e51b0034 	ldr	r0, [fp, #-52]
   122f8:	eb0016fe 	bl	17ef8 <__fixsfsi>
   122fc:	e51f328c 	ldr	r3, [pc, #-652]	; 12078 <.text+0xe078>
   12300:	e1c300b0 	strh	r0, [r3]
   12304:	e24bd028 	sub	sp, fp, #40	; 0x28
   12308:	e89d6ff0 	ldmia	sp, {r4, r5, r6, r7, r8, r9, sl, fp, sp, lr}
   1230c:	e12fff1e 	bx	lr

00012310 <nav_goto_block>:
   12310:	e59fc048 	ldr	ip, [pc, #72]	; 12360 <.text+0xe360>
   12314:	e5dc1000 	ldrb	r1, [ip]
   12318:	e20000ff 	and	r0, r0, #255	; 0xff
   1231c:	e1510000 	cmp	r1, r0
   12320:	e52de004 	str	lr, [sp, #-4]!
   12324:	e3a0e000 	mov	lr, #0	; 0x0
   12328:	0a000005 	beq	12344 <nav_goto_block+0x34>
   1232c:	e59f3030 	ldr	r3, [pc, #48]	; 12364 <.text+0xe364>
   12330:	e5d32000 	ldrb	r2, [r3]
   12334:	e59f302c 	ldr	r3, [pc, #44]	; 12368 <.text+0xe368>
   12338:	e5c31000 	strb	r1, [r3]
   1233c:	e59f3028 	ldr	r3, [pc, #40]	; 1236c <.text+0xe36c>
   12340:	e5c32000 	strb	r2, [r3]
   12344:	e59f3024 	ldr	r3, [pc, #36]	; 12370 <.text+0xe370>
   12348:	e1c3e0b0 	strh	lr, [r3]
   1234c:	e59f3010 	ldr	r3, [pc, #16]	; 12364 <.text+0xe364>
   12350:	e5cc0000 	strb	r0, [ip]
   12354:	e5c3e000 	strb	lr, [r3]
   12358:	e49de004 	ldr	lr, [sp], #4
   1235c:	eafffe7d 	b	11d58 <nav_init_stage>
   12360:	400010a5 	andmi	r1, r0, r5, lsr #1
   12364:	400010bc 	strmih	r1, [r0], -ip
   12368:	40000680 	andmi	r0, r0, r0, lsl #13
   1236c:	40000681 	andmi	r0, r0, r1, lsl #13
   12370:	400010d6 	ldrmid	r1, [r0], -r6

00012374 <nav_approaching_xy>:
   12374:	e1a0c00d 	mov	ip, sp
   12378:	e92dddf0 	stmdb	sp!, {r4, r5, r6, r7, r8, sl, fp, ip, lr, pc}
   1237c:	e59f30e8 	ldr	r3, [pc, #232]	; 1246c <.text+0xe46c>
   12380:	e24cb004 	sub	fp, ip, #4	; 0x4
   12384:	e1a0a001 	mov	sl, r1
   12388:	e5931000 	ldr	r1, [r3]
   1238c:	e1a05002 	mov	r5, r2
   12390:	e1a06000 	mov	r6, r0
   12394:	eb00155e 	bl	17914 <__subsf3>
   12398:	e59f30d0 	ldr	r3, [pc, #208]	; 12470 <.text+0xe470>
   1239c:	e1a07000 	mov	r7, r0
   123a0:	e5931000 	ldr	r1, [r3]
   123a4:	e1a0000a 	mov	r0, sl
   123a8:	eb001559 	bl	17914 <__subsf3>
   123ac:	e1a01007 	mov	r1, r7
   123b0:	e1a08000 	mov	r8, r0
   123b4:	e1a00007 	mov	r0, r7
   123b8:	eb0015db 	bl	17b2c <__mulsf3>
   123bc:	e1a01008 	mov	r1, r8
   123c0:	e1a04000 	mov	r4, r0
   123c4:	e1a00008 	mov	r0, r8
   123c8:	eb0015d7 	bl	17b2c <__mulsf3>
   123cc:	e1a01000 	mov	r1, r0
   123d0:	e1a00004 	mov	r0, r4
   123d4:	eb00154f 	bl	17918 <__addsf3>
   123d8:	e59f3094 	ldr	r3, [pc, #148]	; 12474 <.text+0xe474>
   123dc:	e5931000 	ldr	r1, [r3]
   123e0:	e59f3090 	ldr	r3, [pc, #144]	; 12478 <.text+0xe478>
   123e4:	e1a04000 	mov	r4, r0
   123e8:	e5834000 	str	r4, [r3]
   123ec:	e1a00005 	mov	r0, r5
   123f0:	eb0015cd 	bl	17b2c <__mulsf3>
   123f4:	e1a01000 	mov	r1, r0
   123f8:	eb0015cb 	bl	17b2c <__mulsf3>
   123fc:	e1a01000 	mov	r1, r0
   12400:	e1a00004 	mov	r0, r4
   12404:	eb001696 	bl	17e64 <__lesf2>
   12408:	e3500000 	cmp	r0, #0	; 0x0
   1240c:	e3a03001 	mov	r3, #1	; 0x1
   12410:	e1a00006 	mov	r0, r6
   12414:	ba000011 	blt	12460 <nav_approaching_xy+0xec>
   12418:	e59f305c 	ldr	r3, [pc, #92]	; 1247c <.text+0xe47c>
   1241c:	e5931000 	ldr	r1, [r3]
   12420:	eb00153b 	bl	17914 <__subsf3>
   12424:	e1a01007 	mov	r1, r7
   12428:	eb0015bf 	bl	17b2c <__mulsf3>
   1242c:	e59f304c 	ldr	r3, [pc, #76]	; 12480 <.text+0xe480>
   12430:	e1a04000 	mov	r4, r0
   12434:	e5931000 	ldr	r1, [r3]
   12438:	e1a0000a 	mov	r0, sl
   1243c:	eb001534 	bl	17914 <__subsf3>
   12440:	e1a01008 	mov	r1, r8
   12444:	eb0015b8 	bl	17b2c <__mulsf3>
   12448:	e1a01000 	mov	r1, r0
   1244c:	e1a00004 	mov	r0, r4
   12450:	eb001530 	bl	17918 <__addsf3>
   12454:	e3a01000 	mov	r1, #0	; 0x0
   12458:	eb001681 	bl	17e64 <__lesf2>
   1245c:	e1a03fa0 	mov	r3, r0, lsr #31
   12460:	e1a00003 	mov	r0, r3
   12464:	e89d6df0 	ldmia	sp, {r4, r5, r6, r7, r8, sl, fp, sp, lr}
   12468:	e12fff1e 	bx	lr
   1246c:	40001060 	andmi	r1, r0, r0, rrx
   12470:	40001078 	andmi	r1, r0, r8, ror r0
   12474:	40001058 	andmi	r1, r0, r8, asr r0
   12478:	40001080 	andmi	r1, r0, r0, lsl #1
   1247c:	40000684 	andmi	r0, r0, r4, lsl #13
   12480:	40000688 	andmi	r0, r0, r8, lsl #13

00012484 <nav_route_xy>:
   12484:	e1a0c00d 	mov	ip, sp
   12488:	e92ddff0 	stmdb	sp!, {r4, r5, r6, r7, r8, r9, sl, fp, ip, lr, pc}
   1248c:	e24cb004 	sub	fp, ip, #4	; 0x4
   12490:	e24dd010 	sub	sp, sp, #16	; 0x10
   12494:	e50b002c 	str	r0, [fp, #-44]
   12498:	e50b1030 	str	r1, [fp, #-48]
   1249c:	e1a00002 	mov	r0, r2
   124a0:	e51b102c 	ldr	r1, [fp, #-44]
   124a4:	e50b2034 	str	r2, [fp, #-52]
   124a8:	e50b3038 	str	r3, [fp, #-56]
   124ac:	eb001518 	bl	17914 <__subsf3>
   124b0:	e51b1030 	ldr	r1, [fp, #-48]
   124b4:	e1a0a000 	mov	sl, r0
   124b8:	e51b0038 	ldr	r0, [fp, #-56]
   124bc:	eb001514 	bl	17914 <__subsf3>
   124c0:	e1a0100a 	mov	r1, sl
   124c4:	e1a09000 	mov	r9, r0
   124c8:	e1a0000a 	mov	r0, sl
   124cc:	eb001596 	bl	17b2c <__mulsf3>
   124d0:	e1a01009 	mov	r1, r9
   124d4:	e1a04000 	mov	r4, r0
   124d8:	e1a00009 	mov	r0, r9
   124dc:	eb001592 	bl	17b2c <__mulsf3>
   124e0:	e1a01000 	mov	r1, r0
   124e4:	e1a00004 	mov	r0, r4
   124e8:	eb00150a 	bl	17918 <__addsf3>
   124ec:	e3a015fe 	mov	r1, #1065353216	; 0x3f800000
   124f0:	e1a05000 	mov	r5, r0
   124f4:	eb001658 	bl	17e5c <__gesf2>
   124f8:	e59f322c 	ldr	r3, [pc, #556]	; 1272c <.text+0xe72c>
   124fc:	e3500000 	cmp	r0, #0	; 0x0
   12500:	e51b102c 	ldr	r1, [fp, #-44]
   12504:	e5930000 	ldr	r0, [r3]
   12508:	e3a035fe 	mov	r3, #1065353216	; 0x3f800000
   1250c:	d1a05003 	movle	r5, r3
   12510:	eb0014ff 	bl	17914 <__subsf3>
   12514:	e1a0100a 	mov	r1, sl
   12518:	eb001583 	bl	17b2c <__mulsf3>
   1251c:	e59f320c 	ldr	r3, [pc, #524]	; 12730 <.text+0xe730>
   12520:	e1a04000 	mov	r4, r0
   12524:	e51b1030 	ldr	r1, [fp, #-48]
   12528:	e5930000 	ldr	r0, [r3]
   1252c:	eb0014f8 	bl	17914 <__subsf3>
   12530:	e1a01009 	mov	r1, r9
   12534:	eb00157c 	bl	17b2c <__mulsf3>
   12538:	e1a01000 	mov	r1, r0
   1253c:	e1a00004 	mov	r0, r4
   12540:	eb0014f4 	bl	17918 <__addsf3>
   12544:	e1a01005 	mov	r1, r5
   12548:	eb0015db 	bl	17cbc <__divsf3>
   1254c:	e3a01000 	mov	r1, #0	; 0x0
   12550:	e1a04000 	mov	r4, r0
   12554:	eb001640 	bl	17e5c <__gesf2>
   12558:	e3a06000 	mov	r6, #0	; 0x0
   1255c:	e3500000 	cmp	r0, #0	; 0x0
   12560:	e59f31cc 	ldr	r3, [pc, #460]	; 12734 <.text+0xe734>
   12564:	d1a04006 	movle	r4, r6
   12568:	e5834000 	str	r4, [r3]
   1256c:	e1a00005 	mov	r0, r5
   12570:	eb0012f1 	bl	1713c <__extendsfdf2>
   12574:	eb00169f 	bl	17ff8 <__sqrt_from_arm>
   12578:	eb0014a7 	bl	1781c <__truncdfsf2>
   1257c:	e59f31b4 	ldr	r3, [pc, #436]	; 12738 <.text+0xe738>
   12580:	e1a05000 	mov	r5, r0
   12584:	e5930000 	ldr	r0, [r3]
   12588:	e59f31ac 	ldr	r3, [pc, #428]	; 1273c <.text+0xe73c>
   1258c:	e59f11ac 	ldr	r1, [pc, #428]	; 12740 <.text+0xe740>
   12590:	e5835000 	str	r5, [r3]
   12594:	eb001564 	bl	17b2c <__mulsf3>
   12598:	e59f3194 	ldr	r3, [pc, #404]	; 12734 <.text+0xe734>
   1259c:	e1a04000 	mov	r4, r0
   125a0:	e5930000 	ldr	r0, [r3]
   125a4:	eb0012e4 	bl	1713c <__extendsfdf2>
   125a8:	e1a08001 	mov	r8, r1
   125ac:	e1a07000 	mov	r7, r0
   125b0:	e1a01005 	mov	r1, r5
   125b4:	e1a00004 	mov	r0, r4
   125b8:	eb0015bf 	bl	17cbc <__divsf3>
   125bc:	e1a01006 	mov	r1, r6
   125c0:	e1a04000 	mov	r4, r0
   125c4:	eb001624 	bl	17e5c <__gesf2>
   125c8:	e3500000 	cmp	r0, #0	; 0x0
   125cc:	e59f5160 	ldr	r5, [pc, #352]	; 12734 <.text+0xe734>
   125d0:	da000006 	ble	125f0 <nav_route_xy+0x16c>
   125d4:	e1a00004 	mov	r0, r4
   125d8:	eb0012d7 	bl	1713c <__extendsfdf2>
   125dc:	e1a03001 	mov	r3, r1
   125e0:	e1a02000 	mov	r2, r0
   125e4:	e1a01008 	mov	r1, r8
   125e8:	e1a00007 	mov	r0, r7
   125ec:	ea000003 	b	12600 <nav_route_xy+0x17c>
   125f0:	e28f2f49 	add	r2, pc, #292	; 0x124
   125f4:	e892000c 	ldmia	r2, {r2, r3}
   125f8:	e1a01008 	mov	r1, r8
   125fc:	e1a00007 	mov	r0, r7
   12600:	eb0011f7 	bl	16de4 <__adddf3>
   12604:	eb001484 	bl	1781c <__truncdfsf2>
   12608:	e59f3134 	ldr	r3, [pc, #308]	; 12744 <.text+0xe744>
   1260c:	e5850000 	str	r0, [r5]
   12610:	e3a05001 	mov	r5, #1	; 0x1
   12614:	e5c35000 	strb	r5, [r3]
   12618:	e51b002c 	ldr	r0, [fp, #-44]
   1261c:	eb001635 	bl	17ef8 <__fixsfsi>
   12620:	e59f3120 	ldr	r3, [pc, #288]	; 12748 <.text+0xe748>
   12624:	e1c300b0 	strh	r0, [r3]
   12628:	e51b0030 	ldr	r0, [fp, #-48]
   1262c:	eb001631 	bl	17ef8 <__fixsfsi>
   12630:	e59f3114 	ldr	r3, [pc, #276]	; 1274c <.text+0xe74c>
   12634:	e1c300b0 	strh	r0, [r3]
   12638:	e51b0034 	ldr	r0, [fp, #-52]
   1263c:	eb00162d 	bl	17ef8 <__fixsfsi>
   12640:	e59f3108 	ldr	r3, [pc, #264]	; 12750 <.text+0xe750>
   12644:	e1c300b0 	strh	r0, [r3]
   12648:	e51b0038 	ldr	r0, [fp, #-56]
   1264c:	eb001629 	bl	17ef8 <__fixsfsi>
   12650:	e59f30dc 	ldr	r3, [pc, #220]	; 12734 <.text+0xe734>
   12654:	e5934000 	ldr	r4, [r3]
   12658:	e59f30f4 	ldr	r3, [pc, #244]	; 12754 <.text+0xe754>
   1265c:	e1c300b0 	strh	r0, [r3]
   12660:	e59f30f0 	ldr	r3, [pc, #240]	; 12758 <.text+0xe758>
   12664:	e1a0100a 	mov	r1, sl
   12668:	e5c35000 	strb	r5, [r3]
   1266c:	e1a00004 	mov	r0, r4
   12670:	eb00152d 	bl	17b2c <__mulsf3>
   12674:	e1a01000 	mov	r1, r0
   12678:	e51b002c 	ldr	r0, [fp, #-44]
   1267c:	eb0014a5 	bl	17918 <__addsf3>
   12680:	e1a01009 	mov	r1, r9
   12684:	e1a06000 	mov	r6, r0
   12688:	e1a00004 	mov	r0, r4
   1268c:	eb001526 	bl	17b2c <__mulsf3>
   12690:	e1a01000 	mov	r1, r0
   12694:	e51b0030 	ldr	r0, [fp, #-48]
   12698:	eb00149e 	bl	17918 <__addsf3>
   1269c:	e59f308c 	ldr	r3, [pc, #140]	; 12730 <.text+0xe730>
   126a0:	e5931000 	ldr	r1, [r3]
   126a4:	e59f30b0 	ldr	r3, [pc, #176]	; 1275c <.text+0xe75c>
   126a8:	e5836000 	str	r6, [r3]
   126ac:	e59f30ac 	ldr	r3, [pc, #172]	; 12760 <.text+0xe760>
   126b0:	e1a02000 	mov	r2, r0
   126b4:	e5832000 	str	r2, [r3]
   126b8:	eb001495 	bl	17914 <__subsf3>
   126bc:	eb00129e 	bl	1713c <__extendsfdf2>
   126c0:	e59f3064 	ldr	r3, [pc, #100]	; 1272c <.text+0xe72c>
   126c4:	e1a05001 	mov	r5, r1
   126c8:	e1a04000 	mov	r4, r0
   126cc:	e5931000 	ldr	r1, [r3]
   126d0:	e1a00006 	mov	r0, r6
   126d4:	eb00148e 	bl	17914 <__subsf3>
   126d8:	eb001297 	bl	1713c <__extendsfdf2>
   126dc:	e1a03001 	mov	r3, r1
   126e0:	e1a02000 	mov	r2, r0
   126e4:	e1a01005 	mov	r1, r5
   126e8:	e1a00004 	mov	r0, r4
   126ec:	eb001635 	bl	17fc8 <__atan2_from_arm>
   126f0:	e1a03001 	mov	r3, r1
   126f4:	e1a02000 	mov	r2, r0
   126f8:	e28f0024 	add	r0, pc, #36	; 0x24
   126fc:	e8900003 	ldmia	r0, {r0, r1}
   12700:	eb0011b6 	bl	16de0 <__subdf3>
   12704:	eb001444 	bl	1781c <__truncdfsf2>
   12708:	e59f3054 	ldr	r3, [pc, #84]	; 12764 <.text+0xe764>
   1270c:	e5830000 	str	r0, [r3]
   12710:	e24bd028 	sub	sp, fp, #40	; 0x28
   12714:	e89d6ff0 	ldmia	sp, {r4, r5, r6, r7, r8, r9, sl, fp, sp, lr}
   12718:	e12fff1e 	bx	lr
	...
   12724:	3ff921fb 	swicc	0x00f921fb
   12728:	54442d18 	strplb	r2, [r4], #-3352
   1272c:	40001060 	andmi	r1, r0, r0, rrx
   12730:	40001078 	andmi	r1, r0, r8, ror r0
   12734:	40000694 	mulmi	r0, r4, r6
   12738:	40001058 	andmi	r1, r0, r8, asr r0
   1273c:	40000698 	mulmi	r0, r8, r6
   12740:	40a00000 	adcmi	r0, r0, r0
   12744:	40000674 	andmi	r0, r0, r4, ror r6
   12748:	40001084 	andmi	r1, r0, r4, lsl #1
   1274c:	400010c8 	andmi	r1, r0, r8, asr #1
   12750:	4000108c 	andmi	r1, r0, ip, lsl #1
   12754:	400010c6 	andmi	r1, r0, r6, asr #1
   12758:	400010a4 	andmi	r1, r0, r4, lsr #1
   1275c:	40001088 	andmi	r1, r0, r8, lsl #1
   12760:	4000109c 	mulmi	r0, ip, r0
   12764:	400010e4 	andmi	r1, r0, r4, ror #1

00012768 <nav_home>:
   12768:	e1a0c00d 	mov	ip, sp
   1276c:	e92dd830 	stmdb	sp!, {r4, r5, fp, ip, lr, pc}
   12770:	e59f40c8 	ldr	r4, [pc, #200]	; 12840 <.text+0xe840>
   12774:	e24cb004 	sub	fp, ip, #4	; 0x4
   12778:	e594000c 	ldr	r0, [r4, #12]
   1277c:	e5941010 	ldr	r1, [r4, #16]
   12780:	e59f20bc 	ldr	r2, [pc, #188]	; 12844 <.text+0xe844>
   12784:	ebfffd93 	bl	11dd8 <nav_circle_XY>
   12788:	e59f30b8 	ldr	r3, [pc, #184]	; 12848 <.text+0xe848>
   1278c:	e5930000 	ldr	r0, [r3]
   12790:	e59f30b4 	ldr	r3, [pc, #180]	; 1284c <.text+0xe84c>
   12794:	e3a02000 	mov	r2, #0	; 0x0
   12798:	e5832000 	str	r2, [r3]
   1279c:	e59f30ac 	ldr	r3, [pc, #172]	; 12850 <.text+0xe850>
   127a0:	e3a02003 	mov	r2, #3	; 0x3
   127a4:	e5c32000 	strb	r2, [r3]
   127a8:	e59f10a4 	ldr	r1, [pc, #164]	; 12854 <.text+0xe854>
   127ac:	eb001459 	bl	17918 <__addsf3>
   127b0:	e59f30a0 	ldr	r3, [pc, #160]	; 12858 <.text+0xe858>
   127b4:	e5830000 	str	r0, [r3]
   127b8:	e59f309c 	ldr	r3, [pc, #156]	; 1285c <.text+0xe85c>
   127bc:	e594000c 	ldr	r0, [r4, #12]
   127c0:	e5931000 	ldr	r1, [r3]
   127c4:	eb001452 	bl	17914 <__subsf3>
   127c8:	e59f3090 	ldr	r3, [pc, #144]	; 12860 <.text+0xe860>
   127cc:	e1a05000 	mov	r5, r0
   127d0:	e5931000 	ldr	r1, [r3]
   127d4:	e5940010 	ldr	r0, [r4, #16]
   127d8:	eb00144d 	bl	17914 <__subsf3>
   127dc:	e1a01005 	mov	r1, r5
   127e0:	e1a04000 	mov	r4, r0
   127e4:	e1a00005 	mov	r0, r5
   127e8:	eb0014cf 	bl	17b2c <__mulsf3>
   127ec:	e1a01004 	mov	r1, r4
   127f0:	e1a05000 	mov	r5, r0
   127f4:	e1a00004 	mov	r0, r4
   127f8:	eb0014cb 	bl	17b2c <__mulsf3>
   127fc:	e1a01000 	mov	r1, r0
   12800:	e1a00005 	mov	r0, r5
   12804:	eb001443 	bl	17918 <__addsf3>
   12808:	e59f3054 	ldr	r3, [pc, #84]	; 12864 <.text+0xe864>
   1280c:	e1a04000 	mov	r4, r0
   12810:	e5834000 	str	r4, [r3]
   12814:	e59f104c 	ldr	r1, [pc, #76]	; 12868 <.text+0xe868>
   12818:	eb00158f 	bl	17e5c <__gesf2>
   1281c:	e59f3048 	ldr	r3, [pc, #72]	; 1286c <.text+0xe86c>
   12820:	e3500000 	cmp	r0, #0	; 0x0
   12824:	e3a02000 	mov	r2, #0	; 0x0
   12828:	c3a02001 	movgt	r2, #1	; 0x1
   1282c:	e5c32000 	strb	r2, [r3]
   12830:	e59f3038 	ldr	r3, [pc, #56]	; 12870 <.text+0xe870>
   12834:	e5834000 	str	r4, [r3]
   12838:	e89d6830 	ldmia	sp, {r4, r5, fp, sp, lr}
   1283c:	e12fff1e 	bx	lr
   12840:	40000034 	andmi	r0, r0, r4, lsr r0
   12844:	42c80000 	sbcmi	r0, r8, #0	; 0x0
   12848:	400010cc 	andmi	r1, r0, ip, asr #1
   1284c:	40000668 	andmi	r0, r0, r8, ror #12
   12850:	40001158 	andmi	r1, r0, r8, asr r1
   12854:	41c80000 	bicmi	r0, r8, r0
   12858:	4000007c 	andmi	r0, r0, ip, ror r0
   1285c:	40001060 	andmi	r1, r0, r0, rrx
   12860:	40001078 	andmi	r1, r0, r8, ror r0
   12864:	400010b4 	strmih	r1, [r0], -r4
   12868:	481c4000 	ldmmida	ip, {lr}
   1286c:	400010a8 	andmi	r1, r0, r8, lsr #1
   12870:	40001080 	andmi	r1, r0, r0, lsl #1

00012874 <nav_update>:
   12874:	e1a0c00d 	mov	ip, sp
   12878:	e92ddff0 	stmdb	sp!, {r4, r5, r6, r7, r8, r9, sl, fp, ip, lr, pc}
   1287c:	e59f34f4 	ldr	r3, [pc, #1268]	; 12d78 <.text+0xed78>
   12880:	e59f64b8 	ldr	r6, [pc, #1208]	; 12d40 <.text+0xed40>
   12884:	e5931000 	ldr	r1, [r3]
   12888:	e24cb004 	sub	fp, ip, #4	; 0x4
   1288c:	e596000c 	ldr	r0, [r6, #12]
   12890:	eb00141f 	bl	17914 <__subsf3>
   12894:	e59f94a8 	ldr	r9, [pc, #1192]	; 12d44 <.text+0xed44>
   12898:	e1a05000 	mov	r5, r0
   1289c:	e5991000 	ldr	r1, [r9]
   128a0:	e5960010 	ldr	r0, [r6, #16]
   128a4:	eb00141a 	bl	17914 <__subsf3>
   128a8:	e1a01005 	mov	r1, r5
   128ac:	e1a04000 	mov	r4, r0
   128b0:	e1a00005 	mov	r0, r5
   128b4:	eb00149c 	bl	17b2c <__mulsf3>
   128b8:	e1a01004 	mov	r1, r4
   128bc:	e1a05000 	mov	r5, r0
   128c0:	e1a00004 	mov	r0, r4
   128c4:	eb001498 	bl	17b2c <__mulsf3>
   128c8:	e1a01000 	mov	r1, r0
   128cc:	e1a00005 	mov	r0, r5
   128d0:	eb001410 	bl	17918 <__addsf3>
   128d4:	e59f346c 	ldr	r3, [pc, #1132]	; 12d48 <.text+0xed48>
   128d8:	e1a02000 	mov	r2, r0
   128dc:	e5832000 	str	r2, [r3]
   128e0:	e59f1464 	ldr	r1, [pc, #1124]	; 12d4c <.text+0xed4c>
   128e4:	eb00155c 	bl	17e5c <__gesf2>
   128e8:	e3500000 	cmp	r0, #0	; 0x0
   128ec:	e59f045c 	ldr	r0, [pc, #1116]	; 12d50 <.text+0xed50>
   128f0:	e59f345c 	ldr	r3, [pc, #1116]	; 12d54 <.text+0xed54>
   128f4:	e5d02000 	ldrb	r2, [r0]
   128f8:	e3a01000 	mov	r1, #0	; 0x0
   128fc:	c3a01001 	movgt	r1, #1	; 0x1
   12900:	e5c31000 	strb	r1, [r3]
   12904:	e3520003 	cmp	r2, #3	; 0x3
   12908:	979ff102 	ldrls	pc, [pc, r2, lsl #2]
   1290c:	ea000173 	b	12ee0 <.text+0xeee0>
   12910:	00012920 	andeq	r2, r1, r0, lsr #18
   12914:	00012b00 	andeq	r2, r1, r0, lsl #22
   12918:	00012c38 	andeq	r2, r1, r8, lsr ip
   1291c:	00012cd0 	ldreqd	r2, [r1], -r0
   12920:	e59f4430 	ldr	r4, [pc, #1072]	; 12d58 <.text+0xed58>
   12924:	e5d43000 	ldrb	r3, [r4]
   12928:	e3a08000 	mov	r8, #0	; 0x0
   1292c:	e3530001 	cmp	r3, #1	; 0x1
   12930:	e5c08000 	strb	r8, [r0]
   12934:	0a000031 	beq	12a00 <.text+0xea00>
   12938:	ca000002 	bgt	12948 <.text+0xe948>
   1293c:	e1530008 	cmp	r3, r8
   12940:	0a000003 	beq	12954 <.text+0xe954>
   12944:	ea00006d 	b	12b00 <.text+0xeb00>
   12948:	e3530002 	cmp	r3, #2	; 0x2
   1294c:	0a000064 	beq	12ae4 <.text+0xeae4>
   12950:	ea00006a 	b	12b00 <.text+0xeb00>
   12954:	e596101c 	ldr	r1, [r6, #28]
   12958:	e5960018 	ldr	r0, [r6, #24]
   1295c:	e59f23f8 	ldr	r2, [pc, #1016]	; 12d5c <.text+0xed5c>
   12960:	e5c48000 	strb	r8, [r4]
   12964:	ebfffe82 	bl	12374 <nav_approaching_xy>
   12968:	e31000ff 	tst	r0, #255	; 0xff
   1296c:	15d43000 	ldrneb	r3, [r4]
   12970:	e59f73c8 	ldr	r7, [pc, #968]	; 12d40 <.text+0xed40>
   12974:	12833001 	addne	r3, r3, #1	; 0x1
   12978:	13a01002 	movne	r1, #2	; 0x2
   1297c:	1a00002a 	bne	12a2c <.text+0xea2c>
   12980:	e59f33e4 	ldr	r3, [pc, #996]	; 12d6c <.text+0xed6c>
   12984:	e597201c 	ldr	r2, [r7, #28]
   12988:	e5976018 	ldr	r6, [r7, #24]
   1298c:	e5c38000 	strb	r8, [r3]
   12990:	e59f33d8 	ldr	r3, [pc, #984]	; 12d70 <.text+0xed70>
   12994:	e5836000 	str	r6, [r3]
   12998:	e59f33d4 	ldr	r3, [pc, #980]	; 12d74 <.text+0xed74>
   1299c:	e1a00002 	mov	r0, r2
   129a0:	e5832000 	str	r2, [r3]
   129a4:	e5991000 	ldr	r1, [r9]
   129a8:	eb0013d9 	bl	17914 <__subsf3>
   129ac:	eb0011e2 	bl	1713c <__extendsfdf2>
   129b0:	e59f33c0 	ldr	r3, [pc, #960]	; 12d78 <.text+0xed78>
   129b4:	e1a05001 	mov	r5, r1
   129b8:	e1a04000 	mov	r4, r0
   129bc:	e5931000 	ldr	r1, [r3]
   129c0:	e1a00006 	mov	r0, r6
   129c4:	eb0013d2 	bl	17914 <__subsf3>
   129c8:	eb0011db 	bl	1713c <__extendsfdf2>
   129cc:	e1a03001 	mov	r3, r1
   129d0:	e1a02000 	mov	r2, r0
   129d4:	e1a01005 	mov	r1, r5
   129d8:	e1a00004 	mov	r0, r4
   129dc:	eb001579 	bl	17fc8 <__atan2_from_arm>
   129e0:	e1a03001 	mov	r3, r1
   129e4:	e1a02000 	mov	r2, r0
   129e8:	e28f0ff3 	add	r0, pc, #972	; 0x3cc
   129ec:	e8900003 	ldmia	r0, {r0, r1}
   129f0:	eb0010fa 	bl	16de0 <__subdf3>
   129f4:	eb001388 	bl	1781c <__truncdfsf2>
   129f8:	e597c020 	ldr	ip, [r7, #32]
   129fc:	ea00002d 	b	12ab8 <.text+0xeab8>
   12a00:	e5961028 	ldr	r1, [r6, #40]
   12a04:	e5960024 	ldr	r0, [r6, #36]
   12a08:	e59f234c 	ldr	r2, [pc, #844]	; 12d5c <.text+0xed5c>
   12a0c:	e5c43000 	strb	r3, [r4]
   12a10:	ebfffe57 	bl	12374 <nav_approaching_xy>
   12a14:	e31000ff 	tst	r0, #255	; 0xff
   12a18:	e59f7320 	ldr	r7, [pc, #800]	; 12d40 <.text+0xed40>
   12a1c:	0a000006 	beq	12a3c <.text+0xea3c>
   12a20:	e5d43000 	ldrb	r3, [r4]
   12a24:	e3a01003 	mov	r1, #3	; 0x3
   12a28:	e2833001 	add	r3, r3, #1	; 0x1
   12a2c:	e59f232c 	ldr	r2, [pc, #812]	; 12d60 <.text+0xed60>
   12a30:	e5c43000 	strb	r3, [r4]
   12a34:	e5c21000 	strb	r1, [r2]
   12a38:	ea000127 	b	12edc <.text+0xeedc>
   12a3c:	e59f3328 	ldr	r3, [pc, #808]	; 12d6c <.text+0xed6c>
   12a40:	e5972028 	ldr	r2, [r7, #40]
   12a44:	e5976024 	ldr	r6, [r7, #36]
   12a48:	e5c38000 	strb	r8, [r3]
   12a4c:	e59f331c 	ldr	r3, [pc, #796]	; 12d70 <.text+0xed70>
   12a50:	e5836000 	str	r6, [r3]
   12a54:	e59f3318 	ldr	r3, [pc, #792]	; 12d74 <.text+0xed74>
   12a58:	e1a00002 	mov	r0, r2
   12a5c:	e5832000 	str	r2, [r3]
   12a60:	e5991000 	ldr	r1, [r9]
   12a64:	eb0013aa 	bl	17914 <__subsf3>
   12a68:	eb0011b3 	bl	1713c <__extendsfdf2>
   12a6c:	e59f3304 	ldr	r3, [pc, #772]	; 12d78 <.text+0xed78>
   12a70:	e1a05001 	mov	r5, r1
   12a74:	e1a04000 	mov	r4, r0
   12a78:	e5931000 	ldr	r1, [r3]
   12a7c:	e1a00006 	mov	r0, r6
   12a80:	eb0013a3 	bl	17914 <__subsf3>
   12a84:	eb0011ac 	bl	1713c <__extendsfdf2>
   12a88:	e1a03001 	mov	r3, r1
   12a8c:	e1a02000 	mov	r2, r0
   12a90:	e1a01005 	mov	r1, r5
   12a94:	e1a00004 	mov	r0, r4
   12a98:	eb00154a 	bl	17fc8 <__atan2_from_arm>
   12a9c:	e1a03001 	mov	r3, r1
   12aa0:	e1a02000 	mov	r2, r0
   12aa4:	e28f0e31 	add	r0, pc, #784	; 0x310
   12aa8:	e8900003 	ldmia	r0, {r0, r1}
   12aac:	eb0010cb 	bl	16de0 <__subdf3>
   12ab0:	eb001359 	bl	1781c <__truncdfsf2>
   12ab4:	e597c02c 	ldr	ip, [r7, #44]
   12ab8:	e59f32bc 	ldr	r3, [pc, #700]	; 12d7c <.text+0xed7c>
   12abc:	e5830000 	str	r0, [r3]
   12ac0:	e59f32b8 	ldr	r3, [pc, #696]	; 12d80 <.text+0xed80>
   12ac4:	e5c38000 	strb	r8, [r3]
   12ac8:	e59f32cc 	ldr	r3, [pc, #716]	; 12d9c <.text+0xed9c>
   12acc:	e3a02003 	mov	r2, #3	; 0x3
   12ad0:	e5c32000 	strb	r2, [r3]
   12ad4:	e59f32cc 	ldr	r3, [pc, #716]	; 12da8 <.text+0xeda8>
   12ad8:	e3a01000 	mov	r1, #0	; 0x0
   12adc:	e583c000 	str	ip, [r3]
   12ae0:	ea000044 	b	12bf8 <.text+0xebf8>
   12ae4:	e59f2264 	ldr	r2, [pc, #612]	; 12d50 <.text+0xed50>
   12ae8:	e3a03001 	mov	r3, #1	; 0x1
   12aec:	e5c23000 	strb	r3, [r2]
   12af0:	e59f3298 	ldr	r3, [pc, #664]	; 12d90 <.text+0xed90>
   12af4:	e5c48000 	strb	r8, [r4]
   12af8:	e1c380b0 	strh	r8, [r3]
   12afc:	ea0000f6 	b	12edc <.text+0xeedc>
   12b00:	e59f5250 	ldr	r5, [pc, #592]	; 12d58 <.text+0xed58>
   12b04:	e59f1244 	ldr	r1, [pc, #580]	; 12d50 <.text+0xed50>
   12b08:	e5d52000 	ldrb	r2, [r5]
   12b0c:	e3a03001 	mov	r3, #1	; 0x1
   12b10:	e5c13000 	strb	r3, [r1]
   12b14:	e3520004 	cmp	r2, #4	; 0x4
   12b18:	979ff102 	ldrls	pc, [pc, r2, lsl #2]
   12b1c:	ea000045 	b	12c38 <.text+0xec38>
   12b20:	00012b34 	andeq	r2, r1, r4, lsr fp
   12b24:	00012b44 	andeq	r2, r1, r4, asr #22
   12b28:	00012b90 	muleq	r1, r0, fp
   12b2c:	00012c0c 	andeq	r2, r1, ip, lsl #24
   12b30:	00012c18 	andeq	r2, r1, r8, lsl ip
   12b34:	e59f321c 	ldr	r3, [pc, #540]	; 12d58 <.text+0xed58>
   12b38:	e3a02001 	mov	r2, #1	; 0x1
   12b3c:	e5c32000 	strb	r2, [r3]
   12b40:	ea0000e5 	b	12edc <.text+0xeedc>
   12b44:	e3a03001 	mov	r3, #1	; 0x1
   12b48:	e596101c 	ldr	r1, [r6, #28]
   12b4c:	e5960018 	ldr	r0, [r6, #24]
   12b50:	e59f2204 	ldr	r2, [pc, #516]	; 12d5c <.text+0xed5c>
   12b54:	e5c53000 	strb	r3, [r5]
   12b58:	ebfffe05 	bl	12374 <nav_approaching_xy>
   12b5c:	e21060ff 	ands	r6, r0, #255	; 0xff
   12b60:	15d53000 	ldrneb	r3, [r5]
   12b64:	e59f41d4 	ldr	r4, [pc, #468]	; 12d40 <.text+0xed40>
   12b68:	12833001 	addne	r3, r3, #1	; 0x1
   12b6c:	13a01002 	movne	r1, #2	; 0x2
   12b70:	1a00006f 	bne	12d34 <.text+0xed34>
   12b74:	e5940024 	ldr	r0, [r4, #36]
   12b78:	e5941028 	ldr	r1, [r4, #40]
   12b7c:	e5942018 	ldr	r2, [r4, #24]
   12b80:	e594301c 	ldr	r3, [r4, #28]
   12b84:	ebfffe3e 	bl	12484 <nav_route_xy>
   12b88:	e5940020 	ldr	r0, [r4, #32]
   12b8c:	ea000011 	b	12bd8 <.text+0xebd8>
   12b90:	e3a03002 	mov	r3, #2	; 0x2
   12b94:	e5961028 	ldr	r1, [r6, #40]
   12b98:	e5960024 	ldr	r0, [r6, #36]
   12b9c:	e59f21b8 	ldr	r2, [pc, #440]	; 12d5c <.text+0xed5c>
   12ba0:	e5c53000 	strb	r3, [r5]
   12ba4:	ebfffdf2 	bl	12374 <nav_approaching_xy>
   12ba8:	e21060ff 	ands	r6, r0, #255	; 0xff
   12bac:	15d53000 	ldrneb	r3, [r5]
   12bb0:	e59f4188 	ldr	r4, [pc, #392]	; 12d40 <.text+0xed40>
   12bb4:	12833001 	addne	r3, r3, #1	; 0x1
   12bb8:	13a01003 	movne	r1, #3	; 0x3
   12bbc:	1a00005c 	bne	12d34 <.text+0xed34>
   12bc0:	e5940018 	ldr	r0, [r4, #24]
   12bc4:	e594101c 	ldr	r1, [r4, #28]
   12bc8:	e5942024 	ldr	r2, [r4, #36]
   12bcc:	e5943028 	ldr	r3, [r4, #40]
   12bd0:	ebfffe2b 	bl	12484 <nav_route_xy>
   12bd4:	e594002c 	ldr	r0, [r4, #44]
   12bd8:	e59f31a0 	ldr	r3, [pc, #416]	; 12d80 <.text+0xed80>
   12bdc:	e5c36000 	strb	r6, [r3]
   12be0:	e59f31b4 	ldr	r3, [pc, #436]	; 12d9c <.text+0xed9c>
   12be4:	e3a02003 	mov	r2, #3	; 0x3
   12be8:	e5c32000 	strb	r2, [r3]
   12bec:	e59f31b4 	ldr	r3, [pc, #436]	; 12da8 <.text+0xeda8>
   12bf0:	e5830000 	str	r0, [r3]
   12bf4:	e3a01000 	mov	r1, #0	; 0x0
   12bf8:	e59f3184 	ldr	r3, [pc, #388]	; 12d84 <.text+0xed84>
   12bfc:	e5831000 	str	r1, [r3]
   12c00:	e59f3180 	ldr	r3, [pc, #384]	; 12d88 <.text+0xed88>
   12c04:	e5831000 	str	r1, [r3]
   12c08:	ea0000b4 	b	12ee0 <.text+0xeee0>
   12c0c:	e3a03003 	mov	r3, #3	; 0x3
   12c10:	e5c53000 	strb	r3, [r5]
   12c14:	eaffffc6 	b	12b34 <.text+0xeb34>
   12c18:	e5d13000 	ldrb	r3, [r1]
   12c1c:	e2833001 	add	r3, r3, #1	; 0x1
   12c20:	e5c13000 	strb	r3, [r1]
   12c24:	e59f3164 	ldr	r3, [pc, #356]	; 12d90 <.text+0xed90>
   12c28:	e3a02000 	mov	r2, #0	; 0x0
   12c2c:	e1c320b0 	strh	r2, [r3]
   12c30:	e5c52000 	strb	r2, [r5]
   12c34:	ea0000a8 	b	12edc <.text+0xeedc>
   12c38:	e59fe118 	ldr	lr, [pc, #280]	; 12d58 <.text+0xed58>
   12c3c:	e5dec000 	ldrb	ip, [lr]
   12c40:	e59f1108 	ldr	r1, [pc, #264]	; 12d50 <.text+0xed50>
   12c44:	e3a03002 	mov	r3, #2	; 0x2
   12c48:	e35c0000 	cmp	ip, #0	; 0x0
   12c4c:	e5c13000 	strb	r3, [r1]
   12c50:	0a000002 	beq	12c60 <.text+0xec60>
   12c54:	e35c0001 	cmp	ip, #1	; 0x1
   12c58:	0a000015 	beq	12cb4 <.text+0xecb4>
   12c5c:	ea00001b 	b	12cd0 <.text+0xecd0>
   12c60:	e59f30fc 	ldr	r3, [pc, #252]	; 12d64 <.text+0xed64>
   12c64:	e5930000 	ldr	r0, [r3]
   12c68:	e59f3110 	ldr	r3, [pc, #272]	; 12d80 <.text+0xed80>
   12c6c:	e5c3c000 	strb	ip, [r3]
   12c70:	e59f3124 	ldr	r3, [pc, #292]	; 12d9c <.text+0xed9c>
   12c74:	e3a02003 	mov	r2, #3	; 0x3
   12c78:	e5c32000 	strb	r2, [r3]
   12c7c:	e59f3104 	ldr	r3, [pc, #260]	; 12d88 <.text+0xed88>
   12c80:	e3a04000 	mov	r4, #0	; 0x0
   12c84:	e59f1100 	ldr	r1, [pc, #256]	; 12d8c <.text+0xed8c>
   12c88:	e5834000 	str	r4, [r3]
   12c8c:	e5cec000 	strb	ip, [lr]
   12c90:	eb001320 	bl	17918 <__addsf3>
   12c94:	e59f310c 	ldr	r3, [pc, #268]	; 12da8 <.text+0xeda8>
   12c98:	e5830000 	str	r0, [r3]
   12c9c:	e59f20c4 	ldr	r2, [pc, #196]	; 12d68 <.text+0xed68>
   12ca0:	e5961028 	ldr	r1, [r6, #40]
   12ca4:	e5960024 	ldr	r0, [r6, #36]
   12ca8:	e59f30d4 	ldr	r3, [pc, #212]	; 12d84 <.text+0xed84>
   12cac:	e5834000 	str	r4, [r3]
   12cb0:	ea000081 	b	12ebc <.text+0xeebc>
   12cb4:	e3a02003 	mov	r2, #3	; 0x3
   12cb8:	e5c12000 	strb	r2, [r1]
   12cbc:	e59f20cc 	ldr	r2, [pc, #204]	; 12d90 <.text+0xed90>
   12cc0:	e3a03000 	mov	r3, #0	; 0x0
   12cc4:	e1c230b0 	strh	r3, [r2]
   12cc8:	e5ce3000 	strb	r3, [lr]
   12ccc:	ea000082 	b	12edc <.text+0xeedc>
   12cd0:	e59f5080 	ldr	r5, [pc, #128]	; 12d58 <.text+0xed58>
   12cd4:	e5d57000 	ldrb	r7, [r5]
   12cd8:	e59f1070 	ldr	r1, [pc, #112]	; 12d50 <.text+0xed50>
   12cdc:	e3a0a003 	mov	sl, #3	; 0x3
   12ce0:	e3570001 	cmp	r7, #1	; 0x1
   12ce4:	e5c1a000 	strb	sl, [r1]
   12ce8:	0a000062 	beq	12e78 <.text+0xee78>
   12cec:	ca000002 	bgt	12cfc <.text+0xecfc>
   12cf0:	e3570000 	cmp	r7, #0	; 0x0
   12cf4:	0a000003 	beq	12d08 <.text+0xed08>
   12cf8:	ea000078 	b	12ee0 <.text+0xeee0>
   12cfc:	e3570002 	cmp	r7, #2	; 0x2
   12d00:	0a00006f 	beq	12ec4 <.text+0xeec4>
   12d04:	ea000075 	b	12ee0 <.text+0xeee0>
   12d08:	e5961034 	ldr	r1, [r6, #52]
   12d0c:	e5960030 	ldr	r0, [r6, #48]
   12d10:	e59f2044 	ldr	r2, [pc, #68]	; 12d5c <.text+0xed5c>
   12d14:	e5c57000 	strb	r7, [r5]
   12d18:	ebfffd95 	bl	12374 <nav_approaching_xy>
   12d1c:	e31000ff 	tst	r0, #255	; 0xff
   12d20:	e59f8018 	ldr	r8, [pc, #24]	; 12d40 <.text+0xed40>
   12d24:	0a000026 	beq	12dc4 <.text+0xedc4>
   12d28:	e5d53000 	ldrb	r3, [r5]
   12d2c:	e3a01004 	mov	r1, #4	; 0x4
   12d30:	e2833001 	add	r3, r3, #1	; 0x1
   12d34:	e59f2024 	ldr	r2, [pc, #36]	; 12d60 <.text+0xed60>
   12d38:	e5c21000 	strb	r1, [r2]
   12d3c:	ea000065 	b	12ed8 <.text+0xeed8>
   12d40:	40000034 	andmi	r0, r0, r4, lsr r0
   12d44:	40001078 	andmi	r1, r0, r8, ror r0
   12d48:	400010b4 	strmih	r1, [r0], -r4
   12d4c:	481c4000 	ldmmida	ip, {lr}
   12d50:	400010a5 	andmi	r1, r0, r5, lsr #1
   12d54:	400010a8 	andmi	r1, r0, r8, lsr #1
   12d58:	400010bc 	strmih	r1, [r0], -ip
   12d5c:	40a00000 	adcmi	r0, r0, r0
   12d60:	4000068c 	andmi	r0, r0, ip, lsl #13
   12d64:	400010cc 	andmi	r1, r0, ip, asr #1
   12d68:	42960000 	addmis	r0, r6, #0	; 0x0
   12d6c:	400010a4 	andmi	r1, r0, r4, lsr #1
   12d70:	40001088 	andmi	r1, r0, r8, lsl #1
   12d74:	4000109c 	mulmi	r0, ip, r0
   12d78:	40001060 	andmi	r1, r0, r0, rrx
   12d7c:	400010e4 	andmi	r1, r0, r4, ror #1
   12d80:	40001144 	andmi	r1, r0, r4, asr #2
   12d84:	4000117c 	andmi	r1, r0, ip, ror r1
   12d88:	40000668 	andmi	r0, r0, r8, ror #12
   12d8c:	42480000 	submi	r0, r8, #0	; 0x0
   12d90:	400010d6 	ldrmid	r1, [r0], -r6
   12d94:	40000675 	andmi	r0, r0, r5, ror r6
   12d98:	40000670 	andmi	r0, r0, r0, ror r6
   12d9c:	40001158 	andmi	r1, r0, r8, asr r1
   12da0:	40001120 	andmi	r1, r0, r0, lsr #2
   12da4:	4000114c 	andmi	r1, r0, ip, asr #2
   12da8:	4000007c 	andmi	r0, r0, ip, ror r0
   12dac:	40000678 	andmi	r0, r0, r8, ror r6
   12db0:	400010dc 	ldrmid	r1, [r0], -ip
   12db4:	4000066c 	andmi	r0, r0, ip, ror #12
   12db8:	40001154 	andmi	r1, r0, r4, asr r1
   12dbc:	3ff921fb 	swicc	0x00f921fb
   12dc0:	54442d18 	strplb	r2, [r4], #-3352
   12dc4:	e51f3060 	ldr	r3, [pc, #-96]	; 12d6c <.text+0xed6c>
   12dc8:	e5982034 	ldr	r2, [r8, #52]
   12dcc:	e5986030 	ldr	r6, [r8, #48]
   12dd0:	e5c37000 	strb	r7, [r3]
   12dd4:	e51f306c 	ldr	r3, [pc, #-108]	; 12d70 <.text+0xed70>
   12dd8:	e5836000 	str	r6, [r3]
   12ddc:	e51f3070 	ldr	r3, [pc, #-112]	; 12d74 <.text+0xed74>
   12de0:	e1a00002 	mov	r0, r2
   12de4:	e5832000 	str	r2, [r3]
   12de8:	e5991000 	ldr	r1, [r9]
   12dec:	eb0012c8 	bl	17914 <__subsf3>
   12df0:	eb0010d1 	bl	1713c <__extendsfdf2>
   12df4:	e51f3084 	ldr	r3, [pc, #-132]	; 12d78 <.text+0xed78>
   12df8:	e1a05001 	mov	r5, r1
   12dfc:	e1a04000 	mov	r4, r0
   12e00:	e5931000 	ldr	r1, [r3]
   12e04:	e1a00006 	mov	r0, r6
   12e08:	eb0012c1 	bl	17914 <__subsf3>
   12e0c:	eb0010ca 	bl	1713c <__extendsfdf2>
   12e10:	e1a03001 	mov	r3, r1
   12e14:	e1a02000 	mov	r2, r0
   12e18:	e1a01005 	mov	r1, r5
   12e1c:	e1a00004 	mov	r0, r4
   12e20:	eb001468 	bl	17fc8 <__atan2_from_arm>
   12e24:	e1a03001 	mov	r3, r1
   12e28:	e1a02000 	mov	r2, r0
   12e2c:	e24f0078 	sub	r0, pc, #120	; 0x78
   12e30:	e8900003 	ldmia	r0, {r0, r1}
   12e34:	eb000fe9 	bl	16de0 <__subdf3>
   12e38:	eb001277 	bl	1781c <__truncdfsf2>
   12e3c:	e51f30c8 	ldr	r3, [pc, #-200]	; 12d7c <.text+0xed7c>
   12e40:	e5981038 	ldr	r1, [r8, #56]
   12e44:	e5830000 	str	r0, [r3]
   12e48:	e51f30d0 	ldr	r3, [pc, #-208]	; 12d80 <.text+0xed80>
   12e4c:	e5c37000 	strb	r7, [r3]
   12e50:	e51f30bc 	ldr	r3, [pc, #-188]	; 12d9c <.text+0xed9c>
   12e54:	e5c3a000 	strb	sl, [r3]
   12e58:	e51f30b8 	ldr	r3, [pc, #-184]	; 12da8 <.text+0xeda8>
   12e5c:	e5831000 	str	r1, [r3]
   12e60:	e51f30e4 	ldr	r3, [pc, #-228]	; 12d84 <.text+0xed84>
   12e64:	e3a02000 	mov	r2, #0	; 0x0
   12e68:	e5832000 	str	r2, [r3]
   12e6c:	e51f30ec 	ldr	r3, [pc, #-236]	; 12d88 <.text+0xed88>
   12e70:	e5832000 	str	r2, [r3]
   12e74:	ea000019 	b	12ee0 <.text+0xeee0>
   12e78:	e51f3100 	ldr	r3, [pc, #-256]	; 12d80 <.text+0xed80>
   12e7c:	e3a0c000 	mov	ip, #0	; 0x0
   12e80:	e5964038 	ldr	r4, [r6, #56]
   12e84:	e5961034 	ldr	r1, [r6, #52]
   12e88:	e5960030 	ldr	r0, [r6, #48]
   12e8c:	e5c3c000 	strb	ip, [r3]
   12e90:	e51f30fc 	ldr	r3, [pc, #-252]	; 12d9c <.text+0xed9c>
   12e94:	e5c3a000 	strb	sl, [r3]
   12e98:	e51f30f8 	ldr	r3, [pc, #-248]	; 12da8 <.text+0xeda8>
   12e9c:	e5834000 	str	r4, [r3]
   12ea0:	e51f3124 	ldr	r3, [pc, #-292]	; 12d84 <.text+0xed84>
   12ea4:	e3a0e000 	mov	lr, #0	; 0x0
   12ea8:	e583e000 	str	lr, [r3]
   12eac:	e51f312c 	ldr	r3, [pc, #-300]	; 12d88 <.text+0xed88>
   12eb0:	e51f212c 	ldr	r2, [pc, #-300]	; 12d8c <.text+0xed8c>
   12eb4:	e5c57000 	strb	r7, [r5]
   12eb8:	e583e000 	str	lr, [r3]
   12ebc:	ebfffbc5 	bl	11dd8 <nav_circle_XY>
   12ec0:	ea000006 	b	12ee0 <.text+0xeee0>
   12ec4:	e3a02004 	mov	r2, #4	; 0x4
   12ec8:	e5c12000 	strb	r2, [r1]
   12ecc:	e51f2144 	ldr	r2, [pc, #-324]	; 12d90 <.text+0xed90>
   12ed0:	e3a03000 	mov	r3, #0	; 0x0
   12ed4:	e1c230b0 	strh	r3, [r2]
   12ed8:	e5c53000 	strb	r3, [r5]
   12edc:	ebfffb9d 	bl	11d58 <nav_init_stage>
   12ee0:	e51f3154 	ldr	r3, [pc, #-340]	; 12d94 <.text+0xed94>
   12ee4:	e5d33000 	ldrb	r3, [r3]
   12ee8:	e3530000 	cmp	r3, #0	; 0x0
   12eec:	151f315c 	ldrne	r3, [pc, #-348]	; 12d98 <.text+0xed98>
   12ef0:	15932000 	ldrne	r2, [r3]
   12ef4:	e51f3160 	ldr	r3, [pc, #-352]	; 12d9c <.text+0xed9c>
   12ef8:	e5d33000 	ldrb	r3, [r3]
   12efc:	03a02000 	moveq	r2, #0	; 0x0
   12f00:	e3530002 	cmp	r3, #2	; 0x2
   12f04:	e51f316c 	ldr	r3, [pc, #-364]	; 12da0 <.text+0xeda0>
   12f08:	e5832000 	str	r2, [r3]
   12f0c:	051f3170 	ldreq	r3, [pc, #-368]	; 12da4 <.text+0xeda4>
   12f10:	03a02000 	moveq	r2, #0	; 0x0
   12f14:	05c32000 	streqb	r2, [r3]
   12f18:	e51f3178 	ldr	r3, [pc, #-376]	; 12da8 <.text+0xeda8>
   12f1c:	e51f5178 	ldr	r5, [pc, #-376]	; 12dac <.text+0xedac>
   12f20:	e5934000 	ldr	r4, [r3]
   12f24:	e5951000 	ldr	r1, [r5]
   12f28:	e1a00004 	mov	r0, r4
   12f2c:	eb001278 	bl	17914 <__subsf3>
   12f30:	e3a015fe 	mov	r1, #1065353216	; 0x3f800000
   12f34:	e3c00102 	bic	r0, r0, #-2147483648	; 0x80000000
   12f38:	eb0013c7 	bl	17e5c <__gesf2>
   12f3c:	e3500000 	cmp	r0, #0	; 0x0
   12f40:	c51f3198 	ldrgt	r3, [pc, #-408]	; 12db0 <.text+0xedb0>
   12f44:	c5834000 	strgt	r4, [r3]
   12f48:	e51f31a0 	ldr	r3, [pc, #-416]	; 12db0 <.text+0xedb0>
   12f4c:	e5930000 	ldr	r0, [r3]
   12f50:	e51f31a4 	ldr	r3, [pc, #-420]	; 12db4 <.text+0xedb4>
   12f54:	c5854000 	strgt	r4, [r5]
   12f58:	e5931000 	ldr	r1, [r3]
   12f5c:	eb00126d 	bl	17918 <__addsf3>
   12f60:	e51f31b0 	ldr	r3, [pc, #-432]	; 12db8 <.text+0xedb8>
   12f64:	e5830000 	str	r0, [r3]
   12f68:	e89d6ff0 	ldmia	sp, {r4, r5, r6, r7, r8, r9, sl, fp, sp, lr}
   12f6c:	e12fff1e 	bx	lr

00012f70 <nav_init>:
   12f70:	e59f3028 	ldr	r3, [pc, #40]	; 12fa0 <.text+0xefa0>
   12f74:	e3a01000 	mov	r1, #0	; 0x0
   12f78:	e59f2024 	ldr	r2, [pc, #36]	; 12fa4 <.text+0xefa4>
   12f7c:	e5c31000 	strb	r1, [r3]
   12f80:	e59f3020 	ldr	r3, [pc, #32]	; 12fa8 <.text+0xefa8>
   12f84:	e5832000 	str	r2, [r3]
   12f88:	e59f301c 	ldr	r3, [pc, #28]	; 12fac <.text+0xefac>
   12f8c:	e3a02000 	mov	r2, #0	; 0x0
   12f90:	e5832000 	str	r2, [r3]
   12f94:	e59f3014 	ldr	r3, [pc, #20]	; 12fb0 <.text+0xefb0>
   12f98:	e5c31000 	strb	r1, [r3]
   12f9c:	e12fff1e 	bx	lr
   12fa0:	400010bc 	strmih	r1, [r0], -ip
   12fa4:	43390000 	teqmi	r9, #0	; 0x0
   12fa8:	400010cc 	andmi	r1, r0, ip, asr #1
   12fac:	4000107c 	andmi	r1, r0, ip, ror r0
   12fb0:	400010a5 	andmi	r1, r0, r5, lsr #1

00012fb4 <nav_without_gps>:
   12fb4:	e59f3038 	ldr	r3, [pc, #56]	; 12ff4 <.text+0xeff4>
   12fb8:	e3a02002 	mov	r2, #2	; 0x2
   12fbc:	e5c32000 	strb	r2, [r3]
   12fc0:	e59f2030 	ldr	r2, [pc, #48]	; 12ff8 <.text+0xeff8>
   12fc4:	e59f3030 	ldr	r3, [pc, #48]	; 12ffc <.text+0xeffc>
   12fc8:	e5832000 	str	r2, [r3]
   12fcc:	e59f302c 	ldr	r3, [pc, #44]	; 13000 <.text+0xf000>
   12fd0:	e3a0243f 	mov	r2, #1056964608	; 0x3f000000
   12fd4:	e5832000 	str	r2, [r3]
   12fd8:	e59f3024 	ldr	r3, [pc, #36]	; 13004 <.text+0xf004>
   12fdc:	e3a02001 	mov	r2, #1	; 0x1
   12fe0:	e5c32000 	strb	r2, [r3]
   12fe4:	e59f301c 	ldr	r3, [pc, #28]	; 13008 <.text+0xf008>
   12fe8:	e3a02d2d 	mov	r2, #2880	; 0xb40
   12fec:	e1c320b0 	strh	r2, [r3]
   12ff0:	e12fff1e 	bx	lr
   12ff4:	400004b8 	strmih	r0, [r0], -r8
   12ff8:	3e99999a 	mrccc	9, 4, r9, cr9, cr10, {4}
   12ffc:	40001134 	andmi	r1, r0, r4, lsr r1
   13000:	40000668 	andmi	r0, r0, r8, ror #12
   13004:	40001158 	andmi	r1, r0, r8, asr r1
   13008:	40001094 	mulmi	r0, r4, r0

0001300c <nav_eight_init>:
   1300c:	e59f3008 	ldr	r3, [pc, #8]	; 1301c <.text+0xf01c>
   13010:	e3a02003 	mov	r2, #3	; 0x3
   13014:	e5832000 	str	r2, [r3]
   13018:	e12fff1e 	bx	lr
   1301c:	400006c0 	andmi	r0, r0, r0, asr #13

00013020 <nav_eight>:
   13020:	e1a0c00d 	mov	ip, sp
   13024:	e92ddff0 	stmdb	sp!, {r4, r5, r6, r7, r8, r9, sl, fp, ip, lr, pc}
   13028:	e20000ff 	and	r0, r0, #255	; 0xff
   1302c:	e24cb004 	sub	fp, ip, #4	; 0x4
   13030:	e24dd058 	sub	sp, sp, #88	; 0x58
   13034:	e20110ff 	and	r1, r1, #255	; 0xff
   13038:	e0800080 	add	r0, r0, r0, lsl #1
   1303c:	e1a07100 	mov	r7, r0, lsl #2
   13040:	e50b1068 	str	r1, [fp, #-104]
   13044:	e1a00081 	mov	r0, r1, lsl #1
   13048:	e59f1650 	ldr	r1, [pc, #1616]	; 136a0 <.text+0xf6a0>
   1304c:	e0878001 	add	r8, r7, r1
   13050:	e51b1068 	ldr	r1, [fp, #-104]
   13054:	e0803001 	add	r3, r0, r1
   13058:	e1a09103 	mov	r9, r3, lsl #2
   1305c:	e5983008 	ldr	r3, [r8, #8]
   13060:	e50b0074 	str	r0, [fp, #-116]
   13064:	e50b3070 	str	r3, [fp, #-112]
   13068:	e59f0630 	ldr	r0, [pc, #1584]	; 136a0 <.text+0xf6a0>
   1306c:	e50b206c 	str	r2, [fp, #-108]
   13070:	e51b2070 	ldr	r2, [fp, #-112]
   13074:	e0893000 	add	r3, r9, r0
   13078:	e5832008 	str	r2, [r3, #8]
   1307c:	e7971000 	ldr	r1, [r7, r0]
   13080:	e7990000 	ldr	r0, [r9, r0]
   13084:	e50b3078 	str	r3, [fp, #-120]
   13088:	eb001221 	bl	17914 <__subsf3>
   1308c:	e51b3078 	ldr	r3, [fp, #-120]
   13090:	e1a04000 	mov	r4, r0
   13094:	e5981004 	ldr	r1, [r8, #4]
   13098:	e5930004 	ldr	r0, [r3, #4]
   1309c:	eb00121c 	bl	17914 <__subsf3>
   130a0:	e1a01004 	mov	r1, r4
   130a4:	e1a05000 	mov	r5, r0
   130a8:	e1a00004 	mov	r0, r4
   130ac:	eb00129e 	bl	17b2c <__mulsf3>
   130b0:	e1a01005 	mov	r1, r5
   130b4:	e1a06000 	mov	r6, r0
   130b8:	e1a00005 	mov	r0, r5
   130bc:	eb00129a 	bl	17b2c <__mulsf3>
   130c0:	e1a01000 	mov	r1, r0
   130c4:	e1a00006 	mov	r0, r6
   130c8:	eb001212 	bl	17918 <__addsf3>
   130cc:	eb00101a 	bl	1713c <__extendsfdf2>
   130d0:	eb0013c8 	bl	17ff8 <__sqrt_from_arm>
   130d4:	eb0011d0 	bl	1781c <__truncdfsf2>
   130d8:	e1a06000 	mov	r6, r0
   130dc:	e1a01006 	mov	r1, r6
   130e0:	e1a00004 	mov	r0, r4
   130e4:	eb0012f4 	bl	17cbc <__divsf3>
   130e8:	e1a01006 	mov	r1, r6
   130ec:	e50b007c 	str	r0, [fp, #-124]
   130f0:	e1a00005 	mov	r0, r5
   130f4:	eb0012f0 	bl	17cbc <__divsf3>
   130f8:	e50b0080 	str	r0, [fp, #-128]
   130fc:	e51b006c 	ldr	r0, [fp, #-108]
   13100:	e1a01000 	mov	r1, r0
   13104:	eb001203 	bl	17918 <__addsf3>
   13108:	e1a04000 	mov	r4, r0
   1310c:	e1a01004 	mov	r1, r4
   13110:	e1a00006 	mov	r0, r6
   13114:	eb001350 	bl	17e5c <__gesf2>
   13118:	e3500000 	cmp	r0, #0	; 0x0
   1311c:	da000011 	ble	13168 <nav_eight+0x148>
   13120:	e51b107c 	ldr	r1, [fp, #-124]
   13124:	e1a00004 	mov	r0, r4
   13128:	eb00127f 	bl	17b2c <__mulsf3>
   1312c:	e59f256c 	ldr	r2, [pc, #1388]	; 136a0 <.text+0xf6a0>
   13130:	e1a01000 	mov	r1, r0
   13134:	e7970002 	ldr	r0, [r7, r2]
   13138:	eb0011f6 	bl	17918 <__addsf3>
   1313c:	e59f355c 	ldr	r3, [pc, #1372]	; 136a0 <.text+0xf6a0>
   13140:	e51b1080 	ldr	r1, [fp, #-128]
   13144:	e7890003 	str	r0, [r9, r3]
   13148:	e1a00004 	mov	r0, r4
   1314c:	eb001276 	bl	17b2c <__mulsf3>
   13150:	e1a01000 	mov	r1, r0
   13154:	e5980004 	ldr	r0, [r8, #4]
   13158:	eb0011ee 	bl	17918 <__addsf3>
   1315c:	e51b1078 	ldr	r1, [fp, #-120]
   13160:	e5810004 	str	r0, [r1, #4]
   13164:	e1a06004 	mov	r6, r4
   13168:	e51b107c 	ldr	r1, [fp, #-124]
   1316c:	e1a00006 	mov	r0, r6
   13170:	eb00126d 	bl	17b2c <__mulsf3>
   13174:	e59f2524 	ldr	r2, [pc, #1316]	; 136a0 <.text+0xf6a0>
   13178:	e1a01000 	mov	r1, r0
   1317c:	e7970002 	ldr	r0, [r7, r2]
   13180:	eb0011e3 	bl	17914 <__subsf3>
   13184:	e51b1080 	ldr	r1, [fp, #-128]
   13188:	e1a0a000 	mov	sl, r0
   1318c:	e1a00006 	mov	r0, r6
   13190:	e50ba034 	str	sl, [fp, #-52]
   13194:	eb001264 	bl	17b2c <__mulsf3>
   13198:	e1a01000 	mov	r1, r0
   1319c:	e5980004 	ldr	r0, [r8, #4]
   131a0:	eb0011db 	bl	17914 <__subsf3>
   131a4:	e51b3080 	ldr	r3, [fp, #-128]
   131a8:	e51b2070 	ldr	r2, [fp, #-112]
   131ac:	e1a08000 	mov	r8, r0
   131b0:	e2231102 	eor	r1, r3, #-2147483648	; 0x80000000
   131b4:	e51b006c 	ldr	r0, [fp, #-108]
   131b8:	e50b202c 	str	r2, [fp, #-44]
   131bc:	e50b8030 	str	r8, [fp, #-48]
   131c0:	eb001259 	bl	17b2c <__mulsf3>
   131c4:	e59f34d4 	ldr	r3, [pc, #1236]	; 136a0 <.text+0xf6a0>
   131c8:	e7997003 	ldr	r7, [r9, r3]
   131cc:	e1a05000 	mov	r5, r0
   131d0:	e1a01000 	mov	r1, r0
   131d4:	e1a00007 	mov	r0, r7
   131d8:	eb0011ce 	bl	17918 <__addsf3>
   131dc:	e51b107c 	ldr	r1, [fp, #-124]
   131e0:	e50b0040 	str	r0, [fp, #-64]
   131e4:	e51b006c 	ldr	r0, [fp, #-108]
   131e8:	eb00124f 	bl	17b2c <__mulsf3>
   131ec:	e1a04000 	mov	r4, r0
   131f0:	e51b0078 	ldr	r0, [fp, #-120]
   131f4:	e5906004 	ldr	r6, [r0, #4]
   131f8:	e1a01004 	mov	r1, r4
   131fc:	e1a00006 	mov	r0, r6
   13200:	eb0011c4 	bl	17918 <__addsf3>
   13204:	e51b2070 	ldr	r2, [fp, #-112]
   13208:	e1a01005 	mov	r1, r5
   1320c:	e50b003c 	str	r0, [fp, #-60]
   13210:	e1a00007 	mov	r0, r7
   13214:	e50b2038 	str	r2, [fp, #-56]
   13218:	eb0011bd 	bl	17914 <__subsf3>
   1321c:	e1a01004 	mov	r1, r4
   13220:	e50b004c 	str	r0, [fp, #-76]
   13224:	e1a00006 	mov	r0, r6
   13228:	eb0011b9 	bl	17914 <__subsf3>
   1322c:	e51b3070 	ldr	r3, [fp, #-112]
   13230:	e1a01005 	mov	r1, r5
   13234:	e50b0048 	str	r0, [fp, #-72]
   13238:	e1a0000a 	mov	r0, sl
   1323c:	e50b3044 	str	r3, [fp, #-68]
   13240:	eb0011b4 	bl	17918 <__addsf3>
   13244:	e1a01004 	mov	r1, r4
   13248:	e50b0058 	str	r0, [fp, #-88]
   1324c:	e1a00008 	mov	r0, r8
   13250:	eb0011b0 	bl	17918 <__addsf3>
   13254:	e51b2070 	ldr	r2, [fp, #-112]
   13258:	e1a01005 	mov	r1, r5
   1325c:	e50b0054 	str	r0, [fp, #-84]
   13260:	e1a0000a 	mov	r0, sl
   13264:	e50b2050 	str	r2, [fp, #-80]
   13268:	eb0011a9 	bl	17914 <__subsf3>
   1326c:	e1a01004 	mov	r1, r4
   13270:	e50b0064 	str	r0, [fp, #-100]
   13274:	e1a00008 	mov	r0, r8
   13278:	eb0011a5 	bl	17914 <__subsf3>
   1327c:	e51b3070 	ldr	r3, [fp, #-112]
   13280:	e50b0060 	str	r0, [fp, #-96]
   13284:	e51b0080 	ldr	r0, [fp, #-128]
   13288:	e50b305c 	str	r3, [fp, #-92]
   1328c:	eb000faa 	bl	1713c <__extendsfdf2>
   13290:	e1a05001 	mov	r5, r1
   13294:	e1a04000 	mov	r4, r0
   13298:	e51b007c 	ldr	r0, [fp, #-124]
   1329c:	eb000fa6 	bl	1713c <__extendsfdf2>
   132a0:	e1a03001 	mov	r3, r1
   132a4:	e1a02000 	mov	r2, r0
   132a8:	e1a01005 	mov	r1, r5
   132ac:	e1a00004 	mov	r0, r4
   132b0:	eb001344 	bl	17fc8 <__atan2_from_arm>
   132b4:	e1a03001 	mov	r3, r1
   132b8:	e1a02000 	mov	r2, r0
   132bc:	e28f0fef 	add	r0, pc, #956	; 0x3bc
   132c0:	e8900003 	ldmia	r0, {r0, r1}
   132c4:	eb000ec5 	bl	16de0 <__subdf3>
   132c8:	eb001153 	bl	1781c <__truncdfsf2>
   132cc:	e59f63d0 	ldr	r6, [pc, #976]	; 136a4 <.text+0xf6a4>
   132d0:	e5963000 	ldr	r3, [r6]
   132d4:	e1a04000 	mov	r4, r0
   132d8:	e3530003 	cmp	r3, #3	; 0x3
   132dc:	979ff103 	ldrls	pc, [pc, r3, lsl #2]
   132e0:	ea0000e3 	b	13674 <.text+0xf674>
   132e4:	00013488 	andeq	r3, r1, r8, lsl #9
   132e8:	000134bc 	streqh	r3, [r1], -ip
   132ec:	0001363c 	andeq	r3, r1, ip, lsr r6
   132f0:	000132f4 	streqd	r3, [r1], -r4
   132f4:	e51b0074 	ldr	r0, [fp, #-116]
   132f8:	e51b1068 	ldr	r1, [fp, #-104]
   132fc:	e59f239c 	ldr	r2, [pc, #924]	; 136a0 <.text+0xf6a0>
   13300:	e0803001 	add	r3, r0, r1
   13304:	e1a03103 	mov	r3, r3, lsl #2
   13308:	e0831002 	add	r1, r3, r2
   1330c:	e7930002 	ldr	r0, [r3, r2]
   13310:	e5911004 	ldr	r1, [r1, #4]
   13314:	e51b206c 	ldr	r2, [fp, #-108]
   13318:	ebfffaae 	bl	11dd8 <nav_circle_XY>
   1331c:	e1a00004 	mov	r0, r4
   13320:	eb000f85 	bl	1713c <__extendsfdf2>
   13324:	e28f2fd5 	add	r2, pc, #852	; 0x354
   13328:	e892000c 	ldmia	r2, {r2, r3}
   1332c:	eb001033 	bl	17400 <__divdf3>
   13330:	e28f2e35 	add	r2, pc, #848	; 0x350
   13334:	e892000c 	ldmia	r2, {r2, r3}
   13338:	eb000f92 	bl	17188 <__muldf3>
   1333c:	e28f2fd3 	add	r2, pc, #844	; 0x34c
   13340:	e892000c 	ldmia	r2, {r2, r3}
   13344:	eb000ea5 	bl	16de0 <__subdf3>
   13348:	eb001133 	bl	1781c <__truncdfsf2>
   1334c:	ea000000 	b	13354 <.text+0xf354>
   13350:	eb001170 	bl	17918 <__addsf3>
   13354:	e3a01000 	mov	r1, #0	; 0x0
   13358:	e1a05000 	mov	r5, r0
   1335c:	eb0012c0 	bl	17e64 <__lesf2>
   13360:	e3500000 	cmp	r0, #0	; 0x0
   13364:	e59f133c 	ldr	r1, [pc, #828]	; 136a8 <.text+0xf6a8>
   13368:	e1a00005 	mov	r0, r5
   1336c:	bafffff7 	blt	13350 <.text+0xf350>
   13370:	ea000001 	b	1337c <.text+0xf37c>
   13374:	eb001166 	bl	17914 <__subsf3>
   13378:	e1a05000 	mov	r5, r0
   1337c:	e59f1324 	ldr	r1, [pc, #804]	; 136a8 <.text+0xf6a8>
   13380:	e1a00005 	mov	r0, r5
   13384:	eb0012b4 	bl	17e5c <__gesf2>
   13388:	e3500000 	cmp	r0, #0	; 0x0
   1338c:	e59f1314 	ldr	r1, [pc, #788]	; 136a8 <.text+0xf6a8>
   13390:	e1a00005 	mov	r0, r5
   13394:	aafffff6 	bge	13374 <.text+0xf374>
   13398:	e59f330c 	ldr	r3, [pc, #780]	; 136ac <.text+0xf6ac>
   1339c:	e5930000 	ldr	r0, [r3]
   133a0:	eb000f65 	bl	1713c <__extendsfdf2>
   133a4:	e1a03001 	mov	r3, r1
   133a8:	e1a02000 	mov	r2, r0
   133ac:	e28f0fb9 	add	r0, pc, #740	; 0x2e4
   133b0:	e8900003 	ldmia	r0, {r0, r1}
   133b4:	eb000e89 	bl	16de0 <__subdf3>
   133b8:	e28f2d0b 	add	r2, pc, #704	; 0x2c0
   133bc:	e892000c 	ldmia	r2, {r2, r3}
   133c0:	eb00100e 	bl	17400 <__divdf3>
   133c4:	e28f2faf 	add	r2, pc, #700	; 0x2bc
   133c8:	e892000c 	ldmia	r2, {r2, r3}
   133cc:	eb000f6d 	bl	17188 <__muldf3>
   133d0:	eb001111 	bl	1781c <__truncdfsf2>
   133d4:	ea000000 	b	133dc <.text+0xf3dc>
   133d8:	eb00114e 	bl	17918 <__addsf3>
   133dc:	e3a01000 	mov	r1, #0	; 0x0
   133e0:	e1a04000 	mov	r4, r0
   133e4:	eb00129e 	bl	17e64 <__lesf2>
   133e8:	e3500000 	cmp	r0, #0	; 0x0
   133ec:	e59f12b4 	ldr	r1, [pc, #692]	; 136a8 <.text+0xf6a8>
   133f0:	e1a00004 	mov	r0, r4
   133f4:	bafffff7 	blt	133d8 <.text+0xf3d8>
   133f8:	ea000001 	b	13404 <.text+0xf404>
   133fc:	eb001144 	bl	17914 <__subsf3>
   13400:	e1a04000 	mov	r4, r0
   13404:	e59f129c 	ldr	r1, [pc, #668]	; 136a8 <.text+0xf6a8>
   13408:	e1a00004 	mov	r0, r4
   1340c:	eb001292 	bl	17e5c <__gesf2>
   13410:	e3500000 	cmp	r0, #0	; 0x0
   13414:	e59f128c 	ldr	r1, [pc, #652]	; 136a8 <.text+0xf6a8>
   13418:	e1a00004 	mov	r0, r4
   1341c:	aafffff6 	bge	133fc <.text+0xf3fc>
   13420:	e1a00005 	mov	r0, r5
   13424:	e59f1284 	ldr	r1, [pc, #644]	; 136b0 <.text+0xf6b0>
   13428:	eb00128d 	bl	17e64 <__lesf2>
   1342c:	e3500000 	cmp	r0, #0	; 0x0
   13430:	aa000005 	bge	1344c <.text+0xf44c>
   13434:	e1a00005 	mov	r0, r5
   13438:	e1a01004 	mov	r1, r4
   1343c:	eb001288 	bl	17e64 <__lesf2>
   13440:	e3500000 	cmp	r0, #0	; 0x0
   13444:	ba000005 	blt	13460 <.text+0xf460>
   13448:	ea000089 	b	13674 <.text+0xf674>
   1344c:	e1a00004 	mov	r0, r4
   13450:	e59f1258 	ldr	r1, [pc, #600]	; 136b0 <.text+0xf6b0>
   13454:	eb001280 	bl	17e5c <__gesf2>
   13458:	e3500000 	cmp	r0, #0	; 0x0
   1345c:	da000084 	ble	13674 <.text+0xf674>
   13460:	e59f124c 	ldr	r1, [pc, #588]	; 136b4 <.text+0xf6b4>
   13464:	e1a00005 	mov	r0, r5
   13468:	eb00112a 	bl	17918 <__addsf3>
   1346c:	e1a01000 	mov	r1, r0
   13470:	e1a00004 	mov	r0, r4
   13474:	eb00127a 	bl	17e64 <__lesf2>
   13478:	e3500000 	cmp	r0, #0	; 0x0
   1347c:	b3a03000 	movlt	r3, #0	; 0x0
   13480:	ba000079 	blt	1366c <.text+0xf66c>
   13484:	ea00007a 	b	13674 <.text+0xf674>
   13488:	e51b3054 	ldr	r3, [fp, #-84]
   1348c:	e51b004c 	ldr	r0, [fp, #-76]
   13490:	e51b1048 	ldr	r1, [fp, #-72]
   13494:	e51b2058 	ldr	r2, [fp, #-88]
   13498:	ebfffbf9 	bl	12484 <nav_route_xy>
   1349c:	e51b0058 	ldr	r0, [fp, #-88]
   134a0:	e51b1054 	ldr	r1, [fp, #-84]
   134a4:	e59f220c 	ldr	r2, [pc, #524]	; 136b8 <.text+0xf6b8>
   134a8:	ebfffbb1 	bl	12374 <nav_approaching_xy>
   134ac:	e31000ff 	tst	r0, #255	; 0xff
   134b0:	13a03001 	movne	r3, #1	; 0x1
   134b4:	1a00006c 	bne	1366c <.text+0xf66c>
   134b8:	ea00006d 	b	13674 <.text+0xf674>
   134bc:	e51b306c 	ldr	r3, [fp, #-108]
   134c0:	e51b0034 	ldr	r0, [fp, #-52]
   134c4:	e2232102 	eor	r2, r3, #-2147483648	; 0x80000000
   134c8:	e51b1030 	ldr	r1, [fp, #-48]
   134cc:	ebfffa41 	bl	11dd8 <nav_circle_XY>
   134d0:	e1a00004 	mov	r0, r4
   134d4:	eb000f18 	bl	1713c <__extendsfdf2>
   134d8:	e28f2e1a 	add	r2, pc, #416	; 0x1a0
   134dc:	e892000c 	ldmia	r2, {r2, r3}
   134e0:	eb000fc6 	bl	17400 <__divdf3>
   134e4:	e28f2f67 	add	r2, pc, #412	; 0x19c
   134e8:	e892000c 	ldmia	r2, {r2, r3}
   134ec:	eb000f25 	bl	17188 <__muldf3>
   134f0:	e28f2f66 	add	r2, pc, #408	; 0x198
   134f4:	e892000c 	ldmia	r2, {r2, r3}
   134f8:	eb000e39 	bl	16de4 <__adddf3>
   134fc:	eb0010c6 	bl	1781c <__truncdfsf2>
   13500:	ea000000 	b	13508 <.text+0xf508>
   13504:	eb001103 	bl	17918 <__addsf3>
   13508:	e3a01000 	mov	r1, #0	; 0x0
   1350c:	e1a05000 	mov	r5, r0
   13510:	eb001253 	bl	17e64 <__lesf2>
   13514:	e3500000 	cmp	r0, #0	; 0x0
   13518:	e59f1188 	ldr	r1, [pc, #392]	; 136a8 <.text+0xf6a8>
   1351c:	e1a00005 	mov	r0, r5
   13520:	bafffff7 	blt	13504 <.text+0xf504>
   13524:	ea000001 	b	13530 <.text+0xf530>
   13528:	eb0010f9 	bl	17914 <__subsf3>
   1352c:	e1a05000 	mov	r5, r0
   13530:	e59f1170 	ldr	r1, [pc, #368]	; 136a8 <.text+0xf6a8>
   13534:	e1a00005 	mov	r0, r5
   13538:	eb001247 	bl	17e5c <__gesf2>
   1353c:	e3500000 	cmp	r0, #0	; 0x0
   13540:	e59f1160 	ldr	r1, [pc, #352]	; 136a8 <.text+0xf6a8>
   13544:	e1a00005 	mov	r0, r5
   13548:	aafffff6 	bge	13528 <.text+0xf528>
   1354c:	e59f3158 	ldr	r3, [pc, #344]	; 136ac <.text+0xf6ac>
   13550:	e5930000 	ldr	r0, [r3]
   13554:	eb000ef8 	bl	1713c <__extendsfdf2>
   13558:	e1a03001 	mov	r3, r1
   1355c:	e1a02000 	mov	r2, r0
   13560:	e28f0e13 	add	r0, pc, #304	; 0x130
   13564:	e8900003 	ldmia	r0, {r0, r1}
   13568:	eb000e1c 	bl	16de0 <__subdf3>
   1356c:	e28f2f43 	add	r2, pc, #268	; 0x10c
   13570:	e892000c 	ldmia	r2, {r2, r3}
   13574:	eb000fa1 	bl	17400 <__divdf3>
   13578:	e28f2f42 	add	r2, pc, #264	; 0x108
   1357c:	e892000c 	ldmia	r2, {r2, r3}
   13580:	eb000f00 	bl	17188 <__muldf3>
   13584:	eb0010a4 	bl	1781c <__truncdfsf2>
   13588:	ea000000 	b	13590 <.text+0xf590>
   1358c:	eb0010e1 	bl	17918 <__addsf3>
   13590:	e3a01000 	mov	r1, #0	; 0x0
   13594:	e1a04000 	mov	r4, r0
   13598:	eb001231 	bl	17e64 <__lesf2>
   1359c:	e3500000 	cmp	r0, #0	; 0x0
   135a0:	e59f1100 	ldr	r1, [pc, #256]	; 136a8 <.text+0xf6a8>
   135a4:	e1a00004 	mov	r0, r4
   135a8:	bafffff7 	blt	1358c <.text+0xf58c>
   135ac:	ea000001 	b	135b8 <.text+0xf5b8>
   135b0:	eb0010d7 	bl	17914 <__subsf3>
   135b4:	e1a04000 	mov	r4, r0
   135b8:	e59f10e8 	ldr	r1, [pc, #232]	; 136a8 <.text+0xf6a8>
   135bc:	e1a00004 	mov	r0, r4
   135c0:	eb001225 	bl	17e5c <__gesf2>
   135c4:	e3500000 	cmp	r0, #0	; 0x0
   135c8:	e59f10d8 	ldr	r1, [pc, #216]	; 136a8 <.text+0xf6a8>
   135cc:	e1a00004 	mov	r0, r4
   135d0:	aafffff6 	bge	135b0 <.text+0xf5b0>
   135d4:	e1a00005 	mov	r0, r5
   135d8:	e59f10d0 	ldr	r1, [pc, #208]	; 136b0 <.text+0xf6b0>
   135dc:	eb001220 	bl	17e64 <__lesf2>
   135e0:	e3500000 	cmp	r0, #0	; 0x0
   135e4:	aa000005 	bge	13600 <.text+0xf600>
   135e8:	e1a00005 	mov	r0, r5
   135ec:	e1a01004 	mov	r1, r4
   135f0:	eb00121b 	bl	17e64 <__lesf2>
   135f4:	e3500000 	cmp	r0, #0	; 0x0
   135f8:	ba000005 	blt	13614 <.text+0xf614>
   135fc:	ea00001c 	b	13674 <.text+0xf674>
   13600:	e1a00004 	mov	r0, r4
   13604:	e59f10a4 	ldr	r1, [pc, #164]	; 136b0 <.text+0xf6b0>
   13608:	eb001213 	bl	17e5c <__gesf2>
   1360c:	e3500000 	cmp	r0, #0	; 0x0
   13610:	da000017 	ble	13674 <.text+0xf674>
   13614:	e59f1098 	ldr	r1, [pc, #152]	; 136b4 <.text+0xf6b4>
   13618:	e1a00005 	mov	r0, r5
   1361c:	eb0010bd 	bl	17918 <__addsf3>
   13620:	e1a01000 	mov	r1, r0
   13624:	e1a00004 	mov	r0, r4
   13628:	eb00120d 	bl	17e64 <__lesf2>
   1362c:	e3500000 	cmp	r0, #0	; 0x0
   13630:	b3a03002 	movlt	r3, #2	; 0x2
   13634:	ba00000c 	blt	1366c <.text+0xf66c>
   13638:	ea00000d 	b	13674 <.text+0xf674>
   1363c:	e51b0064 	ldr	r0, [fp, #-100]
   13640:	e51b1060 	ldr	r1, [fp, #-96]
   13644:	e51b2040 	ldr	r2, [fp, #-64]
   13648:	e51b303c 	ldr	r3, [fp, #-60]
   1364c:	ebfffb8c 	bl	12484 <nav_route_xy>
   13650:	e51b0040 	ldr	r0, [fp, #-64]
   13654:	e51b103c 	ldr	r1, [fp, #-60]
   13658:	e59f2058 	ldr	r2, [pc, #88]	; 136b8 <.text+0xf6b8>
   1365c:	ebfffb44 	bl	12374 <nav_approaching_xy>
   13660:	e31000ff 	tst	r0, #255	; 0xff
   13664:	0a000002 	beq	13674 <.text+0xf674>
   13668:	e3a03003 	mov	r3, #3	; 0x3
   1366c:	e5863000 	str	r3, [r6]
   13670:	ebfff9b8 	bl	11d58 <nav_init_stage>
   13674:	e24bd028 	sub	sp, fp, #40	; 0x28
   13678:	e89d6ff0 	ldmia	sp, {r4, r5, r6, r7, r8, r9, sl, fp, sp, lr}
   1367c:	e12fff1e 	bx	lr
   13680:	400921fb 	strmid	r2, [r9], -fp
   13684:	54442d18 	strplb	r2, [r4], #-3352
   13688:	40668000 	rsbmi	r8, r6, r0
   1368c:	00000000 	andeq	r0, r0, r0
   13690:	40240000 	eormi	r0, r4, r0
   13694:	00000000 	andeq	r0, r0, r0
   13698:	3ff921fb 	swicc	0x00f921fb
   1369c:	54442d18 	strplb	r2, [r4], #-3352
   136a0:	40000034 	andmi	r0, r0, r4, lsr r0
   136a4:	400006c0 	andmi	r0, r0, r0, asr #13
   136a8:	43b40000 	movmis	r0, #0	; 0x0
   136ac:	400010d8 	ldrmid	r1, [r0], -r8
   136b0:	43af0000 	movmi	r0, #0	; 0x0
   136b4:	41200000 	teqmi	r0, r0
   136b8:	40a00000 	adcmi	r0, r0, r0

000136bc <nav_oval_init>:
   136bc:	e59f3008 	ldr	r3, [pc, #8]	; 136cc <.text+0xf6cc>
   136c0:	e3a02001 	mov	r2, #1	; 0x1
   136c4:	e5832000 	str	r2, [r3]
   136c8:	e12fff1e 	bx	lr
   136cc:	400006c4 	andmi	r0, r0, r4, asr #13

000136d0 <nav_oval>:
   136d0:	e1a0c00d 	mov	ip, sp
   136d4:	e92ddff0 	stmdb	sp!, {r4, r5, r6, r7, r8, r9, sl, fp, ip, lr, pc}
   136d8:	e20000ff 	and	r0, r0, #255	; 0xff
   136dc:	e24cb004 	sub	fp, ip, #4	; 0x4
   136e0:	e24dd054 	sub	sp, sp, #84	; 0x54
   136e4:	e1a03080 	mov	r3, r0, lsl #1
   136e8:	e0837000 	add	r7, r3, r0
   136ec:	e50b3068 	str	r3, [fp, #-104]
   136f0:	e20110ff 	and	r1, r1, #255	; 0xff
   136f4:	e59f35b8 	ldr	r3, [pc, #1464]	; 13cb4 <.text+0xfcb4>
   136f8:	e1a07107 	mov	r7, r7, lsl #2
   136fc:	e50b1060 	str	r1, [fp, #-96]
   13700:	e087a003 	add	sl, r7, r3
   13704:	e51b3060 	ldr	r3, [fp, #-96]
   13708:	e1a01081 	mov	r1, r1, lsl #1
   1370c:	e0818003 	add	r8, r1, r3
   13710:	e59f359c 	ldr	r3, [pc, #1436]	; 13cb4 <.text+0xfcb4>
   13714:	e1a08108 	mov	r8, r8, lsl #2
   13718:	e50b106c 	str	r1, [fp, #-108]
   1371c:	e0883003 	add	r3, r8, r3
   13720:	e59a1008 	ldr	r1, [sl, #8]
   13724:	e50b3070 	str	r3, [fp, #-112]
   13728:	e59f3584 	ldr	r3, [pc, #1412]	; 13cb4 <.text+0xfcb4>
   1372c:	e50b1064 	str	r1, [fp, #-100]
   13730:	e1a09002 	mov	r9, r2
   13734:	e7981003 	ldr	r1, [r8, r3]
   13738:	e51b2070 	ldr	r2, [fp, #-112]
   1373c:	e50b005c 	str	r0, [fp, #-92]
   13740:	e7970003 	ldr	r0, [r7, r3]
   13744:	e51b3064 	ldr	r3, [fp, #-100]
   13748:	e5823008 	str	r3, [r2, #8]
   1374c:	eb001070 	bl	17914 <__subsf3>
   13750:	e51b2070 	ldr	r2, [fp, #-112]
   13754:	e1a05000 	mov	r5, r0
   13758:	e5921004 	ldr	r1, [r2, #4]
   1375c:	e59a0004 	ldr	r0, [sl, #4]
   13760:	eb00106b 	bl	17914 <__subsf3>
   13764:	e1a01005 	mov	r1, r5
   13768:	e1a06000 	mov	r6, r0
   1376c:	e1a00005 	mov	r0, r5
   13770:	eb0010ed 	bl	17b2c <__mulsf3>
   13774:	e1a01006 	mov	r1, r6
   13778:	e1a04000 	mov	r4, r0
   1377c:	e1a00006 	mov	r0, r6
   13780:	eb0010e9 	bl	17b2c <__mulsf3>
   13784:	e1a01000 	mov	r1, r0
   13788:	e1a00004 	mov	r0, r4
   1378c:	eb001061 	bl	17918 <__addsf3>
   13790:	eb000e69 	bl	1713c <__extendsfdf2>
   13794:	eb001217 	bl	17ff8 <__sqrt_from_arm>
   13798:	eb00101f 	bl	1781c <__truncdfsf2>
   1379c:	e1a04000 	mov	r4, r0
   137a0:	e1a01004 	mov	r1, r4
   137a4:	e1a00005 	mov	r0, r5
   137a8:	eb001143 	bl	17cbc <__divsf3>
   137ac:	e1a01004 	mov	r1, r4
   137b0:	e50b0074 	str	r0, [fp, #-116]
   137b4:	e1a00006 	mov	r0, r6
   137b8:	eb00113f 	bl	17cbc <__divsf3>
   137bc:	e50b0078 	str	r0, [fp, #-120]
   137c0:	e51b3078 	ldr	r3, [fp, #-120]
   137c4:	e1a00009 	mov	r0, r9
   137c8:	e2231102 	eor	r1, r3, #-2147483648	; 0x80000000
   137cc:	eb0010d6 	bl	17b2c <__mulsf3>
   137d0:	e59f14dc 	ldr	r1, [pc, #1244]	; 13cb4 <.text+0xfcb4>
   137d4:	e7974001 	ldr	r4, [r7, r1]
   137d8:	e50b007c 	str	r0, [fp, #-124]
   137dc:	e1a01000 	mov	r1, r0
   137e0:	e1a00004 	mov	r0, r4
   137e4:	eb00104b 	bl	17918 <__addsf3>
   137e8:	e51b1074 	ldr	r1, [fp, #-116]
   137ec:	e50b0034 	str	r0, [fp, #-52]
   137f0:	e1a00009 	mov	r0, r9
   137f4:	eb0010cc 	bl	17b2c <__mulsf3>
   137f8:	e59a6004 	ldr	r6, [sl, #4]
   137fc:	e1a01000 	mov	r1, r0
   13800:	e1a07000 	mov	r7, r0
   13804:	e1a00006 	mov	r0, r6
   13808:	eb001042 	bl	17918 <__addsf3>
   1380c:	e51b2064 	ldr	r2, [fp, #-100]
   13810:	e50b0030 	str	r0, [fp, #-48]
   13814:	e3a01103 	mov	r1, #-1073741824	; 0xc0000000
   13818:	e1a00009 	mov	r0, r9
   1381c:	e50b202c 	str	r2, [fp, #-44]
   13820:	eb0010c1 	bl	17b2c <__mulsf3>
   13824:	e51b1078 	ldr	r1, [fp, #-120]
   13828:	eb0010bf 	bl	17b2c <__mulsf3>
   1382c:	e1a05000 	mov	r5, r0
   13830:	e1a01005 	mov	r1, r5
   13834:	e1a00004 	mov	r0, r4
   13838:	eb001036 	bl	17918 <__addsf3>
   1383c:	e1a01009 	mov	r1, r9
   13840:	e50b0040 	str	r0, [fp, #-64]
   13844:	e1a00009 	mov	r0, r9
   13848:	eb001032 	bl	17918 <__addsf3>
   1384c:	e51b1074 	ldr	r1, [fp, #-116]
   13850:	eb0010b5 	bl	17b2c <__mulsf3>
   13854:	e1a04000 	mov	r4, r0
   13858:	e1a01004 	mov	r1, r4
   1385c:	e1a00006 	mov	r0, r6
   13860:	eb00102c 	bl	17918 <__addsf3>
   13864:	e59f3448 	ldr	r3, [pc, #1096]	; 13cb4 <.text+0xfcb4>
   13868:	e7986003 	ldr	r6, [r8, r3]
   1386c:	e51b2064 	ldr	r2, [fp, #-100]
   13870:	e1a01005 	mov	r1, r5
   13874:	e50b003c 	str	r0, [fp, #-60]
   13878:	e1a00006 	mov	r0, r6
   1387c:	e50b2038 	str	r2, [fp, #-56]
   13880:	eb001024 	bl	17918 <__addsf3>
   13884:	e51b3070 	ldr	r3, [fp, #-112]
   13888:	e5935004 	ldr	r5, [r3, #4]
   1388c:	e1a01004 	mov	r1, r4
   13890:	e50b004c 	str	r0, [fp, #-76]
   13894:	e1a00005 	mov	r0, r5
   13898:	eb00101e 	bl	17918 <__addsf3>
   1389c:	e51b2064 	ldr	r2, [fp, #-100]
   138a0:	e51b107c 	ldr	r1, [fp, #-124]
   138a4:	e50b0048 	str	r0, [fp, #-72]
   138a8:	e1a00006 	mov	r0, r6
   138ac:	e50b2044 	str	r2, [fp, #-68]
   138b0:	eb001018 	bl	17918 <__addsf3>
   138b4:	e1a01007 	mov	r1, r7
   138b8:	e50b0058 	str	r0, [fp, #-88]
   138bc:	e1a00005 	mov	r0, r5
   138c0:	eb001014 	bl	17918 <__addsf3>
   138c4:	e51b3064 	ldr	r3, [fp, #-100]
   138c8:	e50b0054 	str	r0, [fp, #-84]
   138cc:	e51b0078 	ldr	r0, [fp, #-120]
   138d0:	e50b3050 	str	r3, [fp, #-80]
   138d4:	eb000e18 	bl	1713c <__extendsfdf2>
   138d8:	e1a05001 	mov	r5, r1
   138dc:	e1a04000 	mov	r4, r0
   138e0:	e51b0074 	ldr	r0, [fp, #-116]
   138e4:	eb000e14 	bl	1713c <__extendsfdf2>
   138e8:	e1a03001 	mov	r3, r1
   138ec:	e1a02000 	mov	r2, r0
   138f0:	e1a01005 	mov	r1, r5
   138f4:	e1a00004 	mov	r0, r4
   138f8:	eb0011b2 	bl	17fc8 <__atan2_from_arm>
   138fc:	e1a03001 	mov	r3, r1
   13900:	e1a02000 	mov	r2, r0
   13904:	e28f0fdd 	add	r0, pc, #884	; 0x374
   13908:	e8900003 	ldmia	r0, {r0, r1}
   1390c:	eb000d33 	bl	16de0 <__subdf3>
   13910:	eb000fc1 	bl	1781c <__truncdfsf2>
   13914:	e1a05000 	mov	r5, r0
   13918:	eb000e07 	bl	1713c <__extendsfdf2>
   1391c:	e28f2fd7 	add	r2, pc, #860	; 0x35c
   13920:	e892000c 	ldmia	r2, {r2, r3}
   13924:	eb000d2e 	bl	16de4 <__adddf3>
   13928:	eb000fbb 	bl	1781c <__truncdfsf2>
   1392c:	e59f636c 	ldr	r6, [pc, #876]	; 13ca0 <.text+0xfca0>
   13930:	e5963000 	ldr	r3, [r6]
   13934:	e1a04000 	mov	r4, r0
   13938:	e3530003 	cmp	r3, #3	; 0x3
   1393c:	979ff103 	ldrls	pc, [pc, r3, lsl #2]
   13940:	ea0000f8 	b	13d28 <.text+0xfd28>
   13944:	00013ad0 	ldreqd	r3, [r1], -r0
   13948:	00013b04 	andeq	r3, r1, r4, lsl #22
   1394c:	00013cbc 	streqh	r3, [r1], -ip
   13950:	00013954 	andeq	r3, r1, r4, asr r9
   13954:	e2292102 	eor	r2, r9, #-2147483648	; 0x80000000
   13958:	e51b0034 	ldr	r0, [fp, #-52]
   1395c:	e51b1030 	ldr	r1, [fp, #-48]
   13960:	ebfff91c 	bl	11dd8 <nav_circle_XY>
   13964:	e1a00004 	mov	r0, r4
   13968:	eb000df3 	bl	1713c <__extendsfdf2>
   1396c:	e28f2fc3 	add	r2, pc, #780	; 0x30c
   13970:	e892000c 	ldmia	r2, {r2, r3}
   13974:	eb000ea1 	bl	17400 <__divdf3>
   13978:	e28f2fc2 	add	r2, pc, #776	; 0x308
   1397c:	e892000c 	ldmia	r2, {r2, r3}
   13980:	eb000e00 	bl	17188 <__muldf3>
   13984:	e28f2fc1 	add	r2, pc, #772	; 0x304
   13988:	e892000c 	ldmia	r2, {r2, r3}
   1398c:	eb000d13 	bl	16de0 <__subdf3>
   13990:	eb000fa1 	bl	1781c <__truncdfsf2>
   13994:	ea000000 	b	1399c <.text+0xf99c>
   13998:	eb000fde 	bl	17918 <__addsf3>
   1399c:	e3a01000 	mov	r1, #0	; 0x0
   139a0:	e1a05000 	mov	r5, r0
   139a4:	eb00112e 	bl	17e64 <__lesf2>
   139a8:	e3500000 	cmp	r0, #0	; 0x0
   139ac:	e59f12f0 	ldr	r1, [pc, #752]	; 13ca4 <.text+0xfca4>
   139b0:	e1a00005 	mov	r0, r5
   139b4:	bafffff7 	blt	13998 <.text+0xf998>
   139b8:	ea000001 	b	139c4 <.text+0xf9c4>
   139bc:	eb000fd4 	bl	17914 <__subsf3>
   139c0:	e1a05000 	mov	r5, r0
   139c4:	e59f12d8 	ldr	r1, [pc, #728]	; 13ca4 <.text+0xfca4>
   139c8:	e1a00005 	mov	r0, r5
   139cc:	eb001122 	bl	17e5c <__gesf2>
   139d0:	e3500000 	cmp	r0, #0	; 0x0
   139d4:	e59f12c8 	ldr	r1, [pc, #712]	; 13ca4 <.text+0xfca4>
   139d8:	e1a00005 	mov	r0, r5
   139dc:	aafffff6 	bge	139bc <.text+0xf9bc>
   139e0:	e59f32c0 	ldr	r3, [pc, #704]	; 13ca8 <.text+0xfca8>
   139e4:	e5930000 	ldr	r0, [r3]
   139e8:	eb000dd3 	bl	1713c <__extendsfdf2>
   139ec:	e1a03001 	mov	r3, r1
   139f0:	e1a02000 	mov	r2, r0
   139f4:	e28f0fa7 	add	r0, pc, #668	; 0x29c
   139f8:	e8900003 	ldmia	r0, {r0, r1}
   139fc:	eb000cf7 	bl	16de0 <__subdf3>
   13a00:	e28f2f9e 	add	r2, pc, #632	; 0x278
   13a04:	e892000c 	ldmia	r2, {r2, r3}
   13a08:	eb000e7c 	bl	17400 <__divdf3>
   13a0c:	e28f2f9d 	add	r2, pc, #628	; 0x274
   13a10:	e892000c 	ldmia	r2, {r2, r3}
   13a14:	eb000ddb 	bl	17188 <__muldf3>
   13a18:	eb000f7f 	bl	1781c <__truncdfsf2>
   13a1c:	ea000000 	b	13a24 <.text+0xfa24>
   13a20:	eb000fbc 	bl	17918 <__addsf3>
   13a24:	e3a01000 	mov	r1, #0	; 0x0
   13a28:	e1a04000 	mov	r4, r0
   13a2c:	eb00110c 	bl	17e64 <__lesf2>
   13a30:	e3500000 	cmp	r0, #0	; 0x0
   13a34:	e59f1268 	ldr	r1, [pc, #616]	; 13ca4 <.text+0xfca4>
   13a38:	e1a00004 	mov	r0, r4
   13a3c:	bafffff7 	blt	13a20 <.text+0xfa20>
   13a40:	ea000001 	b	13a4c <.text+0xfa4c>
   13a44:	eb000fb2 	bl	17914 <__subsf3>
   13a48:	e1a04000 	mov	r4, r0
   13a4c:	e59f1250 	ldr	r1, [pc, #592]	; 13ca4 <.text+0xfca4>
   13a50:	e1a00004 	mov	r0, r4
   13a54:	eb001100 	bl	17e5c <__gesf2>
   13a58:	e3500000 	cmp	r0, #0	; 0x0
   13a5c:	e59f1240 	ldr	r1, [pc, #576]	; 13ca4 <.text+0xfca4>
   13a60:	e1a00004 	mov	r0, r4
   13a64:	aafffff6 	bge	13a44 <.text+0xfa44>
   13a68:	e1a00005 	mov	r0, r5
   13a6c:	e59f1238 	ldr	r1, [pc, #568]	; 13cac <.text+0xfcac>
   13a70:	eb0010fb 	bl	17e64 <__lesf2>
   13a74:	e3500000 	cmp	r0, #0	; 0x0
   13a78:	aa000005 	bge	13a94 <.text+0xfa94>
   13a7c:	e1a00005 	mov	r0, r5
   13a80:	e1a01004 	mov	r1, r4
   13a84:	eb0010f6 	bl	17e64 <__lesf2>
   13a88:	e3500000 	cmp	r0, #0	; 0x0
   13a8c:	ba000005 	blt	13aa8 <.text+0xfaa8>
   13a90:	ea0000a4 	b	13d28 <.text+0xfd28>
   13a94:	e1a00004 	mov	r0, r4
   13a98:	e59f120c 	ldr	r1, [pc, #524]	; 13cac <.text+0xfcac>
   13a9c:	eb0010ee 	bl	17e5c <__gesf2>
   13aa0:	e3500000 	cmp	r0, #0	; 0x0
   13aa4:	da00009f 	ble	13d28 <.text+0xfd28>
   13aa8:	e59f1200 	ldr	r1, [pc, #512]	; 13cb0 <.text+0xfcb0>
   13aac:	e1a00005 	mov	r0, r5
   13ab0:	eb000f98 	bl	17918 <__addsf3>
   13ab4:	e1a01000 	mov	r1, r0
   13ab8:	e1a00004 	mov	r0, r4
   13abc:	eb0010e8 	bl	17e64 <__lesf2>
   13ac0:	e3500000 	cmp	r0, #0	; 0x0
   13ac4:	b3a03000 	movlt	r3, #0	; 0x0
   13ac8:	ba000094 	blt	13d20 <.text+0xfd20>
   13acc:	ea000095 	b	13d28 <.text+0xfd28>
   13ad0:	e51b3048 	ldr	r3, [fp, #-72]
   13ad4:	e51b0040 	ldr	r0, [fp, #-64]
   13ad8:	e51b103c 	ldr	r1, [fp, #-60]
   13adc:	e51b204c 	ldr	r2, [fp, #-76]
   13ae0:	ebfffa67 	bl	12484 <nav_route_xy>
   13ae4:	e51b004c 	ldr	r0, [fp, #-76]
   13ae8:	e51b1048 	ldr	r1, [fp, #-72]
   13aec:	e59f21c4 	ldr	r2, [pc, #452]	; 13cb8 <.text+0xfcb8>
   13af0:	ebfffa1f 	bl	12374 <nav_approaching_xy>
   13af4:	e31000ff 	tst	r0, #255	; 0xff
   13af8:	13a03001 	movne	r3, #1	; 0x1
   13afc:	1a000087 	bne	13d20 <.text+0xfd20>
   13b00:	ea000088 	b	13d28 <.text+0xfd28>
   13b04:	e2292102 	eor	r2, r9, #-2147483648	; 0x80000000
   13b08:	e51b0058 	ldr	r0, [fp, #-88]
   13b0c:	e51b1054 	ldr	r1, [fp, #-84]
   13b10:	ebfff8b0 	bl	11dd8 <nav_circle_XY>
   13b14:	e1a00005 	mov	r0, r5
   13b18:	eb000d87 	bl	1713c <__extendsfdf2>
   13b1c:	e28f2f57 	add	r2, pc, #348	; 0x15c
   13b20:	e892000c 	ldmia	r2, {r2, r3}
   13b24:	eb000e35 	bl	17400 <__divdf3>
   13b28:	e28f2f56 	add	r2, pc, #344	; 0x158
   13b2c:	e892000c 	ldmia	r2, {r2, r3}
   13b30:	eb000d94 	bl	17188 <__muldf3>
   13b34:	e28f2f55 	add	r2, pc, #340	; 0x154
   13b38:	e892000c 	ldmia	r2, {r2, r3}
   13b3c:	eb000ca7 	bl	16de0 <__subdf3>
   13b40:	eb000f35 	bl	1781c <__truncdfsf2>
   13b44:	ea000000 	b	13b4c <.text+0xfb4c>
   13b48:	eb000f72 	bl	17918 <__addsf3>
   13b4c:	e3a01000 	mov	r1, #0	; 0x0
   13b50:	e1a05000 	mov	r5, r0
   13b54:	eb0010c2 	bl	17e64 <__lesf2>
   13b58:	e3500000 	cmp	r0, #0	; 0x0
   13b5c:	e59f1140 	ldr	r1, [pc, #320]	; 13ca4 <.text+0xfca4>
   13b60:	e1a00005 	mov	r0, r5
   13b64:	bafffff7 	blt	13b48 <.text+0xfb48>
   13b68:	ea000001 	b	13b74 <.text+0xfb74>
   13b6c:	eb000f68 	bl	17914 <__subsf3>
   13b70:	e1a05000 	mov	r5, r0
   13b74:	e59f1128 	ldr	r1, [pc, #296]	; 13ca4 <.text+0xfca4>
   13b78:	e1a00005 	mov	r0, r5
   13b7c:	eb0010b6 	bl	17e5c <__gesf2>
   13b80:	e3500000 	cmp	r0, #0	; 0x0
   13b84:	e59f1118 	ldr	r1, [pc, #280]	; 13ca4 <.text+0xfca4>
   13b88:	e1a00005 	mov	r0, r5
   13b8c:	aafffff6 	bge	13b6c <.text+0xfb6c>
   13b90:	e59f3110 	ldr	r3, [pc, #272]	; 13ca8 <.text+0xfca8>
   13b94:	e5930000 	ldr	r0, [r3]
   13b98:	eb000d67 	bl	1713c <__extendsfdf2>
   13b9c:	e1a03001 	mov	r3, r1
   13ba0:	e1a02000 	mov	r2, r0
   13ba4:	e28f00ec 	add	r0, pc, #236	; 0xec
   13ba8:	e8900003 	ldmia	r0, {r0, r1}
   13bac:	eb000c8b 	bl	16de0 <__subdf3>
   13bb0:	e28f20c8 	add	r2, pc, #200	; 0xc8
   13bb4:	e892000c 	ldmia	r2, {r2, r3}
   13bb8:	eb000e10 	bl	17400 <__divdf3>
   13bbc:	e28f20c4 	add	r2, pc, #196	; 0xc4
   13bc0:	e892000c 	ldmia	r2, {r2, r3}
   13bc4:	eb000d6f 	bl	17188 <__muldf3>
   13bc8:	eb000f13 	bl	1781c <__truncdfsf2>
   13bcc:	ea000000 	b	13bd4 <.text+0xfbd4>
   13bd0:	eb000f50 	bl	17918 <__addsf3>
   13bd4:	e3a01000 	mov	r1, #0	; 0x0
   13bd8:	e1a04000 	mov	r4, r0
   13bdc:	eb0010a0 	bl	17e64 <__lesf2>
   13be0:	e3500000 	cmp	r0, #0	; 0x0
   13be4:	e59f10b8 	ldr	r1, [pc, #184]	; 13ca4 <.text+0xfca4>
   13be8:	e1a00004 	mov	r0, r4
   13bec:	bafffff7 	blt	13bd0 <.text+0xfbd0>
   13bf0:	ea000001 	b	13bfc <.text+0xfbfc>
   13bf4:	eb000f46 	bl	17914 <__subsf3>
   13bf8:	e1a04000 	mov	r4, r0
   13bfc:	e59f10a0 	ldr	r1, [pc, #160]	; 13ca4 <.text+0xfca4>
   13c00:	e1a00004 	mov	r0, r4
   13c04:	eb001094 	bl	17e5c <__gesf2>
   13c08:	e3500000 	cmp	r0, #0	; 0x0
   13c0c:	e59f1090 	ldr	r1, [pc, #144]	; 13ca4 <.text+0xfca4>
   13c10:	e1a00004 	mov	r0, r4
   13c14:	aafffff6 	bge	13bf4 <.text+0xfbf4>
   13c18:	e1a00005 	mov	r0, r5
   13c1c:	e59f1088 	ldr	r1, [pc, #136]	; 13cac <.text+0xfcac>
   13c20:	eb00108f 	bl	17e64 <__lesf2>
   13c24:	e3500000 	cmp	r0, #0	; 0x0
   13c28:	aa000005 	bge	13c44 <.text+0xfc44>
   13c2c:	e1a00005 	mov	r0, r5
   13c30:	e1a01004 	mov	r1, r4
   13c34:	eb00108a 	bl	17e64 <__lesf2>
   13c38:	e3500000 	cmp	r0, #0	; 0x0
   13c3c:	ba000005 	blt	13c58 <.text+0xfc58>
   13c40:	ea000038 	b	13d28 <.text+0xfd28>
   13c44:	e1a00004 	mov	r0, r4
   13c48:	e59f105c 	ldr	r1, [pc, #92]	; 13cac <.text+0xfcac>
   13c4c:	eb001082 	bl	17e5c <__gesf2>
   13c50:	e3500000 	cmp	r0, #0	; 0x0
   13c54:	da000033 	ble	13d28 <.text+0xfd28>
   13c58:	e59f1050 	ldr	r1, [pc, #80]	; 13cb0 <.text+0xfcb0>
   13c5c:	e1a00005 	mov	r0, r5
   13c60:	eb000f2c 	bl	17918 <__addsf3>
   13c64:	e1a01000 	mov	r1, r0
   13c68:	e1a00004 	mov	r0, r4
   13c6c:	eb00107c 	bl	17e64 <__lesf2>
   13c70:	e3500000 	cmp	r0, #0	; 0x0
   13c74:	b3a03002 	movlt	r3, #2	; 0x2
   13c78:	ba000028 	blt	13d20 <.text+0xfd20>
   13c7c:	ea000029 	b	13d28 <.text+0xfd28>
   13c80:	400921fb 	strmid	r2, [r9], -fp
   13c84:	54442d18 	strplb	r2, [r4], #-3352
   13c88:	40668000 	rsbmi	r8, r6, r0
   13c8c:	00000000 	andeq	r0, r0, r0
   13c90:	40240000 	eormi	r0, r4, r0
   13c94:	00000000 	andeq	r0, r0, r0
   13c98:	3ff921fb 	swicc	0x00f921fb
   13c9c:	54442d18 	strplb	r2, [r4], #-3352
   13ca0:	400006c4 	andmi	r0, r0, r4, asr #13
   13ca4:	43b40000 	movmis	r0, #0	; 0x0
   13ca8:	400010d8 	ldrmid	r1, [r0], -r8
   13cac:	43af0000 	movmi	r0, #0	; 0x0
   13cb0:	41200000 	teqmi	r0, r0
   13cb4:	40000034 	andmi	r0, r0, r4, lsr r0
   13cb8:	40a00000 	adcmi	r0, r0, r0
   13cbc:	e51b106c 	ldr	r1, [fp, #-108]
   13cc0:	e51b2060 	ldr	r2, [fp, #-96]
   13cc4:	e0813002 	add	r3, r1, r2
   13cc8:	e51b1068 	ldr	r1, [fp, #-104]
   13ccc:	e51b205c 	ldr	r2, [fp, #-92]
   13cd0:	e0814002 	add	r4, r1, r2
   13cd4:	e51f1028 	ldr	r1, [pc, #-40]	; 13cb4 <.text+0xfcb4>
   13cd8:	e1a03103 	mov	r3, r3, lsl #2
   13cdc:	e7930001 	ldr	r0, [r3, r1]
   13ce0:	e1a04104 	mov	r4, r4, lsl #2
   13ce4:	e0832001 	add	r2, r3, r1
   13ce8:	e51f303c 	ldr	r3, [pc, #-60]	; 13cb4 <.text+0xfcb4>
   13cec:	e0845001 	add	r5, r4, r1
   13cf0:	e5921004 	ldr	r1, [r2, #4]
   13cf4:	e7942003 	ldr	r2, [r4, r3]
   13cf8:	e5953004 	ldr	r3, [r5, #4]
   13cfc:	ebfff9e0 	bl	12484 <nav_route_xy>
   13d00:	e51f1054 	ldr	r1, [pc, #-84]	; 13cb4 <.text+0xfcb4>
   13d04:	e51f2054 	ldr	r2, [pc, #-84]	; 13cb8 <.text+0xfcb8>
   13d08:	e7940001 	ldr	r0, [r4, r1]
   13d0c:	e5951004 	ldr	r1, [r5, #4]
   13d10:	ebfff997 	bl	12374 <nav_approaching_xy>
   13d14:	e31000ff 	tst	r0, #255	; 0xff
   13d18:	0a000002 	beq	13d28 <.text+0xfd28>
   13d1c:	e3a03003 	mov	r3, #3	; 0x3
   13d20:	e5863000 	str	r3, [r6]
   13d24:	ebfff80b 	bl	11d58 <nav_init_stage>
   13d28:	e24bd028 	sub	sp, fp, #40	; 0x28
   13d2c:	e89d6ff0 	ldmia	sp, {r4, r5, r6, r7, r8, r9, sl, fp, sp, lr}
   13d30:	e12fff1e 	bx	lr

00013d34 <h_ctl_init>:
   13d34:	e59f20d8 	ldr	r2, [pc, #216]	; 13e14 <.text+0xfe14>
   13d38:	e59f30d8 	ldr	r3, [pc, #216]	; 13e18 <.text+0xfe18>
   13d3c:	e52de004 	str	lr, [sp, #-4]!
   13d40:	e5832000 	str	r2, [r3]
   13d44:	e59f20d0 	ldr	r2, [pc, #208]	; 13e1c <.text+0xfe1c>
   13d48:	e59f30d0 	ldr	r3, [pc, #208]	; 13e20 <.text+0xfe20>
   13d4c:	e5832000 	str	r2, [r3]
   13d50:	e59f20cc 	ldr	r2, [pc, #204]	; 13e24 <.text+0xfe24>
   13d54:	e59f30cc 	ldr	r3, [pc, #204]	; 13e28 <.text+0xfe28>
   13d58:	e5832000 	str	r2, [r3]
   13d5c:	e59f20c8 	ldr	r2, [pc, #200]	; 13e2c <.text+0xfe2c>
   13d60:	e59f30c8 	ldr	r3, [pc, #200]	; 13e30 <.text+0xfe30>
   13d64:	e5832000 	str	r2, [r3]
   13d68:	e59f30c4 	ldr	r3, [pc, #196]	; 13e34 <.text+0xfe34>
   13d6c:	e3a025ff 	mov	r2, #1069547520	; 0x3fc00000
   13d70:	e5832000 	str	r2, [r3]
   13d74:	e59f30bc 	ldr	r3, [pc, #188]	; 13e38 <.text+0xfe38>
   13d78:	e3a00000 	mov	r0, #0	; 0x0
   13d7c:	e59f20b8 	ldr	r2, [pc, #184]	; 13e3c <.text+0xfe3c>
   13d80:	e1c300b0 	strh	r0, [r3]
   13d84:	e59f30b4 	ldr	r3, [pc, #180]	; 13e40 <.text+0xfe40>
   13d88:	e5832000 	str	r2, [r3]
   13d8c:	e59f30b0 	ldr	r3, [pc, #176]	; 13e44 <.text+0xfe44>
   13d90:	e3a0c5fe 	mov	ip, #1065353216	; 0x3f800000
   13d94:	e583c000 	str	ip, [r3]
   13d98:	e59f20a8 	ldr	r2, [pc, #168]	; 13e48 <.text+0xfe48>
   13d9c:	e59f30a8 	ldr	r3, [pc, #168]	; 13e4c <.text+0xfe4c>
   13da0:	e59fe0a8 	ldr	lr, [pc, #168]	; 13e50 <.text+0xfe50>
   13da4:	e5832000 	str	r2, [r3]
   13da8:	e59f30a4 	ldr	r3, [pc, #164]	; 13e54 <.text+0xfe54>
   13dac:	e583e000 	str	lr, [r3]
   13db0:	e59f30a0 	ldr	r3, [pc, #160]	; 13e58 <.text+0xfe58>
   13db4:	e3a01000 	mov	r1, #0	; 0x0
   13db8:	e5831000 	str	r1, [r3]
   13dbc:	e59f3098 	ldr	r3, [pc, #152]	; 13e5c <.text+0xfe5c>
   13dc0:	e5831000 	str	r1, [r3]
   13dc4:	e59f3094 	ldr	r3, [pc, #148]	; 13e60 <.text+0xfe60>
   13dc8:	e5831000 	str	r1, [r3]
   13dcc:	e59f3090 	ldr	r3, [pc, #144]	; 13e64 <.text+0xfe64>
   13dd0:	e583c000 	str	ip, [r3]
   13dd4:	e59f308c 	ldr	r3, [pc, #140]	; 13e68 <.text+0xfe68>
   13dd8:	e5c30000 	strb	r0, [r3]
   13ddc:	e59f3088 	ldr	r3, [pc, #136]	; 13e6c <.text+0xfe6c>
   13de0:	e5831000 	str	r1, [r3]
   13de4:	e59f3084 	ldr	r3, [pc, #132]	; 13e70 <.text+0xfe70>
   13de8:	e1c300b0 	strh	r0, [r3]
   13dec:	e59f3080 	ldr	r3, [pc, #128]	; 13e74 <.text+0xfe74>
   13df0:	e5831000 	str	r1, [r3]
   13df4:	e59f307c 	ldr	r3, [pc, #124]	; 13e78 <.text+0xfe78>
   13df8:	e5831000 	str	r1, [r3]
   13dfc:	e59f3078 	ldr	r3, [pc, #120]	; 13e7c <.text+0xfe7c>
   13e00:	e583e000 	str	lr, [r3]
   13e04:	e59f3074 	ldr	r3, [pc, #116]	; 13e80 <.text+0xfe80>
   13e08:	e5831000 	str	r1, [r3]
   13e0c:	e49de004 	ldr	lr, [sp], #4
   13e10:	e12fff1e 	bx	lr
   13e14:	bf4ccccd 	swilt	0x004ccccd
   13e18:	40001118 	andmi	r1, r0, r8, lsl r1
   13e1c:	3f19999a 	swicc	0x0019999a
   13e20:	400010f0 	strmid	r1, [r0], -r0
   13e24:	459c4000 	ldrmi	r4, [ip]
   13e28:	40001130 	andmi	r1, r0, r0, lsr r1
   13e2c:	c60ca000 	strgt	sl, [ip], -r0
   13e30:	4000111c 	andmi	r1, r0, ip, lsl r1
   13e34:	40001124 	andmi	r1, r0, r4, lsr #2
   13e38:	400010f8 	strmid	r1, [r0], -r8
   13e3c:	449c4000 	ldrmi	r4, [ip]
   13e40:	40001138 	andmi	r1, r0, r8, lsr r1
   13e44:	40001114 	andmi	r1, r0, r4, lsl r1
   13e48:	c0a00000 	adcgt	r0, r0, r0
   13e4c:	40001100 	andmi	r1, r0, r0, lsl #2
   13e50:	447a0000 	ldrmibt	r0, [sl]
   13e54:	40001128 	andmi	r1, r0, r8, lsr #2
   13e58:	400010e8 	andmi	r1, r0, r8, ror #1
   13e5c:	400010e4 	andmi	r1, r0, r4, ror #1
   13e60:	40001120 	andmi	r1, r0, r0, lsr #2
   13e64:	400010f4 	strmid	r1, [r0], -r4
   13e68:	4000112c 	andmi	r1, r0, ip, lsr #2
   13e6c:	40001134 	andmi	r1, r0, r4, lsr r1
   13e70:	4000110c 	andmi	r1, r0, ip, lsl #2
   13e74:	40001108 	andmi	r1, r0, r8, lsl #2
   13e78:	40001110 	andmi	r1, r0, r0, lsl r1
   13e7c:	40001104 	andmi	r1, r0, r4, lsl #2
   13e80:	400010fc 	strmid	r1, [r0], -ip

00013e84 <h_ctl_course_loop>:
   13e84:	e1a0c00d 	mov	ip, sp
   13e88:	e92dd870 	stmdb	sp!, {r4, r5, r6, fp, ip, lr, pc}
   13e8c:	e59f3200 	ldr	r3, [pc, #512]	; 14094 <.text+0x10094>
   13e90:	e5930000 	ldr	r0, [r3]
   13e94:	e59f31fc 	ldr	r3, [pc, #508]	; 14098 <.text+0x10098>
   13e98:	e24cb004 	sub	fp, ip, #4	; 0x4
   13e9c:	e5931000 	ldr	r1, [r3]
   13ea0:	eb000e9b 	bl	17914 <__subsf3>
   13ea4:	ea000001 	b	13eb0 <h_ctl_course_loop+0x2c>
   13ea8:	eb000bcc 	bl	16de0 <__subdf3>
   13eac:	eb000e5a 	bl	1781c <__truncdfsf2>
   13eb0:	e1a06000 	mov	r6, r0
   13eb4:	eb000ca0 	bl	1713c <__extendsfdf2>
   13eb8:	e28f2f6b 	add	r2, pc, #428	; 0x1ac
   13ebc:	e892000c 	ldmia	r2, {r2, r3}
   13ec0:	e1a05001 	mov	r5, r1
   13ec4:	e1a04000 	mov	r4, r0
   13ec8:	eb000de9 	bl	17674 <__gedf2>
   13ecc:	e3500000 	cmp	r0, #0	; 0x0
   13ed0:	e28f2f67 	add	r2, pc, #412	; 0x19c
   13ed4:	e892000c 	ldmia	r2, {r2, r3}
   13ed8:	e1a01005 	mov	r1, r5
   13edc:	e1a00004 	mov	r0, r4
   13ee0:	cafffff0 	bgt	13ea8 <h_ctl_course_loop+0x24>
   13ee4:	ea000002 	b	13ef4 <h_ctl_course_loop+0x70>
   13ee8:	eb000bbd 	bl	16de4 <__adddf3>
   13eec:	eb000e4a 	bl	1781c <__truncdfsf2>
   13ef0:	e1a06000 	mov	r6, r0
   13ef4:	e1a00006 	mov	r0, r6
   13ef8:	eb000c8f 	bl	1713c <__extendsfdf2>
   13efc:	e28f2f5e 	add	r2, pc, #376	; 0x178
   13f00:	e892000c 	ldmia	r2, {r2, r3}
   13f04:	e1a05001 	mov	r5, r1
   13f08:	e1a04000 	mov	r4, r0
   13f0c:	eb000dda 	bl	1767c <__ledf2>
   13f10:	e3500000 	cmp	r0, #0	; 0x0
   13f14:	e28f2f56 	add	r2, pc, #344	; 0x158
   13f18:	e892000c 	ldmia	r2, {r2, r3}
   13f1c:	e1a01005 	mov	r1, r5
   13f20:	e1a00004 	mov	r0, r4
   13f24:	baffffef 	blt	13ee8 <h_ctl_course_loop+0x64>
   13f28:	e59f316c 	ldr	r3, [pc, #364]	; 1409c <.text+0x1009c>
   13f2c:	e59f116c 	ldr	r1, [pc, #364]	; 140a0 <.text+0x100a0>
   13f30:	e5930000 	ldr	r0, [r3]
   13f34:	eb000f60 	bl	17cbc <__divsf3>
   13f38:	e3a015ff 	mov	r1, #1069547520	; 0x3fc00000
   13f3c:	e1a04000 	mov	r4, r0
   13f40:	eb000fc5 	bl	17e5c <__gesf2>
   13f44:	e3500000 	cmp	r0, #0	; 0x0
   13f48:	c3a045ff 	movgt	r4, #1069547520	; 0x3fc00000
   13f4c:	ca000007 	bgt	13f70 <h_ctl_course_loop+0xec>
   13f50:	e1a00004 	mov	r0, r4
   13f54:	eb000c78 	bl	1713c <__extendsfdf2>
   13f58:	e28f2f49 	add	r2, pc, #292	; 0x124
   13f5c:	e892000c 	ldmia	r2, {r2, r3}
   13f60:	eb000dc5 	bl	1767c <__ledf2>
   13f64:	e59f3138 	ldr	r3, [pc, #312]	; 140a4 <.text+0x100a4>
   13f68:	e3500000 	cmp	r0, #0	; 0x0
   13f6c:	b1a04003 	movlt	r4, r3
   13f70:	e59f3130 	ldr	r3, [pc, #304]	; 140a8 <.text+0x100a8>
   13f74:	e1a01006 	mov	r1, r6
   13f78:	e5930000 	ldr	r0, [r3]
   13f7c:	eb000eea 	bl	17b2c <__mulsf3>
   13f80:	e1a01004 	mov	r1, r4
   13f84:	eb000ee8 	bl	17b2c <__mulsf3>
   13f88:	e59f311c 	ldr	r3, [pc, #284]	; 140ac <.text+0x100ac>
   13f8c:	e5d33000 	ldrb	r3, [r3]
   13f90:	e3530001 	cmp	r3, #1	; 0x1
   13f94:	e1a05000 	mov	r5, r0
   13f98:	1a000019 	bne	14004 <h_ctl_course_loop+0x180>
   13f9c:	e59f310c 	ldr	r3, [pc, #268]	; 140b0 <.text+0x100b0>
   13fa0:	e5930000 	ldr	r0, [r3]
   13fa4:	e59f3108 	ldr	r3, [pc, #264]	; 140b4 <.text+0x100b4>
   13fa8:	e5931000 	ldr	r1, [r3]
   13fac:	eb000e58 	bl	17914 <__subsf3>
   13fb0:	e1a04000 	mov	r4, r0
   13fb4:	e1a00005 	mov	r0, r5
   13fb8:	eb000c5f 	bl	1713c <__extendsfdf2>
   13fbc:	e1a06001 	mov	r6, r1
   13fc0:	e1a05000 	mov	r5, r0
   13fc4:	e1a00004 	mov	r0, r4
   13fc8:	e3a01000 	mov	r1, #0	; 0x0
   13fcc:	eb000fa4 	bl	17e64 <__lesf2>
   13fd0:	e3500000 	cmp	r0, #0	; 0x0
   13fd4:	aa000006 	bge	13ff4 <h_ctl_course_loop+0x170>
   13fd8:	e1a01006 	mov	r1, r6
   13fdc:	e1a00005 	mov	r0, r5
   13fe0:	e28f20a4 	add	r2, pc, #164	; 0xa4
   13fe4:	e892000c 	ldmia	r2, {r2, r3}
   13fe8:	eb000c66 	bl	17188 <__muldf3>
   13fec:	e1a06001 	mov	r6, r1
   13ff0:	e1a05000 	mov	r5, r0
   13ff4:	e1a01006 	mov	r1, r6
   13ff8:	e1a00005 	mov	r0, r5
   13ffc:	eb000e06 	bl	1781c <__truncdfsf2>
   14000:	e1a05000 	mov	r5, r0
   14004:	e59f30ac 	ldr	r3, [pc, #172]	; 140b8 <.text+0x100b8>
   14008:	e5930000 	ldr	r0, [r3]
   1400c:	e59f30a8 	ldr	r3, [pc, #168]	; 140bc <.text+0x100bc>
   14010:	e5931000 	ldr	r1, [r3]
   14014:	eb000ec4 	bl	17b2c <__mulsf3>
   14018:	e1a01000 	mov	r1, r0
   1401c:	e1a00005 	mov	r0, r5
   14020:	eb000e3c 	bl	17918 <__addsf3>
   14024:	e59f3094 	ldr	r3, [pc, #148]	; 140c0 <.text+0x100c0>
   14028:	e59f6094 	ldr	r6, [pc, #148]	; 140c4 <.text+0x100c4>
   1402c:	e5934000 	ldr	r4, [r3]
   14030:	e1a05000 	mov	r5, r0
   14034:	e1a01004 	mov	r1, r4
   14038:	e5865000 	str	r5, [r6]
   1403c:	eb000f86 	bl	17e5c <__gesf2>
   14040:	e3500000 	cmp	r0, #0	; 0x0
   14044:	ca000005 	bgt	14060 <h_ctl_course_loop+0x1dc>
   14048:	e2244102 	eor	r4, r4, #-2147483648	; 0x80000000
   1404c:	e1a00005 	mov	r0, r5
   14050:	e1a01004 	mov	r1, r4
   14054:	eb000f82 	bl	17e64 <__lesf2>
   14058:	e3500000 	cmp	r0, #0	; 0x0
   1405c:	aa000000 	bge	14064 <h_ctl_course_loop+0x1e0>
   14060:	e5864000 	str	r4, [r6]
   14064:	e89d6870 	ldmia	sp, {r4, r5, r6, fp, sp, lr}
   14068:	e12fff1e 	bx	lr
   1406c:	400921fb 	strmid	r2, [r9], -fp
   14070:	54442d18 	strplb	r2, [r4], #-3352
   14074:	401921fb 	ldrmish	r2, [r9], -fp
   14078:	54442d18 	strplb	r2, [r4], #-3352
   1407c:	c00921fb 	strgtd	r2, [r9], -fp
   14080:	54442d18 	strplb	r2, [r4], #-3352
   14084:	3fe51eb8 	swicc	0x00e51eb8
   14088:	51eb851f 	mvnpl	r8, pc, lsl r5
   1408c:	3fe99999 	swicc	0x00e99999
   14090:	9999999a 	ldmlsib	r9, {r1, r3, r4, r7, r8, fp, ip, pc}
   14094:	40001068 	andmi	r1, r0, r8, rrx
   14098:	400010e4 	andmi	r1, r0, r4, ror #1
   1409c:	40001058 	andmi	r1, r0, r8, asr r0
   140a0:	41400000 	cmpmi	r0, r0
   140a4:	3f28f5c3 	swicc	0x0028f5c3
   140a8:	40001118 	andmi	r1, r0, r8, lsl r1
   140ac:	4000114c 	andmi	r1, r0, ip, asr #2
   140b0:	4000103c 	andmi	r1, r0, ip, lsr r0
   140b4:	40001154 	andmi	r1, r0, r4, asr r1
   140b8:	400010f4 	strmid	r1, [r0], -r4
   140bc:	40001120 	andmi	r1, r0, r0, lsr #2
   140c0:	400010f0 	strmid	r1, [r0], -r0
   140c4:	40001134 	andmi	r1, r0, r4, lsr r1

000140c8 <h_ctl_attitude_loop>:
   140c8:	e1a0c00d 	mov	ip, sp
   140cc:	e92ddff0 	stmdb	sp!, {r4, r5, r6, r7, r8, r9, sl, fp, ip, lr, pc}
   140d0:	e59f36d8 	ldr	r3, [pc, #1752]	; 147b0 <.text+0x107b0>
   140d4:	e24cb004 	sub	fp, ip, #4	; 0x4
   140d8:	e24dd004 	sub	sp, sp, #4	; 0x4
   140dc:	e5d33000 	ldrb	r3, [r3]
   140e0:	e3530000 	cmp	r3, #0	; 0x0
   140e4:	1a0001a8 	bne	1478c <h_ctl_attitude_loop+0x6c4>
   140e8:	e59f26c4 	ldr	r2, [pc, #1732]	; 147b4 <.text+0x107b4>
   140ec:	e59f36c4 	ldr	r3, [pc, #1732]	; 147b8 <.text+0x107b8>
   140f0:	e5920000 	ldr	r0, [r2]
   140f4:	e5931000 	ldr	r1, [r3]
   140f8:	eb000e05 	bl	17914 <__subsf3>
   140fc:	e59f36b8 	ldr	r3, [pc, #1720]	; 147bc <.text+0x107bc>
   14100:	e1a06000 	mov	r6, r0
   14104:	e1d300f0 	ldrsh	r0, [r3]
   14108:	eb000e74 	bl	17ae0 <__floatsisf>
   1410c:	e59f16ac 	ldr	r1, [pc, #1708]	; 147c0 <.text+0x107c0>
   14110:	eb000ee9 	bl	17cbc <__divsf3>
   14114:	e59f26a8 	ldr	r2, [pc, #1704]	; 147c4 <.text+0x107c4>
   14118:	e5921000 	ldr	r1, [r2]
   1411c:	e1a04000 	mov	r4, r0
   14120:	eb000e81 	bl	17b2c <__mulsf3>
   14124:	e1a01004 	mov	r1, r4
   14128:	e1a05000 	mov	r5, r0
   1412c:	e3a005fe 	mov	r0, #1065353216	; 0x3f800000
   14130:	eb000df7 	bl	17914 <__subsf3>
   14134:	e59f368c 	ldr	r3, [pc, #1676]	; 147c8 <.text+0x107c8>
   14138:	e5931000 	ldr	r1, [r3]
   1413c:	eb000e7a 	bl	17b2c <__mulsf3>
   14140:	e1a01000 	mov	r1, r0
   14144:	e1a00005 	mov	r0, r5
   14148:	eb000df2 	bl	17918 <__addsf3>
   1414c:	e1a01006 	mov	r1, r6
   14150:	eb000e75 	bl	17b2c <__mulsf3>
   14154:	e59f1670 	ldr	r1, [pc, #1648]	; 147cc <.text+0x107cc>
   14158:	e1a04000 	mov	r4, r0
   1415c:	eb000f40 	bl	17e64 <__lesf2>
   14160:	e3500000 	cmp	r0, #0	; 0x0
   14164:	b59f3664 	ldrlt	r3, [pc, #1636]	; 147d0 <.text+0x107d0>
   14168:	b1a00003 	movlt	r0, r3
   1416c:	ba000006 	blt	1418c <h_ctl_attitude_loop+0xc4>
   14170:	e1a00004 	mov	r0, r4
   14174:	e59f1644 	ldr	r1, [pc, #1604]	; 147c0 <.text+0x107c0>
   14178:	eb000f37 	bl	17e5c <__gesf2>
   1417c:	e3500000 	cmp	r0, #0	; 0x0
   14180:	c3a00d96 	movgt	r0, #9600	; 0x2580
   14184:	d1a00004 	movle	r0, r4
   14188:	db000f5a 	blle	17ef8 <__fixsfsi>
   1418c:	e59f3640 	ldr	r3, [pc, #1600]	; 147d4 <.text+0x107d4>
   14190:	e5d33000 	ldrb	r3, [r3]
   14194:	e59f263c 	ldr	r2, [pc, #1596]	; 147d8 <.text+0x107d8>
   14198:	e3530000 	cmp	r3, #0	; 0x0
   1419c:	e1c200b0 	strh	r0, [r2]
   141a0:	e59f5634 	ldr	r5, [pc, #1588]	; 147dc <.text+0x107dc>
   141a4:	e59f0634 	ldr	r0, [pc, #1588]	; 147e0 <.text+0x107e0>
   141a8:	e59fa634 	ldr	sl, [pc, #1588]	; 147e4 <.text+0x107e4>
   141ac:	e59f8634 	ldr	r8, [pc, #1588]	; 147e8 <.text+0x107e8>
   141b0:	0a000059 	beq	1431c <h_ctl_attitude_loop+0x254>
   141b4:	e1a01006 	mov	r1, r6
   141b8:	e5900000 	ldr	r0, [r0]
   141bc:	eb000e5a 	bl	17b2c <__mulsf3>
   141c0:	e59f3624 	ldr	r3, [pc, #1572]	; 147ec <.text+0x107ec>
   141c4:	e1a02000 	mov	r2, r0
   141c8:	e5852000 	str	r2, [r5]
   141cc:	e1a01000 	mov	r1, r0
   141d0:	e5930000 	ldr	r0, [r3]
   141d4:	eb000dce 	bl	17914 <__subsf3>
   141d8:	e5d84000 	ldrb	r4, [r8]
   141dc:	e59f660c 	ldr	r6, [pc, #1548]	; 147f0 <.text+0x107f0>
   141e0:	e20450ff 	and	r5, r4, #255	; 0xff
   141e4:	e1a07000 	mov	r7, r0
   141e8:	e79a1105 	ldr	r1, [sl, r5, lsl #2]
   141ec:	e5960000 	ldr	r0, [r6]
   141f0:	eb000dc7 	bl	17914 <__subsf3>
   141f4:	e78a7105 	str	r7, [sl, r5, lsl #2]
   141f8:	e1a01007 	mov	r1, r7
   141fc:	eb000dc5 	bl	17918 <__addsf3>
   14200:	e2844001 	add	r4, r4, #1	; 0x1
   14204:	e5c84000 	strb	r4, [r8]
   14208:	e5d83000 	ldrb	r3, [r8]
   1420c:	e59f45e0 	ldr	r4, [pc, #1504]	; 147f4 <.text+0x107f4>
   14210:	e353003f 	cmp	r3, #63	; 0x3f
   14214:	83a03000 	movhi	r3, #0	; 0x0
   14218:	85c83000 	strhib	r3, [r8]
   1421c:	e5941000 	ldr	r1, [r4]
   14220:	e5860000 	str	r0, [r6]
   14224:	e1a0a000 	mov	sl, r0
   14228:	e1a00007 	mov	r0, r7
   1422c:	eb000db8 	bl	17914 <__subsf3>
   14230:	e59f3584 	ldr	r3, [pc, #1412]	; 147bc <.text+0x107bc>
   14234:	e1a06000 	mov	r6, r0
   14238:	e5847000 	str	r7, [r4]
   1423c:	e1d300f0 	ldrsh	r0, [r3]
   14240:	eb000e26 	bl	17ae0 <__floatsisf>
   14244:	e59f1574 	ldr	r1, [pc, #1396]	; 147c0 <.text+0x107c0>
   14248:	eb000e9b 	bl	17cbc <__divsf3>
   1424c:	e59f2570 	ldr	r2, [pc, #1392]	; 147c4 <.text+0x107c4>
   14250:	e5921000 	ldr	r1, [r2]
   14254:	e1a04000 	mov	r4, r0
   14258:	eb000e33 	bl	17b2c <__mulsf3>
   1425c:	e1a01004 	mov	r1, r4
   14260:	e1a05000 	mov	r5, r0
   14264:	e3a005fe 	mov	r0, #1065353216	; 0x3f800000
   14268:	eb000da9 	bl	17914 <__subsf3>
   1426c:	e59f3554 	ldr	r3, [pc, #1364]	; 147c8 <.text+0x107c8>
   14270:	e5931000 	ldr	r1, [r3]
   14274:	eb000e2c 	bl	17b2c <__mulsf3>
   14278:	e1a01000 	mov	r1, r0
   1427c:	e1a00005 	mov	r0, r5
   14280:	eb000da4 	bl	17918 <__addsf3>
   14284:	e59f356c 	ldr	r3, [pc, #1388]	; 147f8 <.text+0x107f8>
   14288:	e1a05000 	mov	r5, r0
   1428c:	e1a0100a 	mov	r1, sl
   14290:	e5930000 	ldr	r0, [r3]
   14294:	eb000e24 	bl	17b2c <__mulsf3>
   14298:	e3a015f2 	mov	r1, #1015021568	; 0x3c800000
   1429c:	eb000e22 	bl	17b2c <__mulsf3>
   142a0:	e1a01000 	mov	r1, r0
   142a4:	e1a00007 	mov	r0, r7
   142a8:	eb000d9a 	bl	17918 <__addsf3>
   142ac:	e59f3548 	ldr	r3, [pc, #1352]	; 147fc <.text+0x107fc>
   142b0:	e1a04000 	mov	r4, r0
   142b4:	e1a01006 	mov	r1, r6
   142b8:	e5930000 	ldr	r0, [r3]
   142bc:	eb000e1a 	bl	17b2c <__mulsf3>
   142c0:	e1a01000 	mov	r1, r0
   142c4:	e1a00004 	mov	r0, r4
   142c8:	eb000d92 	bl	17918 <__addsf3>
   142cc:	e1a01000 	mov	r1, r0
   142d0:	e1a00005 	mov	r0, r5
   142d4:	eb000e14 	bl	17b2c <__mulsf3>
   142d8:	e59f14ec 	ldr	r1, [pc, #1260]	; 147cc <.text+0x107cc>
   142dc:	e1a04000 	mov	r4, r0
   142e0:	eb000edf 	bl	17e64 <__lesf2>
   142e4:	e3500000 	cmp	r0, #0	; 0x0
   142e8:	b59f34e0 	ldrlt	r3, [pc, #1248]	; 147d0 <.text+0x107d0>
   142ec:	b1a00003 	movlt	r0, r3
   142f0:	ba000006 	blt	14310 <h_ctl_attitude_loop+0x248>
   142f4:	e1a00004 	mov	r0, r4
   142f8:	e59f14c0 	ldr	r1, [pc, #1216]	; 147c0 <.text+0x107c0>
   142fc:	eb000ed6 	bl	17e5c <__gesf2>
   14300:	e3500000 	cmp	r0, #0	; 0x0
   14304:	c3a00d96 	movgt	r0, #9600	; 0x2580
   14308:	d1a00004 	movle	r0, r4
   1430c:	db000ef9 	blle	17ef8 <__fixsfsi>
   14310:	e59f34c0 	ldr	r3, [pc, #1216]	; 147d8 <.text+0x107d8>
   14314:	e1c300b0 	strh	r0, [r3]
   14318:	ea00007d 	b	14514 <h_ctl_attitude_loop+0x44c>
   1431c:	e1a01006 	mov	r1, r6
   14320:	e5900000 	ldr	r0, [r0]
   14324:	eb000e00 	bl	17b2c <__mulsf3>
   14328:	e1a04000 	mov	r4, r0
   1432c:	e59f14cc 	ldr	r1, [pc, #1228]	; 14800 <.text+0x10800>
   14330:	e5854000 	str	r4, [r5]
   14334:	eb000ec8 	bl	17e5c <__gesf2>
   14338:	e3500000 	cmp	r0, #0	; 0x0
   1433c:	c59f34bc 	ldrgt	r3, [pc, #1212]	; 14800 <.text+0x10800>
   14340:	ca000005 	bgt	1435c <h_ctl_attitude_loop+0x294>
   14344:	e1a00004 	mov	r0, r4
   14348:	e59f14b4 	ldr	r1, [pc, #1204]	; 14804 <.text+0x10804>
   1434c:	eb000ec4 	bl	17e64 <__lesf2>
   14350:	e3500000 	cmp	r0, #0	; 0x0
   14354:	aa000001 	bge	14360 <h_ctl_attitude_loop+0x298>
   14358:	e59f34a4 	ldr	r3, [pc, #1188]	; 14804 <.text+0x10804>
   1435c:	e5853000 	str	r3, [r5]
   14360:	e59f2470 	ldr	r2, [pc, #1136]	; 147d8 <.text+0x107d8>
   14364:	e1d200f0 	ldrsh	r0, [r2]
   14368:	eb000ddc 	bl	17ae0 <__floatsisf>
   1436c:	e59f3478 	ldr	r3, [pc, #1144]	; 147ec <.text+0x107ec>
   14370:	e5951000 	ldr	r1, [r5]
   14374:	e50b002c 	str	r0, [fp, #-44]
   14378:	e5930000 	ldr	r0, [r3]
   1437c:	eb000d64 	bl	17914 <__subsf3>
   14380:	e59f8460 	ldr	r8, [pc, #1120]	; 147e8 <.text+0x107e8>
   14384:	e5d84000 	ldrb	r4, [r8]
   14388:	e59f6454 	ldr	r6, [pc, #1108]	; 147e4 <.text+0x107e4>
   1438c:	e59f745c 	ldr	r7, [pc, #1116]	; 147f0 <.text+0x107f0>
   14390:	e20450ff 	and	r5, r4, #255	; 0xff
   14394:	e1a0a000 	mov	sl, r0
   14398:	e7961105 	ldr	r1, [r6, r5, lsl #2]
   1439c:	e5970000 	ldr	r0, [r7]
   143a0:	eb000d5b 	bl	17914 <__subsf3>
   143a4:	e786a105 	str	sl, [r6, r5, lsl #2]
   143a8:	e1a0100a 	mov	r1, sl
   143ac:	eb000d59 	bl	17918 <__addsf3>
   143b0:	e2844001 	add	r4, r4, #1	; 0x1
   143b4:	e5c84000 	strb	r4, [r8]
   143b8:	e5d83000 	ldrb	r3, [r8]
   143bc:	e59f4430 	ldr	r4, [pc, #1072]	; 147f4 <.text+0x107f4>
   143c0:	e353003f 	cmp	r3, #63	; 0x3f
   143c4:	83a03000 	movhi	r3, #0	; 0x0
   143c8:	85c83000 	strhib	r3, [r8]
   143cc:	e5941000 	ldr	r1, [r4]
   143d0:	e1a09000 	mov	r9, r0
   143d4:	e5870000 	str	r0, [r7]
   143d8:	e1a0000a 	mov	r0, sl
   143dc:	eb000d4c 	bl	17914 <__subsf3>
   143e0:	e59f33d4 	ldr	r3, [pc, #980]	; 147bc <.text+0x107bc>
   143e4:	e1a06000 	mov	r6, r0
   143e8:	e584a000 	str	sl, [r4]
   143ec:	e1d300f0 	ldrsh	r0, [r3]
   143f0:	eb000dba 	bl	17ae0 <__floatsisf>
   143f4:	e59f13c4 	ldr	r1, [pc, #964]	; 147c0 <.text+0x107c0>
   143f8:	eb000e2f 	bl	17cbc <__divsf3>
   143fc:	e59f23c0 	ldr	r2, [pc, #960]	; 147c4 <.text+0x107c4>
   14400:	e5921000 	ldr	r1, [r2]
   14404:	e1a04000 	mov	r4, r0
   14408:	eb000dc7 	bl	17b2c <__mulsf3>
   1440c:	e1a01004 	mov	r1, r4
   14410:	e1a05000 	mov	r5, r0
   14414:	e3a005fe 	mov	r0, #1065353216	; 0x3f800000
   14418:	eb000d3d 	bl	17914 <__subsf3>
   1441c:	e59f33a4 	ldr	r3, [pc, #932]	; 147c8 <.text+0x107c8>
   14420:	e5931000 	ldr	r1, [r3]
   14424:	eb000dc0 	bl	17b2c <__mulsf3>
   14428:	e1a01000 	mov	r1, r0
   1442c:	e1a00005 	mov	r0, r5
   14430:	eb000d38 	bl	17918 <__addsf3>
   14434:	e59f33bc 	ldr	r3, [pc, #956]	; 147f8 <.text+0x107f8>
   14438:	e1a05000 	mov	r5, r0
   1443c:	e1a01009 	mov	r1, r9
   14440:	e5930000 	ldr	r0, [r3]
   14444:	eb000db8 	bl	17b2c <__mulsf3>
   14448:	e3a015f2 	mov	r1, #1015021568	; 0x3c800000
   1444c:	eb000db6 	bl	17b2c <__mulsf3>
   14450:	e1a01000 	mov	r1, r0
   14454:	e1a0000a 	mov	r0, sl
   14458:	eb000d2e 	bl	17918 <__addsf3>
   1445c:	e59f3398 	ldr	r3, [pc, #920]	; 147fc <.text+0x107fc>
   14460:	e1a04000 	mov	r4, r0
   14464:	e1a01006 	mov	r1, r6
   14468:	e5930000 	ldr	r0, [r3]
   1446c:	eb000dae 	bl	17b2c <__mulsf3>
   14470:	e1a01000 	mov	r1, r0
   14474:	e1a00004 	mov	r0, r4
   14478:	eb000d26 	bl	17918 <__addsf3>
   1447c:	e1a01000 	mov	r1, r0
   14480:	e1a00005 	mov	r0, r5
   14484:	eb000da8 	bl	17b2c <__mulsf3>
   14488:	e59f133c 	ldr	r1, [pc, #828]	; 147cc <.text+0x107cc>
   1448c:	e1a04000 	mov	r4, r0
   14490:	eb000e73 	bl	17e64 <__lesf2>
   14494:	e3500000 	cmp	r0, #0	; 0x0
   14498:	b59f3330 	ldrlt	r3, [pc, #816]	; 147d0 <.text+0x107d0>
   1449c:	b1a00003 	movlt	r0, r3
   144a0:	ba000006 	blt	144c0 <h_ctl_attitude_loop+0x3f8>
   144a4:	e1a00004 	mov	r0, r4
   144a8:	e59f1310 	ldr	r1, [pc, #784]	; 147c0 <.text+0x107c0>
   144ac:	eb000e6a 	bl	17e5c <__gesf2>
   144b0:	e3500000 	cmp	r0, #0	; 0x0
   144b4:	c3a00d96 	movgt	r0, #9600	; 0x2580
   144b8:	d1a00004 	movle	r0, r4
   144bc:	db000e8d 	blle	17ef8 <__fixsfsi>
   144c0:	e59f3310 	ldr	r3, [pc, #784]	; 147d8 <.text+0x107d8>
   144c4:	e1c300b0 	strh	r0, [r3]
   144c8:	e1d300f0 	ldrsh	r0, [r3]
   144cc:	eb000d83 	bl	17ae0 <__floatsisf>
   144d0:	e59f3330 	ldr	r3, [pc, #816]	; 14808 <.text+0x10808>
   144d4:	e5934000 	ldr	r4, [r3]
   144d8:	e1a01000 	mov	r1, r0
   144dc:	e1a00004 	mov	r0, r4
   144e0:	eb000d91 	bl	17b2c <__mulsf3>
   144e4:	e1a01004 	mov	r1, r4
   144e8:	e1a05000 	mov	r5, r0
   144ec:	e3a005fe 	mov	r0, #1065353216	; 0x3f800000
   144f0:	eb000d07 	bl	17914 <__subsf3>
   144f4:	e51b102c 	ldr	r1, [fp, #-44]
   144f8:	eb000d8b 	bl	17b2c <__mulsf3>
   144fc:	e1a01000 	mov	r1, r0
   14500:	e1a00005 	mov	r0, r5
   14504:	eb000d03 	bl	17918 <__addsf3>
   14508:	eb000e7a 	bl	17ef8 <__fixsfsi>
   1450c:	e59f22c4 	ldr	r2, [pc, #708]	; 147d8 <.text+0x107d8>
   14510:	e1c200b0 	strh	r0, [r2]
   14514:	e59f32f0 	ldr	r3, [pc, #752]	; 1480c <.text+0x1080c>
   14518:	e3a01000 	mov	r1, #0	; 0x0
   1451c:	e5930000 	ldr	r0, [r3]
   14520:	eb000e4f 	bl	17e64 <__lesf2>
   14524:	e3500000 	cmp	r0, #0	; 0x0
   14528:	b59f22dc 	ldrlt	r2, [pc, #732]	; 1480c <.text+0x1080c>
   1452c:	b3a03000 	movlt	r3, #0	; 0x0
   14530:	b5823000 	strlt	r3, [r2]
   14534:	e59f32d4 	ldr	r3, [pc, #724]	; 14810 <.text+0x10810>
   14538:	e5930000 	ldr	r0, [r3]
   1453c:	e59f32d0 	ldr	r3, [pc, #720]	; 14814 <.text+0x10814>
   14540:	e5931000 	ldr	r1, [r3]
   14544:	eb000cf2 	bl	17914 <__subsf3>
   14548:	e59f52c8 	ldr	r5, [pc, #712]	; 14818 <.text+0x10818>
   1454c:	e5951000 	ldr	r1, [r5]
   14550:	e1a04000 	mov	r4, r0
   14554:	eb000cee 	bl	17914 <__subsf3>
   14558:	e59f32bc 	ldr	r3, [pc, #700]	; 1481c <.text+0x1081c>
   1455c:	e1a01000 	mov	r1, r0
   14560:	e5854000 	str	r4, [r5]
   14564:	e5930000 	ldr	r0, [r3]
   14568:	eb000d6f 	bl	17b2c <__mulsf3>
   1456c:	e1a01000 	mov	r1, r0
   14570:	e1a00004 	mov	r0, r4
   14574:	eb000ce7 	bl	17918 <__addsf3>
   14578:	e59f32a0 	ldr	r3, [pc, #672]	; 14820 <.text+0x10820>
   1457c:	e1a01000 	mov	r1, r0
   14580:	e5930000 	ldr	r0, [r3]
   14584:	eb000d68 	bl	17b2c <__mulsf3>
   14588:	eb000aeb 	bl	1713c <__extendsfdf2>
   1458c:	e59f3278 	ldr	r3, [pc, #632]	; 1480c <.text+0x1080c>
   14590:	e1a07001 	mov	r7, r1
   14594:	e1a06000 	mov	r6, r0
   14598:	e5930000 	ldr	r0, [r3]
   1459c:	eb000ae6 	bl	1713c <__extendsfdf2>
   145a0:	e59f220c 	ldr	r2, [pc, #524]	; 147b4 <.text+0x107b4>
   145a4:	e5923000 	ldr	r3, [r2]
   145a8:	e1a05001 	mov	r5, r1
   145ac:	e1a04000 	mov	r4, r0
   145b0:	e3c30102 	bic	r0, r3, #-2147483648	; 0x80000000
   145b4:	eb000ae0 	bl	1713c <__extendsfdf2>
   145b8:	e1a03001 	mov	r3, r1
   145bc:	e1a02000 	mov	r2, r0
   145c0:	e1a01005 	mov	r1, r5
   145c4:	e1a00004 	mov	r0, r4
   145c8:	eb000aee 	bl	17188 <__muldf3>
   145cc:	e1a03001 	mov	r3, r1
   145d0:	e1a02000 	mov	r2, r0
   145d4:	e1a01007 	mov	r1, r7
   145d8:	e1a00006 	mov	r0, r6
   145dc:	eb000a00 	bl	16de4 <__adddf3>
   145e0:	eb000c8d 	bl	1781c <__truncdfsf2>
   145e4:	e59f3238 	ldr	r3, [pc, #568]	; 14824 <.text+0x10824>
   145e8:	e5934000 	ldr	r4, [r3]
   145ec:	e59f3234 	ldr	r3, [pc, #564]	; 14828 <.text+0x10828>
   145f0:	e1a01004 	mov	r1, r4
   145f4:	e1a08000 	mov	r8, r0
   145f8:	e5930000 	ldr	r0, [r3]
   145fc:	eb000cc4 	bl	17914 <__subsf3>
   14600:	e3a01000 	mov	r1, #0	; 0x0
   14604:	e1a06000 	mov	r6, r0
   14608:	eb000e13 	bl	17e5c <__gesf2>
   1460c:	e3500000 	cmp	r0, #0	; 0x0
   14610:	da000015 	ble	1466c <h_ctl_attitude_loop+0x5a4>
   14614:	e1a00004 	mov	r0, r4
   14618:	eb000ac7 	bl	1713c <__extendsfdf2>
   1461c:	e1a03001 	mov	r3, r1
   14620:	e1a02000 	mov	r2, r0
   14624:	e28f0f5b 	add	r0, pc, #364	; 0x16c
   14628:	e8900003 	ldmia	r0, {r0, r1}
   1462c:	eb0009eb 	bl	16de0 <__subdf3>
   14630:	e28f2f5a 	add	r2, pc, #360	; 0x168
   14634:	e892000c 	ldmia	r2, {r2, r3}
   14638:	e1a05001 	mov	r5, r1
   1463c:	e1a04000 	mov	r4, r0
   14640:	eb000c0b 	bl	17674 <__gedf2>
   14644:	e3500000 	cmp	r0, #0	; 0x0
   14648:	d59f01dc 	ldrle	r0, [pc, #476]	; 1482c <.text+0x1082c>
   1464c:	c1a01005 	movgt	r1, r5
   14650:	c1a00004 	movgt	r0, r4
   14654:	cb000c70 	blgt	1781c <__truncdfsf2>
   14658:	e1a01000 	mov	r1, r0
   1465c:	e1a00006 	mov	r0, r6
   14660:	eb000d95 	bl	17cbc <__divsf3>
   14664:	e59f31c4 	ldr	r3, [pc, #452]	; 14830 <.text+0x10830>
   14668:	ea000013 	b	146bc <h_ctl_attitude_loop+0x5f4>
   1466c:	e1a00004 	mov	r0, r4
   14670:	eb000ab1 	bl	1713c <__extendsfdf2>
   14674:	e28f2f4b 	add	r2, pc, #300	; 0x12c
   14678:	e892000c 	ldmia	r2, {r2, r3}
   1467c:	eb0009d7 	bl	16de0 <__subdf3>
   14680:	e28f2f46 	add	r2, pc, #280	; 0x118
   14684:	e892000c 	ldmia	r2, {r2, r3}
   14688:	e1a05001 	mov	r5, r1
   1468c:	e1a04000 	mov	r4, r0
   14690:	eb000bf7 	bl	17674 <__gedf2>
   14694:	e3500000 	cmp	r0, #0	; 0x0
   14698:	d59f118c 	ldrle	r1, [pc, #396]	; 1482c <.text+0x1082c>
   1469c:	da000003 	ble	146b0 <h_ctl_attitude_loop+0x5e8>
   146a0:	e1a01005 	mov	r1, r5
   146a4:	e1a00004 	mov	r0, r4
   146a8:	eb000c5b 	bl	1781c <__truncdfsf2>
   146ac:	e1a01000 	mov	r1, r0
   146b0:	e2260102 	eor	r0, r6, #-2147483648	; 0x80000000
   146b4:	eb000d80 	bl	17cbc <__divsf3>
   146b8:	e59f3174 	ldr	r3, [pc, #372]	; 14834 <.text+0x10834>
   146bc:	e5931000 	ldr	r1, [r3]
   146c0:	eb000d19 	bl	17b2c <__mulsf3>
   146c4:	e59f3168 	ldr	r3, [pc, #360]	; 14834 <.text+0x10834>
   146c8:	e1a05000 	mov	r5, r0
   146cc:	e5930000 	ldr	r0, [r3]
   146d0:	e59f3158 	ldr	r3, [pc, #344]	; 14830 <.text+0x10830>
   146d4:	e5931000 	ldr	r1, [r3]
   146d8:	eb000c8d 	bl	17914 <__subsf3>
   146dc:	e59f1154 	ldr	r1, [pc, #340]	; 14838 <.text+0x10838>
   146e0:	eb000d75 	bl	17cbc <__divsf3>
   146e4:	e59fa150 	ldr	sl, [pc, #336]	; 1483c <.text+0x1083c>
   146e8:	e59a6000 	ldr	r6, [sl]
   146ec:	e1a01000 	mov	r1, r0
   146f0:	e1a07000 	mov	r7, r0
   146f4:	e1a00006 	mov	r0, r6
   146f8:	eb000c86 	bl	17918 <__addsf3>
   146fc:	e1a04000 	mov	r4, r0
   14700:	e1a01004 	mov	r1, r4
   14704:	e1a00005 	mov	r0, r5
   14708:	eb000dd3 	bl	17e5c <__gesf2>
   1470c:	e3500000 	cmp	r0, #0	; 0x0
   14710:	c1a05004 	movgt	r5, r4
   14714:	ca000008 	bgt	1473c <h_ctl_attitude_loop+0x674>
   14718:	e1a01007 	mov	r1, r7
   1471c:	e1a00006 	mov	r0, r6
   14720:	eb000c7b 	bl	17914 <__subsf3>
   14724:	e1a04000 	mov	r4, r0
   14728:	e1a01004 	mov	r1, r4
   1472c:	e1a00005 	mov	r0, r5
   14730:	eb000dcb 	bl	17e64 <__lesf2>
   14734:	e3500000 	cmp	r0, #0	; 0x0
   14738:	b1a05004 	movlt	r5, r4
   1473c:	e1a00008 	mov	r0, r8
   14740:	e1a01005 	mov	r1, r5
   14744:	e58a5000 	str	r5, [sl]
   14748:	eb000c72 	bl	17918 <__addsf3>
   1474c:	e59f1078 	ldr	r1, [pc, #120]	; 147cc <.text+0x107cc>
   14750:	e1a08000 	mov	r8, r0
   14754:	eb000dc2 	bl	17e64 <__lesf2>
   14758:	e3500000 	cmp	r0, #0	; 0x0
   1475c:	b59f306c 	ldrlt	r3, [pc, #108]	; 147d0 <.text+0x107d0>
   14760:	b1a00003 	movlt	r0, r3
   14764:	ba000006 	blt	14784 <h_ctl_attitude_loop+0x6bc>
   14768:	e1a00008 	mov	r0, r8
   1476c:	e59f104c 	ldr	r1, [pc, #76]	; 147c0 <.text+0x107c0>
   14770:	eb000db9 	bl	17e5c <__gesf2>
   14774:	e3500000 	cmp	r0, #0	; 0x0
   14778:	c3a00d96 	movgt	r0, #9600	; 0x2580
   1477c:	d1a00008 	movle	r0, r8
   14780:	db000ddc 	blle	17ef8 <__fixsfsi>
   14784:	e59f30b4 	ldr	r3, [pc, #180]	; 14840 <.text+0x10840>
   14788:	e1c300b0 	strh	r0, [r3]
   1478c:	e24bd028 	sub	sp, fp, #40	; 0x28
   14790:	e89d6ff0 	ldmia	sp, {r4, r5, r6, r7, r8, r9, sl, fp, sp, lr}
   14794:	e12fff1e 	bx	lr
   14798:	3fe99999 	swicc	0x00e99999
   1479c:	9999999a 	ldmlsib	r9, {r1, r3, r4, r7, r8, fp, ip, pc}
   147a0:	3fb99999 	swicc	0x00b99999
   147a4:	9999999a 	ldmlsib	r9, {r1, r3, r4, r7, r8, fp, ip, pc}
   147a8:	3fd33333 	swicc	0x00d33333
   147ac:	33333333 	teqcc	r3, #-872415232	; 0xcc000000
   147b0:	4000112c 	andmi	r1, r0, ip, lsr #2
   147b4:	4000105c 	andmi	r1, r0, ip, asr r0
   147b8:	40001134 	andmi	r1, r0, r4, lsr r1
   147bc:	40001170 	andmi	r1, r0, r0, ror r1
   147c0:	46160000 	ldrmi	r0, [r6], -r0
   147c4:	40001104 	andmi	r1, r0, r4, lsl #2
   147c8:	40001128 	andmi	r1, r0, r8, lsr #2
   147cc:	c6160000 	ldrgt	r0, [r6], -r0
   147d0:	ffffda80 	swinv	0x00ffda80
   147d4:	400010e0 	andmi	r1, r0, r0, ror #1
   147d8:	4000110c 	andmi	r1, r0, ip, lsl #2
   147dc:	400010ec 	andmi	r1, r0, ip, ror #1
   147e0:	40001100 	andmi	r1, r0, r0, lsl #2
   147e4:	400006d0 	ldrmid	r0, [r0], -r0
   147e8:	400006cc 	andmi	r0, r0, ip, asr #13
   147ec:	40001050 	andmi	r1, r0, r0, asr r0
   147f0:	400006c8 	andmi	r0, r0, r8, asr #13
   147f4:	400007d0 	ldrmid	r0, [r0], -r0
   147f8:	400010fc 	strmid	r1, [r0], -ip
   147fc:	400010e8 	andmi	r1, r0, r8, ror #1
   14800:	41200000 	teqmi	r0, r0
   14804:	c1200000 	teqgt	r0, r0
   14808:	40001114 	andmi	r1, r0, r4, lsl r1
   1480c:	40001138 	andmi	r1, r0, r8, lsr r1
   14810:	40001054 	andmi	r1, r0, r4, asr r0
   14814:	40001110 	andmi	r1, r0, r0, lsl r1
   14818:	400007d4 	ldrmid	r0, [r0], -r4
   1481c:	40001124 	andmi	r1, r0, r4, lsr #2
   14820:	4000111c 	andmi	r1, r0, ip, lsl r1
   14824:	4000113c 	andmi	r1, r0, ip, lsr r1
   14828:	4000115c 	andmi	r1, r0, ip, asr r1
   1482c:	3dcccccd 	stcccl	12, cr12, [ip, #820]
   14830:	4000008c 	andmi	r0, r0, ip, lsl #1
   14834:	40000090 	mulmi	r0, r0, r0
   14838:	42a00000 	adcmi	r0, r0, #0	; 0x0
   1483c:	400007d8 	ldrmid	r0, [r0], -r8
   14840:	400010f8 	strmid	r1, [r0], -r8

00014844 <v_ctl_init>:
   14844:	e59f20bc 	ldr	r2, [pc, #188]	; 14908 <.text+0x10908>
   14848:	e59f30bc 	ldr	r3, [pc, #188]	; 1490c <.text+0x1090c>
   1484c:	e59fc0bc 	ldr	ip, [pc, #188]	; 14910 <.text+0x10910>
   14850:	e5832000 	str	r2, [r3]
   14854:	e59f30b8 	ldr	r3, [pc, #184]	; 14914 <.text+0x10914>
   14858:	e59f20b8 	ldr	r2, [pc, #184]	; 14918 <.text+0x10918>
   1485c:	e583c000 	str	ip, [r3]
   14860:	e59f30b4 	ldr	r3, [pc, #180]	; 1491c <.text+0x1091c>
   14864:	e5832000 	str	r2, [r3]
   14868:	e59f20b0 	ldr	r2, [pc, #176]	; 14920 <.text+0x10920>
   1486c:	e59f30b0 	ldr	r3, [pc, #176]	; 14924 <.text+0x10924>
   14870:	e5832000 	str	r2, [r3]
   14874:	e59f20ac 	ldr	r2, [pc, #172]	; 14928 <.text+0x10928>
   14878:	e59f30ac 	ldr	r3, [pc, #172]	; 1492c <.text+0x1092c>
   1487c:	e5832000 	str	r2, [r3]
   14880:	e59f20a8 	ldr	r2, [pc, #168]	; 14930 <.text+0x10930>
   14884:	e59f30a8 	ldr	r3, [pc, #168]	; 14934 <.text+0x10934>
   14888:	e5832000 	str	r2, [r3]
   1488c:	e59f20a4 	ldr	r2, [pc, #164]	; 14938 <.text+0x10938>
   14890:	e59f30a4 	ldr	r3, [pc, #164]	; 1493c <.text+0x1093c>
   14894:	e5832000 	str	r2, [r3]
   14898:	e59f30a0 	ldr	r3, [pc, #160]	; 14940 <.text+0x10940>
   1489c:	e59f20a0 	ldr	r2, [pc, #160]	; 14944 <.text+0x10944>
   148a0:	e5832000 	str	r2, [r3]
   148a4:	e59f309c 	ldr	r3, [pc, #156]	; 14948 <.text+0x10948>
   148a8:	e3a01000 	mov	r1, #0	; 0x0
   148ac:	e5831000 	str	r1, [r3]
   148b0:	e59f3094 	ldr	r3, [pc, #148]	; 1494c <.text+0x1094c>
   148b4:	e3a00000 	mov	r0, #0	; 0x0
   148b8:	e1c300b0 	strh	r0, [r3]
   148bc:	e59f308c 	ldr	r3, [pc, #140]	; 14950 <.text+0x10950>
   148c0:	e5c30000 	strb	r0, [r3]
   148c4:	e59f3088 	ldr	r3, [pc, #136]	; 14954 <.text+0x10954>
   148c8:	e5831000 	str	r1, [r3]
   148cc:	e59f3084 	ldr	r3, [pc, #132]	; 14958 <.text+0x10958>
   148d0:	e5831000 	str	r1, [r3]
   148d4:	e59f3080 	ldr	r3, [pc, #128]	; 1495c <.text+0x1095c>
   148d8:	e5831000 	str	r1, [r3]
   148dc:	e59f307c 	ldr	r3, [pc, #124]	; 14960 <.text+0x10960>
   148e0:	e5831000 	str	r1, [r3]
   148e4:	e59f3078 	ldr	r3, [pc, #120]	; 14964 <.text+0x10964>
   148e8:	e5c30000 	strb	r0, [r3]
   148ec:	e59f3074 	ldr	r3, [pc, #116]	; 14968 <.text+0x10968>
   148f0:	e5c30000 	strb	r0, [r3]
   148f4:	e59f3070 	ldr	r3, [pc, #112]	; 1496c <.text+0x1096c>
   148f8:	e583c000 	str	ip, [r3]
   148fc:	e59f306c 	ldr	r3, [pc, #108]	; 14970 <.text+0x10970>
   14900:	e5831000 	str	r1, [r3]
   14904:	e12fff1e 	bx	lr
   14908:	bcf5c28f 	lfmlt	f4, 3, [r5], #572
   1490c:	40001160 	andmi	r1, r0, r0, ror #2
   14910:	3eb33333 	mrccc	3, 5, r3, cr3, cr3, {1}
   14914:	4000115c 	andmi	r1, r0, ip, asr r1
   14918:	3e19999a 	mrccc	9, 0, r9, cr9, cr10, {4}
   1491c:	40001168 	andmi	r1, r0, r8, ror #2
   14920:	bc23d70a 	stclt	7, cr13, [r3], #-40
   14924:	40001184 	andmi	r1, r0, r4, lsl #3
   14928:	3dcccccd 	stcccl	12, cr12, [ip, #820]
   1492c:	4000116c 	andmi	r1, r0, ip, ror #2
   14930:	3d4ccccd 	stcccl	12, cr12, [ip, #-820]
   14934:	40001150 	andmi	r1, r0, r0, asr r1
   14938:	bd4ccccd 	stcltl	12, cr12, [ip, #-820]
   1493c:	40001164 	andmi	r1, r0, r4, ror #2
   14940:	40001178 	andmi	r1, r0, r8, ror r1
   14944:	3d99999a 	ldccc	9, cr9, [r9, #616]
   14948:	40001188 	andmi	r1, r0, r8, lsl #3
   1494c:	40001170 	andmi	r1, r0, r0, ror r1
   14950:	40001158 	andmi	r1, r0, r8, asr r1
   14954:	40001154 	andmi	r1, r0, r4, asr r1
   14958:	4000117c 	andmi	r1, r0, ip, ror r1
   1495c:	40001140 	andmi	r1, r0, r0, asr #2
   14960:	40001174 	andmi	r1, r0, r4, ror r1
   14964:	40001144 	andmi	r1, r0, r4, asr #2
   14968:	4000114c 	andmi	r1, r0, ip, asr #2
   1496c:	4000113c 	andmi	r1, r0, ip, lsr r1
   14970:	40001148 	andmi	r1, r0, r8, asr #2

00014974 <v_ctl_altitude_loop>:
   14974:	e1a0c00d 	mov	ip, sp
   14978:	e92dd870 	stmdb	sp!, {r4, r5, r6, fp, ip, lr, pc}
   1497c:	e59f30d0 	ldr	r3, [pc, #208]	; 14a54 <.text+0x10a54>
   14980:	e5930000 	ldr	r0, [r3]
   14984:	e59f30cc 	ldr	r3, [pc, #204]	; 14a58 <.text+0x10a58>
   14988:	e24cb004 	sub	fp, ip, #4	; 0x4
   1498c:	e5931000 	ldr	r1, [r3]
   14990:	eb000bdf 	bl	17914 <__subsf3>
   14994:	e59f30c0 	ldr	r3, [pc, #192]	; 14a5c <.text+0x10a5c>
   14998:	e59f60c0 	ldr	r6, [pc, #192]	; 14a60 <.text+0x10a60>
   1499c:	e1a02000 	mov	r2, r0
   149a0:	e1a01000 	mov	r1, r0
   149a4:	e5930000 	ldr	r0, [r3]
   149a8:	e5862000 	str	r2, [r6]
   149ac:	eb000c5e 	bl	17b2c <__mulsf3>
   149b0:	e59f30ac 	ldr	r3, [pc, #172]	; 14a64 <.text+0x10a64>
   149b4:	e5931000 	ldr	r1, [r3]
   149b8:	eb000bd6 	bl	17918 <__addsf3>
   149bc:	e59f50a4 	ldr	r5, [pc, #164]	; 14a68 <.text+0x10a68>
   149c0:	e1a04000 	mov	r4, r0
   149c4:	e3a01101 	mov	r1, #1073741824	; 0x40000000
   149c8:	e5854000 	str	r4, [r5]
   149cc:	eb000d22 	bl	17e5c <__gesf2>
   149d0:	e3500000 	cmp	r0, #0	; 0x0
   149d4:	c3a03101 	movgt	r3, #1073741824	; 0x40000000
   149d8:	ca000005 	bgt	149f4 <v_ctl_altitude_loop+0x80>
   149dc:	e1a00004 	mov	r0, r4
   149e0:	e3a01103 	mov	r1, #-1073741824	; 0xc0000000
   149e4:	eb000d1e 	bl	17e64 <__lesf2>
   149e8:	e3500000 	cmp	r0, #0	; 0x0
   149ec:	aa000001 	bge	149f8 <v_ctl_altitude_loop+0x84>
   149f0:	e3a03103 	mov	r3, #-1073741824	; 0xc0000000
   149f4:	e5853000 	str	r3, [r5]
   149f8:	e59f306c 	ldr	r3, [pc, #108]	; 14a6c <.text+0x10a6c>
   149fc:	e5d35000 	ldrb	r5, [r3]
   14a00:	e3550000 	cmp	r5, #0	; 0x0
   14a04:	1a000010 	bne	14a4c <v_ctl_altitude_loop+0xd8>
   14a08:	e5963000 	ldr	r3, [r6]
   14a0c:	e3c34102 	bic	r4, r3, #-2147483648	; 0x80000000
   14a10:	e1a00004 	mov	r0, r4
   14a14:	e59f1054 	ldr	r1, [pc, #84]	; 14a70 <.text+0x10a70>
   14a18:	eb000d11 	bl	17e64 <__lesf2>
   14a1c:	e3500000 	cmp	r0, #0	; 0x0
   14a20:	b59f304c 	ldrlt	r3, [pc, #76]	; 14a74 <.text+0x10a74>
   14a24:	b5c35000 	strltb	r5, [r3]
   14a28:	ba000007 	blt	14a4c <v_ctl_altitude_loop+0xd8>
   14a2c:	e1a00004 	mov	r0, r4
   14a30:	e59f1040 	ldr	r1, [pc, #64]	; 14a78 <.text+0x10a78>
   14a34:	eb000d08 	bl	17e5c <__gesf2>
   14a38:	e59f2034 	ldr	r2, [pc, #52]	; 14a74 <.text+0x10a74>
   14a3c:	e3500000 	cmp	r0, #0	; 0x0
   14a40:	c3a03001 	movgt	r3, #1	; 0x1
   14a44:	d3a03002 	movle	r3, #2	; 0x2
   14a48:	e5c23000 	strb	r3, [r2]
   14a4c:	e89d6870 	ldmia	sp, {r4, r5, r6, fp, sp, lr}
   14a50:	e12fff1e 	bx	lr
   14a54:	4000103c 	andmi	r1, r0, ip, lsr r0
   14a58:	40001154 	andmi	r1, r0, r4, asr r1
   14a5c:	40001160 	andmi	r1, r0, r0, ror #2
   14a60:	40001140 	andmi	r1, r0, r0, asr #2
   14a64:	4000117c 	andmi	r1, r0, ip, ror r1
   14a68:	40001174 	andmi	r1, r0, r4, ror r1
   14a6c:	40001144 	andmi	r1, r0, r4, asr #2
   14a70:	41200000 	teqmi	r0, r0
   14a74:	4000114c 	andmi	r1, r0, ip, asr #2
   14a78:	41a00000 	movmi	r0, r0

00014a7c <v_ctl_climb_loop>:
   14a7c:	e1a0c00d 	mov	ip, sp
   14a80:	e92ddff0 	stmdb	sp!, {r4, r5, r6, r7, r8, r9, sl, fp, ip, lr, pc}
   14a84:	e59f3488 	ldr	r3, [pc, #1160]	; 14f14 <.text+0x10f14>
   14a88:	e24cb004 	sub	fp, ip, #4	; 0x4
   14a8c:	e24dd004 	sub	sp, sp, #4	; 0x4
   14a90:	e5d33000 	ldrb	r3, [r3]
   14a94:	e3530000 	cmp	r3, #0	; 0x0
   14a98:	0a000002 	beq	14aa8 <v_ctl_climb_loop+0x2c>
   14a9c:	e3530001 	cmp	r3, #1	; 0x1
   14aa0:	0a0000ce 	beq	14de0 <v_ctl_climb_loop+0x364>
   14aa4:	ea000109 	b	14ed0 <v_ctl_climb_loop+0x454>
   14aa8:	e59f3468 	ldr	r3, [pc, #1128]	; 14f18 <.text+0x10f18>
   14aac:	e5935000 	ldr	r5, [r3]
   14ab0:	e59f3464 	ldr	r3, [pc, #1124]	; 14f1c <.text+0x10f1c>
   14ab4:	e1a01005 	mov	r1, r5
   14ab8:	e5930000 	ldr	r0, [r3]
   14abc:	eb000b94 	bl	17914 <__subsf3>
   14ac0:	e59f3458 	ldr	r3, [pc, #1112]	; 14f20 <.text+0x10f20>
   14ac4:	e1a09000 	mov	r9, r0
   14ac8:	e1a01005 	mov	r1, r5
   14acc:	e5930000 	ldr	r0, [r3]
   14ad0:	eb000c15 	bl	17b2c <__mulsf3>
   14ad4:	e59f3448 	ldr	r3, [pc, #1096]	; 14f24 <.text+0x10f24>
   14ad8:	e1a01000 	mov	r1, r0
   14adc:	e5930000 	ldr	r0, [r3]
   14ae0:	eb000b8c 	bl	17918 <__addsf3>
   14ae4:	e59f343c 	ldr	r3, [pc, #1084]	; 14f28 <.text+0x10f28>
   14ae8:	e5937000 	ldr	r7, [r3]
   14aec:	e59f3438 	ldr	r3, [pc, #1080]	; 14f2c <.text+0x10f2c>
   14af0:	e1a04000 	mov	r4, r0
   14af4:	e1a01007 	mov	r1, r7
   14af8:	e5930000 	ldr	r0, [r3]
   14afc:	eb000c0a 	bl	17b2c <__mulsf3>
   14b00:	e1a01000 	mov	r1, r0
   14b04:	e1a00009 	mov	r0, r9
   14b08:	eb000b82 	bl	17918 <__addsf3>
   14b0c:	e59f341c 	ldr	r3, [pc, #1052]	; 14f30 <.text+0x10f30>
   14b10:	e1a01000 	mov	r1, r0
   14b14:	e5930000 	ldr	r0, [r3]
   14b18:	eb000c03 	bl	17b2c <__mulsf3>
   14b1c:	e1a01000 	mov	r1, r0
   14b20:	e1a00004 	mov	r0, r4
   14b24:	eb000b7b 	bl	17918 <__addsf3>
   14b28:	e59f3404 	ldr	r3, [pc, #1028]	; 14f34 <.text+0x10f34>
   14b2c:	e1a0a000 	mov	sl, r0
   14b30:	e5931000 	ldr	r1, [r3]
   14b34:	e1a00005 	mov	r0, r5
   14b38:	eb000bfb 	bl	17b2c <__mulsf3>
   14b3c:	e59f33f4 	ldr	r3, [pc, #1012]	; 14f38 <.text+0x10f38>
   14b40:	e5d33000 	ldrb	r3, [r3]
   14b44:	e3530001 	cmp	r3, #1	; 0x1
   14b48:	e50b002c 	str	r0, [fp, #-44]
   14b4c:	e3a08000 	mov	r8, #0	; 0x0
   14b50:	0a000006 	beq	14b70 <v_ctl_climb_loop+0xf4>
   14b54:	ca000002 	bgt	14b64 <v_ctl_climb_loop+0xe8>
   14b58:	e3530000 	cmp	r3, #0	; 0x0
   14b5c:	0a000073 	beq	14d30 <v_ctl_climb_loop+0x2b4>
   14b60:	ea00008b 	b	14d94 <v_ctl_climb_loop+0x318>
   14b64:	e3530002 	cmp	r3, #2	; 0x2
   14b68:	0a00000b 	beq	14b9c <v_ctl_climb_loop+0x120>
   14b6c:	ea000088 	b	14d94 <v_ctl_climb_loop+0x318>
   14b70:	e1a01008 	mov	r1, r8
   14b74:	e1a00005 	mov	r0, r5
   14b78:	eb000cb7 	bl	17e5c <__gesf2>
   14b7c:	e3500000 	cmp	r0, #0	; 0x0
   14b80:	e59f23b4 	ldr	r2, [pc, #948]	; 14f3c <.text+0x10f3c>
   14b84:	c59f33b4 	ldrgt	r3, [pc, #948]	; 14f40 <.text+0x10f40>
   14b88:	d59f33b4 	ldrle	r3, [pc, #948]	; 14f44 <.text+0x10f44>
   14b8c:	c59f83b4 	ldrgt	r8, [pc, #948]	; 14f48 <.text+0x10f48>
   14b90:	d59f83b4 	ldrle	r8, [pc, #948]	; 14f4c <.text+0x10f4c>
   14b94:	e5823000 	str	r3, [r2]
   14b98:	ea00007d 	b	14d94 <v_ctl_climb_loop+0x318>
   14b9c:	e59f53ac 	ldr	r5, [pc, #940]	; 14f50 <.text+0x10f50>
   14ba0:	e5953000 	ldr	r3, [r5]
   14ba4:	e3c30102 	bic	r0, r3, #-2147483648	; 0x80000000
   14ba8:	eb000963 	bl	1713c <__extendsfdf2>
   14bac:	e28f2fca 	add	r2, pc, #808	; 0x328
   14bb0:	e892000c 	ldmia	r2, {r2, r3}
   14bb4:	eb000889 	bl	16de0 <__subdf3>
   14bb8:	e28f2fc7 	add	r2, pc, #796	; 0x31c
   14bbc:	e892000c 	ldmia	r2, {r2, r3}
   14bc0:	eb000a0e 	bl	17400 <__divdf3>
   14bc4:	eb000b14 	bl	1781c <__truncdfsf2>
   14bc8:	e1a01000 	mov	r1, r0
   14bcc:	e1a06000 	mov	r6, r0
   14bd0:	e3a005fe 	mov	r0, #1065353216	; 0x3f800000
   14bd4:	eb000b4e 	bl	17914 <__subsf3>
   14bd8:	e1a0100a 	mov	r1, sl
   14bdc:	e1a04000 	mov	r4, r0
   14be0:	eb000bd1 	bl	17b2c <__mulsf3>
   14be4:	e51b102c 	ldr	r1, [fp, #-44]
   14be8:	e1a08000 	mov	r8, r0
   14bec:	e1a00004 	mov	r0, r4
   14bf0:	eb000bcd 	bl	17b2c <__mulsf3>
   14bf4:	e59f3340 	ldr	r3, [pc, #832]	; 14f3c <.text+0x10f3c>
   14bf8:	e1a0a000 	mov	sl, r0
   14bfc:	e583a000 	str	sl, [r3]
   14c00:	e1a01009 	mov	r1, r9
   14c04:	e1a00004 	mov	r0, r4
   14c08:	eb000bc7 	bl	17b2c <__mulsf3>
   14c0c:	e1a01000 	mov	r1, r0
   14c10:	e1a00007 	mov	r0, r7
   14c14:	eb000b3f 	bl	17918 <__addsf3>
   14c18:	e59f3308 	ldr	r3, [pc, #776]	; 14f28 <.text+0x10f28>
   14c1c:	e3a01000 	mov	r1, #0	; 0x0
   14c20:	e5830000 	str	r0, [r3]
   14c24:	e5950000 	ldr	r0, [r5]
   14c28:	eb000c8d 	bl	17e64 <__lesf2>
   14c2c:	e3500000 	cmp	r0, #0	; 0x0
   14c30:	aa00001a 	bge	14ca0 <v_ctl_climb_loop+0x224>
   14c34:	e1a00008 	mov	r0, r8
   14c38:	eb00093f 	bl	1713c <__extendsfdf2>
   14c3c:	e1a05001 	mov	r5, r1
   14c40:	e1a04000 	mov	r4, r0
   14c44:	e1a00006 	mov	r0, r6
   14c48:	eb00093b 	bl	1713c <__extendsfdf2>
   14c4c:	e28f2e29 	add	r2, pc, #656	; 0x290
   14c50:	e892000c 	ldmia	r2, {r2, r3}
   14c54:	e1a07001 	mov	r7, r1
   14c58:	e1a06000 	mov	r6, r0
   14c5c:	eb000949 	bl	17188 <__muldf3>
   14c60:	e1a03001 	mov	r3, r1
   14c64:	e1a02000 	mov	r2, r0
   14c68:	e1a01005 	mov	r1, r5
   14c6c:	e1a00004 	mov	r0, r4
   14c70:	eb00085b 	bl	16de4 <__adddf3>
   14c74:	eb000ae8 	bl	1781c <__truncdfsf2>
   14c78:	e1a08000 	mov	r8, r0
   14c7c:	e1a0000a 	mov	r0, sl
   14c80:	eb00092d 	bl	1713c <__extendsfdf2>
   14c84:	e28f2e26 	add	r2, pc, #608	; 0x260
   14c88:	e892000c 	ldmia	r2, {r2, r3}
   14c8c:	e1a05001 	mov	r5, r1
   14c90:	e1a04000 	mov	r4, r0
   14c94:	e1a01007 	mov	r1, r7
   14c98:	e1a00006 	mov	r0, r6
   14c9c:	ea000019 	b	14d08 <v_ctl_climb_loop+0x28c>
   14ca0:	e1a00008 	mov	r0, r8
   14ca4:	eb000924 	bl	1713c <__extendsfdf2>
   14ca8:	e1a05001 	mov	r5, r1
   14cac:	e1a04000 	mov	r4, r0
   14cb0:	e1a00006 	mov	r0, r6
   14cb4:	eb000920 	bl	1713c <__extendsfdf2>
   14cb8:	e28f2f8d 	add	r2, pc, #564	; 0x234
   14cbc:	e892000c 	ldmia	r2, {r2, r3}
   14cc0:	e1a07001 	mov	r7, r1
   14cc4:	e1a06000 	mov	r6, r0
   14cc8:	eb00092e 	bl	17188 <__muldf3>
   14ccc:	e1a03001 	mov	r3, r1
   14cd0:	e1a02000 	mov	r2, r0
   14cd4:	e1a01005 	mov	r1, r5
   14cd8:	e1a00004 	mov	r0, r4
   14cdc:	eb000840 	bl	16de4 <__adddf3>
   14ce0:	eb000acd 	bl	1781c <__truncdfsf2>
   14ce4:	e1a08000 	mov	r8, r0
   14ce8:	e1a0000a 	mov	r0, sl
   14cec:	eb000912 	bl	1713c <__extendsfdf2>
   14cf0:	e28f2f81 	add	r2, pc, #516	; 0x204
   14cf4:	e892000c 	ldmia	r2, {r2, r3}
   14cf8:	e1a05001 	mov	r5, r1
   14cfc:	e1a04000 	mov	r4, r0
   14d00:	e1a01007 	mov	r1, r7
   14d04:	e1a00006 	mov	r0, r6
   14d08:	eb00091e 	bl	17188 <__muldf3>
   14d0c:	e1a03001 	mov	r3, r1
   14d10:	e1a02000 	mov	r2, r0
   14d14:	e1a01005 	mov	r1, r5
   14d18:	e1a00004 	mov	r0, r4
   14d1c:	eb000830 	bl	16de4 <__adddf3>
   14d20:	eb000abd 	bl	1781c <__truncdfsf2>
   14d24:	e59f3210 	ldr	r3, [pc, #528]	; 14f3c <.text+0x10f3c>
   14d28:	e5830000 	str	r0, [r3]
   14d2c:	ea000018 	b	14d94 <v_ctl_climb_loop+0x318>
   14d30:	e1a01009 	mov	r1, r9
   14d34:	e1a00007 	mov	r0, r7
   14d38:	eb000af6 	bl	17918 <__addsf3>
   14d3c:	e59f5210 	ldr	r5, [pc, #528]	; 14f54 <.text+0x10f54>
   14d40:	e59f31e0 	ldr	r3, [pc, #480]	; 14f28 <.text+0x10f28>
   14d44:	e1a04000 	mov	r4, r0
   14d48:	e1a01005 	mov	r1, r5
   14d4c:	e5834000 	str	r4, [r3]
   14d50:	eb000c41 	bl	17e5c <__gesf2>
   14d54:	e3500000 	cmp	r0, #0	; 0x0
   14d58:	e1a0800a 	mov	r8, sl
   14d5c:	ca000005 	bgt	14d78 <v_ctl_climb_loop+0x2fc>
   14d60:	e59f51f0 	ldr	r5, [pc, #496]	; 14f58 <.text+0x10f58>
   14d64:	e1a00004 	mov	r0, r4
   14d68:	e1a01005 	mov	r1, r5
   14d6c:	eb000c3c 	bl	17e64 <__lesf2>
   14d70:	e3500000 	cmp	r0, #0	; 0x0
   14d74:	aa000001 	bge	14d80 <v_ctl_climb_loop+0x304>
   14d78:	e59f31a8 	ldr	r3, [pc, #424]	; 14f28 <.text+0x10f28>
   14d7c:	e5835000 	str	r5, [r3]
   14d80:	e59f41b4 	ldr	r4, [pc, #436]	; 14f3c <.text+0x10f3c>
   14d84:	e51b102c 	ldr	r1, [fp, #-44]
   14d88:	e5940000 	ldr	r0, [r4]
   14d8c:	eb000ae1 	bl	17918 <__addsf3>
   14d90:	e5840000 	str	r0, [r4]
   14d94:	e59f11c0 	ldr	r1, [pc, #448]	; 14f5c <.text+0x10f5c>
   14d98:	e1a00008 	mov	r0, r8
   14d9c:	eb000b62 	bl	17b2c <__mulsf3>
   14da0:	e3a01000 	mov	r1, #0	; 0x0
   14da4:	e1a04000 	mov	r4, r0
   14da8:	eb000c2d 	bl	17e64 <__lesf2>
   14dac:	e3500000 	cmp	r0, #0	; 0x0
   14db0:	b3a00000 	movlt	r0, #0	; 0x0
   14db4:	ba000006 	blt	14dd4 <v_ctl_climb_loop+0x358>
   14db8:	e1a00004 	mov	r0, r4
   14dbc:	e59f1198 	ldr	r1, [pc, #408]	; 14f5c <.text+0x10f5c>
   14dc0:	eb000c25 	bl	17e5c <__gesf2>
   14dc4:	e3500000 	cmp	r0, #0	; 0x0
   14dc8:	c3a00d96 	movgt	r0, #9600	; 0x2580
   14dcc:	d1a00004 	movle	r0, r4
   14dd0:	db000c48 	blle	17ef8 <__fixsfsi>
   14dd4:	e59f3184 	ldr	r3, [pc, #388]	; 14f60 <.text+0x10f60>
   14dd8:	e1c300b0 	strh	r0, [r3]
   14ddc:	ea00003b 	b	14ed0 <v_ctl_climb_loop+0x454>
   14de0:	e59f3134 	ldr	r3, [pc, #308]	; 14f1c <.text+0x10f1c>
   14de4:	e5930000 	ldr	r0, [r3]
   14de8:	e59f3128 	ldr	r3, [pc, #296]	; 14f18 <.text+0x10f18>
   14dec:	e5931000 	ldr	r1, [r3]
   14df0:	eb000ac7 	bl	17914 <__subsf3>
   14df4:	e59f2168 	ldr	r2, [pc, #360]	; 14f64 <.text+0x10f64>
   14df8:	e59f3160 	ldr	r3, [pc, #352]	; 14f60 <.text+0x10f60>
   14dfc:	e1d220b0 	ldrh	r2, [r2]
   14e00:	e59f5160 	ldr	r5, [pc, #352]	; 14f68 <.text+0x10f68>
   14e04:	e1a07000 	mov	r7, r0
   14e08:	e1a01007 	mov	r1, r7
   14e0c:	e5950000 	ldr	r0, [r5]
   14e10:	e1c320b0 	strh	r2, [r3]
   14e14:	eb000abf 	bl	17918 <__addsf3>
   14e18:	e59f614c 	ldr	r6, [pc, #332]	; 14f6c <.text+0x10f6c>
   14e1c:	e1a04000 	mov	r4, r0
   14e20:	e1a01006 	mov	r1, r6
   14e24:	e5854000 	str	r4, [r5]
   14e28:	eb000c0b 	bl	17e5c <__gesf2>
   14e2c:	e3500000 	cmp	r0, #0	; 0x0
   14e30:	ca000005 	bgt	14e4c <v_ctl_climb_loop+0x3d0>
   14e34:	e59f6134 	ldr	r6, [pc, #308]	; 14f70 <.text+0x10f70>
   14e38:	e1a00004 	mov	r0, r4
   14e3c:	e1a01006 	mov	r1, r6
   14e40:	eb000c07 	bl	17e64 <__lesf2>
   14e44:	e3500000 	cmp	r0, #0	; 0x0
   14e48:	aa000000 	bge	14e50 <v_ctl_climb_loop+0x3d4>
   14e4c:	e5856000 	str	r6, [r5]
   14e50:	e59f311c 	ldr	r3, [pc, #284]	; 14f74 <.text+0x10f74>
   14e54:	e5951000 	ldr	r1, [r5]
   14e58:	e5930000 	ldr	r0, [r3]
   14e5c:	eb000b32 	bl	17b2c <__mulsf3>
   14e60:	e1a01000 	mov	r1, r0
   14e64:	e1a00007 	mov	r0, r7
   14e68:	eb000aaa 	bl	17918 <__addsf3>
   14e6c:	e59f3104 	ldr	r3, [pc, #260]	; 14f78 <.text+0x10f78>
   14e70:	e1a01000 	mov	r1, r0
   14e74:	e5930000 	ldr	r0, [r3]
   14e78:	eb000b2b 	bl	17b2c <__mulsf3>
   14e7c:	e59f60b8 	ldr	r6, [pc, #184]	; 14f3c <.text+0x10f3c>
   14e80:	e1a03000 	mov	r3, r0
   14e84:	e5863000 	str	r3, [r6]
   14e88:	eb0008ab 	bl	1713c <__extendsfdf2>
   14e8c:	e28f2070 	add	r2, pc, #112	; 0x70
   14e90:	e892000c 	ldmia	r2, {r2, r3}
   14e94:	e1a05001 	mov	r5, r1
   14e98:	e1a04000 	mov	r4, r0
   14e9c:	eb0009f4 	bl	17674 <__gedf2>
   14ea0:	e3500000 	cmp	r0, #0	; 0x0
   14ea4:	c59f30d0 	ldrgt	r3, [pc, #208]	; 14f7c <.text+0x10f7c>
   14ea8:	ca000007 	bgt	14ecc <v_ctl_climb_loop+0x450>
   14eac:	e1a01005 	mov	r1, r5
   14eb0:	e1a00004 	mov	r0, r4
   14eb4:	e28f2050 	add	r2, pc, #80	; 0x50
   14eb8:	e892000c 	ldmia	r2, {r2, r3}
   14ebc:	eb0009ee 	bl	1767c <__ledf2>
   14ec0:	e3500000 	cmp	r0, #0	; 0x0
   14ec4:	aa000001 	bge	14ed0 <v_ctl_climb_loop+0x454>
   14ec8:	e59f30b0 	ldr	r3, [pc, #176]	; 14f80 <.text+0x10f80>
   14ecc:	e5863000 	str	r3, [r6]
   14ed0:	e24bd028 	sub	sp, fp, #40	; 0x28
   14ed4:	e89d6ff0 	ldmia	sp, {r4, r5, r6, r7, r8, r9, sl, fp, sp, lr}
   14ed8:	e12fff1e 	bx	lr
   14edc:	40240000 	eormi	r0, r4, r0
   14ee0:	00000000 	andeq	r0, r0, r0
   14ee4:	3fe99999 	swicc	0x00e99999
   14ee8:	9999999a 	ldmlsib	r9, {r1, r3, r4, r7, r8, fp, ip, pc}
   14eec:	3fd33333 	swicc	0x00d33333
   14ef0:	33333333 	teqcc	r3, #-872415232	; 0xcc000000
   14ef4:	3fb99999 	swicc	0x00b99999
   14ef8:	9999999a 	ldmlsib	r9, {r1, r3, r4, r7, r8, fp, ip, pc}
   14efc:	bfd00000 	swilt	0x00d00000
   14f00:	00000000 	andeq	r0, r0, r0
   14f04:	3fd66666 	swicc	0x00d66666
   14f08:	66666666 	strvsbt	r6, [r6], -r6, ror #12
   14f0c:	bfd66666 	swilt	0x00d66666
   14f10:	66666666 	strvsbt	r6, [r6], -r6, ror #12
   14f14:	40001144 	andmi	r1, r0, r4, asr #2
   14f18:	40001174 	andmi	r1, r0, r4, ror r1
   14f1c:	40001030 	andmi	r1, r0, r0, lsr r0
   14f20:	40001168 	andmi	r1, r0, r8, ror #2
   14f24:	4000115c 	andmi	r1, r0, ip, asr r1
   14f28:	40001148 	andmi	r1, r0, r8, asr #2
   14f2c:	4000116c 	andmi	r1, r0, ip, ror #2
   14f30:	40001184 	andmi	r1, r0, r4, lsl #3
   14f34:	40001150 	andmi	r1, r0, r0, asr r1
   14f38:	4000114c 	andmi	r1, r0, ip, asr #2
   14f3c:	40000668 	andmi	r0, r0, r8, ror #12
   14f40:	3e99999a 	mrccc	9, 4, r9, cr9, cr10, {4}
   14f44:	be800000 	cdplt	0, 8, cr0, cr0, cr0, {0}
   14f48:	3f4ccccd 	swicc	0x004ccccd
   14f4c:	3dcccccd 	stcccl	12, cr12, [ip, #820]
   14f50:	40001140 	andmi	r1, r0, r0, asr #2
   14f54:	43160000 	tstmi	r6, #0	; 0x0
   14f58:	c3160000 	tstgt	r6, #0	; 0x0
   14f5c:	46160000 	ldrmi	r0, [r6], -r0
   14f60:	40001170 	andmi	r1, r0, r0, ror r1
   14f64:	40001094 	mulmi	r0, r4, r0
   14f68:	40001188 	andmi	r1, r0, r8, lsl #3
   14f6c:	42c80000 	sbcmi	r0, r8, #0	; 0x0
   14f70:	c2c80000 	sbcgt	r0, r8, #0	; 0x0
   14f74:	40001178 	andmi	r1, r0, r8, ror r1
   14f78:	40001164 	andmi	r1, r0, r4, ror #2
   14f7c:	3eb33333 	mrccc	3, 5, r3, cr3, cr3, {1}
   14f80:	beb33333 	mrclt	3, 5, r3, cr3, cr3, {1}

00014f84 <v_ctl_throttle_slew>:
   14f84:	e1a0c00d 	mov	ip, sp
   14f88:	e92dd8f0 	stmdb	sp!, {r4, r5, r6, r7, fp, ip, lr, pc}
   14f8c:	e59f3084 	ldr	r3, [pc, #132]	; 15018 <.text+0x11018>
   14f90:	e59f7084 	ldr	r7, [pc, #132]	; 1501c <.text+0x1101c>
   14f94:	e1d330b0 	ldrh	r3, [r3]
   14f98:	e1d720b0 	ldrh	r2, [r7]
   14f9c:	e0623003 	rsb	r3, r2, r3
   14fa0:	e1a03803 	mov	r3, r3, lsl #16
   14fa4:	e24cb004 	sub	fp, ip, #4	; 0x4
   14fa8:	e1a00843 	mov	r0, r3, asr #16
   14fac:	e1a06823 	mov	r6, r3, lsr #16
   14fb0:	eb000856 	bl	17110 <__floatsidf>
   14fb4:	e28f204c 	add	r2, pc, #76	; 0x4c
   14fb8:	e892000c 	ldmia	r2, {r2, r3}
   14fbc:	e1a05001 	mov	r5, r1
   14fc0:	e1a04000 	mov	r4, r0
   14fc4:	eb0009aa 	bl	17674 <__gedf2>
   14fc8:	e3500000 	cmp	r0, #0	; 0x0
   14fcc:	e28f203c 	add	r2, pc, #60	; 0x3c
   14fd0:	e892000c 	ldmia	r2, {r2, r3}
   14fd4:	e1a01005 	mov	r1, r5
   14fd8:	e1a00004 	mov	r0, r4
   14fdc:	c3a06e1e 	movgt	r6, #480	; 0x1e0
   14fe0:	ca000003 	bgt	14ff4 <v_ctl_throttle_slew+0x70>
   14fe4:	eb0009a4 	bl	1767c <__ledf2>
   14fe8:	e59f3030 	ldr	r3, [pc, #48]	; 15020 <.text+0x11020>
   14fec:	e3500000 	cmp	r0, #0	; 0x0
   14ff0:	b1a06003 	movlt	r6, r3
   14ff4:	e1d730b0 	ldrh	r3, [r7]
   14ff8:	e0833006 	add	r3, r3, r6
   14ffc:	e1c730b0 	strh	r3, [r7]
   15000:	e89d68f0 	ldmia	sp, {r4, r5, r6, r7, fp, sp, lr}
   15004:	e12fff1e 	bx	lr
   15008:	407e0000 	rsbmis	r0, lr, r0
   1500c:	00000000 	andeq	r0, r0, r0
   15010:	c07e0000 	rsbgts	r0, lr, r0
   15014:	00000000 	andeq	r0, r0, r0
   15018:	40001170 	andmi	r1, r0, r0, ror r1
   1501c:	40001180 	andmi	r1, r0, r0, lsl #3
   15020:	0000fe20 	andeq	pc, r0, r0, lsr #28

00015024 <get_ac_info>:
   15024:	e20000ff 	and	r0, r0, #255	; 0xff
   15028:	e3500017 	cmp	r0, #23	; 0x17
   1502c:	83a00000 	movhi	r0, #0	; 0x0
   15030:	e59f3008 	ldr	r3, [pc, #8]	; 15040 <.text+0x11040>
   15034:	e0800100 	add	r0, r0, r0, lsl #2
   15038:	e0830100 	add	r0, r3, r0, lsl #2
   1503c:	e12fff1e 	bx	lr
   15040:	40000830 	andmi	r0, r0, r0, lsr r8

00015044 <atan>:
   15044:	b5f0      	push	{r4, r5, r6, r7, lr}
   15046:	4657      	mov	r7, sl
   15048:	4646      	mov	r6, r8
   1504a:	b4c0      	push	{r6, r7}
   1504c:	4da3      	ldr	r5, [pc, #652]	(152dc <.text+0x112dc>)
   1504e:	4ba4      	ldr	r3, [pc, #656]	(152e0 <.text+0x112e0>)
   15050:	4005      	and	r5, r0
   15052:	b084      	sub	sp, #16
   15054:	1c0f      	mov	r7, r1		(add r7, r1, #0)
   15056:	1c06      	mov	r6, r0		(add r6, r0, #0)
   15058:	4680      	mov	r8, r0
   1505a:	429d      	cmp	r5, r3
   1505c:	dd12      	ble	15084 <atan+0x40>
   1505e:	4aa1      	ldr	r2, [pc, #644]	(152e4 <.text+0x112e4>)
   15060:	1c0c      	mov	r4, r1		(add r4, r1, #0)
   15062:	1c03      	mov	r3, r0		(add r3, r0, #0)
   15064:	4295      	cmp	r5, r2
   15066:	dc00      	bgt	1506a <atan+0x26>
   15068:	e0b4      	b	151d4 <atan+0x190>
   1506a:	1c39      	mov	r1, r7		(add r1, r7, #0)
   1506c:	1c30      	mov	r0, r6		(add r0, r6, #0)
   1506e:	1c3b      	mov	r3, r7		(add r3, r7, #0)
   15070:	1c32      	mov	r2, r6		(add r2, r6, #0)
   15072:	ffc7f002 	bl	18004 <____adddf3_from_thumb>
   15076:	b004      	add	sp, #16
   15078:	bc18      	pop	{r3, r4}
   1507a:	4698      	mov	r8, r3
   1507c:	46a2      	mov	sl, r4
   1507e:	bcf0      	pop	{r4, r5, r6, r7}
   15080:	bc04      	pop	{r2}
   15082:	4710      	bx	r2
   15084:	4b98      	ldr	r3, [pc, #608]	(152e8 <.text+0x112e8>)
   15086:	429d      	cmp	r5, r3
   15088:	dd00      	ble	1508c <atan+0x48>
   1508a:	e0ba      	b	15202 <atan+0x1be>
   1508c:	4b97      	ldr	r3, [pc, #604]	(152ec <.text+0x112ec>)
   1508e:	429d      	cmp	r5, r3
   15090:	dc00      	bgt	15094 <atan+0x50>
   15092:	e0a8      	b	151e6 <atan+0x1a2>
   15094:	2301      	mov	r3, #1
   15096:	4259      	neg	r1, r3
   15098:	468a      	mov	sl, r1
   1509a:	1c3b      	mov	r3, r7		(add r3, r7, #0)
   1509c:	1c32      	mov	r2, r6		(add r2, r6, #0)
   1509e:	1c39      	mov	r1, r7		(add r1, r7, #0)
   150a0:	1c30      	mov	r0, r6		(add r0, r6, #0)
   150a2:	ffb3f002 	bl	1800c <____muldf3_from_thumb>
   150a6:	1c0b      	mov	r3, r1		(add r3, r1, #0)
   150a8:	1c02      	mov	r2, r0		(add r2, r0, #0)
   150aa:	9000      	str	r0, [sp, #0]
   150ac:	9101      	str	r1, [sp, #4]
   150ae:	ffadf002 	bl	1800c <____muldf3_from_thumb>
   150b2:	4a8f      	ldr	r2, [pc, #572]	(152f0 <.text+0x112f0>)
   150b4:	4b8f      	ldr	r3, [pc, #572]	(152f4 <.text+0x112f4>)
   150b6:	1c0d      	mov	r5, r1		(add r5, r1, #0)
   150b8:	1c04      	mov	r4, r0		(add r4, r0, #0)
   150ba:	ffa7f002 	bl	1800c <____muldf3_from_thumb>
   150be:	1c0b      	mov	r3, r1		(add r3, r1, #0)
   150c0:	1c02      	mov	r2, r0		(add r2, r0, #0)
   150c2:	488d      	ldr	r0, [pc, #564]	(152f8 <.text+0x112f8>)
   150c4:	498d      	ldr	r1, [pc, #564]	(152fc <.text+0x112fc>)
   150c6:	ff9df002 	bl	18004 <____adddf3_from_thumb>
   150ca:	1c2b      	mov	r3, r5		(add r3, r5, #0)
   150cc:	1c22      	mov	r2, r4		(add r2, r4, #0)
   150ce:	ff9df002 	bl	1800c <____muldf3_from_thumb>
   150d2:	1c0b      	mov	r3, r1		(add r3, r1, #0)
   150d4:	1c02      	mov	r2, r0		(add r2, r0, #0)
   150d6:	488a      	ldr	r0, [pc, #552]	(15300 <.text+0x11300>)
   150d8:	498a      	ldr	r1, [pc, #552]	(15304 <.text+0x11304>)
   150da:	ff93f002 	bl	18004 <____adddf3_from_thumb>
   150de:	1c2b      	mov	r3, r5		(add r3, r5, #0)
   150e0:	1c22      	mov	r2, r4		(add r2, r4, #0)
   150e2:	ff93f002 	bl	1800c <____muldf3_from_thumb>
   150e6:	1c0b      	mov	r3, r1		(add r3, r1, #0)
   150e8:	1c02      	mov	r2, r0		(add r2, r0, #0)
   150ea:	4887      	ldr	r0, [pc, #540]	(15308 <.text+0x11308>)
   150ec:	4987      	ldr	r1, [pc, #540]	(1530c <.text+0x1130c>)
   150ee:	ff89f002 	bl	18004 <____adddf3_from_thumb>
   150f2:	1c2b      	mov	r3, r5		(add r3, r5, #0)
   150f4:	1c22      	mov	r2, r4		(add r2, r4, #0)
   150f6:	ff89f002 	bl	1800c <____muldf3_from_thumb>
   150fa:	1c0b      	mov	r3, r1		(add r3, r1, #0)
   150fc:	1c02      	mov	r2, r0		(add r2, r0, #0)
   150fe:	4884      	ldr	r0, [pc, #528]	(15310 <.text+0x11310>)
   15100:	4984      	ldr	r1, [pc, #528]	(15314 <.text+0x11314>)
   15102:	ff7ff002 	bl	18004 <____adddf3_from_thumb>
   15106:	1c2b      	mov	r3, r5		(add r3, r5, #0)
   15108:	1c22      	mov	r2, r4		(add r2, r4, #0)
   1510a:	ff7ff002 	bl	1800c <____muldf3_from_thumb>
   1510e:	1c0b      	mov	r3, r1		(add r3, r1, #0)
   15110:	1c02      	mov	r2, r0		(add r2, r0, #0)
   15112:	4881      	ldr	r0, [pc, #516]	(15318 <.text+0x11318>)
   15114:	4981      	ldr	r1, [pc, #516]	(1531c <.text+0x1131c>)
   15116:	ff75f002 	bl	18004 <____adddf3_from_thumb>
   1511a:	9a00      	ldr	r2, [sp, #0]
   1511c:	9b01      	ldr	r3, [sp, #4]
   1511e:	ff75f002 	bl	1800c <____muldf3_from_thumb>
   15122:	4a7f      	ldr	r2, [pc, #508]	(15320 <.text+0x11320>)
   15124:	4b7f      	ldr	r3, [pc, #508]	(15324 <.text+0x11324>)
   15126:	9002      	str	r0, [sp, #8]
   15128:	9103      	str	r1, [sp, #12]
   1512a:	1c29      	mov	r1, r5		(add r1, r5, #0)
   1512c:	1c20      	mov	r0, r4		(add r0, r4, #0)
   1512e:	ff6df002 	bl	1800c <____muldf3_from_thumb>
   15132:	1c0b      	mov	r3, r1		(add r3, r1, #0)
   15134:	1c02      	mov	r2, r0		(add r2, r0, #0)
   15136:	487c      	ldr	r0, [pc, #496]	(15328 <.text+0x11328>)
   15138:	497c      	ldr	r1, [pc, #496]	(1532c <.text+0x1132c>)
   1513a:	ff63f002 	bl	18004 <____adddf3_from_thumb>
   1513e:	1c2b      	mov	r3, r5		(add r3, r5, #0)
   15140:	1c22      	mov	r2, r4		(add r2, r4, #0)
   15142:	ff63f002 	bl	1800c <____muldf3_from_thumb>
   15146:	1c0b      	mov	r3, r1		(add r3, r1, #0)
   15148:	1c02      	mov	r2, r0		(add r2, r0, #0)
   1514a:	4879      	ldr	r0, [pc, #484]	(15330 <.text+0x11330>)
   1514c:	4979      	ldr	r1, [pc, #484]	(15334 <.text+0x11334>)
   1514e:	ff59f002 	bl	18004 <____adddf3_from_thumb>
   15152:	1c2b      	mov	r3, r5		(add r3, r5, #0)
   15154:	1c22      	mov	r2, r4		(add r2, r4, #0)
   15156:	ff59f002 	bl	1800c <____muldf3_from_thumb>
   1515a:	1c0b      	mov	r3, r1		(add r3, r1, #0)
   1515c:	1c02      	mov	r2, r0		(add r2, r0, #0)
   1515e:	4876      	ldr	r0, [pc, #472]	(15338 <.text+0x11338>)
   15160:	4976      	ldr	r1, [pc, #472]	(1533c <.text+0x1133c>)
   15162:	ff4ff002 	bl	18004 <____adddf3_from_thumb>
   15166:	1c2b      	mov	r3, r5		(add r3, r5, #0)
   15168:	1c22      	mov	r2, r4		(add r2, r4, #0)
   1516a:	ff4ff002 	bl	1800c <____muldf3_from_thumb>
   1516e:	1c0b      	mov	r3, r1		(add r3, r1, #0)
   15170:	1c02      	mov	r2, r0		(add r2, r0, #0)
   15172:	4873      	ldr	r0, [pc, #460]	(15340 <.text+0x11340>)
   15174:	4973      	ldr	r1, [pc, #460]	(15344 <.text+0x11344>)
   15176:	ff45f002 	bl	18004 <____adddf3_from_thumb>
   1517a:	1c2b      	mov	r3, r5		(add r3, r5, #0)
   1517c:	1c22      	mov	r2, r4		(add r2, r4, #0)
   1517e:	ff45f002 	bl	1800c <____muldf3_from_thumb>
   15182:	1c0b      	mov	r3, r1		(add r3, r1, #0)
   15184:	1c02      	mov	r2, r0		(add r2, r0, #0)
   15186:	4651      	mov	r1, sl
   15188:	2900      	cmp	r1, #0
   1518a:	db62      	blt	15252 <atan+0x20e>
   1518c:	4651      	mov	r1, sl
   1518e:	00cc      	lsl	r4, r1, #3
   15190:	9802      	ldr	r0, [sp, #8]
   15192:	9903      	ldr	r1, [sp, #12]
   15194:	ff36f002 	bl	18004 <____adddf3_from_thumb>
   15198:	1c3b      	mov	r3, r7		(add r3, r7, #0)
   1519a:	1c32      	mov	r2, r6		(add r2, r6, #0)
   1519c:	ff36f002 	bl	1800c <____muldf3_from_thumb>
   151a0:	4d69      	ldr	r5, [pc, #420]	(15348 <.text+0x11348>)
   151a2:	4b6a      	ldr	r3, [pc, #424]	(1534c <.text+0x1134c>)
   151a4:	1965      	add	r5, r4, r5
   151a6:	18e4      	add	r4, r4, r3
   151a8:	6822      	ldr	r2, [r4, #0]
   151aa:	6863      	ldr	r3, [r4, #4]
   151ac:	ff32f002 	bl	18014 <____subdf3_from_thumb>
   151b0:	1c3b      	mov	r3, r7		(add r3, r7, #0)
   151b2:	1c32      	mov	r2, r6		(add r2, r6, #0)
   151b4:	ff2ef002 	bl	18014 <____subdf3_from_thumb>
   151b8:	1c0b      	mov	r3, r1		(add r3, r1, #0)
   151ba:	1c02      	mov	r2, r0		(add r2, r0, #0)
   151bc:	6828      	ldr	r0, [r5, #0]
   151be:	6869      	ldr	r1, [r5, #4]
   151c0:	ff28f002 	bl	18014 <____subdf3_from_thumb>
   151c4:	4643      	mov	r3, r8
   151c6:	1c0e      	mov	r6, r1		(add r6, r1, #0)
   151c8:	1c05      	mov	r5, r0		(add r5, r0, #0)
   151ca:	2b00      	cmp	r3, #0
   151cc:	db37      	blt	1523e <atan+0x1fa>
   151ce:	1c31      	mov	r1, r6		(add r1, r6, #0)
   151d0:	1c28      	mov	r0, r5		(add r0, r5, #0)
   151d2:	e750      	b	15076 <atan+0x32>
   151d4:	4295      	cmp	r5, r2
   151d6:	d02f      	beq	15238 <atan+0x1f4>
   151d8:	4641      	mov	r1, r8
   151da:	2900      	cmp	r1, #0
   151dc:	dc00      	bgt	151e0 <atan+0x19c>
   151de:	e079      	b	152d4 <atan+0x290>
   151e0:	485b      	ldr	r0, [pc, #364]	(15350 <.text+0x11350>)
   151e2:	495c      	ldr	r1, [pc, #368]	(15354 <.text+0x11354>)
   151e4:	e747      	b	15076 <atan+0x32>
   151e6:	4a5c      	ldr	r2, [pc, #368]	(15358 <.text+0x11358>)
   151e8:	4b5c      	ldr	r3, [pc, #368]	(1535c <.text+0x1135c>)
   151ea:	ff0bf002 	bl	18004 <____adddf3_from_thumb>
   151ee:	4a5c      	ldr	r2, [pc, #368]	(15360 <.text+0x11360>)
   151f0:	4b5c      	ldr	r3, [pc, #368]	(15364 <.text+0x11364>)
   151f2:	ff13f002 	bl	1801c <____gtdf2_from_thumb>
   151f6:	2800      	cmp	r0, #0
   151f8:	dc00      	bgt	151fc <atan+0x1b8>
   151fa:	e74b      	b	15094 <atan+0x50>
   151fc:	1c39      	mov	r1, r7		(add r1, r7, #0)
   151fe:	1c30      	mov	r0, r6		(add r0, r6, #0)
   15200:	e739      	b	15076 <atan+0x32>
   15202:	f925f000 	bl	15450 <fabs>
   15206:	4b58      	ldr	r3, [pc, #352]	(15368 <.text+0x11368>)
   15208:	1c0f      	mov	r7, r1		(add r7, r1, #0)
   1520a:	1c06      	mov	r6, r0		(add r6, r0, #0)
   1520c:	429d      	cmp	r5, r3
   1520e:	dc2f      	bgt	15270 <atan+0x22c>
   15210:	4b56      	ldr	r3, [pc, #344]	(1536c <.text+0x1136c>)
   15212:	429d      	cmp	r5, r3
   15214:	dc51      	bgt	152ba <atan+0x276>
   15216:	2300      	mov	r3, #0
   15218:	469a      	mov	sl, r3
   1521a:	1c3b      	mov	r3, r7		(add r3, r7, #0)
   1521c:	1c32      	mov	r2, r6		(add r2, r6, #0)
   1521e:	fef1f002 	bl	18004 <____adddf3_from_thumb>
   15222:	4a4f      	ldr	r2, [pc, #316]	(15360 <.text+0x11360>)
   15224:	4b4f      	ldr	r3, [pc, #316]	(15364 <.text+0x11364>)
   15226:	fef5f002 	bl	18014 <____subdf3_from_thumb>
   1522a:	4a51      	ldr	r2, [pc, #324]	(15370 <.text+0x11370>)
   1522c:	4b51      	ldr	r3, [pc, #324]	(15374 <.text+0x11374>)
   1522e:	1c0d      	mov	r5, r1		(add r5, r1, #0)
   15230:	1c04      	mov	r4, r0		(add r4, r0, #0)
   15232:	1c39      	mov	r1, r7		(add r1, r7, #0)
   15234:	1c30      	mov	r0, r6		(add r0, r6, #0)
   15236:	e02e      	b	15296 <atan+0x252>
   15238:	2c00      	cmp	r4, #0
   1523a:	d0cd      	beq	151d8 <atan+0x194>
   1523c:	e715      	b	1506a <atan+0x26>
   1523e:	494e      	ldr	r1, [pc, #312]	(15378 <.text+0x11378>)
   15240:	4a4e      	ldr	r2, [pc, #312]	(1537c <.text+0x1137c>)
   15242:	1c2b      	mov	r3, r5		(add r3, r5, #0)
   15244:	404b      	eor	r3, r1
   15246:	1c34      	mov	r4, r6		(add r4, r6, #0)
   15248:	1c26      	mov	r6, r4		(add r6, r4, #0)
   1524a:	1c1d      	mov	r5, r3		(add r5, r3, #0)
   1524c:	1c31      	mov	r1, r6		(add r1, r6, #0)
   1524e:	1c28      	mov	r0, r5		(add r0, r5, #0)
   15250:	e711      	b	15076 <atan+0x32>
   15252:	9802      	ldr	r0, [sp, #8]
   15254:	9903      	ldr	r1, [sp, #12]
   15256:	fed5f002 	bl	18004 <____adddf3_from_thumb>
   1525a:	1c3b      	mov	r3, r7		(add r3, r7, #0)
   1525c:	1c32      	mov	r2, r6		(add r2, r6, #0)
   1525e:	fed5f002 	bl	1800c <____muldf3_from_thumb>
   15262:	1c0b      	mov	r3, r1		(add r3, r1, #0)
   15264:	1c02      	mov	r2, r0		(add r2, r0, #0)
   15266:	1c39      	mov	r1, r7		(add r1, r7, #0)
   15268:	1c30      	mov	r0, r6		(add r0, r6, #0)
   1526a:	fed3f002 	bl	18014 <____subdf3_from_thumb>
   1526e:	e702      	b	15076 <atan+0x32>
   15270:	4b43      	ldr	r3, [pc, #268]	(15380 <.text+0x11380>)
   15272:	429d      	cmp	r5, r3
   15274:	dc16      	bgt	152a4 <atan+0x260>
   15276:	2302      	mov	r3, #2
   15278:	469a      	mov	sl, r3
   1527a:	4a42      	ldr	r2, [pc, #264]	(15384 <.text+0x11384>)
   1527c:	4b42      	ldr	r3, [pc, #264]	(15388 <.text+0x11388>)
   1527e:	fec9f002 	bl	18014 <____subdf3_from_thumb>
   15282:	4a40      	ldr	r2, [pc, #256]	(15384 <.text+0x11384>)
   15284:	4b40      	ldr	r3, [pc, #256]	(15388 <.text+0x11388>)
   15286:	1c0d      	mov	r5, r1		(add r5, r1, #0)
   15288:	1c04      	mov	r4, r0		(add r4, r0, #0)
   1528a:	1c39      	mov	r1, r7		(add r1, r7, #0)
   1528c:	1c30      	mov	r0, r6		(add r0, r6, #0)
   1528e:	febdf002 	bl	1800c <____muldf3_from_thumb>
   15292:	4a33      	ldr	r2, [pc, #204]	(15360 <.text+0x11360>)
   15294:	4b33      	ldr	r3, [pc, #204]	(15364 <.text+0x11364>)
   15296:	feb5f002 	bl	18004 <____adddf3_from_thumb>
   1529a:	1c0b      	mov	r3, r1		(add r3, r1, #0)
   1529c:	1c02      	mov	r2, r0		(add r2, r0, #0)
   1529e:	1c29      	mov	r1, r5		(add r1, r5, #0)
   152a0:	1c20      	mov	r0, r4		(add r0, r4, #0)
   152a2:	e005      	b	152b0 <atan+0x26c>
   152a4:	2103      	mov	r1, #3
   152a6:	468a      	mov	sl, r1
   152a8:	4838      	ldr	r0, [pc, #224]	(1538c <.text+0x1138c>)
   152aa:	4939      	ldr	r1, [pc, #228]	(15390 <.text+0x11390>)
   152ac:	1c3b      	mov	r3, r7		(add r3, r7, #0)
   152ae:	1c32      	mov	r2, r6		(add r2, r6, #0)
   152b0:	feb8f002 	bl	18024 <____divdf3_from_thumb>
   152b4:	1c0f      	mov	r7, r1		(add r7, r1, #0)
   152b6:	1c06      	mov	r6, r0		(add r6, r0, #0)
   152b8:	e6ef      	b	1509a <atan+0x56>
   152ba:	2101      	mov	r1, #1
   152bc:	468a      	mov	sl, r1
   152be:	4a28      	ldr	r2, [pc, #160]	(15360 <.text+0x11360>)
   152c0:	4b28      	ldr	r3, [pc, #160]	(15364 <.text+0x11364>)
   152c2:	1c39      	mov	r1, r7		(add r1, r7, #0)
   152c4:	1c30      	mov	r0, r6		(add r0, r6, #0)
   152c6:	fea5f002 	bl	18014 <____subdf3_from_thumb>
   152ca:	1c0d      	mov	r5, r1		(add r5, r1, #0)
   152cc:	1c04      	mov	r4, r0		(add r4, r0, #0)
   152ce:	1c39      	mov	r1, r7		(add r1, r7, #0)
   152d0:	1c30      	mov	r0, r6		(add r0, r6, #0)
   152d2:	e7de      	b	15292 <atan+0x24e>
   152d4:	482f      	ldr	r0, [pc, #188]	(15394 <.text+0x11394>)
   152d6:	4930      	ldr	r1, [pc, #192]	(15398 <.text+0x11398>)
   152d8:	e6cd      	b	15076 <atan+0x32>
   152da:	0000      	lsl	r0, r0, #0
   152dc:	ffff      	second half of BL instruction 0xffff
   152de:	7fff      	ldrb	r7, [r7, #31]
   152e0:	ffff      	second half of BL instruction 0xffff
   152e2:	440f      	add	r7, r1
   152e4:	0000      	lsl	r0, r0, #0
   152e6:	7ff0      	ldrb	r0, [r6, #31]
   152e8:	ffff      	second half of BL instruction 0xffff
   152ea:	3fdb      	sub	r7, #219
   152ec:	ffff      	second half of BL instruction 0xffff
   152ee:	3e1f      	sub	r6, #31
   152f0:	ad3a      	add	r5, sp, #232
   152f2:	3f90      	sub	r7, #144
   152f4:	da11      	bge	1531a <.text+0x1131a>
   152f6:	e322      	b	1593e <__ieee754_rem_pio2+0x62>
   152f8:	7b4b      	ldrb	r3, [r1, #13]
   152fa:	3fa9      	sub	r7, #169
   152fc:	0deb      	lsr	r3, r5, #23
   152fe:	2476      	mov	r4, #118
   15300:	0d66      	lsr	r6, r4, #21
   15302:	3fb1      	sub	r7, #177
   15304:	3d51      	sub	r5, #81
   15306:	a0d0      	add	r0, pc, #832	(adr r0,15648 <sqrt+0x50>)
   15308:	45cd      	cmp	sp, r9
   1530a:	3fb7      	sub	r7, #183
   1530c:	206e      	mov	r0, #110
   1530e:	c54c      	stmia	r5!,{r2, r3, r6}
   15310:	4924      	ldr	r1, [pc, #144]	(153a4 <cos+0x8>)
   15312:	3fc2      	sub	r7, #194
   15314:	83ff      	strh	r7, [r7, #30]
   15316:	9200      	str	r2, [sp, #0]
   15318:	5555      	strb	r5, [r2, r5]
   1531a:	3fd5      	sub	r7, #213
   1531c:	550d      	strb	r5, [r1, r4]
   1531e:	5555      	strb	r5, [r2, r5]
   15320:	b444      	push	{r2, r6}
   15322:	bfa2      	undefined instruction 0xbfa2
   15324:	6c2f      	ldr	r7, [r5, #64]
   15326:	2c6a      	cmp	r4, #106
   15328:	de2d      	bal	15386 <.text+0x11386>
   1532a:	bfad      	undefined instruction 0xbfad
   1532c:	fd9a      	second half of BL instruction 0xfd9a
   1532e:	52de      	strh	r6, [r3, r3]
   15330:	b0f2      	sub	sp, #456
   15332:	bfb3      	undefined instruction 0xbfb3
   15334:	9a6d      	ldr	r2, [sp, #436]
   15336:	af74      	add	r7, sp, #464
   15338:	71c6      	strb	r6, [r0, #7]
   1533a:	bfbc      	undefined instruction 0xbfbc
   1533c:	1671      	asr	r1, r6, #25
   1533e:	fe23      	second half of BL instruction 0xfe23
   15340:	9999      	ldr	r1, [sp, #612]
   15342:	bfc9      	undefined instruction 0xbfc9
   15344:	ebc4      	undefined
   15346:	9998      	ldr	r1, [sp, #608]
   15348:	810c      	strh	r4, [r1, #8]
   1534a:	0001      	lsl	r1, r0, #0
   1534c:	80ec      	strh	r4, [r5, #6]
   1534e:	0001      	lsl	r1, r0, #0
   15350:	21fb      	mov	r1, #251
   15352:	3ff9      	sub	r7, #249
   15354:	2d18      	cmp	r5, #24
   15356:	5444      	strb	r4, [r0, r1]
   15358:	e43c      	b	14bd4 <v_ctl_climb_loop+0x158>
   1535a:	7e37      	ldrb	r7, [r6, #24]
   1535c:	759c      	strb	r4, [r3, #22]
   1535e:	8800      	ldrh	r0, [r0, #0]
   15360:	0000      	lsl	r0, r0, #0
   15362:	3ff0      	sub	r7, #240
   15364:	0000      	lsl	r0, r0, #0
   15366:	0000      	lsl	r0, r0, #0
   15368:	ffff      	second half of BL instruction 0xffff
   1536a:	3ff2      	sub	r7, #242
   1536c:	ffff      	second half of BL instruction 0xffff
   1536e:	3fe5      	sub	r7, #229
   15370:	0000      	lsl	r0, r0, #0
   15372:	4000      	and	r0, r0
   15374:	0000      	lsl	r0, r0, #0
   15376:	0000      	lsl	r0, r0, #0
   15378:	0000      	lsl	r0, r0, #0
   1537a:	8000      	strh	r0, [r0, #0]
   1537c:	0000      	lsl	r0, r0, #0
   1537e:	0000      	lsl	r0, r0, #0
   15380:	7fff      	ldrb	r7, [r7, #31]
   15382:	4003      	and	r3, r0
   15384:	0000      	lsl	r0, r0, #0
   15386:	3ff8      	sub	r7, #248
   15388:	0000      	lsl	r0, r0, #0
   1538a:	0000      	lsl	r0, r0, #0
   1538c:	0000      	lsl	r0, r0, #0
   1538e:	bff0      	undefined instruction 0xbff0
   15390:	0000      	lsl	r0, r0, #0
   15392:	0000      	lsl	r0, r0, #0
   15394:	21fb      	mov	r1, #251
   15396:	bff9      	undefined instruction 0xbff9
   15398:	2d18      	cmp	r5, #24
   1539a:	5444      	strb	r4, [r0, r1]

0001539c <cos>:
   1539c:	b570      	push	{r4, r5, r6, lr}
   1539e:	4a25      	ldr	r2, [pc, #148]	(15434 <.text+0x11434>)
   153a0:	4b25      	ldr	r3, [pc, #148]	(15438 <.text+0x11438>)
   153a2:	4002      	and	r2, r0
   153a4:	b085      	sub	sp, #20
   153a6:	1c0e      	mov	r6, r1		(add r6, r1, #0)
   153a8:	1c05      	mov	r5, r0		(add r5, r0, #0)
   153aa:	429a      	cmp	r2, r3
   153ac:	dd1e      	ble	153ec <cos+0x50>
   153ae:	4b23      	ldr	r3, [pc, #140]	(1543c <.text+0x1143c>)
   153b0:	429a      	cmp	r2, r3
   153b2:	dd07      	ble	153c4 <cos+0x28>
   153b4:	1c33      	mov	r3, r6		(add r3, r6, #0)
   153b6:	1c2a      	mov	r2, r5		(add r2, r5, #0)
   153b8:	fe2cf002 	bl	18014 <____subdf3_from_thumb>
   153bc:	b005      	add	sp, #20
   153be:	bc70      	pop	{r4, r5, r6}
   153c0:	bc04      	pop	{r2}
   153c2:	4710      	bx	r2
   153c4:	aa01      	add	r2, sp, #4
   153c6:	fa89f000 	bl	158dc <__ieee754_rem_pio2>
   153ca:	2303      	mov	r3, #3
   153cc:	4003      	and	r3, r0
   153ce:	2b01      	cmp	r3, #1
   153d0:	d011      	beq	153f6 <cos+0x5a>
   153d2:	2b01      	cmp	r3, #1
   153d4:	dd1e      	ble	15414 <cos+0x78>
   153d6:	2b02      	cmp	r3, #2
   153d8:	d025      	beq	15426 <cos+0x8a>
   153da:	2301      	mov	r3, #1
   153dc:	9300      	str	r3, [sp, #0]
   153de:	9801      	ldr	r0, [sp, #4]
   153e0:	9902      	ldr	r1, [sp, #8]
   153e2:	9a03      	ldr	r2, [sp, #12]
   153e4:	9b04      	ldr	r3, [sp, #16]
   153e6:	faa5f001 	bl	16934 <__kernel_sin>
   153ea:	e7e7      	b	153bc <cos+0x20>
   153ec:	4a14      	ldr	r2, [pc, #80]	(15440 <.text+0x11440>)
   153ee:	4b15      	ldr	r3, [pc, #84]	(15444 <.text+0x11444>)
   153f0:	fdb6f000 	bl	15f60 <__kernel_cos>
   153f4:	e7e2      	b	153bc <cos+0x20>
   153f6:	9300      	str	r3, [sp, #0]
   153f8:	9801      	ldr	r0, [sp, #4]
   153fa:	9902      	ldr	r1, [sp, #8]
   153fc:	9a03      	ldr	r2, [sp, #12]
   153fe:	9b04      	ldr	r3, [sp, #16]
   15400:	fa98f001 	bl	16934 <__kernel_sin>
   15404:	4d10      	ldr	r5, [pc, #64]	(15448 <.text+0x11448>)
   15406:	4e11      	ldr	r6, [pc, #68]	(1544c <.text+0x1144c>)
   15408:	1c03      	mov	r3, r0		(add r3, r0, #0)
   1540a:	406b      	eor	r3, r5
   1540c:	1c0c      	mov	r4, r1		(add r4, r1, #0)
   1540e:	1c21      	mov	r1, r4		(add r1, r4, #0)
   15410:	1c18      	mov	r0, r3		(add r0, r3, #0)
   15412:	e7d3      	b	153bc <cos+0x20>
   15414:	2b00      	cmp	r3, #0
   15416:	d1e0      	bne	153da <cos+0x3e>
   15418:	9801      	ldr	r0, [sp, #4]
   1541a:	9902      	ldr	r1, [sp, #8]
   1541c:	9a03      	ldr	r2, [sp, #12]
   1541e:	9b04      	ldr	r3, [sp, #16]
   15420:	fd9ef000 	bl	15f60 <__kernel_cos>
   15424:	e7ca      	b	153bc <cos+0x20>
   15426:	9801      	ldr	r0, [sp, #4]
   15428:	9902      	ldr	r1, [sp, #8]
   1542a:	9a03      	ldr	r2, [sp, #12]
   1542c:	9b04      	ldr	r3, [sp, #16]
   1542e:	fd97f000 	bl	15f60 <__kernel_cos>
   15432:	e7e7      	b	15404 <cos+0x68>
   15434:	ffff      	second half of BL instruction 0xffff
   15436:	7fff      	ldrb	r7, [r7, #31]
   15438:	21fb      	mov	r1, #251
   1543a:	3fe9      	sub	r7, #233
   1543c:	ffff      	second half of BL instruction 0xffff
   1543e:	7fef      	ldrb	r7, [r5, #31]
	...
   15448:	0000      	lsl	r0, r0, #0
   1544a:	8000      	strh	r0, [r0, #0]
   1544c:	0000      	lsl	r0, r0, #0
	...

00015450 <fabs>:
   15450:	b510      	push	{r4, lr}
   15452:	1c0c      	mov	r4, r1		(add r4, r1, #0)
   15454:	1c03      	mov	r3, r0		(add r3, r0, #0)
   15456:	1c0a      	mov	r2, r1		(add r2, r1, #0)
   15458:	1c01      	mov	r1, r0		(add r1, r0, #0)
   1545a:	4804      	ldr	r0, [pc, #16]	(1546c <.text+0x1146c>)
   1545c:	1c01      	mov	r1, r0		(add r1, r0, #0)
   1545e:	4019      	and	r1, r3
   15460:	1c08      	mov	r0, r1		(add r0, r1, #0)
   15462:	1c11      	mov	r1, r2		(add r1, r2, #0)
   15464:	bc10      	pop	{r4}
   15466:	bc04      	pop	{r2}
   15468:	4710      	bx	r2
   1546a:	0000      	lsl	r0, r0, #0
   1546c:	ffff      	second half of BL instruction 0xffff
   1546e:	7fff      	ldrb	r7, [r7, #31]

00015470 <sin>:
   15470:	b570      	push	{r4, r5, r6, lr}
   15472:	4a27      	ldr	r2, [pc, #156]	(15510 <.text+0x11510>)
   15474:	4b27      	ldr	r3, [pc, #156]	(15514 <.text+0x11514>)
   15476:	4002      	and	r2, r0
   15478:	b085      	sub	sp, #20
   1547a:	1c0e      	mov	r6, r1		(add r6, r1, #0)
   1547c:	1c05      	mov	r5, r0		(add r5, r0, #0)
   1547e:	429a      	cmp	r2, r3
   15480:	dd23      	ble	154ca <sin+0x5a>
   15482:	4b25      	ldr	r3, [pc, #148]	(15518 <.text+0x11518>)
   15484:	429a      	cmp	r2, r3
   15486:	dd07      	ble	15498 <sin+0x28>
   15488:	1c33      	mov	r3, r6		(add r3, r6, #0)
   1548a:	1c2a      	mov	r2, r5		(add r2, r5, #0)
   1548c:	fdc2f002 	bl	18014 <____subdf3_from_thumb>
   15490:	b005      	add	sp, #20
   15492:	bc70      	pop	{r4, r5, r6}
   15494:	bc04      	pop	{r2}
   15496:	4710      	bx	r2
   15498:	aa01      	add	r2, sp, #4
   1549a:	fa1ff000 	bl	158dc <__ieee754_rem_pio2>
   1549e:	2303      	mov	r3, #3
   154a0:	4003      	and	r3, r0
   154a2:	2b01      	cmp	r3, #1
   154a4:	d018      	beq	154d8 <sin+0x68>
   154a6:	2b01      	cmp	r3, #1
   154a8:	dd1d      	ble	154e6 <sin+0x76>
   154aa:	2b02      	cmp	r3, #2
   154ac:	d026      	beq	154fc <sin+0x8c>
   154ae:	9801      	ldr	r0, [sp, #4]
   154b0:	9902      	ldr	r1, [sp, #8]
   154b2:	9a03      	ldr	r2, [sp, #12]
   154b4:	9b04      	ldr	r3, [sp, #16]
   154b6:	fd53f000 	bl	15f60 <__kernel_cos>
   154ba:	4d18      	ldr	r5, [pc, #96]	(1551c <.text+0x1151c>)
   154bc:	4e18      	ldr	r6, [pc, #96]	(15520 <.text+0x11520>)
   154be:	1c03      	mov	r3, r0		(add r3, r0, #0)
   154c0:	406b      	eor	r3, r5
   154c2:	1c0c      	mov	r4, r1		(add r4, r1, #0)
   154c4:	1c21      	mov	r1, r4		(add r1, r4, #0)
   154c6:	1c18      	mov	r0, r3		(add r0, r3, #0)
   154c8:	e7e2      	b	15490 <sin+0x20>
   154ca:	2300      	mov	r3, #0
   154cc:	9300      	str	r3, [sp, #0]
   154ce:	4a15      	ldr	r2, [pc, #84]	(15524 <.text+0x11524>)
   154d0:	4b15      	ldr	r3, [pc, #84]	(15528 <.text+0x11528>)
   154d2:	fa2ff001 	bl	16934 <__kernel_sin>
   154d6:	e7db      	b	15490 <sin+0x20>
   154d8:	9801      	ldr	r0, [sp, #4]
   154da:	9902      	ldr	r1, [sp, #8]
   154dc:	9a03      	ldr	r2, [sp, #12]
   154de:	9b04      	ldr	r3, [sp, #16]
   154e0:	fd3ef000 	bl	15f60 <__kernel_cos>
   154e4:	e7d4      	b	15490 <sin+0x20>
   154e6:	2b00      	cmp	r3, #0
   154e8:	d1e1      	bne	154ae <sin+0x3e>
   154ea:	2301      	mov	r3, #1
   154ec:	9300      	str	r3, [sp, #0]
   154ee:	9801      	ldr	r0, [sp, #4]
   154f0:	9902      	ldr	r1, [sp, #8]
   154f2:	9a03      	ldr	r2, [sp, #12]
   154f4:	9b04      	ldr	r3, [sp, #16]
   154f6:	fa1df001 	bl	16934 <__kernel_sin>
   154fa:	e7c9      	b	15490 <sin+0x20>
   154fc:	2301      	mov	r3, #1
   154fe:	9300      	str	r3, [sp, #0]
   15500:	9801      	ldr	r0, [sp, #4]
   15502:	9902      	ldr	r1, [sp, #8]
   15504:	9a03      	ldr	r2, [sp, #12]
   15506:	9b04      	ldr	r3, [sp, #16]
   15508:	fa14f001 	bl	16934 <__kernel_sin>
   1550c:	e7d5      	b	154ba <sin+0x4a>
   1550e:	0000      	lsl	r0, r0, #0
   15510:	ffff      	second half of BL instruction 0xffff
   15512:	7fff      	ldrb	r7, [r7, #31]
   15514:	21fb      	mov	r1, #251
   15516:	3fe9      	sub	r7, #233
   15518:	ffff      	second half of BL instruction 0xffff
   1551a:	7fef      	ldrb	r7, [r5, #31]
   1551c:	0000      	lsl	r0, r0, #0
   1551e:	8000      	strh	r0, [r0, #0]
	...

0001552c <atan2>:
   1552c:	b5f0      	push	{r4, r5, r6, r7, lr}
   1552e:	4657      	mov	r7, sl
   15530:	4646      	mov	r6, r8
   15532:	b4c0      	push	{r6, r7}
   15534:	b08b      	sub	sp, #44
   15536:	1c1d      	mov	r5, r3		(add r5, r3, #0)
   15538:	1c14      	mov	r4, r2		(add r4, r2, #0)
   1553a:	1c0f      	mov	r7, r1		(add r7, r1, #0)
   1553c:	1c06      	mov	r6, r0		(add r6, r0, #0)
   1553e:	f8bff000 	bl	156c0 <__ieee754_atan2>
   15542:	4b29      	ldr	r3, [pc, #164]	(155e8 <.text+0x115e8>)
   15544:	681b      	ldr	r3, [r3, #0]
   15546:	9000      	str	r0, [sp, #0]
   15548:	9101      	str	r1, [sp, #4]
   1554a:	4698      	mov	r8, r3
   1554c:	3301      	add	r3, #1
   1554e:	d005      	beq	1555c <atan2+0x30>
   15550:	1c29      	mov	r1, r5		(add r1, r5, #0)
   15552:	1c20      	mov	r0, r4		(add r0, r4, #0)
   15554:	fb3ef001 	bl	16bd4 <isnan>
   15558:	2800      	cmp	r0, #0
   1555a:	d008      	beq	1556e <atan2+0x42>
   1555c:	9800      	ldr	r0, [sp, #0]
   1555e:	9901      	ldr	r1, [sp, #4]
   15560:	b00b      	add	sp, #44
   15562:	bc18      	pop	{r3, r4}
   15564:	4698      	mov	r8, r3
   15566:	46a2      	mov	sl, r4
   15568:	bcf0      	pop	{r4, r5, r6, r7}
   1556a:	bc04      	pop	{r2}
   1556c:	4710      	bx	r2
   1556e:	1c39      	mov	r1, r7		(add r1, r7, #0)
   15570:	1c30      	mov	r0, r6		(add r0, r6, #0)
   15572:	fb2ff001 	bl	16bd4 <isnan>
   15576:	2800      	cmp	r0, #0
   15578:	4682      	mov	sl, r0
   1557a:	d1ef      	bne	1555c <atan2+0x30>
   1557c:	1c29      	mov	r1, r5		(add r1, r5, #0)
   1557e:	1c20      	mov	r0, r4		(add r0, r4, #0)
   15580:	4a1a      	ldr	r2, [pc, #104]	(155ec <.text+0x115ec>)
   15582:	4b1b      	ldr	r3, [pc, #108]	(155f0 <.text+0x115f0>)
   15584:	fd52f002 	bl	1802c <____eqdf2_from_thumb>
   15588:	2800      	cmp	r0, #0
   1558a:	d1e7      	bne	1555c <atan2+0x30>
   1558c:	1c39      	mov	r1, r7		(add r1, r7, #0)
   1558e:	1c30      	mov	r0, r6		(add r0, r6, #0)
   15590:	4a16      	ldr	r2, [pc, #88]	(155ec <.text+0x115ec>)
   15592:	4b17      	ldr	r3, [pc, #92]	(155f0 <.text+0x115f0>)
   15594:	fd4af002 	bl	1802c <____eqdf2_from_thumb>
   15598:	2800      	cmp	r0, #0
   1559a:	d1df      	bne	1555c <atan2+0x30>
   1559c:	2301      	mov	r3, #1
   1559e:	9302      	str	r3, [sp, #8]
   155a0:	4b14      	ldr	r3, [pc, #80]	(155f4 <.text+0x115f4>)
   155a2:	9406      	str	r4, [sp, #24]
   155a4:	9507      	str	r5, [sp, #28]
   155a6:	4654      	mov	r4, sl
   155a8:	9303      	str	r3, [sp, #12]
   155aa:	940a      	str	r4, [sp, #40]
   155ac:	4b0f      	ldr	r3, [pc, #60]	(155ec <.text+0x115ec>)
   155ae:	4c10      	ldr	r4, [pc, #64]	(155f0 <.text+0x115f0>)
   155b0:	9308      	str	r3, [sp, #32]
   155b2:	9409      	str	r4, [sp, #36]
   155b4:	4644      	mov	r4, r8
   155b6:	9604      	str	r6, [sp, #16]
   155b8:	9705      	str	r7, [sp, #20]
   155ba:	2c02      	cmp	r4, #2
   155bc:	d00a      	beq	155d4 <atan2+0xa8>
   155be:	a802      	add	r0, sp, #8
   155c0:	fb1cf001 	bl	16bfc <matherr>
   155c4:	2800      	cmp	r0, #0
   155c6:	d005      	beq	155d4 <atan2+0xa8>
   155c8:	9b0a      	ldr	r3, [sp, #40]
   155ca:	2b00      	cmp	r3, #0
   155cc:	d107      	bne	155de <atan2+0xb2>
   155ce:	9808      	ldr	r0, [sp, #32]
   155d0:	9909      	ldr	r1, [sp, #36]
   155d2:	e7c5      	b	15560 <atan2+0x34>
   155d4:	fbb2f001 	bl	16d3c <__errno>
   155d8:	2321      	mov	r3, #33
   155da:	6003      	str	r3, [r0, #0]
   155dc:	e7f4      	b	155c8 <atan2+0x9c>
   155de:	fbadf001 	bl	16d3c <__errno>
   155e2:	9b0a      	ldr	r3, [sp, #40]
   155e4:	6003      	str	r3, [r0, #0]
   155e6:	e7f2      	b	155ce <atan2+0xa2>
   155e8:	8304      	strh	r4, [r0, #24]
   155ea:	0001      	lsl	r1, r0, #0
	...
   155f4:	830c      	strh	r4, [r1, #24]
   155f6:	0001      	lsl	r1, r0, #0

000155f8 <sqrt>:
   155f8:	b5f0      	push	{r4, r5, r6, r7, lr}
   155fa:	4657      	mov	r7, sl
   155fc:	4646      	mov	r6, r8
   155fe:	b4c0      	push	{r6, r7}
   15600:	b089      	sub	sp, #36
   15602:	1c0d      	mov	r5, r1		(add r5, r1, #0)
   15604:	1c04      	mov	r4, r0		(add r4, r0, #0)
   15606:	fbb9f000 	bl	15d7c <__ieee754_sqrt>
   1560a:	4b29      	ldr	r3, [pc, #164]	(156b0 <.text+0x116b0>)
   1560c:	681b      	ldr	r3, [r3, #0]
   1560e:	1c0f      	mov	r7, r1		(add r7, r1, #0)
   15610:	1c06      	mov	r6, r0		(add r6, r0, #0)
   15612:	4698      	mov	r8, r3
   15614:	3301      	add	r3, #1
   15616:	d006      	beq	15626 <sqrt+0x2e>
   15618:	1c29      	mov	r1, r5		(add r1, r5, #0)
   1561a:	1c20      	mov	r0, r4		(add r0, r4, #0)
   1561c:	fadaf001 	bl	16bd4 <isnan>
   15620:	2800      	cmp	r0, #0
   15622:	4682      	mov	sl, r0
   15624:	d008      	beq	15638 <sqrt+0x40>
   15626:	1c39      	mov	r1, r7		(add r1, r7, #0)
   15628:	1c30      	mov	r0, r6		(add r0, r6, #0)
   1562a:	b009      	add	sp, #36
   1562c:	bc18      	pop	{r3, r4}
   1562e:	4698      	mov	r8, r3
   15630:	46a2      	mov	sl, r4
   15632:	bcf0      	pop	{r4, r5, r6, r7}
   15634:	bc04      	pop	{r2}
   15636:	4710      	bx	r2
   15638:	1c29      	mov	r1, r5		(add r1, r5, #0)
   1563a:	1c20      	mov	r0, r4		(add r0, r4, #0)
   1563c:	4a1d      	ldr	r2, [pc, #116]	(156b4 <.text+0x116b4>)
   1563e:	4b1e      	ldr	r3, [pc, #120]	(156b8 <.text+0x116b8>)
   15640:	fcf8f002 	bl	18034 <____ltdf2_from_thumb>
   15644:	2800      	cmp	r0, #0
   15646:	daee      	bge	15626 <sqrt+0x2e>
   15648:	2301      	mov	r3, #1
   1564a:	9300      	str	r3, [sp, #0]
   1564c:	4b1b      	ldr	r3, [pc, #108]	(156bc <.text+0x116bc>)
   1564e:	9404      	str	r4, [sp, #16]
   15650:	9505      	str	r5, [sp, #20]
   15652:	9301      	str	r3, [sp, #4]
   15654:	9402      	str	r4, [sp, #8]
   15656:	9503      	str	r5, [sp, #12]
   15658:	4653      	mov	r3, sl
   1565a:	4644      	mov	r4, r8
   1565c:	9308      	str	r3, [sp, #32]
   1565e:	2c00      	cmp	r4, #0
   15660:	d016      	beq	15690 <sqrt+0x98>
   15662:	4814      	ldr	r0, [pc, #80]	(156b4 <.text+0x116b4>)
   15664:	4914      	ldr	r1, [pc, #80]	(156b8 <.text+0x116b8>)
   15666:	1c0b      	mov	r3, r1		(add r3, r1, #0)
   15668:	1c02      	mov	r2, r0		(add r2, r0, #0)
   1566a:	fcdbf002 	bl	18024 <____divdf3_from_thumb>
   1566e:	9006      	str	r0, [sp, #24]
   15670:	9107      	str	r1, [sp, #28]
   15672:	4b0f      	ldr	r3, [pc, #60]	(156b0 <.text+0x116b0>)
   15674:	681b      	ldr	r3, [r3, #0]
   15676:	2b02      	cmp	r3, #2
   15678:	d00f      	beq	1569a <sqrt+0xa2>
   1567a:	4668      	mov	r0, sp
   1567c:	fabef001 	bl	16bfc <matherr>
   15680:	2800      	cmp	r0, #0
   15682:	d00a      	beq	1569a <sqrt+0xa2>
   15684:	9b08      	ldr	r3, [sp, #32]
   15686:	2b00      	cmp	r3, #0
   15688:	d10c      	bne	156a4 <sqrt+0xac>
   1568a:	9806      	ldr	r0, [sp, #24]
   1568c:	9907      	ldr	r1, [sp, #28]
   1568e:	e7cc      	b	1562a <sqrt+0x32>
   15690:	4b08      	ldr	r3, [pc, #32]	(156b4 <.text+0x116b4>)
   15692:	4c09      	ldr	r4, [pc, #36]	(156b8 <.text+0x116b8>)
   15694:	9306      	str	r3, [sp, #24]
   15696:	9407      	str	r4, [sp, #28]
   15698:	e7eb      	b	15672 <sqrt+0x7a>
   1569a:	fb4ff001 	bl	16d3c <__errno>
   1569e:	2321      	mov	r3, #33
   156a0:	6003      	str	r3, [r0, #0]
   156a2:	e7ef      	b	15684 <sqrt+0x8c>
   156a4:	fb4af001 	bl	16d3c <__errno>
   156a8:	9b08      	ldr	r3, [sp, #32]
   156aa:	6003      	str	r3, [r0, #0]
   156ac:	e7ed      	b	1568a <sqrt+0x92>
   156ae:	0000      	lsl	r0, r0, #0
   156b0:	8304      	strh	r4, [r0, #24]
   156b2:	0001      	lsl	r1, r0, #0
	...
   156bc:	8314      	strh	r4, [r2, #24]
   156be:	0001      	lsl	r1, r0, #0

000156c0 <__ieee754_atan2>:
   156c0:	b5f0      	push	{r4, r5, r6, r7, lr}
   156c2:	4657      	mov	r7, sl
   156c4:	4646      	mov	r6, r8
   156c6:	b4c0      	push	{r6, r7}
   156c8:	1c1e      	mov	r6, r3		(add r6, r3, #0)
   156ca:	1c15      	mov	r5, r2		(add r5, r2, #0)
   156cc:	1c1c      	mov	r4, r3		(add r4, r3, #0)
   156ce:	1c13      	mov	r3, r2		(add r3, r2, #0)
   156d0:	4a69      	ldr	r2, [pc, #420]	(15878 <.text+0x11878>)
   156d2:	b082      	sub	sp, #8
   156d4:	9000      	str	r0, [sp, #0]
   156d6:	9101      	str	r1, [sp, #4]
   156d8:	4698      	mov	r8, r3
   156da:	4013      	and	r3, r2
   156dc:	1c21      	mov	r1, r4		(add r1, r4, #0)
   156de:	469c      	mov	ip, r3
   156e0:	9b00      	ldr	r3, [sp, #0]
   156e2:	9c01      	ldr	r4, [sp, #4]
   156e4:	1c1f      	mov	r7, r3		(add r7, r3, #0)
   156e6:	1c20      	mov	r0, r4		(add r0, r4, #0)
   156e8:	1c1c      	mov	r4, r3		(add r4, r3, #0)
   156ea:	424b      	neg	r3, r1
   156ec:	430b      	orr	r3, r1
   156ee:	4014      	and	r4, r2
   156f0:	0fdb      	lsr	r3, r3, #31
   156f2:	4662      	mov	r2, ip
   156f4:	4313      	orr	r3, r2
   156f6:	4a61      	ldr	r2, [pc, #388]	(1587c <.text+0x1187c>)
   156f8:	4293      	cmp	r3, r2
   156fa:	d805      	bhi	15708 <__ieee754_atan2+0x48>
   156fc:	4243      	neg	r3, r0
   156fe:	4303      	orr	r3, r0
   15700:	0fdb      	lsr	r3, r3, #31
   15702:	4323      	orr	r3, r4
   15704:	4293      	cmp	r3, r2
   15706:	d90c      	bls	15722 <__ieee754_atan2+0x62>
   15708:	1c31      	mov	r1, r6		(add r1, r6, #0)
   1570a:	1c28      	mov	r0, r5		(add r0, r5, #0)
   1570c:	9a00      	ldr	r2, [sp, #0]
   1570e:	9b01      	ldr	r3, [sp, #4]
   15710:	fc78f002 	bl	18004 <____adddf3_from_thumb>
   15714:	b002      	add	sp, #8
   15716:	bc18      	pop	{r3, r4}
   15718:	4698      	mov	r8, r3
   1571a:	46a2      	mov	sl, r4
   1571c:	bcf0      	pop	{r4, r5, r6, r7}
   1571e:	bc04      	pop	{r2}
   15720:	4710      	bx	r2
   15722:	4b57      	ldr	r3, [pc, #348]	(15880 <.text+0x11880>)
   15724:	4443      	add	r3, r8
   15726:	430b      	orr	r3, r1
   15728:	d014      	beq	15754 <__ieee754_atan2+0x94>
   1572a:	0ffb      	lsr	r3, r7, #31
   1572c:	4642      	mov	r2, r8
   1572e:	469a      	mov	sl, r3
   15730:	1793      	asr	r3, r2, #30
   15732:	2202      	mov	r2, #2
   15734:	4013      	and	r3, r2
   15736:	4652      	mov	r2, sl
   15738:	431a      	orr	r2, r3
   1573a:	4692      	mov	sl, r2
   1573c:	4320      	orr	r0, r4
   1573e:	d10e      	bne	1575e <__ieee754_atan2+0x9e>
   15740:	2a02      	cmp	r2, #2
   15742:	d100      	bne	15746 <__ieee754_atan2+0x86>
   15744:	e085      	b	15852 <__ieee754_atan2+0x192>
   15746:	2a02      	cmp	r2, #2
   15748:	dc2f      	bgt	157aa <__ieee754_atan2+0xea>
   1574a:	2a00      	cmp	r2, #0
   1574c:	db07      	blt	1575e <__ieee754_atan2+0x9e>
   1574e:	9800      	ldr	r0, [sp, #0]
   15750:	9901      	ldr	r1, [sp, #4]
   15752:	e7df      	b	15714 <__ieee754_atan2+0x54>
   15754:	9800      	ldr	r0, [sp, #0]
   15756:	9901      	ldr	r1, [sp, #4]
   15758:	fc74f7ff 	bl	15044 <atan>
   1575c:	e7da      	b	15714 <__ieee754_atan2+0x54>
   1575e:	4662      	mov	r2, ip
   15760:	430a      	orr	r2, r1
   15762:	d01d      	beq	157a0 <__ieee754_atan2+0xe0>
   15764:	4b45      	ldr	r3, [pc, #276]	(1587c <.text+0x1187c>)
   15766:	459c      	cmp	ip, r3
   15768:	d024      	beq	157b4 <__ieee754_atan2+0xf4>
   1576a:	4b44      	ldr	r3, [pc, #272]	(1587c <.text+0x1187c>)
   1576c:	429c      	cmp	r4, r3
   1576e:	d017      	beq	157a0 <__ieee754_atan2+0xe0>
   15770:	4662      	mov	r2, ip
   15772:	1aa3      	sub	r3, r4, r2
   15774:	151b      	asr	r3, r3, #20
   15776:	2b3c      	cmp	r3, #60
   15778:	dd29      	ble	157ce <__ieee754_atan2+0x10e>
   1577a:	4842      	ldr	r0, [pc, #264]	(15884 <.text+0x11884>)
   1577c:	4942      	ldr	r1, [pc, #264]	(15888 <.text+0x11888>)
   1577e:	4653      	mov	r3, sl
   15780:	2b01      	cmp	r3, #1
   15782:	d035      	beq	157f0 <__ieee754_atan2+0x130>
   15784:	2b01      	cmp	r3, #1
   15786:	dd4e      	ble	15826 <__ieee754_atan2+0x166>
   15788:	4652      	mov	r2, sl
   1578a:	2a02      	cmp	r2, #2
   1578c:	d040      	beq	15810 <__ieee754_atan2+0x150>
   1578e:	4a3f      	ldr	r2, [pc, #252]	(1588c <.text+0x1188c>)
   15790:	4b3f      	ldr	r3, [pc, #252]	(15890 <.text+0x11890>)
   15792:	fc3ff002 	bl	18014 <____subdf3_from_thumb>
   15796:	4a3f      	ldr	r2, [pc, #252]	(15894 <.text+0x11894>)
   15798:	4b3f      	ldr	r3, [pc, #252]	(15898 <.text+0x11898>)
   1579a:	fc3bf002 	bl	18014 <____subdf3_from_thumb>
   1579e:	e7b9      	b	15714 <__ieee754_atan2+0x54>
   157a0:	2f00      	cmp	r7, #0
   157a2:	db22      	blt	157ea <__ieee754_atan2+0x12a>
   157a4:	4837      	ldr	r0, [pc, #220]	(15884 <.text+0x11884>)
   157a6:	4938      	ldr	r1, [pc, #224]	(15888 <.text+0x11888>)
   157a8:	e7b4      	b	15714 <__ieee754_atan2+0x54>
   157aa:	2a03      	cmp	r2, #3
   157ac:	d1d7      	bne	1575e <__ieee754_atan2+0x9e>
   157ae:	483b      	ldr	r0, [pc, #236]	(1589c <.text+0x1189c>)
   157b0:	493b      	ldr	r1, [pc, #236]	(158a0 <.text+0x118a0>)
   157b2:	e7af      	b	15714 <__ieee754_atan2+0x54>
   157b4:	4564      	cmp	r4, ip
   157b6:	d03a      	beq	1582e <__ieee754_atan2+0x16e>
   157b8:	4653      	mov	r3, sl
   157ba:	2b01      	cmp	r3, #1
   157bc:	d052      	beq	15864 <__ieee754_atan2+0x1a4>
   157be:	2b01      	cmp	r3, #1
   157c0:	dd42      	ble	15848 <__ieee754_atan2+0x188>
   157c2:	4652      	mov	r2, sl
   157c4:	2a02      	cmp	r2, #2
   157c6:	d044      	beq	15852 <__ieee754_atan2+0x192>
   157c8:	2a03      	cmp	r2, #3
   157ca:	d1ce      	bne	1576a <__ieee754_atan2+0xaa>
   157cc:	e7ef      	b	157ae <__ieee754_atan2+0xee>
   157ce:	4642      	mov	r2, r8
   157d0:	2a00      	cmp	r2, #0
   157d2:	db18      	blt	15806 <__ieee754_atan2+0x146>
   157d4:	1c33      	mov	r3, r6		(add r3, r6, #0)
   157d6:	1c2a      	mov	r2, r5		(add r2, r5, #0)
   157d8:	9800      	ldr	r0, [sp, #0]
   157da:	9901      	ldr	r1, [sp, #4]
   157dc:	fc22f002 	bl	18024 <____divdf3_from_thumb>
   157e0:	fe36f7ff 	bl	15450 <fabs>
   157e4:	fc2ef7ff 	bl	15044 <atan>
   157e8:	e7c9      	b	1577e <__ieee754_atan2+0xbe>
   157ea:	482e      	ldr	r0, [pc, #184]	(158a4 <.text+0x118a4>)
   157ec:	492e      	ldr	r1, [pc, #184]	(158a8 <.text+0x118a8>)
   157ee:	e791      	b	15714 <__ieee754_atan2+0x54>
   157f0:	1c0c      	mov	r4, r1		(add r4, r1, #0)
   157f2:	1c03      	mov	r3, r0		(add r3, r0, #0)
   157f4:	1c0a      	mov	r2, r1		(add r2, r1, #0)
   157f6:	1c01      	mov	r1, r0		(add r1, r0, #0)
   157f8:	2080      	mov	r0, #128
   157fa:	0600      	lsl	r0, r0, #24
   157fc:	1c01      	mov	r1, r0		(add r1, r0, #0)
   157fe:	4059      	eor	r1, r3
   15800:	1c08      	mov	r0, r1		(add r0, r1, #0)
   15802:	1c11      	mov	r1, r2		(add r1, r2, #0)
   15804:	e786      	b	15714 <__ieee754_atan2+0x54>
   15806:	333c      	add	r3, #60
   15808:	dae4      	bge	157d4 <__ieee754_atan2+0x114>
   1580a:	4828      	ldr	r0, [pc, #160]	(158ac <.text+0x118ac>)
   1580c:	4928      	ldr	r1, [pc, #160]	(158b0 <.text+0x118b0>)
   1580e:	e7b6      	b	1577e <__ieee754_atan2+0xbe>
   15810:	4a1e      	ldr	r2, [pc, #120]	(1588c <.text+0x1188c>)
   15812:	4b1f      	ldr	r3, [pc, #124]	(15890 <.text+0x11890>)
   15814:	fbfef002 	bl	18014 <____subdf3_from_thumb>
   15818:	1c0b      	mov	r3, r1		(add r3, r1, #0)
   1581a:	1c02      	mov	r2, r0		(add r2, r0, #0)
   1581c:	481d      	ldr	r0, [pc, #116]	(15894 <.text+0x11894>)
   1581e:	491e      	ldr	r1, [pc, #120]	(15898 <.text+0x11898>)
   15820:	fbf8f002 	bl	18014 <____subdf3_from_thumb>
   15824:	e776      	b	15714 <__ieee754_atan2+0x54>
   15826:	2b00      	cmp	r3, #0
   15828:	d100      	bne	1582c <__ieee754_atan2+0x16c>
   1582a:	e773      	b	15714 <__ieee754_atan2+0x54>
   1582c:	e7af      	b	1578e <__ieee754_atan2+0xce>
   1582e:	4653      	mov	r3, sl
   15830:	2b01      	cmp	r3, #1
   15832:	d01a      	beq	1586a <__ieee754_atan2+0x1aa>
   15834:	2b01      	cmp	r3, #1
   15836:	dd0f      	ble	15858 <__ieee754_atan2+0x198>
   15838:	4652      	mov	r2, sl
   1583a:	2a02      	cmp	r2, #2
   1583c:	d018      	beq	15870 <__ieee754_atan2+0x1b0>
   1583e:	2a03      	cmp	r2, #3
   15840:	d193      	bne	1576a <__ieee754_atan2+0xaa>
   15842:	481c      	ldr	r0, [pc, #112]	(158b4 <.text+0x118b4>)
   15844:	491c      	ldr	r1, [pc, #112]	(158b8 <.text+0x118b8>)
   15846:	e765      	b	15714 <__ieee754_atan2+0x54>
   15848:	2b00      	cmp	r3, #0
   1584a:	d18e      	bne	1576a <__ieee754_atan2+0xaa>
   1584c:	4817      	ldr	r0, [pc, #92]	(158ac <.text+0x118ac>)
   1584e:	4918      	ldr	r1, [pc, #96]	(158b0 <.text+0x118b0>)
   15850:	e760      	b	15714 <__ieee754_atan2+0x54>
   15852:	4810      	ldr	r0, [pc, #64]	(15894 <.text+0x11894>)
   15854:	4910      	ldr	r1, [pc, #64]	(15898 <.text+0x11898>)
   15856:	e75d      	b	15714 <__ieee754_atan2+0x54>
   15858:	2b00      	cmp	r3, #0
   1585a:	d000      	beq	1585e <__ieee754_atan2+0x19e>
   1585c:	e785      	b	1576a <__ieee754_atan2+0xaa>
   1585e:	4817      	ldr	r0, [pc, #92]	(158bc <.text+0x118bc>)
   15860:	4917      	ldr	r1, [pc, #92]	(158c0 <.text+0x118c0>)
   15862:	e757      	b	15714 <__ieee754_atan2+0x54>
   15864:	4817      	ldr	r0, [pc, #92]	(158c4 <.text+0x118c4>)
   15866:	4918      	ldr	r1, [pc, #96]	(158c8 <.text+0x118c8>)
   15868:	e754      	b	15714 <__ieee754_atan2+0x54>
   1586a:	4818      	ldr	r0, [pc, #96]	(158cc <.text+0x118cc>)
   1586c:	4918      	ldr	r1, [pc, #96]	(158d0 <.text+0x118d0>)
   1586e:	e751      	b	15714 <__ieee754_atan2+0x54>
   15870:	4818      	ldr	r0, [pc, #96]	(158d4 <.text+0x118d4>)
   15872:	4919      	ldr	r1, [pc, #100]	(158d8 <.text+0x118d8>)
   15874:	e74e      	b	15714 <__ieee754_atan2+0x54>
   15876:	0000      	lsl	r0, r0, #0
   15878:	ffff      	second half of BL instruction 0xffff
   1587a:	7fff      	ldrb	r7, [r7, #31]
   1587c:	0000      	lsl	r0, r0, #0
   1587e:	7ff0      	ldrb	r0, [r6, #31]
   15880:	0000      	lsl	r0, r0, #0
   15882:	c010      	stmia	r0!,{r4}
   15884:	21fb      	mov	r1, #251
   15886:	3ff9      	sub	r7, #249
   15888:	2d18      	cmp	r5, #24
   1588a:	5444      	strb	r4, [r0, r1]
   1588c:	a626      	add	r6, pc, #152	(adr r6,15928 <__ieee754_rem_pio2+0x4c>)
   1588e:	3ca1      	sub	r4, #161
   15890:	5c07      	ldrb	r7, [r0, r0]
   15892:	3314      	add	r3, #20
   15894:	21fb      	mov	r1, #251
   15896:	4009      	and	r1, r1
   15898:	2d18      	cmp	r5, #24
   1589a:	5444      	strb	r4, [r0, r1]
   1589c:	21fb      	mov	r1, #251
   1589e:	c009      	stmia	r0!,{r0, r3}
   158a0:	2d18      	cmp	r5, #24
   158a2:	5444      	strb	r4, [r0, r1]
   158a4:	21fb      	mov	r1, #251
   158a6:	bff9      	undefined instruction 0xbff9
   158a8:	2d18      	cmp	r5, #24
   158aa:	5444      	strb	r4, [r0, r1]
	...
   158b4:	d97c      	bls	159b0 <__ieee754_rem_pio2+0xd4>
   158b6:	c002      	stmia	r0!,{r1}
   158b8:	21d2      	mov	r1, #210
   158ba:	7f33      	ldrb	r3, [r6, #28]
   158bc:	21fb      	mov	r1, #251
   158be:	3fe9      	sub	r7, #233
   158c0:	2d18      	cmp	r5, #24
   158c2:	5444      	strb	r4, [r0, r1]
   158c4:	0000      	lsl	r0, r0, #0
   158c6:	8000      	strh	r0, [r0, #0]
   158c8:	0000      	lsl	r0, r0, #0
   158ca:	0000      	lsl	r0, r0, #0
   158cc:	21fb      	mov	r1, #251
   158ce:	bfe9      	undefined instruction 0xbfe9
   158d0:	2d18      	cmp	r5, #24
   158d2:	5444      	strb	r4, [r0, r1]
   158d4:	d97c      	bls	159d0 <__ieee754_rem_pio2+0xf4>
   158d6:	4002      	and	r2, r0
   158d8:	21d2      	mov	r1, #210
   158da:	7f33      	ldrb	r3, [r6, #28]

000158dc <__ieee754_rem_pio2>:
   158dc:	b5f0      	push	{r4, r5, r6, r7, lr}
   158de:	465f      	mov	r7, fp
   158e0:	4656      	mov	r6, sl
   158e2:	464d      	mov	r5, r9
   158e4:	4644      	mov	r4, r8
   158e6:	b4f0      	push	{r4, r5, r6, r7}
   158e8:	4fca      	ldr	r7, [pc, #808]	(15c14 <.text+0x11c14>)
   158ea:	4bcb      	ldr	r3, [pc, #812]	(15c18 <.text+0x11c18>)
   158ec:	4007      	and	r7, r0
   158ee:	b096      	sub	sp, #88
   158f0:	1c0e      	mov	r6, r1		(add r6, r1, #0)
   158f2:	1c05      	mov	r5, r0		(add r5, r0, #0)
   158f4:	4690      	mov	r8, r2
   158f6:	4682      	mov	sl, r0
   158f8:	429f      	cmp	r7, r3
   158fa:	dc0f      	bgt	1591c <__ieee754_rem_pio2+0x40>
   158fc:	4bc7      	ldr	r3, [pc, #796]	(15c1c <.text+0x11c1c>)
   158fe:	4cc8      	ldr	r4, [pc, #800]	(15c20 <.text+0x11c20>)
   15900:	6015      	str	r5, [r2, #0]
   15902:	6056      	str	r6, [r2, #4]
   15904:	6093      	str	r3, [r2, #8]
   15906:	60d4      	str	r4, [r2, #12]
   15908:	2000      	mov	r0, #0
   1590a:	b016      	add	sp, #88
   1590c:	bc78      	pop	{r3, r4, r5, r6}
   1590e:	4698      	mov	r8, r3
   15910:	46a1      	mov	r9, r4
   15912:	46aa      	mov	sl, r5
   15914:	46b3      	mov	fp, r6
   15916:	bcf0      	pop	{r4, r5, r6, r7}
   15918:	bc02      	pop	{r1}
   1591a:	4708      	bx	r1
   1591c:	4bc1      	ldr	r3, [pc, #772]	(15c24 <.text+0x11c24>)
   1591e:	429f      	cmp	r7, r3
   15920:	dc24      	bgt	1596c <__ieee754_rem_pio2+0x90>
   15922:	2800      	cmp	r0, #0
   15924:	dc00      	bgt	15928 <__ieee754_rem_pio2+0x4c>
   15926:	e1cf      	b	15cc8 <.text+0x11cc8>
   15928:	4abf      	ldr	r2, [pc, #764]	(15c28 <.text+0x11c28>)
   1592a:	4bc0      	ldr	r3, [pc, #768]	(15c2c <.text+0x11c2c>)
   1592c:	fb72f002 	bl	18014 <____subdf3_from_thumb>
   15930:	4bbf      	ldr	r3, [pc, #764]	(15c30 <.text+0x11c30>)
   15932:	900e      	str	r0, [sp, #56]
   15934:	910f      	str	r1, [sp, #60]
   15936:	429f      	cmp	r7, r3
   15938:	d100      	bne	1593c <__ieee754_rem_pio2+0x60>
   1593a:	e0ee      	b	15b1a <__ieee754_rem_pio2+0x23e>
   1593c:	4abd      	ldr	r2, [pc, #756]	(15c34 <.text+0x11c34>)
   1593e:	4bbe      	ldr	r3, [pc, #760]	(15c38 <.text+0x11c38>)
   15940:	fb68f002 	bl	18014 <____subdf3_from_thumb>
   15944:	4644      	mov	r4, r8
   15946:	1c0e      	mov	r6, r1		(add r6, r1, #0)
   15948:	1c05      	mov	r5, r0		(add r5, r0, #0)
   1594a:	6020      	str	r0, [r4, #0]
   1594c:	6061      	str	r1, [r4, #4]
   1594e:	1c33      	mov	r3, r6		(add r3, r6, #0)
   15950:	1c2a      	mov	r2, r5		(add r2, r5, #0)
   15952:	980e      	ldr	r0, [sp, #56]
   15954:	990f      	ldr	r1, [sp, #60]
   15956:	fb5df002 	bl	18014 <____subdf3_from_thumb>
   1595a:	4ab6      	ldr	r2, [pc, #728]	(15c34 <.text+0x11c34>)
   1595c:	4bb6      	ldr	r3, [pc, #728]	(15c38 <.text+0x11c38>)
   1595e:	fb59f002 	bl	18014 <____subdf3_from_thumb>
   15962:	4642      	mov	r2, r8
   15964:	6090      	str	r0, [r2, #8]
   15966:	60d1      	str	r1, [r2, #12]
   15968:	2001      	mov	r0, #1
   1596a:	e7ce      	b	1590a <__ieee754_rem_pio2+0x2e>
   1596c:	4bb3      	ldr	r3, [pc, #716]	(15c3c <.text+0x11c3c>)
   1596e:	429f      	cmp	r7, r3
   15970:	dd0e      	ble	15990 <__ieee754_rem_pio2+0xb4>
   15972:	4bb3      	ldr	r3, [pc, #716]	(15c40 <.text+0x11c40>)
   15974:	429f      	cmp	r7, r3
   15976:	dc00      	bgt	1597a <__ieee754_rem_pio2+0x9e>
   15978:	e0ef      	b	15b5a <__ieee754_rem_pio2+0x27e>
   1597a:	1c33      	mov	r3, r6		(add r3, r6, #0)
   1597c:	1c2a      	mov	r2, r5		(add r2, r5, #0)
   1597e:	fb49f002 	bl	18014 <____subdf3_from_thumb>
   15982:	4644      	mov	r4, r8
   15984:	4642      	mov	r2, r8
   15986:	60a0      	str	r0, [r4, #8]
   15988:	60e1      	str	r1, [r4, #12]
   1598a:	6010      	str	r0, [r2, #0]
   1598c:	6051      	str	r1, [r2, #4]
   1598e:	e7bb      	b	15908 <__ieee754_rem_pio2+0x2c>
   15990:	fd5ef7ff 	bl	15450 <fabs>
   15994:	4aab      	ldr	r2, [pc, #684]	(15c44 <.text+0x11c44>)
   15996:	4bac      	ldr	r3, [pc, #688]	(15c48 <.text+0x11c48>)
   15998:	900a      	str	r0, [sp, #40]
   1599a:	910b      	str	r1, [sp, #44]
   1599c:	fb36f002 	bl	1800c <____muldf3_from_thumb>
   159a0:	4aaa      	ldr	r2, [pc, #680]	(15c4c <.text+0x11c4c>)
   159a2:	4bab      	ldr	r3, [pc, #684]	(15c50 <.text+0x11c50>)
   159a4:	fb2ef002 	bl	18004 <____adddf3_from_thumb>
   159a8:	fb48f002 	bl	1803c <____fixdfsi_from_thumb>
   159ac:	4681      	mov	r9, r0
   159ae:	fb49f002 	bl	18044 <____floatsidf_from_thumb>
   159b2:	4a9d      	ldr	r2, [pc, #628]	(15c28 <.text+0x11c28>)
   159b4:	4b9d      	ldr	r3, [pc, #628]	(15c2c <.text+0x11c2c>)
   159b6:	9006      	str	r0, [sp, #24]
   159b8:	9107      	str	r1, [sp, #28]
   159ba:	fb27f002 	bl	1800c <____muldf3_from_thumb>
   159be:	1c0b      	mov	r3, r1		(add r3, r1, #0)
   159c0:	1c02      	mov	r2, r0		(add r2, r0, #0)
   159c2:	980a      	ldr	r0, [sp, #40]
   159c4:	990b      	ldr	r1, [sp, #44]
   159c6:	fb25f002 	bl	18014 <____subdf3_from_thumb>
   159ca:	4a9a      	ldr	r2, [pc, #616]	(15c34 <.text+0x11c34>)
   159cc:	4b9a      	ldr	r3, [pc, #616]	(15c38 <.text+0x11c38>)
   159ce:	9008      	str	r0, [sp, #32]
   159d0:	9109      	str	r1, [sp, #36]
   159d2:	9806      	ldr	r0, [sp, #24]
   159d4:	9907      	ldr	r1, [sp, #28]
   159d6:	fb19f002 	bl	1800c <____muldf3_from_thumb>
   159da:	900c      	str	r0, [sp, #48]
   159dc:	910d      	str	r1, [sp, #52]
   159de:	4649      	mov	r1, r9
   159e0:	291f      	cmp	r1, #31
   159e2:	dc00      	bgt	159e6 <__ieee754_rem_pio2+0x10a>
   159e4:	e154      	b	15c90 <.text+0x11c90>
   159e6:	9a0c      	ldr	r2, [sp, #48]
   159e8:	9b0d      	ldr	r3, [sp, #52]
   159ea:	9808      	ldr	r0, [sp, #32]
   159ec:	9909      	ldr	r1, [sp, #36]
   159ee:	fb11f002 	bl	18014 <____subdf3_from_thumb>
   159f2:	4a98      	ldr	r2, [pc, #608]	(15c54 <.text+0x11c54>)
   159f4:	0d03      	lsr	r3, r0, #20
   159f6:	153f      	asr	r7, r7, #20
   159f8:	4013      	and	r3, r2
   159fa:	1afc      	sub	r4, r7, r3
   159fc:	1c0e      	mov	r6, r1		(add r6, r1, #0)
   159fe:	1c05      	mov	r5, r0		(add r5, r0, #0)
   15a00:	4693      	mov	fp, r2
   15a02:	2c10      	cmp	r4, #16
   15a04:	dc00      	bgt	15a08 <__ieee754_rem_pio2+0x12c>
   15a06:	e06f      	b	15ae8 <__ieee754_rem_pio2+0x20c>
   15a08:	9b08      	ldr	r3, [sp, #32]
   15a0a:	9c09      	ldr	r4, [sp, #36]
   15a0c:	9806      	ldr	r0, [sp, #24]
   15a0e:	9907      	ldr	r1, [sp, #28]
   15a10:	930a      	str	r3, [sp, #40]
   15a12:	940b      	str	r4, [sp, #44]
   15a14:	4a90      	ldr	r2, [pc, #576]	(15c58 <.text+0x11c58>)
   15a16:	4b91      	ldr	r3, [pc, #580]	(15c5c <.text+0x11c5c>)
   15a18:	faf8f002 	bl	1800c <____muldf3_from_thumb>
   15a1c:	900c      	str	r0, [sp, #48]
   15a1e:	910d      	str	r1, [sp, #52]
   15a20:	9a0c      	ldr	r2, [sp, #48]
   15a22:	9b0d      	ldr	r3, [sp, #52]
   15a24:	980a      	ldr	r0, [sp, #40]
   15a26:	990b      	ldr	r1, [sp, #44]
   15a28:	faf4f002 	bl	18014 <____subdf3_from_thumb>
   15a2c:	4a8c      	ldr	r2, [pc, #560]	(15c60 <.text+0x11c60>)
   15a2e:	4b8d      	ldr	r3, [pc, #564]	(15c64 <.text+0x11c64>)
   15a30:	9008      	str	r0, [sp, #32]
   15a32:	9109      	str	r1, [sp, #36]
   15a34:	9004      	str	r0, [sp, #16]
   15a36:	9105      	str	r1, [sp, #20]
   15a38:	9806      	ldr	r0, [sp, #24]
   15a3a:	9907      	ldr	r1, [sp, #28]
   15a3c:	fae6f002 	bl	1800c <____muldf3_from_thumb>
   15a40:	9a08      	ldr	r2, [sp, #32]
   15a42:	9b09      	ldr	r3, [sp, #36]
   15a44:	1c0d      	mov	r5, r1		(add r5, r1, #0)
   15a46:	1c04      	mov	r4, r0		(add r4, r0, #0)
   15a48:	980a      	ldr	r0, [sp, #40]
   15a4a:	990b      	ldr	r1, [sp, #44]
   15a4c:	fae2f002 	bl	18014 <____subdf3_from_thumb>
   15a50:	9a0c      	ldr	r2, [sp, #48]
   15a52:	9b0d      	ldr	r3, [sp, #52]
   15a54:	fadef002 	bl	18014 <____subdf3_from_thumb>
   15a58:	1c0b      	mov	r3, r1		(add r3, r1, #0)
   15a5a:	1c02      	mov	r2, r0		(add r2, r0, #0)
   15a5c:	1c29      	mov	r1, r5		(add r1, r5, #0)
   15a5e:	1c20      	mov	r0, r4		(add r0, r4, #0)
   15a60:	fad8f002 	bl	18014 <____subdf3_from_thumb>
   15a64:	900c      	str	r0, [sp, #48]
   15a66:	910d      	str	r1, [sp, #52]
   15a68:	9a0c      	ldr	r2, [sp, #48]
   15a6a:	9b0d      	ldr	r3, [sp, #52]
   15a6c:	9808      	ldr	r0, [sp, #32]
   15a6e:	9909      	ldr	r1, [sp, #36]
   15a70:	fad0f002 	bl	18014 <____subdf3_from_thumb>
   15a74:	465c      	mov	r4, fp
   15a76:	0d03      	lsr	r3, r0, #20
   15a78:	4023      	and	r3, r4
   15a7a:	1afc      	sub	r4, r7, r3
   15a7c:	1c0e      	mov	r6, r1		(add r6, r1, #0)
   15a7e:	1c05      	mov	r5, r0		(add r5, r0, #0)
   15a80:	2c31      	cmp	r4, #49
   15a82:	dd31      	ble	15ae8 <__ieee754_rem_pio2+0x20c>
   15a84:	4a78      	ldr	r2, [pc, #480]	(15c68 <.text+0x11c68>)
   15a86:	4b79      	ldr	r3, [pc, #484]	(15c6c <.text+0x11c6c>)
   15a88:	9806      	ldr	r0, [sp, #24]
   15a8a:	9907      	ldr	r1, [sp, #28]
   15a8c:	fabef002 	bl	1800c <____muldf3_from_thumb>
   15a90:	900c      	str	r0, [sp, #48]
   15a92:	910d      	str	r1, [sp, #52]
   15a94:	9a0c      	ldr	r2, [sp, #48]
   15a96:	9b0d      	ldr	r3, [sp, #52]
   15a98:	9808      	ldr	r0, [sp, #32]
   15a9a:	9909      	ldr	r1, [sp, #36]
   15a9c:	fabaf002 	bl	18014 <____subdf3_from_thumb>
   15aa0:	4a73      	ldr	r2, [pc, #460]	(15c70 <.text+0x11c70>)
   15aa2:	4b74      	ldr	r3, [pc, #464]	(15c74 <.text+0x11c74>)
   15aa4:	9008      	str	r0, [sp, #32]
   15aa6:	9109      	str	r1, [sp, #36]
   15aa8:	9806      	ldr	r0, [sp, #24]
   15aaa:	9907      	ldr	r1, [sp, #28]
   15aac:	faaef002 	bl	1800c <____muldf3_from_thumb>
   15ab0:	9a08      	ldr	r2, [sp, #32]
   15ab2:	9b09      	ldr	r3, [sp, #36]
   15ab4:	1c0d      	mov	r5, r1		(add r5, r1, #0)
   15ab6:	1c04      	mov	r4, r0		(add r4, r0, #0)
   15ab8:	9804      	ldr	r0, [sp, #16]
   15aba:	9905      	ldr	r1, [sp, #20]
   15abc:	faaaf002 	bl	18014 <____subdf3_from_thumb>
   15ac0:	9a0c      	ldr	r2, [sp, #48]
   15ac2:	9b0d      	ldr	r3, [sp, #52]
   15ac4:	faa6f002 	bl	18014 <____subdf3_from_thumb>
   15ac8:	1c0b      	mov	r3, r1		(add r3, r1, #0)
   15aca:	1c02      	mov	r2, r0		(add r2, r0, #0)
   15acc:	1c29      	mov	r1, r5		(add r1, r5, #0)
   15ace:	1c20      	mov	r0, r4		(add r0, r4, #0)
   15ad0:	faa0f002 	bl	18014 <____subdf3_from_thumb>
   15ad4:	900c      	str	r0, [sp, #48]
   15ad6:	910d      	str	r1, [sp, #52]
   15ad8:	9808      	ldr	r0, [sp, #32]
   15ada:	9909      	ldr	r1, [sp, #36]
   15adc:	9a0c      	ldr	r2, [sp, #48]
   15ade:	9b0d      	ldr	r3, [sp, #52]
   15ae0:	fa98f002 	bl	18014 <____subdf3_from_thumb>
   15ae4:	1c0e      	mov	r6, r1		(add r6, r1, #0)
   15ae6:	1c05      	mov	r5, r0		(add r5, r0, #0)
   15ae8:	1c33      	mov	r3, r6		(add r3, r6, #0)
   15aea:	1c2a      	mov	r2, r5		(add r2, r5, #0)
   15aec:	9808      	ldr	r0, [sp, #32]
   15aee:	9909      	ldr	r1, [sp, #36]
   15af0:	fa90f002 	bl	18014 <____subdf3_from_thumb>
   15af4:	9a0c      	ldr	r2, [sp, #48]
   15af6:	9b0d      	ldr	r3, [sp, #52]
   15af8:	fa8cf002 	bl	18014 <____subdf3_from_thumb>
   15afc:	9002      	str	r0, [sp, #8]
   15afe:	9103      	str	r1, [sp, #12]
   15b00:	4651      	mov	r1, sl
   15b02:	2900      	cmp	r1, #0
   15b04:	da00      	bge	15b08 <__ieee754_rem_pio2+0x22c>
   15b06:	e0cc      	b	15ca2 <.text+0x11ca2>
   15b08:	9902      	ldr	r1, [sp, #8]
   15b0a:	9a03      	ldr	r2, [sp, #12]
   15b0c:	4643      	mov	r3, r8
   15b0e:	601d      	str	r5, [r3, #0]
   15b10:	605e      	str	r6, [r3, #4]
   15b12:	6099      	str	r1, [r3, #8]
   15b14:	60da      	str	r2, [r3, #12]
   15b16:	4648      	mov	r0, r9
   15b18:	e6f7      	b	1590a <__ieee754_rem_pio2+0x2e>
   15b1a:	980e      	ldr	r0, [sp, #56]
   15b1c:	990f      	ldr	r1, [sp, #60]
   15b1e:	4a4e      	ldr	r2, [pc, #312]	(15c58 <.text+0x11c58>)
   15b20:	4b4e      	ldr	r3, [pc, #312]	(15c5c <.text+0x11c5c>)
   15b22:	fa77f002 	bl	18014 <____subdf3_from_thumb>
   15b26:	4a4e      	ldr	r2, [pc, #312]	(15c60 <.text+0x11c60>)
   15b28:	4b4e      	ldr	r3, [pc, #312]	(15c64 <.text+0x11c64>)
   15b2a:	900e      	str	r0, [sp, #56]
   15b2c:	910f      	str	r1, [sp, #60]
   15b2e:	fa71f002 	bl	18014 <____subdf3_from_thumb>
   15b32:	4643      	mov	r3, r8
   15b34:	1c0e      	mov	r6, r1		(add r6, r1, #0)
   15b36:	1c05      	mov	r5, r0		(add r5, r0, #0)
   15b38:	6018      	str	r0, [r3, #0]
   15b3a:	6059      	str	r1, [r3, #4]
   15b3c:	1c33      	mov	r3, r6		(add r3, r6, #0)
   15b3e:	1c2a      	mov	r2, r5		(add r2, r5, #0)
   15b40:	980e      	ldr	r0, [sp, #56]
   15b42:	990f      	ldr	r1, [sp, #60]
   15b44:	fa66f002 	bl	18014 <____subdf3_from_thumb>
   15b48:	4a45      	ldr	r2, [pc, #276]	(15c60 <.text+0x11c60>)
   15b4a:	4b46      	ldr	r3, [pc, #280]	(15c64 <.text+0x11c64>)
   15b4c:	fa62f002 	bl	18014 <____subdf3_from_thumb>
   15b50:	4644      	mov	r4, r8
   15b52:	60a0      	str	r0, [r4, #8]
   15b54:	60e1      	str	r1, [r4, #12]
   15b56:	2001      	mov	r0, #1
   15b58:	e6d7      	b	1590a <__ieee754_rem_pio2+0x2e>
   15b5a:	9b0e      	ldr	r3, [sp, #56]
   15b5c:	9c0f      	ldr	r4, [sp, #60]
   15b5e:	1c0a      	mov	r2, r1		(add r2, r1, #0)
   15b60:	1c01      	mov	r1, r0		(add r1, r0, #0)
   15b62:	1c14      	mov	r4, r2		(add r4, r2, #0)
   15b64:	930e      	str	r3, [sp, #56]
   15b66:	940f      	str	r4, [sp, #60]
   15b68:	4c43      	ldr	r4, [pc, #268]	(15c78 <.text+0x11c78>)
   15b6a:	153b      	asr	r3, r7, #20
   15b6c:	18e4      	add	r4, r4, r3
   15b6e:	46a1      	mov	r9, r4
   15b70:	4649      	mov	r1, r9
   15b72:	9b0e      	ldr	r3, [sp, #56]
   15b74:	9c0f      	ldr	r4, [sp, #60]
   15b76:	050a      	lsl	r2, r1, #20
   15b78:	1abb      	sub	r3, r7, r2
   15b7a:	ae10      	add	r6, sp, #64
   15b7c:	930e      	str	r3, [sp, #56]
   15b7e:	940f      	str	r4, [sp, #60]
   15b80:	1c35      	mov	r5, r6		(add r5, r6, #0)
   15b82:	2401      	mov	r4, #1
   15b84:	980e      	ldr	r0, [sp, #56]
   15b86:	990f      	ldr	r1, [sp, #60]
   15b88:	fa58f002 	bl	1803c <____fixdfsi_from_thumb>
   15b8c:	fa5af002 	bl	18044 <____floatsidf_from_thumb>
   15b90:	1c0b      	mov	r3, r1		(add r3, r1, #0)
   15b92:	1c02      	mov	r2, r0		(add r2, r0, #0)
   15b94:	c503      	stmia	r5!,{r0, r1}
   15b96:	980e      	ldr	r0, [sp, #56]
   15b98:	990f      	ldr	r1, [sp, #60]
   15b9a:	fa3bf002 	bl	18014 <____subdf3_from_thumb>
   15b9e:	4a37      	ldr	r2, [pc, #220]	(15c7c <.text+0x11c7c>)
   15ba0:	4b37      	ldr	r3, [pc, #220]	(15c80 <.text+0x11c80>)
   15ba2:	fa33f002 	bl	1800c <____muldf3_from_thumb>
   15ba6:	900e      	str	r0, [sp, #56]
   15ba8:	910f      	str	r1, [sp, #60]
   15baa:	3c01      	sub	r4, #1
   15bac:	d5ea      	bpl	15b84 <__ieee754_rem_pio2+0x2a8>
   15bae:	1c34      	mov	r4, r6		(add r4, r6, #0)
   15bb0:	9014      	str	r0, [sp, #80]
   15bb2:	9115      	str	r1, [sp, #84]
   15bb4:	2503      	mov	r5, #3
   15bb6:	3410      	add	r4, #16
   15bb8:	e000      	b	15bbc <__ieee754_rem_pio2+0x2e0>
   15bba:	3d01      	sub	r5, #1
   15bbc:	6820      	ldr	r0, [r4, #0]
   15bbe:	6861      	ldr	r1, [r4, #4]
   15bc0:	4a16      	ldr	r2, [pc, #88]	(15c1c <.text+0x11c1c>)
   15bc2:	4b17      	ldr	r3, [pc, #92]	(15c20 <.text+0x11c20>)
   15bc4:	3c08      	sub	r4, #8
   15bc6:	fa31f002 	bl	1802c <____eqdf2_from_thumb>
   15bca:	2800      	cmp	r0, #0
   15bcc:	d0f5      	beq	15bba <__ieee754_rem_pio2+0x2de>
   15bce:	2302      	mov	r3, #2
   15bd0:	9300      	str	r3, [sp, #0]
   15bd2:	4b2c      	ldr	r3, [pc, #176]	(15c84 <.text+0x11c84>)
   15bd4:	464a      	mov	r2, r9
   15bd6:	9301      	str	r3, [sp, #4]
   15bd8:	1c30      	mov	r0, r6		(add r0, r6, #0)
   15bda:	4641      	mov	r1, r8
   15bdc:	1c2b      	mov	r3, r5		(add r3, r5, #0)
   15bde:	fab3f000 	bl	16148 <__kernel_rem_pio2>
   15be2:	4652      	mov	r2, sl
   15be4:	4681      	mov	r9, r0
   15be6:	2a00      	cmp	r2, #0
   15be8:	da95      	bge	15b16 <__ieee754_rem_pio2+0x23a>
   15bea:	4643      	mov	r3, r8
   15bec:	6819      	ldr	r1, [r3, #0]
   15bee:	685a      	ldr	r2, [r3, #4]
   15bf0:	4d25      	ldr	r5, [pc, #148]	(15c88 <.text+0x11c88>)
   15bf2:	4e26      	ldr	r6, [pc, #152]	(15c8c <.text+0x11c8c>)
   15bf4:	1c0b      	mov	r3, r1		(add r3, r1, #0)
   15bf6:	1c14      	mov	r4, r2		(add r4, r2, #0)
   15bf8:	406b      	eor	r3, r5
   15bfa:	4641      	mov	r1, r8
   15bfc:	600b      	str	r3, [r1, #0]
   15bfe:	604c      	str	r4, [r1, #4]
   15c00:	68ca      	ldr	r2, [r1, #12]
   15c02:	6889      	ldr	r1, [r1, #8]
   15c04:	1c0b      	mov	r3, r1		(add r3, r1, #0)
   15c06:	1c14      	mov	r4, r2		(add r4, r2, #0)
   15c08:	406b      	eor	r3, r5
   15c0a:	4642      	mov	r2, r8
   15c0c:	4240      	neg	r0, r0
   15c0e:	6093      	str	r3, [r2, #8]
   15c10:	60d4      	str	r4, [r2, #12]
   15c12:	e67a      	b	1590a <__ieee754_rem_pio2+0x2e>
   15c14:	ffff      	second half of BL instruction 0xffff
   15c16:	7fff      	ldrb	r7, [r7, #31]
   15c18:	21fb      	mov	r1, #251
   15c1a:	3fe9      	sub	r7, #233
	...
   15c24:	d97b      	bls	15d1e <.text+0x11d1e>
   15c26:	4002      	and	r2, r0
   15c28:	21fb      	mov	r1, #251
   15c2a:	3ff9      	sub	r7, #249
   15c2c:	0000      	lsl	r0, r0, #0
   15c2e:	5440      	strb	r0, [r0, r1]
   15c30:	21fb      	mov	r1, #251
   15c32:	3ff9      	sub	r7, #249
   15c34:	b461      	push	{r0, r5, r6}
   15c36:	3dd0      	sub	r5, #208
   15c38:	6331      	str	r1, [r6, #48]
   15c3a:	1a62      	sub	r2, r4, r1
   15c3c:	21fb      	mov	r1, #251
   15c3e:	4139      	asr	r1, r7
   15c40:	ffff      	second half of BL instruction 0xffff
   15c42:	7fef      	ldrb	r7, [r5, #31]
   15c44:	5f30      	ldrsh	r0, [r6, r4]
   15c46:	3fe4      	sub	r7, #228
   15c48:	c883      	ldmia	r0!,{r0, r1, r7}
   15c4a:	6dc9      	ldr	r1, [r1, #92]
   15c4c:	0000      	lsl	r0, r0, #0
   15c4e:	3fe0      	sub	r7, #224
   15c50:	0000      	lsl	r0, r0, #0
   15c52:	0000      	lsl	r0, r0, #0
   15c54:	07ff      	lsl	r7, r7, #31
   15c56:	0000      	lsl	r0, r0, #0
   15c58:	b461      	push	{r0, r5, r6}
   15c5a:	3dd0      	sub	r5, #208
   15c5c:	0000      	lsl	r0, r0, #0
   15c5e:	1a60      	sub	r0, r4, r1
   15c60:	198a      	add	r2, r1, r6
   15c62:	3ba3      	sub	r3, #163
   15c64:	7073      	strb	r3, [r6, #1]
   15c66:	2e03      	cmp	r6, #3
   15c68:	198a      	add	r2, r1, r6
   15c6a:	3ba3      	sub	r3, #163
   15c6c:	0000      	lsl	r0, r0, #0
   15c6e:	2e00      	cmp	r6, #0
   15c70:	839a      	strh	r2, [r3, #28]
   15c72:	397b      	sub	r1, #123
   15c74:	49c1      	ldr	r1, [pc, #772]	(15f7c <__kernel_cos+0x1c>)
   15c76:	2520      	mov	r5, #32
   15c78:	fbea      	second half of BL instruction 0xfbea
   15c7a:	ffff      	second half of BL instruction 0xffff
   15c7c:	0000      	lsl	r0, r0, #0
   15c7e:	4170      	adc	r0, r6
   15c80:	0000      	lsl	r0, r0, #0
   15c82:	0000      	lsl	r0, r0, #0
   15c84:	812c      	strh	r4, [r5, #8]
   15c86:	0001      	lsl	r1, r0, #0
   15c88:	0000      	lsl	r0, r0, #0
   15c8a:	8000      	strh	r0, [r0, #0]
   15c8c:	0000      	lsl	r0, r0, #0
   15c8e:	0000      	lsl	r0, r0, #0
   15c90:	4a2e      	ldr	r2, [pc, #184]	(15d4c <.text+0x11d4c>)
   15c92:	008b      	lsl	r3, r1, #2
   15c94:	189b      	add	r3, r3, r2
   15c96:	3b04      	sub	r3, #4
   15c98:	681b      	ldr	r3, [r3, #0]
   15c9a:	42bb      	cmp	r3, r7
   15c9c:	d000      	beq	15ca0 <.text+0x11ca0>
   15c9e:	e71b      	b	15ad8 <__ieee754_rem_pio2+0x1fc>
   15ca0:	e6a1      	b	159e6 <__ieee754_rem_pio2+0x10a>
   15ca2:	492b      	ldr	r1, [pc, #172]	(15d50 <.text+0x11d50>)
   15ca4:	4a2b      	ldr	r2, [pc, #172]	(15d54 <.text+0x11d54>)
   15ca6:	1c2b      	mov	r3, r5		(add r3, r5, #0)
   15ca8:	404b      	eor	r3, r1
   15caa:	1c34      	mov	r4, r6		(add r4, r6, #0)
   15cac:	1c26      	mov	r6, r4		(add r6, r4, #0)
   15cae:	1c1d      	mov	r5, r3		(add r5, r3, #0)
   15cb0:	4643      	mov	r3, r8
   15cb2:	601d      	str	r5, [r3, #0]
   15cb4:	605e      	str	r6, [r3, #4]
   15cb6:	9b02      	ldr	r3, [sp, #8]
   15cb8:	9c03      	ldr	r4, [sp, #12]
   15cba:	464a      	mov	r2, r9
   15cbc:	404b      	eor	r3, r1
   15cbe:	4250      	neg	r0, r2
   15cc0:	4641      	mov	r1, r8
   15cc2:	608b      	str	r3, [r1, #8]
   15cc4:	60cc      	str	r4, [r1, #12]
   15cc6:	e620      	b	1590a <__ieee754_rem_pio2+0x2e>
   15cc8:	4a23      	ldr	r2, [pc, #140]	(15d58 <.text+0x11d58>)
   15cca:	4b24      	ldr	r3, [pc, #144]	(15d5c <.text+0x11d5c>)
   15ccc:	f99af002 	bl	18004 <____adddf3_from_thumb>
   15cd0:	4b23      	ldr	r3, [pc, #140]	(15d60 <.text+0x11d60>)
   15cd2:	900e      	str	r0, [sp, #56]
   15cd4:	910f      	str	r1, [sp, #60]
   15cd6:	429f      	cmp	r7, r3
   15cd8:	d018      	beq	15d0c <.text+0x11d0c>
   15cda:	4a22      	ldr	r2, [pc, #136]	(15d64 <.text+0x11d64>)
   15cdc:	4b22      	ldr	r3, [pc, #136]	(15d68 <.text+0x11d68>)
   15cde:	f991f002 	bl	18004 <____adddf3_from_thumb>
   15ce2:	1c0e      	mov	r6, r1		(add r6, r1, #0)
   15ce4:	1c05      	mov	r5, r0		(add r5, r0, #0)
   15ce6:	4641      	mov	r1, r8
   15ce8:	600d      	str	r5, [r1, #0]
   15cea:	604e      	str	r6, [r1, #4]
   15cec:	1c33      	mov	r3, r6		(add r3, r6, #0)
   15cee:	1c2a      	mov	r2, r5		(add r2, r5, #0)
   15cf0:	980e      	ldr	r0, [sp, #56]
   15cf2:	990f      	ldr	r1, [sp, #60]
   15cf4:	f98ef002 	bl	18014 <____subdf3_from_thumb>
   15cf8:	4a1a      	ldr	r2, [pc, #104]	(15d64 <.text+0x11d64>)
   15cfa:	4b1b      	ldr	r3, [pc, #108]	(15d68 <.text+0x11d68>)
   15cfc:	f982f002 	bl	18004 <____adddf3_from_thumb>
   15d00:	4642      	mov	r2, r8
   15d02:	6090      	str	r0, [r2, #8]
   15d04:	60d1      	str	r1, [r2, #12]
   15d06:	2001      	mov	r0, #1
   15d08:	4240      	neg	r0, r0
   15d0a:	e5fe      	b	1590a <__ieee754_rem_pio2+0x2e>
   15d0c:	980e      	ldr	r0, [sp, #56]
   15d0e:	990f      	ldr	r1, [sp, #60]
   15d10:	4a16      	ldr	r2, [pc, #88]	(15d6c <.text+0x11d6c>)
   15d12:	4b17      	ldr	r3, [pc, #92]	(15d70 <.text+0x11d70>)
   15d14:	f976f002 	bl	18004 <____adddf3_from_thumb>
   15d18:	4a16      	ldr	r2, [pc, #88]	(15d74 <.text+0x11d74>)
   15d1a:	4b17      	ldr	r3, [pc, #92]	(15d78 <.text+0x11d78>)
   15d1c:	900e      	str	r0, [sp, #56]
   15d1e:	910f      	str	r1, [sp, #60]
   15d20:	f970f002 	bl	18004 <____adddf3_from_thumb>
   15d24:	4643      	mov	r3, r8
   15d26:	1c0e      	mov	r6, r1		(add r6, r1, #0)
   15d28:	1c05      	mov	r5, r0		(add r5, r0, #0)
   15d2a:	6018      	str	r0, [r3, #0]
   15d2c:	6059      	str	r1, [r3, #4]
   15d2e:	1c33      	mov	r3, r6		(add r3, r6, #0)
   15d30:	1c2a      	mov	r2, r5		(add r2, r5, #0)
   15d32:	980e      	ldr	r0, [sp, #56]
   15d34:	990f      	ldr	r1, [sp, #60]
   15d36:	f96df002 	bl	18014 <____subdf3_from_thumb>
   15d3a:	4a0e      	ldr	r2, [pc, #56]	(15d74 <.text+0x11d74>)
   15d3c:	4b0e      	ldr	r3, [pc, #56]	(15d78 <.text+0x11d78>)
   15d3e:	f961f002 	bl	18004 <____adddf3_from_thumb>
   15d42:	4644      	mov	r4, r8
   15d44:	60a0      	str	r0, [r4, #8]
   15d46:	60e1      	str	r1, [r4, #12]
   15d48:	2001      	mov	r0, #1
   15d4a:	e7dd      	b	15d08 <.text+0x11d08>
   15d4c:	8234      	strh	r4, [r6, #16]
   15d4e:	0001      	lsl	r1, r0, #0
   15d50:	0000      	lsl	r0, r0, #0
   15d52:	8000      	strh	r0, [r0, #0]
   15d54:	0000      	lsl	r0, r0, #0
   15d56:	0000      	lsl	r0, r0, #0
   15d58:	21fb      	mov	r1, #251
   15d5a:	3ff9      	sub	r7, #249
   15d5c:	0000      	lsl	r0, r0, #0
   15d5e:	5440      	strb	r0, [r0, r1]
   15d60:	21fb      	mov	r1, #251
   15d62:	3ff9      	sub	r7, #249
   15d64:	b461      	push	{r0, r5, r6}
   15d66:	3dd0      	sub	r5, #208
   15d68:	6331      	str	r1, [r6, #48]
   15d6a:	1a62      	sub	r2, r4, r1
   15d6c:	b461      	push	{r0, r5, r6}
   15d6e:	3dd0      	sub	r5, #208
   15d70:	0000      	lsl	r0, r0, #0
   15d72:	1a60      	sub	r0, r4, r1
   15d74:	198a      	add	r2, r1, r6
   15d76:	3ba3      	sub	r3, #163
   15d78:	7073      	strb	r3, [r6, #1]
   15d7a:	2e03      	cmp	r6, #3

00015d7c <__ieee754_sqrt>:
   15d7c:	b5f0      	push	{r4, r5, r6, r7, lr}
   15d7e:	465f      	mov	r7, fp
   15d80:	4656      	mov	r6, sl
   15d82:	464d      	mov	r5, r9
   15d84:	4644      	mov	r4, r8
   15d86:	b4f0      	push	{r4, r5, r6, r7}
   15d88:	2200      	mov	r2, #0
   15d8a:	2300      	mov	r3, #0
   15d8c:	b082      	sub	sp, #8
   15d8e:	9200      	str	r2, [sp, #0]
   15d90:	9301      	str	r3, [sp, #4]
   15d92:	2380      	mov	r3, #128
   15d94:	061c      	lsl	r4, r3, #24
   15d96:	4a6d      	ldr	r2, [pc, #436]	(15f4c <.text+0x11f4c>)
   15d98:	46a4      	mov	ip, r4
   15d9a:	1c0c      	mov	r4, r1		(add r4, r1, #0)
   15d9c:	1c03      	mov	r3, r0		(add r3, r0, #0)
   15d9e:	1c03      	mov	r3, r0		(add r3, r0, #0)
   15da0:	4013      	and	r3, r2
   15da2:	1c0f      	mov	r7, r1		(add r7, r1, #0)
   15da4:	1c06      	mov	r6, r0		(add r6, r0, #0)
   15da6:	1c25      	mov	r5, r4		(add r5, r4, #0)
   15da8:	1c01      	mov	r1, r0		(add r1, r0, #0)
   15daa:	4293      	cmp	r3, r2
   15dac:	d100      	bne	15db0 <__ieee754_sqrt+0x34>
   15dae:	e095      	b	15edc <__ieee754_sqrt+0x160>
   15db0:	2800      	cmp	r0, #0
   15db2:	dc00      	bgt	15db6 <__ieee754_sqrt+0x3a>
   15db4:	e0af      	b	15f16 <__ieee754_sqrt+0x19a>
   15db6:	150f      	asr	r7, r1, #20
   15db8:	46bb      	mov	fp, r7
   15dba:	2f00      	cmp	r7, #0
   15dbc:	d072      	beq	15ea4 <__ieee754_sqrt+0x128>
   15dbe:	4b64      	ldr	r3, [pc, #400]	(15f50 <.text+0x11f50>)
   15dc0:	4864      	ldr	r0, [pc, #400]	(15f54 <.text+0x11f54>)
   15dc2:	4019      	and	r1, r3
   15dc4:	4483      	add	fp, r0
   15dc6:	2380      	mov	r3, #128
   15dc8:	035b      	lsl	r3, r3, #13
   15dca:	465a      	mov	r2, fp
   15dcc:	4319      	orr	r1, r3
   15dce:	07d2      	lsl	r2, r2, #31
   15dd0:	d505      	bpl	15dde <__ieee754_sqrt+0x62>
   15dd2:	4663      	mov	r3, ip
   15dd4:	402b      	and	r3, r5
   15dd6:	0fdb      	lsr	r3, r3, #31
   15dd8:	185b      	add	r3, r3, r1
   15dda:	18c9      	add	r1, r1, r3
   15ddc:	006d      	lsl	r5, r5, #1
   15dde:	465b      	mov	r3, fp
   15de0:	105b      	asr	r3, r3, #1
   15de2:	469b      	mov	fp, r3
   15de4:	4663      	mov	r3, ip
   15de6:	402b      	and	r3, r5
   15de8:	0fdb      	lsr	r3, r3, #31
   15dea:	2600      	mov	r6, #0
   15dec:	185b      	add	r3, r3, r1
   15dee:	2400      	mov	r4, #0
   15df0:	2080      	mov	r0, #128
   15df2:	18c9      	add	r1, r1, r3
   15df4:	006d      	lsl	r5, r5, #1
   15df6:	46a0      	mov	r8, r4
   15df8:	46b2      	mov	sl, r6
   15dfa:	46b1      	mov	r9, r6
   15dfc:	0380      	lsl	r0, r0, #14
   15dfe:	1832      	add	r2, r6, r0
   15e00:	428a      	cmp	r2, r1
   15e02:	dc02      	bgt	15e0a <__ieee754_sqrt+0x8e>
   15e04:	1816      	add	r6, r2, r0
   15e06:	1a89      	sub	r1, r1, r2
   15e08:	4481      	add	r9, r0
   15e0a:	4663      	mov	r3, ip
   15e0c:	402b      	and	r3, r5
   15e0e:	0fdb      	lsr	r3, r3, #31
   15e10:	185b      	add	r3, r3, r1
   15e12:	0840      	lsr	r0, r0, #1
   15e14:	18c9      	add	r1, r1, r3
   15e16:	006d      	lsl	r5, r5, #1
   15e18:	2800      	cmp	r0, #0
   15e1a:	d1f0      	bne	15dfe <__ieee754_sqrt+0x82>
   15e1c:	2080      	mov	r0, #128
   15e1e:	0600      	lsl	r0, r0, #24
   15e20:	e00b      	b	15e3a <__ieee754_sqrt+0xbe>
   15e22:	428e      	cmp	r6, r1
   15e24:	d100      	bne	15e28 <__ieee754_sqrt+0xac>
   15e26:	e072      	b	15f0e <__ieee754_sqrt+0x192>
   15e28:	4663      	mov	r3, ip
   15e2a:	402b      	and	r3, r5
   15e2c:	0fdb      	lsr	r3, r3, #31
   15e2e:	185b      	add	r3, r3, r1
   15e30:	0840      	lsr	r0, r0, #1
   15e32:	18c9      	add	r1, r1, r3
   15e34:	006d      	lsl	r5, r5, #1
   15e36:	2800      	cmp	r0, #0
   15e38:	d019      	beq	15e6e <__ieee754_sqrt+0xf2>
   15e3a:	4647      	mov	r7, r8
   15e3c:	183c      	add	r4, r7, r0
   15e3e:	1c32      	mov	r2, r6		(add r2, r6, #0)
   15e40:	428e      	cmp	r6, r1
   15e42:	daee      	bge	15e22 <__ieee754_sqrt+0xa6>
   15e44:	1823      	add	r3, r4, r0
   15e46:	4698      	mov	r8, r3
   15e48:	4663      	mov	r3, ip
   15e4a:	4023      	and	r3, r4
   15e4c:	4563      	cmp	r3, ip
   15e4e:	d058      	beq	15f02 <__ieee754_sqrt+0x186>
   15e50:	1a89      	sub	r1, r1, r2
   15e52:	42a5      	cmp	r5, r4
   15e54:	d200      	bcs	15e58 <__ieee754_sqrt+0xdc>
   15e56:	3901      	sub	r1, #1
   15e58:	1b2d      	sub	r5, r5, r4
   15e5a:	4663      	mov	r3, ip
   15e5c:	402b      	and	r3, r5
   15e5e:	0fdb      	lsr	r3, r3, #31
   15e60:	4482      	add	sl, r0
   15e62:	185b      	add	r3, r3, r1
   15e64:	0840      	lsr	r0, r0, #1
   15e66:	18c9      	add	r1, r1, r3
   15e68:	006d      	lsl	r5, r5, #1
   15e6a:	2800      	cmp	r0, #0
   15e6c:	d1e5      	bne	15e3a <__ieee754_sqrt+0xbe>
   15e6e:	4329      	orr	r1, r5
   15e70:	d006      	beq	15e80 <__ieee754_sqrt+0x104>
   15e72:	4654      	mov	r4, sl
   15e74:	3401      	add	r4, #1
   15e76:	d055      	beq	15f24 <__ieee754_sqrt+0x1a8>
   15e78:	4652      	mov	r2, sl
   15e7a:	2301      	mov	r3, #1
   15e7c:	4013      	and	r3, r2
   15e7e:	449a      	add	sl, r3
   15e80:	464c      	mov	r4, r9
   15e82:	4f35      	ldr	r7, [pc, #212]	(15f58 <.text+0x11f58>)
   15e84:	1063      	asr	r3, r4, #1
   15e86:	4650      	mov	r0, sl
   15e88:	19d9      	add	r1, r3, r7
   15e8a:	0845      	lsr	r5, r0, #1
   15e8c:	07e4      	lsl	r4, r4, #31
   15e8e:	d501      	bpl	15e94 <__ieee754_sqrt+0x118>
   15e90:	4662      	mov	r2, ip
   15e92:	4315      	orr	r5, r2
   15e94:	465c      	mov	r4, fp
   15e96:	0523      	lsl	r3, r4, #20
   15e98:	18c9      	add	r1, r1, r3
   15e9a:	9100      	str	r1, [sp, #0]
   15e9c:	9501      	str	r5, [sp, #4]
   15e9e:	9800      	ldr	r0, [sp, #0]
   15ea0:	9901      	ldr	r1, [sp, #4]
   15ea2:	e025      	b	15ef0 <__ieee754_sqrt+0x174>
   15ea4:	2900      	cmp	r1, #0
   15ea6:	d106      	bne	15eb6 <__ieee754_sqrt+0x13a>
   15ea8:	2015      	mov	r0, #21
   15eaa:	4240      	neg	r0, r0
   15eac:	0aeb      	lsr	r3, r5, #11
   15eae:	4483      	add	fp, r0
   15eb0:	056d      	lsl	r5, r5, #21
   15eb2:	4319      	orr	r1, r3
   15eb4:	d0f8      	beq	15ea8 <__ieee754_sqrt+0x12c>
   15eb6:	2380      	mov	r3, #128
   15eb8:	2200      	mov	r2, #0
   15eba:	035b      	lsl	r3, r3, #13
   15ebc:	e001      	b	15ec2 <__ieee754_sqrt+0x146>
   15ebe:	0049      	lsl	r1, r1, #1
   15ec0:	3201      	add	r2, #1
   15ec2:	4219      	tst	r1, r3
   15ec4:	d0fb      	beq	15ebe <__ieee754_sqrt+0x142>
   15ec6:	465c      	mov	r4, fp
   15ec8:	1aa3      	sub	r3, r4, r2
   15eca:	3301      	add	r3, #1
   15ecc:	469b      	mov	fp, r3
   15ece:	2320      	mov	r3, #32
   15ed0:	1c2f      	mov	r7, r5		(add r7, r5, #0)
   15ed2:	1a9b      	sub	r3, r3, r2
   15ed4:	40df      	lsr	r7, r3
   15ed6:	4339      	orr	r1, r7
   15ed8:	4095      	lsl	r5, r2
   15eda:	e770      	b	15dbe <__ieee754_sqrt+0x42>
   15edc:	1c3b      	mov	r3, r7		(add r3, r7, #0)
   15ede:	1c32      	mov	r2, r6		(add r2, r6, #0)
   15ee0:	1c39      	mov	r1, r7		(add r1, r7, #0)
   15ee2:	1c30      	mov	r0, r6		(add r0, r6, #0)
   15ee4:	f892f002 	bl	1800c <____muldf3_from_thumb>
   15ee8:	1c3b      	mov	r3, r7		(add r3, r7, #0)
   15eea:	1c32      	mov	r2, r6		(add r2, r6, #0)
   15eec:	f88af002 	bl	18004 <____adddf3_from_thumb>
   15ef0:	b002      	add	sp, #8
   15ef2:	bc78      	pop	{r3, r4, r5, r6}
   15ef4:	4698      	mov	r8, r3
   15ef6:	46a1      	mov	r9, r4
   15ef8:	46aa      	mov	sl, r5
   15efa:	46b3      	mov	fp, r6
   15efc:	bcf0      	pop	{r4, r5, r6, r7}
   15efe:	bc04      	pop	{r2}
   15f00:	4710      	bx	r2
   15f02:	4647      	mov	r7, r8
   15f04:	4663      	mov	r3, ip
   15f06:	421f      	tst	r7, r3
   15f08:	d1a2      	bne	15e50 <__ieee754_sqrt+0xd4>
   15f0a:	1c56      	add	r6, r2, #1
   15f0c:	e7a0      	b	15e50 <__ieee754_sqrt+0xd4>
   15f0e:	42ac      	cmp	r4, r5
   15f10:	d900      	bls	15f14 <__ieee754_sqrt+0x198>
   15f12:	e789      	b	15e28 <__ieee754_sqrt+0xac>
   15f14:	e796      	b	15e44 <__ieee754_sqrt+0xc8>
   15f16:	4b11      	ldr	r3, [pc, #68]	(15f5c <.text+0x11f5c>)
   15f18:	4003      	and	r3, r0
   15f1a:	4323      	orr	r3, r4
   15f1c:	d107      	bne	15f2e <__ieee754_sqrt+0x1b2>
   15f1e:	1c39      	mov	r1, r7		(add r1, r7, #0)
   15f20:	1c30      	mov	r0, r6		(add r0, r6, #0)
   15f22:	e7e5      	b	15ef0 <__ieee754_sqrt+0x174>
   15f24:	2700      	mov	r7, #0
   15f26:	2001      	mov	r0, #1
   15f28:	46ba      	mov	sl, r7
   15f2a:	4481      	add	r9, r0
   15f2c:	e7a8      	b	15e80 <__ieee754_sqrt+0x104>
   15f2e:	2800      	cmp	r0, #0
   15f30:	db00      	blt	15f34 <__ieee754_sqrt+0x1b8>
   15f32:	e740      	b	15db6 <__ieee754_sqrt+0x3a>
   15f34:	1c3b      	mov	r3, r7		(add r3, r7, #0)
   15f36:	1c32      	mov	r2, r6		(add r2, r6, #0)
   15f38:	1c39      	mov	r1, r7		(add r1, r7, #0)
   15f3a:	1c30      	mov	r0, r6		(add r0, r6, #0)
   15f3c:	f86af002 	bl	18014 <____subdf3_from_thumb>
   15f40:	1c0b      	mov	r3, r1		(add r3, r1, #0)
   15f42:	1c02      	mov	r2, r0		(add r2, r0, #0)
   15f44:	f86ef002 	bl	18024 <____divdf3_from_thumb>
   15f48:	e7d2      	b	15ef0 <__ieee754_sqrt+0x174>
   15f4a:	0000      	lsl	r0, r0, #0
   15f4c:	0000      	lsl	r0, r0, #0
   15f4e:	7ff0      	ldrb	r0, [r6, #31]
   15f50:	ffff      	second half of BL instruction 0xffff
   15f52:	000f      	lsl	r7, r1, #0
   15f54:	fc01      	second half of BL instruction 0xfc01
   15f56:	ffff      	second half of BL instruction 0xffff
   15f58:	0000      	lsl	r0, r0, #0
   15f5a:	3fe0      	sub	r7, #224
   15f5c:	ffff      	second half of BL instruction 0xffff
   15f5e:	7fff      	ldrb	r7, [r7, #31]

00015f60 <__kernel_cos>:
   15f60:	b5f0      	push	{r4, r5, r6, r7, lr}
   15f62:	4647      	mov	r7, r8
   15f64:	b480      	push	{r7}
   15f66:	b08e      	sub	sp, #56
   15f68:	2400      	mov	r4, #0
   15f6a:	2500      	mov	r5, #0
   15f6c:	9404      	str	r4, [sp, #16]
   15f6e:	9505      	str	r5, [sp, #20]
   15f70:	4d5e      	ldr	r5, [pc, #376]	(160ec <.text+0x120ec>)
   15f72:	920c      	str	r2, [sp, #48]
   15f74:	930d      	str	r3, [sp, #52]
   15f76:	1c2a      	mov	r2, r5		(add r2, r5, #0)
   15f78:	4002      	and	r2, r0
   15f7a:	4b5d      	ldr	r3, [pc, #372]	(160f0 <.text+0x120f0>)
   15f7c:	4690      	mov	r8, r2
   15f7e:	1c0f      	mov	r7, r1		(add r7, r1, #0)
   15f80:	1c06      	mov	r6, r0		(add r6, r0, #0)
   15f82:	4598      	cmp	r8, r3
   15f84:	dc04      	bgt	15f90 <__kernel_cos+0x30>
   15f86:	f859f002 	bl	1803c <____fixdfsi_from_thumb>
   15f8a:	2800      	cmp	r0, #0
   15f8c:	d100      	bne	15f90 <__kernel_cos+0x30>
   15f8e:	e0a9      	b	160e4 <__kernel_cos+0x184>
   15f90:	1c3b      	mov	r3, r7		(add r3, r7, #0)
   15f92:	1c32      	mov	r2, r6		(add r2, r6, #0)
   15f94:	1c39      	mov	r1, r7		(add r1, r7, #0)
   15f96:	1c30      	mov	r0, r6		(add r0, r6, #0)
   15f98:	f838f002 	bl	1800c <____muldf3_from_thumb>
   15f9c:	4a55      	ldr	r2, [pc, #340]	(160f4 <.text+0x120f4>)
   15f9e:	4b56      	ldr	r3, [pc, #344]	(160f8 <.text+0x120f8>)
   15fa0:	1c0d      	mov	r5, r1		(add r5, r1, #0)
   15fa2:	1c04      	mov	r4, r0		(add r4, r0, #0)
   15fa4:	f832f002 	bl	1800c <____muldf3_from_thumb>
   15fa8:	4a54      	ldr	r2, [pc, #336]	(160fc <.text+0x120fc>)
   15faa:	4b55      	ldr	r3, [pc, #340]	(16100 <.text+0x12100>)
   15fac:	f82af002 	bl	18004 <____adddf3_from_thumb>
   15fb0:	1c2b      	mov	r3, r5		(add r3, r5, #0)
   15fb2:	1c22      	mov	r2, r4		(add r2, r4, #0)
   15fb4:	f82af002 	bl	1800c <____muldf3_from_thumb>
   15fb8:	4a52      	ldr	r2, [pc, #328]	(16104 <.text+0x12104>)
   15fba:	4b53      	ldr	r3, [pc, #332]	(16108 <.text+0x12108>)
   15fbc:	f822f002 	bl	18004 <____adddf3_from_thumb>
   15fc0:	1c2b      	mov	r3, r5		(add r3, r5, #0)
   15fc2:	1c22      	mov	r2, r4		(add r2, r4, #0)
   15fc4:	f822f002 	bl	1800c <____muldf3_from_thumb>
   15fc8:	4a50      	ldr	r2, [pc, #320]	(1610c <.text+0x1210c>)
   15fca:	4b51      	ldr	r3, [pc, #324]	(16110 <.text+0x12110>)
   15fcc:	f81af002 	bl	18004 <____adddf3_from_thumb>
   15fd0:	1c2b      	mov	r3, r5		(add r3, r5, #0)
   15fd2:	1c22      	mov	r2, r4		(add r2, r4, #0)
   15fd4:	f81af002 	bl	1800c <____muldf3_from_thumb>
   15fd8:	4a4e      	ldr	r2, [pc, #312]	(16114 <.text+0x12114>)
   15fda:	4b4f      	ldr	r3, [pc, #316]	(16118 <.text+0x12118>)
   15fdc:	f812f002 	bl	18004 <____adddf3_from_thumb>
   15fe0:	1c2b      	mov	r3, r5		(add r3, r5, #0)
   15fe2:	1c22      	mov	r2, r4		(add r2, r4, #0)
   15fe4:	f812f002 	bl	1800c <____muldf3_from_thumb>
   15fe8:	4a4c      	ldr	r2, [pc, #304]	(1611c <.text+0x1211c>)
   15fea:	4b4d      	ldr	r3, [pc, #308]	(16120 <.text+0x12120>)
   15fec:	f80af002 	bl	18004 <____adddf3_from_thumb>
   15ff0:	1c2b      	mov	r3, r5		(add r3, r5, #0)
   15ff2:	1c22      	mov	r2, r4		(add r2, r4, #0)
   15ff4:	f80af002 	bl	1800c <____muldf3_from_thumb>
   15ff8:	4b4a      	ldr	r3, [pc, #296]	(16124 <.text+0x12124>)
   15ffa:	900a      	str	r0, [sp, #40]
   15ffc:	910b      	str	r1, [sp, #44]
   15ffe:	4598      	cmp	r8, r3
   16000:	dd41      	ble	16086 <__kernel_cos+0x126>
   16002:	4b49      	ldr	r3, [pc, #292]	(16128 <.text+0x12128>)
   16004:	4598      	cmp	r8, r3
   16006:	dc00      	bgt	1600a <__kernel_cos+0xaa>
   16008:	e064      	b	160d4 <__kernel_cos+0x174>
   1600a:	4a48      	ldr	r2, [pc, #288]	(1612c <.text+0x1212c>)
   1600c:	4b48      	ldr	r3, [pc, #288]	(16130 <.text+0x12130>)
   1600e:	9208      	str	r2, [sp, #32]
   16010:	9309      	str	r3, [sp, #36]
   16012:	1c29      	mov	r1, r5		(add r1, r5, #0)
   16014:	1c20      	mov	r0, r4		(add r0, r4, #0)
   16016:	4a47      	ldr	r2, [pc, #284]	(16134 <.text+0x12134>)
   16018:	4b47      	ldr	r3, [pc, #284]	(16138 <.text+0x12138>)
   1601a:	fff7f001 	bl	1800c <____muldf3_from_thumb>
   1601e:	9a08      	ldr	r2, [sp, #32]
   16020:	9b09      	ldr	r3, [sp, #36]
   16022:	fff7f001 	bl	18014 <____subdf3_from_thumb>
   16026:	9a08      	ldr	r2, [sp, #32]
   16028:	9b09      	ldr	r3, [sp, #36]
   1602a:	9002      	str	r0, [sp, #8]
   1602c:	9103      	str	r1, [sp, #12]
   1602e:	4843      	ldr	r0, [pc, #268]	(1613c <.text+0x1213c>)
   16030:	4943      	ldr	r1, [pc, #268]	(16140 <.text+0x12140>)
   16032:	ffeff001 	bl	18014 <____subdf3_from_thumb>
   16036:	9a0a      	ldr	r2, [sp, #40]
   16038:	9b0b      	ldr	r3, [sp, #44]
   1603a:	9000      	str	r0, [sp, #0]
   1603c:	9101      	str	r1, [sp, #4]
   1603e:	1c29      	mov	r1, r5		(add r1, r5, #0)
   16040:	1c20      	mov	r0, r4		(add r0, r4, #0)
   16042:	ffe3f001 	bl	1800c <____muldf3_from_thumb>
   16046:	9a0c      	ldr	r2, [sp, #48]
   16048:	9b0d      	ldr	r3, [sp, #52]
   1604a:	1c0d      	mov	r5, r1		(add r5, r1, #0)
   1604c:	1c04      	mov	r4, r0		(add r4, r0, #0)
   1604e:	1c39      	mov	r1, r7		(add r1, r7, #0)
   16050:	1c30      	mov	r0, r6		(add r0, r6, #0)
   16052:	ffdbf001 	bl	1800c <____muldf3_from_thumb>
   16056:	1c0b      	mov	r3, r1		(add r3, r1, #0)
   16058:	1c02      	mov	r2, r0		(add r2, r0, #0)
   1605a:	1c29      	mov	r1, r5		(add r1, r5, #0)
   1605c:	1c20      	mov	r0, r4		(add r0, r4, #0)
   1605e:	ffd9f001 	bl	18014 <____subdf3_from_thumb>
   16062:	1c0b      	mov	r3, r1		(add r3, r1, #0)
   16064:	1c02      	mov	r2, r0		(add r2, r0, #0)
   16066:	9802      	ldr	r0, [sp, #8]
   16068:	9903      	ldr	r1, [sp, #12]
   1606a:	ffd3f001 	bl	18014 <____subdf3_from_thumb>
   1606e:	1c0b      	mov	r3, r1		(add r3, r1, #0)
   16070:	1c02      	mov	r2, r0		(add r2, r0, #0)
   16072:	9800      	ldr	r0, [sp, #0]
   16074:	9901      	ldr	r1, [sp, #4]
   16076:	ffcdf001 	bl	18014 <____subdf3_from_thumb>
   1607a:	b00e      	add	sp, #56
   1607c:	bc08      	pop	{r3}
   1607e:	4698      	mov	r8, r3
   16080:	bcf0      	pop	{r4, r5, r6, r7}
   16082:	bc04      	pop	{r2}
   16084:	4710      	bx	r2
   16086:	1c29      	mov	r1, r5		(add r1, r5, #0)
   16088:	1c20      	mov	r0, r4		(add r0, r4, #0)
   1608a:	4a2a      	ldr	r2, [pc, #168]	(16134 <.text+0x12134>)
   1608c:	4b2a      	ldr	r3, [pc, #168]	(16138 <.text+0x12138>)
   1608e:	ffbdf001 	bl	1800c <____muldf3_from_thumb>
   16092:	9a0a      	ldr	r2, [sp, #40]
   16094:	9b0b      	ldr	r3, [sp, #44]
   16096:	9006      	str	r0, [sp, #24]
   16098:	9107      	str	r1, [sp, #28]
   1609a:	1c29      	mov	r1, r5		(add r1, r5, #0)
   1609c:	1c20      	mov	r0, r4		(add r0, r4, #0)
   1609e:	ffb5f001 	bl	1800c <____muldf3_from_thumb>
   160a2:	9a0c      	ldr	r2, [sp, #48]
   160a4:	9b0d      	ldr	r3, [sp, #52]
   160a6:	1c0d      	mov	r5, r1		(add r5, r1, #0)
   160a8:	1c04      	mov	r4, r0		(add r4, r0, #0)
   160aa:	1c39      	mov	r1, r7		(add r1, r7, #0)
   160ac:	1c30      	mov	r0, r6		(add r0, r6, #0)
   160ae:	ffadf001 	bl	1800c <____muldf3_from_thumb>
   160b2:	1c0b      	mov	r3, r1		(add r3, r1, #0)
   160b4:	1c02      	mov	r2, r0		(add r2, r0, #0)
   160b6:	1c29      	mov	r1, r5		(add r1, r5, #0)
   160b8:	1c20      	mov	r0, r4		(add r0, r4, #0)
   160ba:	ffabf001 	bl	18014 <____subdf3_from_thumb>
   160be:	1c0b      	mov	r3, r1		(add r3, r1, #0)
   160c0:	1c02      	mov	r2, r0		(add r2, r0, #0)
   160c2:	9806      	ldr	r0, [sp, #24]
   160c4:	9907      	ldr	r1, [sp, #28]
   160c6:	ffa5f001 	bl	18014 <____subdf3_from_thumb>
   160ca:	1c0b      	mov	r3, r1		(add r3, r1, #0)
   160cc:	1c02      	mov	r2, r0		(add r2, r0, #0)
   160ce:	481b      	ldr	r0, [pc, #108]	(1613c <.text+0x1213c>)
   160d0:	491b      	ldr	r1, [pc, #108]	(16140 <.text+0x12140>)
   160d2:	e7d0      	b	16076 <__kernel_cos+0x116>
   160d4:	4b1b      	ldr	r3, [pc, #108]	(16144 <.text+0x12144>)
   160d6:	2200      	mov	r2, #0
   160d8:	4443      	add	r3, r8
   160da:	9304      	str	r3, [sp, #16]
   160dc:	9205      	str	r2, [sp, #20]
   160de:	9a04      	ldr	r2, [sp, #16]
   160e0:	9b05      	ldr	r3, [sp, #20]
   160e2:	e794      	b	1600e <__kernel_cos+0xae>
   160e4:	4815      	ldr	r0, [pc, #84]	(1613c <.text+0x1213c>)
   160e6:	4916      	ldr	r1, [pc, #88]	(16140 <.text+0x12140>)
   160e8:	e7c7      	b	1607a <__kernel_cos+0x11a>
   160ea:	0000      	lsl	r0, r0, #0
   160ec:	ffff      	second half of BL instruction 0xffff
   160ee:	7fff      	ldrb	r7, [r7, #31]
   160f0:	ffff      	second half of BL instruction 0xffff
   160f2:	3e3f      	sub	r6, #63
   160f4:	fae9      	second half of BL instruction 0xfae9
   160f6:	bda8      	pop	{r3, r5, r7, pc}
   160f8:	38d4      	sub	r0, #212
   160fa:	be88      	bkpt	0x0088
   160fc:	ee9e      	undefined
   160fe:	3e21      	sub	r6, #33
   16100:	b1c4      	undefined instruction 0xb1c4
   16102:	bdb4      	pop	{r2, r4, r5, r7, pc}
   16104:	7e4f      	ldrb	r7, [r1, #25]
   16106:	be92      	bkpt	0x0092
   16108:	52ad      	strh	r5, [r5, r2]
   1610a:	809c      	strh	r4, [r3, #4]
   1610c:	01a0      	lsl	r0, r4, #6
   1610e:	3efa      	sub	r6, #250
   16110:	1590      	asr	r0, r2, #22
   16112:	19cb      	add	r3, r1, r7
   16114:	c16c      	stmia	r1!,{r2, r3, r5, r6}
   16116:	bf56      	undefined instruction 0xbf56
   16118:	5177      	str	r7, [r6, r5]
   1611a:	16c1      	asr	r1, r0, #27
   1611c:	5555      	strb	r5, [r2, r5]
   1611e:	3fa5      	sub	r7, #165
   16120:	554c      	strb	r4, [r1, r5]
   16122:	5555      	strb	r5, [r2, r5]
   16124:	3332      	add	r3, #50
   16126:	3fd3      	sub	r7, #211
   16128:	0000      	lsl	r0, r0, #0
   1612a:	3fe9      	sub	r7, #233
   1612c:	0000      	lsl	r0, r0, #0
   1612e:	3fd2      	sub	r7, #210
   16130:	0000      	lsl	r0, r0, #0
   16132:	0000      	lsl	r0, r0, #0
   16134:	0000      	lsl	r0, r0, #0
   16136:	3fe0      	sub	r7, #224
   16138:	0000      	lsl	r0, r0, #0
   1613a:	0000      	lsl	r0, r0, #0
   1613c:	0000      	lsl	r0, r0, #0
   1613e:	3ff0      	sub	r7, #240
   16140:	0000      	lsl	r0, r0, #0
   16142:	0000      	lsl	r0, r0, #0
   16144:	0000      	lsl	r0, r0, #0
   16146:	ffe0      	second half of BL instruction 0xffe0

00016148 <__kernel_rem_pio2>:
   16148:	b5f0      	push	{r4, r5, r6, r7, lr}
   1614a:	465f      	mov	r7, fp
   1614c:	4656      	mov	r6, sl
   1614e:	464d      	mov	r5, r9
   16150:	4644      	mov	r4, r8
   16152:	b4f0      	push	{r4, r5, r6, r7}
   16154:	4cc5      	ldr	r4, [pc, #788]	(1646c <.text+0x1246c>)
   16156:	44a5      	add	sp, r4
   16158:	1c14      	mov	r4, r2		(add r4, r2, #0)
   1615a:	9a9f      	ldr	r2, [sp, #636]
   1615c:	9108      	str	r1, [sp, #32]
   1615e:	0091      	lsl	r1, r2, #2
   16160:	4ac3      	ldr	r2, [pc, #780]	(16470 <.text+0x12470>)
   16162:	5889      	ldr	r1, [r1, r2]
   16164:	9009      	str	r0, [sp, #36]
   16166:	9105      	str	r1, [sp, #20]
   16168:	3b01      	sub	r3, #1
   1616a:	1ee0      	sub	r0, r4, #3
   1616c:	2118      	mov	r1, #24
   1616e:	9307      	str	r3, [sp, #28]
   16170:	fdeaf000 	bl	16d48 <__divsi3>
   16174:	2800      	cmp	r0, #0
   16176:	9006      	str	r0, [sp, #24]
   16178:	da00      	bge	1617c <__kernel_rem_pio2+0x34>
   1617a:	e172      	b	16462 <__kernel_rem_pio2+0x31a>
   1617c:	9906      	ldr	r1, [sp, #24]
   1617e:	004b      	lsl	r3, r1, #1
   16180:	185b      	add	r3, r3, r1
   16182:	00db      	lsl	r3, r3, #3
   16184:	1ae3      	sub	r3, r4, r3
   16186:	3b18      	sub	r3, #24
   16188:	9304      	str	r3, [sp, #16]
   1618a:	9a07      	ldr	r2, [sp, #28]
   1618c:	9b05      	ldr	r3, [sp, #20]
   1618e:	1a8e      	sub	r6, r1, r2
   16190:	18d2      	add	r2, r2, r3
   16192:	d418      	bmi	161c6 <__kernel_rem_pio2+0x7e>
   16194:	99a0      	ldr	r1, [sp, #640]
   16196:	00b3      	lsl	r3, r6, #2
   16198:	185c      	add	r4, r3, r1
   1619a:	ad5a      	add	r5, sp, #360
   1619c:	1c57      	add	r7, r2, #1
   1619e:	e008      	b	161b2 <__kernel_rem_pio2+0x6a>
   161a0:	6820      	ldr	r0, [r4, #0]
   161a2:	ff4ff001 	bl	18044 <____floatsidf_from_thumb>
   161a6:	3f01      	sub	r7, #1
   161a8:	c503      	stmia	r5!,{r0, r1}
   161aa:	3601      	add	r6, #1
   161ac:	3404      	add	r4, #4
   161ae:	2f00      	cmp	r7, #0
   161b0:	d009      	beq	161c6 <__kernel_rem_pio2+0x7e>
   161b2:	2e00      	cmp	r6, #0
   161b4:	daf4      	bge	161a0 <__kernel_rem_pio2+0x58>
   161b6:	48af      	ldr	r0, [pc, #700]	(16474 <.text+0x12474>)
   161b8:	49af      	ldr	r1, [pc, #700]	(16478 <.text+0x12478>)
   161ba:	3f01      	sub	r7, #1
   161bc:	c503      	stmia	r5!,{r0, r1}
   161be:	3601      	add	r6, #1
   161c0:	3404      	add	r4, #4
   161c2:	2f00      	cmp	r7, #0
   161c4:	d1f5      	bne	161b2 <__kernel_rem_pio2+0x6a>
   161c6:	9a05      	ldr	r2, [sp, #20]
   161c8:	2700      	mov	r7, #0
   161ca:	2a00      	cmp	r2, #0
   161cc:	db2f      	blt	1622e <__kernel_rem_pio2+0xe6>
   161ce:	23b4      	mov	r3, #180
   161d0:	005b      	lsl	r3, r3, #1
   161d2:	446b      	add	r3, sp
   161d4:	ac0a      	add	r4, sp, #40
   161d6:	469a      	mov	sl, r3
   161d8:	46a0      	mov	r8, r4
   161da:	49a6      	ldr	r1, [pc, #664]	(16474 <.text+0x12474>)
   161dc:	4aa6      	ldr	r2, [pc, #664]	(16478 <.text+0x12478>)
   161de:	9100      	str	r1, [sp, #0]
   161e0:	9201      	str	r2, [sp, #4]
   161e2:	9a07      	ldr	r2, [sp, #28]
   161e4:	2a00      	cmp	r2, #0
   161e6:	db17      	blt	16218 <__kernel_rem_pio2+0xd0>
   161e8:	19d5      	add	r5, r2, r7
   161ea:	00eb      	lsl	r3, r5, #3
   161ec:	4651      	mov	r1, sl
   161ee:	1c16      	mov	r6, r2		(add r6, r2, #0)
   161f0:	9d09      	ldr	r5, [sp, #36]
   161f2:	185c      	add	r4, r3, r1
   161f4:	3601      	add	r6, #1
   161f6:	6822      	ldr	r2, [r4, #0]
   161f8:	6863      	ldr	r3, [r4, #4]
   161fa:	cd03      	ldmia	r5!,{r0, r1}
   161fc:	ff06f001 	bl	1800c <____muldf3_from_thumb>
   16200:	1c0b      	mov	r3, r1		(add r3, r1, #0)
   16202:	1c02      	mov	r2, r0		(add r2, r0, #0)
   16204:	9800      	ldr	r0, [sp, #0]
   16206:	9901      	ldr	r1, [sp, #4]
   16208:	fefcf001 	bl	18004 <____adddf3_from_thumb>
   1620c:	3e01      	sub	r6, #1
   1620e:	3c08      	sub	r4, #8
   16210:	9000      	str	r0, [sp, #0]
   16212:	9101      	str	r1, [sp, #4]
   16214:	2e00      	cmp	r6, #0
   16216:	d1ee      	bne	161f6 <__kernel_rem_pio2+0xae>
   16218:	4644      	mov	r4, r8
   1621a:	3408      	add	r4, #8
   1621c:	9a00      	ldr	r2, [sp, #0]
   1621e:	9b01      	ldr	r3, [sp, #4]
   16220:	9905      	ldr	r1, [sp, #20]
   16222:	46a0      	mov	r8, r4
   16224:	3701      	add	r7, #1
   16226:	3c08      	sub	r4, #8
   16228:	c40c      	stmia	r4!,{r2, r3}
   1622a:	428f      	cmp	r7, r1
   1622c:	ddd5      	ble	161da <__kernel_rem_pio2+0x92>
   1622e:	9a05      	ldr	r2, [sp, #20]
   16230:	4692      	mov	sl, r2
   16232:	4656      	mov	r6, sl
   16234:	00f3      	lsl	r3, r6, #3
   16236:	ac0a      	add	r4, sp, #40
   16238:	1918      	add	r0, r3, r4
   1623a:	6801      	ldr	r1, [r0, #0]
   1623c:	6842      	ldr	r2, [r0, #4]
   1623e:	9102      	str	r1, [sp, #8]
   16240:	9203      	str	r2, [sp, #12]
   16242:	2e00      	cmp	r6, #0
   16244:	dd27      	ble	16296 <__kernel_rem_pio2+0x14e>
   16246:	1c04      	mov	r4, r0		(add r4, r0, #0)
   16248:	3c08      	sub	r4, #8
   1624a:	ad82      	add	r5, sp, #520
   1624c:	4a8b      	ldr	r2, [pc, #556]	(1647c <.text+0x1247c>)
   1624e:	4b8c      	ldr	r3, [pc, #560]	(16480 <.text+0x12480>)
   16250:	9802      	ldr	r0, [sp, #8]
   16252:	9903      	ldr	r1, [sp, #12]
   16254:	fedaf001 	bl	1800c <____muldf3_from_thumb>
   16258:	fef0f001 	bl	1803c <____fixdfsi_from_thumb>
   1625c:	fef2f001 	bl	18044 <____floatsidf_from_thumb>
   16260:	4a88      	ldr	r2, [pc, #544]	(16484 <.text+0x12484>)
   16262:	4b89      	ldr	r3, [pc, #548]	(16488 <.text+0x12488>)
   16264:	9000      	str	r0, [sp, #0]
   16266:	9101      	str	r1, [sp, #4]
   16268:	fed0f001 	bl	1800c <____muldf3_from_thumb>
   1626c:	1c0b      	mov	r3, r1		(add r3, r1, #0)
   1626e:	1c02      	mov	r2, r0		(add r2, r0, #0)
   16270:	9802      	ldr	r0, [sp, #8]
   16272:	9903      	ldr	r1, [sp, #12]
   16274:	fecef001 	bl	18014 <____subdf3_from_thumb>
   16278:	fee0f001 	bl	1803c <____fixdfsi_from_thumb>
   1627c:	9a00      	ldr	r2, [sp, #0]
   1627e:	9b01      	ldr	r3, [sp, #4]
   16280:	c501      	stmia	r5!,{r0}
   16282:	6820      	ldr	r0, [r4, #0]
   16284:	6861      	ldr	r1, [r4, #4]
   16286:	febdf001 	bl	18004 <____adddf3_from_thumb>
   1628a:	3e01      	sub	r6, #1
   1628c:	3c08      	sub	r4, #8
   1628e:	9002      	str	r0, [sp, #8]
   16290:	9103      	str	r1, [sp, #12]
   16292:	2e00      	cmp	r6, #0
   16294:	dcda      	bgt	1624c <__kernel_rem_pio2+0x104>
   16296:	9a04      	ldr	r2, [sp, #16]
   16298:	9802      	ldr	r0, [sp, #8]
   1629a:	9903      	ldr	r1, [sp, #12]
   1629c:	fcb0f000 	bl	16c00 <scalbn>
   162a0:	4a7a      	ldr	r2, [pc, #488]	(1648c <.text+0x1248c>)
   162a2:	4b7b      	ldr	r3, [pc, #492]	(16490 <.text+0x12490>)
   162a4:	9002      	str	r0, [sp, #8]
   162a6:	9103      	str	r1, [sp, #12]
   162a8:	feb0f001 	bl	1800c <____muldf3_from_thumb>
   162ac:	fbf0f000 	bl	16a90 <floor>
   162b0:	4a78      	ldr	r2, [pc, #480]	(16494 <.text+0x12494>)
   162b2:	4b79      	ldr	r3, [pc, #484]	(16498 <.text+0x12498>)
   162b4:	feaaf001 	bl	1800c <____muldf3_from_thumb>
   162b8:	1c0b      	mov	r3, r1		(add r3, r1, #0)
   162ba:	1c02      	mov	r2, r0		(add r2, r0, #0)
   162bc:	9802      	ldr	r0, [sp, #8]
   162be:	9903      	ldr	r1, [sp, #12]
   162c0:	fea8f001 	bl	18014 <____subdf3_from_thumb>
   162c4:	9002      	str	r0, [sp, #8]
   162c6:	9103      	str	r1, [sp, #12]
   162c8:	feb8f001 	bl	1803c <____fixdfsi_from_thumb>
   162cc:	4681      	mov	r9, r0
   162ce:	feb9f001 	bl	18044 <____floatsidf_from_thumb>
   162d2:	1c0b      	mov	r3, r1		(add r3, r1, #0)
   162d4:	1c02      	mov	r2, r0		(add r2, r0, #0)
   162d6:	9802      	ldr	r0, [sp, #8]
   162d8:	9903      	ldr	r1, [sp, #12]
   162da:	fe9bf001 	bl	18014 <____subdf3_from_thumb>
   162de:	9b04      	ldr	r3, [sp, #16]
   162e0:	2200      	mov	r2, #0
   162e2:	9002      	str	r0, [sp, #8]
   162e4:	9103      	str	r1, [sp, #12]
   162e6:	4693      	mov	fp, r2
   162e8:	2b00      	cmp	r3, #0
   162ea:	dc00      	bgt	162ee <__kernel_rem_pio2+0x1a6>
   162ec:	e1cb      	b	16686 <.text+0x12686>
   162ee:	4654      	mov	r4, sl
   162f0:	00a1      	lsl	r1, r4, #2
   162f2:	aa82      	add	r2, sp, #520
   162f4:	1889      	add	r1, r1, r2
   162f6:	3904      	sub	r1, #4
   162f8:	680a      	ldr	r2, [r1, #0]
   162fa:	9c04      	ldr	r4, [sp, #16]
   162fc:	2318      	mov	r3, #24
   162fe:	1b1b      	sub	r3, r3, r4
   16300:	1c17      	mov	r7, r2		(add r7, r2, #0)
   16302:	411f      	asr	r7, r3
   16304:	44b9      	add	r9, r7
   16306:	409f      	lsl	r7, r3
   16308:	2317      	mov	r3, #23
   1630a:	1bd2      	sub	r2, r2, r7
   1630c:	1b1b      	sub	r3, r3, r4
   1630e:	600a      	str	r2, [r1, #0]
   16310:	411a      	asr	r2, r3
   16312:	4693      	mov	fp, r2
   16314:	465a      	mov	r2, fp
   16316:	2a00      	cmp	r2, #0
   16318:	dd24      	ble	16364 <__kernel_rem_pio2+0x21c>
   1631a:	2301      	mov	r3, #1
   1631c:	4651      	mov	r1, sl
   1631e:	4499      	add	r9, r3
   16320:	2400      	mov	r4, #0
   16322:	2900      	cmp	r1, #0
   16324:	dd11      	ble	1634a <__kernel_rem_pio2+0x202>
   16326:	2180      	mov	r1, #128
   16328:	485c      	ldr	r0, [pc, #368]	(1649c <.text+0x1249c>)
   1632a:	0449      	lsl	r1, r1, #17
   1632c:	aa82      	add	r2, sp, #520
   1632e:	4657      	mov	r7, sl
   16330:	6816      	ldr	r6, [r2, #0]
   16332:	2c00      	cmp	r4, #0
   16334:	d000      	beq	16338 <__kernel_rem_pio2+0x1f0>
   16336:	e097      	b	16468 <__kernel_rem_pio2+0x320>
   16338:	2e00      	cmp	r6, #0
   1633a:	d002      	beq	16342 <__kernel_rem_pio2+0x1fa>
   1633c:	2401      	mov	r4, #1
   1633e:	1b8b      	sub	r3, r1, r6
   16340:	6013      	str	r3, [r2, #0]
   16342:	3f01      	sub	r7, #1
   16344:	3204      	add	r2, #4
   16346:	2f00      	cmp	r7, #0
   16348:	d1f2      	bne	16330 <__kernel_rem_pio2+0x1e8>
   1634a:	9a04      	ldr	r2, [sp, #16]
   1634c:	2a00      	cmp	r2, #0
   1634e:	dd05      	ble	1635c <__kernel_rem_pio2+0x214>
   16350:	2a01      	cmp	r2, #1
   16352:	d100      	bne	16356 <__kernel_rem_pio2+0x20e>
   16354:	e1a3      	b	1669e <.text+0x1269e>
   16356:	2a02      	cmp	r2, #2
   16358:	d100      	bne	1635c <__kernel_rem_pio2+0x214>
   1635a:	e1aa      	b	166b2 <.text+0x126b2>
   1635c:	465b      	mov	r3, fp
   1635e:	2b02      	cmp	r3, #2
   16360:	d100      	bne	16364 <__kernel_rem_pio2+0x21c>
   16362:	e09d      	b	164a0 <.text+0x124a0>
   16364:	9802      	ldr	r0, [sp, #8]
   16366:	9903      	ldr	r1, [sp, #12]
   16368:	4a42      	ldr	r2, [pc, #264]	(16474 <.text+0x12474>)
   1636a:	4b43      	ldr	r3, [pc, #268]	(16478 <.text+0x12478>)
   1636c:	fe5ef001 	bl	1802c <____eqdf2_from_thumb>
   16370:	2800      	cmp	r0, #0
   16372:	d000      	beq	16376 <__kernel_rem_pio2+0x22e>
   16374:	e0b5      	b	164e2 <.text+0x124e2>
   16376:	4657      	mov	r7, sl
   16378:	9c05      	ldr	r4, [sp, #20]
   1637a:	3f01      	sub	r7, #1
   1637c:	2600      	mov	r6, #0
   1637e:	42a7      	cmp	r7, r4
   16380:	db0c      	blt	1639c <__kernel_rem_pio2+0x254>
   16382:	00bb      	lsl	r3, r7, #2
   16384:	a982      	add	r1, sp, #520
   16386:	185a      	add	r2, r3, r1
   16388:	6813      	ldr	r3, [r2, #0]
   1638a:	431e      	orr	r6, r3
   1638c:	9b05      	ldr	r3, [sp, #20]
   1638e:	3f01      	sub	r7, #1
   16390:	3a04      	sub	r2, #4
   16392:	429f      	cmp	r7, r3
   16394:	daf8      	bge	16388 <__kernel_rem_pio2+0x240>
   16396:	2e00      	cmp	r6, #0
   16398:	d000      	beq	1639c <__kernel_rem_pio2+0x254>
   1639a:	e0a2      	b	164e2 <.text+0x124e2>
   1639c:	9b05      	ldr	r3, [sp, #20]
   1639e:	2282      	mov	r2, #130
   163a0:	3b01      	sub	r3, #1
   163a2:	009b      	lsl	r3, r3, #2
   163a4:	0092      	lsl	r2, r2, #2
   163a6:	18d2      	add	r2, r2, r3
   163a8:	4669      	mov	r1, sp
   163aa:	5853      	ldr	r3, [r2, r1]
   163ac:	2401      	mov	r4, #1
   163ae:	2b00      	cmp	r3, #0
   163b0:	d109      	bne	163c6 <__kernel_rem_pio2+0x27e>
   163b2:	9905      	ldr	r1, [sp, #20]
   163b4:	aa82      	add	r2, sp, #520
   163b6:	008b      	lsl	r3, r1, #2
   163b8:	189b      	add	r3, r3, r2
   163ba:	1f1a      	sub	r2, r3, #4
   163bc:	3a04      	sub	r2, #4
   163be:	6813      	ldr	r3, [r2, #0]
   163c0:	3401      	add	r4, #1
   163c2:	2b00      	cmp	r3, #0
   163c4:	d0fa      	beq	163bc <__kernel_rem_pio2+0x274>
   163c6:	4657      	mov	r7, sl
   163c8:	4454      	add	r4, sl
   163ca:	3701      	add	r7, #1
   163cc:	46a0      	mov	r8, r4
   163ce:	45b8      	cmp	r8, r7
   163d0:	db45      	blt	1645e <__kernel_rem_pio2+0x316>
   163d2:	00fb      	lsl	r3, r7, #3
   163d4:	9907      	ldr	r1, [sp, #28]
   163d6:	ac0a      	add	r4, sp, #40
   163d8:	18e4      	add	r4, r4, r3
   163da:	46a3      	mov	fp, r4
   163dc:	19cb      	add	r3, r1, r7
   163de:	9c06      	ldr	r4, [sp, #24]
   163e0:	00db      	lsl	r3, r3, #3
   163e2:	aa5a      	add	r2, sp, #360
   163e4:	18d2      	add	r2, r2, r3
   163e6:	99a0      	ldr	r1, [sp, #640]
   163e8:	19e3      	add	r3, r4, r7
   163ea:	009b      	lsl	r3, r3, #2
   163ec:	185b      	add	r3, r3, r1
   163ee:	4691      	mov	r9, r2
   163f0:	469a      	mov	sl, r3
   163f2:	4653      	mov	r3, sl
   163f4:	3304      	add	r3, #4
   163f6:	9a07      	ldr	r2, [sp, #28]
   163f8:	469a      	mov	sl, r3
   163fa:	3b04      	sub	r3, #4
   163fc:	cb01      	ldmia	r3!,{r0}
   163fe:	19d5      	add	r5, r2, r7
   16400:	fe20f001 	bl	18044 <____floatsidf_from_thumb>
   16404:	464c      	mov	r4, r9
   16406:	3408      	add	r4, #8
   16408:	46a1      	mov	r9, r4
   1640a:	3c08      	sub	r4, #8
   1640c:	c403      	stmia	r4!,{r0, r1}
   1640e:	4919      	ldr	r1, [pc, #100]	(16474 <.text+0x12474>)
   16410:	4a19      	ldr	r2, [pc, #100]	(16478 <.text+0x12478>)
   16412:	9100      	str	r1, [sp, #0]
   16414:	9201      	str	r2, [sp, #4]
   16416:	9a07      	ldr	r2, [sp, #28]
   16418:	2a00      	cmp	r2, #0
   1641a:	db16      	blt	1644a <__kernel_rem_pio2+0x302>
   1641c:	ac5a      	add	r4, sp, #360
   1641e:	00eb      	lsl	r3, r5, #3
   16420:	191d      	add	r5, r3, r4
   16422:	1c16      	mov	r6, r2		(add r6, r2, #0)
   16424:	9c09      	ldr	r4, [sp, #36]
   16426:	3601      	add	r6, #1
   16428:	682a      	ldr	r2, [r5, #0]
   1642a:	686b      	ldr	r3, [r5, #4]
   1642c:	cc03      	ldmia	r4!,{r0, r1}
   1642e:	fdedf001 	bl	1800c <____muldf3_from_thumb>
   16432:	1c0b      	mov	r3, r1		(add r3, r1, #0)
   16434:	1c02      	mov	r2, r0		(add r2, r0, #0)
   16436:	9800      	ldr	r0, [sp, #0]
   16438:	9901      	ldr	r1, [sp, #4]
   1643a:	fde3f001 	bl	18004 <____adddf3_from_thumb>
   1643e:	3e01      	sub	r6, #1
   16440:	3d08      	sub	r5, #8
   16442:	9000      	str	r0, [sp, #0]
   16444:	9101      	str	r1, [sp, #4]
   16446:	2e00      	cmp	r6, #0
   16448:	d1ee      	bne	16428 <__kernel_rem_pio2+0x2e0>
   1644a:	465b      	mov	r3, fp
   1644c:	3308      	add	r3, #8
   1644e:	9900      	ldr	r1, [sp, #0]
   16450:	9a01      	ldr	r2, [sp, #4]
   16452:	469b      	mov	fp, r3
   16454:	3701      	add	r7, #1
   16456:	3b08      	sub	r3, #8
   16458:	c306      	stmia	r3!,{r1, r2}
   1645a:	45b8      	cmp	r8, r7
   1645c:	dac9      	bge	163f2 <__kernel_rem_pio2+0x2aa>
   1645e:	46c2      	mov	sl, r8
   16460:	e6e7      	b	16232 <__kernel_rem_pio2+0xea>
   16462:	2300      	mov	r3, #0
   16464:	9306      	str	r3, [sp, #24]
   16466:	e689      	b	1617c <__kernel_rem_pio2+0x34>
   16468:	1b83      	sub	r3, r0, r6
   1646a:	e769      	b	16340 <__kernel_rem_pio2+0x1f8>
   1646c:	fda8      	second half of BL instruction 0xfda8
   1646e:	ffff      	second half of BL instruction 0xffff
   16470:	82f4      	strh	r4, [r6, #22]
   16472:	0001      	lsl	r1, r0, #0
	...
   1647c:	0000      	lsl	r0, r0, #0
   1647e:	3e70      	sub	r6, #112
   16480:	0000      	lsl	r0, r0, #0
   16482:	0000      	lsl	r0, r0, #0
   16484:	0000      	lsl	r0, r0, #0
   16486:	4170      	adc	r0, r6
   16488:	0000      	lsl	r0, r0, #0
   1648a:	0000      	lsl	r0, r0, #0
   1648c:	0000      	lsl	r0, r0, #0
   1648e:	3fc0      	sub	r7, #192
   16490:	0000      	lsl	r0, r0, #0
   16492:	0000      	lsl	r0, r0, #0
   16494:	0000      	lsl	r0, r0, #0
   16496:	4020      	and	r0, r4
   16498:	0000      	lsl	r0, r0, #0
   1649a:	0000      	lsl	r0, r0, #0
   1649c:	ffff      	second half of BL instruction 0xffff
   1649e:	00ff      	lsl	r7, r7, #3
   164a0:	9a02      	ldr	r2, [sp, #8]
   164a2:	9b03      	ldr	r3, [sp, #12]
   164a4:	4990      	ldr	r1, [pc, #576]	(166e8 <.text+0x126e8>)
   164a6:	488f      	ldr	r0, [pc, #572]	(166e4 <.text+0x126e4>)
   164a8:	fdb4f001 	bl	18014 <____subdf3_from_thumb>
   164ac:	9002      	str	r0, [sp, #8]
   164ae:	9103      	str	r1, [sp, #12]
   164b0:	2c00      	cmp	r4, #0
   164b2:	d100      	bne	164b6 <.text+0x124b6>
   164b4:	e756      	b	16364 <__kernel_rem_pio2+0x21c>
   164b6:	9a04      	ldr	r2, [sp, #16]
   164b8:	498b      	ldr	r1, [pc, #556]	(166e8 <.text+0x126e8>)
   164ba:	488a      	ldr	r0, [pc, #552]	(166e4 <.text+0x126e4>)
   164bc:	fba0f000 	bl	16c00 <scalbn>
   164c0:	1c0b      	mov	r3, r1		(add r3, r1, #0)
   164c2:	1c02      	mov	r2, r0		(add r2, r0, #0)
   164c4:	9802      	ldr	r0, [sp, #8]
   164c6:	9903      	ldr	r1, [sp, #12]
   164c8:	fda4f001 	bl	18014 <____subdf3_from_thumb>
   164cc:	9002      	str	r0, [sp, #8]
   164ce:	9103      	str	r1, [sp, #12]
   164d0:	9802      	ldr	r0, [sp, #8]
   164d2:	9903      	ldr	r1, [sp, #12]
   164d4:	4a85      	ldr	r2, [pc, #532]	(166ec <.text+0x126ec>)
   164d6:	4b86      	ldr	r3, [pc, #536]	(166f0 <.text+0x126f0>)
   164d8:	fda8f001 	bl	1802c <____eqdf2_from_thumb>
   164dc:	2800      	cmp	r0, #0
   164de:	d100      	bne	164e2 <.text+0x124e2>
   164e0:	e749      	b	16376 <__kernel_rem_pio2+0x22e>
   164e2:	9802      	ldr	r0, [sp, #8]
   164e4:	9903      	ldr	r1, [sp, #12]
   164e6:	4a81      	ldr	r2, [pc, #516]	(166ec <.text+0x126ec>)
   164e8:	4b81      	ldr	r3, [pc, #516]	(166f0 <.text+0x126f0>)
   164ea:	fd9ff001 	bl	1802c <____eqdf2_from_thumb>
   164ee:	2800      	cmp	r0, #0
   164f0:	d000      	beq	164f4 <.text+0x124f4>
   164f2:	e18d      	b	16810 <.text+0x12810>
   164f4:	2401      	mov	r4, #1
   164f6:	4264      	neg	r4, r4
   164f8:	44a2      	add	sl, r4
   164fa:	9904      	ldr	r1, [sp, #16]
   164fc:	4652      	mov	r2, sl
   164fe:	0093      	lsl	r3, r2, #2
   16500:	ac82      	add	r4, sp, #520
   16502:	3918      	sub	r1, #24
   16504:	191a      	add	r2, r3, r4
   16506:	9104      	str	r1, [sp, #16]
   16508:	e006      	b	16518 <.text+0x12518>
   1650a:	9b04      	ldr	r3, [sp, #16]
   1650c:	2101      	mov	r1, #1
   1650e:	3b18      	sub	r3, #24
   16510:	4249      	neg	r1, r1
   16512:	9304      	str	r3, [sp, #16]
   16514:	448a      	add	sl, r1
   16516:	3a04      	sub	r2, #4
   16518:	6813      	ldr	r3, [r2, #0]
   1651a:	2b00      	cmp	r3, #0
   1651c:	d0f5      	beq	1650a <.text+0x1250a>
   1651e:	4972      	ldr	r1, [pc, #456]	(166e8 <.text+0x126e8>)
   16520:	4870      	ldr	r0, [pc, #448]	(166e4 <.text+0x126e4>)
   16522:	9a04      	ldr	r2, [sp, #16]
   16524:	fb6cf000 	bl	16c00 <scalbn>
   16528:	4657      	mov	r7, sl
   1652a:	9000      	str	r0, [sp, #0]
   1652c:	9101      	str	r1, [sp, #4]
   1652e:	2f00      	cmp	r7, #0
   16530:	db4d      	blt	165ce <.text+0x125ce>
   16532:	00fb      	lsl	r3, r7, #3
   16534:	aa0a      	add	r2, sp, #40
   16536:	189d      	add	r5, r3, r2
   16538:	a982      	add	r1, sp, #520
   1653a:	00bb      	lsl	r3, r7, #2
   1653c:	185c      	add	r4, r3, r1
   1653e:	6820      	ldr	r0, [r4, #0]
   16540:	fd80f001 	bl	18044 <____floatsidf_from_thumb>
   16544:	9a00      	ldr	r2, [sp, #0]
   16546:	9b01      	ldr	r3, [sp, #4]
   16548:	fd60f001 	bl	1800c <____muldf3_from_thumb>
   1654c:	4a69      	ldr	r2, [pc, #420]	(166f4 <.text+0x126f4>)
   1654e:	4b6a      	ldr	r3, [pc, #424]	(166f8 <.text+0x126f8>)
   16550:	6028      	str	r0, [r5, #0]
   16552:	6069      	str	r1, [r5, #4]
   16554:	9800      	ldr	r0, [sp, #0]
   16556:	9901      	ldr	r1, [sp, #4]
   16558:	fd58f001 	bl	1800c <____muldf3_from_thumb>
   1655c:	3c04      	sub	r4, #4
   1655e:	3d08      	sub	r5, #8
   16560:	9000      	str	r0, [sp, #0]
   16562:	9101      	str	r1, [sp, #4]
   16564:	3f01      	sub	r7, #1
   16566:	d5ea      	bpl	1653e <.text+0x1253e>
   16568:	4657      	mov	r7, sl
   1656a:	2f00      	cmp	r7, #0
   1656c:	db2f      	blt	165ce <.text+0x125ce>
   1656e:	4a5f      	ldr	r2, [pc, #380]	(166ec <.text+0x126ec>)
   16570:	4b5f      	ldr	r3, [pc, #380]	(166f0 <.text+0x126f0>)
   16572:	9200      	str	r2, [sp, #0]
   16574:	9301      	str	r3, [sp, #4]
   16576:	9b05      	ldr	r3, [sp, #20]
   16578:	2400      	mov	r4, #0
   1657a:	2b00      	cmp	r3, #0
   1657c:	da00      	bge	16580 <.text+0x12580>
   1657e:	e0ae      	b	166de <.text+0x126de>
   16580:	4651      	mov	r1, sl
   16582:	1bce      	sub	r6, r1, r7
   16584:	d41a      	bmi	165bc <.text+0x125bc>
   16586:	00fb      	lsl	r3, r7, #3
   16588:	aa0a      	add	r2, sp, #40
   1658a:	189d      	add	r5, r3, r2
   1658c:	4b5b      	ldr	r3, [pc, #364]	(166fc <.text+0x126fc>)
   1658e:	4698      	mov	r8, r3
   16590:	4642      	mov	r2, r8
   16592:	3208      	add	r2, #8
   16594:	4690      	mov	r8, r2
   16596:	3a08      	sub	r2, #8
   16598:	ca03      	ldmia	r2!,{r0, r1}
   1659a:	cd0c      	ldmia	r5!,{r2, r3}
   1659c:	fd36f001 	bl	1800c <____muldf3_from_thumb>
   165a0:	1c0b      	mov	r3, r1		(add r3, r1, #0)
   165a2:	1c02      	mov	r2, r0		(add r2, r0, #0)
   165a4:	9800      	ldr	r0, [sp, #0]
   165a6:	9901      	ldr	r1, [sp, #4]
   165a8:	fd2cf001 	bl	18004 <____adddf3_from_thumb>
   165ac:	9b05      	ldr	r3, [sp, #20]
   165ae:	3401      	add	r4, #1
   165b0:	9000      	str	r0, [sp, #0]
   165b2:	9101      	str	r1, [sp, #4]
   165b4:	429c      	cmp	r4, r3
   165b6:	dc01      	bgt	165bc <.text+0x125bc>
   165b8:	42a6      	cmp	r6, r4
   165ba:	dae9      	bge	16590 <.text+0x12590>
   165bc:	a932      	add	r1, sp, #200
   165be:	00f3      	lsl	r3, r6, #3
   165c0:	185b      	add	r3, r3, r1
   165c2:	9900      	ldr	r1, [sp, #0]
   165c4:	9a01      	ldr	r2, [sp, #4]
   165c6:	6019      	str	r1, [r3, #0]
   165c8:	605a      	str	r2, [r3, #4]
   165ca:	3f01      	sub	r7, #1
   165cc:	d5cf      	bpl	1656e <.text+0x1256e>
   165ce:	9a9f      	ldr	r2, [sp, #636]
   165d0:	2a02      	cmp	r2, #2
   165d2:	dd00      	ble	165d6 <.text+0x125d6>
   165d4:	e0a0      	b	16718 <.text+0x12718>
   165d6:	2a01      	cmp	r2, #1
   165d8:	da00      	bge	165dc <.text+0x125dc>
   165da:	e155      	b	16888 <.text+0x12888>
   165dc:	4b43      	ldr	r3, [pc, #268]	(166ec <.text+0x126ec>)
   165de:	4c44      	ldr	r4, [pc, #272]	(166f0 <.text+0x126f0>)
   165e0:	4657      	mov	r7, sl
   165e2:	9300      	str	r3, [sp, #0]
   165e4:	9401      	str	r4, [sp, #4]
   165e6:	2f00      	cmp	r7, #0
   165e8:	db0d      	blt	16606 <.text+0x12606>
   165ea:	00fb      	lsl	r3, r7, #3
   165ec:	a932      	add	r1, sp, #200
   165ee:	185c      	add	r4, r3, r1
   165f0:	6822      	ldr	r2, [r4, #0]
   165f2:	6863      	ldr	r3, [r4, #4]
   165f4:	9800      	ldr	r0, [sp, #0]
   165f6:	9901      	ldr	r1, [sp, #4]
   165f8:	fd04f001 	bl	18004 <____adddf3_from_thumb>
   165fc:	3c08      	sub	r4, #8
   165fe:	9000      	str	r0, [sp, #0]
   16600:	9101      	str	r1, [sp, #4]
   16602:	3f01      	sub	r7, #1
   16604:	d5f4      	bpl	165f0 <.text+0x125f0>
   16606:	465a      	mov	r2, fp
   16608:	9b00      	ldr	r3, [sp, #0]
   1660a:	9c01      	ldr	r4, [sp, #4]
   1660c:	2a00      	cmp	r2, #0
   1660e:	d004      	beq	1661a <.text+0x1261a>
   16610:	493b      	ldr	r1, [pc, #236]	(16700 <.text+0x12700>)
   16612:	4a3c      	ldr	r2, [pc, #240]	(16704 <.text+0x12704>)
   16614:	9b00      	ldr	r3, [sp, #0]
   16616:	9c01      	ldr	r4, [sp, #4]
   16618:	404b      	eor	r3, r1
   1661a:	9908      	ldr	r1, [sp, #32]
   1661c:	600b      	str	r3, [r1, #0]
   1661e:	604c      	str	r4, [r1, #4]
   16620:	9832      	ldr	r0, [sp, #200]
   16622:	9933      	ldr	r1, [sp, #204]
   16624:	9a00      	ldr	r2, [sp, #0]
   16626:	9b01      	ldr	r3, [sp, #4]
   16628:	fcf4f001 	bl	18014 <____subdf3_from_thumb>
   1662c:	4652      	mov	r2, sl
   1662e:	9000      	str	r0, [sp, #0]
   16630:	9101      	str	r1, [sp, #4]
   16632:	2a01      	cmp	r2, #1
   16634:	db0c      	blt	16650 <.text+0x12650>
   16636:	ac32      	add	r4, sp, #200
   16638:	3408      	add	r4, #8
   1663a:	4657      	mov	r7, sl
   1663c:	9800      	ldr	r0, [sp, #0]
   1663e:	9901      	ldr	r1, [sp, #4]
   16640:	cc0c      	ldmia	r4!,{r2, r3}
   16642:	fcdff001 	bl	18004 <____adddf3_from_thumb>
   16646:	3f01      	sub	r7, #1
   16648:	9000      	str	r0, [sp, #0]
   1664a:	9101      	str	r1, [sp, #4]
   1664c:	2f00      	cmp	r7, #0
   1664e:	d1f5      	bne	1663c <.text+0x1263c>
   16650:	4659      	mov	r1, fp
   16652:	9b00      	ldr	r3, [sp, #0]
   16654:	9c01      	ldr	r4, [sp, #4]
   16656:	2900      	cmp	r1, #0
   16658:	d004      	beq	16664 <.text+0x12664>
   1665a:	4929      	ldr	r1, [pc, #164]	(16700 <.text+0x12700>)
   1665c:	4a29      	ldr	r2, [pc, #164]	(16704 <.text+0x12704>)
   1665e:	9b00      	ldr	r3, [sp, #0]
   16660:	9c01      	ldr	r4, [sp, #4]
   16662:	404b      	eor	r3, r1
   16664:	9a08      	ldr	r2, [sp, #32]
   16666:	6093      	str	r3, [r2, #8]
   16668:	60d4      	str	r4, [r2, #12]
   1666a:	4648      	mov	r0, r9
   1666c:	2307      	mov	r3, #7
   1666e:	4018      	and	r0, r3
   16670:	2396      	mov	r3, #150
   16672:	009b      	lsl	r3, r3, #2
   16674:	449d      	add	sp, r3
   16676:	bc78      	pop	{r3, r4, r5, r6}
   16678:	4698      	mov	r8, r3
   1667a:	46a1      	mov	r9, r4
   1667c:	46aa      	mov	sl, r5
   1667e:	46b3      	mov	fp, r6
   16680:	bcf0      	pop	{r4, r5, r6, r7}
   16682:	bc02      	pop	{r1}
   16684:	4708      	bx	r1
   16686:	9904      	ldr	r1, [sp, #16]
   16688:	2900      	cmp	r1, #0
   1668a:	d11c      	bne	166c6 <.text+0x126c6>
   1668c:	4652      	mov	r2, sl
   1668e:	0093      	lsl	r3, r2, #2
   16690:	ac82      	add	r4, sp, #520
   16692:	191b      	add	r3, r3, r4
   16694:	3b04      	sub	r3, #4
   16696:	681b      	ldr	r3, [r3, #0]
   16698:	15db      	asr	r3, r3, #23
   1669a:	469b      	mov	fp, r3
   1669c:	e63a      	b	16314 <__kernel_rem_pio2+0x1cc>
   1669e:	4651      	mov	r1, sl
   166a0:	008b      	lsl	r3, r1, #2
   166a2:	aa82      	add	r2, sp, #520
   166a4:	189b      	add	r3, r3, r2
   166a6:	3b04      	sub	r3, #4
   166a8:	681a      	ldr	r2, [r3, #0]
   166aa:	4917      	ldr	r1, [pc, #92]	(16708 <.text+0x12708>)
   166ac:	400a      	and	r2, r1
   166ae:	601a      	str	r2, [r3, #0]
   166b0:	e654      	b	1635c <__kernel_rem_pio2+0x214>
   166b2:	4651      	mov	r1, sl
   166b4:	008b      	lsl	r3, r1, #2
   166b6:	aa82      	add	r2, sp, #520
   166b8:	189b      	add	r3, r3, r2
   166ba:	3b04      	sub	r3, #4
   166bc:	681a      	ldr	r2, [r3, #0]
   166be:	4913      	ldr	r1, [pc, #76]	(1670c <.text+0x1270c>)
   166c0:	400a      	and	r2, r1
   166c2:	601a      	str	r2, [r3, #0]
   166c4:	e64a      	b	1635c <__kernel_rem_pio2+0x214>
   166c6:	9802      	ldr	r0, [sp, #8]
   166c8:	9903      	ldr	r1, [sp, #12]
   166ca:	4a11      	ldr	r2, [pc, #68]	(16710 <.text+0x12710>)
   166cc:	4b11      	ldr	r3, [pc, #68]	(16714 <.text+0x12714>)
   166ce:	fcbdf001 	bl	1804c <____gedf2_from_thumb>
   166d2:	2800      	cmp	r0, #0
   166d4:	da00      	bge	166d8 <.text+0x126d8>
   166d6:	e645      	b	16364 <__kernel_rem_pio2+0x21c>
   166d8:	2102      	mov	r1, #2
   166da:	468b      	mov	fp, r1
   166dc:	e61d      	b	1631a <__kernel_rem_pio2+0x1d2>
   166de:	4654      	mov	r4, sl
   166e0:	1be6      	sub	r6, r4, r7
   166e2:	e76b      	b	165bc <.text+0x125bc>
   166e4:	0000      	lsl	r0, r0, #0
   166e6:	3ff0      	sub	r7, #240
	...
   166f4:	0000      	lsl	r0, r0, #0
   166f6:	3e70      	sub	r6, #112
   166f8:	0000      	lsl	r0, r0, #0
   166fa:	0000      	lsl	r0, r0, #0
   166fc:	82b4      	strh	r4, [r6, #20]
   166fe:	0001      	lsl	r1, r0, #0
   16700:	0000      	lsl	r0, r0, #0
   16702:	8000      	strh	r0, [r0, #0]
   16704:	0000      	lsl	r0, r0, #0
   16706:	0000      	lsl	r0, r0, #0
   16708:	ffff      	second half of BL instruction 0xffff
   1670a:	007f      	lsl	r7, r7, #1
   1670c:	ffff      	second half of BL instruction 0xffff
   1670e:	003f      	lsl	r7, r7, #0
   16710:	0000      	lsl	r0, r0, #0
   16712:	3fe0      	sub	r7, #224
   16714:	0000      	lsl	r0, r0, #0
   16716:	0000      	lsl	r0, r0, #0
   16718:	9b9f      	ldr	r3, [sp, #636]
   1671a:	2b03      	cmp	r3, #3
   1671c:	d1a5      	bne	1666a <.text+0x1266a>
   1671e:	4657      	mov	r7, sl
   16720:	2f00      	cmp	r7, #0
   16722:	dd25      	ble	16770 <.text+0x12770>
   16724:	00fb      	lsl	r3, r7, #3
   16726:	ac32      	add	r4, sp, #200
   16728:	18e4      	add	r4, r4, r3
   1672a:	46a0      	mov	r8, r4
   1672c:	4646      	mov	r6, r8
   1672e:	3e08      	sub	r6, #8
   16730:	4644      	mov	r4, r8
   16732:	6822      	ldr	r2, [r4, #0]
   16734:	6863      	ldr	r3, [r4, #4]
   16736:	6830      	ldr	r0, [r6, #0]
   16738:	6871      	ldr	r1, [r6, #4]
   1673a:	fc63f001 	bl	18004 <____adddf3_from_thumb>
   1673e:	9000      	str	r0, [sp, #0]
   16740:	9101      	str	r1, [sp, #4]
   16742:	9a00      	ldr	r2, [sp, #0]
   16744:	9b01      	ldr	r3, [sp, #4]
   16746:	6830      	ldr	r0, [r6, #0]
   16748:	6871      	ldr	r1, [r6, #4]
   1674a:	fc63f001 	bl	18014 <____subdf3_from_thumb>
   1674e:	1c0b      	mov	r3, r1		(add r3, r1, #0)
   16750:	1c02      	mov	r2, r0		(add r2, r0, #0)
   16752:	6820      	ldr	r0, [r4, #0]
   16754:	6861      	ldr	r1, [r4, #4]
   16756:	fc55f001 	bl	18004 <____adddf3_from_thumb>
   1675a:	9b00      	ldr	r3, [sp, #0]
   1675c:	9c01      	ldr	r4, [sp, #4]
   1675e:	4642      	mov	r2, r8
   16760:	3f01      	sub	r7, #1
   16762:	6010      	str	r0, [r2, #0]
   16764:	6051      	str	r1, [r2, #4]
   16766:	46b0      	mov	r8, r6
   16768:	6033      	str	r3, [r6, #0]
   1676a:	6074      	str	r4, [r6, #4]
   1676c:	2f00      	cmp	r7, #0
   1676e:	dcdd      	bgt	1672c <.text+0x1272c>
   16770:	4657      	mov	r7, sl
   16772:	2f01      	cmp	r7, #1
   16774:	dd25      	ble	167c2 <.text+0x127c2>
   16776:	00fb      	lsl	r3, r7, #3
   16778:	ac32      	add	r4, sp, #200
   1677a:	18e4      	add	r4, r4, r3
   1677c:	46a0      	mov	r8, r4
   1677e:	4646      	mov	r6, r8
   16780:	3e08      	sub	r6, #8
   16782:	4644      	mov	r4, r8
   16784:	6822      	ldr	r2, [r4, #0]
   16786:	6863      	ldr	r3, [r4, #4]
   16788:	6830      	ldr	r0, [r6, #0]
   1678a:	6871      	ldr	r1, [r6, #4]
   1678c:	fc3af001 	bl	18004 <____adddf3_from_thumb>
   16790:	9000      	str	r0, [sp, #0]
   16792:	9101      	str	r1, [sp, #4]
   16794:	9a00      	ldr	r2, [sp, #0]
   16796:	9b01      	ldr	r3, [sp, #4]
   16798:	6830      	ldr	r0, [r6, #0]
   1679a:	6871      	ldr	r1, [r6, #4]
   1679c:	fc3af001 	bl	18014 <____subdf3_from_thumb>
   167a0:	1c0b      	mov	r3, r1		(add r3, r1, #0)
   167a2:	1c02      	mov	r2, r0		(add r2, r0, #0)
   167a4:	6820      	ldr	r0, [r4, #0]
   167a6:	6861      	ldr	r1, [r4, #4]
   167a8:	fc2cf001 	bl	18004 <____adddf3_from_thumb>
   167ac:	9b00      	ldr	r3, [sp, #0]
   167ae:	9c01      	ldr	r4, [sp, #4]
   167b0:	4642      	mov	r2, r8
   167b2:	3f01      	sub	r7, #1
   167b4:	6010      	str	r0, [r2, #0]
   167b6:	6051      	str	r1, [r2, #4]
   167b8:	46b0      	mov	r8, r6
   167ba:	6033      	str	r3, [r6, #0]
   167bc:	6074      	str	r4, [r6, #4]
   167be:	2f01      	cmp	r7, #1
   167c0:	dcdd      	bgt	1677e <.text+0x1277e>
   167c2:	4a55      	ldr	r2, [pc, #340]	(16918 <.text+0x12918>)
   167c4:	4953      	ldr	r1, [pc, #332]	(16914 <.text+0x12914>)
   167c6:	4657      	mov	r7, sl
   167c8:	9100      	str	r1, [sp, #0]
   167ca:	9201      	str	r2, [sp, #4]
   167cc:	2f01      	cmp	r7, #1
   167ce:	dd0e      	ble	167ee <.text+0x127ee>
   167d0:	00fb      	lsl	r3, r7, #3
   167d2:	aa32      	add	r2, sp, #200
   167d4:	189c      	add	r4, r3, r2
   167d6:	6822      	ldr	r2, [r4, #0]
   167d8:	6863      	ldr	r3, [r4, #4]
   167da:	9800      	ldr	r0, [sp, #0]
   167dc:	9901      	ldr	r1, [sp, #4]
   167de:	fc11f001 	bl	18004 <____adddf3_from_thumb>
   167e2:	3f01      	sub	r7, #1
   167e4:	3c08      	sub	r4, #8
   167e6:	9000      	str	r0, [sp, #0]
   167e8:	9101      	str	r1, [sp, #4]
   167ea:	2f01      	cmp	r7, #1
   167ec:	dcf3      	bgt	167d6 <.text+0x127d6>
   167ee:	465b      	mov	r3, fp
   167f0:	2b00      	cmp	r3, #0
   167f2:	d16f      	bne	168d4 <.text+0x128d4>
   167f4:	9b32      	ldr	r3, [sp, #200]
   167f6:	9c33      	ldr	r4, [sp, #204]
   167f8:	9908      	ldr	r1, [sp, #32]
   167fa:	600b      	str	r3, [r1, #0]
   167fc:	604c      	str	r4, [r1, #4]
   167fe:	9b34      	ldr	r3, [sp, #208]
   16800:	9c35      	ldr	r4, [sp, #212]
   16802:	608b      	str	r3, [r1, #8]
   16804:	60cc      	str	r4, [r1, #12]
   16806:	9b00      	ldr	r3, [sp, #0]
   16808:	9c01      	ldr	r4, [sp, #4]
   1680a:	610b      	str	r3, [r1, #16]
   1680c:	614c      	str	r4, [r1, #20]
   1680e:	e72c      	b	1666a <.text+0x1266a>
   16810:	9c04      	ldr	r4, [sp, #16]
   16812:	9802      	ldr	r0, [sp, #8]
   16814:	9903      	ldr	r1, [sp, #12]
   16816:	4262      	neg	r2, r4
   16818:	f9f2f000 	bl	16c00 <scalbn>
   1681c:	4a3f      	ldr	r2, [pc, #252]	(1691c <.text+0x1291c>)
   1681e:	4b40      	ldr	r3, [pc, #256]	(16920 <.text+0x12920>)
   16820:	9002      	str	r0, [sp, #8]
   16822:	9103      	str	r1, [sp, #12]
   16824:	fc12f001 	bl	1804c <____gedf2_from_thumb>
   16828:	2800      	cmp	r0, #0
   1682a:	db6b      	blt	16904 <.text+0x12904>
   1682c:	4a3d      	ldr	r2, [pc, #244]	(16924 <.text+0x12924>)
   1682e:	4b3e      	ldr	r3, [pc, #248]	(16928 <.text+0x12928>)
   16830:	9802      	ldr	r0, [sp, #8]
   16832:	9903      	ldr	r1, [sp, #12]
   16834:	fbeaf001 	bl	1800c <____muldf3_from_thumb>
   16838:	fc00f001 	bl	1803c <____fixdfsi_from_thumb>
   1683c:	fc02f001 	bl	18044 <____floatsidf_from_thumb>
   16840:	9000      	str	r0, [sp, #0]
   16842:	9101      	str	r1, [sp, #4]
   16844:	4651      	mov	r1, sl
   16846:	008c      	lsl	r4, r1, #2
   16848:	aa82      	add	r2, sp, #520
   1684a:	18a4      	add	r4, r4, r2
   1684c:	9800      	ldr	r0, [sp, #0]
   1684e:	9901      	ldr	r1, [sp, #4]
   16850:	4a32      	ldr	r2, [pc, #200]	(1691c <.text+0x1291c>)
   16852:	4b33      	ldr	r3, [pc, #204]	(16920 <.text+0x12920>)
   16854:	fbdaf001 	bl	1800c <____muldf3_from_thumb>
   16858:	1c0b      	mov	r3, r1		(add r3, r1, #0)
   1685a:	1c02      	mov	r2, r0		(add r2, r0, #0)
   1685c:	9802      	ldr	r0, [sp, #8]
   1685e:	9903      	ldr	r1, [sp, #12]
   16860:	fbd8f001 	bl	18014 <____subdf3_from_thumb>
   16864:	fbeaf001 	bl	1803c <____fixdfsi_from_thumb>
   16868:	2301      	mov	r3, #1
   1686a:	6020      	str	r0, [r4, #0]
   1686c:	9c04      	ldr	r4, [sp, #16]
   1686e:	449a      	add	sl, r3
   16870:	3418      	add	r4, #24
   16872:	4651      	mov	r1, sl
   16874:	9404      	str	r4, [sp, #16]
   16876:	aa82      	add	r2, sp, #520
   16878:	008c      	lsl	r4, r1, #2
   1687a:	9800      	ldr	r0, [sp, #0]
   1687c:	9901      	ldr	r1, [sp, #4]
   1687e:	18a4      	add	r4, r4, r2
   16880:	fbdcf001 	bl	1803c <____fixdfsi_from_thumb>
   16884:	6020      	str	r0, [r4, #0]
   16886:	e64a      	b	1651e <.text+0x1251e>
   16888:	2a00      	cmp	r2, #0
   1688a:	d000      	beq	1688e <.text+0x1288e>
   1688c:	e6ed      	b	1666a <.text+0x1266a>
   1688e:	4a22      	ldr	r2, [pc, #136]	(16918 <.text+0x12918>)
   16890:	4920      	ldr	r1, [pc, #128]	(16914 <.text+0x12914>)
   16892:	4657      	mov	r7, sl
   16894:	9100      	str	r1, [sp, #0]
   16896:	9201      	str	r2, [sp, #4]
   16898:	2f00      	cmp	r7, #0
   1689a:	db0d      	blt	168b8 <.text+0x128b8>
   1689c:	00fb      	lsl	r3, r7, #3
   1689e:	aa32      	add	r2, sp, #200
   168a0:	189c      	add	r4, r3, r2
   168a2:	6822      	ldr	r2, [r4, #0]
   168a4:	6863      	ldr	r3, [r4, #4]
   168a6:	9800      	ldr	r0, [sp, #0]
   168a8:	9901      	ldr	r1, [sp, #4]
   168aa:	fbabf001 	bl	18004 <____adddf3_from_thumb>
   168ae:	3c08      	sub	r4, #8
   168b0:	9000      	str	r0, [sp, #0]
   168b2:	9101      	str	r1, [sp, #4]
   168b4:	3f01      	sub	r7, #1
   168b6:	d5f4      	bpl	168a2 <.text+0x128a2>
   168b8:	4659      	mov	r1, fp
   168ba:	9b00      	ldr	r3, [sp, #0]
   168bc:	9c01      	ldr	r4, [sp, #4]
   168be:	2900      	cmp	r1, #0
   168c0:	d004      	beq	168cc <.text+0x128cc>
   168c2:	491a      	ldr	r1, [pc, #104]	(1692c <.text+0x1292c>)
   168c4:	4a1a      	ldr	r2, [pc, #104]	(16930 <.text+0x12930>)
   168c6:	9b00      	ldr	r3, [sp, #0]
   168c8:	9c01      	ldr	r4, [sp, #4]
   168ca:	404b      	eor	r3, r1
   168cc:	9a08      	ldr	r2, [sp, #32]
   168ce:	6013      	str	r3, [r2, #0]
   168d0:	6054      	str	r4, [r2, #4]
   168d2:	e6ca      	b	1666a <.text+0x1266a>
   168d4:	9932      	ldr	r1, [sp, #200]
   168d6:	9a33      	ldr	r2, [sp, #204]
   168d8:	4d14      	ldr	r5, [pc, #80]	(1692c <.text+0x1292c>)
   168da:	4e15      	ldr	r6, [pc, #84]	(16930 <.text+0x12930>)
   168dc:	1c14      	mov	r4, r2		(add r4, r2, #0)
   168de:	1c0b      	mov	r3, r1		(add r3, r1, #0)
   168e0:	9a08      	ldr	r2, [sp, #32]
   168e2:	406b      	eor	r3, r5
   168e4:	6013      	str	r3, [r2, #0]
   168e6:	6054      	str	r4, [r2, #4]
   168e8:	9934      	ldr	r1, [sp, #208]
   168ea:	9a35      	ldr	r2, [sp, #212]
   168ec:	1c0b      	mov	r3, r1		(add r3, r1, #0)
   168ee:	9908      	ldr	r1, [sp, #32]
   168f0:	406b      	eor	r3, r5
   168f2:	1c14      	mov	r4, r2		(add r4, r2, #0)
   168f4:	608b      	str	r3, [r1, #8]
   168f6:	60cc      	str	r4, [r1, #12]
   168f8:	9b00      	ldr	r3, [sp, #0]
   168fa:	9c01      	ldr	r4, [sp, #4]
   168fc:	406b      	eor	r3, r5
   168fe:	610b      	str	r3, [r1, #16]
   16900:	614c      	str	r4, [r1, #20]
   16902:	e6b2      	b	1666a <.text+0x1266a>
   16904:	4653      	mov	r3, sl
   16906:	a982      	add	r1, sp, #520
   16908:	009c      	lsl	r4, r3, #2
   1690a:	1864      	add	r4, r4, r1
   1690c:	9802      	ldr	r0, [sp, #8]
   1690e:	9903      	ldr	r1, [sp, #12]
   16910:	e7b6      	b	16880 <.text+0x12880>
	...
   1691e:	4170      	adc	r0, r6
   16920:	0000      	lsl	r0, r0, #0
   16922:	0000      	lsl	r0, r0, #0
   16924:	0000      	lsl	r0, r0, #0
   16926:	3e70      	sub	r6, #112
   16928:	0000      	lsl	r0, r0, #0
   1692a:	0000      	lsl	r0, r0, #0
   1692c:	0000      	lsl	r0, r0, #0
   1692e:	8000      	strh	r0, [r0, #0]
   16930:	0000      	lsl	r0, r0, #0
	...

00016934 <__kernel_sin>:
   16934:	b5f0      	push	{r4, r5, r6, r7, lr}
   16936:	b088      	sub	sp, #32
   16938:	9204      	str	r2, [sp, #16]
   1693a:	9305      	str	r3, [sp, #20]
   1693c:	4a44      	ldr	r2, [pc, #272]	(16a50 <.text+0x12a50>)
   1693e:	4b45      	ldr	r3, [pc, #276]	(16a54 <.text+0x12a54>)
   16940:	4002      	and	r2, r0
   16942:	9006      	str	r0, [sp, #24]
   16944:	9107      	str	r1, [sp, #28]
   16946:	429a      	cmp	r2, r3
   16948:	dc06      	bgt	16958 <__kernel_sin+0x24>
   1694a:	fb77f001 	bl	1803c <____fixdfsi_from_thumb>
   1694e:	2800      	cmp	r0, #0
   16950:	d102      	bne	16958 <__kernel_sin+0x24>
   16952:	9806      	ldr	r0, [sp, #24]
   16954:	9907      	ldr	r1, [sp, #28]
   16956:	e064      	b	16a22 <__kernel_sin+0xee>
   16958:	9806      	ldr	r0, [sp, #24]
   1695a:	9907      	ldr	r1, [sp, #28]
   1695c:	1c0b      	mov	r3, r1		(add r3, r1, #0)
   1695e:	1c02      	mov	r2, r0		(add r2, r0, #0)
   16960:	fb54f001 	bl	1800c <____muldf3_from_thumb>
   16964:	9a06      	ldr	r2, [sp, #24]
   16966:	9b07      	ldr	r3, [sp, #28]
   16968:	1c0f      	mov	r7, r1		(add r7, r1, #0)
   1696a:	1c06      	mov	r6, r0		(add r6, r0, #0)
   1696c:	fb4ef001 	bl	1800c <____muldf3_from_thumb>
   16970:	4a39      	ldr	r2, [pc, #228]	(16a58 <.text+0x12a58>)
   16972:	4b3a      	ldr	r3, [pc, #232]	(16a5c <.text+0x12a5c>)
   16974:	9000      	str	r0, [sp, #0]
   16976:	9101      	str	r1, [sp, #4]
   16978:	1c39      	mov	r1, r7		(add r1, r7, #0)
   1697a:	1c30      	mov	r0, r6		(add r0, r6, #0)
   1697c:	fb46f001 	bl	1800c <____muldf3_from_thumb>
   16980:	4a37      	ldr	r2, [pc, #220]	(16a60 <.text+0x12a60>)
   16982:	4b38      	ldr	r3, [pc, #224]	(16a64 <.text+0x12a64>)
   16984:	fb3ef001 	bl	18004 <____adddf3_from_thumb>
   16988:	1c3b      	mov	r3, r7		(add r3, r7, #0)
   1698a:	1c32      	mov	r2, r6		(add r2, r6, #0)
   1698c:	fb3ef001 	bl	1800c <____muldf3_from_thumb>
   16990:	4a35      	ldr	r2, [pc, #212]	(16a68 <.text+0x12a68>)
   16992:	4b36      	ldr	r3, [pc, #216]	(16a6c <.text+0x12a6c>)
   16994:	fb36f001 	bl	18004 <____adddf3_from_thumb>
   16998:	1c3b      	mov	r3, r7		(add r3, r7, #0)
   1699a:	1c32      	mov	r2, r6		(add r2, r6, #0)
   1699c:	fb36f001 	bl	1800c <____muldf3_from_thumb>
   169a0:	4a33      	ldr	r2, [pc, #204]	(16a70 <.text+0x12a70>)
   169a2:	4b34      	ldr	r3, [pc, #208]	(16a74 <.text+0x12a74>)
   169a4:	fb2ef001 	bl	18004 <____adddf3_from_thumb>
   169a8:	1c3b      	mov	r3, r7		(add r3, r7, #0)
   169aa:	1c32      	mov	r2, r6		(add r2, r6, #0)
   169ac:	fb2ef001 	bl	1800c <____muldf3_from_thumb>
   169b0:	4a31      	ldr	r2, [pc, #196]	(16a78 <.text+0x12a78>)
   169b2:	4b32      	ldr	r3, [pc, #200]	(16a7c <.text+0x12a7c>)
   169b4:	fb26f001 	bl	18004 <____adddf3_from_thumb>
   169b8:	9b0d      	ldr	r3, [sp, #52]
   169ba:	9002      	str	r0, [sp, #8]
   169bc:	9103      	str	r1, [sp, #12]
   169be:	2b00      	cmp	r3, #0
   169c0:	d033      	beq	16a2a <__kernel_sin+0xf6>
   169c2:	4a2f      	ldr	r2, [pc, #188]	(16a80 <.text+0x12a80>)
   169c4:	4b2f      	ldr	r3, [pc, #188]	(16a84 <.text+0x12a84>)
   169c6:	9804      	ldr	r0, [sp, #16]
   169c8:	9905      	ldr	r1, [sp, #20]
   169ca:	fb1ff001 	bl	1800c <____muldf3_from_thumb>
   169ce:	9a02      	ldr	r2, [sp, #8]
   169d0:	9b03      	ldr	r3, [sp, #12]
   169d2:	1c0d      	mov	r5, r1		(add r5, r1, #0)
   169d4:	1c04      	mov	r4, r0		(add r4, r0, #0)
   169d6:	9800      	ldr	r0, [sp, #0]
   169d8:	9901      	ldr	r1, [sp, #4]
   169da:	fb17f001 	bl	1800c <____muldf3_from_thumb>
   169de:	1c0b      	mov	r3, r1		(add r3, r1, #0)
   169e0:	1c02      	mov	r2, r0		(add r2, r0, #0)
   169e2:	1c29      	mov	r1, r5		(add r1, r5, #0)
   169e4:	1c20      	mov	r0, r4		(add r0, r4, #0)
   169e6:	fb15f001 	bl	18014 <____subdf3_from_thumb>
   169ea:	1c3b      	mov	r3, r7		(add r3, r7, #0)
   169ec:	1c32      	mov	r2, r6		(add r2, r6, #0)
   169ee:	fb0df001 	bl	1800c <____muldf3_from_thumb>
   169f2:	9a04      	ldr	r2, [sp, #16]
   169f4:	9b05      	ldr	r3, [sp, #20]
   169f6:	fb0df001 	bl	18014 <____subdf3_from_thumb>
   169fa:	4a23      	ldr	r2, [pc, #140]	(16a88 <.text+0x12a88>)
   169fc:	4b23      	ldr	r3, [pc, #140]	(16a8c <.text+0x12a8c>)
   169fe:	1c0d      	mov	r5, r1		(add r5, r1, #0)
   16a00:	1c04      	mov	r4, r0		(add r4, r0, #0)
   16a02:	9800      	ldr	r0, [sp, #0]
   16a04:	9901      	ldr	r1, [sp, #4]
   16a06:	fb01f001 	bl	1800c <____muldf3_from_thumb>
   16a0a:	1c0b      	mov	r3, r1		(add r3, r1, #0)
   16a0c:	1c02      	mov	r2, r0		(add r2, r0, #0)
   16a0e:	1c29      	mov	r1, r5		(add r1, r5, #0)
   16a10:	1c20      	mov	r0, r4		(add r0, r4, #0)
   16a12:	fafff001 	bl	18014 <____subdf3_from_thumb>
   16a16:	1c0b      	mov	r3, r1		(add r3, r1, #0)
   16a18:	1c02      	mov	r2, r0		(add r2, r0, #0)
   16a1a:	9806      	ldr	r0, [sp, #24]
   16a1c:	9907      	ldr	r1, [sp, #28]
   16a1e:	faf9f001 	bl	18014 <____subdf3_from_thumb>
   16a22:	b008      	add	sp, #32
   16a24:	bcf0      	pop	{r4, r5, r6, r7}
   16a26:	bc04      	pop	{r2}
   16a28:	4710      	bx	r2
   16a2a:	9a02      	ldr	r2, [sp, #8]
   16a2c:	9b03      	ldr	r3, [sp, #12]
   16a2e:	1c39      	mov	r1, r7		(add r1, r7, #0)
   16a30:	1c30      	mov	r0, r6		(add r0, r6, #0)
   16a32:	faebf001 	bl	1800c <____muldf3_from_thumb>
   16a36:	4a14      	ldr	r2, [pc, #80]	(16a88 <.text+0x12a88>)
   16a38:	4b14      	ldr	r3, [pc, #80]	(16a8c <.text+0x12a8c>)
   16a3a:	fae3f001 	bl	18004 <____adddf3_from_thumb>
   16a3e:	9a00      	ldr	r2, [sp, #0]
   16a40:	9b01      	ldr	r3, [sp, #4]
   16a42:	fae3f001 	bl	1800c <____muldf3_from_thumb>
   16a46:	9a06      	ldr	r2, [sp, #24]
   16a48:	9b07      	ldr	r3, [sp, #28]
   16a4a:	fadbf001 	bl	18004 <____adddf3_from_thumb>
   16a4e:	e7e8      	b	16a22 <__kernel_sin+0xee>
   16a50:	ffff      	second half of BL instruction 0xffff
   16a52:	7fff      	ldrb	r7, [r7, #31]
   16a54:	ffff      	second half of BL instruction 0xffff
   16a56:	3e3f      	sub	r6, #63
   16a58:	d93a      	bls	16ad0 <floor+0x40>
   16a5a:	3de5      	sub	r5, #229
   16a5c:	d57c      	bpl	16b58 <floor+0xc8>
   16a5e:	5acf      	ldrh	r7, [r1, r3]
   16a60:	e5e6      	b	16630 <.text+0x12630>
   16a62:	be5a      	bkpt	0x005a
   16a64:	9ceb      	ldr	r4, [sp, #940]
   16a66:	8a2b      	ldrh	r3, [r5, #16]
   16a68:	1de3      	add	r3, r4, #7
   16a6a:	3ec7      	sub	r6, #199
   16a6c:	fe7d      	second half of BL instruction 0xfe7d
   16a6e:	57b1      	ldrsb	r1, [r6, r6]
   16a70:	01a0      	lsl	r0, r4, #6
   16a72:	bf2a      	undefined instruction 0xbf2a
   16a74:	61d5      	str	r5, [r2, #28]
   16a76:	19c1      	add	r1, r0, r7
   16a78:	1111      	asr	r1, r2, #4
   16a7a:	3f81      	sub	r7, #129
   16a7c:	f8a6      	second half of BL instruction 0xf8a6
   16a7e:	1110      	asr	r0, r2, #4
   16a80:	0000      	lsl	r0, r0, #0
   16a82:	3fe0      	sub	r7, #224
   16a84:	0000      	lsl	r0, r0, #0
   16a86:	0000      	lsl	r0, r0, #0
   16a88:	5555      	strb	r5, [r2, r5]
   16a8a:	bfc5      	undefined instruction 0xbfc5
   16a8c:	5549      	strb	r1, [r1, r5]
   16a8e:	5555      	strb	r5, [r2, r5]

00016a90 <floor>:
   16a90:	b5f0      	push	{r4, r5, r6, r7, lr}
   16a92:	4657      	mov	r7, sl
   16a94:	4646      	mov	r6, r8
   16a96:	b4c0      	push	{r6, r7}
   16a98:	2200      	mov	r2, #0
   16a9a:	2300      	mov	r3, #0
   16a9c:	b082      	sub	sp, #8
   16a9e:	9200      	str	r2, [sp, #0]
   16aa0:	9301      	str	r3, [sp, #4]
   16aa2:	1c0c      	mov	r4, r1		(add r4, r1, #0)
   16aa4:	1c03      	mov	r3, r0		(add r3, r0, #0)
   16aa6:	4a42      	ldr	r2, [pc, #264]	(16bb0 <.text+0x12bb0>)
   16aa8:	0043      	lsl	r3, r0, #1
   16aaa:	0d5b      	lsr	r3, r3, #21
   16aac:	46a0      	mov	r8, r4
   16aae:	189c      	add	r4, r3, r2
   16ab0:	1c0e      	mov	r6, r1		(add r6, r1, #0)
   16ab2:	1c05      	mov	r5, r0		(add r5, r0, #0)
   16ab4:	1c07      	mov	r7, r0		(add r7, r0, #0)
   16ab6:	2c13      	cmp	r4, #19
   16ab8:	dc20      	bgt	16afc <floor+0x6c>
   16aba:	2c00      	cmp	r4, #0
   16abc:	db46      	blt	16b4c <floor+0xbc>
   16abe:	4b3d      	ldr	r3, [pc, #244]	(16bb4 <.text+0x12bb4>)
   16ac0:	1c1a      	mov	r2, r3		(add r2, r3, #0)
   16ac2:	4122      	asr	r2, r4
   16ac4:	1c13      	mov	r3, r2		(add r3, r2, #0)
   16ac6:	4692      	mov	sl, r2
   16ac8:	4003      	and	r3, r0
   16aca:	4642      	mov	r2, r8
   16acc:	431a      	orr	r2, r3
   16ace:	d01b      	beq	16b08 <floor+0x78>
   16ad0:	4a39      	ldr	r2, [pc, #228]	(16bb8 <.text+0x12bb8>)
   16ad2:	4b3a      	ldr	r3, [pc, #232]	(16bbc <.text+0x12bbc>)
   16ad4:	fa96f001 	bl	18004 <____adddf3_from_thumb>
   16ad8:	4a39      	ldr	r2, [pc, #228]	(16bc0 <.text+0x12bc0>)
   16ada:	4b3a      	ldr	r3, [pc, #232]	(16bc4 <.text+0x12bc4>)
   16adc:	fa9ef001 	bl	1801c <____gtdf2_from_thumb>
   16ae0:	2800      	cmp	r0, #0
   16ae2:	dd05      	ble	16af0 <floor+0x60>
   16ae4:	2d00      	cmp	r5, #0
   16ae6:	db46      	blt	16b76 <floor+0xe6>
   16ae8:	4653      	mov	r3, sl
   16aea:	439f      	bic	r7, r3
   16aec:	2400      	mov	r4, #0
   16aee:	46a0      	mov	r8, r4
   16af0:	4643      	mov	r3, r8
   16af2:	9700      	str	r7, [sp, #0]
   16af4:	9301      	str	r3, [sp, #4]
   16af6:	9800      	ldr	r0, [sp, #0]
   16af8:	9901      	ldr	r1, [sp, #4]
   16afa:	e007      	b	16b0c <floor+0x7c>
   16afc:	2c33      	cmp	r4, #51
   16afe:	dd0c      	ble	16b1a <floor+0x8a>
   16b00:	2380      	mov	r3, #128
   16b02:	00db      	lsl	r3, r3, #3
   16b04:	429c      	cmp	r4, r3
   16b06:	d031      	beq	16b6c <floor+0xdc>
   16b08:	1c31      	mov	r1, r6		(add r1, r6, #0)
   16b0a:	1c28      	mov	r0, r5		(add r0, r5, #0)
   16b0c:	b002      	add	sp, #8
   16b0e:	bc18      	pop	{r3, r4}
   16b10:	4698      	mov	r8, r3
   16b12:	46a2      	mov	sl, r4
   16b14:	bcf0      	pop	{r4, r5, r6, r7}
   16b16:	bc04      	pop	{r2}
   16b18:	4710      	bx	r2
   16b1a:	4a2b      	ldr	r2, [pc, #172]	(16bc8 <.text+0x12bc8>)
   16b1c:	189b      	add	r3, r3, r2
   16b1e:	2201      	mov	r2, #1
   16b20:	4252      	neg	r2, r2
   16b22:	40da      	lsr	r2, r3
   16b24:	4643      	mov	r3, r8
   16b26:	4692      	mov	sl, r2
   16b28:	4213      	tst	r3, r2
   16b2a:	d0ed      	beq	16b08 <floor+0x78>
   16b2c:	4a22      	ldr	r2, [pc, #136]	(16bb8 <.text+0x12bb8>)
   16b2e:	4b23      	ldr	r3, [pc, #140]	(16bbc <.text+0x12bbc>)
   16b30:	fa68f001 	bl	18004 <____adddf3_from_thumb>
   16b34:	4a22      	ldr	r2, [pc, #136]	(16bc0 <.text+0x12bc0>)
   16b36:	4b23      	ldr	r3, [pc, #140]	(16bc4 <.text+0x12bc4>)
   16b38:	fa70f001 	bl	1801c <____gtdf2_from_thumb>
   16b3c:	2800      	cmp	r0, #0
   16b3e:	ddd7      	ble	16af0 <floor+0x60>
   16b40:	2d00      	cmp	r5, #0
   16b42:	db1d      	blt	16b80 <floor+0xf0>
   16b44:	4644      	mov	r4, r8
   16b46:	4652      	mov	r2, sl
   16b48:	4394      	bic	r4, r2
   16b4a:	e7d0      	b	16aee <floor+0x5e>
   16b4c:	4a1a      	ldr	r2, [pc, #104]	(16bb8 <.text+0x12bb8>)
   16b4e:	4b1b      	ldr	r3, [pc, #108]	(16bbc <.text+0x12bbc>)
   16b50:	fa58f001 	bl	18004 <____adddf3_from_thumb>
   16b54:	4a1a      	ldr	r2, [pc, #104]	(16bc0 <.text+0x12bc0>)
   16b56:	4b1b      	ldr	r3, [pc, #108]	(16bc4 <.text+0x12bc4>)
   16b58:	fa60f001 	bl	1801c <____gtdf2_from_thumb>
   16b5c:	2800      	cmp	r0, #0
   16b5e:	ddc7      	ble	16af0 <floor+0x60>
   16b60:	2d00      	cmp	r5, #0
   16b62:	db19      	blt	16b98 <floor+0x108>
   16b64:	2300      	mov	r3, #0
   16b66:	4698      	mov	r8, r3
   16b68:	2700      	mov	r7, #0
   16b6a:	e7c1      	b	16af0 <floor+0x60>
   16b6c:	1c33      	mov	r3, r6		(add r3, r6, #0)
   16b6e:	1c2a      	mov	r2, r5		(add r2, r5, #0)
   16b70:	fa48f001 	bl	18004 <____adddf3_from_thumb>
   16b74:	e7ca      	b	16b0c <floor+0x7c>
   16b76:	2380      	mov	r3, #128
   16b78:	035b      	lsl	r3, r3, #13
   16b7a:	4123      	asr	r3, r4
   16b7c:	18ef      	add	r7, r5, r3
   16b7e:	e7b3      	b	16ae8 <floor+0x58>
   16b80:	2c14      	cmp	r4, #20
   16b82:	d012      	beq	16baa <floor+0x11a>
   16b84:	2234      	mov	r2, #52
   16b86:	1b12      	sub	r2, r2, r4
   16b88:	2301      	mov	r3, #1
   16b8a:	4093      	lsl	r3, r2
   16b8c:	4443      	add	r3, r8
   16b8e:	4598      	cmp	r8, r3
   16b90:	d900      	bls	16b94 <floor+0x104>
   16b92:	3701      	add	r7, #1
   16b94:	4698      	mov	r8, r3
   16b96:	e7d5      	b	16b44 <floor+0xb4>
   16b98:	4b0c      	ldr	r3, [pc, #48]	(16bcc <.text+0x12bcc>)
   16b9a:	4644      	mov	r4, r8
   16b9c:	402b      	and	r3, r5
   16b9e:	431c      	orr	r4, r3
   16ba0:	d0a6      	beq	16af0 <floor+0x60>
   16ba2:	2200      	mov	r2, #0
   16ba4:	4f0a      	ldr	r7, [pc, #40]	(16bd0 <.text+0x12bd0>)
   16ba6:	4690      	mov	r8, r2
   16ba8:	e7a2      	b	16af0 <floor+0x60>
   16baa:	3701      	add	r7, #1
   16bac:	e7ca      	b	16b44 <floor+0xb4>
   16bae:	0000      	lsl	r0, r0, #0
   16bb0:	fc01      	second half of BL instruction 0xfc01
   16bb2:	ffff      	second half of BL instruction 0xffff
   16bb4:	ffff      	second half of BL instruction 0xffff
   16bb6:	000f      	lsl	r7, r1, #0
   16bb8:	e43c      	b	16434 <__kernel_rem_pio2+0x2ec>
   16bba:	7e37      	ldrb	r7, [r6, #24]
   16bbc:	759c      	strb	r4, [r3, #22]
   16bbe:	8800      	ldrh	r0, [r0, #0]
	...
   16bc8:	fbed      	second half of BL instruction 0xfbed
   16bca:	ffff      	second half of BL instruction 0xffff
   16bcc:	ffff      	second half of BL instruction 0xffff
   16bce:	7fff      	ldrb	r7, [r7, #31]
   16bd0:	0000      	lsl	r0, r0, #0
   16bd2:	bff0      	undefined instruction 0xbff0

00016bd4 <isnan>:
   16bd4:	b510      	push	{r4, lr}
   16bd6:	1c0c      	mov	r4, r1		(add r4, r1, #0)
   16bd8:	1c03      	mov	r3, r0		(add r3, r0, #0)
   16bda:	4262      	neg	r2, r4
   16bdc:	4805      	ldr	r0, [pc, #20]	(16bf4 <.text+0x12bf4>)
   16bde:	4322      	orr	r2, r4
   16be0:	4018      	and	r0, r3
   16be2:	0fd2      	lsr	r2, r2, #31
   16be4:	4b04      	ldr	r3, [pc, #16]	(16bf8 <.text+0x12bf8>)
   16be6:	4310      	orr	r0, r2
   16be8:	1a18      	sub	r0, r3, r0
   16bea:	0fc0      	lsr	r0, r0, #31
   16bec:	bc10      	pop	{r4}
   16bee:	bc02      	pop	{r1}
   16bf0:	4708      	bx	r1
   16bf2:	0000      	lsl	r0, r0, #0
   16bf4:	ffff      	second half of BL instruction 0xffff
   16bf6:	7fff      	ldrb	r7, [r7, #31]
   16bf8:	0000      	lsl	r0, r0, #0
   16bfa:	7ff0      	ldrb	r0, [r6, #31]

00016bfc <matherr>:
   16bfc:	2000      	mov	r0, #0
   16bfe:	4770      	bx	lr

00016c00 <scalbn>:
   16c00:	b5f0      	push	{r4, r5, r6, r7, lr}
   16c02:	4647      	mov	r7, r8
   16c04:	b480      	push	{r7}
   16c06:	4f37      	ldr	r7, [pc, #220]	(16ce4 <.text+0x12ce4>)
   16c08:	1c0c      	mov	r4, r1		(add r4, r1, #0)
   16c0a:	1c03      	mov	r3, r0		(add r3, r0, #0)
   16c0c:	1c03      	mov	r3, r0		(add r3, r0, #0)
   16c0e:	403b      	and	r3, r7
   16c10:	1c0e      	mov	r6, r1		(add r6, r1, #0)
   16c12:	1c05      	mov	r5, r0		(add r5, r0, #0)
   16c14:	1519      	asr	r1, r3, #20
   16c16:	4690      	mov	r8, r2
   16c18:	2900      	cmp	r1, #0
   16c1a:	d115      	bne	16c48 <scalbn+0x48>
   16c1c:	4b32      	ldr	r3, [pc, #200]	(16ce8 <.text+0x12ce8>)
   16c1e:	4003      	and	r3, r0
   16c20:	4323      	orr	r3, r4
   16c22:	d102      	bne	16c2a <scalbn+0x2a>
   16c24:	1c31      	mov	r1, r6		(add r1, r6, #0)
   16c26:	1c28      	mov	r0, r5		(add r0, r5, #0)
   16c28:	e020      	b	16c6c <scalbn+0x6c>
   16c2a:	1c31      	mov	r1, r6		(add r1, r6, #0)
   16c2c:	1c28      	mov	r0, r5		(add r0, r5, #0)
   16c2e:	4a2f      	ldr	r2, [pc, #188]	(16cec <.text+0x12cec>)
   16c30:	4b2f      	ldr	r3, [pc, #188]	(16cf0 <.text+0x12cf0>)
   16c32:	f9ebf001 	bl	1800c <____muldf3_from_thumb>
   16c36:	4007      	and	r7, r0
   16c38:	153b      	asr	r3, r7, #20
   16c3a:	1c0e      	mov	r6, r1		(add r6, r1, #0)
   16c3c:	1c05      	mov	r5, r0		(add r5, r0, #0)
   16c3e:	1c19      	mov	r1, r3		(add r1, r3, #0)
   16c40:	4b2c      	ldr	r3, [pc, #176]	(16cf4 <.text+0x12cf4>)
   16c42:	3936      	sub	r1, #54
   16c44:	4598      	cmp	r8, r3
   16c46:	db1d      	blt	16c84 <scalbn+0x84>
   16c48:	4b2b      	ldr	r3, [pc, #172]	(16cf8 <.text+0x12cf8>)
   16c4a:	4299      	cmp	r1, r3
   16c4c:	d013      	beq	16c76 <scalbn+0x76>
   16c4e:	4b2b      	ldr	r3, [pc, #172]	(16cfc <.text+0x12cfc>)
   16c50:	4441      	add	r1, r8
   16c52:	4299      	cmp	r1, r3
   16c54:	dc1d      	bgt	16c92 <scalbn+0x92>
   16c56:	2900      	cmp	r1, #0
   16c58:	dd26      	ble	16ca8 <scalbn+0xa8>
   16c5a:	4a29      	ldr	r2, [pc, #164]	(16d00 <.text+0x12d00>)
   16c5c:	4010      	and	r0, r2
   16c5e:	1c34      	mov	r4, r6		(add r4, r6, #0)
   16c60:	1c2b      	mov	r3, r5		(add r3, r5, #0)
   16c62:	050a      	lsl	r2, r1, #20
   16c64:	1c03      	mov	r3, r0		(add r3, r0, #0)
   16c66:	4313      	orr	r3, r2
   16c68:	1c21      	mov	r1, r4		(add r1, r4, #0)
   16c6a:	1c18      	mov	r0, r3		(add r0, r3, #0)
   16c6c:	bc08      	pop	{r3}
   16c6e:	4698      	mov	r8, r3
   16c70:	bcf0      	pop	{r4, r5, r6, r7}
   16c72:	bc04      	pop	{r2}
   16c74:	4710      	bx	r2
   16c76:	1c31      	mov	r1, r6		(add r1, r6, #0)
   16c78:	1c28      	mov	r0, r5		(add r0, r5, #0)
   16c7a:	1c33      	mov	r3, r6		(add r3, r6, #0)
   16c7c:	1c2a      	mov	r2, r5		(add r2, r5, #0)
   16c7e:	f9c1f001 	bl	18004 <____adddf3_from_thumb>
   16c82:	e7f3      	b	16c6c <scalbn+0x6c>
   16c84:	1c31      	mov	r1, r6		(add r1, r6, #0)
   16c86:	1c28      	mov	r0, r5		(add r0, r5, #0)
   16c88:	4a1e      	ldr	r2, [pc, #120]	(16d04 <.text+0x12d04>)
   16c8a:	4b1f      	ldr	r3, [pc, #124]	(16d08 <.text+0x12d08>)
   16c8c:	f9bef001 	bl	1800c <____muldf3_from_thumb>
   16c90:	e7ec      	b	16c6c <scalbn+0x6c>
   16c92:	1c33      	mov	r3, r6		(add r3, r6, #0)
   16c94:	1c2a      	mov	r2, r5		(add r2, r5, #0)
   16c96:	481d      	ldr	r0, [pc, #116]	(16d0c <.text+0x12d0c>)
   16c98:	491d      	ldr	r1, [pc, #116]	(16d10 <.text+0x12d10>)
   16c9a:	f841f000 	bl	16d20 <copysign>
   16c9e:	4a1b      	ldr	r2, [pc, #108]	(16d0c <.text+0x12d0c>)
   16ca0:	4b1b      	ldr	r3, [pc, #108]	(16d10 <.text+0x12d10>)
   16ca2:	f9b3f001 	bl	1800c <____muldf3_from_thumb>
   16ca6:	e7e1      	b	16c6c <scalbn+0x6c>
   16ca8:	1c0b      	mov	r3, r1		(add r3, r1, #0)
   16caa:	3336      	add	r3, #54
   16cac:	dc09      	bgt	16cc2 <scalbn+0xc2>
   16cae:	4b19      	ldr	r3, [pc, #100]	(16d14 <.text+0x12d14>)
   16cb0:	4598      	cmp	r8, r3
   16cb2:	dcee      	bgt	16c92 <scalbn+0x92>
   16cb4:	1c33      	mov	r3, r6		(add r3, r6, #0)
   16cb6:	1c2a      	mov	r2, r5		(add r2, r5, #0)
   16cb8:	4812      	ldr	r0, [pc, #72]	(16d04 <.text+0x12d04>)
   16cba:	4913      	ldr	r1, [pc, #76]	(16d08 <.text+0x12d08>)
   16cbc:	f830f000 	bl	16d20 <copysign>
   16cc0:	e7e2      	b	16c88 <scalbn+0x88>
   16cc2:	4a0f      	ldr	r2, [pc, #60]	(16d00 <.text+0x12d00>)
   16cc4:	3136      	add	r1, #54
   16cc6:	4010      	and	r0, r2
   16cc8:	1c34      	mov	r4, r6		(add r4, r6, #0)
   16cca:	1c2b      	mov	r3, r5		(add r3, r5, #0)
   16ccc:	050a      	lsl	r2, r1, #20
   16cce:	1c03      	mov	r3, r0		(add r3, r0, #0)
   16cd0:	4313      	orr	r3, r2
   16cd2:	1c26      	mov	r6, r4		(add r6, r4, #0)
   16cd4:	1c1d      	mov	r5, r3		(add r5, r3, #0)
   16cd6:	1c31      	mov	r1, r6		(add r1, r6, #0)
   16cd8:	1c28      	mov	r0, r5		(add r0, r5, #0)
   16cda:	4a0f      	ldr	r2, [pc, #60]	(16d18 <.text+0x12d18>)
   16cdc:	4b0f      	ldr	r3, [pc, #60]	(16d1c <.text+0x12d1c>)
   16cde:	f995f001 	bl	1800c <____muldf3_from_thumb>
   16ce2:	e7c3      	b	16c6c <scalbn+0x6c>
   16ce4:	0000      	lsl	r0, r0, #0
   16ce6:	7ff0      	ldrb	r0, [r6, #31]
   16ce8:	ffff      	second half of BL instruction 0xffff
   16cea:	7fff      	ldrb	r7, [r7, #31]
   16cec:	0000      	lsl	r0, r0, #0
   16cee:	4350      	mul	r0, r2
   16cf0:	0000      	lsl	r0, r0, #0
   16cf2:	0000      	lsl	r0, r0, #0
   16cf4:	3cb0      	sub	r4, #176
   16cf6:	ffff      	second half of BL instruction 0xffff
   16cf8:	07ff      	lsl	r7, r7, #31
   16cfa:	0000      	lsl	r0, r0, #0
   16cfc:	07fe      	lsl	r6, r7, #31
   16cfe:	0000      	lsl	r0, r0, #0
   16d00:	ffff      	second half of BL instruction 0xffff
   16d02:	800f      	strh	r7, [r1, #0]
   16d04:	6e1f      	ldr	r7, [r3, #96]
   16d06:	01a5      	lsl	r5, r4, #6
   16d08:	c2f8f359 	blx	3702fc <_etext+0x357fdc>
   16d0c:	e43c      	b	16588 <.text+0x12588>
   16d0e:	7e37      	ldrb	r7, [r6, #24]
   16d10:	759c      	strb	r4, [r3, #22]
   16d12:	8800      	ldrh	r0, [r0, #0]
   16d14:	c350      	stmia	r3!,{r4, r6}
   16d16:	0000      	lsl	r0, r0, #0
   16d18:	0000      	lsl	r0, r0, #0
   16d1a:	3c90      	sub	r4, #144
   16d1c:	0000      	lsl	r0, r0, #0
	...

00016d20 <copysign>:
   16d20:	b570      	push	{r4, r5, r6, lr}
   16d22:	4c05      	ldr	r4, [pc, #20]	(16d38 <.text+0x12d38>)
   16d24:	2380      	mov	r3, #128
   16d26:	4004      	and	r4, r0
   16d28:	061b      	lsl	r3, r3, #24
   16d2a:	4013      	and	r3, r2
   16d2c:	1c20      	mov	r0, r4		(add r0, r4, #0)
   16d2e:	4318      	orr	r0, r3
   16d30:	bc70      	pop	{r4, r5, r6}
   16d32:	bc04      	pop	{r2}
   16d34:	4710      	bx	r2
   16d36:	0000      	lsl	r0, r0, #0
   16d38:	ffff      	second half of BL instruction 0xffff
   16d3a:	7fff      	ldrb	r7, [r7, #31]

00016d3c <__errno>:
   16d3c:	4b01      	ldr	r3, [pc, #4]	(16d44 <.text+0x12d44>)
   16d3e:	6818      	ldr	r0, [r3, #0]
   16d40:	4770      	bx	lr
   16d42:	0000      	lsl	r0, r0, #0
   16d44:	0494      	lsl	r4, r2, #18
   16d46:	4000      	and	r0, r0

00016d48 <__divsi3>:
   16d48:	2900      	cmp	r1, #0
   16d4a:	d041      	beq	16dd0 <__divsi3+0x88>
   16d4c:	b410      	push	{r4}
   16d4e:	1c04      	mov	r4, r0		(add r4, r0, #0)
   16d50:	404c      	eor	r4, r1
   16d52:	46a4      	mov	ip, r4
   16d54:	2301      	mov	r3, #1
   16d56:	2200      	mov	r2, #0
   16d58:	2900      	cmp	r1, #0
   16d5a:	d500      	bpl	16d5e <__divsi3+0x16>
   16d5c:	4249      	neg	r1, r1
   16d5e:	2800      	cmp	r0, #0
   16d60:	d500      	bpl	16d64 <__divsi3+0x1c>
   16d62:	4240      	neg	r0, r0
   16d64:	4288      	cmp	r0, r1
   16d66:	d32c      	bcc	16dc2 <__divsi3+0x7a>
   16d68:	2401      	mov	r4, #1
   16d6a:	0724      	lsl	r4, r4, #28
   16d6c:	42a1      	cmp	r1, r4
   16d6e:	d204      	bcs	16d7a <__divsi3+0x32>
   16d70:	4281      	cmp	r1, r0
   16d72:	d202      	bcs	16d7a <__divsi3+0x32>
   16d74:	0109      	lsl	r1, r1, #4
   16d76:	011b      	lsl	r3, r3, #4
   16d78:	e7f8      	b	16d6c <__divsi3+0x24>
   16d7a:	00e4      	lsl	r4, r4, #3
   16d7c:	42a1      	cmp	r1, r4
   16d7e:	d204      	bcs	16d8a <__divsi3+0x42>
   16d80:	4281      	cmp	r1, r0
   16d82:	d202      	bcs	16d8a <__divsi3+0x42>
   16d84:	0049      	lsl	r1, r1, #1
   16d86:	005b      	lsl	r3, r3, #1
   16d88:	e7f8      	b	16d7c <__divsi3+0x34>
   16d8a:	4288      	cmp	r0, r1
   16d8c:	d301      	bcc	16d92 <__divsi3+0x4a>
   16d8e:	1a40      	sub	r0, r0, r1
   16d90:	431a      	orr	r2, r3
   16d92:	084c      	lsr	r4, r1, #1
   16d94:	42a0      	cmp	r0, r4
   16d96:	d302      	bcc	16d9e <__divsi3+0x56>
   16d98:	1b00      	sub	r0, r0, r4
   16d9a:	085c      	lsr	r4, r3, #1
   16d9c:	4322      	orr	r2, r4
   16d9e:	088c      	lsr	r4, r1, #2
   16da0:	42a0      	cmp	r0, r4
   16da2:	d302      	bcc	16daa <__divsi3+0x62>
   16da4:	1b00      	sub	r0, r0, r4
   16da6:	089c      	lsr	r4, r3, #2
   16da8:	4322      	orr	r2, r4
   16daa:	08cc      	lsr	r4, r1, #3
   16dac:	42a0      	cmp	r0, r4
   16dae:	d302      	bcc	16db6 <__divsi3+0x6e>
   16db0:	1b00      	sub	r0, r0, r4
   16db2:	08dc      	lsr	r4, r3, #3
   16db4:	4322      	orr	r2, r4
   16db6:	2800      	cmp	r0, #0
   16db8:	d003      	beq	16dc2 <__divsi3+0x7a>
   16dba:	091b      	lsr	r3, r3, #4
   16dbc:	d001      	beq	16dc2 <__divsi3+0x7a>
   16dbe:	0909      	lsr	r1, r1, #4
   16dc0:	e7e3      	b	16d8a <__divsi3+0x42>
   16dc2:	1c10      	mov	r0, r2		(add r0, r2, #0)
   16dc4:	4664      	mov	r4, ip
   16dc6:	2c00      	cmp	r4, #0
   16dc8:	d500      	bpl	16dcc <__divsi3+0x84>
   16dca:	4240      	neg	r0, r0
   16dcc:	bc10      	pop	{r4}
   16dce:	4770      	bx	lr
   16dd0:	b500      	push	{lr}
   16dd2:	f803f000 	bl	16ddc <__div0>
   16dd6:	2000      	mov	r0, #0
   16dd8:	bc02      	pop	{r1}
   16dda:	4708      	bx	r1

00016ddc <__div0>:
   16ddc:	4770      	bx	lr
   16dde:	46c0      	nop			(mov r8, r8)

00016de0 <__subdf3>:
   16de0:	e2222102 	eor	r2, r2, #-2147483648	; 0x80000000

00016de4 <__adddf3>:
   16de4:	e1310003 	teq	r1, r3
   16de8:	0020c002 	eoreq	ip, r0, r2
   16dec:	033c0102 	teqeq	ip, #-2147483648	; 0x80000000
   16df0:	0a0000a3 	beq	17084 <__adddf3+0x2a0>
   16df4:	e191c080 	orrs	ip, r1, r0, lsl #1
   16df8:	01a01003 	moveq	r1, r3
   16dfc:	01a00002 	moveq	r0, r2
   16e00:	1193c082 	orrnes	ip, r3, r2, lsl #1
   16e04:	012fff1e 	bxeq	lr
   16e08:	e92d4030 	stmdb	sp!, {r4, r5, lr}
   16e0c:	e3a0c47f 	mov	ip, #2130706432	; 0x7f000000
   16e10:	e38cc60f 	orr	ip, ip, #15728640	; 0xf00000
   16e14:	e000400c 	and	r4, r0, ip
   16e18:	e002500c 	and	r5, r2, ip
   16e1c:	e134000c 	teq	r4, ip
   16e20:	1135000c 	teqne	r5, ip
   16e24:	0a0000a2 	beq	170b4 <__adddf3+0x2d0>
   16e28:	e0555004 	subs	r5, r5, r4
   16e2c:	b2655000 	rsblt	r5, r5, #0	; 0x0
   16e30:	da000006 	ble	16e50 <__adddf3+0x6c>
   16e34:	e0844005 	add	r4, r4, r5
   16e38:	e0213003 	eor	r3, r1, r3
   16e3c:	e0202002 	eor	r2, r0, r2
   16e40:	e0231001 	eor	r1, r3, r1
   16e44:	e0220000 	eor	r0, r2, r0
   16e48:	e0213003 	eor	r3, r1, r3
   16e4c:	e0202002 	eor	r2, r0, r2
   16e50:	e3550636 	cmp	r5, #56623104	; 0x3600000
   16e54:	88bd4030 	ldmhiia	sp!, {r4, r5, lr}
   16e58:	812fff1e 	bxhi	lr
   16e5c:	e3100102 	tst	r0, #-2147483648	; 0x80000000
   16e60:	e1c0008c 	bic	r0, r0, ip, lsl #1
   16e64:	e3800601 	orr	r0, r0, #1048576	; 0x100000
   16e68:	0a000001 	beq	16e74 <__adddf3+0x90>
   16e6c:	e2711000 	rsbs	r1, r1, #0	; 0x0
   16e70:	e2e00000 	rsc	r0, r0, #0	; 0x0
   16e74:	e3120102 	tst	r2, #-2147483648	; 0x80000000
   16e78:	e1c2208c 	bic	r2, r2, ip, lsl #1
   16e7c:	e3822601 	orr	r2, r2, #1048576	; 0x100000
   16e80:	0a000001 	beq	16e8c <__adddf3+0xa8>
   16e84:	e2733000 	rsbs	r3, r3, #0	; 0x0
   16e88:	e2e22000 	rsc	r2, r2, #0	; 0x0
   16e8c:	e1340005 	teq	r4, r5
   16e90:	0a000075 	beq	1706c <__adddf3+0x288>
   16e94:	e3a0c000 	mov	ip, #0	; 0x0
   16e98:	e1b05a25 	movs	r5, r5, lsr #20
   16e9c:	0a000013 	beq	16ef0 <__adddf3+0x10c>
   16ea0:	e3340601 	teq	r4, #1048576	; 0x100000
   16ea4:	0a000004 	beq	16ebc <__adddf3+0xd8>
   16ea8:	e1b01081 	movs	r1, r1, lsl #1
   16eac:	e0ac0080 	adc	r0, ip, r0, lsl #1
   16eb0:	e2444601 	sub	r4, r4, #1048576	; 0x100000
   16eb4:	e2555001 	subs	r5, r5, #1	; 0x1
   16eb8:	0a00000c 	beq	16ef0 <__adddf3+0x10c>
   16ebc:	e275e020 	rsbs	lr, r5, #32	; 0x20
   16ec0:	ba000004 	blt	16ed8 <__adddf3+0xf4>
   16ec4:	e1a0ce13 	mov	ip, r3, lsl lr
   16ec8:	e1a03533 	mov	r3, r3, lsr r5
   16ecc:	e1833e12 	orr	r3, r3, r2, lsl lr
   16ed0:	e1a02552 	mov	r2, r2, asr r5
   16ed4:	ea000005 	b	16ef0 <__adddf3+0x10c>
   16ed8:	e2455020 	sub	r5, r5, #32	; 0x20
   16edc:	e28ee020 	add	lr, lr, #32	; 0x20
   16ee0:	e3530001 	cmp	r3, #1	; 0x1
   16ee4:	e0acce12 	adc	ip, ip, r2, lsl lr
   16ee8:	e1a03552 	mov	r3, r2, asr r5
   16eec:	e1a02042 	mov	r2, r2, asr #32
   16ef0:	e0911003 	adds	r1, r1, r3
   16ef4:	e0a00002 	adc	r0, r0, r2
   16ef8:	e2105102 	ands	r5, r0, #-2147483648	; 0x80000000
   16efc:	5a000002 	bpl	16f0c <__adddf3+0x128>
   16f00:	e27cc000 	rsbs	ip, ip, #0	; 0x0
   16f04:	e2f11000 	rscs	r1, r1, #0	; 0x0
   16f08:	e2e00000 	rsc	r0, r0, #0	; 0x0
   16f0c:	e3500601 	cmp	r0, #1048576	; 0x100000
   16f10:	3a00001a 	bcc	16f80 <__adddf3+0x19c>
   16f14:	e3500602 	cmp	r0, #2097152	; 0x200000
   16f18:	3a00000b 	bcc	16f4c <__adddf3+0x168>
   16f1c:	e3500501 	cmp	r0, #4194304	; 0x400000
   16f20:	3a000004 	bcc	16f38 <__adddf3+0x154>
   16f24:	e1b000a0 	movs	r0, r0, lsr #1
   16f28:	e1b01061 	movs	r1, r1, rrx
   16f2c:	e1b0c06c 	movs	ip, ip, rrx
   16f30:	238cc001 	orrcs	ip, ip, #1	; 0x1
   16f34:	e2844601 	add	r4, r4, #1048576	; 0x100000
   16f38:	e1b000a0 	movs	r0, r0, lsr #1
   16f3c:	e1b01061 	movs	r1, r1, rrx
   16f40:	e1b0c06c 	movs	ip, ip, rrx
   16f44:	238cc001 	orrcs	ip, ip, #1	; 0x1
   16f48:	e2844601 	add	r4, r4, #1048576	; 0x100000
   16f4c:	e0911fac 	adds	r1, r1, ip, lsr #31
   16f50:	e2a00000 	adc	r0, r0, #0	; 0x0
   16f54:	e33c0102 	teq	ip, #-2147483648	; 0x80000000
   16f58:	03c11001 	biceq	r1, r1, #1	; 0x1
   16f5c:	e3100602 	tst	r0, #2097152	; 0x200000
   16f60:	12844601 	addne	r4, r4, #1048576	; 0x100000
   16f64:	e294c601 	adds	ip, r4, #1048576	; 0x100000
   16f68:	4a00004c 	bmi	170a0 <__adddf3+0x2bc>
   16f6c:	e3c00603 	bic	r0, r0, #3145728	; 0x300000
   16f70:	e1800004 	orr	r0, r0, r4
   16f74:	e1800005 	orr	r0, r0, r5
   16f78:	e8bd4030 	ldmia	sp!, {r4, r5, lr}
   16f7c:	e12fff1e 	bx	lr
   16f80:	e3300000 	teq	r0, #0	; 0x0
   16f84:	13e0300a 	mvnne	r3, #10	; 0xa
   16f88:	03a03015 	moveq	r3, #21	; 0x15
   16f8c:	01a00001 	moveq	r0, r1
   16f90:	03a01000 	moveq	r1, #0	; 0x0
   16f94:	e1a02000 	mov	r2, r0
   16f98:	e1b0c820 	movs	ip, r0, lsr #16
   16f9c:	01a02802 	moveq	r2, r2, lsl #16
   16fa0:	02833010 	addeq	r3, r3, #16	; 0x10
   16fa4:	e31204ff 	tst	r2, #-16777216	; 0xff000000
   16fa8:	01a02402 	moveq	r2, r2, lsl #8
   16fac:	02833008 	addeq	r3, r3, #8	; 0x8
   16fb0:	e312020f 	tst	r2, #-268435456	; 0xf0000000
   16fb4:	01a02202 	moveq	r2, r2, lsl #4
   16fb8:	02833004 	addeq	r3, r3, #4	; 0x4
   16fbc:	e3120103 	tst	r2, #-1073741824	; 0xc0000000
   16fc0:	01a02102 	moveq	r2, r2, lsl #2
   16fc4:	02833002 	addeq	r3, r3, #2	; 0x2
   16fc8:	e3120102 	tst	r2, #-2147483648	; 0x80000000
   16fcc:	02833001 	addeq	r3, r3, #1	; 0x1
   16fd0:	e2532020 	subs	r2, r3, #32	; 0x20
   16fd4:	aa000007 	bge	16ff8 <__adddf3+0x214>
   16fd8:	e292200c 	adds	r2, r2, #12	; 0xc
   16fdc:	da000004 	ble	16ff4 <__adddf3+0x210>
   16fe0:	e282c014 	add	ip, r2, #20	; 0x14
   16fe4:	e262200c 	rsb	r2, r2, #12	; 0xc
   16fe8:	e1a01c10 	mov	r1, r0, lsl ip
   16fec:	e1a00230 	mov	r0, r0, lsr r2
   16ff0:	ea000004 	b	17008 <__adddf3+0x224>
   16ff4:	e2822014 	add	r2, r2, #20	; 0x14
   16ff8:	d262c020 	rsble	ip, r2, #32	; 0x20
   16ffc:	e1a00210 	mov	r0, r0, lsl r2
   17000:	d1800c31 	orrle	r0, r0, r1, lsr ip
   17004:	d1a01211 	movle	r1, r1, lsl r2
   17008:	e0544a03 	subs	r4, r4, r3, lsl #20
   1700c:	caffffd6 	bgt	16f6c <__adddf3+0x188>
   17010:	e1e04a44 	mvn	r4, r4, asr #20
   17014:	e254401e 	subs	r4, r4, #30	; 0x1e
   17018:	aa00000f 	bge	1705c <__adddf3+0x278>
   1701c:	e294400c 	adds	r4, r4, #12	; 0xc
   17020:	ca000006 	bgt	17040 <__adddf3+0x25c>
   17024:	e2844014 	add	r4, r4, #20	; 0x14
   17028:	e2642020 	rsb	r2, r4, #32	; 0x20
   1702c:	e1a01431 	mov	r1, r1, lsr r4
   17030:	e1811210 	orr	r1, r1, r0, lsl r2
   17034:	e1850430 	orr	r0, r5, r0, lsr r4
   17038:	e8bd4030 	ldmia	sp!, {r4, r5, lr}
   1703c:	e12fff1e 	bx	lr
   17040:	e264400c 	rsb	r4, r4, #12	; 0xc
   17044:	e2642020 	rsb	r2, r4, #32	; 0x20
   17048:	e1a01231 	mov	r1, r1, lsr r2
   1704c:	e1811410 	orr	r1, r1, r0, lsl r4
   17050:	e1a00005 	mov	r0, r5
   17054:	e8bd4030 	ldmia	sp!, {r4, r5, lr}
   17058:	e12fff1e 	bx	lr
   1705c:	e1a01430 	mov	r1, r0, lsr r4
   17060:	e1a00005 	mov	r0, r5
   17064:	e8bd4030 	ldmia	sp!, {r4, r5, lr}
   17068:	e12fff1e 	bx	lr
   1706c:	e3340000 	teq	r4, #0	; 0x0
   17070:	02200601 	eoreq	r0, r0, #1048576	; 0x100000
   17074:	02844601 	addeq	r4, r4, #1048576	; 0x100000
   17078:	e2222601 	eor	r2, r2, #1048576	; 0x100000
   1707c:	12455601 	subne	r5, r5, #1048576	; 0x100000
   17080:	eaffff83 	b	16e94 <__adddf3+0xb0>
   17084:	e24cc601 	sub	ip, ip, #1048576	; 0x100000
   17088:	e000200c 	and	r2, r0, ip
   1708c:	e132000c 	teq	r2, ip
   17090:	038c0702 	orreq	r0, ip, #524288	; 0x80000
   17094:	13a00000 	movne	r0, #0	; 0x0
   17098:	e3a01000 	mov	r1, #0	; 0x0
   1709c:	e12fff1e 	bx	lr
   170a0:	e385047f 	orr	r0, r5, #2130706432	; 0x7f000000
   170a4:	e380060f 	orr	r0, r0, #15728640	; 0xf00000
   170a8:	e3a01000 	mov	r1, #0	; 0x0
   170ac:	e8bd4030 	ldmia	sp!, {r4, r5, lr}
   170b0:	e12fff1e 	bx	lr
   170b4:	e134000c 	teq	r4, ip
   170b8:	11a00002 	movne	r0, r2
   170bc:	11a01003 	movne	r1, r3
   170c0:	0135000c 	teqeq	r5, ip
   170c4:	18bd4030 	ldmneia	sp!, {r4, r5, lr}
   170c8:	112fff1e 	bxne	lr
   170cc:	e1914600 	orrs	r4, r1, r0, lsl #12
   170d0:	01934602 	orreqs	r4, r3, r2, lsl #12
   170d4:	01300002 	teqeq	r0, r2
   170d8:	13850702 	orrne	r0, r5, #524288	; 0x80000
   170dc:	13a01000 	movne	r1, #0	; 0x0
   170e0:	e8bd4030 	ldmia	sp!, {r4, r5, lr}
   170e4:	e12fff1e 	bx	lr

000170e8 <__floatunsidf>:
   170e8:	e3300000 	teq	r0, #0	; 0x0
   170ec:	03a01000 	moveq	r1, #0	; 0x0
   170f0:	012fff1e 	bxeq	lr
   170f4:	e92d4030 	stmdb	sp!, {r4, r5, lr}
   170f8:	e3a04101 	mov	r4, #1073741824	; 0x40000000
   170fc:	e2844633 	add	r4, r4, #53477376	; 0x3300000
   17100:	e3a05000 	mov	r5, #0	; 0x0
   17104:	e1a01000 	mov	r1, r0
   17108:	e3a00000 	mov	r0, #0	; 0x0
   1710c:	eaffff9b 	b	16f80 <__adddf3+0x19c>

00017110 <__floatsidf>:
   17110:	e3300000 	teq	r0, #0	; 0x0
   17114:	03a01000 	moveq	r1, #0	; 0x0
   17118:	012fff1e 	bxeq	lr
   1711c:	e92d4030 	stmdb	sp!, {r4, r5, lr}
   17120:	e3a04101 	mov	r4, #1073741824	; 0x40000000
   17124:	e2844633 	add	r4, r4, #53477376	; 0x3300000
   17128:	e2105102 	ands	r5, r0, #-2147483648	; 0x80000000
   1712c:	42600000 	rsbmi	r0, r0, #0	; 0x0
   17130:	e1a01000 	mov	r1, r0
   17134:	e3a00000 	mov	r0, #0	; 0x0
   17138:	eaffff90 	b	16f80 <__adddf3+0x19c>

0001713c <__extendsfdf2>:
   1713c:	e1b02080 	movs	r2, r0, lsl #1
   17140:	0a000007 	beq	17164 <__extendsfdf2+0x28>
   17144:	e1a001c2 	mov	r0, r2, asr #3
   17148:	e1a00060 	mov	r0, r0, rrx
   1714c:	e1a01e02 	mov	r1, r2, lsl #28
   17150:	e21224ff 	ands	r2, r2, #-16777216	; 0xff000000
   17154:	0a000005 	beq	17170 <__extendsfdf2+0x34>
   17158:	e33204ff 	teq	r2, #-16777216	; 0xff000000
   1715c:	1220030e 	eorne	r0, r0, #939524096	; 0x38000000
   17160:	e12fff1e 	bx	lr
   17164:	e1a00000 	nop			(mov r0,r0)
   17168:	e3a01000 	mov	r1, #0	; 0x0
   1716c:	e12fff1e 	bx	lr
   17170:	e92d4030 	stmdb	sp!, {r4, r5, lr}
   17174:	e3a0430e 	mov	r4, #939524096	; 0x38000000
   17178:	e2844601 	add	r4, r4, #1048576	; 0x100000
   1717c:	e2005102 	and	r5, r0, #-2147483648	; 0x80000000
   17180:	e3c00102 	bic	r0, r0, #-2147483648	; 0x80000000
   17184:	eaffff7d 	b	16f80 <__adddf3+0x19c>

00017188 <__muldf3>:
   17188:	e92d4070 	stmdb	sp!, {r4, r5, r6, lr}
   1718c:	e3a0c47f 	mov	ip, #2130706432	; 0x7f000000
   17190:	e38cc60f 	orr	ip, ip, #15728640	; 0xf00000
   17194:	e000400c 	and	r4, r0, ip
   17198:	e002500c 	and	r5, r2, ip
   1719c:	e134000c 	teq	r4, ip
   171a0:	1135000c 	teqne	r5, ip
   171a4:	0a00007f 	beq	173a8 <__muldf3+0x220>
   171a8:	e1916080 	orrs	r6, r1, r0, lsl #1
   171ac:	11936082 	orrnes	r6, r3, r2, lsl #1
   171b0:	0a000030 	beq	17278 <__muldf3+0xf0>
   171b4:	e1b040a4 	movs	r4, r4, lsr #1
   171b8:	13350000 	teqne	r5, #0	; 0x0
   171bc:	0a000065 	beq	17358 <__muldf3+0x1d0>
   171c0:	e08440c5 	add	r4, r4, r5, asr #1
   171c4:	e1300002 	teq	r0, r2
   171c8:	43844902 	orrmi	r4, r4, #32768	; 0x8000
   171cc:	e1c0008c 	bic	r0, r0, ip, lsl #1
   171d0:	e1c2208c 	bic	r2, r2, ip, lsl #1
   171d4:	e3800601 	orr	r0, r0, #1048576	; 0x100000
   171d8:	e3822601 	orr	r2, r2, #1048576	; 0x100000
   171dc:	e08ec391 	umull	ip, lr, r1, r3
   171e0:	e3a05000 	mov	r5, #0	; 0x0
   171e4:	e0a5e291 	umlal	lr, r5, r1, r2
   171e8:	e0a5e390 	umlal	lr, r5, r0, r3
   171ec:	e3a06000 	mov	r6, #0	; 0x0
   171f0:	e0a65290 	umlal	r5, r6, r0, r2
   171f4:	e33c0000 	teq	ip, #0	; 0x0
   171f8:	138ee001 	orrne	lr, lr, #1	; 0x1
   171fc:	e1a00804 	mov	r0, r4, lsl #16
   17200:	e3c44902 	bic	r4, r4, #32768	; 0x8000
   17204:	e3160c02 	tst	r6, #512	; 0x200
   17208:	0a000004 	beq	17220 <__muldf3+0x98>
   1720c:	e2844702 	add	r4, r4, #524288	; 0x80000
   17210:	e1b060a6 	movs	r6, r6, lsr #1
   17214:	e1b05065 	movs	r5, r5, rrx
   17218:	e1b0e06e 	movs	lr, lr, rrx
   1721c:	238ee001 	orrcs	lr, lr, #1	; 0x1
   17220:	e1800606 	orr	r0, r0, r6, lsl #12
   17224:	e1800a25 	orr	r0, r0, r5, lsr #20
   17228:	e1a01605 	mov	r1, r5, lsl #12
   1722c:	e1811a2e 	orr	r1, r1, lr, lsr #20
   17230:	e244473e 	sub	r4, r4, #16252928	; 0xf80000
   17234:	e254441f 	subs	r4, r4, #520093696	; 0x1f000000
   17238:	da000013 	ble	1728c <__muldf3+0x104>
   1723c:	e1b0e60e 	movs	lr, lr, lsl #12
   17240:	5a000005 	bpl	1725c <__muldf3+0xd4>
   17244:	e2911001 	adds	r1, r1, #1	; 0x1
   17248:	e2a00000 	adc	r0, r0, #0	; 0x0
   1724c:	e33e0102 	teq	lr, #-2147483648	; 0x80000000
   17250:	03c11001 	biceq	r1, r1, #1	; 0x1
   17254:	e3100602 	tst	r0, #2097152	; 0x200000
   17258:	12844702 	addne	r4, r4, #524288	; 0x80000
   1725c:	e294c702 	adds	ip, r4, #524288	; 0x80000
   17260:	e31c0101 	tst	ip, #1073741824	; 0x40000000
   17264:	1a00005b 	bne	173d8 <__muldf3+0x250>
   17268:	e3c00603 	bic	r0, r0, #3145728	; 0x300000
   1726c:	e1800084 	orr	r0, r0, r4, lsl #1
   17270:	e8bd4070 	ldmia	sp!, {r4, r5, r6, lr}
   17274:	e12fff1e 	bx	lr
   17278:	e0200002 	eor	r0, r0, r2
   1727c:	e2000102 	and	r0, r0, #-2147483648	; 0x80000000
   17280:	e3a01000 	mov	r1, #0	; 0x0
   17284:	e8bd4070 	ldmia	sp!, {r4, r5, r6, lr}
   17288:	e12fff1e 	bx	lr
   1728c:	e374076a 	cmn	r4, #27787264	; 0x1a80000
   17290:	d3a01000 	movle	r1, #0	; 0x0
   17294:	d2000102 	andle	r0, r0, #-2147483648	; 0x80000000
   17298:	d8bd4070 	ldmleia	sp!, {r4, r5, r6, lr}
   1729c:	d12fff1e 	bxle	lr
   172a0:	e1e049c4 	mvn	r4, r4, asr #19
   172a4:	e254401e 	subs	r4, r4, #30	; 0x1e
   172a8:	aa00001d 	bge	17324 <__muldf3+0x19c>
   172ac:	e294400c 	adds	r4, r4, #12	; 0xc
   172b0:	ca00000e 	bgt	172f0 <__muldf3+0x168>
   172b4:	e2844014 	add	r4, r4, #20	; 0x14
   172b8:	e2645020 	rsb	r5, r4, #32	; 0x20
   172bc:	e1a03511 	mov	r3, r1, lsl r5
   172c0:	e1a01431 	mov	r1, r1, lsr r4
   172c4:	e1811510 	orr	r1, r1, r0, lsl r5
   172c8:	e1b00080 	movs	r0, r0, lsl #1
   172cc:	e1a00430 	mov	r0, r0, lsr r4
   172d0:	e1a00060 	mov	r0, r0, rrx
   172d4:	e0911fa3 	adds	r1, r1, r3, lsr #31
   172d8:	e2a00000 	adc	r0, r0, #0	; 0x0
   172dc:	e33e0000 	teq	lr, #0	; 0x0
   172e0:	03330102 	teqeq	r3, #-2147483648	; 0x80000000
   172e4:	03c11001 	biceq	r1, r1, #1	; 0x1
   172e8:	e8bd4070 	ldmia	sp!, {r4, r5, r6, lr}
   172ec:	e12fff1e 	bx	lr
   172f0:	e264400c 	rsb	r4, r4, #12	; 0xc
   172f4:	e2645020 	rsb	r5, r4, #32	; 0x20
   172f8:	e1a03411 	mov	r3, r1, lsl r4
   172fc:	e1a01531 	mov	r1, r1, lsr r5
   17300:	e1811410 	orr	r1, r1, r0, lsl r4
   17304:	e2000102 	and	r0, r0, #-2147483648	; 0x80000000
   17308:	e0911fa3 	adds	r1, r1, r3, lsr #31
   1730c:	e2a00000 	adc	r0, r0, #0	; 0x0
   17310:	e33e0000 	teq	lr, #0	; 0x0
   17314:	03330102 	teqeq	r3, #-2147483648	; 0x80000000
   17318:	03c11001 	biceq	r1, r1, #1	; 0x1
   1731c:	e8bd4070 	ldmia	sp!, {r4, r5, r6, lr}
   17320:	e12fff1e 	bx	lr
   17324:	e2645020 	rsb	r5, r4, #32	; 0x20
   17328:	e1a06511 	mov	r6, r1, lsl r5
   1732c:	e1a03431 	mov	r3, r1, lsr r4
   17330:	e1833510 	orr	r3, r3, r0, lsl r5
   17334:	e1a01430 	mov	r1, r0, lsr r4
   17338:	e2000102 	and	r0, r0, #-2147483648	; 0x80000000
   1733c:	e1c11430 	bic	r1, r1, r0, lsr r4
   17340:	e0811fa3 	add	r1, r1, r3, lsr #31
   17344:	e196600e 	orrs	r6, r6, lr
   17348:	03330102 	teqeq	r3, #-2147483648	; 0x80000000
   1734c:	03c11001 	biceq	r1, r1, #1	; 0x1
   17350:	e8bd4070 	ldmia	sp!, {r4, r5, r6, lr}
   17354:	e12fff1e 	bx	lr
   17358:	e3a0e000 	mov	lr, #0	; 0x0
   1735c:	e3340000 	teq	r4, #0	; 0x0
   17360:	1a000008 	bne	17388 <__muldf3+0x200>
   17364:	e2006102 	and	r6, r0, #-2147483648	; 0x80000000
   17368:	e1b01081 	movs	r1, r1, lsl #1
   1736c:	e0ae0080 	adc	r0, lr, r0, lsl #1
   17370:	e3100601 	tst	r0, #1048576	; 0x100000
   17374:	02444702 	subeq	r4, r4, #524288	; 0x80000
   17378:	0afffffa 	beq	17368 <__muldf3+0x1e0>
   1737c:	e1800006 	orr	r0, r0, r6
   17380:	e3350000 	teq	r5, #0	; 0x0
   17384:	1affff8d 	bne	171c0 <__muldf3+0x38>
   17388:	e2026102 	and	r6, r2, #-2147483648	; 0x80000000
   1738c:	e1b03083 	movs	r3, r3, lsl #1
   17390:	e0ae2082 	adc	r2, lr, r2, lsl #1
   17394:	e3120601 	tst	r2, #1048576	; 0x100000
   17398:	02455601 	subeq	r5, r5, #1048576	; 0x100000
   1739c:	0afffffa 	beq	1738c <__muldf3+0x204>
   173a0:	e1822006 	orr	r2, r2, r6
   173a4:	eaffff85 	b	171c0 <__muldf3+0x38>
   173a8:	e1916080 	orrs	r6, r1, r0, lsl #1
   173ac:	11936082 	orrnes	r6, r3, r2, lsl #1
   173b0:	0a00000e 	beq	173f0 <__muldf3+0x268>
   173b4:	e134000c 	teq	r4, ip
   173b8:	1a000001 	bne	173c4 <__muldf3+0x23c>
   173bc:	e1916600 	orrs	r6, r1, r0, lsl #12
   173c0:	1a00000a 	bne	173f0 <__muldf3+0x268>
   173c4:	e135000c 	teq	r5, ip
   173c8:	1a000001 	bne	173d4 <__muldf3+0x24c>
   173cc:	e1936602 	orrs	r6, r3, r2, lsl #12
   173d0:	1a000006 	bne	173f0 <__muldf3+0x268>
   173d4:	e0200002 	eor	r0, r0, r2
   173d8:	e2000102 	and	r0, r0, #-2147483648	; 0x80000000
   173dc:	e380047f 	orr	r0, r0, #2130706432	; 0x7f000000
   173e0:	e380060f 	orr	r0, r0, #15728640	; 0xf00000
   173e4:	e3a01000 	mov	r1, #0	; 0x0
   173e8:	e8bd4070 	ldmia	sp!, {r4, r5, r6, lr}
   173ec:	e12fff1e 	bx	lr
   173f0:	e3a0047f 	mov	r0, #2130706432	; 0x7f000000
   173f4:	e380073e 	orr	r0, r0, #16252928	; 0xf80000
   173f8:	e8bd4070 	ldmia	sp!, {r4, r5, r6, lr}
   173fc:	e12fff1e 	bx	lr

00017400 <__divdf3>:
   17400:	e92d4070 	stmdb	sp!, {r4, r5, r6, lr}
   17404:	e3a0c47f 	mov	ip, #2130706432	; 0x7f000000
   17408:	e38cc60f 	orr	ip, ip, #15728640	; 0xf00000
   1740c:	e000400c 	and	r4, r0, ip
   17410:	e002500c 	and	r5, r2, ip
   17414:	e134000c 	teq	r4, ip
   17418:	1135000c 	teqne	r5, ip
   1741c:	11916080 	orrnes	r6, r1, r0, lsl #1
   17420:	11936082 	orrnes	r6, r3, r2, lsl #1
   17424:	0a000080 	beq	1762c <__divdf3+0x22c>
   17428:	e1b040a4 	movs	r4, r4, lsr #1
   1742c:	13350000 	teqne	r5, #0	; 0x0
   17430:	0a000069 	beq	175dc <__divdf3+0x1dc>
   17434:	e04440c5 	sub	r4, r4, r5, asr #1
   17438:	e020e002 	eor	lr, r0, r2
   1743c:	e3a05201 	mov	r5, #268435456	; 0x10000000
   17440:	e1a02602 	mov	r2, r2, lsl #12
   17444:	e1852222 	orr	r2, r5, r2, lsr #4
   17448:	e1822c23 	orr	r2, r2, r3, lsr #24
   1744c:	e1b03403 	movs	r3, r3, lsl #8
   17450:	e1a00600 	mov	r0, r0, lsl #12
   17454:	01320005 	teqeq	r2, r5
   17458:	0a00004e 	beq	17598 <__divdf3+0x198>
   1745c:	e1855220 	orr	r5, r5, r0, lsr #4
   17460:	e1855c21 	orr	r5, r5, r1, lsr #24
   17464:	e1a06401 	mov	r6, r1, lsl #8
   17468:	e20e0102 	and	r0, lr, #-2147483648	; 0x80000000
   1746c:	e1550002 	cmp	r5, r2
   17470:	01560003 	cmpeq	r6, r3
   17474:	2a000002 	bcs	17484 <__divdf3+0x84>
   17478:	e2444702 	sub	r4, r4, #524288	; 0x80000
   1747c:	e1b020a2 	movs	r2, r2, lsr #1
   17480:	e1a03063 	mov	r3, r3, rrx
   17484:	e284441f 	add	r4, r4, #520093696	; 0x1f000000
   17488:	e284473e 	add	r4, r4, #16252928	; 0xf80000
   1748c:	e374076a 	cmn	r4, #27787264	; 0x1a80000
   17490:	daffff79 	ble	1727c <__muldf3+0xf4>
   17494:	e15400ac 	cmp	r4, ip, lsr #1
   17498:	aaffffce 	bge	173d8 <__muldf3+0x250>
   1749c:	e0566003 	subs	r6, r6, r3
   174a0:	e0c55002 	sbc	r5, r5, r2
   174a4:	e1b020a2 	movs	r2, r2, lsr #1
   174a8:	e1a03063 	mov	r3, r3, rrx
   174ac:	e3a01601 	mov	r1, #1048576	; 0x100000
   174b0:	e3a0c702 	mov	ip, #524288	; 0x80000
   174b4:	e056e003 	subs	lr, r6, r3
   174b8:	e0d5e002 	sbcs	lr, r5, r2
   174bc:	20466003 	subcs	r6, r6, r3
   174c0:	21a0500e 	movcs	r5, lr
   174c4:	2181100c 	orrcs	r1, r1, ip
   174c8:	e1b020a2 	movs	r2, r2, lsr #1
   174cc:	e1a03063 	mov	r3, r3, rrx
   174d0:	e056e003 	subs	lr, r6, r3
   174d4:	e0d5e002 	sbcs	lr, r5, r2
   174d8:	20466003 	subcs	r6, r6, r3
   174dc:	21a0500e 	movcs	r5, lr
   174e0:	218110ac 	orrcs	r1, r1, ip, lsr #1
   174e4:	e1b020a2 	movs	r2, r2, lsr #1
   174e8:	e1a03063 	mov	r3, r3, rrx
   174ec:	e056e003 	subs	lr, r6, r3
   174f0:	e0d5e002 	sbcs	lr, r5, r2
   174f4:	20466003 	subcs	r6, r6, r3
   174f8:	21a0500e 	movcs	r5, lr
   174fc:	2181112c 	orrcs	r1, r1, ip, lsr #2
   17500:	e1b020a2 	movs	r2, r2, lsr #1
   17504:	e1a03063 	mov	r3, r3, rrx
   17508:	e056e003 	subs	lr, r6, r3
   1750c:	e0d5e002 	sbcs	lr, r5, r2
   17510:	20466003 	subcs	r6, r6, r3
   17514:	21a0500e 	movcs	r5, lr
   17518:	218111ac 	orrcs	r1, r1, ip, lsr #3
   1751c:	e195e006 	orrs	lr, r5, r6
   17520:	0a00000d 	beq	1755c <__divdf3+0x15c>
   17524:	e1a05205 	mov	r5, r5, lsl #4
   17528:	e1855e26 	orr	r5, r5, r6, lsr #28
   1752c:	e1a06206 	mov	r6, r6, lsl #4
   17530:	e1a02182 	mov	r2, r2, lsl #3
   17534:	e1822ea3 	orr	r2, r2, r3, lsr #29
   17538:	e1a03183 	mov	r3, r3, lsl #3
   1753c:	e1b0c22c 	movs	ip, ip, lsr #4
   17540:	1affffdb 	bne	174b4 <__divdf3+0xb4>
   17544:	e3100601 	tst	r0, #1048576	; 0x100000
   17548:	1a000006 	bne	17568 <__divdf3+0x168>
   1754c:	e1800001 	orr	r0, r0, r1
   17550:	e3a01000 	mov	r1, #0	; 0x0
   17554:	e3a0c102 	mov	ip, #-2147483648	; 0x80000000
   17558:	eaffffd5 	b	174b4 <__divdf3+0xb4>
   1755c:	e3100601 	tst	r0, #1048576	; 0x100000
   17560:	01800001 	orreq	r0, r0, r1
   17564:	03a01000 	moveq	r1, #0	; 0x0
   17568:	e3540000 	cmp	r4, #0	; 0x0
   1756c:	da000018 	ble	175d4 <__divdf3+0x1d4>
   17570:	e055c002 	subs	ip, r5, r2
   17574:	0056c003 	subeqs	ip, r6, r3
   17578:	e2b11000 	adcs	r1, r1, #0	; 0x0
   1757c:	e2a00000 	adc	r0, r0, #0	; 0x0
   17580:	e33c0000 	teq	ip, #0	; 0x0
   17584:	03c11001 	biceq	r1, r1, #1	; 0x1
   17588:	e3c00601 	bic	r0, r0, #1048576	; 0x100000
   1758c:	e1800084 	orr	r0, r0, r4, lsl #1
   17590:	e8bd4070 	ldmia	sp!, {r4, r5, r6, lr}
   17594:	e12fff1e 	bx	lr
   17598:	e20ee102 	and	lr, lr, #-2147483648	; 0x80000000
   1759c:	e18e0620 	orr	r0, lr, r0, lsr #12
   175a0:	e284441f 	add	r4, r4, #520093696	; 0x1f000000
   175a4:	e284473e 	add	r4, r4, #16252928	; 0xf80000
   175a8:	e15400ac 	cmp	r4, ip, lsr #1
   175ac:	aaffff89 	bge	173d8 <__muldf3+0x250>
   175b0:	e3540000 	cmp	r4, #0	; 0x0
   175b4:	c1800084 	orrgt	r0, r0, r4, lsl #1
   175b8:	c8bd4070 	ldmgtia	sp!, {r4, r5, r6, lr}
   175bc:	c12fff1e 	bxgt	lr
   175c0:	e374076a 	cmn	r4, #27787264	; 0x1a80000
   175c4:	daffff2c 	ble	1727c <__muldf3+0xf4>
   175c8:	e3800601 	orr	r0, r0, #1048576	; 0x100000
   175cc:	e3a0e000 	mov	lr, #0	; 0x0
   175d0:	eaffff32 	b	172a0 <__muldf3+0x118>
   175d4:	e185e006 	orr	lr, r5, r6
   175d8:	eaffff30 	b	172a0 <__muldf3+0x118>
   175dc:	e3a0e000 	mov	lr, #0	; 0x0
   175e0:	e3340000 	teq	r4, #0	; 0x0
   175e4:	1a000008 	bne	1760c <__divdf3+0x20c>
   175e8:	e2006102 	and	r6, r0, #-2147483648	; 0x80000000
   175ec:	e1b01081 	movs	r1, r1, lsl #1
   175f0:	e0ae0080 	adc	r0, lr, r0, lsl #1
   175f4:	e3100601 	tst	r0, #1048576	; 0x100000
   175f8:	02444702 	subeq	r4, r4, #524288	; 0x80000
   175fc:	0afffffa 	beq	175ec <__divdf3+0x1ec>
   17600:	e1800006 	orr	r0, r0, r6
   17604:	e3350000 	teq	r5, #0	; 0x0
   17608:	1affff89 	bne	17434 <__divdf3+0x34>
   1760c:	e2026102 	and	r6, r2, #-2147483648	; 0x80000000
   17610:	e1b03083 	movs	r3, r3, lsl #1
   17614:	e0ae2082 	adc	r2, lr, r2, lsl #1
   17618:	e3120601 	tst	r2, #1048576	; 0x100000
   1761c:	02455601 	subeq	r5, r5, #1048576	; 0x100000
   17620:	0afffffa 	beq	17610 <__divdf3+0x210>
   17624:	e1822006 	orr	r2, r2, r6
   17628:	eaffff81 	b	17434 <__divdf3+0x34>
   1762c:	e134000c 	teq	r4, ip
   17630:	0135000c 	teqeq	r5, ip
   17634:	0affff6d 	beq	173f0 <__muldf3+0x268>
   17638:	e134000c 	teq	r4, ip
   1763c:	1a000002 	bne	1764c <__divdf3+0x24c>
   17640:	e1914600 	orrs	r4, r1, r0, lsl #12
   17644:	1affff69 	bne	173f0 <__muldf3+0x268>
   17648:	eaffff61 	b	173d4 <__muldf3+0x24c>
   1764c:	e135000c 	teq	r5, ip
   17650:	1a000002 	bne	17660 <__divdf3+0x260>
   17654:	e1935602 	orrs	r5, r3, r2, lsl #12
   17658:	1affff64 	bne	173f0 <__muldf3+0x268>
   1765c:	eaffff05 	b	17278 <__muldf3+0xf0>
   17660:	e1914080 	orrs	r4, r1, r0, lsl #1
   17664:	1affff5a 	bne	173d4 <__muldf3+0x24c>
   17668:	e1935082 	orrs	r5, r3, r2, lsl #1
   1766c:	1affff01 	bne	17278 <__muldf3+0xf0>
   17670:	eaffff5e 	b	173f0 <__muldf3+0x268>

00017674 <__gedf2>:
   17674:	e3e0c000 	mvn	ip, #0	; 0x0
   17678:	ea000002 	b	17688 <__cmpdf2+0x4>

0001767c <__ledf2>:
   1767c:	e3a0c001 	mov	ip, #1	; 0x1
   17680:	ea000000 	b	17688 <__cmpdf2+0x4>

00017684 <__cmpdf2>:
   17684:	e3a0c001 	mov	ip, #1	; 0x1
   17688:	e92d4030 	stmdb	sp!, {r4, r5, lr}
   1768c:	e3a0e47f 	mov	lr, #2130706432	; 0x7f000000
   17690:	e38ee60f 	orr	lr, lr, #15728640	; 0xf00000
   17694:	e000400e 	and	r4, r0, lr
   17698:	e002500e 	and	r5, r2, lr
   1769c:	e134000e 	teq	r4, lr
   176a0:	1135000e 	teqne	r5, lr
   176a4:	0a000014 	beq	176fc <__cmpdf2+0x78>
   176a8:	e191c080 	orrs	ip, r1, r0, lsl #1
   176ac:	0193c082 	orreqs	ip, r3, r2, lsl #1
   176b0:	11300002 	teqne	r0, r2
   176b4:	01310003 	teqeq	r1, r3
   176b8:	03a00000 	moveq	r0, #0	; 0x0
   176bc:	08bd4030 	ldmeqia	sp!, {r4, r5, lr}
   176c0:	012fff1e 	bxeq	lr
   176c4:	e1300002 	teq	r0, r2
   176c8:	41a00fc0 	movmi	r0, r0, asr #31
   176cc:	43800001 	orrmi	r0, r0, #1	; 0x1
   176d0:	48bd4030 	ldmmiia	sp!, {r4, r5, lr}
   176d4:	412fff1e 	bxmi	lr
   176d8:	e1540005 	cmp	r4, r5
   176dc:	01a00600 	moveq	r0, r0, lsl #12
   176e0:	01500602 	cmpeq	r0, r2, lsl #12
   176e4:	01510003 	cmpeq	r1, r3
   176e8:	21a00fc2 	movcs	r0, r2, asr #31
   176ec:	31e00fc2 	mvncc	r0, r2, asr #31
   176f0:	e3800001 	orr	r0, r0, #1	; 0x1
   176f4:	e8bd4030 	ldmia	sp!, {r4, r5, lr}
   176f8:	e12fff1e 	bx	lr
   176fc:	e134000e 	teq	r4, lr
   17700:	1a000001 	bne	1770c <__cmpdf2+0x88>
   17704:	e1911600 	orrs	r1, r1, r0, lsl #12
   17708:	1a000003 	bne	1771c <__cmpdf2+0x98>
   1770c:	e135000e 	teq	r5, lr
   17710:	1affffe4 	bne	176a8 <__cmpdf2+0x24>
   17714:	e1933602 	orrs	r3, r3, r2, lsl #12
   17718:	0affffe2 	beq	176a8 <__cmpdf2+0x24>
   1771c:	e1a0000c 	mov	r0, ip
   17720:	e8bd4030 	ldmia	sp!, {r4, r5, lr}
   17724:	e12fff1e 	bx	lr

00017728 <__fixdfsi>:
   17728:	e191c080 	orrs	ip, r1, r0, lsl #1
   1772c:	0a000014 	beq	17784 <__fixdfsi+0x5c>
   17730:	e1a03063 	mov	r3, r3, rrx
   17734:	e3a0c47f 	mov	ip, #2130706432	; 0x7f000000
   17738:	e38cc60f 	orr	ip, ip, #15728640	; 0xf00000
   1773c:	e000200c 	and	r2, r0, ip
   17740:	e132000c 	teq	r2, ip
   17744:	0a000010 	beq	1778c <__fixdfsi+0x64>
   17748:	e3ccc101 	bic	ip, ip, #1073741824	; 0x40000000
   1774c:	e152000c 	cmp	r2, ip
   17750:	3a00000b 	bcc	17784 <__fixdfsi+0x5c>
   17754:	e28cc61f 	add	ip, ip, #32505856	; 0x1f00000
   17758:	e152000c 	cmp	r2, ip
   1775c:	2a00000c 	bcs	17794 <__fixdfsi+0x6c>
   17760:	e062200c 	rsb	r2, r2, ip
   17764:	e1a0c580 	mov	ip, r0, lsl #11
   17768:	e38cc102 	orr	ip, ip, #-2147483648	; 0x80000000
   1776c:	e18ccaa1 	orr	ip, ip, r1, lsr #21
   17770:	e1a02a22 	mov	r2, r2, lsr #20
   17774:	e3130102 	tst	r3, #-2147483648	; 0x80000000
   17778:	e1a0023c 	mov	r0, ip, lsr r2
   1777c:	12600000 	rsbne	r0, r0, #0	; 0x0
   17780:	e12fff1e 	bx	lr
   17784:	e3a00000 	mov	r0, #0	; 0x0
   17788:	e12fff1e 	bx	lr
   1778c:	e1911600 	orrs	r1, r1, r0, lsl #12
   17790:	1a000002 	bne	177a0 <__fixdfsi+0x78>
   17794:	e2130102 	ands	r0, r3, #-2147483648	; 0x80000000
   17798:	03e00102 	mvneq	r0, #-2147483648	; 0x80000000
   1779c:	e12fff1e 	bx	lr
   177a0:	e3a00000 	mov	r0, #0	; 0x0
   177a4:	e12fff1e 	bx	lr

000177a8 <__fixunsdfsi>:
   177a8:	e191c080 	orrs	ip, r1, r0, lsl #1
   177ac:	23b00000 	movcss	r0, #0	; 0x0
   177b0:	012fff1e 	bxeq	lr
   177b4:	e3a0c47f 	mov	ip, #2130706432	; 0x7f000000
   177b8:	e38cc60f 	orr	ip, ip, #15728640	; 0xf00000
   177bc:	e000200c 	and	r2, r0, ip
   177c0:	e132000c 	teq	r2, ip
   177c4:	0a00000e 	beq	17804 <__fixunsdfsi+0x5c>
   177c8:	e3ccc101 	bic	ip, ip, #1073741824	; 0x40000000
   177cc:	e152000c 	cmp	r2, ip
   177d0:	3a000009 	bcc	177fc <__fixunsdfsi+0x54>
   177d4:	e28cc61f 	add	ip, ip, #32505856	; 0x1f00000
   177d8:	e152000c 	cmp	r2, ip
   177dc:	8a00000a 	bhi	1780c <__fixunsdfsi+0x64>
   177e0:	e062200c 	rsb	r2, r2, ip
   177e4:	e1a0c580 	mov	ip, r0, lsl #11
   177e8:	e38cc102 	orr	ip, ip, #-2147483648	; 0x80000000
   177ec:	e18ccaa1 	orr	ip, ip, r1, lsr #21
   177f0:	e1a02a22 	mov	r2, r2, lsr #20
   177f4:	e1a0023c 	mov	r0, ip, lsr r2
   177f8:	e12fff1e 	bx	lr
   177fc:	e3a00000 	mov	r0, #0	; 0x0
   17800:	e12fff1e 	bx	lr
   17804:	e1911600 	orrs	r1, r1, r0, lsl #12
   17808:	1a000001 	bne	17814 <__fixunsdfsi+0x6c>
   1780c:	e3e00000 	mvn	r0, #0	; 0x0
   17810:	e12fff1e 	bx	lr
   17814:	e3a00000 	mov	r0, #0	; 0x0
   17818:	e12fff1e 	bx	lr

0001781c <__truncdfsf2>:
   1781c:	e1912080 	orrs	r2, r1, r0, lsl #1
   17820:	01a00062 	moveq	r0, r2, rrx
   17824:	012fff1e 	bxeq	lr
   17828:	e3a0c47f 	mov	ip, #2130706432	; 0x7f000000
   1782c:	e38cc60f 	orr	ip, ip, #15728640	; 0xf00000
   17830:	e00c2000 	and	r2, ip, r0
   17834:	e132000c 	teq	r2, ip
   17838:	0a000013 	beq	1788c <__truncdfsf2+0x70>
   1783c:	e1c0000c 	bic	r0, r0, ip
   17840:	e352030e 	cmp	r2, #939524096	; 0x38000000
   17844:	9a000018 	bls	178ac <__truncdfsf2+0x90>
   17848:	e1b03ea1 	movs	r3, r1, lsr #29
   1784c:	e0a33180 	adc	r3, r3, r0, lsl #3
   17850:	e1a01181 	mov	r1, r1, lsl #3
   17854:	e3310102 	teq	r1, #-2147483648	; 0x80000000
   17858:	03c33001 	biceq	r3, r3, #1	; 0x1
   1785c:	e3130502 	tst	r3, #8388608	; 0x800000
   17860:	12822601 	addne	r2, r2, #1048576	; 0x100000
   17864:	13c33502 	bicne	r3, r3, #8388608	; 0x800000
   17868:	e3a0c101 	mov	ip, #1073741824	; 0x40000000
   1786c:	e38cc67f 	orr	ip, ip, #133169152	; 0x7f00000
   17870:	e152000c 	cmp	r2, ip
   17874:	2a000008 	bcs	1789c <__truncdfsf2+0x80>
   17878:	e1b00080 	movs	r0, r0, lsl #1
   1787c:	e1a02202 	mov	r2, r2, lsl #4
   17880:	e1830062 	orr	r0, r3, r2, rrx
   17884:	e2200101 	eor	r0, r0, #1073741824	; 0x40000000
   17888:	e12fff1e 	bx	lr
   1788c:	e1911600 	orrs	r1, r1, r0, lsl #12
   17890:	13a0047f 	movne	r0, #2130706432	; 0x7f000000
   17894:	13800503 	orrne	r0, r0, #12582912	; 0xc00000
   17898:	112fff1e 	bxne	lr
   1789c:	e2000102 	and	r0, r0, #-2147483648	; 0x80000000
   178a0:	e380047f 	orr	r0, r0, #2130706432	; 0x7f000000
   178a4:	e3800502 	orr	r0, r0, #8388608	; 0x800000
   178a8:	e12fff1e 	bx	lr
   178ac:	e25225da 	subs	r2, r2, #914358272	; 0x36800000
   178b0:	d2000102 	andle	r0, r0, #-2147483648	; 0x80000000
   178b4:	d12fff1e 	bxle	lr
   178b8:	e3800601 	orr	r0, r0, #1048576	; 0x100000
   178bc:	e1a02a22 	mov	r2, r2, lsr #20
   178c0:	e2622019 	rsb	r2, r2, #25	; 0x19
   178c4:	e3520014 	cmp	r2, #20	; 0x14
   178c8:	ca00000a 	bgt	178f8 <__truncdfsf2+0xdc>
   178cc:	e262c020 	rsb	ip, r2, #32	; 0x20
   178d0:	e1a03c11 	mov	r3, r1, lsl ip
   178d4:	e1a01231 	mov	r1, r1, lsr r2
   178d8:	e1811c10 	orr	r1, r1, r0, lsl ip
   178dc:	e1b00080 	movs	r0, r0, lsl #1
   178e0:	e1a00230 	mov	r0, r0, lsr r2
   178e4:	e1a00060 	mov	r0, r0, rrx
   178e8:	e3330000 	teq	r3, #0	; 0x0
   178ec:	13811001 	orrne	r1, r1, #1	; 0x1
   178f0:	e3a0230e 	mov	r2, #939524096	; 0x38000000
   178f4:	eaffffd3 	b	17848 <__truncdfsf2+0x2c>
   178f8:	e2622020 	rsb	r2, r2, #32	; 0x20
   178fc:	e262c020 	rsb	ip, r2, #32	; 0x20
   17900:	e1a03211 	mov	r3, r1, lsl r2
   17904:	e1a01c31 	mov	r1, r1, lsr ip
   17908:	e1811210 	orr	r1, r1, r0, lsl r2
   1790c:	e2000102 	and	r0, r0, #-2147483648	; 0x80000000
   17910:	eafffff4 	b	178e8 <__truncdfsf2+0xcc>

00017914 <__subsf3>:
   17914:	e2211102 	eor	r1, r1, #-2147483648	; 0x80000000

00017918 <__addsf3>:
   17918:	e0202001 	eor	r2, r0, r1
   1791c:	e3320102 	teq	r2, #-2147483648	; 0x80000000
   17920:	0a00005a 	beq	17a90 <__addsf3+0x178>
   17924:	e3d02102 	bics	r2, r0, #-2147483648	; 0x80000000
   17928:	01a00001 	moveq	r0, r1
   1792c:	13d12102 	bicnes	r2, r1, #-2147483648	; 0x80000000
   17930:	012fff1e 	bxeq	lr
   17934:	e3a0c4ff 	mov	ip, #-16777216	; 0xff000000
   17938:	e00020ac 	and	r2, r0, ip, lsr #1
   1793c:	e00130ac 	and	r3, r1, ip, lsr #1
   17940:	e13200ac 	teq	r2, ip, lsr #1
   17944:	113300ac 	teqne	r3, ip, lsr #1
   17948:	0a000059 	beq	17ab4 <__addsf3+0x19c>
   1794c:	e0533002 	subs	r3, r3, r2
   17950:	c0822003 	addgt	r2, r2, r3
   17954:	c0201001 	eorgt	r1, r0, r1
   17958:	c0210000 	eorgt	r0, r1, r0
   1795c:	c0201001 	eorgt	r1, r0, r1
   17960:	b2633000 	rsblt	r3, r3, #0	; 0x0
   17964:	e3530532 	cmp	r3, #209715200	; 0xc800000
   17968:	812fff1e 	bxhi	lr
   1796c:	e3100102 	tst	r0, #-2147483648	; 0x80000000
   17970:	e3800502 	orr	r0, r0, #8388608	; 0x800000
   17974:	e3c004ff 	bic	r0, r0, #-16777216	; 0xff000000
   17978:	12600000 	rsbne	r0, r0, #0	; 0x0
   1797c:	e3110102 	tst	r1, #-2147483648	; 0x80000000
   17980:	e3811502 	orr	r1, r1, #8388608	; 0x800000
   17984:	e3c114ff 	bic	r1, r1, #-16777216	; 0xff000000
   17988:	12611000 	rsbne	r1, r1, #0	; 0x0
   1798c:	e1320003 	teq	r2, r3
   17990:	0a000038 	beq	17a78 <__addsf3+0x160>
   17994:	e1b03ba3 	movs	r3, r3, lsr #23
   17998:	13320502 	teqne	r2, #8388608	; 0x800000
   1799c:	11a00080 	movne	r0, r0, lsl #1
   179a0:	12422502 	subne	r2, r2, #8388608	; 0x800000
   179a4:	12433001 	subne	r3, r3, #1	; 0x1
   179a8:	e1a0c351 	mov	ip, r1, asr r3
   179ac:	e2633020 	rsb	r3, r3, #32	; 0x20
   179b0:	e1a01311 	mov	r1, r1, lsl r3
   179b4:	e080000c 	add	r0, r0, ip
   179b8:	e2103102 	ands	r3, r0, #-2147483648	; 0x80000000
   179bc:	5a000001 	bpl	179c8 <__addsf3+0xb0>
   179c0:	e2711000 	rsbs	r1, r1, #0	; 0x0
   179c4:	e2e00000 	rsc	r0, r0, #0	; 0x0
   179c8:	e3500502 	cmp	r0, #8388608	; 0x800000
   179cc:	3a000014 	bcc	17a24 <__addsf3+0x10c>
   179d0:	e3500401 	cmp	r0, #16777216	; 0x1000000
   179d4:	3a000007 	bcc	179f8 <__addsf3+0xe0>
   179d8:	e3500402 	cmp	r0, #33554432	; 0x2000000
   179dc:	3a000002 	bcc	179ec <__addsf3+0xd4>
   179e0:	e1b000a0 	movs	r0, r0, lsr #1
   179e4:	e1a01061 	mov	r1, r1, rrx
   179e8:	e2822502 	add	r2, r2, #8388608	; 0x800000
   179ec:	e1b000a0 	movs	r0, r0, lsr #1
   179f0:	e1a01061 	mov	r1, r1, rrx
   179f4:	e2822502 	add	r2, r2, #8388608	; 0x800000
   179f8:	e0800fa1 	add	r0, r0, r1, lsr #31
   179fc:	e3310102 	teq	r1, #-2147483648	; 0x80000000
   17a00:	03c00001 	biceq	r0, r0, #1	; 0x1
   17a04:	e3100401 	tst	r0, #16777216	; 0x1000000
   17a08:	12822502 	addne	r2, r2, #8388608	; 0x800000
   17a0c:	e352047f 	cmp	r2, #2130706432	; 0x7f000000
   17a10:	8a000024 	bhi	17aa8 <__addsf3+0x190>
   17a14:	e3c00506 	bic	r0, r0, #25165824	; 0x1800000
   17a18:	e1800002 	orr	r0, r0, r2
   17a1c:	e1800003 	orr	r0, r0, r3
   17a20:	e12fff1e 	bx	lr
   17a24:	e1b0c620 	movs	ip, r0, lsr #12
   17a28:	01a00600 	moveq	r0, r0, lsl #12
   17a2c:	02422406 	subeq	r2, r2, #100663296	; 0x6000000
   17a30:	e31008ff 	tst	r0, #16711680	; 0xff0000
   17a34:	01a00400 	moveq	r0, r0, lsl #8
   17a38:	02422301 	subeq	r2, r2, #67108864	; 0x4000000
   17a3c:	e310060f 	tst	r0, #15728640	; 0xf00000
   17a40:	01a00200 	moveq	r0, r0, lsl #4
   17a44:	02422402 	subeq	r2, r2, #33554432	; 0x2000000
   17a48:	e3100503 	tst	r0, #12582912	; 0xc00000
   17a4c:	01a00100 	moveq	r0, r0, lsl #2
   17a50:	02422401 	subeq	r2, r2, #16777216	; 0x1000000
   17a54:	e3100502 	tst	r0, #8388608	; 0x800000
   17a58:	01a00080 	moveq	r0, r0, lsl #1
   17a5c:	02422502 	subeq	r2, r2, #8388608	; 0x800000
   17a60:	e3520000 	cmp	r2, #0	; 0x0
   17a64:	caffffea 	bgt	17a14 <__addsf3+0xfc>
   17a68:	e1e02bc2 	mvn	r2, r2, asr #23
   17a6c:	e2822002 	add	r2, r2, #2	; 0x2
   17a70:	e1830230 	orr	r0, r3, r0, lsr r2
   17a74:	e12fff1e 	bx	lr
   17a78:	e3320000 	teq	r2, #0	; 0x0
   17a7c:	02200502 	eoreq	r0, r0, #8388608	; 0x800000
   17a80:	02822502 	addeq	r2, r2, #8388608	; 0x800000
   17a84:	e2211502 	eor	r1, r1, #8388608	; 0x800000
   17a88:	12433502 	subne	r3, r3, #8388608	; 0x800000
   17a8c:	eaffffc0 	b	17994 <__addsf3+0x7c>
   17a90:	e3a0c4ff 	mov	ip, #-16777216	; 0xff000000
   17a94:	e00020ac 	and	r2, r0, ip, lsr #1
   17a98:	e13200ac 	teq	r2, ip, lsr #1
   17a9c:	01a0014c 	moveq	r0, ip, asr #2
   17aa0:	13a00000 	movne	r0, #0	; 0x0
   17aa4:	e12fff1e 	bx	lr
   17aa8:	e383047f 	orr	r0, r3, #2130706432	; 0x7f000000
   17aac:	e3800502 	orr	r0, r0, #8388608	; 0x800000
   17ab0:	e12fff1e 	bx	lr
   17ab4:	e13200ac 	teq	r2, ip, lsr #1
   17ab8:	11a00001 	movne	r0, r1
   17abc:	013300ac 	teqeq	r3, ip, lsr #1
   17ac0:	112fff1e 	bxne	lr
   17ac4:	e1b02480 	movs	r2, r0, lsl #9
   17ac8:	01b02481 	moveqs	r2, r1, lsl #9
   17acc:	01300001 	teqeq	r0, r1
   17ad0:	13830501 	orrne	r0, r3, #4194304	; 0x400000
   17ad4:	e12fff1e 	bx	lr

00017ad8 <__floatunsisf>:
   17ad8:	e3a03000 	mov	r3, #0	; 0x0
   17adc:	ea000001 	b	17ae8 <__floatsisf+0x8>

00017ae0 <__floatsisf>:
   17ae0:	e2103102 	ands	r3, r0, #-2147483648	; 0x80000000
   17ae4:	42600000 	rsbmi	r0, r0, #0	; 0x0
   17ae8:	e3300000 	teq	r0, #0	; 0x0
   17aec:	012fff1e 	bxeq	lr
   17af0:	e3a01000 	mov	r1, #0	; 0x0
   17af4:	e3a0244b 	mov	r2, #1258291200	; 0x4b000000
   17af8:	e310033f 	tst	r0, #-67108864	; 0xfc000000
   17afc:	0affffb1 	beq	179c8 <__addsf3+0xb0>
   17b00:	e310020f 	tst	r0, #-268435456	; 0xf0000000
   17b04:	11a01e00 	movne	r1, r0, lsl #28
   17b08:	11a00220 	movne	r0, r0, lsr #4
   17b0c:	12822402 	addne	r2, r2, #33554432	; 0x2000000
   17b10:	e3100303 	tst	r0, #201326592	; 0xc000000
   17b14:	0affffab 	beq	179c8 <__addsf3+0xb0>
   17b18:	e1a01121 	mov	r1, r1, lsr #2
   17b1c:	e1811f00 	orr	r1, r1, r0, lsl #30
   17b20:	e1a00120 	mov	r0, r0, lsr #2
   17b24:	e2822401 	add	r2, r2, #16777216	; 0x1000000
   17b28:	eaffffa6 	b	179c8 <__addsf3+0xb0>

00017b2c <__mulsf3>:
   17b2c:	e3a0c4ff 	mov	ip, #-16777216	; 0xff000000
   17b30:	e00020ac 	and	r2, r0, ip, lsr #1
   17b34:	e00130ac 	and	r3, r1, ip, lsr #1
   17b38:	e13200ac 	teq	r2, ip, lsr #1
   17b3c:	113300ac 	teqne	r3, ip, lsr #1
   17b40:	0a000048 	beq	17c68 <__mulsf3+0x13c>
   17b44:	e3d0c102 	bics	ip, r0, #-2147483648	; 0x80000000
   17b48:	13d1c102 	bicnes	ip, r1, #-2147483648	; 0x80000000
   17b4c:	0a00001e 	beq	17bcc <__mulsf3+0xa0>
   17b50:	e1b020a2 	movs	r2, r2, lsr #1
   17b54:	13330000 	teqne	r3, #0	; 0x0
   17b58:	0a000033 	beq	17c2c <__mulsf3+0x100>
   17b5c:	e08220c3 	add	r2, r2, r3, asr #1
   17b60:	e1300001 	teq	r0, r1
   17b64:	43822902 	orrmi	r2, r2, #32768	; 0x8000
   17b68:	e3c004ff 	bic	r0, r0, #-16777216	; 0xff000000
   17b6c:	e3c114ff 	bic	r1, r1, #-16777216	; 0xff000000
   17b70:	e3800502 	orr	r0, r0, #8388608	; 0x800000
   17b74:	e3811502 	orr	r1, r1, #8388608	; 0x800000
   17b78:	e08c3190 	umull	r3, ip, r0, r1
   17b7c:	e1a00802 	mov	r0, r2, lsl #16
   17b80:	e3c22902 	bic	r2, r2, #32768	; 0x8000
   17b84:	e31c0902 	tst	ip, #32768	; 0x8000
   17b88:	12822501 	addne	r2, r2, #4194304	; 0x400000
   17b8c:	11b0c0ac 	movnes	ip, ip, lsr #1
   17b90:	11a03063 	movne	r3, r3, rrx
   17b94:	e252257f 	subs	r2, r2, #532676608	; 0x1fc00000
   17b98:	da00000e 	ble	17bd8 <__mulsf3+0xac>
   17b9c:	e1900ba3 	orrs	r0, r0, r3, lsr #23
   17ba0:	e0a0048c 	adc	r0, r0, ip, lsl #9
   17ba4:	e1a03483 	mov	r3, r3, lsl #9
   17ba8:	e3330102 	teq	r3, #-2147483648	; 0x80000000
   17bac:	03c00001 	biceq	r0, r0, #1	; 0x1
   17bb0:	e3100401 	tst	r0, #16777216	; 0x1000000
   17bb4:	12822501 	addne	r2, r2, #4194304	; 0x400000
   17bb8:	e35205ff 	cmp	r2, #1069547520	; 0x3fc00000
   17bbc:	aa000037 	bge	17ca0 <__mulsf3+0x174>
   17bc0:	e3c00506 	bic	r0, r0, #25165824	; 0x1800000
   17bc4:	e1800082 	orr	r0, r0, r2, lsl #1
   17bc8:	e12fff1e 	bx	lr
   17bcc:	e0200001 	eor	r0, r0, r1
   17bd0:	e2000102 	and	r0, r0, #-2147483648	; 0x80000000
   17bd4:	e12fff1e 	bx	lr
   17bd8:	e3720406 	cmn	r2, #100663296	; 0x6000000
   17bdc:	d12fff1e 	bxle	lr
   17be0:	e1e01b42 	mvn	r1, r2, asr #22
   17be4:	e2511007 	subs	r1, r1, #7	; 0x7
   17be8:	ca000007 	bgt	17c0c <__mulsf3+0xe0>
   17bec:	e2811020 	add	r1, r1, #32	; 0x20
   17bf0:	e1900133 	orrs	r0, r0, r3, lsr r1
   17bf4:	e2611020 	rsb	r1, r1, #32	; 0x20
   17bf8:	e0a0011c 	adc	r0, r0, ip, lsl r1
   17bfc:	e1a0c113 	mov	ip, r3, lsl r1
   17c00:	e33c0102 	teq	ip, #-2147483648	; 0x80000000
   17c04:	03c00001 	biceq	r0, r0, #1	; 0x1
   17c08:	e12fff1e 	bx	lr
   17c0c:	e190013c 	orrs	r0, r0, ip, lsr r1
   17c10:	e2a00000 	adc	r0, r0, #0	; 0x0
   17c14:	e2611020 	rsb	r1, r1, #32	; 0x20
   17c18:	e1a0c11c 	mov	ip, ip, lsl r1
   17c1c:	e3330000 	teq	r3, #0	; 0x0
   17c20:	033c0102 	teqeq	ip, #-2147483648	; 0x80000000
   17c24:	03c00001 	biceq	r0, r0, #1	; 0x1
   17c28:	e12fff1e 	bx	lr
   17c2c:	e3320000 	teq	r2, #0	; 0x0
   17c30:	e200c102 	and	ip, r0, #-2147483648	; 0x80000000
   17c34:	01a00080 	moveq	r0, r0, lsl #1
   17c38:	03100502 	tsteq	r0, #8388608	; 0x800000
   17c3c:	02422501 	subeq	r2, r2, #4194304	; 0x400000
   17c40:	0afffffb 	beq	17c34 <__mulsf3+0x108>
   17c44:	e180000c 	orr	r0, r0, ip
   17c48:	e3330000 	teq	r3, #0	; 0x0
   17c4c:	e201c102 	and	ip, r1, #-2147483648	; 0x80000000
   17c50:	01a01081 	moveq	r1, r1, lsl #1
   17c54:	03110502 	tsteq	r1, #8388608	; 0x800000
   17c58:	02433502 	subeq	r3, r3, #8388608	; 0x800000
   17c5c:	0afffffb 	beq	17c50 <__mulsf3+0x124>
   17c60:	e181100c 	orr	r1, r1, ip
   17c64:	eaffffbc 	b	17b5c <__mulsf3+0x30>
   17c68:	e3300000 	teq	r0, #0	; 0x0
   17c6c:	13310000 	teqne	r1, #0	; 0x0
   17c70:	13300102 	teqne	r0, #-2147483648	; 0x80000000
   17c74:	13310102 	teqne	r1, #-2147483648	; 0x80000000
   17c78:	0a00000c 	beq	17cb0 <__mulsf3+0x184>
   17c7c:	e13200ac 	teq	r2, ip, lsr #1
   17c80:	1a000001 	bne	17c8c <__mulsf3+0x160>
   17c84:	e1b02480 	movs	r2, r0, lsl #9
   17c88:	1a000008 	bne	17cb0 <__mulsf3+0x184>
   17c8c:	e13300ac 	teq	r3, ip, lsr #1
   17c90:	1a000001 	bne	17c9c <__mulsf3+0x170>
   17c94:	e1b03481 	movs	r3, r1, lsl #9
   17c98:	1a000004 	bne	17cb0 <__mulsf3+0x184>
   17c9c:	e0200001 	eor	r0, r0, r1
   17ca0:	e2000102 	and	r0, r0, #-2147483648	; 0x80000000
   17ca4:	e380047f 	orr	r0, r0, #2130706432	; 0x7f000000
   17ca8:	e3800502 	orr	r0, r0, #8388608	; 0x800000
   17cac:	e12fff1e 	bx	lr
   17cb0:	e3a0047f 	mov	r0, #2130706432	; 0x7f000000
   17cb4:	e3800503 	orr	r0, r0, #12582912	; 0xc00000
   17cb8:	e12fff1e 	bx	lr

00017cbc <__divsf3>:
   17cbc:	e3a0c4ff 	mov	ip, #-16777216	; 0xff000000
   17cc0:	e00020ac 	and	r2, r0, ip, lsr #1
   17cc4:	e00130ac 	and	r3, r1, ip, lsr #1
   17cc8:	e13200ac 	teq	r2, ip, lsr #1
   17ccc:	113300ac 	teqne	r3, ip, lsr #1
   17cd0:	13d0c102 	bicnes	ip, r0, #-2147483648	; 0x80000000
   17cd4:	13d1c102 	bicnes	ip, r1, #-2147483648	; 0x80000000
   17cd8:	0a00004c 	beq	17e10 <__divsf3+0x154>
   17cdc:	e1b020a2 	movs	r2, r2, lsr #1
   17ce0:	13330000 	teqne	r3, #0	; 0x0
   17ce4:	0a00003a 	beq	17dd4 <__divsf3+0x118>
   17ce8:	e04220c3 	sub	r2, r2, r3, asr #1
   17cec:	e020c001 	eor	ip, r0, r1
   17cf0:	e3a03201 	mov	r3, #268435456	; 0x10000000
   17cf4:	e1b01481 	movs	r1, r1, lsl #9
   17cf8:	e1a00480 	mov	r0, r0, lsl #9
   17cfc:	0a000022 	beq	17d8c <__divsf3+0xd0>
   17d00:	e1831221 	orr	r1, r3, r1, lsr #4
   17d04:	e1833220 	orr	r3, r3, r0, lsr #4
   17d08:	e20c0102 	and	r0, ip, #-2147483648	; 0x80000000
   17d0c:	e1530001 	cmp	r3, r1
   17d10:	32422501 	subcc	r2, r2, #4194304	; 0x400000
   17d14:	31a03083 	movcc	r3, r3, lsl #1
   17d18:	e282257f 	add	r2, r2, #532676608	; 0x1fc00000
   17d1c:	e3720406 	cmn	r2, #100663296	; 0x6000000
   17d20:	d12fff1e 	bxle	lr
   17d24:	e35205ff 	cmp	r2, #1069547520	; 0x3fc00000
   17d28:	aaffffdc 	bge	17ca0 <__mulsf3+0x174>
   17d2c:	e3a0c502 	mov	ip, #8388608	; 0x800000
   17d30:	e1530001 	cmp	r3, r1
   17d34:	20433001 	subcs	r3, r3, r1
   17d38:	2180000c 	orrcs	r0, r0, ip
   17d3c:	e15300a1 	cmp	r3, r1, lsr #1
   17d40:	204330a1 	subcs	r3, r3, r1, lsr #1
   17d44:	218000ac 	orrcs	r0, r0, ip, lsr #1
   17d48:	e1530121 	cmp	r3, r1, lsr #2
   17d4c:	20433121 	subcs	r3, r3, r1, lsr #2
   17d50:	2180012c 	orrcs	r0, r0, ip, lsr #2
   17d54:	e15301a1 	cmp	r3, r1, lsr #3
   17d58:	204331a1 	subcs	r3, r3, r1, lsr #3
   17d5c:	218001ac 	orrcs	r0, r0, ip, lsr #3
   17d60:	e1b03203 	movs	r3, r3, lsl #4
   17d64:	11b0c22c 	movnes	ip, ip, lsr #4
   17d68:	1afffff0 	bne	17d30 <__divsf3+0x74>
   17d6c:	e3520000 	cmp	r2, #0	; 0x0
   17d70:	da000012 	ble	17dc0 <__divsf3+0x104>
   17d74:	e1530001 	cmp	r3, r1
   17d78:	22800001 	addcs	r0, r0, #1	; 0x1
   17d7c:	03c00001 	biceq	r0, r0, #1	; 0x1
   17d80:	e3c00502 	bic	r0, r0, #8388608	; 0x800000
   17d84:	e1800082 	orr	r0, r0, r2, lsl #1
   17d88:	e12fff1e 	bx	lr
   17d8c:	e20cc102 	and	ip, ip, #-2147483648	; 0x80000000
   17d90:	e18c04a0 	orr	r0, ip, r0, lsr #9
   17d94:	e282257f 	add	r2, r2, #532676608	; 0x1fc00000
   17d98:	e35205ff 	cmp	r2, #1069547520	; 0x3fc00000
   17d9c:	aaffffbf 	bge	17ca0 <__mulsf3+0x174>
   17da0:	e3520000 	cmp	r2, #0	; 0x0
   17da4:	c1800082 	orrgt	r0, r0, r2, lsl #1
   17da8:	c12fff1e 	bxgt	lr
   17dac:	e3720406 	cmn	r2, #100663296	; 0x6000000
   17db0:	d1a0000c 	movle	r0, ip
   17db4:	d12fff1e 	bxle	lr
   17db8:	e3800502 	orr	r0, r0, #8388608	; 0x800000
   17dbc:	e3a03000 	mov	r3, #0	; 0x0
   17dc0:	e3c0c102 	bic	ip, r0, #-2147483648	; 0x80000000
   17dc4:	e2000102 	and	r0, r0, #-2147483648	; 0x80000000
   17dc8:	e1e01b42 	mvn	r1, r2, asr #22
   17dcc:	e2811002 	add	r1, r1, #2	; 0x2
   17dd0:	eaffff8d 	b	17c0c <__mulsf3+0xe0>
   17dd4:	e3320000 	teq	r2, #0	; 0x0
   17dd8:	e200c102 	and	ip, r0, #-2147483648	; 0x80000000
   17ddc:	01a00080 	moveq	r0, r0, lsl #1
   17de0:	03100502 	tsteq	r0, #8388608	; 0x800000
   17de4:	02422501 	subeq	r2, r2, #4194304	; 0x400000
   17de8:	0afffffb 	beq	17ddc <__divsf3+0x120>
   17dec:	e180000c 	orr	r0, r0, ip
   17df0:	e3330000 	teq	r3, #0	; 0x0
   17df4:	e201c102 	and	ip, r1, #-2147483648	; 0x80000000
   17df8:	01a01081 	moveq	r1, r1, lsl #1
   17dfc:	03110502 	tsteq	r1, #8388608	; 0x800000
   17e00:	02433502 	subeq	r3, r3, #8388608	; 0x800000
   17e04:	0afffffb 	beq	17df8 <__divsf3+0x13c>
   17e08:	e181100c 	orr	r1, r1, ip
   17e0c:	eaffffb5 	b	17ce8 <__divsf3+0x2c>
   17e10:	e3a0c4ff 	mov	ip, #-16777216	; 0xff000000
   17e14:	e13200ac 	teq	r2, ip, lsr #1
   17e18:	013300ac 	teqeq	r3, ip, lsr #1
   17e1c:	0affffa3 	beq	17cb0 <__mulsf3+0x184>
   17e20:	e13200ac 	teq	r2, ip, lsr #1
   17e24:	1a000002 	bne	17e34 <__divsf3+0x178>
   17e28:	e1b02480 	movs	r2, r0, lsl #9
   17e2c:	1affff9f 	bne	17cb0 <__mulsf3+0x184>
   17e30:	eaffff99 	b	17c9c <__mulsf3+0x170>
   17e34:	e13300ac 	teq	r3, ip, lsr #1
   17e38:	1a000002 	bne	17e48 <__divsf3+0x18c>
   17e3c:	e1b03481 	movs	r3, r1, lsl #9
   17e40:	1affff9a 	bne	17cb0 <__mulsf3+0x184>
   17e44:	eaffff60 	b	17bcc <__mulsf3+0xa0>
   17e48:	e3d02102 	bics	r2, r0, #-2147483648	; 0x80000000
   17e4c:	1affff92 	bne	17c9c <__mulsf3+0x170>
   17e50:	e3d13102 	bics	r3, r1, #-2147483648	; 0x80000000
   17e54:	1affff5c 	bne	17bcc <__mulsf3+0xa0>
   17e58:	eaffff94 	b	17cb0 <__mulsf3+0x184>

00017e5c <__gesf2>:
   17e5c:	e3e03000 	mvn	r3, #0	; 0x0
   17e60:	ea000002 	b	17e70 <__cmpsf2+0x4>

00017e64 <__lesf2>:
   17e64:	e3a03001 	mov	r3, #1	; 0x1
   17e68:	ea000000 	b	17e70 <__cmpsf2+0x4>

00017e6c <__cmpsf2>:
   17e6c:	e3a03001 	mov	r3, #1	; 0x1
   17e70:	e3a0c4ff 	mov	ip, #-16777216	; 0xff000000
   17e74:	e00120ac 	and	r2, r1, ip, lsr #1
   17e78:	e13200ac 	teq	r2, ip, lsr #1
   17e7c:	e00020ac 	and	r2, r0, ip, lsr #1
   17e80:	113200ac 	teqne	r2, ip, lsr #1
   17e84:	0a00000f 	beq	17ec8 <__cmpsf2+0x5c>
   17e88:	e1803001 	orr	r3, r0, r1
   17e8c:	e3d33102 	bics	r3, r3, #-2147483648	; 0x80000000
   17e90:	11300001 	teqne	r0, r1
   17e94:	03a00000 	moveq	r0, #0	; 0x0
   17e98:	012fff1e 	bxeq	lr
   17e9c:	41a00fc0 	movmi	r0, r0, asr #31
   17ea0:	43800001 	orrmi	r0, r0, #1	; 0x1
   17ea4:	412fff1e 	bxmi	lr
   17ea8:	e00130ac 	and	r3, r1, ip, lsr #1
   17eac:	e1520003 	cmp	r2, r3
   17eb0:	01a00480 	moveq	r0, r0, lsl #9
   17eb4:	01500481 	cmpeq	r0, r1, lsl #9
   17eb8:	21a00fc1 	movcs	r0, r1, asr #31
   17ebc:	31e00fc1 	mvncc	r0, r1, asr #31
   17ec0:	e3800001 	orr	r0, r0, #1	; 0x1
   17ec4:	e12fff1e 	bx	lr
   17ec8:	e00120ac 	and	r2, r1, ip, lsr #1
   17ecc:	e13200ac 	teq	r2, ip, lsr #1
   17ed0:	1a000001 	bne	17edc <__cmpsf2+0x70>
   17ed4:	e1b02481 	movs	r2, r1, lsl #9
   17ed8:	1a000004 	bne	17ef0 <__cmpsf2+0x84>
   17edc:	e00020ac 	and	r2, r0, ip, lsr #1
   17ee0:	e13200ac 	teq	r2, ip, lsr #1
   17ee4:	1affffe7 	bne	17e88 <__cmpsf2+0x1c>
   17ee8:	e1b0c480 	movs	ip, r0, lsl #9
   17eec:	0affffe5 	beq	17e88 <__cmpsf2+0x1c>
   17ef0:	e1a00003 	mov	r0, r3
   17ef4:	e12fff1e 	bx	lr

00017ef8 <__fixsfsi>:
   17ef8:	e1b00080 	movs	r0, r0, lsl #1
   17efc:	012fff1e 	bxeq	lr
   17f00:	e1a01061 	mov	r1, r1, rrx
   17f04:	e20024ff 	and	r2, r0, #-16777216	; 0xff000000
   17f08:	e352047f 	cmp	r2, #2130706432	; 0x7f000000
   17f0c:	33a00000 	movcc	r0, #0	; 0x0
   17f10:	312fff1e 	bxcc	lr
   17f14:	e352049e 	cmp	r2, #-1644167168	; 0x9e000000
   17f18:	2a000007 	bcs	17f3c <__fixsfsi+0x44>
   17f1c:	e1a00380 	mov	r0, r0, lsl #7
   17f20:	e3800102 	orr	r0, r0, #-2147483648	; 0x80000000
   17f24:	e1a02c22 	mov	r2, r2, lsr #24
   17f28:	e262209e 	rsb	r2, r2, #158	; 0x9e
   17f2c:	e3110102 	tst	r1, #-2147483648	; 0x80000000
   17f30:	e1a00230 	mov	r0, r0, lsr r2
   17f34:	12600000 	rsbne	r0, r0, #0	; 0x0
   17f38:	e12fff1e 	bx	lr
   17f3c:	e33204ff 	teq	r2, #-16777216	; 0xff000000
   17f40:	1a000001 	bne	17f4c <__fixsfsi+0x54>
   17f44:	e1b00400 	movs	r0, r0, lsl #8
   17f48:	1a000002 	bne	17f58 <__fixsfsi+0x60>
   17f4c:	e2110102 	ands	r0, r1, #-2147483648	; 0x80000000
   17f50:	03e00102 	mvneq	r0, #-2147483648	; 0x80000000
   17f54:	e12fff1e 	bx	lr
   17f58:	e3a00000 	mov	r0, #0	; 0x0
   17f5c:	e12fff1e 	bx	lr

00017f60 <__fixunssfsi>:
   17f60:	e1b00080 	movs	r0, r0, lsl #1
   17f64:	23b00000 	movcss	r0, #0	; 0x0
   17f68:	012fff1e 	bxeq	lr
   17f6c:	e20024ff 	and	r2, r0, #-16777216	; 0xff000000
   17f70:	e352047f 	cmp	r2, #2130706432	; 0x7f000000
   17f74:	33a00000 	movcc	r0, #0	; 0x0
   17f78:	312fff1e 	bxcc	lr
   17f7c:	e352049f 	cmp	r2, #-1627389952	; 0x9f000000
   17f80:	2a000005 	bcs	17f9c <__fixunssfsi+0x3c>
   17f84:	e1a00380 	mov	r0, r0, lsl #7
   17f88:	e3800102 	orr	r0, r0, #-2147483648	; 0x80000000
   17f8c:	e1a02c22 	mov	r2, r2, lsr #24
   17f90:	e262209e 	rsb	r2, r2, #158	; 0x9e
   17f94:	e1a00230 	mov	r0, r0, lsr r2
   17f98:	e12fff1e 	bx	lr
   17f9c:	e33204ff 	teq	r2, #-16777216	; 0xff000000
   17fa0:	1a000001 	bne	17fac <__fixunssfsi+0x4c>
   17fa4:	e1b00400 	movs	r0, r0, lsl #8
   17fa8:	1a000001 	bne	17fb4 <__fixunssfsi+0x54>
   17fac:	e3e00000 	mvn	r0, #0	; 0x0
   17fb0:	e12fff1e 	bx	lr
   17fb4:	e3a00000 	mov	r0, #0	; 0x0
   17fb8:	e12fff1e 	bx	lr

00017fbc <____divsi3_from_arm>:
   17fbc:	e59fc000 	ldr	ip, [pc, #0]	; 17fc4 <____divsi3_from_arm+0x8>
   17fc0:	e12fff1c 	bx	ip
   17fc4:	00016d49 	andeq	r6, r1, r9, asr #26

00017fc8 <__atan2_from_arm>:
   17fc8:	e59fc000 	ldr	ip, [pc, #0]	; 17fd0 <__atan2_from_arm+0x8>
   17fcc:	e12fff1c 	bx	ip
   17fd0:	0001552d 	andeq	r5, r1, sp, lsr #10

00017fd4 <__atan_from_arm>:
   17fd4:	e59fc000 	ldr	ip, [pc, #0]	; 17fdc <__atan_from_arm+0x8>
   17fd8:	e12fff1c 	bx	ip
   17fdc:	00015045 	andeq	r5, r1, r5, asr #32

00017fe0 <__cos_from_arm>:
   17fe0:	e59fc000 	ldr	ip, [pc, #0]	; 17fe8 <__cos_from_arm+0x8>
   17fe4:	e12fff1c 	bx	ip
   17fe8:	0001539d 	muleq	r1, sp, r3

00017fec <__sin_from_arm>:
   17fec:	e59fc000 	ldr	ip, [pc, #0]	; 17ff4 <__sin_from_arm+0x8>
   17ff0:	e12fff1c 	bx	ip
   17ff4:	00015471 	andeq	r5, r1, r1, ror r4

00017ff8 <__sqrt_from_arm>:
   17ff8:	e59fc000 	ldr	ip, [pc, #0]	; 18000 <__sqrt_from_arm+0x8>
   17ffc:	e12fff1c 	bx	ip
   18000:	000155f9 	streqd	r5, [r1], -r9

00018004 <____adddf3_from_thumb>:
   18004:	4778      	bx	pc
   18006:	46c0      	nop			(mov r8, r8)

00018008 <____adddf3_change_to_arm>:
   18008:	eafffb75 	b	16de4 <__adddf3>

0001800c <____muldf3_from_thumb>:
   1800c:	4778      	bx	pc
   1800e:	46c0      	nop			(mov r8, r8)

00018010 <____muldf3_change_to_arm>:
   18010:	eafffc5c 	b	17188 <__muldf3>

00018014 <____subdf3_from_thumb>:
   18014:	4778      	bx	pc
   18016:	46c0      	nop			(mov r8, r8)

00018018 <____subdf3_change_to_arm>:
   18018:	eafffb70 	b	16de0 <__subdf3>

0001801c <____gtdf2_from_thumb>:
   1801c:	4778      	bx	pc
   1801e:	46c0      	nop			(mov r8, r8)

00018020 <____gtdf2_change_to_arm>:
   18020:	eafffd93 	b	17674 <__gedf2>

00018024 <____divdf3_from_thumb>:
   18024:	4778      	bx	pc
   18026:	46c0      	nop			(mov r8, r8)

00018028 <____divdf3_change_to_arm>:
   18028:	eafffcf4 	b	17400 <__divdf3>

0001802c <____eqdf2_from_thumb>:
   1802c:	4778      	bx	pc
   1802e:	46c0      	nop			(mov r8, r8)

00018030 <____eqdf2_change_to_arm>:
   18030:	eafffd93 	b	17684 <__cmpdf2>

00018034 <____ltdf2_from_thumb>:
   18034:	4778      	bx	pc
   18036:	46c0      	nop			(mov r8, r8)

00018038 <____ltdf2_change_to_arm>:
   18038:	eafffd8f 	b	1767c <__ledf2>

0001803c <____fixdfsi_from_thumb>:
   1803c:	4778      	bx	pc
   1803e:	46c0      	nop			(mov r8, r8)

00018040 <____fixdfsi_change_to_arm>:
   18040:	eafffdb8 	b	17728 <__fixdfsi>

00018044 <____floatsidf_from_thumb>:
   18044:	4778      	bx	pc
   18046:	46c0      	nop			(mov r8, r8)

00018048 <____floatsidf_change_to_arm>:
   18048:	eafffc30 	b	17110 <__floatsidf>

0001804c <____gedf2_from_thumb>:
   1804c:	4778      	bx	pc
   1804e:	46c0      	nop			(mov r8, r8)

00018050 <____gedf2_change_to_arm>:
   18050:	eafffd87 	b	17674 <__gedf2>

00018054 <version>:
   18054:	00000001                                         ..

00018056 <commands_failsafe>:
	...

0001805e <modem_sample>:
   1805e:	03ff0200 00010200 00010200 03ff0200     ................
   1806e:	036a0200 036a03ff 00960200 00960001     ..j...j.........
	...

00018080 <q.0>:
   18080:	3a800000 3c000000 3c000000 3d800000     ...:...<...<...=

00018090 <nb_waypoint>:
   18090:	00000005                                ....

00018094 <aT>:
   18094:	3fd55555 5555550d bfc99999 9998ebc4     UU.?.UUU........
   180a4:	3fc24924 920083ff bfbc71c6 fe231671     $I.?.....q..q.#.
   180b4:	3fb745cd c54c206e bfb3b0f2 af749a6d     .E.?n L.....m.t.
   180c4:	3fb10d66 a0d03d51 bfadde2d 52defd9a     f..?Q=..-......R
   180d4:	3fa97b4b 24760deb bfa2b444 2c6a6c2f     K{.?..v$D.../lj,
   180e4:	3f90ad3a e322da11                       :..?..".

000180ec <atanlo>:
   180ec:	3c7a2b7f 222f65e2 3c81a626 33145c07     .+z<.e/"&..<.\.3
   180fc:	3c700788 7af0cbbd 3c91a626 33145c07     ..p<...z&..<.\.3

0001810c <atanhi>:
   1810c:	3fddac67 0561bb4f 3fe921fb 54442d18     g..?O.a..!.?.-DT
   1811c:	3fef730b d281f69b 3ff921fb 54442d18     .s.?.....!.?.-DT

0001812c <two_over_pi>:
   1812c:	00a2f983 006e4e44 001529fc 002757d1     ....DNn..)...W'.
   1813c:	00f534dd 00c0db62 0095993c 00439041     .4..b...<...A.C.
   1814c:	00fe5163 00abdebb 00c561b7 00246e3a     cQ.......a..:n$.
   1815c:	00424dd2 00e00649 002eea09 00d1921c     .MB.I...........
   1816c:	00fe1deb 001cb129 00a73ee8 008235f5     ....)....>...5..
   1817c:	002ebb44 0084e99c 007026b4 005f7e41     D........&p.A~_.
   1818c:	003991d6 00398353 0039f49c 00845f8b     ..9.S.9...9.._..
   1819c:	00bdf928 003b1ff8 0097ffde 0005980f     (.....;.........
   181ac:	00ef2f11 008b5a0a 006d1f6d 00367ecf     ./...Z..m.m..~6.
   181bc:	0027cb09 00b74f46 003f669e 005fea2d     ..'.FO...f?.-._.
   181cc:	007527ba 00c7ebe5 00f17b3d 000739f7     .'u.....={...9..
   181dc:	008a5292 00ea6bfb 005fb11f 008d5d08     .R...k...._..]..
   181ec:	00560330 0046fc7b 006babf0 00cfbc20     0.V.{.F...k. ...
   181fc:	009af436 001da9e3 0091615e 00e61b08     6.......^a......
   1820c:	00659985 005f14a0 0068408d 00ffd880     ..e..._..@h.....
   1821c:	004d7327 00310606 001556ca 0073a8c9     'sM...1..V....s.
   1822c:	0060e27b 00c08c6b                       {.`.k...

00018234 <npio2_hw>:
   18234:	3ff921fb 400921fb 4012d97c 401921fb     .!.?.!.@|..@.!.@
   18244:	401f6a7a 4022d97c 4025fdbb 402921fb     zj.@|."@..%@.!)@
   18254:	402c463a 402f6a7a 4031475c 4032d97c     :F,@zj/@\G1@|.2@
   18264:	40346b9c 4035fdbb 40378fdb 403921fb     .k4@..5@..7@.!9@
   18274:	403ab41b 403c463a 403dd85a 403f6a7a     ..:@:F<@Z.=@zj?@
   18284:	40407e4c 4041475c 4042106c 4042d97c     L~@@\GA@l.B@|.B@
   18294:	4043a28c 40446b9c 404534ac 4045fdbb     ..C@.kD@.4E@..E@
   182a4:	4046c6cb 40478fdb 404858eb 404921fb     ..F@..G@.XH@.!I@

000182b4 <PIo2>:
   182b4:	3ff921fb 40000000 3e74442d 00000000     .!.?...@-Dt>....
   182c4:	3cf84698 80000000 3b78cc51 60000000     .F.<....Q.x;...`
   182d4:	39f01b83 80000000 387a2520 40000000     ...9.... %z8...@
   182e4:	36e38222 80000000 3569f31d 00000000     "..6......i5....

000182f4 <init_jk>:
   182f4:	00000002 00000003 00000004 00000006     ................

00018304 <__fdlib_version>:
   18304:	00000001                                ....

00018308 <_global_impure_ptr>:
   18308:	40000094 6e617461 00000032 74727173     ...@atan2...sqrt
   18318:	00000000 00000043                                ....C.
