   1              		.file	"main_fbw.c"
   2              		.text
   3              		.align	2
   4              		.global	init_fbw
   6              	init_fbw:
   7              		@ Function supports interworking.
   8              		@ args = 0, pretend = 0, frame = 0
   9              		@ frame_needed = 1, uses_anonymous_args = 0
  10 0000 90219FE5 		ldr	r2, .L16
  11 0004 0DC0A0E1 		mov	ip, sp
  12 0008 2430A0E3 		mov	r3, #36
  13 000c 30D82DE9 		stmfd	sp!, {r4, r5, fp, ip, lr, pc}
  14 0010 8430C2E5 		strb	r3, [r2, #132]
  15 0014 233043E2 		sub	r3, r3, #35
  16 0018 8030C2E5 		strb	r3, [r2, #128]
  17 001c 573043E2 		sub	r3, r3, #87
  18 0020 8C30C2E5 		strb	r3, [r2, #140]
  19 0024 AB3083E2 		add	r3, r3, #171
  20 0028 8C30C2E5 		strb	r3, [r2, #140]
  21 002c 04B04CE2 		sub	fp, ip, #4
  22              	.L2:
  23 0030 60519FE5 		ldr	r5, .L16
  24 0034 B838D5E1 		ldrh	r3, [r5, #136]
  25 0038 010B13E3 		tst	r3, #1024
  26 003c 0A00000A 		beq	.L2
  27 0040 0320A0E3 		mov	r2, #3
  28 0044 5530E0E3 		mvn	r3, #85
  29 0048 8020C5E5 		strb	r2, [r5, #128]
  30 004c 8C30C5E5 		strb	r3, [r5, #140]
  31 0050 AB3083E2 		add	r3, r3, #171
  32 0054 8C30C5E5 		strb	r3, [r5, #140]
  33 0058 3C119FE5 		ldr	r1, .L16+4
  34 005c 0040A0E3 		mov	r4, #0
  35 0060 02C0A0E3 		mov	ip, #2
  36 0064 AB3083E2 		add	r3, r3, #171
  37 0068 0420C5E5 		strb	r2, [r5, #4]
  38 006c 01E0A0E3 		mov	lr, #1
  39 0070 00C0C5E5 		strb	ip, [r5, #0]
  40 0074 0420C5E5 		strb	r2, [r5, #4]
  41 0078 00C0C5E5 		strb	ip, [r5, #0]
  42 007c 0340C5E7 		strb	r4, [r5, r3]
  43 0080 0030E0E3 		mvn	r3, #0
  44 0084 40E0C5E5 		strb	lr, [r5, #64]
  45 0088 10019FE5 		ldr	r0, .L16+8
  46 008c 143081E5 		str	r3, [r1, #20]
  47 0090 0C319FE5 		ldr	r3, .L16+12
  48 0094 0C4081E5 		str	r4, [r1, #12]
  49 0098 343081E5 		str	r3, [r1, #52]
  50 009c 04C080E5 		str	ip, [r0, #4]
  51 00a0 0C4080E5 		str	r4, [r0, #12]
  52 00a4 144080E5 		str	r4, [r0, #20]
  53 00a8 284080E5 		str	r4, [r0, #40]
  54 00ac 3C4080E5 		str	r4, [r0, #60]
  55 00b0 04E080E5 		str	lr, [r0, #4]
  56 00b4 0C3091E5 		ldr	r3, [r1, #12]
  57 00b8 1030C3E3 		bic	r3, r3, #16
  58 00bc 0C3081E5 		str	r3, [r1, #12]
  59 00c0 1030A0E3 		mov	r3, #16
  60 00c4 103081E5 		str	r3, [r1, #16]
  61 00c8 143083E2 		add	r3, r3, #20
  62 00cc 043281E5 		str	r3, [r1, #516]
  63 00d0 D0309FE5 		ldr	r3, .L16+16
  64 00d4 D0209FE5 		ldr	r2, .L16+20
  65 00d8 043181E5 		str	r3, [r1, #260]
  66 00dc 183092E5 		ldr	r3, [r2, #24]
  67 00e0 013283E3 		orr	r3, r3, #268435456
  68 00e4 183082E5 		str	r3, [r2, #24]
  69 00e8 0132A0E3 		mov	r3, #268435456
  70 00ec 143082E5 		str	r3, [r2, #20]
  71 00f0 183092E5 		ldr	r3, [r2, #24]
  72 00f4 023783E3 		orr	r3, r3, #524288
  73 00f8 183082E5 		str	r3, [r2, #24]
  74 00fc 0237A0E3 		mov	r3, #524288
  75 0100 143082E5 		str	r3, [r2, #20]
  76 0104 A4309FE5 		ldr	r3, .L16+24
  77 0108 B040C3E1 		strh	r4, [r3, #0]	@ movhi 
  78 010c A0309FE5 		ldr	r3, .L16+28
  79 0110 004083E5 		str	r4, [r3, #0]
  80 0114 FEFFFFEB 		bl	uart0_init_tx
  81 0118 FEFFFFEB 		bl	uart1_init_tx
  82 011c FEFFFFEB 		bl	adc_init
  83 0120 0E00A0E3 		mov	r0, #14
  84 0124 8C109FE5 		ldr	r1, .L16+32
  85 0128 2020A0E3 		mov	r2, #32
  86 012c FEFFFFEB 		bl	adc_buf_channel
  87 0130 FEFFFFEB 		bl	actuators_init
  88              	.L11:
  89 0134 80209FE5 		ldr	r2, .L16+36
  90 0138 8410A0E1 		mov	r1, r4, asl #1
  91 013c 7C309FE5 		ldr	r3, .L16+40
  92 0140 014084E2 		add	r4, r4, #1
  93 0144 B22091E1 		ldrh	r2, [r1, r2]
  94 0148 030054E3 		cmp	r4, #3
  95 014c B32081E1 		strh	r2, [r1, r3]	@ movhi 
  96 0150 4B0000DA 		ble	.L11
  97 0154 68209FE5 		ldr	r2, .L16+44
  98 0158 003092E5 		ldr	r3, [r2, #0]
  99 015c 023A83E3 		orr	r3, r3, #8192
 100 0160 003082E5 		str	r3, [r2, #0]
 101 0164 5C009FE5 		ldr	r0, .L16+48
 102 0168 30309FE5 		ldr	r3, .L16+8
 103 016c 062DA0E3 		mov	r2, #384
 104 0170 282083E5 		str	r2, [r3, #40]
 105 0174 00C090E5 		ldr	ip, [r0, #0]
 106 0178 4C309FE5 		ldr	r3, .L16+52
 107 017c 0010A0E3 		mov	r1, #0
 108 0180 0010C3E5 		strb	r1, [r3, #0]
 109 0184 1110CCE5 		strb	r1, [ip, #17]
 110 0188 003090E5 		ldr	r3, [r0, #0]
 111 018c 1210C3E5 		strb	r1, [r3, #18]
 112 0190 30689DE8 		ldmfd	sp, {r4, r5, fp, sp, lr}
 113 0194 1EFF2FE1 		bx	lr
 114              	.L17:
 115              		.align	2
 116              	.L16:
 117 0198 00C01FE0 		.word	-534790144
 118 019c 00F0FFFF 		.word	-4096
 119 01a0 004000E0 		.word	-536854528
 120 01a4 00000000 		.word	reset
 121 01a8 00000000 		.word	TIMER0_ISR
 122 01ac 008002E0 		.word	-536707072
 123 01b0 00000000 		.word	cpu_time_sec
 124 01b4 00000000 		.word	cpu_time_ticks
 125 01b8 00000000 		.word	vsupply_adc_buf
 126 01bc 00000000 		.word	commands_failsafe
 127 01c0 00000000 		.word	commands
 128 01c4 00C002E0 		.word	-536690688
 129 01c8 00000000 		.word	fbw_state
 130 01cc 00000000 		.word	ppm_valid
 132              		.bss
 133              	avg_cpt.7:
 134 0000 00       		.space	1
 135              		.global	__floatsisf
 136              		.global	__mulsf3
 137              		.global	__fixsfsi
 138              		.text
 139              		.align	2
 140              		.global	event_task_fbw
 142              	event_task_fbw:
 143              		@ Function supports interworking.
 144              		@ args = 0, pretend = 0, frame = 0
 145              		@ frame_needed = 1, uses_anonymous_args = 0
 146 01d0 0DC0A0E1 		mov	ip, sp
 147 01d4 F0DF2DE9 		stmfd	sp!, {r4, r5, r6, r7, r8, r9, sl, fp, ip, lr, pc}
 148 01d8 04B04CE2 		sub	fp, ip, #4
 149 01dc 60C59FE5 		ldr	ip, .L91
 150 01e0 0030DCE5 		ldrb	r3, [ip, #0]	@ zero_extendqisi2
 151 01e4 000053E3 		cmp	r3, #0
 152 01e8 8101000A 		beq	.L19
 153 01ec 54159FE5 		ldr	r1, .L91+4
 154 01f0 54959FE5 		ldr	r9, .L91+8
 155 01f4 0030D1E5 		ldrb	r3, [r1, #0]	@ zero_extendqisi2
 156 01f8 B040D9E1 		ldrh	r4, [r9, #0]
 157 01fc 013083E2 		add	r3, r3, #1
 158 0200 0030C1E5 		strb	r3, [r1, #0]
 159 0204 594C44E2 		sub	r4, r4, #22784
 160 0208 40359FE5 		ldr	r3, .L91+12
 161 020c 0020A0E3 		mov	r2, #0
 162 0210 5B4044E2 		sub	r4, r4, #91
 163 0214 0020C3E5 		strb	r2, [r3, #0]
 164 0218 0448A0E1 		mov	r4, r4, asl #16
 165 021c 30359FE5 		ldr	r3, .L91+16
 166 0220 4448A0E1 		mov	r4, r4, asr #16
 167 0224 0020C3E5 		strb	r2, [r3, #0]
 168 0228 0020CCE5 		strb	r2, [ip, #0]
 169 022c 0400A0E1 		mov	r0, r4
 170 0230 FEFFFFEB 		bl	__floatsisf
 171 0234 000054E3 		cmp	r4, #0
 172 0238 18159FA5 		ldrge	r1, .L91+20
 173 023c 18159FB5 		ldrlt	r1, .L91+24
 174 0240 FEFFFFEB 		bl	__mulsf3
 175 0244 FEFFFFEB 		bl	__fixsfsi
 176 0248 10A59FE5 		ldr	sl, .L91+28
 177 024c B000CAE1 		strh	r0, [sl, #0]	@ movhi 
 178 0250 F030DAE1 		ldrsh	r3, [sl, #0]
 179 0254 960D53E3 		cmp	r3, #9600
 180 0258 961DA0C3 		movgt	r1, #9600	@ movhi
 181 025c B010CAC1 		strgth	r1, [sl, #0]	@ movhi 
 182 0260 9B0000CA 		bgt	.L23
 183 0264 960D73E3 		cmn	r3, #9600
 184 0268 F4249FB5 		ldrlt	r2, .L91+32
 185 026c EC349FB5 		ldrlt	r3, .L91+28
 186 0270 B020C3B1 		strlth	r2, [r3, #0]	@ movhi 
 187              	.L23:
 188 0274 B240D9E1 		ldrh	r4, [r9, #2]
 189 0278 164B44E2 		sub	r4, r4, #22528
 190 027c F24044E2 		sub	r4, r4, #242
 191 0280 0448A0E1 		mov	r4, r4, asl #16
 192 0284 4448A0E1 		mov	r4, r4, asr #16
 193 0288 0400A0E1 		mov	r0, r4
 194 028c FEFFFFEB 		bl	__floatsisf
 195 0290 000054E3 		cmp	r4, #0
 196 0294 CC149FA5 		ldrge	r1, .L91+36
 197 0298 CC149FB5 		ldrlt	r1, .L91+40
 198 029c FEFFFFEB 		bl	__mulsf3
 199 02a0 FEFFFFEB 		bl	__fixsfsi
 200 02a4 B4349FE5 		ldr	r3, .L91+28
 201 02a8 B200C3E1 		strh	r0, [r3, #2]	@ movhi 
 202 02ac F230DAE1 		ldrsh	r3, [sl, #2]
 203 02b0 960D53E3 		cmp	r3, #9600
 204 02b4 962DA0C3 		movgt	r2, #9600	@ movhi
 205 02b8 B220CAC1 		strgth	r2, [sl, #2]	@ movhi 
 206 02bc B20000CA 		bgt	.L28
 207 02c0 960D73E3 		cmn	r3, #9600
 208 02c4 98249FB5 		ldrlt	r2, .L91+32
 209 02c8 90349FB5 		ldrlt	r3, .L91+28
 210 02cc B220C3B1 		strlth	r2, [r3, #2]	@ movhi 
 211              	.L28:
 212 02d0 B400D9E1 		ldrh	r0, [r9, #4]
 213 02d4 710C40E2 		sub	r0, r0, #28928
 214 02d8 AC0040E2 		sub	r0, r0, #172
 215 02dc 0008A0E1 		mov	r0, r0, asl #16
 216 02e0 4008A0E1 		mov	r0, r0, asr #16
 217 02e4 FEFFFFEB 		bl	__floatsisf
 218 02e8 80149FE5 		ldr	r1, .L91+44
 219 02ec FEFFFFEB 		bl	__mulsf3
 220 02f0 FEFFFFEB 		bl	__fixsfsi
 221 02f4 B400CAE1 		strh	r0, [sl, #4]	@ movhi 
 222 02f8 F430DAE1 		ldrsh	r3, [sl, #4]
 223 02fc 960D53E3 		cmp	r3, #9600
 224 0300 963DA0C3 		movgt	r3, #9600	@ movhi
 225 0304 B430CAC1 		strgth	r3, [sl, #4]	@ movhi 
 226 0308 C50000CA 		bgt	.L31
 227 030c 000053E3 		cmp	r3, #0
 228 0310 48349FB5 		ldrlt	r3, .L91+28
 229 0314 0010A0B3 		movlt	r1, #0	@ movhi
 230 0318 B410C3B1 		strlth	r1, [r3, #4]	@ movhi 
 231              	.L31:
 232 031c B640D9E1 		ldrh	r4, [r9, #6]
 233 0320 574C44E2 		sub	r4, r4, #22272
 234 0324 C64044E2 		sub	r4, r4, #198
 235 0328 0448A0E1 		mov	r4, r4, asl #16
 236 032c 4448A0E1 		mov	r4, r4, asr #16
 237 0330 0400A0E1 		mov	r0, r4
 238 0334 FEFFFFEB 		bl	__floatsisf
 239 0338 000054E3 		cmp	r4, #0
 240 033c 30149FA5 		ldrge	r1, .L91+48
 241 0340 30149FB5 		ldrlt	r1, .L91+52
 242 0344 FEFFFFEB 		bl	__mulsf3
 243 0348 FEFFFFEB 		bl	__fixsfsi
 244 034c 0C349FE5 		ldr	r3, .L91+28
 245 0350 B600C3E1 		strh	r0, [r3, #6]	@ movhi 
 246 0354 F630DAE1 		ldrsh	r3, [sl, #6]
 247 0358 960D53E3 		cmp	r3, #9600
 248 035c 962DA0C3 		movgt	r2, #9600	@ movhi
 249 0360 B620CAC1 		strgth	r2, [sl, #6]	@ movhi 
 250 0364 DC0000CA 		bgt	.L36
 251 0368 960D73E3 		cmn	r3, #9600
 252 036c F0239FB5 		ldrlt	r2, .L91+32
 253 0370 E8339FB5 		ldrlt	r3, .L91+28
 254 0374 B620C3B1 		strlth	r2, [r3, #6]	@ movhi 
 255              	.L36:
 256 0378 FC839FE5 		ldr	r8, .L91+56
 257 037c 0030D8E5 		ldrb	r3, [r8, #0]	@ zero_extendqisi2
 258 0380 013083E2 		add	r3, r3, #1
 259 0384 F4739FE5 		ldr	r7, .L91+60
 260 0388 0030C8E5 		strb	r3, [r8, #0]
 261 038c 105097E5 		ldr	r5, [r7, #16]
 262 0390 143097E5 		ldr	r3, [r7, #20]
 263 0394 182097E5 		ldr	r2, [r7, #24]
 264 0398 1C1097E5 		ldr	r1, [r7, #28]
 265 039c BE60D9E1 		ldrh	r6, [r9, #14]
 266 03a0 B800D9E1 		ldrh	r0, [r9, #8]
 267 03a4 BAC0D9E1 		ldrh	ip, [r9, #10]
 268 03a8 BCE0D9E1 		ldrh	lr, [r9, #12]
 269 03ac 0040D8E5 		ldrb	r4, [r8, #0]	@ zero_extendqisi2
 270 03b0 005085E0 		add	r5, r5, r0
 271 03b4 0C3083E0 		add	r3, r3, ip
 272 03b8 0E2082E0 		add	r2, r2, lr
 273 03bc 061081E0 		add	r1, r1, r6
 274 03c0 080054E3 		cmp	r4, #8
 275 03c4 143087E5 		str	r3, [r7, #20]
 276 03c8 182087E5 		str	r2, [r7, #24]
 277 03cc 1C1087E5 		str	r1, [r7, #28]
 278 03d0 105087E5 		str	r5, [r7, #16]
 279 03d4 6801001A 		bne	.L59
 280 03d8 C54FA0E1 		mov	r4, r5, asr #31
 281 03dc A44E85E0 		add	r4, r5, r4, lsr #29
 282 03e0 C441A0E1 		mov	r4, r4, asr #3
 283 03e4 594C44E2 		sub	r4, r4, #22784
 284 03e8 5B4044E2 		sub	r4, r4, #91
 285 03ec 0448A0E1 		mov	r4, r4, asl #16
 286 03f0 4448A0E1 		mov	r4, r4, asr #16
 287 03f4 0030A0E3 		mov	r3, #0
 288 03f8 0400A0E1 		mov	r0, r4
 289 03fc 0030C8E5 		strb	r3, [r8, #0]
 290 0400 FEFFFFEB 		bl	__floatsisf
 291 0404 000054E3 		cmp	r4, #0
 292 0408 74139FA5 		ldrge	r1, .L91+64
 293 040c 74139FB5 		ldrlt	r1, .L91+68
 294 0410 FEFFFFEB 		bl	__mulsf3
 295 0414 FEFFFFEB 		bl	__fixsfsi
 296 0418 40339FE5 		ldr	r3, .L91+28
 297 041c B800C3E1 		strh	r0, [r3, #8]	@ movhi 
 298 0420 F820DAE1 		ldrsh	r2, [sl, #8]
 299 0424 0030A0E3 		mov	r3, #0
 300 0428 960D52E3 		cmp	r2, #9600
 301 042c 103087E5 		str	r3, [r7, #16]
 302 0430 963DA0C3 		movgt	r3, #9600	@ movhi
 303 0434 B830CAC1 		strgth	r3, [sl, #8]	@ movhi 
 304 0438 110100CA 		bgt	.L42
 305 043c 960D72E3 		cmn	r2, #9600
 306 0440 1C239FB5 		ldrlt	r2, .L91+32
 307 0444 14339FB5 		ldrlt	r3, .L91+28
 308 0448 B820C3B1 		strlth	r2, [r3, #8]	@ movhi 
 309              	.L42:
 310 044c 144097E5 		ldr	r4, [r7, #20]
 311 0450 C43FA0E1 		mov	r3, r4, asr #31
 312 0454 A34E84E0 		add	r4, r4, r3, lsr #29
 313 0458 C441A0E1 		mov	r4, r4, asr #3
 314 045c 594C44E2 		sub	r4, r4, #22784
 315 0460 104044E2 		sub	r4, r4, #16
 316 0464 0448A0E1 		mov	r4, r4, asl #16
 317 0468 4448A0E1 		mov	r4, r4, asr #16
 318 046c 0400A0E1 		mov	r0, r4
 319 0470 FEFFFFEB 		bl	__floatsisf
 320 0474 000054E3 		cmp	r4, #0
 321 0478 0C139FA5 		ldrge	r1, .L91+72
 322 047c 0C139FB5 		ldrlt	r1, .L91+76
 323 0480 FEFFFFEB 		bl	__mulsf3
 324 0484 FEFFFFEB 		bl	__fixsfsi
 325 0488 D0329FE5 		ldr	r3, .L91+28
 326 048c BA00C3E1 		strh	r0, [r3, #10]	@ movhi 
 327 0490 FA20DAE1 		ldrsh	r2, [sl, #10]
 328 0494 960D52E3 		cmp	r2, #9600
 329 0498 0030A0E3 		mov	r3, #0
 330 049c 961DA0C3 		movgt	r1, #9600	@ movhi
 331 04a0 143087E5 		str	r3, [r7, #20]
 332 04a4 BA10CAC1 		strgth	r1, [sl, #10]	@ movhi 
 333 04a8 2D0100CA 		bgt	.L47
 334 04ac 960D72E3 		cmn	r2, #9600
 335 04b0 AC229FB5 		ldrlt	r2, .L91+32
 336 04b4 A4329FB5 		ldrlt	r3, .L91+28
 337 04b8 BA20C3B1 		strlth	r2, [r3, #10]	@ movhi 
 338              	.L47:
 339 04bc 184097E5 		ldr	r4, [r7, #24]
 340 04c0 C43FA0E1 		mov	r3, r4, asr #31
 341 04c4 A34E84E0 		add	r4, r4, r3, lsr #29
 342 04c8 C441A0E1 		mov	r4, r4, asr #3
 343 04cc 164B44E2 		sub	r4, r4, #22528
 344 04d0 F24044E2 		sub	r4, r4, #242
 345 04d4 0448A0E1 		mov	r4, r4, asl #16
 346 04d8 4448A0E1 		mov	r4, r4, asr #16
 347 04dc 0400A0E1 		mov	r0, r4
 348 04e0 FEFFFFEB 		bl	__floatsisf
 349 04e4 000054E3 		cmp	r4, #0
 350 04e8 A4129FA5 		ldrge	r1, .L91+80
 351 04ec A4129FB5 		ldrlt	r1, .L91+84
 352 04f0 FEFFFFEB 		bl	__mulsf3
 353 04f4 FEFFFFEB 		bl	__fixsfsi
 354 04f8 60329FE5 		ldr	r3, .L91+28
 355 04fc BC00C3E1 		strh	r0, [r3, #12]	@ movhi 
 356 0500 FC20DAE1 		ldrsh	r2, [sl, #12]
 357 0504 960D52E3 		cmp	r2, #9600
 358 0508 0030A0E3 		mov	r3, #0
 359 050c 962DA0C3 		movgt	r2, #9600	@ movhi
 360 0510 183087E5 		str	r3, [r7, #24]
 361 0514 BC20CAC1 		strgth	r2, [sl, #12]	@ movhi 
 362 0518 490100CA 		bgt	.L52
 363 051c 960D72E3 		cmn	r2, #9600
 364 0520 3C229FB5 		ldrlt	r2, .L91+32
 365 0524 34329FB5 		ldrlt	r3, .L91+28
 366 0528 BC20C3B1 		strlth	r2, [r3, #12]	@ movhi 
 367              	.L52:
 368 052c 1C4097E5 		ldr	r4, [r7, #28]
 369 0530 C43FA0E1 		mov	r3, r4, asr #31
 370 0534 A34E84E0 		add	r4, r4, r3, lsr #29
 371 0538 C441A0E1 		mov	r4, r4, asr #3
 372 053c 594C44E2 		sub	r4, r4, #22784
 373 0540 6A4044E2 		sub	r4, r4, #106
 374 0544 0448A0E1 		mov	r4, r4, asl #16
 375 0548 4448A0E1 		mov	r4, r4, asr #16
 376 054c 0400A0E1 		mov	r0, r4
 377 0550 FEFFFFEB 		bl	__floatsisf
 378 0554 000054E3 		cmp	r4, #0
 379 0558 3C129FA5 		ldrge	r1, .L91+88
 380 055c 3C129FB5 		ldrlt	r1, .L91+92
 381 0560 FEFFFFEB 		bl	__mulsf3
 382 0564 FEFFFFEB 		bl	__fixsfsi
 383 0568 F0319FE5 		ldr	r3, .L91+28
 384 056c BE00C3E1 		strh	r0, [r3, #14]	@ movhi 
 385 0570 FE20DAE1 		ldrsh	r2, [sl, #14]
 386 0574 0030A0E3 		mov	r3, #0
 387 0578 960D52E3 		cmp	r2, #9600
 388 057c 1C3087E5 		str	r3, [r7, #28]
 389 0580 963DA0C3 		movgt	r3, #9600	@ movhi
 390 0584 BE30CAC1 		strgth	r3, [sl, #14]	@ movhi 
 391 0588 650100CA 		bgt	.L57
 392 058c 960D72E3 		cmn	r2, #9600
 393 0590 CC219FB5 		ldrlt	r2, .L91+32
 394 0594 C4319FB5 		ldrlt	r3, .L91+28
 395 0598 BE20C3B1 		strlth	r2, [r3, #14]	@ movhi 
 396              	.L57:
 397 059c 00329FE5 		ldr	r3, .L91+96
 398 05a0 0120A0E3 		mov	r2, #1
 399 05a4 0020C3E5 		strb	r2, [r3, #0]
 400              	.L59:
 401 05a8 F4319FE5 		ldr	r3, .L91+96
 402 05ac 0030D3E5 		ldrb	r3, [r3, #0]	@ zero_extendqisi2
 403 05b0 000053E3 		cmp	r3, #0
 404 05b4 7301000A 		beq	.L60
 405 05b8 A0319FE5 		ldr	r3, .L91+28
 406 05bc FE30D3E1 		ldrsh	r3, [r3, #14]
 407 05c0 E0219FE5 		ldr	r2, .L91+100
 408 05c4 4B0D73E3 		cmn	r3, #4800
 409 05c8 0030A0B3 		movlt	r3, #0
 410 05cc 0130A0A3 		movge	r3, #1
 411 05d0 0030C2E5 		strb	r3, [r2, #0]
 412              	.L60:
 413 05d4 CC319FE5 		ldr	r3, .L91+100
 414 05d8 0030D3E5 		ldrb	r3, [r3, #0]	@ zero_extendqisi2
 415 05dc 000053E3 		cmp	r3, #0
 416 05e0 8101001A 		bne	.L19
 417 05e4 74319FE5 		ldr	r3, .L91+28
 418 05e8 BC219FE5 		ldr	r2, .L91+104
 419 05ec B610D3E1 		ldrh	r1, [r3, #6]
 420 05f0 B610C2E1 		strh	r1, [r2, #6]	@ movhi 
 421 05f4 B410D3E1 		ldrh	r1, [r3, #4]
 422 05f8 B010C2E1 		strh	r1, [r2, #0]	@ movhi 
 423 05fc B010D3E1 		ldrh	r1, [r3, #0]
 424 0600 B230D3E1 		ldrh	r3, [r3, #2]
 425 0604 B210C2E1 		strh	r1, [r2, #2]	@ movhi 
 426 0608 B430C2E1 		strh	r3, [r2, #4]	@ movhi 
 427              	.L19:
 428 060c 9C019FE5 		ldr	r0, .L91+108
 429 0610 0030D0E5 		ldrb	r3, [r0, #0]	@ zero_extendqisi2
 430 0614 000053E3 		cmp	r3, #0
 431 0618 CD01000A 		beq	.L18
 432 061c 84E19FE5 		ldr	lr, .L91+100
 433 0620 0030DEE5 		ldrb	r3, [lr, #0]	@ zero_extendqisi2
 434 0624 010053E3 		cmp	r3, #1
 435 0628 84319FE5 		ldr	r3, .L91+112
 436 062c 0010A0E3 		mov	r1, #0
 437 0630 0120A0E3 		mov	r2, #1
 438 0634 0010C0E5 		strb	r1, [r0, #0]
 439 0638 0020C3E5 		strb	r2, [r3, #0]
 440 063c 74319FE5 		ldr	r3, .L91+116
 441 0640 0010C3E5 		strb	r1, [r3, #0]
 442 0644 70319FE5 		ldr	r3, .L91+120
 443 0648 0020C3E5 		strb	r2, [r3, #0]
 444 064c 9C01001A 		bne	.L64
 445 0650 0100A0E1 		mov	r0, r1
 446              	.L68:
 447 0654 64319FE5 		ldr	r3, .L91+124
 448 0658 001093E5 		ldr	r1, [r3, #0]
 449 065c 8020A0E1 		mov	r2, r0, asl #1
 450 0660 44319FE5 		ldr	r3, .L91+104
 451 0664 010080E2 		add	r0, r0, #1
 452 0668 B11092E1 		ldrh	r1, [r2, r1]
 453 066c 030050E3 		cmp	r0, #3
 454 0670 B31082E1 		strh	r1, [r2, r3]	@ movhi 
 455 0674 930100DA 		ble	.L68
 456              	.L64:
 457 0678 0010A0E3 		mov	r1, #0
 458              	.L72:
 459 067c 013081E2 		add	r3, r1, #1
 460 0680 8120A0E1 		mov	r2, r1, asl #1
 461 0684 38C19FE5 		ldr	ip, .L91+128
 462 0688 FF1003E2 		and	r1, r3, #255
 463 068c CC309FE5 		ldr	r3, .L91+28
 464 0690 00009CE5 		ldr	r0, [ip, #0]
 465 0694 B33092E1 		ldrh	r3, [r2, r3]
 466 0698 070051E3 		cmp	r1, #7
 467 069c B03082E1 		strh	r3, [r2, r0]	@ movhi 
 468 06a0 9D01009A 		bls	.L72
 469 06a4 1C319FE5 		ldr	r3, .L91+132
 470 06a8 0030D3E5 		ldrb	r3, [r3, #0]	@ zero_extendqisi2
 471 06ac 1030C0E5 		strb	r3, [r0, #16]
 472 06b0 98309FE5 		ldr	r3, .L91+12
 473 06b4 0030D3E5 		ldrb	r3, [r3, #0]	@ zero_extendqisi2
 474 06b8 012073E2 		rsbs	r2, r3, #1
 475 06bc 0020A033 		movcc	r2, #0
 476 06c0 020053E3 		cmp	r3, #2
 477 06c4 FF200212 		andne	r2, r2, #255
 478 06c8 B401001A 		bne	.L74
 479 06cc 000052E3 		cmp	r2, #0
 480 06d0 0320A013 		movne	r2, #3
 481 06d4 0220A003 		moveq	r2, #2
 482              	.L74:
 483 06d8 0030DEE5 		ldrb	r3, [lr, #0]	@ zero_extendqisi2
 484 06dc 010053E3 		cmp	r3, #1
 485 06e0 0030DEE5 		ldrb	r3, [lr, #0]	@ zero_extendqisi2
 486 06e4 04208203 		orreq	r2, r2, #4
 487 06e8 FF200212 		andne	r2, r2, #255
 488 06ec 020053E3 		cmp	r3, #2
 489 06f0 00309CE5 		ldr	r3, [ip, #0]
 490 06f4 08208203 		orreq	r2, r2, #8
 491 06f8 FF200212 		andne	r2, r2, #255
 492 06fc 1120C3E5 		strb	r2, [r3, #17]
 493 0700 9C109FE5 		ldr	r1, .L91+96
 494 0704 0030D1E5 		ldrb	r3, [r1, #0]	@ zero_extendqisi2
 495 0708 000053E3 		cmp	r3, #0
 496 070c C801000A 		beq	.L79
 497 0710 00309CE5 		ldr	r3, [ip, #0]
 498 0714 1120D3E5 		ldrb	r2, [r3, #17]	@ zero_extendqisi2
 499 0718 102082E3 		orr	r2, r2, #16
 500 071c 1120C3E5 		strb	r2, [r3, #17]
 501 0720 0030A0E3 		mov	r3, #0
 502 0724 0030C1E5 		strb	r3, [r1, #0]
 503              	.L79:
 504 0728 94309FE5 		ldr	r3, .L91+128
 505 072c 002093E5 		ldr	r2, [r3, #0]
 506 0730 94309FE5 		ldr	r3, .L91+136
 507 0734 0030D3E5 		ldrb	r3, [r3, #0]	@ zero_extendqisi2
 508 0738 1330C2E5 		strb	r3, [r2, #19]
 509              	.L18:
 510 073c F06F9DE8 		ldmfd	sp, {r4, r5, r6, r7, r8, r9, sl, fp, sp, lr}
 511 0740 1EFF2FE1 		bx	lr
 512              	.L92:
 513              		.align	2
 514              	.L91:
 515 0744 00000000 		.word	ppm_valid
 516 0748 00000000 		.word	ppm_cpt
 517 074c 00000000 		.word	ppm_pulses
 518 0750 00000000 		.word	rc_status
 519 0754 00000000 		.word	time_since_last_ppm
 520 0758 E059C7BF 		.word	-1077454368
 521 075c D8DFC5BF 		.word	-1077551144
 522 0760 00000000 		.word	rc_values
 523 0764 80DAFFFF 		.word	-9600
 524 0768 5C83C33F 		.word	1069777756
 525 076c 79CEC93F 		.word	1070190201
 526 0770 289C46BF 		.word	-1085891544
 527 0774 76EDD5BF 		.word	-1076499082
 528 0778 E156B9BF 		.word	-1078372639
 529 077c 00000000 		.word	avg_cpt.7
 530 0780 00000000 		.word	avg_rc_values
 531 0784 165B93BF 		.word	-1080861930
 532 0788 869A93BF 		.word	-1080845690
 533 078c 5FCF923F 		.word	1066585951
 534 0790 A9F6943F 		.word	1066727081
 535 0794 238C923F 		.word	1066568739
 536 0798 DA81953F 		.word	1066762714
 537 079c 9A4D92BF 		.word	-1080930918
 538 07a0 2F2394BF 		.word	-1080810705
 539 07a4 00000000 		.word	rc_values_contains_avg_channels
 540 07a8 00000000 		.word	fbw_mode
 541 07ac 00000000 		.word	commands
 542 07b0 00000000 		.word	inter_mcu_received_ap
 543 07b4 00000000 		.word	inter_mcu_received_fbw
 544 07b8 00000000 		.word	time_since_last_ap
 545 07bc 00000000 		.word	ap_ok
 546 07c0 00000000 		.word	ap_state
 547 07c4 00000000 		.word	fbw_state
 548 07c8 00000000 		.word	last_ppm_cpt
 549 07cc 00000000 		.word	fbw_vsupply_decivolt
 551              		.bss
 552              	_10Hz.0:
 553 0001 00       		.space	1
 554              	_1Hz.1:
 555 0002 00       		.space	1
 556              	i60.2:
 557 0003 00       		.space	1
 558              		.align	1
 559              	i300.3:
 560 0004 0000     		.space	2
 561              	i30.4:
 562 0006 00       		.space	1
 563              	i60.5:
 564 0007 00       		.space	1
 565              		.align	1
 566              	i300.6:
 567 0008 0000     		.space	2
 568              		.global	__divsi3
 569              		.global	__floatsidf
 570              		.global	__muldf3
 571              		.global	__fixunsdfsi
 572              		.global	__fixdfsi
 573              		.global	__extendsfdf2
 574              		.global	__truncdfsf2
 575              		.global	__adddf3
 576              		.global	__subdf3
 577              		.global	__gtsf2
 578              		.text
 579              		.align	2
 580              		.global	periodic_task_fbw
 582              	periodic_task_fbw:
 583              		@ Function supports interworking.
 584              		@ args = 0, pretend = 0, frame = 0
 585              		@ frame_needed = 1, uses_anonymous_args = 0
 586 07d0 0DC0A0E1 		mov	ip, sp
 587 07d4 F0DF2DE9 		stmfd	sp!, {r4, r5, r6, r7, r8, r9, sl, fp, ip, lr, pc}
 588 07d8 18AD9FE5 		ldr	sl, .L203+16
 589 07dc 0030DAE5 		ldrb	r3, [sl, #0]	@ zero_extendqisi2
 590 07e0 013083E2 		add	r3, r3, #1
 591 07e4 0030CAE5 		strb	r3, [sl, #0]
 592 07e8 0030DAE5 		ldrb	r3, [sl, #0]	@ zero_extendqisi2
 593 07ec 04B04CE2 		sub	fp, ip, #4
 594 07f0 050053E3 		cmp	r3, #5
 595 07f4 08CD9FE5 		ldr	ip, .L203+28
 596 07f8 0030A083 		movhi	r3, #0
 597 07fc 0030CA85 		strhib	r3, [sl, #0]
 598 0800 0030DCE5 		ldrb	r3, [ip, #0]	@ zero_extendqisi2
 599 0804 013083E2 		add	r3, r3, #1
 600 0808 0030CCE5 		strb	r3, [ip, #0]
 601 080c 0030DCE5 		ldrb	r3, [ip, #0]	@ zero_extendqisi2
 602 0810 3B0053E3 		cmp	r3, #59
 603 0814 0B02009A 		bls	.L95
 604 0818 E80C9FE5 		ldr	r0, .L203+32
 605 081c E83C9FE5 		ldr	r3, .L203+36
 606 0820 0010D0E5 		ldrb	r1, [r0, #0]	@ zero_extendqisi2
 607 0824 0020A0E3 		mov	r2, #0
 608 0828 0010C3E5 		strb	r1, [r3, #0]
 609 082c 0020C0E5 		strb	r2, [r0, #0]
 610 0830 0020CCE5 		strb	r2, [ip, #0]
 611              	.L95:
 612 0834 D40C9FE5 		ldr	r0, .L203+40
 613 0838 0010D0E5 		ldrb	r1, [r0, #0]	@ zero_extendqisi2
 614 083c FF3001E2 		and	r3, r1, #255
 615 0840 3B0053E3 		cmp	r3, #59
 616 0844 C83C9F85 		ldrhi	r3, .L203+44
 617 0848 0220A083 		movhi	r2, #2
 618 084c 0020C385 		strhib	r2, [r3, #0]
 619 0850 1902008A 		bhi	.L99
 620 0854 1D0053E3 		cmp	r3, #29
 621 0858 B43C9F85 		ldrhi	r3, .L203+44
 622 085c 0120A083 		movhi	r2, #1
 623 0860 0020C385 		strhib	r2, [r3, #0]
 624 0864 013081E2 		add	r3, r1, #1
 625 0868 0030C0E5 		strb	r3, [r0, #0]
 626              	.L99:
 627 086c A47C9FE5 		ldr	r7, .L203+48
 628 0870 0030D7E5 		ldrb	r3, [r7, #0]	@ zero_extendqisi2
 629 0874 000053E3 		cmp	r3, #0
 630 0878 2202001A 		bne	.L100
 631 087c 903C9FE5 		ldr	r3, .L203+44
 632 0880 0030D3E5 		ldrb	r3, [r3, #0]	@ zero_extendqisi2
 633 0884 020053E3 		cmp	r3, #2
 634 0888 01304302 		subeq	r3, r3, #1
 635 088c 0030C705 		streqb	r3, [r7, #0]
 636              	.L100:
 637 0890 842C9FE5 		ldr	r2, .L203+52
 638 0894 0030D2E5 		ldrb	r3, [r2, #0]	@ zero_extendqisi2
 639 0898 1D0053E3 		cmp	r3, #29
 640 089c 7C3C9F85 		ldrhi	r3, .L203+56
 641 08a0 01308392 		addls	r3, r3, #1
 642 08a4 0020A083 		movhi	r2, #0
 643 08a8 0020C385 		strhib	r2, [r3, #0]
 644 08ac 0030C295 		strlsb	r3, [r2, #0]
 645 08b0 0030D7E5 		ldrb	r3, [r7, #0]	@ zero_extendqisi2
 646 08b4 010053E3 		cmp	r3, #1
 647 08b8 3C02001A 		bne	.L104
 648 08bc 5C3C9FE5 		ldr	r3, .L203+56
 649 08c0 0010D3E5 		ldrb	r1, [r3, #0]	@ zero_extendqisi2
 650 08c4 000051E3 		cmp	r1, #0
 651 08c8 3C02001A 		bne	.L104
 652 08cc 0230A0E3 		mov	r3, #2
 653 08d0 0030C7E5 		strb	r3, [r7, #0]
 654 08d4 0100A0E1 		mov	r0, r1
 655              	.L108:
 656 08d8 442C9FE5 		ldr	r2, .L203+60
 657 08dc 8010A0E1 		mov	r1, r0, asl #1
 658 08e0 403C9FE5 		ldr	r3, .L203+64
 659 08e4 010080E2 		add	r0, r0, #1
 660 08e8 B22091E1 		ldrh	r2, [r1, r2]
 661 08ec 030050E3 		cmp	r0, #3
 662 08f0 B32081E1 		strh	r2, [r1, r3]	@ movhi 
 663 08f4 340200DA 		ble	.L108
 664              	.L104:
 665 08f8 2C9C9FE5 		ldr	r9, .L203+68
 666 08fc 0060D9E5 		ldrb	r6, [r9, #0]	@ zero_extendqisi2
 667 0900 000056E3 		cmp	r6, #0
 668 0904 1B03001A 		bne	.L110
 669 0908 202C9FE5 		ldr	r2, .L203+72
 670 090c 0030D2E5 		ldrb	r3, [r2, #0]	@ zero_extendqisi2
 671 0910 013083E2 		add	r3, r3, #1
 672 0914 0030C2E5 		strb	r3, [r2, #0]
 673 0918 148C9FE5 		ldr	r8, .L203+76
 674 091c 0030D2E5 		ldrb	r3, [r2, #0]	@ zero_extendqisi2
 675 0920 3B0053E3 		cmp	r3, #59
 676 0924 B030D8E1 		ldrh	r3, [r8, #0]
 677 0928 013083E2 		add	r3, r3, #1
 678 092c B030C8E1 		strh	r3, [r8, #0]	@ movhi 
 679 0930 0060C285 		strhib	r6, [r2, #0]
 680 0934 B030D8E1 		ldrh	r3, [r8, #0]
 681 0938 4B0F53E3 		cmp	r3, #300
 682 093c 0030D2E5 		ldrb	r3, [r2, #0]	@ zero_extendqisi2
 683 0940 B060C821 		strcsh	r6, [r8, #0]	@ movhi 
 684 0944 000053E3 		cmp	r3, #0
 685 0948 9002001A 		bne	.L113
 686 094c 0E00A0E3 		mov	r0, #14
 687 0950 FEFFFFEB 		bl	uart0_check_free_space
 688 0954 FF0010E3 		tst	r0, #255
 689 0958 D002000A 		beq	.L122
 690 095c 7E00A0E3 		mov	r0, #126
 691 0960 D05B9FE5 		ldr	r5, .L203+80
 692 0964 FEFFFFEB 		bl	uart0_transmit
 693 0968 0600A0E1 		mov	r0, r6
 694 096c 0140A0E3 		mov	r4, #1
 695 0970 FEFFFFEB 		bl	uart0_transmit
 696 0974 1000A0E3 		mov	r0, #16
 697 0978 FEFFFFEB 		bl	uart0_transmit
 698 097c 0400A0E1 		mov	r0, r4
 699 0980 0040C5E5 		strb	r4, [r5, #0]
 700 0984 FEFFFFEB 		bl	uart0_transmit
 701 0988 0600A0E1 		mov	r0, r6
 702 098c FEFFFFEB 		bl	uart0_transmit
 703 0990 0030D5E5 		ldrb	r3, [r5, #0]	@ zero_extendqisi2
 704 0994 043083E0 		add	r3, r3, r4
 705 0998 0030C5E5 		strb	r3, [r5, #0]
 706 099c 0400A0E1 		mov	r0, r4
 707 09a0 FEFFFFEB 		bl	uart0_transmit
 708 09a4 0600A0E1 		mov	r0, r6
 709 09a8 FEFFFFEB 		bl	uart0_transmit
 710 09ac 0600A0E1 		mov	r0, r6
 711 09b0 FEFFFFEB 		bl	uart0_transmit
 712 09b4 0030D5E5 		ldrb	r3, [r5, #0]	@ zero_extendqisi2
 713 09b8 423083E2 		add	r3, r3, #66
 714 09bc 4200A0E3 		mov	r0, #66
 715 09c0 0030C5E5 		strb	r3, [r5, #0]
 716 09c4 FEFFFFEB 		bl	uart0_transmit
 717 09c8 0030D5E5 		ldrb	r3, [r5, #0]	@ zero_extendqisi2
 718 09cc 663083E2 		add	r3, r3, #102
 719 09d0 6600A0E3 		mov	r0, #102
 720 09d4 0030C5E5 		strb	r3, [r5, #0]
 721 09d8 FEFFFFEB 		bl	uart0_transmit
 722 09dc 0030D5E5 		ldrb	r3, [r5, #0]	@ zero_extendqisi2
 723 09e0 043083E2 		add	r3, r3, #4
 724 09e4 0400A0E3 		mov	r0, #4
 725 09e8 0030C5E5 		strb	r3, [r5, #0]
 726 09ec FEFFFFEB 		bl	uart0_transmit
 727              	.L118:
 728 09f0 304B9FE5 		ldr	r4, .L203+64
 729 09f4 0030D5E5 		ldrb	r3, [r5, #0]	@ zero_extendqisi2
 730 09f8 8600D4E7 		ldrb	r0, [r4, r6, asl #1]	@ zero_extendqisi2
 731 09fc 033080E0 		add	r3, r0, r3
 732 0a00 0030C5E5 		strb	r3, [r5, #0]
 733 0a04 014084E2 		add	r4, r4, #1
 734 0a08 FEFFFFEB 		bl	uart0_transmit
 735 0a0c 8630D4E7 		ldrb	r3, [r4, r6, asl #1]	@ zero_extendqisi2
 736 0a10 0020D5E5 		ldrb	r2, [r5, #0]	@ zero_extendqisi2
 737 0a14 0300A0E1 		mov	r0, r3
 738 0a18 023083E0 		add	r3, r3, r2
 739 0a1c 0030C5E5 		strb	r3, [r5, #0]
 740 0a20 FEFFFFEB 		bl	uart0_transmit
 741 0a24 013086E2 		add	r3, r6, #1
 742 0a28 FF6003E2 		and	r6, r3, #255
 743 0a2c 030056E3 		cmp	r6, #3
 744 0a30 7A02009A 		bls	.L118
 745 0a34 0030D5E5 		ldrb	r3, [r5, #0]	@ zero_extendqisi2
 746 0a38 0330E0E1 		mvn	r3, r3
 747 0a3c 0030C5E5 		strb	r3, [r5, #0]
 748 0a40 0000D5E5 		ldrb	r0, [r5, #0]	@ zero_extendqisi2
 749 0a44 CE0200EA 		b	.L199
 750              	.L113:
 751 0a48 060053E3 		cmp	r3, #6
 752 0a4c D402001A 		bne	.L120
 753 0a50 0800A0E3 		mov	r0, #8
 754 0a54 FEFFFFEB 		bl	uart0_check_free_space
 755 0a58 FF0010E3 		tst	r0, #255
 756 0a5c D002000A 		beq	.L122
 757 0a60 7E00A0E3 		mov	r0, #126
 758 0a64 CC4A9FE5 		ldr	r4, .L203+80
 759 0a68 FEFFFFEB 		bl	uart0_transmit
 760 0a6c 0600A0E1 		mov	r0, r6
 761 0a70 FEFFFFEB 		bl	uart0_transmit
 762 0a74 0150A0E3 		mov	r5, #1
 763 0a78 0A00A0E3 		mov	r0, #10
 764 0a7c FEFFFFEB 		bl	uart0_transmit
 765 0a80 0500A0E1 		mov	r0, r5
 766 0a84 0050C4E5 		strb	r5, [r4, #0]
 767 0a88 FEFFFFEB 		bl	uart0_transmit
 768 0a8c 0600A0E1 		mov	r0, r6
 769 0a90 FEFFFFEB 		bl	uart0_transmit
 770 0a94 0030D4E5 		ldrb	r3, [r4, #0]	@ zero_extendqisi2
 771 0a98 053083E0 		add	r3, r3, r5
 772 0a9c 0030C4E5 		strb	r3, [r4, #0]
 773 0aa0 0500A0E1 		mov	r0, r5
 774 0aa4 FEFFFFEB 		bl	uart0_transmit
 775 0aa8 0600A0E1 		mov	r0, r6
 776 0aac FEFFFFEB 		bl	uart0_transmit
 777 0ab0 0600A0E1 		mov	r0, r6
 778 0ab4 FEFFFFEB 		bl	uart0_transmit
 779 0ab8 0030D4E5 		ldrb	r3, [r4, #0]	@ zero_extendqisi2
 780 0abc 423083E2 		add	r3, r3, #66
 781 0ac0 4200A0E3 		mov	r0, #66
 782 0ac4 0030C4E5 		strb	r3, [r4, #0]
 783 0ac8 FEFFFFEB 		bl	uart0_transmit
 784 0acc 0030D4E5 		ldrb	r3, [r4, #0]	@ zero_extendqisi2
 785 0ad0 673083E2 		add	r3, r3, #103
 786 0ad4 6700A0E3 		mov	r0, #103
 787 0ad8 0030C4E5 		strb	r3, [r4, #0]
 788 0adc FEFFFFEB 		bl	uart0_transmit
 789 0ae0 2C3A9FE5 		ldr	r3, .L203+44
 790 0ae4 0020D4E5 		ldrb	r2, [r4, #0]	@ zero_extendqisi2
 791 0ae8 0030D3E5 		ldrb	r3, [r3, #0]	@ zero_extendqisi2
 792 0aec 0300A0E1 		mov	r0, r3
 793 0af0 023083E0 		add	r3, r3, r2
 794 0af4 0030C4E5 		strb	r3, [r4, #0]
 795 0af8 FEFFFFEB 		bl	uart0_transmit
 796 0afc 0030D7E5 		ldrb	r3, [r7, #0]	@ zero_extendqisi2
 797 0b00 0020D4E5 		ldrb	r2, [r4, #0]	@ zero_extendqisi2
 798 0b04 0300A0E1 		mov	r0, r3
 799 0b08 023083E0 		add	r3, r3, r2
 800 0b0c 0030C4E5 		strb	r3, [r4, #0]
 801 0b10 FEFFFFEB 		bl	uart0_transmit
 802 0b14 203A9FE5 		ldr	r3, .L203+84
 803 0b18 0020D4E5 		ldrb	r2, [r4, #0]	@ zero_extendqisi2
 804 0b1c 0030D3E5 		ldrb	r3, [r3, #0]	@ zero_extendqisi2
 805 0b20 0300A0E1 		mov	r0, r3
 806 0b24 023083E0 		add	r3, r3, r2
 807 0b28 0030C4E5 		strb	r3, [r4, #0]
 808 0b2c FEFFFFEB 		bl	uart0_transmit
 809 0b30 0030D4E5 		ldrb	r3, [r4, #0]	@ zero_extendqisi2
 810 0b34 0330E0E1 		mvn	r3, r3
 811 0b38 0030C4E5 		strb	r3, [r4, #0]
 812 0b3c 0000D4E5 		ldrb	r0, [r4, #0]	@ zero_extendqisi2
 813              	.L199:
 814 0b40 FEFFFFEB 		bl	uart0_transmit
 815 0b44 D40200EA 		b	.L120
 816              	.L122:
 817 0b48 F0299FE5 		ldr	r2, .L203+88
 818 0b4c 0030D2E5 		ldrb	r3, [r2, #0]	@ zero_extendqisi2
 819 0b50 013083E2 		add	r3, r3, #1
 820 0b54 0030C2E5 		strb	r3, [r2, #0]
 821              	.L120:
 822 0b58 B030D8E1 		ldrh	r3, [r8, #0]
 823 0b5c 0C0053E3 		cmp	r3, #12
 824 0b60 1B03001A 		bne	.L110
 825 0b64 1200A0E3 		mov	r0, #18
 826 0b68 FEFFFFEB 		bl	uart0_check_free_space
 827 0b6c FF0010E3 		tst	r0, #255
 828 0b70 C8299F05 		ldreq	r2, .L203+88
 829 0b74 0030D205 		ldreqb	r3, [r2, #0]	@ zero_extendqisi2
 830 0b78 01308302 		addeq	r3, r3, #1
 831 0b7c 0030C205 		streqb	r3, [r2, #0]
 832 0b80 1B03000A 		beq	.L110
 833 0b84 0050A0E3 		mov	r5, #0
 834 0b88 7E00A0E3 		mov	r0, #126
 835 0b8c A4699FE5 		ldr	r6, .L203+80
 836 0b90 FEFFFFEB 		bl	uart0_transmit
 837 0b94 0500A0E1 		mov	r0, r5
 838 0b98 0140A0E3 		mov	r4, #1
 839 0b9c FEFFFFEB 		bl	uart0_transmit
 840 0ba0 1400A0E3 		mov	r0, #20
 841 0ba4 FEFFFFEB 		bl	uart0_transmit
 842 0ba8 0400A0E1 		mov	r0, r4
 843 0bac 0040C6E5 		strb	r4, [r6, #0]
 844 0bb0 FEFFFFEB 		bl	uart0_transmit
 845 0bb4 0500A0E1 		mov	r0, r5
 846 0bb8 FEFFFFEB 		bl	uart0_transmit
 847 0bbc 0030D6E5 		ldrb	r3, [r6, #0]	@ zero_extendqisi2
 848 0bc0 043083E0 		add	r3, r3, r4
 849 0bc4 0030C6E5 		strb	r3, [r6, #0]
 850 0bc8 0400A0E1 		mov	r0, r4
 851 0bcc FEFFFFEB 		bl	uart0_transmit
 852 0bd0 0500A0E1 		mov	r0, r5
 853 0bd4 FEFFFFEB 		bl	uart0_transmit
 854 0bd8 0500A0E1 		mov	r0, r5
 855 0bdc FEFFFFEB 		bl	uart0_transmit
 856 0be0 0030D6E5 		ldrb	r3, [r6, #0]	@ zero_extendqisi2
 857 0be4 423083E2 		add	r3, r3, #66
 858 0be8 4200A0E3 		mov	r0, #66
 859 0bec 0030C6E5 		strb	r3, [r6, #0]
 860 0bf0 FEFFFFEB 		bl	uart0_transmit
 861 0bf4 0030D6E5 		ldrb	r3, [r6, #0]	@ zero_extendqisi2
 862 0bf8 693083E2 		add	r3, r3, #105
 863 0bfc 6900A0E3 		mov	r0, #105
 864 0c00 0030C6E5 		strb	r3, [r6, #0]
 865 0c04 FEFFFFEB 		bl	uart0_transmit
 866 0c08 0030D6E5 		ldrb	r3, [r6, #0]	@ zero_extendqisi2
 867 0c0c 063083E2 		add	r3, r3, #6
 868 0c10 0600A0E3 		mov	r0, #6
 869 0c14 0030C6E5 		strb	r3, [r6, #0]
 870 0c18 FEFFFFEB 		bl	uart0_transmit
 871              	.L129:
 872 0c1c 44499FE5 		ldr	r4, .L203+128
 873 0c20 0030D6E5 		ldrb	r3, [r6, #0]	@ zero_extendqisi2
 874 0c24 8500D4E7 		ldrb	r0, [r4, r5, asl #1]	@ zero_extendqisi2
 875 0c28 033080E0 		add	r3, r0, r3
 876 0c2c 0030C6E5 		strb	r3, [r6, #0]
 877 0c30 014084E2 		add	r4, r4, #1
 878 0c34 FEFFFFEB 		bl	uart0_transmit
 879 0c38 8530D4E7 		ldrb	r3, [r4, r5, asl #1]	@ zero_extendqisi2
 880 0c3c 0020D6E5 		ldrb	r2, [r6, #0]	@ zero_extendqisi2
 881 0c40 0300A0E1 		mov	r0, r3
 882 0c44 023083E0 		add	r3, r3, r2
 883 0c48 0030C6E5 		strb	r3, [r6, #0]
 884 0c4c FEFFFFEB 		bl	uart0_transmit
 885 0c50 013085E2 		add	r3, r5, #1
 886 0c54 FF5003E2 		and	r5, r3, #255
 887 0c58 050055E3 		cmp	r5, #5
 888 0c5c 0503009A 		bls	.L129
 889 0c60 0030D6E5 		ldrb	r3, [r6, #0]	@ zero_extendqisi2
 890 0c64 0330E0E1 		mvn	r3, r3
 891 0c68 0030C6E5 		strb	r3, [r6, #0]
 892 0c6c 0000D6E5 		ldrb	r0, [r6, #0]	@ zero_extendqisi2
 893 0c70 FEFFFFEB 		bl	uart0_transmit
 894              	.L110:
 895 0c74 0060D9E5 		ldrb	r6, [r9, #0]	@ zero_extendqisi2
 896 0c78 010056E3 		cmp	r6, #1
 897 0c7c 8604001A 		bne	.L168
 898 0c80 BC089FE5 		ldr	r0, .L203+92
 899 0c84 0030D0E5 		ldrb	r3, [r0, #0]	@ zero_extendqisi2
 900 0c88 013083E2 		add	r3, r3, #1
 901 0c8c 0030C0E5 		strb	r3, [r0, #0]
 902 0c90 0030D0E5 		ldrb	r3, [r0, #0]	@ zero_extendqisi2
 903 0c94 AC789FE5 		ldr	r7, .L203+96
 904 0c98 1D0053E3 		cmp	r3, #29
 905 0c9c 0030A083 		movhi	r3, #0
 906 0ca0 0030C085 		strhib	r3, [r0, #0]
 907 0ca4 0030D7E5 		ldrb	r3, [r7, #0]	@ zero_extendqisi2
 908 0ca8 013083E2 		add	r3, r3, #1
 909 0cac 0030C7E5 		strb	r3, [r7, #0]
 910 0cb0 0030D7E5 		ldrb	r3, [r7, #0]	@ zero_extendqisi2
 911 0cb4 90889FE5 		ldr	r8, .L203+100
 912 0cb8 3B0053E3 		cmp	r3, #59
 913 0cbc 0030A083 		movhi	r3, #0
 914 0cc0 0030C785 		strhib	r3, [r7, #0]
 915 0cc4 B030D8E1 		ldrh	r3, [r8, #0]
 916 0cc8 013083E2 		add	r3, r3, #1
 917 0ccc B030C8E1 		strh	r3, [r8, #0]	@ movhi 
 918 0cd0 B030D8E1 		ldrh	r3, [r8, #0]
 919 0cd4 0040D0E5 		ldrb	r4, [r0, #0]	@ zero_extendqisi2
 920 0cd8 4B0F53E3 		cmp	r3, #300
 921 0cdc 0030A023 		movcs	r3, #0	@ movhi
 922 0ce0 B030C821 		strcsh	r3, [r8, #0]	@ movhi 
 923 0ce4 000054E3 		cmp	r4, #0
 924 0ce8 7403001A 		bne	.L135
 925 0cec 1600A0E3 		mov	r0, #22
 926 0cf0 FEFFFFEB 		bl	uart0_check_free_space
 927 0cf4 FF0010E3 		tst	r0, #255
 928 0cf8 F503000A 		beq	.L152
 929 0cfc 7E00A0E3 		mov	r0, #126
 930 0d00 30589FE5 		ldr	r5, .L203+80
 931 0d04 FEFFFFEB 		bl	uart0_transmit
 932 0d08 0400A0E1 		mov	r0, r4
 933 0d0c FEFFFFEB 		bl	uart0_transmit
 934 0d10 1800A0E3 		mov	r0, #24
 935 0d14 FEFFFFEB 		bl	uart0_transmit
 936 0d18 0600A0E1 		mov	r0, r6
 937 0d1c 0060C5E5 		strb	r6, [r5, #0]
 938 0d20 FEFFFFEB 		bl	uart0_transmit
 939 0d24 0400A0E1 		mov	r0, r4
 940 0d28 FEFFFFEB 		bl	uart0_transmit
 941 0d2c 0030D5E5 		ldrb	r3, [r5, #0]	@ zero_extendqisi2
 942 0d30 013083E2 		add	r3, r3, #1
 943 0d34 0030C5E5 		strb	r3, [r5, #0]
 944 0d38 0600A0E1 		mov	r0, r6
 945 0d3c FEFFFFEB 		bl	uart0_transmit
 946 0d40 0400A0E1 		mov	r0, r4
 947 0d44 FEFFFFEB 		bl	uart0_transmit
 948 0d48 0400A0E1 		mov	r0, r4
 949 0d4c FEFFFFEB 		bl	uart0_transmit
 950 0d50 0030D5E5 		ldrb	r3, [r5, #0]	@ zero_extendqisi2
 951 0d54 423083E2 		add	r3, r3, #66
 952 0d58 4200A0E3 		mov	r0, #66
 953 0d5c 0030C5E5 		strb	r3, [r5, #0]
 954 0d60 FEFFFFEB 		bl	uart0_transmit
 955 0d64 0030D5E5 		ldrb	r3, [r5, #0]	@ zero_extendqisi2
 956 0d68 643083E2 		add	r3, r3, #100
 957 0d6c 6400A0E3 		mov	r0, #100
 958 0d70 0030C5E5 		strb	r3, [r5, #0]
 959 0d74 FEFFFFEB 		bl	uart0_transmit
 960 0d78 0030D5E5 		ldrb	r3, [r5, #0]	@ zero_extendqisi2
 961 0d7c 083083E2 		add	r3, r3, #8
 962 0d80 0800A0E3 		mov	r0, #8
 963 0d84 0030C5E5 		strb	r3, [r5, #0]
 964 0d88 FEFFFFEB 		bl	uart0_transmit
 965 0d8c 0460A0E1 		mov	r6, r4
 966              	.L140:
 967 0d90 B8479FE5 		ldr	r4, .L203+104
 968 0d94 0030D5E5 		ldrb	r3, [r5, #0]	@ zero_extendqisi2
 969 0d98 8600D4E7 		ldrb	r0, [r4, r6, asl #1]	@ zero_extendqisi2
 970 0d9c 033080E0 		add	r3, r0, r3
 971 0da0 0030C5E5 		strb	r3, [r5, #0]
 972 0da4 014084E2 		add	r4, r4, #1
 973 0da8 FEFFFFEB 		bl	uart0_transmit
 974 0dac 8630D4E7 		ldrb	r3, [r4, r6, asl #1]	@ zero_extendqisi2
 975 0db0 0020D5E5 		ldrb	r2, [r5, #0]	@ zero_extendqisi2
 976 0db4 0300A0E1 		mov	r0, r3
 977 0db8 023083E0 		add	r3, r3, r2
 978 0dbc 0030C5E5 		strb	r3, [r5, #0]
 979 0dc0 FEFFFFEB 		bl	uart0_transmit
 980 0dc4 013086E2 		add	r3, r6, #1
 981 0dc8 FF6003E2 		and	r6, r3, #255
 982 0dcc 070056E3 		cmp	r6, #7
 983 0dd0 6203009A 		bls	.L140
 984 0dd4 EF0300EA 		b	.L200
 985              	.L135:
 986 0dd8 060054E3 		cmp	r4, #6
 987 0ddc B203001A 		bne	.L143
 988 0de0 1600A0E3 		mov	r0, #22
 989 0de4 FEFFFFEB 		bl	uart0_check_free_space
 990 0de8 FF0010E3 		tst	r0, #255
 991 0dec F503000A 		beq	.L152
 992 0df0 064044E2 		sub	r4, r4, #6
 993 0df4 7E00A0E3 		mov	r0, #126
 994 0df8 38579FE5 		ldr	r5, .L203+80
 995 0dfc FEFFFFEB 		bl	uart0_transmit
 996 0e00 0400A0E1 		mov	r0, r4
 997 0e04 FEFFFFEB 		bl	uart0_transmit
 998 0e08 1800A0E3 		mov	r0, #24
 999 0e0c FEFFFFEB 		bl	uart0_transmit
 1000 0e10 0600A0E1 		mov	r0, r6
 1001 0e14 0060C5E5 		strb	r6, [r5, #0]
 1002 0e18 FEFFFFEB 		bl	uart0_transmit
 1003 0e1c 0400A0E1 		mov	r0, r4
 1004 0e20 FEFFFFEB 		bl	uart0_transmit
 1005 0e24 0030D5E5 		ldrb	r3, [r5, #0]	@ zero_extendqisi2
 1006 0e28 013083E2 		add	r3, r3, #1
 1007 0e2c 0030C5E5 		strb	r3, [r5, #0]
 1008 0e30 0600A0E1 		mov	r0, r6
 1009 0e34 FEFFFFEB 		bl	uart0_transmit
 1010 0e38 0400A0E1 		mov	r0, r4
 1011 0e3c FEFFFFEB 		bl	uart0_transmit
 1012 0e40 0400A0E1 		mov	r0, r4
 1013 0e44 FEFFFFEB 		bl	uart0_transmit
 1014 0e48 0030D5E5 		ldrb	r3, [r5, #0]	@ zero_extendqisi2
 1015 0e4c 423083E2 		add	r3, r3, #66
 1016 0e50 4200A0E3 		mov	r0, #66
 1017 0e54 0030C5E5 		strb	r3, [r5, #0]
 1018 0e58 FEFFFFEB 		bl	uart0_transmit
 1019 0e5c 0030D5E5 		ldrb	r3, [r5, #0]	@ zero_extendqisi2
 1020 0e60 653083E2 		add	r3, r3, #101
 1021 0e64 6500A0E3 		mov	r0, #101
 1022 0e68 0030C5E5 		strb	r3, [r5, #0]
 1023 0e6c FEFFFFEB 		bl	uart0_transmit
 1024 0e70 0030D5E5 		ldrb	r3, [r5, #0]	@ zero_extendqisi2
 1025 0e74 083083E2 		add	r3, r3, #8
 1026 0e78 0800A0E3 		mov	r0, #8
 1027 0e7c 0030C5E5 		strb	r3, [r5, #0]
 1028 0e80 FEFFFFEB 		bl	uart0_transmit
 1029 0e84 0460A0E1 		mov	r6, r4
 1030              	.L148:
 1031 0e88 C4469FE5 		ldr	r4, .L203+108
 1032 0e8c 0030D5E5 		ldrb	r3, [r5, #0]	@ zero_extendqisi2
 1033 0e90 8600D4E7 		ldrb	r0, [r4, r6, asl #1]	@ zero_extendqisi2
 1034 0e94 033080E0 		add	r3, r0, r3
 1035 0e98 0030C5E5 		strb	r3, [r5, #0]
 1036 0e9c 014084E2 		add	r4, r4, #1
 1037 0ea0 FEFFFFEB 		bl	uart0_transmit
 1038 0ea4 8630D4E7 		ldrb	r3, [r4, r6, asl #1]	@ zero_extendqisi2
 1039 0ea8 0020D5E5 		ldrb	r2, [r5, #0]	@ zero_extendqisi2
 1040 0eac 0300A0E1 		mov	r0, r3
 1041 0eb0 023083E0 		add	r3, r3, r2
 1042 0eb4 0030C5E5 		strb	r3, [r5, #0]
 1043 0eb8 FEFFFFEB 		bl	uart0_transmit
 1044 0ebc 013086E2 		add	r3, r6, #1
 1045 0ec0 FF6003E2 		and	r6, r3, #255
 1046 0ec4 070056E3 		cmp	r6, #7
 1047 0ec8 A003009A 		bls	.L148
 1048 0ecc EF0300EA 		b	.L200
 1049              	.L143:
 1050 0ed0 0C0054E3 		cmp	r4, #12
 1051 0ed4 F903001A 		bne	.L142
 1052 0ed8 0E00A0E3 		mov	r0, #14
 1053 0edc FEFFFFEB 		bl	uart0_check_free_space
 1054 0ee0 FF0010E3 		tst	r0, #255
 1055 0ee4 F503000A 		beq	.L152
 1056 0ee8 0C4044E2 		sub	r4, r4, #12
 1057 0eec 7E00A0E3 		mov	r0, #126
 1058 0ef0 40569FE5 		ldr	r5, .L203+80
 1059 0ef4 FEFFFFEB 		bl	uart0_transmit
 1060 0ef8 0400A0E1 		mov	r0, r4
 1061 0efc FEFFFFEB 		bl	uart0_transmit
 1062 0f00 1000A0E3 		mov	r0, #16
 1063 0f04 FEFFFFEB 		bl	uart0_transmit
 1064 0f08 0600A0E1 		mov	r0, r6
 1065 0f0c 0060C5E5 		strb	r6, [r5, #0]
 1066 0f10 FEFFFFEB 		bl	uart0_transmit
 1067 0f14 0400A0E1 		mov	r0, r4
 1068 0f18 FEFFFFEB 		bl	uart0_transmit
 1069 0f1c 0030D5E5 		ldrb	r3, [r5, #0]	@ zero_extendqisi2
 1070 0f20 013083E2 		add	r3, r3, #1
 1071 0f24 0030C5E5 		strb	r3, [r5, #0]
 1072 0f28 0600A0E1 		mov	r0, r6
 1073 0f2c FEFFFFEB 		bl	uart0_transmit
 1074 0f30 0400A0E1 		mov	r0, r4
 1075 0f34 FEFFFFEB 		bl	uart0_transmit
 1076 0f38 0400A0E1 		mov	r0, r4
 1077 0f3c FEFFFFEB 		bl	uart0_transmit
 1078 0f40 0030D5E5 		ldrb	r3, [r5, #0]	@ zero_extendqisi2
 1079 0f44 423083E2 		add	r3, r3, #66
 1080 0f48 4200A0E3 		mov	r0, #66
 1081 0f4c 0030C5E5 		strb	r3, [r5, #0]
 1082 0f50 FEFFFFEB 		bl	uart0_transmit
 1083 0f54 0030D5E5 		ldrb	r3, [r5, #0]	@ zero_extendqisi2
 1084 0f58 663083E2 		add	r3, r3, #102
 1085 0f5c 6600A0E3 		mov	r0, #102
 1086 0f60 0030C5E5 		strb	r3, [r5, #0]
 1087 0f64 FEFFFFEB 		bl	uart0_transmit
 1088 0f68 0030D5E5 		ldrb	r3, [r5, #0]	@ zero_extendqisi2
 1089 0f6c 043083E2 		add	r3, r3, #4
 1090 0f70 0400A0E3 		mov	r0, #4
 1091 0f74 0030C5E5 		strb	r3, [r5, #0]
 1092 0f78 FEFFFFEB 		bl	uart0_transmit
 1093 0f7c 0460A0E1 		mov	r6, r4
 1094              	.L156:
 1095 0f80 A0459FE5 		ldr	r4, .L203+64
 1096 0f84 0030D5E5 		ldrb	r3, [r5, #0]	@ zero_extendqisi2
 1097 0f88 8600D4E7 		ldrb	r0, [r4, r6, asl #1]	@ zero_extendqisi2
 1098 0f8c 033080E0 		add	r3, r0, r3
 1099 0f90 0030C5E5 		strb	r3, [r5, #0]
 1100 0f94 014084E2 		add	r4, r4, #1
 1101 0f98 FEFFFFEB 		bl	uart0_transmit
 1102 0f9c 8630D4E7 		ldrb	r3, [r4, r6, asl #1]	@ zero_extendqisi2
 1103 0fa0 0020D5E5 		ldrb	r2, [r5, #0]	@ zero_extendqisi2
 1104 0fa4 0300A0E1 		mov	r0, r3
 1105 0fa8 023083E0 		add	r3, r3, r2
 1106 0fac 0030C5E5 		strb	r3, [r5, #0]
 1107 0fb0 FEFFFFEB 		bl	uart0_transmit
 1108 0fb4 013086E2 		add	r3, r6, #1
 1109 0fb8 FF6003E2 		and	r6, r3, #255
 1110 0fbc 030056E3 		cmp	r6, #3
 1111 0fc0 DE03009A 		bls	.L156
 1112              	.L200:
 1113 0fc4 0030D5E5 		ldrb	r3, [r5, #0]	@ zero_extendqisi2
 1114 0fc8 0330E0E1 		mvn	r3, r3
 1115 0fcc 0030C5E5 		strb	r3, [r5, #0]
 1116 0fd0 0000D5E5 		ldrb	r0, [r5, #0]	@ zero_extendqisi2
 1117 0fd4 FEFFFFEB 		bl	uart0_transmit
 1118 0fd8 F90300EA 		b	.L142
 1119              	.L152:
 1120 0fdc 5C259FE5 		ldr	r2, .L203+88
 1121 0fe0 0030D2E5 		ldrb	r3, [r2, #0]	@ zero_extendqisi2
 1122 0fe4 013083E2 		add	r3, r3, #1
 1123 0fe8 0030C2E5 		strb	r3, [r2, #0]
 1124              	.L142:
 1125 0fec 0030D7E5 		ldrb	r3, [r7, #0]	@ zero_extendqisi2
 1126 0ff0 120053E3 		cmp	r3, #18
 1127 0ff4 3F04001A 		bne	.L158
 1128 0ff8 0800A0E3 		mov	r0, #8
 1129 0ffc FEFFFFEB 		bl	uart0_check_free_space
 1130 1000 FF0010E3 		tst	r0, #255
 1131 1004 34259F05 		ldreq	r2, .L203+88
 1132 1008 0030D205 		ldreqb	r3, [r2, #0]	@ zero_extendqisi2
 1133 100c 01308302 		addeq	r3, r3, #1
 1134 1010 0030C205 		streqb	r3, [r2, #0]
 1135 1014 3F04000A 		beq	.L158
 1136 1018 0060A0E3 		mov	r6, #0
 1137 101c 7E00A0E3 		mov	r0, #126
 1138 1020 10459FE5 		ldr	r4, .L203+80
 1139 1024 FEFFFFEB 		bl	uart0_transmit
 1140 1028 0600A0E1 		mov	r0, r6
 1141 102c FEFFFFEB 		bl	uart0_transmit
 1142 1030 0150A0E3 		mov	r5, #1
 1143 1034 0A00A0E3 		mov	r0, #10
 1144 1038 FEFFFFEB 		bl	uart0_transmit
 1145 103c 0500A0E1 		mov	r0, r5
 1146 1040 0050C4E5 		strb	r5, [r4, #0]
 1147 1044 FEFFFFEB 		bl	uart0_transmit
 1148 1048 0600A0E1 		mov	r0, r6
 1149 104c FEFFFFEB 		bl	uart0_transmit
 1150 1050 0030D4E5 		ldrb	r3, [r4, #0]	@ zero_extendqisi2
 1151 1054 053083E0 		add	r3, r3, r5
 1152 1058 0030C4E5 		strb	r3, [r4, #0]
 1153 105c 0500A0E1 		mov	r0, r5
 1154 1060 FEFFFFEB 		bl	uart0_transmit
 1155 1064 0600A0E1 		mov	r0, r6
 1156 1068 FEFFFFEB 		bl	uart0_transmit
 1157 106c 0600A0E1 		mov	r0, r6
 1158 1070 FEFFFFEB 		bl	uart0_transmit
 1159 1074 0030D4E5 		ldrb	r3, [r4, #0]	@ zero_extendqisi2
 1160 1078 423083E2 		add	r3, r3, #66
 1161 107c 4200A0E3 		mov	r0, #66
 1162 1080 0030C4E5 		strb	r3, [r4, #0]
 1163 1084 FEFFFFEB 		bl	uart0_transmit
 1164 1088 0030D4E5 		ldrb	r3, [r4, #0]	@ zero_extendqisi2
 1165 108c 673083E2 		add	r3, r3, #103
 1166 1090 6700A0E3 		mov	r0, #103
 1167 1094 0030C4E5 		strb	r3, [r4, #0]
 1168 1098 FEFFFFEB 		bl	uart0_transmit
 1169 109c 70349FE5 		ldr	r3, .L203+44
 1170 10a0 0020D4E5 		ldrb	r2, [r4, #0]	@ zero_extendqisi2
 1171 10a4 0030D3E5 		ldrb	r3, [r3, #0]	@ zero_extendqisi2
 1172 10a8 0300A0E1 		mov	r0, r3
 1173 10ac 023083E0 		add	r3, r3, r2
 1174 10b0 0030C4E5 		strb	r3, [r4, #0]
 1175 10b4 FEFFFFEB 		bl	uart0_transmit
 1176 10b8 58349FE5 		ldr	r3, .L203+48
 1177 10bc 0020D4E5 		ldrb	r2, [r4, #0]	@ zero_extendqisi2
 1178 10c0 0030D3E5 		ldrb	r3, [r3, #0]	@ zero_extendqisi2
 1179 10c4 0300A0E1 		mov	r0, r3
 1180 10c8 023083E0 		add	r3, r3, r2
 1181 10cc 0030C4E5 		strb	r3, [r4, #0]
 1182 10d0 FEFFFFEB 		bl	uart0_transmit
 1183 10d4 60349FE5 		ldr	r3, .L203+84
 1184 10d8 0020D4E5 		ldrb	r2, [r4, #0]	@ zero_extendqisi2
 1185 10dc 0030D3E5 		ldrb	r3, [r3, #0]	@ zero_extendqisi2
 1186 10e0 0300A0E1 		mov	r0, r3
 1187 10e4 023083E0 		add	r3, r3, r2
 1188 10e8 0030C4E5 		strb	r3, [r4, #0]
 1189 10ec FEFFFFEB 		bl	uart0_transmit
 1190 10f0 0030D4E5 		ldrb	r3, [r4, #0]	@ zero_extendqisi2
 1191 10f4 0330E0E1 		mvn	r3, r3
 1192 10f8 0030C4E5 		strb	r3, [r4, #0]
 1193 10fc 0000D4E5 		ldrb	r0, [r4, #0]	@ zero_extendqisi2
 1194 1100 FEFFFFEB 		bl	uart0_transmit
 1195              	.L158:
 1196 1104 B030D8E1 		ldrh	r3, [r8, #0]
 1197 1108 180053E3 		cmp	r3, #24
 1198 110c 8604001A 		bne	.L168
 1199 1110 1200A0E3 		mov	r0, #18
 1200 1114 FEFFFFEB 		bl	uart0_check_free_space
 1201 1118 FF0010E3 		tst	r0, #255
 1202 111c 1C249F05 		ldreq	r2, .L203+88
 1203 1120 0030D205 		ldreqb	r3, [r2, #0]	@ zero_extendqisi2
 1204 1124 01308302 		addeq	r3, r3, #1
 1205 1128 0030C205 		streqb	r3, [r2, #0]
 1206 112c 8604000A 		beq	.L168
 1207 1130 0050A0E3 		mov	r5, #0
 1208 1134 7E00A0E3 		mov	r0, #126
 1209 1138 F8639FE5 		ldr	r6, .L203+80
 1210 113c FEFFFFEB 		bl	uart0_transmit
 1211 1140 0500A0E1 		mov	r0, r5
 1212 1144 0140A0E3 		mov	r4, #1
 1213 1148 FEFFFFEB 		bl	uart0_transmit
 1214 114c 1400A0E3 		mov	r0, #20
 1215 1150 FEFFFFEB 		bl	uart0_transmit
 1216 1154 0400A0E1 		mov	r0, r4
 1217 1158 0040C6E5 		strb	r4, [r6, #0]
 1218 115c FEFFFFEB 		bl	uart0_transmit
 1219 1160 0500A0E1 		mov	r0, r5
 1220 1164 FEFFFFEB 		bl	uart0_transmit
 1221 1168 0030D6E5 		ldrb	r3, [r6, #0]	@ zero_extendqisi2
 1222 116c 043083E0 		add	r3, r3, r4
 1223 1170 0030C6E5 		strb	r3, [r6, #0]
 1224 1174 0400A0E1 		mov	r0, r4
 1225 1178 FEFFFFEB 		bl	uart0_transmit
 1226 117c 0500A0E1 		mov	r0, r5
 1227 1180 FEFFFFEB 		bl	uart0_transmit
 1228 1184 0500A0E1 		mov	r0, r5
 1229 1188 FEFFFFEB 		bl	uart0_transmit
 1230 118c 0030D6E5 		ldrb	r3, [r6, #0]	@ zero_extendqisi2
 1231 1190 423083E2 		add	r3, r3, #66
 1232 1194 4200A0E3 		mov	r0, #66
 1233 1198 0030C6E5 		strb	r3, [r6, #0]
 1234 119c FEFFFFEB 		bl	uart0_transmit
 1235 11a0 0030D6E5 		ldrb	r3, [r6, #0]	@ zero_extendqisi2
 1236 11a4 693083E2 		add	r3, r3, #105
 1237 11a8 6900A0E3 		mov	r0, #105
 1238 11ac 0030C6E5 		strb	r3, [r6, #0]
 1239 11b0 FEFFFFEB 		bl	uart0_transmit
 1240 11b4 0030D6E5 		ldrb	r3, [r6, #0]	@ zero_extendqisi2
 1241 11b8 063083E2 		add	r3, r3, #6
 1242 11bc 0600A0E3 		mov	r0, #6
 1243 11c0 0030C6E5 		strb	r3, [r6, #0]
 1244 11c4 FEFFFFEB 		bl	uart0_transmit
 1245              	.L166:
 1246 11c8 98439FE5 		ldr	r4, .L203+128
 1247 11cc 0030D6E5 		ldrb	r3, [r6, #0]	@ zero_extendqisi2
 1248 11d0 8500D4E7 		ldrb	r0, [r4, r5, asl #1]	@ zero_extendqisi2
 1249 11d4 033080E0 		add	r3, r0, r3
 1250 11d8 0030C6E5 		strb	r3, [r6, #0]
 1251 11dc 014084E2 		add	r4, r4, #1
 1252 11e0 FEFFFFEB 		bl	uart0_transmit
 1253 11e4 8530D4E7 		ldrb	r3, [r4, r5, asl #1]	@ zero_extendqisi2
 1254 11e8 0020D6E5 		ldrb	r2, [r6, #0]	@ zero_extendqisi2
 1255 11ec 0300A0E1 		mov	r0, r3
 1256 11f0 023083E0 		add	r3, r3, r2
 1257 11f4 0030C6E5 		strb	r3, [r6, #0]
 1258 11f8 FEFFFFEB 		bl	uart0_transmit
 1259 11fc 013085E2 		add	r3, r5, #1
 1260 1200 FF5003E2 		and	r5, r3, #255
 1261 1204 050055E3 		cmp	r5, #5
 1262 1208 7004009A 		bls	.L166
 1263 120c 0030D6E5 		ldrb	r3, [r6, #0]	@ zero_extendqisi2
 1264 1210 0330E0E1 		mvn	r3, r3
 1265 1214 0030C6E5 		strb	r3, [r6, #0]
 1266 1218 0000D6E5 		ldrb	r0, [r6, #0]	@ zero_extendqisi2
 1267 121c FEFFFFEB 		bl	uart0_transmit
 1268              	.L168:
 1269 1220 0030DAE5 		ldrb	r3, [sl, #0]	@ zero_extendqisi2
 1270 1224 000053E3 		cmp	r3, #0
 1271 1228 9604001A 		bne	.L169
 1272 122c 24339FE5 		ldr	r3, .L203+112
 1273 1230 4310D3E5 		ldrb	r1, [r3, #67]	@ zero_extendqisi2
 1274 1234 B000D3E1 		ldrh	r0, [r3, #0]
 1275 1238 FEFFFFEB 		bl	__divsi3
 1276 123c 000180E0 		add	r0, r0, r0, asl #2
 1277 1240 8000A0E1 		mov	r0, r0, asl #1
 1278 1244 FEFFFFEB 		bl	__floatsidf
 1279 1248 A62F8FE2 		adr	r2, .L203
 1280 124c 0C0092E8 		ldmia	r2, {r2-r3}
 1281 1250 FEFFFFEB 		bl	__muldf3
 1282 1254 FEFFFFEB 		bl	__fixunsdfsi
 1283 1258 DC329FE5 		ldr	r3, .L203+84
 1284 125c 0000C3E5 		strb	r0, [r3, #0]
 1285              	.L169:
 1286 1260 C0A29FE5 		ldr	sl, .L203+64
 1287 1264 B430DAE1 		ldrh	r3, [sl, #4]
 1288 1268 0348A0E1 		mov	r4, r3, asl #16
 1289 126c 4408A0E1 		mov	r0, r4, asr #16
 1290 1270 000060E2 		rsb	r0, r0, #0
 1291 1274 FEFFFFEB 		bl	__floatsisf
 1292 1278 FEFFFFEB 		bl	__extendsfdf2
 1293 127c BE2F8FE2 		adr	r2, .L203+148
 1294 1280 0C0092E8 		ldmia	r2, {r2-r3}
 1295 1284 FEFFFFEB 		bl	__muldf3
 1296 1288 FEFFFFEB 		bl	__truncdfsf2
 1297 128c FEFFFFEB 		bl	__fixsfsi
 1298 1290 5D0E80E2 		add	r0, r0, #1488
 1299 1294 0C0080E2 		add	r0, r0, #12
 1300 1298 0008A0E1 		mov	r0, r0, asl #16
 1301 129c 2008A0E1 		mov	r0, r0, lsr #16
 1302 12a0 FA0F50E3 		cmp	r0, #1000
 1303 12a4 B260DAE1 		ldrh	r6, [sl, #2]
 1304 12a8 B8829FE5 		ldr	r8, .L203+128
 1305 12ac FA3FA033 		movcc	r3, #1000	@ movhi
 1306 12b0 AE04003A 		bcc	.L171
 1307 12b4 7D0E50E3 		cmp	r0, #2000
 1308 12b8 0030A031 		movcc	r3, r0
 1309 12bc 7D3EA023 		movcs	r3, #2000
 1310              	.L171:
 1311 12c0 B030C8E1 		strh	r3, [r8, #0]	@ movhi 
 1312 12c4 B000D8E1 		ldrh	r0, [r8, #0]
 1313 12c8 FEFFFFEB 		bl	__floatsidf
 1314 12cc 2B2E8FE2 		adr	r2, .L203+156
 1315 12d0 0C0092E8 		ldmia	r2, {r2-r3}
 1316 12d4 FEFFFFEB 		bl	__muldf3
 1317 12d8 AB2F8FE2 		adr	r2, .L203+164
 1318 12dc 0C0092E8 		ldmia	r2, {r2-r3}
 1319 12e0 FEFFFFEB 		bl	__muldf3
 1320 12e4 AA2F8FE2 		adr	r2, .L203+172
 1321 12e8 0C0092E8 		ldmia	r2, {r2-r3}
 1322 12ec FEFFFFEB 		bl	__adddf3
 1323 12f0 FEFFFFEB 		bl	__fixunsdfsi
 1324 12f4 60929FE5 		ldr	r9, .L203+116
 1325 12f8 B000C9E1 		strh	r0, [r9, #0]	@ movhi 
 1326 12fc 4408A0E1 		mov	r0, r4, asr #16
 1327 1300 FEFFFFEB 		bl	__floatsisf
 1328 1304 FEFFFFEB 		bl	__extendsfdf2
 1329 1308 9B2F8FE2 		adr	r2, .L203+148
 1330 130c 0C0092E8 		ldmia	r2, {r2-r3}
 1331 1310 FEFFFFEB 		bl	__muldf3
 1332 1314 FEFFFFEB 		bl	__truncdfsf2
 1333 1318 FEFFFFEB 		bl	__fixsfsi
 1334 131c 5D0E80E2 		add	r0, r0, #1488
 1335 1320 0C0080E2 		add	r0, r0, #12
 1336 1324 0008A0E1 		mov	r0, r0, asl #16
 1337 1328 2008A0E1 		mov	r0, r0, lsr #16
 1338 132c FA0F50E3 		cmp	r0, #1000
 1339 1330 FA2FA033 		movcc	r2, #1000	@ movhi
 1340 1334 CF04003A 		bcc	.L173
 1341 1338 7D0E50E3 		cmp	r0, #2000
 1342 133c 0020A031 		movcc	r2, r0
 1343 1340 7D2EA023 		movcs	r2, #2000
 1344              	.L173:
 1345 1344 1C329FE5 		ldr	r3, .L203+128
 1346 1348 B220C3E1 		strh	r2, [r3, #2]	@ movhi 
 1347 134c B200D8E1 		ldrh	r0, [r8, #2]
 1348 1350 FEFFFFEB 		bl	__floatsidf
 1349 1354 8A2F8FE2 		adr	r2, .L203+156
 1350 1358 0C0092E8 		ldmia	r2, {r2-r3}
 1351 135c FEFFFFEB 		bl	__muldf3
 1352 1360 892F8FE2 		adr	r2, .L203+164
 1353 1364 0C0092E8 		ldmia	r2, {r2-r3}
 1354 1368 FEFFFFEB 		bl	__muldf3
 1355 136c 222E8FE2 		adr	r2, .L203+172
 1356 1370 0C0092E8 		ldmia	r2, {r2-r3}
 1357 1374 FEFFFFEB 		bl	__adddf3
 1358 1378 FEFFFFEB 		bl	__fixunsdfsi
 1359 137c B200C9E1 		strh	r0, [r9, #2]	@ movhi 
 1360 1380 F000DAE1 		ldrsh	r0, [sl, #0]
 1361 1384 FEFFFFEB 		bl	__floatsidf
 1362 1388 0678A0E1 		mov	r7, r6, asl #16
 1363 138c 0150A0E1 		mov	r5, r1
 1364 1390 0040A0E1 		mov	r4, r0
 1365 1394 4708A0E1 		mov	r0, r7, asr #16
 1366 1398 FEFFFFEB 		bl	__floatsidf
 1367 139c 532F8FE2 		adr	r2, .L203+8
 1368 13a0 0C0092E8 		ldmia	r2, {r2-r3}
 1369 13a4 FEFFFFEB 		bl	__muldf3
 1370 13a8 0130A0E1 		mov	r3, r1
 1371 13ac 0020A0E1 		mov	r2, r0
 1372 13b0 0510A0E1 		mov	r1, r5
 1373 13b4 0400A0E1 		mov	r0, r4
 1374 13b8 FEFFFFEB 		bl	__subdf3
 1375 13bc FEFFFFEB 		bl	__truncdfsf2
 1376 13c0 0040A0E1 		mov	r4, r0
 1377 13c4 FEFFFFEB 		bl	__extendsfdf2
 1378 13c8 0160A0E1 		mov	r6, r1
 1379 13cc 0050A0E1 		mov	r5, r0
 1380 13d0 0400A0E1 		mov	r0, r4
 1381 13d4 0010A0E3 		mov	r1, #0
 1382 13d8 FEFFFFEB 		bl	__gtsf2
 1383 13dc 000050E3 		cmp	r0, #0
 1384 13e0 452F8FC2 		adrgt	r2, .L203+20
 1385 13e4 0C0092C8 		ldmgtia	r2, {r2-r3}
 1386 13e8 0610A0C1 		movgt	r1, r6
 1387 13ec 0500A0C1 		movgt	r0, r5
 1388              	.L174:
 1389 13f0 5D2F8FD2 		adrle	r2, .L203+132
 1390 13f4 0C0092D8 		ldmleia	r2, {r2-r3}
 1391 13f8 0610A0D1 		movle	r1, r6
 1392 13fc 0500A0D1 		movle	r0, r5
 1393              	.L201:
 1394 1400 FEFFFFEB 		bl	__muldf3
 1395 1404 FEFFFFEB 		bl	__truncdfsf2
 1396 1408 FEFFFFEB 		bl	__fixsfsi
 1397 140c 4B0E80E2 		add	r0, r0, #1200
 1398 1410 48319FE5 		ldr	r3, .L203+120
 1399 1414 0008A0E1 		mov	r0, r0, asl #16
 1400 1418 2008A0E1 		mov	r0, r0, lsr #16
 1401 141c 030050E1 		cmp	r0, r3
 1402 1420 3C319F95 		ldrls	r3, .L203+124
 1403 1424 0320A091 		movls	r2, r3	@ movhi
 1404 1428 0C05009A 		bls	.L178
 1405 142c 7D0E50E3 		cmp	r0, #2000
 1406 1430 0020A031 		movcc	r2, r0
 1407 1434 7D2EA023 		movcs	r2, #2000
 1408              	.L178:
 1409 1438 28319FE5 		ldr	r3, .L203+128
 1410 143c B620C3E1 		strh	r2, [r3, #6]	@ movhi 
 1411 1440 B600D8E1 		ldrh	r0, [r8, #6]
 1412 1444 FEFFFFEB 		bl	__floatsidf
 1413 1448 4D2F8FE2 		adr	r2, .L203+156
 1414 144c 0C0092E8 		ldmia	r2, {r2-r3}
 1415 1450 FEFFFFEB 		bl	__muldf3
 1416 1454 132E8FE2 		adr	r2, .L203+164
 1417 1458 0C0092E8 		ldmia	r2, {r2-r3}
 1418 145c FEFFFFEB 		bl	__muldf3
 1419 1460 4B2F8FE2 		adr	r2, .L203+172
 1420 1464 0C0092E8 		ldmia	r2, {r2-r3}
 1421 1468 FEFFFFEB 		bl	__adddf3
 1422 146c FEFFFFEB 		bl	__fixunsdfsi
 1423 1470 B600C9E1 		strh	r0, [r9, #6]	@ movhi 
 1424 1474 F000DAE1 		ldrsh	r0, [sl, #0]
 1425 1478 FEFFFFEB 		bl	__floatsidf
 1426 147c 0150A0E1 		mov	r5, r1
 1427 1480 0040A0E1 		mov	r4, r0
 1428 1484 4708A0E1 		mov	r0, r7, asr #16
 1429 1488 FEFFFFEB 		bl	__floatsidf
 1430 148c 5C208FE2 		adr	r2, .L203+8
 1431 1490 0C0092E8 		ldmia	r2, {r2-r3}
 1432 1494 FEFFFFEB 		bl	__muldf3
 1433 1498 0130A0E1 		mov	r3, r1
 1434 149c 0020A0E1 		mov	r2, r0
 1435 14a0 0510A0E1 		mov	r1, r5
 1436 14a4 0400A0E1 		mov	r0, r4
 1437 14a8 FEFFFFEB 		bl	__adddf3
 1438 14ac FEFFFFEB 		bl	__truncdfsf2
 1439 14b0 0040A0E1 		mov	r4, r0
 1440 14b4 FEFFFFEB 		bl	__extendsfdf2
 1441 14b8 0160A0E1 		mov	r6, r1
 1442 14bc 0050A0E1 		mov	r5, r0
 1443 14c0 0400A0E1 		mov	r0, r4
 1444 14c4 0010A0E3 		mov	r1, #0
 1445 14c8 FEFFFFEB 		bl	__gtsf2
 1446 14cc 000050E3 		cmp	r0, #0
 1447 14d0 650500DA 		ble	.L179
 1448 14d4 20208FE2 		adr	r2, .L203+20
 1449 14d8 0C0092E8 		ldmia	r2, {r2-r3}
 1450 14dc 0610A0E1 		mov	r1, r6
 1451 14e0 0500A0E1 		mov	r0, r5
 1452 14e4 690500EA 		b	.L202
 1453              	.L204:
 1454              		.align	2
 1455              	.L203:
 1456 14e8 CC4C923F 		.word	1066552524
 1457 14ec CDCCCCCC 		.word	-858993459
 1458 14f0 9999C93F 		.word	1070176665
 1459 14f4 9A999999 		.word	-1717986918
 1460 14f8 01000000 		.word	_10Hz.0
 1461 14fc 5555B53F 		.word	1068848469
 1462 1500 F34B5555 		.word	1431653363
 1463 1504 02000000 		.word	_1Hz.1
 1464 1508 00000000 		.word	ppm_cpt
 1465 150c 00000000 		.word	last_ppm_cpt
 1466 1510 00000000 		.word	time_since_last_ppm
 1467 1514 00000000 		.word	rc_status
 1468 1518 00000000 		.word	fbw_mode
 1469 151c 00000000 		.word	time_since_last_ap
 1470 1520 00000000 		.word	ap_ok
 1471 1524 00000000 		.word	commands_failsafe
 1472 1528 00000000 		.word	commands
 1473 152c 00000000 		.word	telemetry_mode_Fbw
 1474 1530 03000000 		.word	i60.2
 1475 1534 04000000 		.word	i300.3
 1476 1538 00000000 		.word	xbee_cs
 1477 153c 00000000 		.word	fbw_vsupply_decivolt
 1478 1540 00000000 		.word	downlink_nb_ovrn
 1479 1544 06000000 		.word	i30.4
 1480 1548 07000000 		.word	i60.5
 1481 154c 08000000 		.word	i300.6
 1482 1550 00000000 		.word	ppm_pulses
 1483 1554 00000000 		.word	rc_values
 1484 1558 00000000 		.word	vsupply_adc_buf
 1485 155c 00000000 		.word	servos_values
 1486 1560 4B040000 		.word	1099
 1487 1564 4C040000 		.word	1100
 1488 1568 00000000 		.word	actuators
 1489 156c 5555853F 		.word	1065702741
 1490 1570 65A05555 		.word	1431674981
 1491 1574 00000000 		.word	0
 1492 1578 00000000 		.word	0
 1493 157c AAAAAA3F 		.word	1068149418
 1494 1580 E797AAAA 		.word	-1431660569
 1495 1584 F7C6B03E 		.word	1051772663
 1496 1588 8DEDB5A0 		.word	-1598689907
 1497 158c 389C6C41 		.word	1097636920
 1498 1590 00000000 		.word	0
 1499 1594 0000E03F 		.word	1071644672
 1500 1598 00000000 		.word	0
 1501              	.L179:
 1502 159c 38204FE2 		adr	r2, .L203+132
 1503 15a0 0C0092E8 		ldmia	r2, {r2-r3}
 1504 15a4 0610A0E1 		mov	r1, r6
 1505 15a8 0500A0E1 		mov	r0, r5
 1506              	.L202:
 1507 15ac FEFFFFEB 		bl	__muldf3
 1508 15b0 FEFFFFEB 		bl	__truncdfsf2
 1509 15b4 FEFFFFEB 		bl	__fixsfsi
 1510 15b8 4B0E80E2 		add	r0, r0, #1200
 1511 15bc 64301FE5 		ldr	r3, .L203+120
 1512 15c0 0008A0E1 		mov	r0, r0, asl #16
 1513 15c4 2008A0E1 		mov	r0, r0, lsr #16
 1514 15c8 030050E1 		cmp	r0, r3
 1515 15cc 70301F95 		ldrls	r3, .L203+124
 1516 15d0 0320A091 		movls	r2, r3	@ movhi
 1517 15d4 7705009A 		bls	.L183
 1518 15d8 7D0E50E3 		cmp	r0, #2000
 1519 15dc 0020A031 		movcc	r2, r0
 1520 15e0 7D2EA023 		movcs	r2, #2000
 1521              	.L183:
 1522 15e4 84301FE5 		ldr	r3, .L203+128
 1523 15e8 BA20C3E1 		strh	r2, [r3, #10]	@ movhi 
 1524 15ec BA00D8E1 		ldrh	r0, [r8, #10]
 1525 15f0 FEFFFFEB 		bl	__floatsidf
 1526 15f4 78204FE2 		adr	r2, .L203+156
 1527 15f8 0C0092E8 		ldmia	r2, {r2-r3}
 1528 15fc FEFFFFEB 		bl	__muldf3
 1529 1600 7C204FE2 		adr	r2, .L203+164
 1530 1604 0C0092E8 		ldmia	r2, {r2-r3}
 1531 1608 FEFFFFEB 		bl	__muldf3
 1532 160c 80204FE2 		adr	r2, .L203+172
 1533 1610 0C0092E8 		ldmia	r2, {r2-r3}
 1534 1614 FEFFFFEB 		bl	__adddf3
 1535 1618 FEFFFFEB 		bl	__fixunsdfsi
 1536 161c BA00C9E1 		strh	r0, [r9, #10]	@ movhi 
 1537 1620 F600DAE1 		ldrsh	r0, [sl, #6]
 1538 1624 FEFFFFEB 		bl	__floatsidf
 1539 1628 0150A0E1 		mov	r5, r1
 1540 162c 0040A0E1 		mov	r4, r0
 1541 1630 4708A0E1 		mov	r0, r7, asr #16
 1542 1634 FEFFFFEB 		bl	__floatsidf
 1543 1638 CC204FE2 		adr	r2, .L203+140
 1544 163c 0C0092E8 		ldmia	r2, {r2-r3}
 1545 1640 FEFFFFEB 		bl	__muldf3
 1546 1644 0130A0E1 		mov	r3, r1
 1547 1648 0020A0E1 		mov	r2, r0
 1548 164c 0510A0E1 		mov	r1, r5
 1549 1650 0400A0E1 		mov	r0, r4
 1550 1654 FEFFFFEB 		bl	__adddf3
 1551 1658 FEFFFFEB 		bl	__truncdfsf2
 1552 165c FEFFFFEB 		bl	__extendsfdf2
 1553 1660 EC204FE2 		adr	r2, .L203+148
 1554 1664 0C0092E8 		ldmia	r2, {r2-r3}
 1555 1668 FEFFFFEB 		bl	__muldf3
 1556 166c FEFFFFEB 		bl	__truncdfsf2
 1557 1670 FEFFFFEB 		bl	__fixsfsi
 1558 1674 5D0E80E2 		add	r0, r0, #1488
 1559 1678 0C0080E2 		add	r0, r0, #12
 1560 167c 0008A0E1 		mov	r0, r0, asl #16
 1561 1680 2008A0E1 		mov	r0, r0, lsr #16
 1562 1684 FA0F50E3 		cmp	r0, #1000
 1563 1688 FA2FA033 		movcc	r2, #1000	@ movhi
 1564 168c A505003A 		bcc	.L185
 1565 1690 7D0E50E3 		cmp	r0, #2000
 1566 1694 0020A031 		movcc	r2, r0
 1567 1698 7D2EA023 		movcs	r2, #2000
 1568              	.L185:
 1569 169c 3C311FE5 		ldr	r3, .L203+128
 1570 16a0 B820C3E1 		strh	r2, [r3, #8]	@ movhi 
 1571 16a4 B800D8E1 		ldrh	r0, [r8, #8]
 1572 16a8 FEFFFFEB 		bl	__floatsidf
 1573 16ac 132E4FE2 		adr	r2, .L203+156
 1574 16b0 0C0092E8 		ldmia	r2, {r2-r3}
 1575 16b4 FEFFFFEB 		bl	__muldf3
 1576 16b8 4D2F4FE2 		adr	r2, .L203+164
 1577 16bc 0C0092E8 		ldmia	r2, {r2-r3}
 1578 16c0 FEFFFFEB 		bl	__muldf3
 1579 16c4 4E2F4FE2 		adr	r2, .L203+172
 1580 16c8 0C0092E8 		ldmia	r2, {r2-r3}
 1581 16cc FEFFFFEB 		bl	__adddf3
 1582 16d0 FEFFFFEB 		bl	__fixunsdfsi
 1583 16d4 B800C9E1 		strh	r0, [r9, #8]	@ movhi 
 1584 16d8 F06F9DE8 		ldmfd	sp, {r4, r5, r6, r7, r8, r9, sl, fp, sp, lr}
 1585 16dc 1EFF2FE1 		bx	lr
 1587              		.comm	fbw_mode,1,1
 1588              		.comm	fbw_vsupply_decivolt,1,1
 1589              		.comm	vsupply_adc_buf,68,4
 1590              		.bss
 1591 000a 0000     		.align	2
 1592              	last_periodic_event:
 1593 000c 00000000 		.space	4
 1594              		.ident	"GCC: (GNU) 3.4.4"