   1              		.file	"main_ap.c"
   2              		.global	ac_ident
   3              		.data
   6              	ac_ident:
   7 0000 07       		.byte	7
   8              		.global	light_mode
  11              	light_mode:
  12 0001 01       		.byte	1
  13              		.global	gps_lost
  14              		.bss
  17              	gps_lost:
  18 0000 00       		.space	1
  19              		.global	launch
  22              	launch:
  23 0001 00       		.space	1
  24              		.global	kill_throttle
  27              	kill_throttle:
  28 0002 00       		.space	1
  29              		.global	ir_estim_mode
  32              	ir_estim_mode:
  33 0003 00       		.space	1
  34              		.global	lateral_mode
  37              	lateral_mode:
  38 0004 00       		.space	1
  39              		.global	pprz_mode
  40              		.data
  43              	pprz_mode:
  44 0002 02       		.byte	2
  45              		.global	fatal_error_nb
  46              		.bss
  49              	fatal_error_nb:
  50 0005 00       		.space	1
  51              		.global	rc_settings_mode
  54              	rc_settings_mode:
  55 0006 00       		.space	1
  56              		.section	.rodata
  57              		.align	1
  60              	version:
  61 0000 0100     		.short	1
  62              		.global	__floatsisf
  63              		.global	__divsf3
  64              		.global	__extendsfdf2
  65              		.global	__muldf3
  66              		.global	__adddf3
  67              		.global	__truncdfsf2
  68              		.bss
  69 0007 00       		.align	1
  70              	event1_cpt.15:
  71 0008 0000     		.space	2
  72              		.align	1
  73              	event2_cpt.16:
  74 000a 0000     		.space	2
  75              		.text
  76              		.align	2
  77              		.global	telecommand_task
  79              	telecommand_task:
  80              		@ Function supports interworking.
  81              		@ args = 0, pretend = 0, frame = 0
  82              		@ frame_needed = 1, uses_anonymous_args = 0
  83 0000 0DC0A0E1 		mov	ip, sp
  84 0004 F0D92DE9 		stmfd	sp!, {r4, r5, r6, r7, r8, fp, ip, lr, pc}
  85 0008 D4859FE5 		ldr	r8, .L52+16
  86 000c 003098E5 		ldr	r3, [r8, #0]
  87 0010 1130D3E5 		ldrb	r3, [r3, #17]	@ zero_extendqisi2
  88 0014 04B04CE2 		sub	fp, ip, #4
  89 0018 020013E3 		tst	r3, #2
  90 001c 00C0A0E3 		mov	ip, #0
  91 0020 0C20A0E1 		mov	r2, ip
  92 0024 0D00000A 		beq	.L3
  93 0028 B8359FE5 		ldr	r3, .L52+20
  94 002c 0030D3E5 		ldrb	r3, [r3, #0]	@ zero_extendqisi2
  95 0030 010053E3 		cmp	r3, #1
  96 0034 0020A083 		movhi	r2, #0
  97 0038 0120A093 		movls	r2, #1
  98              	.L3:
  99 003c A4059FE5 		ldr	r0, .L52+20
 100 0040 0030D0E5 		ldrb	r3, [r0, #0]	@ zero_extendqisi2
 101 0044 033043E2 		sub	r3, r3, #3
 102 0048 010053E3 		cmp	r3, #1
 103 004c 2000009A 		bls	.L4
 104 0050 94359FE5 		ldr	r3, .L52+24
 105 0054 0030D3E5 		ldrb	r3, [r3, #0]	@ zero_extendqisi2
 106 0058 000053E3 		cmp	r3, #0
 107 005c 2000000A 		beq	.L4
 108 0060 88359FE5 		ldr	r3, .L52+28
 109 0064 0030D3E5 		ldrb	r3, [r3, #0]	@ zero_extendqisi2
 110 0068 000053E3 		cmp	r3, #0
 111 006c 0330A013 		movne	r3, #3
 112 0070 0030C015 		strneb	r3, [r0, #0]
 113 0074 01C0A013 		movne	ip, #1
 114 0078 000052E3 		cmp	r2, #0
 115 007c 0330A013 		movne	r3, #3
 116 0080 0030C015 		strneb	r3, [r0, #0]
 117 0084 01C0A013 		movne	ip, #1
 118              	.L4:
 119 0088 001098E5 		ldr	r1, [r8, #0]
 120 008c 1130D1E5 		ldrb	r3, [r1, #17]	@ zero_extendqisi2
 121 0090 100013E3 		tst	r3, #16
 122 0094 3C00000A 		beq	.L7
 123 0098 0030D0E5 		ldrb	r3, [r0, #0]	@ zero_extendqisi2
 124 009c 033043E2 		sub	r3, r3, #3
 125 00a0 010053E3 		cmp	r3, #1
 126 00a4 2E00008A 		bhi	.L9
 127 00a8 44259FE5 		ldr	r2, .L52+32
 128 00ac 0030D2E5 		ldrb	r3, [r2, #0]	@ zero_extendqisi2
 129 00b0 000053E3 		cmp	r3, #0
 130 00b4 3B00000A 		beq	.L16
 131 00b8 0030A0E3 		mov	r3, #0
 132 00bc 0030C2E5 		strb	r3, [r2, #0]
 133              	.L9:
 134 00c0 FE30D1E1 		ldrsh	r3, [r1, #14]
 135 00c4 4B0D53E3 		cmp	r3, #4800
 136 00c8 0220A0C3 		movgt	r2, #2
 137 00cc 350000CA 		bgt	.L13
 138 00d0 4B0D73E3 		cmn	r3, #4800
 139 00d4 0020A0D3 		movle	r2, #0
 140 00d8 0120A0C3 		movgt	r2, #1
 141              	.L13:
 142 00dc 0030D0E5 		ldrb	r3, [r0, #0]	@ zero_extendqisi2
 143 00e0 020053E1 		cmp	r3, r2
 144 00e4 0130A013 		movne	r3, #1
 145 00e8 0030A003 		moveq	r3, #0
 146 00ec 0020C015 		strneb	r2, [r0, #0]
 147 00f0 FF3003E2 		and	r3, r3, #255
 148              	.L16:
 149 00f4 03C08CE1 		orr	ip, ip, r3
 150              	.L7:
 151 00f8 003098E5 		ldr	r3, [r8, #0]
 152 00fc F4749FE5 		ldr	r7, .L52+36
 153 0100 1130D3E5 		ldrb	r3, [r3, #17]	@ zero_extendqisi2
 154 0104 0020D7E5 		ldrb	r2, [r7, #0]	@ zero_extendqisi2
 155 0108 FF1003E2 		and	r1, r3, #255
 156 010c 010052E1 		cmp	r2, r1
 157 0110 0020A003 		moveq	r2, #0
 158 0114 4900000A 		beq	.L19
 159 0118 0F2002E2 		and	r2, r2, #15
 160 011c 0F3003E2 		and	r3, r3, #15
 161 0120 0010C7E5 		strb	r1, [r7, #0]
 162 0124 032052E0 		subs	r2, r2, r3
 163 0128 0120A013 		movne	r2, #1
 164              	.L19:
 165 012c 02C09CE1 		orrs	ip, ip, r2
 166 0130 0A01000A 		beq	.L20
 167 0134 C0149FE5 		ldr	r1, .L52+40
 168 0138 C0049FE5 		ldr	r0, .L52+44
 169 013c 0030D1E5 		ldrb	r3, [r1, #0]	@ zero_extendqisi2
 170 0140 0020D0E5 		ldrb	r2, [r0, #0]	@ zero_extendqisi2
 171 0144 030052E1 		cmp	r2, r3
 172 0148 0030D125 		ldrcsb	r3, [r1, #0]	@ zero_extendqisi2
 173 014c 0030D135 		ldrccb	r3, [r1, #0]	@ zero_extendqisi2
 174 0150 02306320 		rsbcs	r3, r3, r2
 175 0154 03306230 		rsbcc	r3, r2, r3
 176 0158 FF306322 		rsbcs	r3, r3, #255
 177 015c 0D0053E3 		cmp	r3, #13
 178 0160 9C249FD5 		ldrle	r2, .L52+48
 179 0164 0030D2D5 		ldrleb	r3, [r2, #0]	@ zero_extendqisi2
 180 0168 013083D2 		addle	r3, r3, #1
 181 016c 0030C2D5 		strleb	r3, [r2, #0]
 182 0170 0A0100DA 		ble	.L20
 183 0174 0020D0E5 		ldrb	r2, [r0, #0]	@ zero_extendqisi2
 184 0178 013082E2 		add	r3, r2, #1
 185 017c 0030C0E5 		strb	r3, [r0, #0]
 186 0180 0030D0E5 		ldrb	r3, [r0, #0]	@ zero_extendqisi2
 187 0184 7C649FE5 		ldr	r6, .L52+52
 188 0188 FF0053E3 		cmp	r3, #255
 189 018c 6630E0E3 		mvn	r3, #102
 190 0190 0230C6E7 		strb	r3, [r6, r2]
 191 0194 67308302 		addeq	r3, r3, #103
 192 0198 60C49FE5 		ldr	ip, .L52+44
 193 019c 0030C005 		streqb	r3, [r0, #0]
 194 01a0 0020DCE5 		ldrb	r2, [ip, #0]	@ zero_extendqisi2
 195 01a4 013082E2 		add	r3, r2, #1
 196 01a8 0030CCE5 		strb	r3, [ip, #0]
 197 01ac 0030DCE5 		ldrb	r3, [ip, #0]	@ zero_extendqisi2
 198 01b0 FF0053E3 		cmp	r3, #255
 199 01b4 0D30A0E3 		mov	r3, #13
 200 01b8 0230C6E7 		strb	r3, [r6, r2]
 201 01bc 0D304302 		subeq	r3, r3, #13
 202 01c0 0030CC05 		streqb	r3, [ip, #0]
 203 01c4 0020DCE5 		ldrb	r2, [ip, #0]	@ zero_extendqisi2
 204 01c8 013082E2 		add	r3, r2, #1
 205 01cc 0030CCE5 		strb	r3, [ip, #0]
 206 01d0 0030DCE5 		ldrb	r3, [ip, #0]	@ zero_extendqisi2
 207 01d4 30E49FE5 		ldr	lr, .L52+56
 208 01d8 30549FE5 		ldr	r5, .L52+60
 209 01dc FF0053E3 		cmp	r3, #255
 210 01e0 1430A0E3 		mov	r3, #20
 211 01e4 0030CEE5 		strb	r3, [lr, #0]
 212 01e8 0D3083E2 		add	r3, r3, #13
 213 01ec 0030C5E5 		strb	r3, [r5, #0]
 214 01f0 1A3043E2 		sub	r3, r3, #26
 215 01f4 0230C6E7 		strb	r3, [r6, r2]
 216 01f8 07304302 		subeq	r3, r3, #7
 217 01fc 0030CC05 		streqb	r3, [ip, #0]
 218 0200 0020DCE5 		ldrb	r2, [ip, #0]	@ zero_extendqisi2
 219 0204 013082E2 		add	r3, r2, #1
 220 0208 0030CCE5 		strb	r3, [ip, #0]
 221 020c 0030DCE5 		ldrb	r3, [ip, #0]	@ zero_extendqisi2
 222 0210 FF0053E3 		cmp	r3, #255
 223 0214 1F30A0E3 		mov	r3, #31
 224 0218 0030CEE5 		strb	r3, [lr, #0]
 225 021c 213083E2 		add	r3, r3, #33
 226 0220 0030C5E5 		strb	r3, [r5, #0]
 227 0224 353043E2 		sub	r3, r3, #53
 228 0228 0230C6E7 		strb	r3, [r6, r2]
 229 022c 0B304302 		subeq	r3, r3, #11
 230 0230 0030CC05 		streqb	r3, [ip, #0]
 231 0234 AC339FE5 		ldr	r3, .L52+20
 232 0238 0010DCE5 		ldrb	r1, [ip, #0]	@ zero_extendqisi2
 233 023c 0000D3E5 		ldrb	r0, [r3, #0]	@ zero_extendqisi2
 234 0240 012081E2 		add	r2, r1, #1
 235 0244 1F3080E2 		add	r3, r0, #31
 236 0248 0020CCE5 		strb	r2, [ip, #0]
 237 024c 0030CEE5 		strb	r3, [lr, #0]
 238 0250 0030DCE5 		ldrb	r3, [ip, #0]	@ zero_extendqisi2
 239 0254 0020DEE5 		ldrb	r2, [lr, #0]	@ zero_extendqisi2
 240 0258 FF0053E3 		cmp	r3, #255
 241 025c 403082E2 		add	r3, r2, #64
 242 0260 0030C5E5 		strb	r3, [r5, #0]
 243 0264 0030A003 		moveq	r3, #0
 244 0268 0030CC05 		streqb	r3, [ip, #0]
 245 026c 0100C6E7 		strb	r0, [r6, r1]
 246 0270 9C339FE5 		ldr	r3, .L52+64
 247 0274 0010DCE5 		ldrb	r1, [ip, #0]	@ zero_extendqisi2
 248 0278 0000D3E5 		ldrb	r0, [r3, #0]	@ zero_extendqisi2
 249 027c 023080E0 		add	r3, r0, r2
 250 0280 012081E2 		add	r2, r1, #1
 251 0284 0030CEE5 		strb	r3, [lr, #0]
 252 0288 0020CCE5 		strb	r2, [ip, #0]
 253 028c 0030DCE5 		ldrb	r3, [ip, #0]	@ zero_extendqisi2
 254 0290 FF0053E3 		cmp	r3, #255
 255 0294 0040DEE5 		ldrb	r4, [lr, #0]	@ zero_extendqisi2
 256 0298 0020D5E5 		ldrb	r2, [r5, #0]	@ zero_extendqisi2
 257 029c FF304302 		subeq	r3, r3, #255
 258 02a0 0030CC05 		streqb	r3, [ip, #0]
 259 02a4 042082E0 		add	r2, r2, r4
 260 02a8 0020C5E5 		strb	r2, [r5, #0]
 261 02ac 0100C6E7 		strb	r0, [r6, r1]
 262 02b0 60339FE5 		ldr	r3, .L52+68
 263 02b4 0010DCE5 		ldrb	r1, [ip, #0]	@ zero_extendqisi2
 264 02b8 0000D3E5 		ldrb	r0, [r3, #0]	@ zero_extendqisi2
 265 02bc 012081E2 		add	r2, r1, #1
 266 02c0 0020CCE5 		strb	r2, [ip, #0]
 267 02c4 043080E0 		add	r3, r0, r4
 268 02c8 0030CEE5 		strb	r3, [lr, #0]
 269 02cc 0030DCE5 		ldrb	r3, [ip, #0]	@ zero_extendqisi2
 270 02d0 FF0053E3 		cmp	r3, #255
 271 02d4 0040DEE5 		ldrb	r4, [lr, #0]	@ zero_extendqisi2
 272 02d8 0020D5E5 		ldrb	r2, [r5, #0]	@ zero_extendqisi2
 273 02dc FF304302 		subeq	r3, r3, #255
 274 02e0 0030CC05 		streqb	r3, [ip, #0]
 275 02e4 042082E0 		add	r2, r2, r4
 276 02e8 0020C5E5 		strb	r2, [r5, #0]
 277 02ec 0100C6E7 		strb	r0, [r6, r1]
 278 02f0 24339FE5 		ldr	r3, .L52+72
 279 02f4 0010DCE5 		ldrb	r1, [ip, #0]	@ zero_extendqisi2
 280 02f8 0000D3E5 		ldrb	r0, [r3, #0]	@ zero_extendqisi2
 281 02fc 012081E2 		add	r2, r1, #1
 282 0300 0020CCE5 		strb	r2, [ip, #0]
 283 0304 043080E0 		add	r3, r0, r4
 284 0308 0030CEE5 		strb	r3, [lr, #0]
 285 030c 0030DCE5 		ldrb	r3, [ip, #0]	@ zero_extendqisi2
 286 0310 0040DEE5 		ldrb	r4, [lr, #0]	@ zero_extendqisi2
 287 0314 FF0053E3 		cmp	r3, #255
 288 0318 0020D5E5 		ldrb	r2, [r5, #0]	@ zero_extendqisi2
 289 031c FF304302 		subeq	r3, r3, #255
 290 0320 0030CC05 		streqb	r3, [ip, #0]
 291 0324 042082E0 		add	r2, r2, r4
 292 0328 0020C5E5 		strb	r2, [r5, #0]
 293 032c 0100C6E7 		strb	r0, [r6, r1]
 294 0330 E8329FE5 		ldr	r3, .L52+76
 295 0334 0010DCE5 		ldrb	r1, [ip, #0]	@ zero_extendqisi2
 296 0338 0000D3E5 		ldrb	r0, [r3, #0]	@ zero_extendqisi2
 297 033c 012081E2 		add	r2, r1, #1
 298 0340 043080E0 		add	r3, r0, r4
 299 0344 0020CCE5 		strb	r2, [ip, #0]
 300 0348 0030CEE5 		strb	r3, [lr, #0]
 301 034c 0030DCE5 		ldrb	r3, [ip, #0]	@ zero_extendqisi2
 302 0350 0040DEE5 		ldrb	r4, [lr, #0]	@ zero_extendqisi2
 303 0354 0020D5E5 		ldrb	r2, [r5, #0]	@ zero_extendqisi2
 304 0358 FF0053E3 		cmp	r3, #255
 305 035c 042082E0 		add	r2, r2, r4
 306 0360 FF304302 		subeq	r3, r3, #255
 307 0364 0020C5E5 		strb	r2, [r5, #0]
 308 0368 0030CC05 		streqb	r3, [ip, #0]
 309 036c 0100C6E7 		strb	r0, [r6, r1]
 310 0370 0010DCE5 		ldrb	r1, [ip, #0]	@ zero_extendqisi2
 311 0374 0000D7E5 		ldrb	r0, [r7, #0]	@ zero_extendqisi2
 312 0378 012081E2 		add	r2, r1, #1
 313 037c 0020CCE5 		strb	r2, [ip, #0]
 314 0380 043080E0 		add	r3, r0, r4
 315 0384 0030CEE5 		strb	r3, [lr, #0]
 316 0388 0030DCE5 		ldrb	r3, [ip, #0]	@ zero_extendqisi2
 317 038c 0040DEE5 		ldrb	r4, [lr, #0]	@ zero_extendqisi2
 318 0390 0020D5E5 		ldrb	r2, [r5, #0]	@ zero_extendqisi2
 319 0394 FF0053E3 		cmp	r3, #255
 320 0398 FF304302 		subeq	r3, r3, #255
 321 039c 042082E0 		add	r2, r2, r4
 322 03a0 0030CC05 		streqb	r3, [ip, #0]
 323 03a4 0020C5E5 		strb	r2, [r5, #0]
 324 03a8 0100C6E7 		strb	r0, [r6, r1]
 325 03ac 70329FE5 		ldr	r3, .L52+80
 326 03b0 0010DCE5 		ldrb	r1, [ip, #0]	@ zero_extendqisi2
 327 03b4 0000D3E5 		ldrb	r0, [r3, #0]	@ zero_extendqisi2
 328 03b8 012081E2 		add	r2, r1, #1
 329 03bc 043080E0 		add	r3, r0, r4
 330 03c0 0020CCE5 		strb	r2, [ip, #0]
 331 03c4 0030CEE5 		strb	r3, [lr, #0]
 332 03c8 0020DCE5 		ldrb	r2, [ip, #0]	@ zero_extendqisi2
 333 03cc 00E0DEE5 		ldrb	lr, [lr, #0]	@ zero_extendqisi2
 334 03d0 0030D5E5 		ldrb	r3, [r5, #0]	@ zero_extendqisi2
 335 03d4 FF0052E3 		cmp	r2, #255
 336 03d8 0E3083E0 		add	r3, r3, lr
 337 03dc 0030C5E5 		strb	r3, [r5, #0]
 338 03e0 0030A003 		moveq	r3, #0
 339 03e4 0030CC05 		streqb	r3, [ip, #0]
 340 03e8 0030DCE5 		ldrb	r3, [ip, #0]	@ zero_extendqisi2
 341 03ec 012083E2 		add	r2, r3, #1
 342 03f0 0020CCE5 		strb	r2, [ip, #0]
 343 03f4 0020DCE5 		ldrb	r2, [ip, #0]	@ zero_extendqisi2
 344 03f8 FF0052E3 		cmp	r2, #255
 345 03fc 0100C6E7 		strb	r0, [r6, r1]
 346 0400 03E0C6E7 		strb	lr, [r6, r3]
 347 0404 0030A003 		moveq	r3, #0
 348 0408 0030CC05 		streqb	r3, [ip, #0]
 349 040c 0010DCE5 		ldrb	r1, [ip, #0]	@ zero_extendqisi2
 350 0410 013081E2 		add	r3, r1, #1
 351 0414 0030CCE5 		strb	r3, [ip, #0]
 352 0418 0030DCE5 		ldrb	r3, [ip, #0]	@ zero_extendqisi2
 353 041c 0020D5E5 		ldrb	r2, [r5, #0]	@ zero_extendqisi2
 354 0420 FF0053E3 		cmp	r3, #255
 355 0424 FF304302 		subeq	r3, r3, #255
 356 0428 0120C6E7 		strb	r2, [r6, r1]
 357 042c 0030CC05 		streqb	r3, [ip, #0]
 358              	.L20:
 359 0430 B0619FE5 		ldr	r6, .L52+20
 360 0434 0050D6E5 		ldrb	r5, [r6, #0]	@ zero_extendqisi2
 361 0438 010055E3 		cmp	r5, #1
 362 043c 2B01001A 		bne	.L38
 363 0440 004098E5 		ldr	r4, [r8, #0]
 364 0444 F000D4E1 		ldrsh	r0, [r4, #0]
 365 0448 FEFFFFEB 		bl	__floatsisf
 366 044c D4119FE5 		ldr	r1, .L52+84
 367 0450 FEFFFFEB 		bl	__divsf3
 368 0454 FEFFFFEB 		bl	__extendsfdf2
 369 0458 5D2F8FE2 		adr	r2, .L52
 370 045c 0C0092E8 		ldmia	r2, {r2-r3}
 371 0460 FEFFFFEB 		bl	__muldf3
 372 0464 172E8FE2 		adr	r2, .L52+8
 373 0468 0C0092E8 		ldmia	r2, {r2-r3}
 374 046c FEFFFFEB 		bl	__adddf3
 375 0470 FEFFFFEB 		bl	__truncdfsf2
 376 0474 B0319FE5 		ldr	r3, .L52+88
 377 0478 000083E5 		str	r0, [r3, #0]	@ float
 378 047c F200D4E1 		ldrsh	r0, [r4, #2]
 379 0480 FEFFFFEB 		bl	__floatsisf
 380 0484 9C119FE5 		ldr	r1, .L52+84
 381 0488 FEFFFFEB 		bl	__divsf3
 382 048c FEFFFFEB 		bl	__extendsfdf2
 383 0490 4F2F8FE2 		adr	r2, .L52
 384 0494 0C0092E8 		ldmia	r2, {r2-r3}
 385 0498 FEFFFFEB 		bl	__muldf3
 386 049c 4E2F8FE2 		adr	r2, .L52+8
 387 04a0 0C0092E8 		ldmia	r2, {r2-r3}
 388 04a4 FEFFFFEB 		bl	__adddf3
 389 04a8 FEFFFFEB 		bl	__truncdfsf2
 390 04ac 7C319FE5 		ldr	r3, .L52+92
 391 04b0 000083E5 		str	r0, [r3, #0]	@ float
 392              	.L38:
 393 04b4 010055E3 		cmp	r5, #1
 394 04b8 24319F95 		ldrls	r3, .L52+16
 395 04bc 00209395 		ldrls	r2, [r3, #0]
 396 04c0 1C419FE5 		ldr	r4, .L52+16
 397 04c4 B420D291 		ldrlsh	r2, [r2, #4]
 398 04c8 64319F95 		ldrls	r3, .L52+96
 399 04cc B020C391 		strlsh	r2, [r3, #0]	@ movhi 
 400 04d0 002094E5 		ldr	r2, [r4, #0]
 401 04d4 5C319FE5 		ldr	r3, .L52+100
 402 04d8 1010D2E5 		ldrb	r1, [r2, #16]	@ zero_extendqisi2
 403 04dc 0010C3E5 		strb	r1, [r3, #0]
 404 04e0 54319FE5 		ldr	r3, .L52+104
 405 04e4 1310D2E5 		ldrb	r1, [r2, #19]	@ zero_extendqisi2
 406 04e8 0010C3E5 		strb	r1, [r3, #0]
 407 04ec 4C319FE5 		ldr	r3, .L52+108
 408 04f0 FA20D2E1 		ldrsh	r2, [r2, #10]
 409 04f4 030052E1 		cmp	r2, r3
 410 04f8 44219FE5 		ldr	r2, .L52+112
 411 04fc 0030A0D3 		movle	r3, #0	@ movhi
 412 0500 B030C2D1 		strleh	r3, [r2, #0]	@ movhi 
 413 0504 4A0100DA 		ble	.L43
 414 0508 B030D2E1 		ldrh	r3, [r2, #0]
 415 050c 130053E3 		cmp	r3, #19
 416 0510 4A01008A 		bhi	.L43
 417 0514 013083E2 		add	r3, r3, #1
 418 0518 B030C2E1 		strh	r3, [r2, #0]	@ movhi 
 419 051c B030D2E1 		ldrh	r3, [r2, #0]
 420 0520 140053E3 		cmp	r3, #20
 421 0524 C8309F05 		ldreq	r3, .L52+32
 422 0528 0120A003 		moveq	r2, #1
 423 052c 0020C305 		streqb	r2, [r3, #0]
 424              	.L43:
 425 0530 003094E5 		ldr	r3, [r4, #0]
 426 0534 FA20D3E1 		ldrsh	r2, [r3, #10]
 427 0538 08319FE5 		ldr	r3, .L52+116
 428 053c 030052E1 		cmp	r2, r3
 429 0540 04219FE5 		ldr	r2, .L52+120
 430 0544 0030A0A3 		movge	r3, #0	@ movhi
 431 0548 B030C2A1 		strgeh	r3, [r2, #0]	@ movhi 
 432 054c 5C0100AA 		bge	.L48
 433 0550 B030D2E1 		ldrh	r3, [r2, #0]
 434 0554 130053E3 		cmp	r3, #19
 435 0558 5C01008A 		bhi	.L48
 436 055c 013083E2 		add	r3, r3, #1
 437 0560 B030C2E1 		strh	r3, [r2, #0]	@ movhi 
 438 0564 B030D2E1 		ldrh	r3, [r2, #0]
 439 0568 140053E3 		cmp	r3, #20
 440 056c DC309F05 		ldreq	r3, .L52+124
 441 0570 0120A003 		moveq	r2, #1
 442 0574 0020C305 		streqb	r2, [r3, #0]
 443              	.L48:
 444 0578 D4309FE5 		ldr	r3, .L52+128
 445 057c B030D3E1 		ldrh	r3, [r3, #0]
 446 0580 000053E3 		cmp	r3, #0
 447 0584 7101001A 		bne	.L1
 448 0588 003094E5 		ldr	r3, [r4, #0]
 449 058c B000D3E1 		ldrh	r0, [r3, #0]
 450 0590 4B0D80E2 		add	r0, r0, #4800
 451 0594 0008A0E1 		mov	r0, r0, asl #16
 452 0598 960550E3 		cmp	r0, #629145600
 453 059c 0000A093 		movls	r0, #0
 454 05a0 0100A083 		movhi	r0, #1
 455 05a4 FEFFFFEB 		bl	ground_calibrate
 456 05a8 0030D6E5 		ldrb	r3, [r6, #0]	@ zero_extendqisi2
 457 05ac 020053E3 		cmp	r3, #2
 458 05b0 7101001A 		bne	.L1
 459 05b4 003094E5 		ldr	r3, [r4, #0]
 460 05b8 F430D3E1 		ldrsh	r3, [r3, #4]
 461 05bc 870D53E3 		cmp	r3, #8640
 462 05c0 24309FC5 		ldrgt	r3, .L52+24
 463 05c4 0120A0C3 		movgt	r2, #1
 464 05c8 0020C3C5 		strgtb	r2, [r3, #0]
 465              	.L1:
 466 05cc F0699DE8 		ldmfd	sp, {r4, r5, r6, r7, r8, fp, sp, lr}
 467 05d0 1EFF2FE1 		bx	lr
 468              	.L53:
 469              		.align	2
 470              	.L52:
 471 05d4 3333E33F 		.word	1071854387
 472 05d8 33333333 		.word	858993459
 473 05dc 00000000 		.word	0
 474 05e0 00000000 		.word	0
 475 05e4 00000000 		.word	fbw_state
 476 05e8 00000000 		.word	pprz_mode
 477 05ec 00000000 		.word	launch
 478 05f0 00000000 		.word	too_far_from_home
 479 05f4 00000000 		.word	rc_event_1
 480 05f8 20000000 		.word	mcu1_status
 481 05fc 00000000 		.word	tx_tail
 482 0600 00000000 		.word	tx_head
 483 0604 00000000 		.word	downlink_nb_ovrn
 484 0608 00000000 		.word	tx_buf
 485 060c 00000000 		.word	ck_a
 486 0610 00000000 		.word	ck_b
 487 0614 00000000 		.word	v_ctl_mode
 488 0618 00000000 		.word	lateral_mode
 489 061c 00000000 		.word	horizontal_mode
 490 0620 00000000 		.word	rc_settings_mode
 491 0624 00000000 		.word	ir_estim_mode
 492 0628 00001646 		.word	1175846912
 493 062c 00000000 		.word	h_ctl_roll_setpoint
 494 0630 00000000 		.word	h_ctl_pitch_setpoint
 495 0634 00000000 		.word	v_ctl_throttle_setpoint
 496 0638 21000000 		.word	mcu1_ppm_cpt
 497 063c 00000000 		.word	vsupply
 498 0640 201C0000 		.word	7200
 499 0644 08000000 		.word	event1_cpt.15
 500 0648 E0E3FFFF 		.word	-7200
 501 064c 0A000000 		.word	event2_cpt.16
 502 0650 00000000 		.word	rc_event_2
 503 0654 00000000 		.word	estimator_flight_time
 505              		.bss
 506              	last_pprz_mode.14:
 507 000c 00       		.space	1
 508              		.text
 509              		.align	2
 511              	checkGPS:
 512              		@ Function supports interworking.
 513              		@ args = 0, pretend = 0, frame = 0
 514              		@ frame_needed = 0, uses_anonymous_args = 0
 515 0658 F0402DE9 		stmfd	sp!, {r4, r5, r6, r7, lr}
 516 065c 7C369FE5 		ldr	r3, .L96
 517 0660 00C0D3E5 		ldrb	ip, [r3, #0]	@ zero_extendqisi2
 518 0664 00005CE3 		cmp	ip, #0
 519 0668 6C02000A 		beq	.L55
 520 066c 70369FE5 		ldr	r3, .L96+4
 521 0670 70269FE5 		ldr	r2, .L96+8
 522 0674 B030D3E1 		ldrh	r3, [r3, #0]
 523 0678 B020D2E1 		ldrh	r2, [r2, #0]
 524 067c 033062E0 		rsb	r3, r2, r3
 525 0680 010053E3 		cmp	r3, #1
 526 0684 340300DA 		ble	.L54
 527 0688 5C469FE5 		ldr	r4, .L96+12
 528 068c 0000D4E5 		ldrb	r0, [r4, #0]	@ zero_extendqisi2
 529 0690 023040E2 		sub	r3, r0, #2
 530 0694 010053E3 		cmp	r3, #1
 531 0698 3403008A 		bhi	.L54
 532 069c 4C169FE5 		ldr	r1, .L96+16
 533 06a0 4CE69FE5 		ldr	lr, .L96+20
 534 06a4 0030D1E5 		ldrb	r3, [r1, #0]	@ zero_extendqisi2
 535 06a8 0020DEE5 		ldrb	r2, [lr, #0]	@ zero_extendqisi2
 536 06ac 030052E1 		cmp	r2, r3
 537 06b0 40369FE5 		ldr	r3, .L96+24
 538 06b4 0000C3E5 		strb	r0, [r3, #0]
 539 06b8 0430A0E3 		mov	r3, #4
 540 06bc 0030C4E5 		strb	r3, [r4, #0]
 541 06c0 0030D125 		ldrcsb	r3, [r1, #0]	@ zero_extendqisi2
 542 06c4 0030D135 		ldrccb	r3, [r1, #0]	@ zero_extendqisi2
 543 06c8 02306320 		rsbcs	r3, r3, r2
 544 06cc 03306230 		rsbcc	r3, r2, r3
 545 06d0 FF306322 		rsbcs	r3, r3, #255
 546 06d4 0D0053E3 		cmp	r3, #13
 547 06d8 1C269FD5 		ldrle	r2, .L96+28
 548 06dc 0030D2D5 		ldrleb	r3, [r2, #0]	@ zero_extendqisi2
 549 06e0 013083D2 		addle	r3, r3, #1
 550 06e4 0030C2D5 		strleb	r3, [r2, #0]
 551 06e8 680200DA 		ble	.L74
 552 06ec 0020DEE5 		ldrb	r2, [lr, #0]	@ zero_extendqisi2
 553 06f0 013082E2 		add	r3, r2, #1
 554 06f4 0030CEE5 		strb	r3, [lr, #0]
 555 06f8 0030DEE5 		ldrb	r3, [lr, #0]	@ zero_extendqisi2
 556 06fc FC659FE5 		ldr	r6, .L96+32
 557 0700 FF0053E3 		cmp	r3, #255
 558 0704 6630E0E3 		mvn	r3, #102
 559 0708 0230C6E7 		strb	r3, [r6, r2]
 560 070c 67308302 		addeq	r3, r3, #103
 561 0710 DCC59FE5 		ldr	ip, .L96+20
 562 0714 0030CE05 		streqb	r3, [lr, #0]
 563 0718 0020DCE5 		ldrb	r2, [ip, #0]	@ zero_extendqisi2
 564 071c 013082E2 		add	r3, r2, #1
 565 0720 0030CCE5 		strb	r3, [ip, #0]
 566 0724 0030DCE5 		ldrb	r3, [ip, #0]	@ zero_extendqisi2
 567 0728 FF0053E3 		cmp	r3, #255
 568 072c 0D30A0E3 		mov	r3, #13
 569 0730 0230C6E7 		strb	r3, [r6, r2]
 570 0734 0D304302 		subeq	r3, r3, #13
 571 0738 0030CC05 		streqb	r3, [ip, #0]
 572 073c 0020DCE5 		ldrb	r2, [ip, #0]	@ zero_extendqisi2
 573 0740 013082E2 		add	r3, r2, #1
 574 0744 0030CCE5 		strb	r3, [ip, #0]
 575 0748 0030DCE5 		ldrb	r3, [ip, #0]	@ zero_extendqisi2
 576 074c B0E59FE5 		ldr	lr, .L96+36
 577 0750 B0559FE5 		ldr	r5, .L96+40
 578 0754 FF0053E3 		cmp	r3, #255
 579 0758 1430A0E3 		mov	r3, #20
 580 075c 0030CEE5 		strb	r3, [lr, #0]
 581 0760 0D3083E2 		add	r3, r3, #13
 582 0764 0030C5E5 		strb	r3, [r5, #0]
 583 0768 1A3043E2 		sub	r3, r3, #26
 584 076c 0230C6E7 		strb	r3, [r6, r2]
 585 0770 07304302 		subeq	r3, r3, #7
 586 0774 0030CC05 		streqb	r3, [ip, #0]
 587 0778 0020DCE5 		ldrb	r2, [ip, #0]	@ zero_extendqisi2
 588 077c 013082E2 		add	r3, r2, #1
 589 0780 0030CCE5 		strb	r3, [ip, #0]
 590 0784 0030DCE5 		ldrb	r3, [ip, #0]	@ zero_extendqisi2
 591 0788 FF0053E3 		cmp	r3, #255
 592 078c 1F30A0E3 		mov	r3, #31
 593 0790 0030CEE5 		strb	r3, [lr, #0]
 594 0794 213083E2 		add	r3, r3, #33
 595 0798 0030C5E5 		strb	r3, [r5, #0]
 596 079c 353043E2 		sub	r3, r3, #53
 597 07a0 0230C6E7 		strb	r3, [r6, r2]
 598 07a4 0B304302 		subeq	r3, r3, #11
 599 07a8 0030CC05 		streqb	r3, [ip, #0]
 600 07ac 0000D4E5 		ldrb	r0, [r4, #0]	@ zero_extendqisi2
 601 07b0 0010DCE5 		ldrb	r1, [ip, #0]	@ zero_extendqisi2
 602 07b4 1F3080E2 		add	r3, r0, #31
 603 07b8 012081E2 		add	r2, r1, #1
 604 07bc 0020CCE5 		strb	r2, [ip, #0]
 605 07c0 0030CEE5 		strb	r3, [lr, #0]
 606 07c4 0030DCE5 		ldrb	r3, [ip, #0]	@ zero_extendqisi2
 607 07c8 0020DEE5 		ldrb	r2, [lr, #0]	@ zero_extendqisi2
 608 07cc FF0053E3 		cmp	r3, #255
 609 07d0 403082E2 		add	r3, r2, #64
 610 07d4 0030C5E5 		strb	r3, [r5, #0]
 611 07d8 0030A003 		moveq	r3, #0
 612 07dc 0030CC05 		streqb	r3, [ip, #0]
 613 07e0 0100C6E7 		strb	r0, [r6, r1]
 614 07e4 20359FE5 		ldr	r3, .L96+44
 615 07e8 0010DCE5 		ldrb	r1, [ip, #0]	@ zero_extendqisi2
 616 07ec 0000D3E5 		ldrb	r0, [r3, #0]	@ zero_extendqisi2
 617 07f0 023080E0 		add	r3, r0, r2
 618 07f4 012081E2 		add	r2, r1, #1
 619 07f8 0030CEE5 		strb	r3, [lr, #0]
 620 07fc 0020CCE5 		strb	r2, [ip, #0]
 621 0800 0030DCE5 		ldrb	r3, [ip, #0]	@ zero_extendqisi2
 622 0804 FF0053E3 		cmp	r3, #255
 623 0808 0040DEE5 		ldrb	r4, [lr, #0]	@ zero_extendqisi2
 624 080c 0020D5E5 		ldrb	r2, [r5, #0]	@ zero_extendqisi2
 625 0810 FF304302 		subeq	r3, r3, #255
 626 0814 0030CC05 		streqb	r3, [ip, #0]
 627 0818 042082E0 		add	r2, r2, r4
 628 081c 0020C5E5 		strb	r2, [r5, #0]
 629 0820 0100C6E7 		strb	r0, [r6, r1]
 630 0824 E4349FE5 		ldr	r3, .L96+48
 631 0828 0010DCE5 		ldrb	r1, [ip, #0]	@ zero_extendqisi2
 632 082c 0000D3E5 		ldrb	r0, [r3, #0]	@ zero_extendqisi2
 633 0830 012081E2 		add	r2, r1, #1
 634 0834 0020CCE5 		strb	r2, [ip, #0]
 635 0838 043080E0 		add	r3, r0, r4
 636 083c 0030CEE5 		strb	r3, [lr, #0]
 637 0840 0030DCE5 		ldrb	r3, [ip, #0]	@ zero_extendqisi2
 638 0844 FF0053E3 		cmp	r3, #255
 639 0848 0040DEE5 		ldrb	r4, [lr, #0]	@ zero_extendqisi2
 640 084c 0020D5E5 		ldrb	r2, [r5, #0]	@ zero_extendqisi2
 641 0850 FF304302 		subeq	r3, r3, #255
 642 0854 0030CC05 		streqb	r3, [ip, #0]
 643 0858 042082E0 		add	r2, r2, r4
 644 085c 0020C5E5 		strb	r2, [r5, #0]
 645 0860 0100C6E7 		strb	r0, [r6, r1]
 646 0864 A8349FE5 		ldr	r3, .L96+52
 647 0868 0010DCE5 		ldrb	r1, [ip, #0]	@ zero_extendqisi2
 648 086c 0000D3E5 		ldrb	r0, [r3, #0]	@ zero_extendqisi2
 649 0870 012081E2 		add	r2, r1, #1
 650 0874 0020CCE5 		strb	r2, [ip, #0]
 651 0878 043080E0 		add	r3, r0, r4
 652 087c 0030CEE5 		strb	r3, [lr, #0]
 653 0880 0030DCE5 		ldrb	r3, [ip, #0]	@ zero_extendqisi2
 654 0884 0040DEE5 		ldrb	r4, [lr, #0]	@ zero_extendqisi2
 655 0888 FF0053E3 		cmp	r3, #255
 656 088c 0020D5E5 		ldrb	r2, [r5, #0]	@ zero_extendqisi2
 657 0890 FF304302 		subeq	r3, r3, #255
 658 0894 0030CC05 		streqb	r3, [ip, #0]
 659 0898 042082E0 		add	r2, r2, r4
 660 089c 0020C5E5 		strb	r2, [r5, #0]
 661 08a0 0100C6E7 		strb	r0, [r6, r1]
 662 08a4 6C349FE5 		ldr	r3, .L96+56
 663 08a8 0010DCE5 		ldrb	r1, [ip, #0]	@ zero_extendqisi2
 664 08ac 0000D3E5 		ldrb	r0, [r3, #0]	@ zero_extendqisi2
 665 08b0 012081E2 		add	r2, r1, #1
 666 08b4 043080E0 		add	r3, r0, r4
 667 08b8 0020CCE5 		strb	r2, [ip, #0]
 668 08bc 0030CEE5 		strb	r3, [lr, #0]
 669 08c0 0030DCE5 		ldrb	r3, [ip, #0]	@ zero_extendqisi2
 670 08c4 0040DEE5 		ldrb	r4, [lr, #0]	@ zero_extendqisi2
 671 08c8 0020D5E5 		ldrb	r2, [r5, #0]	@ zero_extendqisi2
 672 08cc FF0053E3 		cmp	r3, #255
 673 08d0 042082E0 		add	r2, r2, r4
 674 08d4 FF304302 		subeq	r3, r3, #255
 675 08d8 0020C5E5 		strb	r2, [r5, #0]
 676 08dc 0030CC05 		streqb	r3, [ip, #0]
 677 08e0 0100C6E7 		strb	r0, [r6, r1]
 678 08e4 30349FE5 		ldr	r3, .L96+60
 679 08e8 0010DCE5 		ldrb	r1, [ip, #0]	@ zero_extendqisi2
 680 08ec 0000D3E5 		ldrb	r0, [r3, #0]	@ zero_extendqisi2
 681 08f0 012081E2 		add	r2, r1, #1
 682 08f4 0020CCE5 		strb	r2, [ip, #0]
 683 08f8 043080E0 		add	r3, r0, r4
 684 08fc 0030CEE5 		strb	r3, [lr, #0]
 685 0900 0030DCE5 		ldrb	r3, [ip, #0]	@ zero_extendqisi2
 686 0904 0040DEE5 		ldrb	r4, [lr, #0]	@ zero_extendqisi2
 687 0908 0020D5E5 		ldrb	r2, [r5, #0]	@ zero_extendqisi2
 688 090c FF0053E3 		cmp	r3, #255
 689 0910 FF304302 		subeq	r3, r3, #255
 690 0914 042082E0 		add	r2, r2, r4
 691 0918 0030CC05 		streqb	r3, [ip, #0]
 692 091c 0020C5E5 		strb	r2, [r5, #0]
 693 0920 0100C6E7 		strb	r0, [r6, r1]
 694 0924 F4339FE5 		ldr	r3, .L96+64
 695 0928 0010DCE5 		ldrb	r1, [ip, #0]	@ zero_extendqisi2
 696 092c 0000D3E5 		ldrb	r0, [r3, #0]	@ zero_extendqisi2
 697 0930 012081E2 		add	r2, r1, #1
 698 0934 043080E0 		add	r3, r0, r4
 699 0938 0020CCE5 		strb	r2, [ip, #0]
 700 093c 0030CEE5 		strb	r3, [lr, #0]
 701 0940 0020DCE5 		ldrb	r2, [ip, #0]	@ zero_extendqisi2
 702 0944 00E0DEE5 		ldrb	lr, [lr, #0]	@ zero_extendqisi2
 703 0948 0030D5E5 		ldrb	r3, [r5, #0]	@ zero_extendqisi2
 704 094c FF0052E3 		cmp	r2, #255
 705 0950 0E3083E0 		add	r3, r3, lr
 706 0954 0030C5E5 		strb	r3, [r5, #0]
 707 0958 0030A003 		moveq	r3, #0
 708 095c 0030CC05 		streqb	r3, [ip, #0]
 709 0960 0030DCE5 		ldrb	r3, [ip, #0]	@ zero_extendqisi2
 710 0964 012083E2 		add	r2, r3, #1
 711 0968 0020CCE5 		strb	r2, [ip, #0]
 712 096c 0020DCE5 		ldrb	r2, [ip, #0]	@ zero_extendqisi2
 713 0970 FF0052E3 		cmp	r2, #255
 714 0974 0100C6E7 		strb	r0, [r6, r1]
 715 0978 03E0C6E7 		strb	lr, [r6, r3]
 716 097c 0030A003 		moveq	r3, #0
 717 0980 0030CC05 		streqb	r3, [ip, #0]
 718 0984 0010DCE5 		ldrb	r1, [ip, #0]	@ zero_extendqisi2
 719 0988 013081E2 		add	r3, r1, #1
 720 098c 0030CCE5 		strb	r3, [ip, #0]
 721 0990 0030DCE5 		ldrb	r3, [ip, #0]	@ zero_extendqisi2
 722 0994 0020D5E5 		ldrb	r2, [r5, #0]	@ zero_extendqisi2
 723 0998 FF0053E3 		cmp	r3, #255
 724 099c FF304302 		subeq	r3, r3, #255
 725 09a0 0120C6E7 		strb	r2, [r6, r1]
 726 09a4 0030CC05 		streqb	r3, [ip, #0]
 727              	.L74:
 728 09a8 74339FE5 		ldr	r3, .L96+68
 729 09ac 0120A0E3 		mov	r2, #1
 730 09b0 0020C3E5 		strb	r2, [r3, #0]
 731 09b4 340300EA 		b	.L54
 732              	.L55:
 733 09b8 64439FE5 		ldr	r4, .L96+68
 734 09bc 0030D4E5 		ldrb	r3, [r4, #0]	@ zero_extendqisi2
 735 09c0 000053E3 		cmp	r3, #0
 736 09c4 3403000A 		beq	.L54
 737 09c8 20039FE5 		ldr	r0, .L96+16
 738 09cc 20E39FE5 		ldr	lr, .L96+20
 739 09d0 0030D0E5 		ldrb	r3, [r0, #0]	@ zero_extendqisi2
 740 09d4 0010DEE5 		ldrb	r1, [lr, #0]	@ zero_extendqisi2
 741 09d8 030051E1 		cmp	r1, r3
 742 09dc 0030D025 		ldrcsb	r3, [r0, #0]	@ zero_extendqisi2
 743 09e0 0030D035 		ldrccb	r3, [r0, #0]	@ zero_extendqisi2
 744 09e4 0C239FE5 		ldr	r2, .L96+24
 745 09e8 01306320 		rsbcs	r3, r3, r1
 746 09ec 0020D2E5 		ldrb	r2, [r2, #0]	@ zero_extendqisi2
 747 09f0 FF306322 		rsbcs	r3, r3, #255
 748 09f4 03306130 		rsbcc	r3, r1, r3
 749 09f8 EC729FE5 		ldr	r7, .L96+12
 750 09fc 0D0053E3 		cmp	r3, #13
 751 0a00 0020C7E5 		strb	r2, [r7, #0]
 752 0a04 F0229FD5 		ldrle	r2, .L96+28
 753 0a08 0030D2D5 		ldrleb	r3, [r2, #0]	@ zero_extendqisi2
 754 0a0c 013083D2 		addle	r3, r3, #1
 755 0a10 00C0C4E5 		strb	ip, [r4, #0]
 756 0a14 0030C2D5 		strleb	r3, [r2, #0]
 757 0a18 340300DA 		ble	.L54
 758 0a1c 0020DEE5 		ldrb	r2, [lr, #0]	@ zero_extendqisi2
 759 0a20 013082E2 		add	r3, r2, #1
 760 0a24 0030CEE5 		strb	r3, [lr, #0]
 761 0a28 0030DEE5 		ldrb	r3, [lr, #0]	@ zero_extendqisi2
 762 0a2c CC629FE5 		ldr	r6, .L96+32
 763 0a30 FF0053E3 		cmp	r3, #255
 764 0a34 6630E0E3 		mvn	r3, #102
 765 0a38 0230C6E7 		strb	r3, [r6, r2]
 766 0a3c 67308302 		addeq	r3, r3, #103
 767 0a40 ACC29FE5 		ldr	ip, .L96+20
 768 0a44 0030CE05 		streqb	r3, [lr, #0]
 769 0a48 0020DCE5 		ldrb	r2, [ip, #0]	@ zero_extendqisi2
 770 0a4c 013082E2 		add	r3, r2, #1
 771 0a50 0030CCE5 		strb	r3, [ip, #0]
 772 0a54 0030DCE5 		ldrb	r3, [ip, #0]	@ zero_extendqisi2
 773 0a58 FF0053E3 		cmp	r3, #255
 774 0a5c 0D30A0E3 		mov	r3, #13
 775 0a60 0230C6E7 		strb	r3, [r6, r2]
 776 0a64 0D304302 		subeq	r3, r3, #13
 777 0a68 0030CC05 		streqb	r3, [ip, #0]
 778 0a6c 0020DCE5 		ldrb	r2, [ip, #0]	@ zero_extendqisi2
 779 0a70 013082E2 		add	r3, r2, #1
 780 0a74 0030CCE5 		strb	r3, [ip, #0]
 781 0a78 0030DCE5 		ldrb	r3, [ip, #0]	@ zero_extendqisi2
 782 0a7c 80E29FE5 		ldr	lr, .L96+36
 783 0a80 80529FE5 		ldr	r5, .L96+40
 784 0a84 FF0053E3 		cmp	r3, #255
 785 0a88 1430A0E3 		mov	r3, #20
 786 0a8c 0030CEE5 		strb	r3, [lr, #0]
 787 0a90 0D3083E2 		add	r3, r3, #13
 788 0a94 0030C5E5 		strb	r3, [r5, #0]
 789 0a98 1A3043E2 		sub	r3, r3, #26
 790 0a9c 0230C6E7 		strb	r3, [r6, r2]
 791 0aa0 07304302 		subeq	r3, r3, #7
 792 0aa4 0030CC05 		streqb	r3, [ip, #0]
 793 0aa8 0020DCE5 		ldrb	r2, [ip, #0]	@ zero_extendqisi2
 794 0aac 013082E2 		add	r3, r2, #1
 795 0ab0 0030CCE5 		strb	r3, [ip, #0]
 796 0ab4 0030DCE5 		ldrb	r3, [ip, #0]	@ zero_extendqisi2
 797 0ab8 FF0053E3 		cmp	r3, #255
 798 0abc 1F30A0E3 		mov	r3, #31
 799 0ac0 0030CEE5 		strb	r3, [lr, #0]
 800 0ac4 213083E2 		add	r3, r3, #33
 801 0ac8 0030C5E5 		strb	r3, [r5, #0]
 802 0acc 353043E2 		sub	r3, r3, #53
 803 0ad0 0230C6E7 		strb	r3, [r6, r2]
 804 0ad4 0B304302 		subeq	r3, r3, #11
 805 0ad8 0030CC05 		streqb	r3, [ip, #0]
 806 0adc 0000D7E5 		ldrb	r0, [r7, #0]	@ zero_extendqisi2
 807 0ae0 0010DCE5 		ldrb	r1, [ip, #0]	@ zero_extendqisi2
 808 0ae4 1F3080E2 		add	r3, r0, #31
 809 0ae8 012081E2 		add	r2, r1, #1
 810 0aec 0020CCE5 		strb	r2, [ip, #0]
 811 0af0 0030CEE5 		strb	r3, [lr, #0]
 812 0af4 0030DCE5 		ldrb	r3, [ip, #0]	@ zero_extendqisi2
 813 0af8 0020DEE5 		ldrb	r2, [lr, #0]	@ zero_extendqisi2
 814 0afc FF0053E3 		cmp	r3, #255
 815 0b00 403082E2 		add	r3, r2, #64
 816 0b04 0030C5E5 		strb	r3, [r5, #0]
 817 0b08 0030A003 		moveq	r3, #0
 818 0b0c 0030CC05 		streqb	r3, [ip, #0]
 819 0b10 0100C6E7 		strb	r0, [r6, r1]
 820 0b14 F0319FE5 		ldr	r3, .L96+44
 821 0b18 0010DCE5 		ldrb	r1, [ip, #0]	@ zero_extendqisi2
 822 0b1c 0000D3E5 		ldrb	r0, [r3, #0]	@ zero_extendqisi2
 823 0b20 023080E0 		add	r3, r0, r2
 824 0b24 012081E2 		add	r2, r1, #1
 825 0b28 0030CEE5 		strb	r3, [lr, #0]
 826 0b2c 0020CCE5 		strb	r2, [ip, #0]
 827 0b30 0030DCE5 		ldrb	r3, [ip, #0]	@ zero_extendqisi2
 828 0b34 FF0053E3 		cmp	r3, #255
 829 0b38 0040DEE5 		ldrb	r4, [lr, #0]	@ zero_extendqisi2
 830 0b3c 0020D5E5 		ldrb	r2, [r5, #0]	@ zero_extendqisi2
 831 0b40 FF304302 		subeq	r3, r3, #255
 832 0b44 0030CC05 		streqb	r3, [ip, #0]
 833 0b48 042082E0 		add	r2, r2, r4
 834 0b4c 0020C5E5 		strb	r2, [r5, #0]
 835 0b50 0100C6E7 		strb	r0, [r6, r1]
 836 0b54 B4319FE5 		ldr	r3, .L96+48
 837 0b58 0010DCE5 		ldrb	r1, [ip, #0]	@ zero_extendqisi2
 838 0b5c 0000D3E5 		ldrb	r0, [r3, #0]	@ zero_extendqisi2
 839 0b60 012081E2 		add	r2, r1, #1
 840 0b64 0020CCE5 		strb	r2, [ip, #0]
 841 0b68 043080E0 		add	r3, r0, r4
 842 0b6c 0030CEE5 		strb	r3, [lr, #0]
 843 0b70 0030DCE5 		ldrb	r3, [ip, #0]	@ zero_extendqisi2
 844 0b74 FF0053E3 		cmp	r3, #255
 845 0b78 0040DEE5 		ldrb	r4, [lr, #0]	@ zero_extendqisi2
 846 0b7c 0020D5E5 		ldrb	r2, [r5, #0]	@ zero_extendqisi2
 847 0b80 FF304302 		subeq	r3, r3, #255
 848 0b84 0030CC05 		streqb	r3, [ip, #0]
 849 0b88 042082E0 		add	r2, r2, r4
 850 0b8c 0020C5E5 		strb	r2, [r5, #0]
 851 0b90 0100C6E7 		strb	r0, [r6, r1]
 852 0b94 78319FE5 		ldr	r3, .L96+52
 853 0b98 0010DCE5 		ldrb	r1, [ip, #0]	@ zero_extendqisi2
 854 0b9c 0000D3E5 		ldrb	r0, [r3, #0]	@ zero_extendqisi2
 855 0ba0 012081E2 		add	r2, r1, #1
 856 0ba4 0020CCE5 		strb	r2, [ip, #0]
 857 0ba8 043080E0 		add	r3, r0, r4
 858 0bac 0030CEE5 		strb	r3, [lr, #0]
 859 0bb0 0030DCE5 		ldrb	r3, [ip, #0]	@ zero_extendqisi2
 860 0bb4 0040DEE5 		ldrb	r4, [lr, #0]	@ zero_extendqisi2
 861 0bb8 FF0053E3 		cmp	r3, #255
 862 0bbc 0020D5E5 		ldrb	r2, [r5, #0]	@ zero_extendqisi2
 863 0bc0 FF304302 		subeq	r3, r3, #255
 864 0bc4 0030CC05 		streqb	r3, [ip, #0]
 865 0bc8 042082E0 		add	r2, r2, r4
 866 0bcc 0020C5E5 		strb	r2, [r5, #0]
 867 0bd0 0100C6E7 		strb	r0, [r6, r1]
 868 0bd4 3C319FE5 		ldr	r3, .L96+56
 869 0bd8 0010DCE5 		ldrb	r1, [ip, #0]	@ zero_extendqisi2
 870 0bdc 0000D3E5 		ldrb	r0, [r3, #0]	@ zero_extendqisi2
 871 0be0 012081E2 		add	r2, r1, #1
 872 0be4 043080E0 		add	r3, r0, r4
 873 0be8 0020CCE5 		strb	r2, [ip, #0]
 874 0bec 0030CEE5 		strb	r3, [lr, #0]
 875 0bf0 0030DCE5 		ldrb	r3, [ip, #0]	@ zero_extendqisi2
 876 0bf4 0040DEE5 		ldrb	r4, [lr, #0]	@ zero_extendqisi2
 877 0bf8 0020D5E5 		ldrb	r2, [r5, #0]	@ zero_extendqisi2
 878 0bfc FF0053E3 		cmp	r3, #255
 879 0c00 042082E0 		add	r2, r2, r4
 880 0c04 FF304302 		subeq	r3, r3, #255
 881 0c08 0020C5E5 		strb	r2, [r5, #0]
 882 0c0c 0030CC05 		streqb	r3, [ip, #0]
 883 0c10 0100C6E7 		strb	r0, [r6, r1]
 884 0c14 00319FE5 		ldr	r3, .L96+60
 885 0c18 0010DCE5 		ldrb	r1, [ip, #0]	@ zero_extendqisi2
 886 0c1c 0000D3E5 		ldrb	r0, [r3, #0]	@ zero_extendqisi2
 887 0c20 012081E2 		add	r2, r1, #1
 888 0c24 0020CCE5 		strb	r2, [ip, #0]
 889 0c28 043080E0 		add	r3, r0, r4
 890 0c2c 0030CEE5 		strb	r3, [lr, #0]
 891 0c30 0030DCE5 		ldrb	r3, [ip, #0]	@ zero_extendqisi2
 892 0c34 0040DEE5 		ldrb	r4, [lr, #0]	@ zero_extendqisi2
 893 0c38 0020D5E5 		ldrb	r2, [r5, #0]	@ zero_extendqisi2
 894 0c3c FF0053E3 		cmp	r3, #255
 895 0c40 FF304302 		subeq	r3, r3, #255
 896 0c44 042082E0 		add	r2, r2, r4
 897 0c48 0030CC05 		streqb	r3, [ip, #0]
 898 0c4c 0020C5E5 		strb	r2, [r5, #0]
 899 0c50 0100C6E7 		strb	r0, [r6, r1]
 900 0c54 C4309FE5 		ldr	r3, .L96+64
 901 0c58 0010DCE5 		ldrb	r1, [ip, #0]	@ zero_extendqisi2
 902 0c5c 0000D3E5 		ldrb	r0, [r3, #0]	@ zero_extendqisi2
 903 0c60 012081E2 		add	r2, r1, #1
 904 0c64 043080E0 		add	r3, r0, r4
 905 0c68 0020CCE5 		strb	r2, [ip, #0]
 906 0c6c 0030CEE5 		strb	r3, [lr, #0]
 907 0c70 0020DCE5 		ldrb	r2, [ip, #0]	@ zero_extendqisi2
 908 0c74 00E0DEE5 		ldrb	lr, [lr, #0]	@ zero_extendqisi2
 909 0c78 0030D5E5 		ldrb	r3, [r5, #0]	@ zero_extendqisi2
 910 0c7c FF0052E3 		cmp	r2, #255
 911 0c80 0E3083E0 		add	r3, r3, lr
 912 0c84 0030C5E5 		strb	r3, [r5, #0]
 913 0c88 0030A003 		moveq	r3, #0
 914 0c8c 0030CC05 		streqb	r3, [ip, #0]
 915 0c90 0030DCE5 		ldrb	r3, [ip, #0]	@ zero_extendqisi2
 916 0c94 012083E2 		add	r2, r3, #1
 917 0c98 0020CCE5 		strb	r2, [ip, #0]
 918 0c9c 0020DCE5 		ldrb	r2, [ip, #0]	@ zero_extendqisi2
 919 0ca0 FF0052E3 		cmp	r2, #255
 920 0ca4 0100C6E7 		strb	r0, [r6, r1]
 921 0ca8 03E0C6E7 		strb	lr, [r6, r3]
 922 0cac 0030A003 		moveq	r3, #0
 923 0cb0 0030CC05 		streqb	r3, [ip, #0]
 924 0cb4 0010DCE5 		ldrb	r1, [ip, #0]	@ zero_extendqisi2
 925 0cb8 013081E2 		add	r3, r1, #1
 926 0cbc 0030CCE5 		strb	r3, [ip, #0]
 927 0cc0 0030DCE5 		ldrb	r3, [ip, #0]	@ zero_extendqisi2
 928 0cc4 0020D5E5 		ldrb	r2, [r5, #0]	@ zero_extendqisi2
 929 0cc8 FF0053E3 		cmp	r3, #255
 930 0ccc FF304302 		subeq	r3, r3, #255
 931 0cd0 0120C6E7 		strb	r2, [r6, r1]
 932 0cd4 0030CC05 		streqb	r3, [ip, #0]
 933              	.L54:
 934 0cd8 F040BDE8 		ldmfd	sp!, {r4, r5, r6, r7, lr}
 935 0cdc 1EFF2FE1 		bx	lr
 936              	.L97:
 937              		.align	2
 938              	.L96:
 939 0ce0 00000000 		.word	launch
 940 0ce4 00000000 		.word	cpu_time_sec
 941 0ce8 00000000 		.word	last_gps_msg_t
 942 0cec 00000000 		.word	pprz_mode
 943 0cf0 00000000 		.word	tx_tail
 944 0cf4 00000000 		.word	tx_head
 945 0cf8 0C000000 		.word	last_pprz_mode.14
 946 0cfc 00000000 		.word	downlink_nb_ovrn
 947 0d00 00000000 		.word	tx_buf
 948 0d04 00000000 		.word	ck_a
 949 0d08 00000000 		.word	ck_b
 950 0d0c 00000000 		.word	v_ctl_mode
 951 0d10 00000000 		.word	lateral_mode
 952 0d14 00000000 		.word	horizontal_mode
 953 0d18 00000000 		.word	rc_settings_mode
 954 0d1c 20000000 		.word	mcu1_status
 955 0d20 00000000 		.word	ir_estim_mode
 956 0d24 00000000 		.word	gps_lost
 958              		.global	__fixsfsi
 959              		.global	__divdf3
 960              		.global	__fixdfsi
 961              		.align	2
 963              	navigation_task:
 964              		@ Function supports interworking.
 965              		@ args = 0, pretend = 0, frame = 8
 966              		@ frame_needed = 1, uses_anonymous_args = 0
 967 0d28 0DC0A0E1 		mov	ip, sp
 968 0d2c F0D82DE9 		stmfd	sp!, {r4, r5, r6, r7, fp, ip, lr, pc}
 969 0d30 34309FE5 		ldr	r3, .L130
 970 0d34 04B04CE2 		sub	fp, ip, #4
 971 0d38 08D04DE2 		sub	sp, sp, #8
 972 0d3c 0010D3E5 		ldrb	r1, [r3, #0]	@ zero_extendqisi2
 973 0d40 28309FE5 		ldr	r3, .L130+4
 974 0d44 0320A0E3 		mov	r2, #3
 975 0d48 030051E3 		cmp	r1, #3
 976 0d4c 0020C3E5 		strb	r2, [r3, #0]
 977 0d50 5503001A 		bne	.L99
 978 0d54 FEFFFFEB 		bl	nav_home
 979 0d58 6D0300EA 		b	.L100
 980              	.L99:
 981 0d5c 040051E3 		cmp	r1, #4
 982 0d60 6C03001A 		bne	.L101
 983 0d64 FEFFFFEB 		bl	nav_without_gps
 984 0d68 6D0300EA 		b	.L100
 985              	.L131:
 986              		.align	2
 987              	.L130:
 988 0d6c 00000000 		.word	pprz_mode
 989 0d70 00000000 		.word	lateral_mode
 990 0d74 00000000 		.word	estimator_x
 991 0d78 00000000 		.word	estimator_y
 992 0d7c 00000000 		.word	h_ctl_course_pgain
 993 0d80 00000000 		.word	tx_tail
 994 0d84 00000000 		.word	downlink_nb_ovrn
 995 0d88 00000000 		.word	tx_buf
 996 0d8c 00000000 		.word	tx_head
 997 0d90 00000000 		.word	ck_a
 998 0d94 00000000 		.word	ck_b
 999 0d98 00000000 		.word	nav_block
 1000 0d9c 00000000 		.word	nav_stage
 1001 0da0 00000000 		.word	dist2_to_wp
 1002 0da4 00000000 		.word	dist2_to_home
 1003 0da8 FB210940 		.word	1074340347
 1004 0dac 182D4454 		.word	1413754136
 1005 0db0 00209C40 		.word	1083973632
 1006 0db4 00000000 		.word	0
 1007              	.L101:
 1008 0db8 FEFFFFEB 		bl	nav_update
 1009              	.L100:
 1010 0dbc 50301FE5 		ldr	r3, .L130+8
 1011 0dc0 000093E5 		ldr	r0, [r3, #0]	@ float
 1012 0dc4 FEFFFFEB 		bl	__fixsfsi
 1013 0dc8 58301FE5 		ldr	r3, .L130+12
 1014 0dcc BE014BE1 		strh	r0, [fp, #-30]	@ movhi 
 1015 0dd0 000093E5 		ldr	r0, [r3, #0]	@ float
 1016 0dd4 FEFFFFEB 		bl	__fixsfsi
 1017 0dd8 64301FE5 		ldr	r3, .L130+16
 1018 0ddc B0024BE1 		strh	r0, [fp, #-32]	@ movhi 
 1019 0de0 000093E5 		ldr	r0, [r3, #0]	@ float
 1020 0de4 FEFFFFEB 		bl	__extendsfdf2
 1021 0de8 48204FE2 		adr	r2, .L130+60
 1022 0dec 0C0092E8 		ldmia	r2, {r2-r3}
 1023 0df0 FEFFFFEB 		bl	__divdf3
 1024 0df4 4C204FE2 		adr	r2, .L130+68
 1025 0df8 0C0092E8 		ldmia	r2, {r2-r3}
 1026 0dfc FEFFFFEB 		bl	__muldf3
 1027 0e00 FEFFFFEB 		bl	__fixdfsi
 1028 0e04 8C101FE5 		ldr	r1, .L130+20
 1029 0e08 84E01FE5 		ldr	lr, .L130+32
 1030 0e0c 0030D1E5 		ldrb	r3, [r1, #0]	@ zero_extendqisi2
 1031 0e10 0020DEE5 		ldrb	r2, [lr, #0]	@ zero_extendqisi2
 1032 0e14 B2024BE1 		strh	r0, [fp, #-34]	@ movhi 
 1033 0e18 030052E1 		cmp	r2, r3
 1034 0e1c 0030D125 		ldrcsb	r3, [r1, #0]	@ zero_extendqisi2
 1035 0e20 0030D135 		ldrccb	r3, [r1, #0]	@ zero_extendqisi2
 1036 0e24 02306320 		rsbcs	r3, r3, r2
 1037 0e28 03306230 		rsbcc	r3, r2, r3
 1038 0e2c FF306322 		rsbcs	r3, r3, #255
 1039 0e30 160053E3 		cmp	r3, #22
 1040 0e34 B8201FD5 		ldrle	r2, .L130+24
 1041 0e38 0030D2D5 		ldrleb	r3, [r2, #0]	@ zero_extendqisi2
 1042 0e3c 013083D2 		addle	r3, r3, #1
 1043 0e40 0030C2D5 		strleb	r3, [r2, #0]
 1044 0e44 C40400DA 		ble	.L98
 1045 0e48 0020DEE5 		ldrb	r2, [lr, #0]	@ zero_extendqisi2
 1046 0e4c 013082E2 		add	r3, r2, #1
 1047 0e50 0030CEE5 		strb	r3, [lr, #0]
 1048 0e54 0030DEE5 		ldrb	r3, [lr, #0]	@ zero_extendqisi2
 1049 0e58 D8601FE5 		ldr	r6, .L130+28
 1050 0e5c FF0053E3 		cmp	r3, #255
 1051 0e60 6630E0E3 		mvn	r3, #102
 1052 0e64 0230C6E7 		strb	r3, [r6, r2]
 1053 0e68 67308302 		addeq	r3, r3, #103
 1054 0e6c E8C01FE5 		ldr	ip, .L130+32
 1055 0e70 0030CE05 		streqb	r3, [lr, #0]
 1056 0e74 0020DCE5 		ldrb	r2, [ip, #0]	@ zero_extendqisi2
 1057 0e78 013082E2 		add	r3, r2, #1
 1058 0e7c 0030CCE5 		strb	r3, [ip, #0]
 1059 0e80 0030DCE5 		ldrb	r3, [ip, #0]	@ zero_extendqisi2
 1060 0e84 FF0053E3 		cmp	r3, #255
 1061 0e88 1630A0E3 		mov	r3, #22
 1062 0e8c 0230C6E7 		strb	r3, [r6, r2]
 1063 0e90 16304302 		subeq	r3, r3, #22
 1064 0e94 0030CC05 		streqb	r3, [ip, #0]
 1065 0e98 0020DCE5 		ldrb	r2, [ip, #0]	@ zero_extendqisi2
 1066 0e9c 013082E2 		add	r3, r2, #1
 1067 0ea0 0030CCE5 		strb	r3, [ip, #0]
 1068 0ea4 0030DCE5 		ldrb	r3, [ip, #0]	@ zero_extendqisi2
 1069 0ea8 20E11FE5 		ldr	lr, .L130+36
 1070 0eac 20411FE5 		ldr	r4, .L130+40
 1071 0eb0 FF0053E3 		cmp	r3, #255
 1072 0eb4 1D30A0E3 		mov	r3, #29
 1073 0eb8 0030CEE5 		strb	r3, [lr, #0]
 1074 0ebc 163083E2 		add	r3, r3, #22
 1075 0ec0 0030C4E5 		strb	r3, [r4, #0]
 1076 0ec4 2C3043E2 		sub	r3, r3, #44
 1077 0ec8 0230C6E7 		strb	r3, [r6, r2]
 1078 0ecc 07304302 		subeq	r3, r3, #7
 1079 0ed0 0030CC05 		streqb	r3, [ip, #0]
 1080 0ed4 0020DCE5 		ldrb	r2, [ip, #0]	@ zero_extendqisi2
 1081 0ed8 013082E2 		add	r3, r2, #1
 1082 0edc 0030CCE5 		strb	r3, [ip, #0]
 1083 0ee0 0030DCE5 		ldrb	r3, [ip, #0]	@ zero_extendqisi2
 1084 0ee4 FF0053E3 		cmp	r3, #255
 1085 0ee8 2730A0E3 		mov	r3, #39
 1086 0eec 0030CEE5 		strb	r3, [lr, #0]
 1087 0ef0 333083E2 		add	r3, r3, #51
 1088 0ef4 0030C4E5 		strb	r3, [r4, #0]
 1089 0ef8 503043E2 		sub	r3, r3, #80
 1090 0efc 0230C6E7 		strb	r3, [r6, r2]
 1091 0f00 0A304302 		subeq	r3, r3, #10
 1092 0f04 0030CC05 		streqb	r3, [ip, #0]
 1093 0f08 78311FE5 		ldr	r3, .L130+44
 1094 0f0c 0010DCE5 		ldrb	r1, [ip, #0]	@ zero_extendqisi2
 1095 0f10 0000D3E5 		ldrb	r0, [r3, #0]	@ zero_extendqisi2
 1096 0f14 012081E2 		add	r2, r1, #1
 1097 0f18 273080E2 		add	r3, r0, #39
 1098 0f1c 0020CCE5 		strb	r2, [ip, #0]
 1099 0f20 0030CEE5 		strb	r3, [lr, #0]
 1100 0f24 0030DCE5 		ldrb	r3, [ip, #0]	@ zero_extendqisi2
 1101 0f28 0020DEE5 		ldrb	r2, [lr, #0]	@ zero_extendqisi2
 1102 0f2c FF0053E3 		cmp	r3, #255
 1103 0f30 5A3082E2 		add	r3, r2, #90
 1104 0f34 0030C4E5 		strb	r3, [r4, #0]
 1105 0f38 0030A003 		moveq	r3, #0
 1106 0f3c 0030CC05 		streqb	r3, [ip, #0]
 1107 0f40 0100C6E7 		strb	r0, [r6, r1]
 1108 0f44 B0311FE5 		ldr	r3, .L130+48
 1109 0f48 0010DCE5 		ldrb	r1, [ip, #0]	@ zero_extendqisi2
 1110 0f4c 0000D3E5 		ldrb	r0, [r3, #0]	@ zero_extendqisi2
 1111 0f50 023080E0 		add	r3, r0, r2
 1112 0f54 012081E2 		add	r2, r1, #1
 1113 0f58 0030CEE5 		strb	r3, [lr, #0]
 1114 0f5c 0020CCE5 		strb	r2, [ip, #0]
 1115 0f60 0030DCE5 		ldrb	r3, [ip, #0]	@ zero_extendqisi2
 1116 0f64 FF0053E3 		cmp	r3, #255
 1117 0f68 FF304302 		subeq	r3, r3, #255
 1118 0f6c 0030CC05 		streqb	r3, [ip, #0]
 1119 0f70 0050DEE5 		ldrb	r5, [lr, #0]	@ zero_extendqisi2
 1120 0f74 0020D4E5 		ldrb	r2, [r4, #0]	@ zero_extendqisi2
 1121 0f78 0100C6E7 		strb	r0, [r6, r1]
 1122 0f7c 0000DCE5 		ldrb	r0, [ip, #0]	@ zero_extendqisi2
 1123 0f80 052082E0 		add	r2, r2, r5
 1124 0f84 0020C4E5 		strb	r2, [r4, #0]
 1125 0f88 1E105BE5 		ldrb	r1, [fp, #-30]	@ zero_extendqisi2
 1126 0f8c 012080E2 		add	r2, r0, #1
 1127 0f90 0020CCE5 		strb	r2, [ip, #0]
 1128 0f94 053081E0 		add	r3, r1, r5
 1129 0f98 0030CEE5 		strb	r3, [lr, #0]
 1130 0f9c 0030DCE5 		ldrb	r3, [ip, #0]	@ zero_extendqisi2
 1131 0fa0 FF0053E3 		cmp	r3, #255
 1132 0fa4 FF304302 		subeq	r3, r3, #255
 1133 0fa8 0030CC05 		streqb	r3, [ip, #0]
 1134 0fac 0050DEE5 		ldrb	r5, [lr, #0]	@ zero_extendqisi2
 1135 0fb0 0020D4E5 		ldrb	r2, [r4, #0]	@ zero_extendqisi2
 1136 0fb4 0010C6E7 		strb	r1, [r6, r0]
 1137 0fb8 0000DCE5 		ldrb	r0, [ip, #0]	@ zero_extendqisi2
 1138 0fbc 052082E0 		add	r2, r2, r5
 1139 0fc0 1D105BE5 		ldrb	r1, [fp, #-29]	@ zero_extendqisi2
 1140 0fc4 0020C4E5 		strb	r2, [r4, #0]
 1141 0fc8 012080E2 		add	r2, r0, #1
 1142 0fcc 0020CCE5 		strb	r2, [ip, #0]
 1143 0fd0 053081E0 		add	r3, r1, r5
 1144 0fd4 0030CEE5 		strb	r3, [lr, #0]
 1145 0fd8 0030DCE5 		ldrb	r3, [ip, #0]	@ zero_extendqisi2
 1146 0fdc FF0053E3 		cmp	r3, #255
 1147 0fe0 FF304302 		subeq	r3, r3, #255
 1148 0fe4 0030CC05 		streqb	r3, [ip, #0]
 1149 0fe8 0050DEE5 		ldrb	r5, [lr, #0]	@ zero_extendqisi2
 1150 0fec 0020D4E5 		ldrb	r2, [r4, #0]	@ zero_extendqisi2
 1151 0ff0 0010C6E7 		strb	r1, [r6, r0]
 1152 0ff4 0000DCE5 		ldrb	r0, [ip, #0]	@ zero_extendqisi2
 1153 0ff8 20105BE5 		ldrb	r1, [fp, #-32]	@ zero_extendqisi2
 1154 0ffc 052082E0 		add	r2, r2, r5
 1155 1000 0020C4E5 		strb	r2, [r4, #0]
 1156 1004 012080E2 		add	r2, r0, #1
 1157 1008 053081E0 		add	r3, r1, r5
 1158 100c 0020CCE5 		strb	r2, [ip, #0]
 1159 1010 0030CEE5 		strb	r3, [lr, #0]
 1160 1014 0030DCE5 		ldrb	r3, [ip, #0]	@ zero_extendqisi2
 1161 1018 0050DEE5 		ldrb	r5, [lr, #0]	@ zero_extendqisi2
 1162 101c 0020D4E5 		ldrb	r2, [r4, #0]	@ zero_extendqisi2
 1163 1020 FF0053E3 		cmp	r3, #255
 1164 1024 052082E0 		add	r2, r2, r5
 1165 1028 FF304302 		subeq	r3, r3, #255
 1166 102c 0020C4E5 		strb	r2, [r4, #0]
 1167 1030 0030CC05 		streqb	r3, [ip, #0]
 1168 1034 0010C6E7 		strb	r1, [r6, r0]
 1169 1038 0000DCE5 		ldrb	r0, [ip, #0]	@ zero_extendqisi2
 1170 103c 1F105BE5 		ldrb	r1, [fp, #-31]	@ zero_extendqisi2
 1171 1040 012080E2 		add	r2, r0, #1
 1172 1044 0020CCE5 		strb	r2, [ip, #0]
 1173 1048 053081E0 		add	r3, r1, r5
 1174 104c 0030CEE5 		strb	r3, [lr, #0]
 1175 1050 0030DCE5 		ldrb	r3, [ip, #0]	@ zero_extendqisi2
 1176 1054 FF0053E3 		cmp	r3, #255
 1177 1058 FF304302 		subeq	r3, r3, #255
 1178 105c 0030CC05 		streqb	r3, [ip, #0]
 1179 1060 0050DEE5 		ldrb	r5, [lr, #0]	@ zero_extendqisi2
 1180 1064 0020D4E5 		ldrb	r2, [r4, #0]	@ zero_extendqisi2
 1181 1068 0010C6E7 		strb	r1, [r6, r0]
 1182 106c 0000DCE5 		ldrb	r0, [ip, #0]	@ zero_extendqisi2
 1183 1070 052082E0 		add	r2, r2, r5
 1184 1074 0020C4E5 		strb	r2, [r4, #0]
 1185 1078 22105BE5 		ldrb	r1, [fp, #-34]	@ zero_extendqisi2
 1186 107c 012080E2 		add	r2, r0, #1
 1187 1080 0020CCE5 		strb	r2, [ip, #0]
 1188 1084 053081E0 		add	r3, r1, r5
 1189 1088 0030CEE5 		strb	r3, [lr, #0]
 1190 108c 0030DCE5 		ldrb	r3, [ip, #0]	@ zero_extendqisi2
 1191 1090 FF0053E3 		cmp	r3, #255
 1192 1094 FF304302 		subeq	r3, r3, #255
 1193 1098 0030CC05 		streqb	r3, [ip, #0]
 1194 109c 0050DEE5 		ldrb	r5, [lr, #0]	@ zero_extendqisi2
 1195 10a0 0020D4E5 		ldrb	r2, [r4, #0]	@ zero_extendqisi2
 1196 10a4 0010C6E7 		strb	r1, [r6, r0]
 1197 10a8 0000DCE5 		ldrb	r0, [ip, #0]	@ zero_extendqisi2
 1198 10ac 21105BE5 		ldrb	r1, [fp, #-33]	@ zero_extendqisi2
 1199 10b0 052082E0 		add	r2, r2, r5
 1200 10b4 0020C4E5 		strb	r2, [r4, #0]
 1201 10b8 012080E2 		add	r2, r0, #1
 1202 10bc 0020CCE5 		strb	r2, [ip, #0]
 1203 10c0 053081E0 		add	r3, r1, r5
 1204 10c4 0030CEE5 		strb	r3, [lr, #0]
 1205 10c8 0030DCE5 		ldrb	r3, [ip, #0]	@ zero_extendqisi2
 1206 10cc 0050DEE5 		ldrb	r5, [lr, #0]	@ zero_extendqisi2
 1207 10d0 0020D4E5 		ldrb	r2, [r4, #0]	@ zero_extendqisi2
 1208 10d4 FF0053E3 		cmp	r3, #255
 1209 10d8 052082E0 		add	r2, r2, r5
 1210 10dc FF304302 		subeq	r3, r3, #255
 1211 10e0 0030CC05 		streqb	r3, [ip, #0]
 1212 10e4 4C731FE5 		ldr	r7, .L130+52
 1213 10e8 0020C4E5 		strb	r2, [r4, #0]
 1214 10ec 0010C6E7 		strb	r1, [r6, r0]
 1215 10f0 0000DCE5 		ldrb	r0, [ip, #0]	@ zero_extendqisi2
 1216 10f4 0010D7E5 		ldrb	r1, [r7, #0]	@ zero_extendqisi2
 1217 10f8 012080E2 		add	r2, r0, #1
 1218 10fc 053081E0 		add	r3, r1, r5
 1219 1100 0030CEE5 		strb	r3, [lr, #0]
 1220 1104 0020CCE5 		strb	r2, [ip, #0]
 1221 1108 0030DCE5 		ldrb	r3, [ip, #0]	@ zero_extendqisi2
 1222 110c FF0053E3 		cmp	r3, #255
 1223 1110 0050DEE5 		ldrb	r5, [lr, #0]	@ zero_extendqisi2
 1224 1114 0020D4E5 		ldrb	r2, [r4, #0]	@ zero_extendqisi2
 1225 1118 FF304302 		subeq	r3, r3, #255
 1226 111c 0030CC05 		streqb	r3, [ip, #0]
 1227 1120 052082E0 		add	r2, r2, r5
 1228 1124 0020C4E5 		strb	r2, [r4, #0]
 1229 1128 0010C6E7 		strb	r1, [r6, r0]
 1230 112c 0000DCE5 		ldrb	r0, [ip, #0]	@ zero_extendqisi2
 1231 1130 0110D7E5 		ldrb	r1, [r7, #1]	@ zero_extendqisi2
 1232 1134 012080E2 		add	r2, r0, #1
 1233 1138 0020CCE5 		strb	r2, [ip, #0]
 1234 113c 053081E0 		add	r3, r1, r5
 1235 1140 0030CEE5 		strb	r3, [lr, #0]
 1236 1144 0030DCE5 		ldrb	r3, [ip, #0]	@ zero_extendqisi2
 1237 1148 FF0053E3 		cmp	r3, #255
 1238 114c 0050DEE5 		ldrb	r5, [lr, #0]	@ zero_extendqisi2
 1239 1150 0020D4E5 		ldrb	r2, [r4, #0]	@ zero_extendqisi2
 1240 1154 FF304302 		subeq	r3, r3, #255
 1241 1158 0030CC05 		streqb	r3, [ip, #0]
 1242 115c 052082E0 		add	r2, r2, r5
 1243 1160 0020C4E5 		strb	r2, [r4, #0]
 1244 1164 0010C6E7 		strb	r1, [r6, r0]
 1245 1168 0000DCE5 		ldrb	r0, [ip, #0]	@ zero_extendqisi2
 1246 116c 0210D7E5 		ldrb	r1, [r7, #2]	@ zero_extendqisi2
 1247 1170 012080E2 		add	r2, r0, #1
 1248 1174 0020CCE5 		strb	r2, [ip, #0]
 1249 1178 053081E0 		add	r3, r1, r5
 1250 117c 0030CEE5 		strb	r3, [lr, #0]
 1251 1180 0030DCE5 		ldrb	r3, [ip, #0]	@ zero_extendqisi2
 1252 1184 0050DEE5 		ldrb	r5, [lr, #0]	@ zero_extendqisi2
 1253 1188 FF0053E3 		cmp	r3, #255
 1254 118c 0020D4E5 		ldrb	r2, [r4, #0]	@ zero_extendqisi2
 1255 1190 FF304302 		subeq	r3, r3, #255
 1256 1194 0030CC05 		streqb	r3, [ip, #0]
 1257 1198 052082E0 		add	r2, r2, r5
 1258 119c 0020C4E5 		strb	r2, [r4, #0]
 1259 11a0 0010C6E7 		strb	r1, [r6, r0]
 1260 11a4 0010DCE5 		ldrb	r1, [ip, #0]	@ zero_extendqisi2
 1261 11a8 0300D7E5 		ldrb	r0, [r7, #3]	@ zero_extendqisi2
 1262 11ac 012081E2 		add	r2, r1, #1
 1263 11b0 053080E0 		add	r3, r0, r5
 1264 11b4 0020CCE5 		strb	r2, [ip, #0]
 1265 11b8 0030CEE5 		strb	r3, [lr, #0]
 1266 11bc 0030DCE5 		ldrb	r3, [ip, #0]	@ zero_extendqisi2
 1267 11c0 0050DEE5 		ldrb	r5, [lr, #0]	@ zero_extendqisi2
 1268 11c4 0020D4E5 		ldrb	r2, [r4, #0]	@ zero_extendqisi2
 1269 11c8 FF0053E3 		cmp	r3, #255
 1270 11cc 052082E0 		add	r2, r2, r5
 1271 11d0 FF304302 		subeq	r3, r3, #255
 1272 11d4 0020C4E5 		strb	r2, [r4, #0]
 1273 11d8 0030CC05 		streqb	r3, [ip, #0]
 1274 11dc 0100C6E7 		strb	r0, [r6, r1]
 1275 11e0 44741FE5 		ldr	r7, .L130+56
 1276 11e4 0000DCE5 		ldrb	r0, [ip, #0]	@ zero_extendqisi2
 1277 11e8 0010D7E5 		ldrb	r1, [r7, #0]	@ zero_extendqisi2
 1278 11ec 012080E2 		add	r2, r0, #1
 1279 11f0 0020CCE5 		strb	r2, [ip, #0]
 1280 11f4 053081E0 		add	r3, r1, r5
 1281 11f8 0030CEE5 		strb	r3, [lr, #0]
 1282 11fc 0030DCE5 		ldrb	r3, [ip, #0]	@ zero_extendqisi2
 1283 1200 FF0053E3 		cmp	r3, #255
 1284 1204 0050DEE5 		ldrb	r5, [lr, #0]	@ zero_extendqisi2
 1285 1208 0020D4E5 		ldrb	r2, [r4, #0]	@ zero_extendqisi2
 1286 120c FF304302 		subeq	r3, r3, #255
 1287 1210 0030CC05 		streqb	r3, [ip, #0]
 1288 1214 052082E0 		add	r2, r2, r5
 1289 1218 0020C4E5 		strb	r2, [r4, #0]
 1290 121c 0010C6E7 		strb	r1, [r6, r0]
 1291 1220 0000DCE5 		ldrb	r0, [ip, #0]	@ zero_extendqisi2
 1292 1224 0110D7E5 		ldrb	r1, [r7, #1]	@ zero_extendqisi2
 1293 1228 012080E2 		add	r2, r0, #1
 1294 122c 0020CCE5 		strb	r2, [ip, #0]
 1295 1230 053081E0 		add	r3, r1, r5
 1296 1234 0030CEE5 		strb	r3, [lr, #0]
 1297 1238 0030DCE5 		ldrb	r3, [ip, #0]	@ zero_extendqisi2
 1298 123c 0050DEE5 		ldrb	r5, [lr, #0]	@ zero_extendqisi2
 1299 1240 0020D4E5 		ldrb	r2, [r4, #0]	@ zero_extendqisi2
 1300 1244 FF0053E3 		cmp	r3, #255
 1301 1248 FF304302 		subeq	r3, r3, #255
 1302 124c 0030CC05 		streqb	r3, [ip, #0]
 1303 1250 052082E0 		add	r2, r2, r5
 1304 1254 0020C4E5 		strb	r2, [r4, #0]
 1305 1258 0010C6E7 		strb	r1, [r6, r0]
 1306 125c 0000DCE5 		ldrb	r0, [ip, #0]	@ zero_extendqisi2
 1307 1260 0210D7E5 		ldrb	r1, [r7, #2]	@ zero_extendqisi2
 1308 1264 012080E2 		add	r2, r0, #1
 1309 1268 0020CCE5 		strb	r2, [ip, #0]
 1310 126c 053081E0 		add	r3, r1, r5
 1311 1270 0030CEE5 		strb	r3, [lr, #0]
 1312 1274 0030DCE5 		ldrb	r3, [ip, #0]	@ zero_extendqisi2
 1313 1278 0050DEE5 		ldrb	r5, [lr, #0]	@ zero_extendqisi2
 1314 127c 0020D4E5 		ldrb	r2, [r4, #0]	@ zero_extendqisi2
 1315 1280 FF0053E3 		cmp	r3, #255
 1316 1284 FF304302 		subeq	r3, r3, #255
 1317 1288 052082E0 		add	r2, r2, r5
 1318 128c 0030CC05 		streqb	r3, [ip, #0]
 1319 1290 0020C4E5 		strb	r2, [r4, #0]
 1320 1294 0010C6E7 		strb	r1, [r6, r0]
 1321 1298 0010DCE5 		ldrb	r1, [ip, #0]	@ zero_extendqisi2
 1322 129c 0300D7E5 		ldrb	r0, [r7, #3]	@ zero_extendqisi2
 1323 12a0 012081E2 		add	r2, r1, #1
 1324 12a4 053080E0 		add	r3, r0, r5
 1325 12a8 0030CEE5 		strb	r3, [lr, #0]
 1326 12ac 0020CCE5 		strb	r2, [ip, #0]
 1327 12b0 00E0DEE5 		ldrb	lr, [lr, #0]	@ zero_extendqisi2
 1328 12b4 0020DCE5 		ldrb	r2, [ip, #0]	@ zero_extendqisi2
 1329 12b8 0030D4E5 		ldrb	r3, [r4, #0]	@ zero_extendqisi2
 1330 12bc FF0052E3 		cmp	r2, #255
 1331 12c0 0E3083E0 		add	r3, r3, lr
 1332 12c4 0030C4E5 		strb	r3, [r4, #0]
 1333 12c8 0030A003 		moveq	r3, #0
 1334 12cc 0030CC05 		streqb	r3, [ip, #0]
 1335 12d0 0030DCE5 		ldrb	r3, [ip, #0]	@ zero_extendqisi2
 1336 12d4 012083E2 		add	r2, r3, #1
 1337 12d8 0020CCE5 		strb	r2, [ip, #0]
 1338 12dc 0020DCE5 		ldrb	r2, [ip, #0]	@ zero_extendqisi2
 1339 12e0 FF0052E3 		cmp	r2, #255
 1340 12e4 0100C6E7 		strb	r0, [r6, r1]
 1341 12e8 03E0C6E7 		strb	lr, [r6, r3]
 1342 12ec 0030A003 		moveq	r3, #0
 1343 12f0 0030CC05 		streqb	r3, [ip, #0]
 1344 12f4 0010DCE5 		ldrb	r1, [ip, #0]	@ zero_extendqisi2
 1345 12f8 013081E2 		add	r3, r1, #1
 1346 12fc 0030CCE5 		strb	r3, [ip, #0]
 1347 1300 0030DCE5 		ldrb	r3, [ip, #0]	@ zero_extendqisi2
 1348 1304 0020D4E5 		ldrb	r2, [r4, #0]	@ zero_extendqisi2
 1349 1308 FF0053E3 		cmp	r3, #255
 1350 130c FF304302 		subeq	r3, r3, #255
 1351 1310 0120C6E7 		strb	r2, [r6, r1]
 1352 1314 0030CC05 		streqb	r3, [ip, #0]
 1353              	.L98:
 1354 1318 1CD04BE2 		sub	sp, fp, #28
 1355 131c F0689DE8 		ldmfd	sp, {r4, r5, r6, r7, fp, sp, lr}
 1356 1320 1EFF2FE1 		bx	lr
 1358              		.align	2
 1360              	constraint_task:
 1361              		@ Function supports interworking.
 1362              		@ args = 0, pretend = 0, frame = 0
 1363              		@ frame_needed = 0, uses_anonymous_args = 0
 1364              		@ link register save eliminated.
 1365              		@ lr needed for prologue
 1366 1324 1EFF2FE1 		bx	lr
 1368              		.global	__floatsidf
 1369              		.global	__addsf3
 1370              		.global	__gtsf2
 1371              		.global	__ltsf2
 1372              		.align	2
 1374              	guidance_task:
 1375              		@ Function supports interworking.
 1376              		@ args = 0, pretend = 0, frame = 0
 1377              		@ frame_needed = 1, uses_anonymous_args = 0
 1378 1328 0DC0A0E1 		mov	ip, sp
 1379 132c F0D92DE9 		stmfd	sp!, {r4, r5, r6, r7, r8, fp, ip, lr, pc}
 1380 1330 C8419FE5 		ldr	r4, .L150+16
 1381 1334 0030D4E5 		ldrb	r3, [r4, #0]	@ zero_extendqisi2
 1382 1338 030053E3 		cmp	r3, #3
 1383 133c 04B04CE2 		sub	fp, ip, #4
 1384 1340 FEFFFF0B 		bleq	v_ctl_altitude_loop
 1385              	.L134:
 1386 1344 B8319FE5 		ldr	r3, .L150+20
 1387 1348 0030D3E5 		ldrb	r3, [r3, #0]	@ zero_extendqisi2
 1388 134c 023043E2 		sub	r3, r3, #2
 1389 1350 020053E3 		cmp	r3, #2
 1390 1354 2505008A 		bhi	.L135
 1391 1358 A8319FE5 		ldr	r3, .L150+24
 1392 135c 0030D3E5 		ldrb	r3, [r3, #0]	@ zero_extendqisi2
 1393 1360 020053E3 		cmp	r3, #2
 1394 1364 A0319FE5 		ldr	r3, .L150+28
 1395 1368 0080A0E3 		mov	r8, #0
 1396 136c 0080C3E5 		strb	r8, [r3, #0]
 1397 1370 FEFFFF8B 		blhi	h_ctl_course_loop
 1398              	.L136:
 1399 1374 0030D4E5 		ldrb	r3, [r4, #0]	@ zero_extendqisi2
 1400 1378 010053E3 		cmp	r3, #1
 1401 137c FEFFFF8B 		blhi	v_ctl_climb_loop
 1402              	.L137:
 1403 1380 0030D4E5 		ldrb	r3, [r4, #0]	@ zero_extendqisi2
 1404 1384 010053E3 		cmp	r3, #1
 1405 1388 80219F05 		ldreq	r2, .L150+32
 1406 138c 80319F05 		ldreq	r3, .L150+36
 1407 1390 B020D201 		ldreqh	r2, [r2, #0]
 1408 1394 78719FE5 		ldr	r7, .L150+36
 1409 1398 B020C301 		streqh	r2, [r3, #0]	@ movhi 
 1410 139c F000D7E1 		ldrsh	r0, [r7, #0]
 1411 13a0 FEFFFFEB 		bl	__floatsidf
 1412 13a4 6C319FE5 		ldr	r3, .L150+40
 1413 13a8 D040D3E1 		ldrsb	r4, [r3, #0]
 1414 13ac 0160A0E1 		mov	r6, r1
 1415 13b0 0050A0E1 		mov	r5, r0
 1416 13b4 0400A0E1 		mov	r0, r4
 1417 13b8 FEFFFFEB 		bl	__floatsisf
 1418 13bc 000054E3 		cmp	r4, #0
 1419 13c0 54119FB5 		ldrlt	r1, .L150+44
 1420 13c4 FEFFFFBB 		bllt	__addsf3
 1421              	.L139:
 1422 13c8 FEFFFFEB 		bl	__extendsfdf2
 1423 13cc 0130A0E1 		mov	r3, r1
 1424 13d0 0020A0E1 		mov	r2, r0
 1425 13d4 450F8FE2 		adr	r0, .L150
 1426 13d8 030090E8 		ldmia	r0, {r0-r1}
 1427 13dc FEFFFFEB 		bl	__divdf3
 1428 13e0 0130A0E1 		mov	r3, r1
 1429 13e4 0020A0E1 		mov	r2, r0
 1430 13e8 0610A0E1 		mov	r1, r6
 1431 13ec 0500A0E1 		mov	r0, r5
 1432 13f0 FEFFFFEB 		bl	__muldf3
 1433 13f4 FEFFFFEB 		bl	__fixdfsi
 1434 13f8 B000C7E1 		strh	r0, [r7, #0]	@ movhi 
 1435 13fc F030D7E1 		ldrsh	r3, [r7, #0]
 1436 1400 000053E3 		cmp	r3, #0
 1437 1404 07C0A0E1 		mov	ip, r7
 1438 1408 0820A0B1 		movlt	r2, r8	@ movhi
 1439 140c 050500BA 		blt	.L141
 1440 1410 960D53E3 		cmp	r3, #9600
 1441 1414 0320A0B1 		movlt	r2, r3
 1442 1418 962DA0A3 		movge	r2, #9600
 1443              	.L141:
 1444 141c FC309FE5 		ldr	r3, .L150+48
 1445 1420 FC609FE5 		ldr	r6, .L150+52
 1446 1424 004093E5 		ldr	r4, [r3, #0]	@ float
 1447 1428 3F14A0E3 		mov	r1, #1056964608
 1448 142c 0400A0E1 		mov	r0, r4
 1449 1430 B020CCE1 		strh	r2, [ip, #0]	@ movhi 
 1450 1434 004086E5 		str	r4, [r6, #0]	@ float
 1451 1438 FEFFFFEB 		bl	__gtsf2
 1452 143c 000050E3 		cmp	r0, #0
 1453 1440 3F34A0C3 		movgt	r3, #1056964608
 1454 1444 160500CA 		bgt	.L149
 1455 1448 0400A0E1 		mov	r0, r4
 1456 144c BF14A0E3 		mov	r1, #-1090519040
 1457 1450 FEFFFFEB 		bl	__ltsf2
 1458 1454 000050E3 		cmp	r0, #0
 1459 1458 170500AA 		bge	.L144
 1460 145c BF34A0E3 		mov	r3, #-1090519040
 1461              	.L149:
 1462 1460 003086E5 		str	r3, [r6, #0]	@ float
 1463              	.L144:
 1464 1464 BC309FE5 		ldr	r3, .L150+56
 1465 1468 0030D3E5 		ldrb	r3, [r3, #0]	@ zero_extendqisi2
 1466 146c 000053E3 		cmp	r3, #0
 1467 1470 2305001A 		bne	.L148
 1468 1474 B0309FE5 		ldr	r3, .L150+60
 1469 1478 B030D3E1 		ldrh	r3, [r3, #0]
 1470 147c 000053E3 		cmp	r3, #0
 1471 1480 2505001A 		bne	.L135
 1472 1484 A4309FE5 		ldr	r3, .L150+64
 1473 1488 0030D3E5 		ldrb	r3, [r3, #0]	@ zero_extendqisi2
 1474 148c 000053E3 		cmp	r3, #0
 1475 1490 2505001A 		bne	.L135
 1476              	.L148:
 1477 1494 0030A0E3 		mov	r3, #0	@ movhi
 1478 1498 B030C7E1 		strh	r3, [r7, #0]	@ movhi 
 1479              	.L135:
 1480 149c 90609FE5 		ldr	r6, .L150+68
 1481 14a0 000096E5 		ldr	r0, [r6, #0]	@ float
 1482 14a4 FEFFFFEB 		bl	__extendsfdf2
 1483 14a8 64309FE5 		ldr	r3, .L150+36
 1484 14ac 0150A0E1 		mov	r5, r1
 1485 14b0 0040A0E1 		mov	r4, r0
 1486 14b4 F000D3E1 		ldrsh	r0, [r3, #0]
 1487 14b8 FEFFFFEB 		bl	__floatsisf
 1488 14bc FEFFFFEB 		bl	__extendsfdf2
 1489 14c0 30208FE2 		adr	r2, .L150+8
 1490 14c4 0C0092E8 		ldmia	r2, {r2-r3}
 1491 14c8 FEFFFFEB 		bl	__muldf3
 1492 14cc 0130A0E1 		mov	r3, r1
 1493 14d0 0020A0E1 		mov	r2, r0
 1494 14d4 0510A0E1 		mov	r1, r5
 1495 14d8 0400A0E1 		mov	r0, r4
 1496 14dc FEFFFFEB 		bl	__adddf3
 1497 14e0 FEFFFFEB 		bl	__truncdfsf2
 1498 14e4 000086E5 		str	r0, [r6, #0]	@ float
 1499 14e8 F0699DE8 		ldmfd	sp, {r4, r5, r6, r7, r8, fp, sp, lr}
 1500 14ec 1EFF2FE1 		bx	lr
 1501              	.L151:
 1502              		.align	2
 1503              	.L150:
 1504 14f0 00C05B40 		.word	1079754752
 1505 14f4 00000000 		.word	0
 1506 14f8 D57BF73E 		.word	1056406485
 1507 14fc D8A69EF2 		.word	-224483624
 1508 1500 00000000 		.word	v_ctl_mode
 1509 1504 00000000 		.word	pprz_mode
 1510 1508 00000000 		.word	lateral_mode
 1511 150c 00000000 		.word	h_ctl_auto1_rate
 1512 1510 00000000 		.word	nav_throttle_setpoint
 1513 1514 00000000 		.word	v_ctl_throttle_setpoint
 1514 1518 00000000 		.word	vsupply
 1515 151c 00008043 		.word	1132462080
 1516 1520 00000000 		.word	nav_pitch
 1517 1524 00000000 		.word	h_ctl_pitch_setpoint
 1518 1528 00000000 		.word	kill_throttle
 1519 152c 00000000 		.word	estimator_flight_time
 1520 1530 00000000 		.word	launch
 1521 1534 00000000 		.word	energy
 1523              		.align	2
 1525              	controllability_task:
 1526              		@ Function supports interworking.
 1527              		@ args = 0, pretend = 0, frame = 0
 1528              		@ frame_needed = 0, uses_anonymous_args = 0
 1529              		@ link register save eliminated.
 1530              		@ lr needed for prologue
 1531 1538 1EFF2FE1 		bx	lr
 1533              		.align	2
 1535              	statistics_task:
 1536              		@ Function supports interworking.
 1537              		@ args = 0, pretend = 0, frame = 0
 1538              		@ frame_needed = 0, uses_anonymous_args = 0
 1539              		@ link register save eliminated.
 1540              		@ lr needed for prologue
 1541 153c 1EFF2FE1 		bx	lr
 1543              		.bss
 1544              	_20Hz.0:
 1545 000d 00       		.space	1
 1546              	_10Hz.1:
 1547 000e 00       		.space	1
 1548              	_4Hz.2:
 1549 000f 00       		.space	1
 1550              	_1Hz.3:
 1551 0010 00       		.space	1
 1552              		.data
 1555              	boot.5:
 1556 0003 01       		.byte	1
 1557              		.bss
 1558              	i30.6:
 1559 0011 00       		.space	1
 1560              	i60.7:
 1561 0012 00       		.space	1
 1562              	i120.8:
 1563 0013 00       		.space	1
 1564              		.align	1
 1565              	i300.9:
 1566 0014 0000     		.space	2
 1567              		.align	1
 1568              	i540.10:
 1569 0016 0000     		.space	2
 1570              	i.11:
 1571 0018 00       		.space	1
 1572              	i.12:
 1573 0019 00       		.space	1
 1574              	i30.13:
 1575 001a 00       		.space	1
 1576              	t.4:
 1577 001b 00       		.space	1
 1578              		.global	__ltdf2
 1579              		.text
 1580              		.align	2
 1581              		.global	periodic_task_ap
 1583              	periodic_task_ap:
 1584              		@ Function supports interworking.
 1585              		@ args = 0, pretend = 0, frame = 28
 1586              		@ frame_needed = 1, uses_anonymous_args = 0
 1587 1540 0DC0A0E1 		mov	ip, sp
 1588 1544 F0DF2DE9 		stmfd	sp!, {r4, r5, r6, r7, r8, r9, sl, fp, ip, lr, pc}
 1589 1548 28269FE5 		ldr	r2, .L654+16
 1590 154c 04B04CE2 		sub	fp, ip, #4
 1591 1550 1CD04DE2 		sub	sp, sp, #28
 1592 1554 0030D2E5 		ldrb	r3, [r2, #0]	@ zero_extendqisi2
 1593 1558 013083E2 		add	r3, r3, #1
 1594 155c 0030C2E5 		strb	r3, [r2, #0]
 1595 1560 0030D2E5 		ldrb	r3, [r2, #0]	@ zero_extendqisi2
 1596 1564 020053E3 		cmp	r3, #2
 1597 1568 0030A083 		movhi	r3, #0
 1598 156c 0030C285 		strhib	r3, [r2, #0]
 1599 1570 04269FE5 		ldr	r2, .L654+20
 1600 1574 0030D2E5 		ldrb	r3, [r2, #0]	@ zero_extendqisi2
 1601 1578 013083E2 		add	r3, r3, #1
 1602 157c 0030C2E5 		strb	r3, [r2, #0]
 1603 1580 0030D2E5 		ldrb	r3, [r2, #0]	@ zero_extendqisi2
 1604 1584 050053E3 		cmp	r3, #5
 1605 1588 0030A083 		movhi	r3, #0
 1606 158c 0030C285 		strhib	r3, [r2, #0]
 1607 1590 E8259FE5 		ldr	r2, .L654+24
 1608 1594 0030D2E5 		ldrb	r3, [r2, #0]	@ zero_extendqisi2
 1609 1598 013083E2 		add	r3, r3, #1
 1610 159c 0030C2E5 		strb	r3, [r2, #0]
 1611 15a0 0030D2E5 		ldrb	r3, [r2, #0]	@ zero_extendqisi2
 1612 15a4 0E0053E3 		cmp	r3, #14
 1613 15a8 0030A083 		movhi	r3, #0
 1614 15ac 0030C285 		strhib	r3, [r2, #0]
 1615 15b0 CC259FE5 		ldr	r2, .L654+28
 1616 15b4 0030D2E5 		ldrb	r3, [r2, #0]	@ zero_extendqisi2
 1617 15b8 013083E2 		add	r3, r3, #1
 1618 15bc 0030C2E5 		strb	r3, [r2, #0]
 1619 15c0 0030D2E5 		ldrb	r3, [r2, #0]	@ zero_extendqisi2
 1620 15c4 BC759FE5 		ldr	r7, .L654+32
 1621 15c8 3C0053E3 		cmp	r3, #60
 1622 15cc 0030A083 		movhi	r3, #0
 1623 15d0 0030C285 		strhib	r3, [r2, #0]
 1624 15d4 0030D7E5 		ldrb	r3, [r7, #0]	@ zero_extendqisi2
 1625 15d8 000053E3 		cmp	r3, #0
 1626 15dc E805000A 		beq	.L159
 1627 15e0 FC159FE5 		ldr	r1, .L654+124
 1628 15e4 00069FE5 		ldr	r0, .L654+132
 1629 15e8 0030D1E5 		ldrb	r3, [r1, #0]	@ zero_extendqisi2
 1630 15ec 0020D0E5 		ldrb	r2, [r0, #0]	@ zero_extendqisi2
 1631 15f0 030052E1 		cmp	r2, r3
 1632 15f4 0030D125 		ldrcsb	r3, [r1, #0]	@ zero_extendqisi2
 1633 15f8 0030D135 		ldrccb	r3, [r1, #0]	@ zero_extendqisi2
 1634 15fc 02306320 		rsbcs	r3, r3, r2
 1635 1600 03306230 		rsbcc	r3, r2, r3
 1636 1604 FF306322 		rsbcs	r3, r3, #255
 1637 1608 080053E3 		cmp	r3, #8
 1638 160c B4259FD5 		ldrle	r2, .L654+96
 1639 1610 0030D2D5 		ldrleb	r3, [r2, #0]	@ zero_extendqisi2
 1640 1614 013083D2 		addle	r3, r3, #1
 1641 1618 0030C2D5 		strleb	r3, [r2, #0]
 1642 161c E50500DA 		ble	.L171
 1643 1620 0020D0E5 		ldrb	r2, [r0, #0]	@ zero_extendqisi2
 1644 1624 013082E2 		add	r3, r2, #1
 1645 1628 0030C0E5 		strb	r3, [r0, #0]
 1646 162c 0030D0E5 		ldrb	r3, [r0, #0]	@ zero_extendqisi2
 1647 1630 B0459FE5 		ldr	r4, .L654+128
 1648 1634 FF0053E3 		cmp	r3, #255
 1649 1638 6630E0E3 		mvn	r3, #102
 1650 163c 0230C4E7 		strb	r3, [r4, r2]
 1651 1640 67308302 		addeq	r3, r3, #103
 1652 1644 A0C59FE5 		ldr	ip, .L654+132
 1653 1648 0030C005 		streqb	r3, [r0, #0]
 1654 164c 0020DCE5 		ldrb	r2, [ip, #0]	@ zero_extendqisi2
 1655 1650 013082E2 		add	r3, r2, #1
 1656 1654 0030CCE5 		strb	r3, [ip, #0]
 1657 1658 0030DCE5 		ldrb	r3, [ip, #0]	@ zero_extendqisi2
 1658 165c FF0053E3 		cmp	r3, #255
 1659 1660 0830A0E3 		mov	r3, #8
 1660 1664 0230C4E7 		strb	r3, [r4, r2]
 1661 1668 08304302 		subeq	r3, r3, #8
 1662 166c 0030CC05 		streqb	r3, [ip, #0]
 1663 1670 0020DCE5 		ldrb	r2, [ip, #0]	@ zero_extendqisi2
 1664 1674 013082E2 		add	r3, r2, #1
 1665 1678 0030CCE5 		strb	r3, [ip, #0]
 1666 167c 0030DCE5 		ldrb	r3, [ip, #0]	@ zero_extendqisi2
 1667 1680 68E59FE5 		ldr	lr, .L654+136
 1668 1684 68559FE5 		ldr	r5, .L654+140
 1669 1688 FF0053E3 		cmp	r3, #255
 1670 168c 0F30A0E3 		mov	r3, #15
 1671 1690 0030CEE5 		strb	r3, [lr, #0]
 1672 1694 083083E2 		add	r3, r3, #8
 1673 1698 0030C5E5 		strb	r3, [r5, #0]
 1674 169c 103043E2 		sub	r3, r3, #16
 1675 16a0 0230C4E7 		strb	r3, [r4, r2]
 1676 16a4 07304302 		subeq	r3, r3, #7
 1677 16a8 0030CC05 		streqb	r3, [ip, #0]
 1678 16ac 0020DCE5 		ldrb	r2, [ip, #0]	@ zero_extendqisi2
 1679 16b0 013082E2 		add	r3, r2, #1
 1680 16b4 0030CCE5 		strb	r3, [ip, #0]
 1681 16b8 0030DCE5 		ldrb	r3, [ip, #0]	@ zero_extendqisi2
 1682 16bc FF0053E3 		cmp	r3, #255
 1683 16c0 1030A0E3 		mov	r3, #16
 1684 16c4 0030CEE5 		strb	r3, [lr, #0]
 1685 16c8 173083E2 		add	r3, r3, #23
 1686 16cc 0030C5E5 		strb	r3, [r5, #0]
 1687 16d0 263043E2 		sub	r3, r3, #38
 1688 16d4 0230C4E7 		strb	r3, [r4, r2]
 1689 16d8 01304302 		subeq	r3, r3, #1
 1690 16dc 0030CC05 		streqb	r3, [ip, #0]
 1691 16e0 A4649FE5 		ldr	r6, .L654+36
 1692 16e4 0000DCE5 		ldrb	r0, [ip, #0]	@ zero_extendqisi2
 1693 16e8 0010D6E5 		ldrb	r1, [r6, #0]	@ zero_extendqisi2
 1694 16ec 012080E2 		add	r2, r0, #1
 1695 16f0 103081E2 		add	r3, r1, #16
 1696 16f4 0020CCE5 		strb	r2, [ip, #0]
 1697 16f8 0030CEE5 		strb	r3, [lr, #0]
 1698 16fc 0030DCE5 		ldrb	r3, [ip, #0]	@ zero_extendqisi2
 1699 1700 0020DEE5 		ldrb	r2, [lr, #0]	@ zero_extendqisi2
 1700 1704 FF0053E3 		cmp	r3, #255
 1701 1708 273082E2 		add	r3, r2, #39
 1702 170c 0030C5E5 		strb	r3, [r5, #0]
 1703 1710 0030A003 		moveq	r3, #0
 1704 1714 0030CC05 		streqb	r3, [ip, #0]
 1705 1718 0010C4E7 		strb	r1, [r4, r0]
 1706 171c 0010DCE5 		ldrb	r1, [ip, #0]	@ zero_extendqisi2
 1707 1720 0100D6E5 		ldrb	r0, [r6, #1]	@ zero_extendqisi2
 1708 1724 023080E0 		add	r3, r0, r2
 1709 1728 012081E2 		add	r2, r1, #1
 1710 172c 0030CEE5 		strb	r3, [lr, #0]
 1711 1730 0020CCE5 		strb	r2, [ip, #0]
 1712 1734 00E0DEE5 		ldrb	lr, [lr, #0]	@ zero_extendqisi2
 1713 1738 0020DCE5 		ldrb	r2, [ip, #0]	@ zero_extendqisi2
 1714 173c 0030D5E5 		ldrb	r3, [r5, #0]	@ zero_extendqisi2
 1715 1740 FF0052E3 		cmp	r2, #255
 1716 1744 0E3083E0 		add	r3, r3, lr
 1717 1748 0030C5E5 		strb	r3, [r5, #0]
 1718 174c 0030A003 		moveq	r3, #0
 1719 1750 0030CC05 		streqb	r3, [ip, #0]
 1720 1754 0030DCE5 		ldrb	r3, [ip, #0]	@ zero_extendqisi2
 1721 1758 012083E2 		add	r2, r3, #1
 1722 175c 0020CCE5 		strb	r2, [ip, #0]
 1723 1760 0020DCE5 		ldrb	r2, [ip, #0]	@ zero_extendqisi2
 1724 1764 FF0052E3 		cmp	r2, #255
 1725 1768 0100C4E7 		strb	r0, [r4, r1]
 1726 176c 03E0C4E7 		strb	lr, [r4, r3]
 1727 1770 0030A003 		moveq	r3, #0
 1728 1774 0030CC05 		streqb	r3, [ip, #0]
 1729 1778 0010DCE5 		ldrb	r1, [ip, #0]	@ zero_extendqisi2
 1730 177c 013081E2 		add	r3, r1, #1
 1731 1780 0030CCE5 		strb	r3, [ip, #0]
 1732 1784 0030DCE5 		ldrb	r3, [ip, #0]	@ zero_extendqisi2
 1733 1788 0020D5E5 		ldrb	r2, [r5, #0]	@ zero_extendqisi2
 1734 178c FF0053E3 		cmp	r3, #255
 1735 1790 FF304302 		subeq	r3, r3, #255
 1736 1794 0120C4E7 		strb	r2, [r4, r1]
 1737 1798 0030CC05 		streqb	r3, [ip, #0]
 1738              	.L171:
 1739 179c 0030A0E3 		mov	r3, #0
 1740 17a0 0030C7E5 		strb	r3, [r7, #0]
 1741 17a4 DA1500EA 		b	.L579
 1742              	.L159:
 1743 17a8 E0339FE5 		ldr	r3, .L654+40
 1744 17ac 0010D3E5 		ldrb	r1, [r3, #0]	@ zero_extendqisi2
 1745 17b0 000051E3 		cmp	r1, #0
 1746 17b4 6E14001A 		bne	.L173
 1747 17b8 D4939FE5 		ldr	r9, .L654+44
 1748 17bc 0030D9E5 		ldrb	r3, [r9, #0]	@ zero_extendqisi2
 1749 17c0 013083E2 		add	r3, r3, #1
 1750 17c4 0030C9E5 		strb	r3, [r9, #0]
 1751 17c8 04249FE5 		ldr	r2, .L654+108
 1752 17cc 0030D9E5 		ldrb	r3, [r9, #0]	@ zero_extendqisi2
 1753 17d0 1D0053E3 		cmp	r3, #29
 1754 17d4 0030D2E5 		ldrb	r3, [r2, #0]	@ zero_extendqisi2
 1755 17d8 013083E2 		add	r3, r3, #1
 1756 17dc 0030C2E5 		strb	r3, [r2, #0]
 1757 17e0 0030D2E5 		ldrb	r3, [r2, #0]	@ zero_extendqisi2
 1758 17e4 0010C985 		strhib	r1, [r9, #0]
 1759 17e8 3B0053E3 		cmp	r3, #59
 1760 17ec 0010C285 		strhib	r1, [r2, #0]
 1761 17f0 A0239FE5 		ldr	r2, .L654+48
 1762 17f4 0030D2E5 		ldrb	r3, [r2, #0]	@ zero_extendqisi2
 1763 17f8 013083E2 		add	r3, r3, #1
 1764 17fc 0030C2E5 		strb	r3, [r2, #0]
 1765 1800 0030D2E5 		ldrb	r3, [r2, #0]	@ zero_extendqisi2
 1766 1804 770053E3 		cmp	r3, #119
 1767 1808 0010C285 		strhib	r1, [r2, #0]
 1768 180c 88239FE5 		ldr	r2, .L654+52
 1769 1810 B030D2E1 		ldrh	r3, [r2, #0]
 1770 1814 013083E2 		add	r3, r3, #1
 1771 1818 B030C2E1 		strh	r3, [r2, #0]	@ movhi 
 1772 181c B030D2E1 		ldrh	r3, [r2, #0]
 1773 1820 4B0F53E3 		cmp	r3, #300
 1774 1824 B010C221 		strcsh	r1, [r2, #0]	@ movhi 
 1775 1828 70239FE5 		ldr	r2, .L654+56
 1776 182c B030D2E1 		ldrh	r3, [r2, #0]
 1777 1830 013083E2 		add	r3, r3, #1
 1778 1834 B030C2E1 		strh	r3, [r2, #0]	@ movhi 
 1779 1838 B030D2E1 		ldrh	r3, [r2, #0]
 1780 183c 870F53E3 		cmp	r3, #540
 1781 1840 0030D9E5 		ldrb	r3, [r9, #0]	@ zero_extendqisi2
 1782 1844 B010C221 		strcsh	r1, [r2, #0]	@ movhi 
 1783 1848 000053E3 		cmp	r3, #0
 1784 184c 0007001A 		bne	.L179
 1785 1850 4C339FE5 		ldr	r3, .L654+60
 1786 1854 000093E5 		ldr	r0, [r3, #0]	@ float
 1787 1858 FEFFFFEB 		bl	__extendsfdf2
 1788 185c C12F8FE2 		adr	r2, .L654
 1789 1860 0C0092E8 		ldmia	r2, {r2-r3}
 1790 1864 FEFFFFEB 		bl	__divdf3
 1791 1868 032C8FE2 		adr	r2, .L654+8
 1792 186c 0C0092E8 		ldmia	r2, {r2-r3}
 1793 1870 FEFFFFEB 		bl	__muldf3
 1794 1874 FEFFFFEB 		bl	__fixdfsi
 1795 1878 28339FE5 		ldr	r3, .L654+64
 1796 187c BA024BE1 		strh	r0, [fp, #-42]	@ movhi 
 1797 1880 000093E5 		ldr	r0, [r3, #0]	@ float
 1798 1884 FEFFFFEB 		bl	__extendsfdf2
 1799 1888 B62F8FE2 		adr	r2, .L654
 1800 188c 0C0092E8 		ldmia	r2, {r2-r3}
 1801 1890 FEFFFFEB 		bl	__divdf3
 1802 1894 B52F8FE2 		adr	r2, .L654+8
 1803 1898 0C0092E8 		ldmia	r2, {r2-r3}
 1804 189c FEFFFFEB 		bl	__muldf3
 1805 18a0 FEFFFFEB 		bl	__fixdfsi
 1806 18a4 00339FE5 		ldr	r3, .L654+68
 1807 18a8 BC024BE1 		strh	r0, [fp, #-44]	@ movhi 
 1808 18ac 000093E5 		ldr	r0, [r3, #0]	@ float
 1809 18b0 FEFFFFEB 		bl	__extendsfdf2
 1810 18b4 AB2F8FE2 		adr	r2, .L654
 1811 18b8 0C0092E8 		ldmia	r2, {r2-r3}
 1812 18bc FEFFFFEB 		bl	__divdf3
 1813 18c0 AA2F8FE2 		adr	r2, .L654+8
 1814 18c4 0C0092E8 		ldmia	r2, {r2-r3}
 1815 18c8 FEFFFFEB 		bl	__muldf3
 1816 18cc FEFFFFEB 		bl	__fixdfsi
 1817 18d0 0C139FE5 		ldr	r1, .L654+124
 1818 18d4 10E39FE5 		ldr	lr, .L654+132
 1819 18d8 0030D1E5 		ldrb	r3, [r1, #0]	@ zero_extendqisi2
 1820 18dc 0020DEE5 		ldrb	r2, [lr, #0]	@ zero_extendqisi2
 1821 18e0 BE024BE1 		strh	r0, [fp, #-46]	@ movhi 
 1822 18e4 030052E1 		cmp	r2, r3
 1823 18e8 0030D125 		ldrcsb	r3, [r1, #0]	@ zero_extendqisi2
 1824 18ec 0030D135 		ldrccb	r3, [r1, #0]	@ zero_extendqisi2
 1825 18f0 02306320 		rsbcs	r3, r3, r2
 1826 18f4 FF306322 		rsbcs	r3, r3, #255
 1827 18f8 03306230 		rsbcc	r3, r2, r3
 1828 18fc 0C0053E3 		cmp	r3, #12
 1829 1900 390800DA 		ble	.L205
 1830 1904 0020DEE5 		ldrb	r2, [lr, #0]	@ zero_extendqisi2
 1831 1908 013082E2 		add	r3, r2, #1
 1832 190c 0030CEE5 		strb	r3, [lr, #0]
 1833 1910 0030DEE5 		ldrb	r3, [lr, #0]	@ zero_extendqisi2
 1834 1914 CC629FE5 		ldr	r6, .L654+128
 1835 1918 FF0053E3 		cmp	r3, #255
 1836 191c 6630E0E3 		mvn	r3, #102
 1837 1920 0230C6E7 		strb	r3, [r6, r2]
 1838 1924 67308302 		addeq	r3, r3, #103
 1839 1928 BCC29FE5 		ldr	ip, .L654+132
 1840 192c 0030CE05 		streqb	r3, [lr, #0]
 1841 1930 0020DCE5 		ldrb	r2, [ip, #0]	@ zero_extendqisi2
 1842 1934 013082E2 		add	r3, r2, #1
 1843 1938 0030CCE5 		strb	r3, [ip, #0]
 1844 193c 0030DCE5 		ldrb	r3, [ip, #0]	@ zero_extendqisi2
 1845 1940 FF0053E3 		cmp	r3, #255
 1846 1944 0C30A0E3 		mov	r3, #12
 1847 1948 0230C6E7 		strb	r3, [r6, r2]
 1848 194c 0C304302 		subeq	r3, r3, #12
 1849 1950 0030CC05 		streqb	r3, [ip, #0]
 1850 1954 0020DCE5 		ldrb	r2, [ip, #0]	@ zero_extendqisi2
 1851 1958 013082E2 		add	r3, r2, #1
 1852 195c 0030CCE5 		strb	r3, [ip, #0]
 1853 1960 0030DCE5 		ldrb	r3, [ip, #0]	@ zero_extendqisi2
 1854 1964 84429FE5 		ldr	r4, .L654+136
 1855 1968 84529FE5 		ldr	r5, .L654+140
 1856 196c FF0053E3 		cmp	r3, #255
 1857 1970 1330A0E3 		mov	r3, #19
 1858 1974 0030C4E5 		strb	r3, [r4, #0]
 1859 1978 0C3083E2 		add	r3, r3, #12
 1860 197c 0030C5E5 		strb	r3, [r5, #0]
 1861 1980 183043E2 		sub	r3, r3, #24
 1862 1984 0230C6E7 		strb	r3, [r6, r2]
 1863 1988 07304302 		subeq	r3, r3, #7
 1864 198c 0030CC05 		streqb	r3, [ip, #0]
 1865 1990 0020DCE5 		ldrb	r2, [ip, #0]	@ zero_extendqisi2
 1866 1994 013082E2 		add	r3, r2, #1
 1867 1998 0030CCE5 		strb	r3, [ip, #0]
 1868 199c 0030DCE5 		ldrb	r3, [ip, #0]	@ zero_extendqisi2
 1869 19a0 FF0053E3 		cmp	r3, #255
 1870 19a4 1930A0E3 		mov	r3, #25
 1871 19a8 0030C4E5 		strb	r3, [r4, #0]
 1872 19ac 1F3083E2 		add	r3, r3, #31
 1873 19b0 0030C5E5 		strb	r3, [r5, #0]
 1874 19b4 323043E2 		sub	r3, r3, #50
 1875 19b8 0230C6E7 		strb	r3, [r6, r2]
 1876 19bc 06304302 		subeq	r3, r3, #6
 1877 19c0 0030CC05 		streqb	r3, [ip, #0]
 1878 19c4 2A105BE5 		ldrb	r1, [fp, #-42]	@ zero_extendqisi2
 1879 19c8 0000DCE5 		ldrb	r0, [ip, #0]	@ zero_extendqisi2
 1880 19cc 193081E2 		add	r3, r1, #25
 1881 19d0 012080E2 		add	r2, r0, #1
 1882 19d4 0020CCE5 		strb	r2, [ip, #0]
 1883 19d8 0030C4E5 		strb	r3, [r4, #0]
 1884 19dc 0030DCE5 		ldrb	r3, [ip, #0]	@ zero_extendqisi2
 1885 19e0 00E0D4E5 		ldrb	lr, [r4, #0]	@ zero_extendqisi2
 1886 19e4 FF0053E3 		cmp	r3, #255
 1887 19e8 38308EE2 		add	r3, lr, #56
 1888 19ec 0030C5E5 		strb	r3, [r5, #0]
 1889 19f0 0030A003 		moveq	r3, #0
 1890 19f4 0030CC05 		streqb	r3, [ip, #0]
 1891 19f8 0010C6E7 		strb	r1, [r6, r0]
 1892 19fc 0000DCE5 		ldrb	r0, [ip, #0]	@ zero_extendqisi2
 1893 1a00 29105BE5 		ldrb	r1, [fp, #-41]	@ zero_extendqisi2
 1894 1a04 012080E2 		add	r2, r0, #1
 1895 1a08 0E3081E0 		add	r3, r1, lr
 1896 1a0c 0030C4E5 		strb	r3, [r4, #0]
 1897 1a10 0020CCE5 		strb	r2, [ip, #0]
 1898 1a14 0030DCE5 		ldrb	r3, [ip, #0]	@ zero_extendqisi2
 1899 1a18 FF0053E3 		cmp	r3, #255
 1900 1a1c 00E0D4E5 		ldrb	lr, [r4, #0]	@ zero_extendqisi2
 1901 1a20 0020D5E5 		ldrb	r2, [r5, #0]	@ zero_extendqisi2
 1902 1a24 FF304302 		subeq	r3, r3, #255
 1903 1a28 0030CC05 		streqb	r3, [ip, #0]
 1904 1a2c 0E2082E0 		add	r2, r2, lr
 1905 1a30 0020C5E5 		strb	r2, [r5, #0]
 1906 1a34 0010C6E7 		strb	r1, [r6, r0]
 1907 1a38 0000DCE5 		ldrb	r0, [ip, #0]	@ zero_extendqisi2
 1908 1a3c 2C105BE5 		ldrb	r1, [fp, #-44]	@ zero_extendqisi2
 1909 1a40 012080E2 		add	r2, r0, #1
 1910 1a44 0020CCE5 		strb	r2, [ip, #0]
 1911 1a48 0E3081E0 		add	r3, r1, lr
 1912 1a4c 0030C4E5 		strb	r3, [r4, #0]
 1913 1a50 0030DCE5 		ldrb	r3, [ip, #0]	@ zero_extendqisi2
 1914 1a54 FF0053E3 		cmp	r3, #255
 1915 1a58 00E0D4E5 		ldrb	lr, [r4, #0]	@ zero_extendqisi2
 1916 1a5c 0020D5E5 		ldrb	r2, [r5, #0]	@ zero_extendqisi2
 1917 1a60 FF304302 		subeq	r3, r3, #255
 1918 1a64 0030CC05 		streqb	r3, [ip, #0]
 1919 1a68 0E2082E0 		add	r2, r2, lr
 1920 1a6c 0020C5E5 		strb	r2, [r5, #0]
 1921 1a70 0010C6E7 		strb	r1, [r6, r0]
 1922 1a74 0000DCE5 		ldrb	r0, [ip, #0]	@ zero_extendqisi2
 1923 1a78 2B105BE5 		ldrb	r1, [fp, #-43]	@ zero_extendqisi2
 1924 1a7c 012080E2 		add	r2, r0, #1
 1925 1a80 0020CCE5 		strb	r2, [ip, #0]
 1926 1a84 0E3081E0 		add	r3, r1, lr
 1927 1a88 0030C4E5 		strb	r3, [r4, #0]
 1928 1a8c 0030DCE5 		ldrb	r3, [ip, #0]	@ zero_extendqisi2
 1929 1a90 00E0D4E5 		ldrb	lr, [r4, #0]	@ zero_extendqisi2
 1930 1a94 FF0053E3 		cmp	r3, #255
 1931 1a98 0020D5E5 		ldrb	r2, [r5, #0]	@ zero_extendqisi2
 1932 1a9c FF304302 		subeq	r3, r3, #255
 1933 1aa0 0030CC05 		streqb	r3, [ip, #0]
 1934 1aa4 0E2082E0 		add	r2, r2, lr
 1935 1aa8 0020C5E5 		strb	r2, [r5, #0]
 1936 1aac 0010C6E7 		strb	r1, [r6, r0]
 1937 1ab0 0000DCE5 		ldrb	r0, [ip, #0]	@ zero_extendqisi2
 1938 1ab4 2E105BE5 		ldrb	r1, [fp, #-46]	@ zero_extendqisi2
 1939 1ab8 012080E2 		add	r2, r0, #1
 1940 1abc 0E3081E0 		add	r3, r1, lr
 1941 1ac0 0020CCE5 		strb	r2, [ip, #0]
 1942 1ac4 0030C4E5 		strb	r3, [r4, #0]
 1943 1ac8 0030DCE5 		ldrb	r3, [ip, #0]	@ zero_extendqisi2
 1944 1acc 00E0D4E5 		ldrb	lr, [r4, #0]	@ zero_extendqisi2
 1945 1ad0 0020D5E5 		ldrb	r2, [r5, #0]	@ zero_extendqisi2
 1946 1ad4 FF0053E3 		cmp	r3, #255
 1947 1ad8 0E2082E0 		add	r2, r2, lr
 1948 1adc FF304302 		subeq	r3, r3, #255
 1949 1ae0 0020C5E5 		strb	r2, [r5, #0]
 1950 1ae4 0030CC05 		streqb	r3, [ip, #0]
 1951 1ae8 0010C6E7 		strb	r1, [r6, r0]
 1952 1aec 0000DCE5 		ldrb	r0, [ip, #0]	@ zero_extendqisi2
 1953 1af0 2D105BE5 		ldrb	r1, [fp, #-45]	@ zero_extendqisi2
 1954 1af4 012080E2 		add	r2, r0, #1
 1955 1af8 0E3081E0 		add	r3, r1, lr
 1956 1afc 0020CCE5 		strb	r2, [ip, #0]
 1957 1b00 0030C4E5 		strb	r3, [r4, #0]
 1958 1b04 0020DCE5 		ldrb	r2, [ip, #0]	@ zero_extendqisi2
 1959 1b08 00E0D4E5 		ldrb	lr, [r4, #0]	@ zero_extendqisi2
 1960 1b0c 0030D5E5 		ldrb	r3, [r5, #0]	@ zero_extendqisi2
 1961 1b10 FF0052E3 		cmp	r2, #255
 1962 1b14 0E3083E0 		add	r3, r3, lr
 1963 1b18 0030C5E5 		strb	r3, [r5, #0]
 1964 1b1c 0030A003 		moveq	r3, #0
 1965 1b20 0030CC05 		streqb	r3, [ip, #0]
 1966 1b24 0030DCE5 		ldrb	r3, [ip, #0]	@ zero_extendqisi2
 1967 1b28 012083E2 		add	r2, r3, #1
 1968 1b2c 0020CCE5 		strb	r2, [ip, #0]
 1969 1b30 0020DCE5 		ldrb	r2, [ip, #0]	@ zero_extendqisi2
 1970 1b34 FF0052E3 		cmp	r2, #255
 1971 1b38 0010C6E7 		strb	r1, [r6, r0]
 1972 1b3c 03E0C6E7 		strb	lr, [r6, r3]
 1973 1b40 0030A003 		moveq	r3, #0
 1974 1b44 0030CC05 		streqb	r3, [ip, #0]
 1975 1b48 0010DCE5 		ldrb	r1, [ip, #0]	@ zero_extendqisi2
 1976 1b4c 013081E2 		add	r3, r1, #1
 1977 1b50 0030CCE5 		strb	r3, [ip, #0]
 1978 1b54 0030DCE5 		ldrb	r3, [ip, #0]	@ zero_extendqisi2
 1979 1b58 0020D5E5 		ldrb	r2, [r5, #0]	@ zero_extendqisi2
 1980 1b5c FF0053E3 		cmp	r3, #255
 1981 1b60 0120C6E7 		strb	r2, [r6, r1]
 1982 1b64 360800EA 		b	.L638
 1983              	.L655:
 1984              		.align	2
 1985              	.L654:
 1986 1b68 FB210940 		.word	1074340347
 1987 1b6c 182D4454 		.word	1413754136
 1988 1b70 00806640 		.word	1080459264
 1989 1b74 00000000 		.word	0
 1990 1b78 0D000000 		.word	_20Hz.0
 1991 1b7c 0E000000 		.word	_10Hz.1
 1992 1b80 0F000000 		.word	_4Hz.2
 1993 1b84 10000000 		.word	_1Hz.3
 1994 1b88 03000000 		.word	boot.5
 1995 1b8c 00000000 		.word	version
 1996 1b90 00000000 		.word	telemetry_mode_Ap
 1997 1b94 11000000 		.word	i30.6
 1998 1b98 13000000 		.word	i120.8
 1999 1b9c 14000000 		.word	i300.9
 2000 1ba0 16000000 		.word	i540.10
 2001 1ba4 00000000 		.word	estimator_phi
 2002 1ba8 00000000 		.word	estimator_psi
 2003 1bac 00000000 		.word	estimator_theta
 2004 1bb0 18000000 		.word	i.11
 2005 1bb4 00000000 		.word	nb_waypoint
 2006 1bb8 00000000 		.word	nav_utm_east0
 2007 1bbc 00000000 		.word	waypoints
 2008 1bc0 00000000 		.word	nav_utm_north0
 2009 1bc4 08000000 		.word	waypoints+8
 2010 1bc8 00000000 		.word	downlink_nb_ovrn
 2011 1bcc 00000000 		.word	estimator_z
 2012 1bd0 00000000 		.word	estimator_z_dot
 2013 1bd4 12000000 		.word	i60.7
 2014 1bd8 00000000 		.word	estimator_flight_time
 2015 1bdc 00000000 		.word	calib_status
 2016 1be0 00000000 		.word	ir_contrast
 2017 1be4 00000000 		.word	tx_tail
 2018 1be8 00000000 		.word	tx_buf
 2019 1bec 00000000 		.word	tx_head
 2020 1bf0 00000000 		.word	ck_a
 2021 1bf4 00000000 		.word	ck_b
 2022 1bf8 00000000 		.word	h_ctl_roll_setpoint
 2023 1bfc 00000000 		.word	h_ctl_pitch_setpoint
 2024 1c00 00000000 		.word	desired_x
 2025 1c04 00000000 		.word	desired_y
 2026              	.L179:
 2027 1c08 060053E3 		cmp	r3, #6
 2028 1c0c 3D08000A 		beq	.L196
 2029 1c10 0C0053E3 		cmp	r3, #12
 2030 1c14 3D08000A 		beq	.L196
 2031 1c18 120053E3 		cmp	r3, #18
 2032 1c1c 3D08000A 		beq	.L196
 2033 1c20 180053E3 		cmp	r3, #24
 2034 1c24 3D08001A 		bne	.L196
 2035 1c28 80601FE5 		ldr	r6, .L654+72
 2036 1c2c 0030D6E5 		ldrb	r3, [r6, #0]	@ zero_extendqisi2
 2037 1c30 013083E2 		add	r3, r3, #1
 2038 1c34 0030C6E5 		strb	r3, [r6, #0]
 2039 1c38 8C301FE5 		ldr	r3, .L654+76
 2040 1c3c 0020D3E5 		ldrb	r2, [r3, #0]	@ zero_extendqisi2
 2041 1c40 0030D6E5 		ldrb	r3, [r6, #0]	@ zero_extendqisi2
 2042 1c44 020053E1 		cmp	r3, r2
 2043 1c48 98301FE5 		ldr	r3, .L654+80
 2044 1c4c 0010C685 		strhib	r1, [r6, #0]
 2045 1c50 000093E5 		ldr	r0, [r3, #0]
 2046 1c54 FEFFFFEB 		bl	__floatsisf
 2047 1c58 0040D6E5 		ldrb	r4, [r6, #0]	@ zero_extendqisi2
 2048 1c5c A8301FE5 		ldr	r3, .L654+84
 2049 1c60 844084E0 		add	r4, r4, r4, asl #1
 2050 1c64 0441A0E1 		mov	r4, r4, asl #2
 2051 1c68 031094E7 		ldr	r1, [r4, r3]	@ float
 2052 1c6c 034084E0 		add	r4, r4, r3
 2053 1c70 FEFFFFEB 		bl	__addsf3
 2054 1c74 BC301FE5 		ldr	r3, .L654+88
 2055 1c78 3C000BE5 		str	r0, [fp, #-60]	@ float
 2056 1c7c 000093E5 		ldr	r0, [r3, #0]
 2057 1c80 FEFFFFEB 		bl	__floatsisf
 2058 1c84 041094E5 		ldr	r1, [r4, #4]	@ float
 2059 1c88 FEFFFFEB 		bl	__addsf3
 2060 1c8c B0101FE5 		ldr	r1, .L654+124
 2061 1c90 ACE01FE5 		ldr	lr, .L654+132
 2062 1c94 0030D1E5 		ldrb	r3, [r1, #0]	@ zero_extendqisi2
 2063 1c98 0020DEE5 		ldrb	r2, [lr, #0]	@ zero_extendqisi2
 2064 1c9c 40000BE5 		str	r0, [fp, #-64]	@ float
 2065 1ca0 030052E1 		cmp	r2, r3
 2066 1ca4 0030D125 		ldrcsb	r3, [r1, #0]	@ zero_extendqisi2
 2067 1ca8 0030D135 		ldrccb	r3, [r1, #0]	@ zero_extendqisi2
 2068 1cac 02306320 		rsbcs	r3, r3, r2
 2069 1cb0 FF306322 		rsbcs	r3, r3, #255
 2070 1cb4 03306230 		rsbcc	r3, r2, r3
 2071 1cb8 130053E3 		cmp	r3, #19
 2072 1cbc 390800DA 		ble	.L205
 2073 1cc0 0020DEE5 		ldrb	r2, [lr, #0]	@ zero_extendqisi2
 2074 1cc4 013082E2 		add	r3, r2, #1
 2075 1cc8 0030CEE5 		strb	r3, [lr, #0]
 2076 1ccc 0030DEE5 		ldrb	r3, [lr, #0]	@ zero_extendqisi2
 2077 1cd0 F0701FE5 		ldr	r7, .L654+128
 2078 1cd4 FF0053E3 		cmp	r3, #255
 2079 1cd8 6630E0E3 		mvn	r3, #102
 2080 1cdc 0230C7E7 		strb	r3, [r7, r2]
 2081 1ce0 67308302 		addeq	r3, r3, #103
 2082 1ce4 00C11FE5 		ldr	ip, .L654+132
 2083 1ce8 0030CE05 		streqb	r3, [lr, #0]
 2084 1cec 0020DCE5 		ldrb	r2, [ip, #0]	@ zero_extendqisi2
 2085 1cf0 013082E2 		add	r3, r2, #1
 2086 1cf4 0030CCE5 		strb	r3, [ip, #0]
 2087 1cf8 0030DCE5 		ldrb	r3, [ip, #0]	@ zero_extendqisi2
 2088 1cfc FF0053E3 		cmp	r3, #255
 2089 1d00 1330A0E3 		mov	r3, #19
 2090 1d04 0230C7E7 		strb	r3, [r7, r2]
 2091 1d08 13304302 		subeq	r3, r3, #19
 2092 1d0c 0030CC05 		streqb	r3, [ip, #0]
 2093 1d10 0020DCE5 		ldrb	r2, [ip, #0]	@ zero_extendqisi2
 2094 1d14 013082E2 		add	r3, r2, #1
 2095 1d18 0030CCE5 		strb	r3, [ip, #0]
 2096 1d1c 0030DCE5 		ldrb	r3, [ip, #0]	@ zero_extendqisi2
 2097 1d20 38E11FE5 		ldr	lr, .L654+136
 2098 1d24 38511FE5 		ldr	r5, .L654+140
 2099 1d28 FF0053E3 		cmp	r3, #255
 2100 1d2c 1A30A0E3 		mov	r3, #26
 2101 1d30 0030CEE5 		strb	r3, [lr, #0]
 2102 1d34 133083E2 		add	r3, r3, #19
 2103 1d38 0030C5E5 		strb	r3, [r5, #0]
 2104 1d3c 263043E2 		sub	r3, r3, #38
 2105 1d40 0230C7E7 		strb	r3, [r7, r2]
 2106 1d44 07304302 		subeq	r3, r3, #7
 2107 1d48 0030CC05 		streqb	r3, [ip, #0]
 2108 1d4c 0020DCE5 		ldrb	r2, [ip, #0]	@ zero_extendqisi2
 2109 1d50 013082E2 		add	r3, r2, #1
 2110 1d54 0030CCE5 		strb	r3, [ip, #0]
 2111 1d58 0030DCE5 		ldrb	r3, [ip, #0]	@ zero_extendqisi2
 2112 1d5c FF0053E3 		cmp	r3, #255
 2113 1d60 3D30A0E3 		mov	r3, #61
 2114 1d64 0030CEE5 		strb	r3, [lr, #0]
 2115 1d68 2D3083E2 		add	r3, r3, #45
 2116 1d6c 0030C5E5 		strb	r3, [r5, #0]
 2117 1d70 473043E2 		sub	r3, r3, #71
 2118 1d74 0230C7E7 		strb	r3, [r7, r2]
 2119 1d78 23304302 		subeq	r3, r3, #35
 2120 1d7c 0030CC05 		streqb	r3, [ip, #0]
 2121 1d80 00A0D6E5 		ldrb	sl, [r6, #0]	@ zero_extendqisi2
 2122 1d84 0010DCE5 		ldrb	r1, [ip, #0]	@ zero_extendqisi2
 2123 1d88 FF600AE2 		and	r6, sl, #255
 2124 1d8c 012081E2 		add	r2, r1, #1
 2125 1d90 3D3086E2 		add	r3, r6, #61
 2126 1d94 0020CCE5 		strb	r2, [ip, #0]
 2127 1d98 0030CEE5 		strb	r3, [lr, #0]
 2128 1d9c 0030DCE5 		ldrb	r3, [ip, #0]	@ zero_extendqisi2
 2129 1da0 0040DEE5 		ldrb	r4, [lr, #0]	@ zero_extendqisi2
 2130 1da4 FF0053E3 		cmp	r3, #255
 2131 1da8 6A3084E2 		add	r3, r4, #106
 2132 1dac 0030C5E5 		strb	r3, [r5, #0]
 2133 1db0 0030A003 		moveq	r3, #0
 2134 1db4 0030CC05 		streqb	r3, [ip, #0]
 2135 1db8 0160C7E7 		strb	r6, [r7, r1]
 2136 1dbc 0000DCE5 		ldrb	r0, [ip, #0]	@ zero_extendqisi2
 2137 1dc0 3C105BE5 		ldrb	r1, [fp, #-60]	@ zero_extendqisi2
 2138 1dc4 012080E2 		add	r2, r0, #1
 2139 1dc8 043081E0 		add	r3, r1, r4
 2140 1dcc 0030CEE5 		strb	r3, [lr, #0]
 2141 1dd0 0020CCE5 		strb	r2, [ip, #0]
 2142 1dd4 0030DCE5 		ldrb	r3, [ip, #0]	@ zero_extendqisi2
 2143 1dd8 FF0053E3 		cmp	r3, #255
 2144 1ddc 0040DEE5 		ldrb	r4, [lr, #0]	@ zero_extendqisi2
 2145 1de0 0020D5E5 		ldrb	r2, [r5, #0]	@ zero_extendqisi2
 2146 1de4 FF304302 		subeq	r3, r3, #255
 2147 1de8 0030CC05 		streqb	r3, [ip, #0]
 2148 1dec 042082E0 		add	r2, r2, r4
 2149 1df0 0020C5E5 		strb	r2, [r5, #0]
 2150 1df4 0010C7E7 		strb	r1, [r7, r0]
 2151 1df8 0000DCE5 		ldrb	r0, [ip, #0]	@ zero_extendqisi2
 2152 1dfc 3B105BE5 		ldrb	r1, [fp, #-59]	@ zero_extendqisi2
 2153 1e00 012080E2 		add	r2, r0, #1
 2154 1e04 0020CCE5 		strb	r2, [ip, #0]
 2155 1e08 043081E0 		add	r3, r1, r4
 2156 1e0c 0030CEE5 		strb	r3, [lr, #0]
 2157 1e10 0030DCE5 		ldrb	r3, [ip, #0]	@ zero_extendqisi2
 2158 1e14 FF0053E3 		cmp	r3, #255
 2159 1e18 0040DEE5 		ldrb	r4, [lr, #0]	@ zero_extendqisi2
 2160 1e1c 0020D5E5 		ldrb	r2, [r5, #0]	@ zero_extendqisi2
 2161 1e20 FF304302 		subeq	r3, r3, #255
 2162 1e24 0030CC05 		streqb	r3, [ip, #0]
 2163 1e28 042082E0 		add	r2, r2, r4
 2164 1e2c 0020C5E5 		strb	r2, [r5, #0]
 2165 1e30 0010C7E7 		strb	r1, [r7, r0]
 2166 1e34 0000DCE5 		ldrb	r0, [ip, #0]	@ zero_extendqisi2
 2167 1e38 3A105BE5 		ldrb	r1, [fp, #-58]	@ zero_extendqisi2
 2168 1e3c 012080E2 		add	r2, r0, #1
 2169 1e40 0020CCE5 		strb	r2, [ip, #0]
 2170 1e44 043081E0 		add	r3, r1, r4
 2171 1e48 0030CEE5 		strb	r3, [lr, #0]
 2172 1e4c 0030DCE5 		ldrb	r3, [ip, #0]	@ zero_extendqisi2
 2173 1e50 0040DEE5 		ldrb	r4, [lr, #0]	@ zero_extendqisi2
 2174 1e54 FF0053E3 		cmp	r3, #255
 2175 1e58 0020D5E5 		ldrb	r2, [r5, #0]	@ zero_extendqisi2
 2176 1e5c FF304302 		subeq	r3, r3, #255
 2177 1e60 0030CC05 		streqb	r3, [ip, #0]
 2178 1e64 042082E0 		add	r2, r2, r4
 2179 1e68 0020C5E5 		strb	r2, [r5, #0]
 2180 1e6c 0010C7E7 		strb	r1, [r7, r0]
 2181 1e70 0000DCE5 		ldrb	r0, [ip, #0]	@ zero_extendqisi2
 2182 1e74 39105BE5 		ldrb	r1, [fp, #-57]	@ zero_extendqisi2
 2183 1e78 012080E2 		add	r2, r0, #1
 2184 1e7c 043081E0 		add	r3, r1, r4
 2185 1e80 0020CCE5 		strb	r2, [ip, #0]
 2186 1e84 0030CEE5 		strb	r3, [lr, #0]
 2187 1e88 0030DCE5 		ldrb	r3, [ip, #0]	@ zero_extendqisi2
 2188 1e8c 0040DEE5 		ldrb	r4, [lr, #0]	@ zero_extendqisi2
 2189 1e90 0020D5E5 		ldrb	r2, [r5, #0]	@ zero_extendqisi2
 2190 1e94 FF0053E3 		cmp	r3, #255
 2191 1e98 042082E0 		add	r2, r2, r4
 2192 1e9c FF304302 		subeq	r3, r3, #255
 2193 1ea0 0020C5E5 		strb	r2, [r5, #0]
 2194 1ea4 0030CC05 		streqb	r3, [ip, #0]
 2195 1ea8 0010C7E7 		strb	r1, [r7, r0]
 2196 1eac 0000DCE5 		ldrb	r0, [ip, #0]	@ zero_extendqisi2
 2197 1eb0 40105BE5 		ldrb	r1, [fp, #-64]	@ zero_extendqisi2
 2198 1eb4 012080E2 		add	r2, r0, #1
 2199 1eb8 0020CCE5 		strb	r2, [ip, #0]
 2200 1ebc 043081E0 		add	r3, r1, r4
 2201 1ec0 0030CEE5 		strb	r3, [lr, #0]
 2202 1ec4 0030DCE5 		ldrb	r3, [ip, #0]	@ zero_extendqisi2
 2203 1ec8 FF0053E3 		cmp	r3, #255
 2204 1ecc 0040DEE5 		ldrb	r4, [lr, #0]	@ zero_extendqisi2
 2205 1ed0 0020D5E5 		ldrb	r2, [r5, #0]	@ zero_extendqisi2
 2206 1ed4 FF304302 		subeq	r3, r3, #255
 2207 1ed8 0030CC05 		streqb	r3, [ip, #0]
 2208 1edc 042082E0 		add	r2, r2, r4
 2209 1ee0 0020C5E5 		strb	r2, [r5, #0]
 2210 1ee4 0010C7E7 		strb	r1, [r7, r0]
 2211 1ee8 0000DCE5 		ldrb	r0, [ip, #0]	@ zero_extendqisi2
 2212 1eec 3F105BE5 		ldrb	r1, [fp, #-63]	@ zero_extendqisi2
 2213 1ef0 012080E2 		add	r2, r0, #1
 2214 1ef4 0020CCE5 		strb	r2, [ip, #0]
 2215 1ef8 043081E0 		add	r3, r1, r4
 2216 1efc 0030CEE5 		strb	r3, [lr, #0]
 2217 1f00 0030DCE5 		ldrb	r3, [ip, #0]	@ zero_extendqisi2
 2218 1f04 0040DEE5 		ldrb	r4, [lr, #0]	@ zero_extendqisi2
 2219 1f08 0020D5E5 		ldrb	r2, [r5, #0]	@ zero_extendqisi2
 2220 1f0c FF0053E3 		cmp	r3, #255
 2221 1f10 FF304302 		subeq	r3, r3, #255
 2222 1f14 0030CC05 		streqb	r3, [ip, #0]
 2223 1f18 042082E0 		add	r2, r2, r4
 2224 1f1c 0020C5E5 		strb	r2, [r5, #0]
 2225 1f20 0010C7E7 		strb	r1, [r7, r0]
 2226 1f24 0000DCE5 		ldrb	r0, [ip, #0]	@ zero_extendqisi2
 2227 1f28 3E105BE5 		ldrb	r1, [fp, #-62]	@ zero_extendqisi2
 2228 1f2c 012080E2 		add	r2, r0, #1
 2229 1f30 0020CCE5 		strb	r2, [ip, #0]
 2230 1f34 043081E0 		add	r3, r1, r4
 2231 1f38 0030CEE5 		strb	r3, [lr, #0]
 2232 1f3c 0030DCE5 		ldrb	r3, [ip, #0]	@ zero_extendqisi2
 2233 1f40 0040DEE5 		ldrb	r4, [lr, #0]	@ zero_extendqisi2
 2234 1f44 0020D5E5 		ldrb	r2, [r5, #0]	@ zero_extendqisi2
 2235 1f48 FF0053E3 		cmp	r3, #255
 2236 1f4c 042082E0 		add	r2, r2, r4
 2237 1f50 FF304302 		subeq	r3, r3, #255
 2238 1f54 0030CC05 		streqb	r3, [ip, #0]
 2239 1f58 0020C5E5 		strb	r2, [r5, #0]
 2240 1f5c 0010C7E7 		strb	r1, [r7, r0]
 2241 1f60 0000DCE5 		ldrb	r0, [ip, #0]	@ zero_extendqisi2
 2242 1f64 3D105BE5 		ldrb	r1, [fp, #-61]	@ zero_extendqisi2
 2243 1f68 012080E2 		add	r2, r0, #1
 2244 1f6c 043081E0 		add	r3, r1, r4
 2245 1f70 0030CEE5 		strb	r3, [lr, #0]
 2246 1f74 0020CCE5 		strb	r2, [ip, #0]
 2247 1f78 0030DCE5 		ldrb	r3, [ip, #0]	@ zero_extendqisi2
 2248 1f7c FF0053E3 		cmp	r3, #255
 2249 1f80 0040DEE5 		ldrb	r4, [lr, #0]	@ zero_extendqisi2
 2250 1f84 0020D5E5 		ldrb	r2, [r5, #0]	@ zero_extendqisi2
 2251 1f88 FF304302 		subeq	r3, r3, #255
 2252 1f8c 0030CC05 		streqb	r3, [ip, #0]
 2253 1f90 042082E0 		add	r2, r2, r4
 2254 1f94 0020C5E5 		strb	r2, [r5, #0]
 2255 1f98 0010C7E7 		strb	r1, [r7, r0]
 2256 1f9c E0831FE5 		ldr	r8, .L654+92
 2257 1fa0 0010DCE5 		ldrb	r1, [ip, #0]	@ zero_extendqisi2
 2258 1fa4 863086E0 		add	r3, r6, r6, asl #1
 2259 1fa8 0301D8E7 		ldrb	r0, [r8, r3, asl #2]	@ zero_extendqisi2
 2260 1fac 012081E2 		add	r2, r1, #1
 2261 1fb0 0020CCE5 		strb	r2, [ip, #0]
 2262 1fb4 043080E0 		add	r3, r0, r4
 2263 1fb8 0030CEE5 		strb	r3, [lr, #0]
 2264 1fbc 0030DCE5 		ldrb	r3, [ip, #0]	@ zero_extendqisi2
 2265 1fc0 FF0053E3 		cmp	r3, #255
 2266 1fc4 0040DEE5 		ldrb	r4, [lr, #0]	@ zero_extendqisi2
 2267 1fc8 0020D5E5 		ldrb	r2, [r5, #0]	@ zero_extendqisi2
 2268 1fcc FF304302 		subeq	r3, r3, #255
 2269 1fd0 0030CC05 		streqb	r3, [ip, #0]
 2270 1fd4 042082E0 		add	r2, r2, r4
 2271 1fd8 0020C5E5 		strb	r2, [r5, #0]
 2272 1fdc 0100C7E7 		strb	r0, [r7, r1]
 2273 1fe0 0010DCE5 		ldrb	r1, [ip, #0]	@ zero_extendqisi2
 2274 1fe4 8A608AE0 		add	r6, sl, sl, asl #1
 2275 1fe8 013088E2 		add	r3, r8, #1
 2276 1fec 0601D3E7 		ldrb	r0, [r3, r6, asl #2]	@ zero_extendqisi2
 2277 1ff0 012081E2 		add	r2, r1, #1
 2278 1ff4 0020CCE5 		strb	r2, [ip, #0]
 2279 1ff8 043080E0 		add	r3, r0, r4
 2280 1ffc 0030CEE5 		strb	r3, [lr, #0]
 2281 2000 0030DCE5 		ldrb	r3, [ip, #0]	@ zero_extendqisi2
 2282 2004 0040DEE5 		ldrb	r4, [lr, #0]	@ zero_extendqisi2
 2283 2008 FF0053E3 		cmp	r3, #255
 2284 200c 0020D5E5 		ldrb	r2, [r5, #0]	@ zero_extendqisi2
 2285 2010 FF304302 		subeq	r3, r3, #255
 2286 2014 0030CC05 		streqb	r3, [ip, #0]
 2287 2018 042082E0 		add	r2, r2, r4
 2288 201c 0020C5E5 		strb	r2, [r5, #0]
 2289 2020 0100C7E7 		strb	r0, [r7, r1]
 2290 2024 023088E2 		add	r3, r8, #2
 2291 2028 0010DCE5 		ldrb	r1, [ip, #0]	@ zero_extendqisi2
 2292 202c 0601D3E7 		ldrb	r0, [r3, r6, asl #2]	@ zero_extendqisi2
 2293 2030 012081E2 		add	r2, r1, #1
 2294 2034 043080E0 		add	r3, r0, r4
 2295 2038 0020CCE5 		strb	r2, [ip, #0]
 2296 203c 0030CEE5 		strb	r3, [lr, #0]
 2297 2040 0030DCE5 		ldrb	r3, [ip, #0]	@ zero_extendqisi2
 2298 2044 0040DEE5 		ldrb	r4, [lr, #0]	@ zero_extendqisi2
 2299 2048 0020D5E5 		ldrb	r2, [r5, #0]	@ zero_extendqisi2
 2300 204c FF0053E3 		cmp	r3, #255
 2301 2050 FF304302 		subeq	r3, r3, #255
 2302 2054 042082E0 		add	r2, r2, r4
 2303 2058 0020C5E5 		strb	r2, [r5, #0]
 2304 205c 0030CC05 		streqb	r3, [ip, #0]
 2305 2060 0100C7E7 		strb	r0, [r7, r1]
 2306 2064 033088E2 		add	r3, r8, #3
 2307 2068 0601D3E7 		ldrb	r0, [r3, r6, asl #2]	@ zero_extendqisi2
 2308 206c 0010DCE5 		ldrb	r1, [ip, #0]	@ zero_extendqisi2
 2309 2070 043080E0 		add	r3, r0, r4
 2310 2074 012081E2 		add	r2, r1, #1
 2311 2078 0020CCE5 		strb	r2, [ip, #0]
 2312 207c 0030CEE5 		strb	r3, [lr, #0]
 2313 2080 0020DCE5 		ldrb	r2, [ip, #0]	@ zero_extendqisi2
 2314 2084 00E0DEE5 		ldrb	lr, [lr, #0]	@ zero_extendqisi2
 2315 2088 0030D5E5 		ldrb	r3, [r5, #0]	@ zero_extendqisi2
 2316 208c FF0052E3 		cmp	r2, #255
 2317 2090 0E3083E0 		add	r3, r3, lr
 2318 2094 0030C5E5 		strb	r3, [r5, #0]
 2319 2098 0030A003 		moveq	r3, #0
 2320 209c 0030CC05 		streqb	r3, [ip, #0]
 2321 20a0 0030DCE5 		ldrb	r3, [ip, #0]	@ zero_extendqisi2
 2322 20a4 012083E2 		add	r2, r3, #1
 2323 20a8 0020CCE5 		strb	r2, [ip, #0]
 2324 20ac 0020DCE5 		ldrb	r2, [ip, #0]	@ zero_extendqisi2
 2325 20b0 FF0052E3 		cmp	r2, #255
 2326 20b4 0100C7E7 		strb	r0, [r7, r1]
 2327 20b8 03E0C7E7 		strb	lr, [r7, r3]
 2328 20bc 0030A003 		moveq	r3, #0
 2329 20c0 0030CC05 		streqb	r3, [ip, #0]
 2330 20c4 0010DCE5 		ldrb	r1, [ip, #0]	@ zero_extendqisi2
 2331 20c8 013081E2 		add	r3, r1, #1
 2332 20cc 0030CCE5 		strb	r3, [ip, #0]
 2333 20d0 0020D5E5 		ldrb	r2, [r5, #0]	@ zero_extendqisi2
 2334 20d4 0030DCE5 		ldrb	r3, [ip, #0]	@ zero_extendqisi2
 2335 20d8 0120C7E7 		strb	r2, [r7, r1]
 2336 20dc FF0053E3 		cmp	r3, #255
 2337              	.L638:
 2338 20e0 FF304302 		subeq	r3, r3, #255
 2339 20e4 0030CC05 		streqb	r3, [ip, #0]
 2340 20e8 3D0800EA 		b	.L196
 2341              	.L205:
 2342 20ec 2C251FE5 		ldr	r2, .L654+96
 2343 20f0 0030D2E5 		ldrb	r3, [r2, #0]	@ zero_extendqisi2
 2344 20f4 013083E2 		add	r3, r3, #1
 2345 20f8 0030C2E5 		strb	r3, [r2, #0]
 2346              	.L196:
 2347 20fc 0030D9E5 		ldrb	r3, [r9, #0]	@ zero_extendqisi2
 2348 2100 000053E3 		cmp	r3, #0
 2349 2104 0A09001A 		bne	.L228
 2350 2108 2C151FE5 		ldr	r1, .L654+124
 2351 210c 28051FE5 		ldr	r0, .L654+132
 2352 2110 0030D1E5 		ldrb	r3, [r1, #0]	@ zero_extendqisi2
 2353 2114 0020D0E5 		ldrb	r2, [r0, #0]	@ zero_extendqisi2
 2354 2118 030052E1 		cmp	r2, r3
 2355 211c 0030D125 		ldrcsb	r3, [r1, #0]	@ zero_extendqisi2
 2356 2120 0030D135 		ldrccb	r3, [r1, #0]	@ zero_extendqisi2
 2357 2124 02306320 		rsbcs	r3, r3, r2
 2358 2128 03306230 		rsbcc	r3, r2, r3
 2359 212c FF306322 		rsbcs	r3, r3, #255
 2360 2130 0E0053E3 		cmp	r3, #14
 2361 2134 74251FD5 		ldrle	r2, .L654+96
 2362 2138 0030D2D5 		ldrleb	r3, [r2, #0]	@ zero_extendqisi2
 2363 213c 013083D2 		addle	r3, r3, #1
 2364 2140 0030C2D5 		strleb	r3, [r2, #0]
 2365 2144 0A0900DA 		ble	.L228
 2366 2148 0020D0E5 		ldrb	r2, [r0, #0]	@ zero_extendqisi2
 2367 214c 013082E2 		add	r3, r2, #1
 2368 2150 0030C0E5 		strb	r3, [r0, #0]
 2369 2154 0030D0E5 		ldrb	r3, [r0, #0]	@ zero_extendqisi2
 2370 2158 78651FE5 		ldr	r6, .L654+128
 2371 215c FF0053E3 		cmp	r3, #255
 2372 2160 6630E0E3 		mvn	r3, #102
 2373 2164 0230C6E7 		strb	r3, [r6, r2]
 2374 2168 67308302 		addeq	r3, r3, #103
 2375 216c 88C51FE5 		ldr	ip, .L654+132
 2376 2170 0030C005 		streqb	r3, [r0, #0]
 2377 2174 0020DCE5 		ldrb	r2, [ip, #0]	@ zero_extendqisi2
 2378 2178 013082E2 		add	r3, r2, #1
 2379 217c 0030CCE5 		strb	r3, [ip, #0]
 2380 2180 0030DCE5 		ldrb	r3, [ip, #0]	@ zero_extendqisi2
 2381 2184 FF0053E3 		cmp	r3, #255
 2382 2188 0E30A0E3 		mov	r3, #14
 2383 218c 0230C6E7 		strb	r3, [r6, r2]
 2384 2190 0E304302 		subeq	r3, r3, #14
 2385 2194 0030CC05 		streqb	r3, [ip, #0]
 2386 2198 0020DCE5 		ldrb	r2, [ip, #0]	@ zero_extendqisi2
 2387 219c 013082E2 		add	r3, r2, #1
 2388 21a0 0030CCE5 		strb	r3, [ip, #0]
 2389 21a4 0030DCE5 		ldrb	r3, [ip, #0]	@ zero_extendqisi2
 2390 21a8 C0E51FE5 		ldr	lr, .L654+136
 2391 21ac C0551FE5 		ldr	r5, .L654+140
 2392 21b0 FF0053E3 		cmp	r3, #255
 2393 21b4 1530A0E3 		mov	r3, #21
 2394 21b8 0030CEE5 		strb	r3, [lr, #0]
 2395 21bc 0E3083E2 		add	r3, r3, #14
 2396 21c0 0030C5E5 		strb	r3, [r5, #0]
 2397 21c4 1C3043E2 		sub	r3, r3, #28
 2398 21c8 0230C6E7 		strb	r3, [r6, r2]
 2399 21cc 07304302 		subeq	r3, r3, #7
 2400 21d0 0030CC05 		streqb	r3, [ip, #0]
 2401 21d4 0020DCE5 		ldrb	r2, [ip, #0]	@ zero_extendqisi2
 2402 21d8 013082E2 		add	r3, r2, #1
 2403 21dc 0030CCE5 		strb	r3, [ip, #0]
 2404 21e0 0030DCE5 		ldrb	r3, [ip, #0]	@ zero_extendqisi2
 2405 21e4 FF0053E3 		cmp	r3, #255
 2406 21e8 3F30A0E3 		mov	r3, #63
 2407 21ec 0030CEE5 		strb	r3, [lr, #0]
 2408 21f0 233083E2 		add	r3, r3, #35
 2409 21f4 0030C5E5 		strb	r3, [r5, #0]
 2410 21f8 383043E2 		sub	r3, r3, #56
 2411 21fc 0230C6E7 		strb	r3, [r6, r2]
 2412 2200 2A304302 		subeq	r3, r3, #42
 2413 2204 0030CC05 		streqb	r3, [ip, #0]
 2414 2208 44761FE5 		ldr	r7, .L654+100
 2415 220c 0000DCE5 		ldrb	r0, [ip, #0]	@ zero_extendqisi2
 2416 2210 0010D7E5 		ldrb	r1, [r7, #0]	@ zero_extendqisi2
 2417 2214 012080E2 		add	r2, r0, #1
 2418 2218 3F3081E2 		add	r3, r1, #63
 2419 221c 0020CCE5 		strb	r2, [ip, #0]
 2420 2220 0030CEE5 		strb	r3, [lr, #0]
 2421 2224 0030DCE5 		ldrb	r3, [ip, #0]	@ zero_extendqisi2
 2422 2228 0040DEE5 		ldrb	r4, [lr, #0]	@ zero_extendqisi2
 2423 222c FF0053E3 		cmp	r3, #255
 2424 2230 623084E2 		add	r3, r4, #98
 2425 2234 0030C5E5 		strb	r3, [r5, #0]
 2426 2238 0030A003 		moveq	r3, #0
 2427 223c 0030CC05 		streqb	r3, [ip, #0]
 2428 2240 0010C6E7 		strb	r1, [r6, r0]
 2429 2244 0000DCE5 		ldrb	r0, [ip, #0]	@ zero_extendqisi2
 2430 2248 0110D7E5 		ldrb	r1, [r7, #1]	@ zero_extendqisi2
 2431 224c 012080E2 		add	r2, r0, #1
 2432 2250 043081E0 		add	r3, r1, r4
 2433 2254 0030CEE5 		strb	r3, [lr, #0]
 2434 2258 0020CCE5 		strb	r2, [ip, #0]
 2435 225c 0030DCE5 		ldrb	r3, [ip, #0]	@ zero_extendqisi2
 2436 2260 FF0053E3 		cmp	r3, #255
 2437 2264 0040DEE5 		ldrb	r4, [lr, #0]	@ zero_extendqisi2
 2438 2268 0020D5E5 		ldrb	r2, [r5, #0]	@ zero_extendqisi2
 2439 226c FF304302 		subeq	r3, r3, #255
 2440 2270 0030CC05 		streqb	r3, [ip, #0]
 2441 2274 042082E0 		add	r2, r2, r4
 2442 2278 0020C5E5 		strb	r2, [r5, #0]
 2443 227c 0010C6E7 		strb	r1, [r6, r0]
 2444 2280 0000DCE5 		ldrb	r0, [ip, #0]	@ zero_extendqisi2
 2445 2284 0210D7E5 		ldrb	r1, [r7, #2]	@ zero_extendqisi2
 2446 2288 012080E2 		add	r2, r0, #1
 2447 228c 0020CCE5 		strb	r2, [ip, #0]
 2448 2290 043081E0 		add	r3, r1, r4
 2449 2294 0030CEE5 		strb	r3, [lr, #0]
 2450 2298 0030DCE5 		ldrb	r3, [ip, #0]	@ zero_extendqisi2
 2451 229c FF0053E3 		cmp	r3, #255
 2452 22a0 0040DEE5 		ldrb	r4, [lr, #0]	@ zero_extendqisi2
 2453 22a4 0020D5E5 		ldrb	r2, [r5, #0]	@ zero_extendqisi2
 2454 22a8 FF304302 		subeq	r3, r3, #255
 2455 22ac 0030CC05 		streqb	r3, [ip, #0]
 2456 22b0 042082E0 		add	r2, r2, r4
 2457 22b4 0020C5E5 		strb	r2, [r5, #0]
 2458 22b8 0010C6E7 		strb	r1, [r6, r0]
 2459 22bc 0010DCE5 		ldrb	r1, [ip, #0]	@ zero_extendqisi2
 2460 22c0 0300D7E5 		ldrb	r0, [r7, #3]	@ zero_extendqisi2
 2461 22c4 012081E2 		add	r2, r1, #1
 2462 22c8 0020CCE5 		strb	r2, [ip, #0]
 2463 22cc 043080E0 		add	r3, r0, r4
 2464 22d0 0030CEE5 		strb	r3, [lr, #0]
 2465 22d4 0030DCE5 		ldrb	r3, [ip, #0]	@ zero_extendqisi2
 2466 22d8 0040DEE5 		ldrb	r4, [lr, #0]	@ zero_extendqisi2
 2467 22dc FF0053E3 		cmp	r3, #255
 2468 22e0 0020D5E5 		ldrb	r2, [r5, #0]	@ zero_extendqisi2
 2469 22e4 FF304302 		subeq	r3, r3, #255
 2470 22e8 0030CC05 		streqb	r3, [ip, #0]
 2471 22ec 042082E0 		add	r2, r2, r4
 2472 22f0 0020C5E5 		strb	r2, [r5, #0]
 2473 22f4 2C771FE5 		ldr	r7, .L654+104
 2474 22f8 0100C6E7 		strb	r0, [r6, r1]
 2475 22fc 0000DCE5 		ldrb	r0, [ip, #0]	@ zero_extendqisi2
 2476 2300 0010D7E5 		ldrb	r1, [r7, #0]	@ zero_extendqisi2
 2477 2304 012080E2 		add	r2, r0, #1
 2478 2308 043081E0 		add	r3, r1, r4
 2479 230c 0020CCE5 		strb	r2, [ip, #0]
 2480 2310 0030CEE5 		strb	r3, [lr, #0]
 2481 2314 0030DCE5 		ldrb	r3, [ip, #0]	@ zero_extendqisi2
 2482 2318 0040DEE5 		ldrb	r4, [lr, #0]	@ zero_extendqisi2
 2483 231c 0020D5E5 		ldrb	r2, [r5, #0]	@ zero_extendqisi2
 2484 2320 FF0053E3 		cmp	r3, #255
 2485 2324 042082E0 		add	r2, r2, r4
 2486 2328 FF304302 		subeq	r3, r3, #255
 2487 232c 0020C5E5 		strb	r2, [r5, #0]
 2488 2330 0030CC05 		streqb	r3, [ip, #0]
 2489 2334 0010C6E7 		strb	r1, [r6, r0]
 2490 2338 0000DCE5 		ldrb	r0, [ip, #0]	@ zero_extendqisi2
 2491 233c 0110D7E5 		ldrb	r1, [r7, #1]	@ zero_extendqisi2
 2492 2340 012080E2 		add	r2, r0, #1
 2493 2344 0020CCE5 		strb	r2, [ip, #0]
 2494 2348 043081E0 		add	r3, r1, r4
 2495 234c 0030CEE5 		strb	r3, [lr, #0]
 2496 2350 0030DCE5 		ldrb	r3, [ip, #0]	@ zero_extendqisi2
 2497 2354 0040DEE5 		ldrb	r4, [lr, #0]	@ zero_extendqisi2
 2498 2358 0020D5E5 		ldrb	r2, [r5, #0]	@ zero_extendqisi2
 2499 235c FF0053E3 		cmp	r3, #255
 2500 2360 FF304302 		subeq	r3, r3, #255
 2501 2364 0030CC05 		streqb	r3, [ip, #0]
 2502 2368 042082E0 		add	r2, r2, r4
 2503 236c 0020C5E5 		strb	r2, [r5, #0]
 2504 2370 0010C6E7 		strb	r1, [r6, r0]
 2505 2374 0000DCE5 		ldrb	r0, [ip, #0]	@ zero_extendqisi2
 2506 2378 0210D7E5 		ldrb	r1, [r7, #2]	@ zero_extendqisi2
 2507 237c 012080E2 		add	r2, r0, #1
 2508 2380 0020CCE5 		strb	r2, [ip, #0]
 2509 2384 043081E0 		add	r3, r1, r4
 2510 2388 0030CEE5 		strb	r3, [lr, #0]
 2511 238c 0030DCE5 		ldrb	r3, [ip, #0]	@ zero_extendqisi2
 2512 2390 0040DEE5 		ldrb	r4, [lr, #0]	@ zero_extendqisi2
 2513 2394 0020D5E5 		ldrb	r2, [r5, #0]	@ zero_extendqisi2
 2514 2398 FF0053E3 		cmp	r3, #255
 2515 239c FF304302 		subeq	r3, r3, #255
 2516 23a0 042082E0 		add	r2, r2, r4
 2517 23a4 0030CC05 		streqb	r3, [ip, #0]
 2518 23a8 0020C5E5 		strb	r2, [r5, #0]
 2519 23ac 0010C6E7 		strb	r1, [r6, r0]
 2520 23b0 0010DCE5 		ldrb	r1, [ip, #0]	@ zero_extendqisi2
 2521 23b4 0300D7E5 		ldrb	r0, [r7, #3]	@ zero_extendqisi2
 2522 23b8 012081E2 		add	r2, r1, #1
 2523 23bc 043080E0 		add	r3, r0, r4
 2524 23c0 0020CCE5 		strb	r2, [ip, #0]
 2525 23c4 0030CEE5 		strb	r3, [lr, #0]
 2526 23c8 0020DCE5 		ldrb	r2, [ip, #0]	@ zero_extendqisi2
 2527 23cc 00E0DEE5 		ldrb	lr, [lr, #0]	@ zero_extendqisi2
 2528 23d0 0030D5E5 		ldrb	r3, [r5, #0]	@ zero_extendqisi2
 2529 23d4 FF0052E3 		cmp	r2, #255
 2530 23d8 0E3083E0 		add	r3, r3, lr
 2531 23dc 0030C5E5 		strb	r3, [r5, #0]
 2532 23e0 0030A003 		moveq	r3, #0
 2533 23e4 0030CC05 		streqb	r3, [ip, #0]
 2534 23e8 0030DCE5 		ldrb	r3, [ip, #0]	@ zero_extendqisi2
 2535 23ec 012083E2 		add	r2, r3, #1
 2536 23f0 0100C6E7 		strb	r0, [r6, r1]
 2537 23f4 0020CCE5 		strb	r2, [ip, #0]
 2538 23f8 0020DCE5 		ldrb	r2, [ip, #0]	@ zero_extendqisi2
 2539 23fc FF0052E3 		cmp	r2, #255
 2540 2400 03E0C6E7 		strb	lr, [r6, r3]
 2541 2404 0030A003 		moveq	r3, #0
 2542 2408 0030CC05 		streqb	r3, [ip, #0]
 2543 240c 0010DCE5 		ldrb	r1, [ip, #0]	@ zero_extendqisi2
 2544 2410 013081E2 		add	r3, r1, #1
 2545 2414 0030CCE5 		strb	r3, [ip, #0]
 2546 2418 0030DCE5 		ldrb	r3, [ip, #0]	@ zero_extendqisi2
 2547 241c 0020D5E5 		ldrb	r2, [r5, #0]	@ zero_extendqisi2
 2548 2420 FF0053E3 		cmp	r3, #255
 2549 2424 FF304302 		subeq	r3, r3, #255
 2550 2428 0120C6E7 		strb	r2, [r6, r1]
 2551 242c 0030CC05 		streqb	r3, [ip, #0]
 2552              	.L228:
 2553 2430 64281FE5 		ldr	r2, .L654+108
 2554 2434 0030D2E5 		ldrb	r3, [r2, #0]	@ zero_extendqisi2
 2555 2438 060053E3 		cmp	r3, #6
 2556 243c 6309001A 		bne	.L247
 2557 2440 70381FE5 		ldr	r3, .L654+112
 2558 2444 B030D3E1 		ldrh	r3, [r3, #0]
 2559 2448 000053E3 		cmp	r3, #0
 2560 244c 180F001A 		bne	.L259
 2561 2450 7C381FE5 		ldr	r3, .L654+116
 2562 2454 0030D3E5 		ldrb	r3, [r3, #0]	@ zero_extendqisi2
 2563 2458 010053E3 		cmp	r3, #1
 2564 245c 180F001A 		bne	.L259
 2565 2460 84181FE5 		ldr	r1, .L654+124
 2566 2464 80081FE5 		ldr	r0, .L654+132
 2567 2468 0030D1E5 		ldrb	r3, [r1, #0]	@ zero_extendqisi2
 2568 246c 0020D0E5 		ldrb	r2, [r0, #0]	@ zero_extendqisi2
 2569 2470 030052E1 		cmp	r2, r3
 2570 2474 0030D125 		ldrcsb	r3, [r1, #0]	@ zero_extendqisi2
 2571 2478 0030D135 		ldrccb	r3, [r1, #0]	@ zero_extendqisi2
 2572 247c 02306320 		rsbcs	r3, r3, r2
 2573 2480 FF306322 		rsbcs	r3, r3, #255
 2574 2484 03306230 		rsbcc	r3, r2, r3
 2575 2488 060053E3 		cmp	r3, #6
 2576 248c 140F00DA 		ble	.L400
 2577 2490 0020D0E5 		ldrb	r2, [r0, #0]	@ zero_extendqisi2
 2578 2494 013082E2 		add	r3, r2, #1
 2579 2498 0030C0E5 		strb	r3, [r0, #0]
 2580 249c 0030D0E5 		ldrb	r3, [r0, #0]	@ zero_extendqisi2
 2581 24a0 C0C81FE5 		ldr	ip, .L654+128
 2582 24a4 FF0053E3 		cmp	r3, #255
 2583 24a8 6630E0E3 		mvn	r3, #102
 2584 24ac 0230CCE7 		strb	r3, [ip, r2]
 2585 24b0 67308302 		addeq	r3, r3, #103
 2586 24b4 0030C005 		streqb	r3, [r0, #0]
 2587 24b8 D4181FE5 		ldr	r1, .L654+132
 2588 24bc 0020D1E5 		ldrb	r2, [r1, #0]	@ zero_extendqisi2
 2589 24c0 013082E2 		add	r3, r2, #1
 2590 24c4 0030C1E5 		strb	r3, [r1, #0]
 2591 24c8 0030D1E5 		ldrb	r3, [r1, #0]	@ zero_extendqisi2
 2592 24cc FF0053E3 		cmp	r3, #255
 2593 24d0 0630A0E3 		mov	r3, #6
 2594 24d4 0230CCE7 		strb	r3, [ip, r2]
 2595 24d8 06304302 		subeq	r3, r3, #6
 2596 24dc 0030C105 		streqb	r3, [r1, #0]
 2597 24e0 0020D1E5 		ldrb	r2, [r1, #0]	@ zero_extendqisi2
 2598 24e4 013082E2 		add	r3, r2, #1
 2599 24e8 0030C1E5 		strb	r3, [r1, #0]
 2600 24ec 0030D1E5 		ldrb	r3, [r1, #0]	@ zero_extendqisi2
 2601 24f0 08E91FE5 		ldr	lr, .L654+136
 2602 24f4 FF0053E3 		cmp	r3, #255
 2603 24f8 0C491FE5 		ldr	r4, .L654+140
 2604 24fc 0D30A0E3 		mov	r3, #13
 2605 2500 0030CEE5 		strb	r3, [lr, #0]
 2606 2504 063083E2 		add	r3, r3, #6
 2607 2508 0030C4E5 		strb	r3, [r4, #0]
 2608 250c 0C3043E2 		sub	r3, r3, #12
 2609 2510 0230CCE7 		strb	r3, [ip, r2]
 2610 2514 07304302 		subeq	r3, r3, #7
 2611 2518 0030C105 		streqb	r3, [r1, #0]
 2612 251c 0020D1E5 		ldrb	r2, [r1, #0]	@ zero_extendqisi2
 2613 2520 013082E2 		add	r3, r2, #1
 2614 2524 0030C1E5 		strb	r3, [r1, #0]
 2615 2528 0030D1E5 		ldrb	r3, [r1, #0]	@ zero_extendqisi2
 2616 252c FF0053E3 		cmp	r3, #255
 2617 2530 0230A0E3 		mov	r3, #2
 2618 2534 0230CCE7 		strb	r3, [ip, r2]
 2619 2538 02304302 		subeq	r3, r3, #2
 2620 253c 0030C105 		streqb	r3, [r1, #0]
 2621 2540 0030D1E5 		ldrb	r3, [r1, #0]	@ zero_extendqisi2
 2622 2544 012083E2 		add	r2, r3, #1
 2623 2548 0020C1E5 		strb	r2, [r1, #0]
 2624 254c 0020D1E5 		ldrb	r2, [r1, #0]	@ zero_extendqisi2
 2625 2550 0F00A0E3 		mov	r0, #15
 2626 2554 FF0052E3 		cmp	r2, #255
 2627 2558 0300CCE7 		strb	r0, [ip, r3]
 2628 255c 0030A003 		moveq	r3, #0
 2629 2560 0030C105 		streqb	r3, [r1, #0]
 2630 2564 0030D1E5 		ldrb	r3, [r1, #0]	@ zero_extendqisi2
 2631 2568 012083E2 		add	r2, r3, #1
 2632 256c 0020C1E5 		strb	r2, [r1, #0]
 2633 2570 0020D1E5 		ldrb	r2, [r1, #0]	@ zero_extendqisi2
 2634 2574 2250A0E3 		mov	r5, #34
 2635 2578 FF0052E3 		cmp	r2, #255
 2636 257c 0350CCE7 		strb	r5, [ip, r3]
 2637 2580 0030A003 		moveq	r3, #0
 2638 2584 0000CEE5 		strb	r0, [lr, #0]
 2639 2588 0050C4E5 		strb	r5, [r4, #0]
 2640 258c 0030C105 		streqb	r3, [r1, #0]
 2641 2590 180F00EA 		b	.L259
 2642              	.L247:
 2643 2594 0C0053E3 		cmp	r3, #12
 2644 2598 D709001A 		bne	.L260
 2645 259c CC391FE5 		ldr	r3, .L654+112
 2646 25a0 B030D3E1 		ldrh	r3, [r3, #0]
 2647 25a4 000053E3 		cmp	r3, #0
 2648 25a8 180F001A 		bne	.L259
 2649 25ac D8391FE5 		ldr	r3, .L654+116
 2650 25b0 0030D3E5 		ldrb	r3, [r3, #0]	@ zero_extendqisi2
 2651 25b4 020053E3 		cmp	r3, #2
 2652 25b8 180F001A 		bne	.L259
 2653 25bc E0191FE5 		ldr	r1, .L654+124
 2654 25c0 DC091FE5 		ldr	r0, .L654+132
 2655 25c4 0030D1E5 		ldrb	r3, [r1, #0]	@ zero_extendqisi2
 2656 25c8 0020D0E5 		ldrb	r2, [r0, #0]	@ zero_extendqisi2
 2657 25cc 030052E1 		cmp	r2, r3
 2658 25d0 0030D125 		ldrcsb	r3, [r1, #0]	@ zero_extendqisi2
 2659 25d4 0030D135 		ldrccb	r3, [r1, #0]	@ zero_extendqisi2
 2660 25d8 02306320 		rsbcs	r3, r3, r2
 2661 25dc FF306322 		rsbcs	r3, r3, #255
 2662 25e0 03306230 		rsbcc	r3, r2, r3
 2663 25e4 080053E3 		cmp	r3, #8
 2664 25e8 140F00DA 		ble	.L400
 2665 25ec 0020D0E5 		ldrb	r2, [r0, #0]	@ zero_extendqisi2
 2666 25f0 013082E2 		add	r3, r2, #1
 2667 25f4 0030C0E5 		strb	r3, [r0, #0]
 2668 25f8 0030D0E5 		ldrb	r3, [r0, #0]	@ zero_extendqisi2
 2669 25fc 1C4A1FE5 		ldr	r4, .L654+128
 2670 2600 FF0053E3 		cmp	r3, #255
 2671 2604 6630E0E3 		mvn	r3, #102
 2672 2608 0230C4E7 		strb	r3, [r4, r2]
 2673 260c 67308302 		addeq	r3, r3, #103
 2674 2610 2CCA1FE5 		ldr	ip, .L654+132
 2675 2614 0030C005 		streqb	r3, [r0, #0]
 2676 2618 0020DCE5 		ldrb	r2, [ip, #0]	@ zero_extendqisi2
 2677 261c 013082E2 		add	r3, r2, #1
 2678 2620 0030CCE5 		strb	r3, [ip, #0]
 2679 2624 0030DCE5 		ldrb	r3, [ip, #0]	@ zero_extendqisi2
 2680 2628 FF0053E3 		cmp	r3, #255
 2681 262c 0830A0E3 		mov	r3, #8
 2682 2630 0230C4E7 		strb	r3, [r4, r2]
 2683 2634 08304302 		subeq	r3, r3, #8
 2684 2638 0030CC05 		streqb	r3, [ip, #0]
 2685 263c 0020DCE5 		ldrb	r2, [ip, #0]	@ zero_extendqisi2
 2686 2640 013082E2 		add	r3, r2, #1
 2687 2644 0030CCE5 		strb	r3, [ip, #0]
 2688 2648 0030DCE5 		ldrb	r3, [ip, #0]	@ zero_extendqisi2
 2689 264c 64EA1FE5 		ldr	lr, .L654+136
 2690 2650 645A1FE5 		ldr	r5, .L654+140
 2691 2654 FF0053E3 		cmp	r3, #255
 2692 2658 0F30A0E3 		mov	r3, #15
 2693 265c 0030CEE5 		strb	r3, [lr, #0]
 2694 2660 083083E2 		add	r3, r3, #8
 2695 2664 0030C5E5 		strb	r3, [r5, #0]
 2696 2668 103043E2 		sub	r3, r3, #16
 2697 266c 0230C4E7 		strb	r3, [r4, r2]
 2698 2670 07304302 		subeq	r3, r3, #7
 2699 2674 0030CC05 		streqb	r3, [ip, #0]
 2700 2678 0020DCE5 		ldrb	r2, [ip, #0]	@ zero_extendqisi2
 2701 267c 013082E2 		add	r3, r2, #1
 2702 2680 0030CCE5 		strb	r3, [ip, #0]
 2703 2684 0030DCE5 		ldrb	r3, [ip, #0]	@ zero_extendqisi2
 2704 2688 FF0053E3 		cmp	r3, #255
 2705 268c 1230A0E3 		mov	r3, #18
 2706 2690 0030CEE5 		strb	r3, [lr, #0]
 2707 2694 173083E2 		add	r3, r3, #23
 2708 2698 0030C5E5 		strb	r3, [r5, #0]
 2709 269c 263043E2 		sub	r3, r3, #38
 2710 26a0 0230C4E7 		strb	r3, [r4, r2]
 2711 26a4 03304302 		subeq	r3, r3, #3
 2712 26a8 0030CC05 		streqb	r3, [ip, #0]
 2713 26ac D46A1FE5 		ldr	r6, .L654+120
 2714 26b0 0000DCE5 		ldrb	r0, [ip, #0]	@ zero_extendqisi2
 2715 26b4 0010D6E5 		ldrb	r1, [r6, #0]	@ zero_extendqisi2
 2716 26b8 012080E2 		add	r2, r0, #1
 2717 26bc 123081E2 		add	r3, r1, #18
 2718 26c0 0020CCE5 		strb	r2, [ip, #0]
 2719 26c4 0030CEE5 		strb	r3, [lr, #0]
 2720 26c8 0030DCE5 		ldrb	r3, [ip, #0]	@ zero_extendqisi2
 2721 26cc 0020DEE5 		ldrb	r2, [lr, #0]	@ zero_extendqisi2
 2722 26d0 FF0053E3 		cmp	r3, #255
 2723 26d4 293082E2 		add	r3, r2, #41
 2724 26d8 0030C5E5 		strb	r3, [r5, #0]
 2725 26dc 0030A003 		moveq	r3, #0
 2726 26e0 0030CC05 		streqb	r3, [ip, #0]
 2727 26e4 0010C4E7 		strb	r1, [r4, r0]
 2728 26e8 0010DCE5 		ldrb	r1, [ip, #0]	@ zero_extendqisi2
 2729 26ec 0100D6E5 		ldrb	r0, [r6, #1]	@ zero_extendqisi2
 2730 26f0 023080E0 		add	r3, r0, r2
 2731 26f4 012081E2 		add	r2, r1, #1
 2732 26f8 0030CEE5 		strb	r3, [lr, #0]
 2733 26fc 0020CCE5 		strb	r2, [ip, #0]
 2734 2700 00E0DEE5 		ldrb	lr, [lr, #0]	@ zero_extendqisi2
 2735 2704 0020DCE5 		ldrb	r2, [ip, #0]	@ zero_extendqisi2
 2736 2708 0030D5E5 		ldrb	r3, [r5, #0]	@ zero_extendqisi2
 2737 270c FF0052E3 		cmp	r2, #255
 2738 2710 0E3083E0 		add	r3, r3, lr
 2739 2714 0030C5E5 		strb	r3, [r5, #0]
 2740 2718 0030A003 		moveq	r3, #0
 2741 271c 0030CC05 		streqb	r3, [ip, #0]
 2742 2720 0030DCE5 		ldrb	r3, [ip, #0]	@ zero_extendqisi2
 2743 2724 012083E2 		add	r2, r3, #1
 2744 2728 0020CCE5 		strb	r2, [ip, #0]
 2745 272c 0020DCE5 		ldrb	r2, [ip, #0]	@ zero_extendqisi2
 2746 2730 FF0052E3 		cmp	r2, #255
 2747 2734 0100C4E7 		strb	r0, [r4, r1]
 2748 2738 03E0C4E7 		strb	lr, [r4, r3]
 2749 273c 0030A003 		moveq	r3, #0
 2750 2740 0030CC05 		streqb	r3, [ip, #0]
 2751 2744 0010DCE5 		ldrb	r1, [ip, #0]	@ zero_extendqisi2
 2752 2748 013081E2 		add	r3, r1, #1
 2753 274c 0030CCE5 		strb	r3, [ip, #0]
 2754 2750 0030DCE5 		ldrb	r3, [ip, #0]	@ zero_extendqisi2
 2755 2754 0020D5E5 		ldrb	r2, [r5, #0]	@ zero_extendqisi2
 2756 2758 FF0053E3 		cmp	r3, #255
 2757 275c 0120C4E7 		strb	r2, [r4, r1]
 2758 2760 110F00EA 		b	.L640
 2759              	.L260:
 2760 2764 120053E3 		cmp	r3, #18
 2761 2768 900B001A 		bne	.L275
 2762 276c 901B1FE5 		ldr	r1, .L654+124
 2763 2770 8C0B1FE5 		ldr	r0, .L654+132
 2764 2774 0030D1E5 		ldrb	r3, [r1, #0]	@ zero_extendqisi2
 2765 2778 0020D0E5 		ldrb	r2, [r0, #0]	@ zero_extendqisi2
 2766 277c 030052E1 		cmp	r2, r3
 2767 2780 0030D125 		ldrcsb	r3, [r1, #0]	@ zero_extendqisi2
 2768 2784 0030D135 		ldrccb	r3, [r1, #0]	@ zero_extendqisi2
 2769 2788 02306320 		rsbcs	r3, r3, r2
 2770 278c FF306322 		rsbcs	r3, r3, #255
 2771 2790 03306230 		rsbcc	r3, r2, r3
 2772 2794 1E0053E3 		cmp	r3, #30
 2773 2798 140F00DA 		ble	.L400
 2774 279c 0020D0E5 		ldrb	r2, [r0, #0]	@ zero_extendqisi2
 2775 27a0 013082E2 		add	r3, r2, #1
 2776 27a4 0030C0E5 		strb	r3, [r0, #0]
 2777 27a8 0030D0E5 		ldrb	r3, [r0, #0]	@ zero_extendqisi2
 2778 27ac CC6B1FE5 		ldr	r6, .L654+128
 2779 27b0 FF0053E3 		cmp	r3, #255
 2780 27b4 6630E0E3 		mvn	r3, #102
 2781 27b8 0230C6E7 		strb	r3, [r6, r2]
 2782 27bc 67308302 		addeq	r3, r3, #103
 2783 27c0 DCCB1FE5 		ldr	ip, .L654+132
 2784 27c4 0030C005 		streqb	r3, [r0, #0]
 2785 27c8 0020DCE5 		ldrb	r2, [ip, #0]	@ zero_extendqisi2
 2786 27cc 013082E2 		add	r3, r2, #1
 2787 27d0 0030CCE5 		strb	r3, [ip, #0]
 2788 27d4 0030DCE5 		ldrb	r3, [ip, #0]	@ zero_extendqisi2
 2789 27d8 FF0053E3 		cmp	r3, #255
 2790 27dc 1E30A0E3 		mov	r3, #30
 2791 27e0 0230C6E7 		strb	r3, [r6, r2]
 2792 27e4 1E304302 		subeq	r3, r3, #30
 2793 27e8 0030CC05 		streqb	r3, [ip, #0]
 2794 27ec 0020DCE5 		ldrb	r2, [ip, #0]	@ zero_extendqisi2
 2795 27f0 013082E2 		add	r3, r2, #1
 2796 27f4 0030CCE5 		strb	r3, [ip, #0]
 2797 27f8 0030DCE5 		ldrb	r3, [ip, #0]	@ zero_extendqisi2
 2798 27fc 14EC1FE5 		ldr	lr, .L654+136
 2799 2800 144C1FE5 		ldr	r4, .L654+140
 2800 2804 FF0053E3 		cmp	r3, #255
 2801 2808 2530A0E3 		mov	r3, #37
 2802 280c 0030CEE5 		strb	r3, [lr, #0]
 2803 2810 1E3083E2 		add	r3, r3, #30
 2804 2814 0030C4E5 		strb	r3, [r4, #0]
 2805 2818 3C3043E2 		sub	r3, r3, #60
 2806 281c 0230C6E7 		strb	r3, [r6, r2]
 2807 2820 07304302 		subeq	r3, r3, #7
 2808 2824 0030CC05 		streqb	r3, [ip, #0]
 2809 2828 0020DCE5 		ldrb	r2, [ip, #0]	@ zero_extendqisi2
 2810 282c 013082E2 		add	r3, r2, #1
 2811 2830 0030CCE5 		strb	r3, [ip, #0]
 2812 2834 0030DCE5 		ldrb	r3, [ip, #0]	@ zero_extendqisi2
 2813 2838 FF0053E3 		cmp	r3, #255
 2814 283c 3530A0E3 		mov	r3, #53
 2815 2840 0030CEE5 		strb	r3, [lr, #0]
 2816 2844 433083E2 		add	r3, r3, #67
 2817 2848 0030C4E5 		strb	r3, [r4, #0]
 2818 284c 683043E2 		sub	r3, r3, #104
 2819 2850 0230C6E7 		strb	r3, [r6, r2]
 2820 2854 10304302 		subeq	r3, r3, #16
 2821 2858 0030CC05 		streqb	r3, [ip, #0]
 2822 285c 6C7C1FE5 		ldr	r7, .L654+144
 2823 2860 0000DCE5 		ldrb	r0, [ip, #0]	@ zero_extendqisi2
 2824 2864 0010D7E5 		ldrb	r1, [r7, #0]	@ zero_extendqisi2
 2825 2868 012080E2 		add	r2, r0, #1
 2826 286c 353081E2 		add	r3, r1, #53
 2827 2870 0020CCE5 		strb	r2, [ip, #0]
 2828 2874 0030CEE5 		strb	r3, [lr, #0]
 2829 2878 0030DCE5 		ldrb	r3, [ip, #0]	@ zero_extendqisi2
 2830 287c 0050DEE5 		ldrb	r5, [lr, #0]	@ zero_extendqisi2
 2831 2880 FF0053E3 		cmp	r3, #255
 2832 2884 783085E2 		add	r3, r5, #120
 2833 2888 0030C4E5 		strb	r3, [r4, #0]
 2834 288c 0030A003 		moveq	r3, #0
 2835 2890 0030CC05 		streqb	r3, [ip, #0]
 2836 2894 0010C6E7 		strb	r1, [r6, r0]
 2837 2898 0000DCE5 		ldrb	r0, [ip, #0]	@ zero_extendqisi2
 2838 289c 0110D7E5 		ldrb	r1, [r7, #1]	@ zero_extendqisi2
 2839 28a0 012080E2 		add	r2, r0, #1
 2840 28a4 053081E0 		add	r3, r1, r5
 2841 28a8 0030CEE5 		strb	r3, [lr, #0]
 2842 28ac 0020CCE5 		strb	r2, [ip, #0]
 2843 28b0 0030DCE5 		ldrb	r3, [ip, #0]	@ zero_extendqisi2
 2844 28b4 FF0053E3 		cmp	r3, #255
 2845 28b8 0050DEE5 		ldrb	r5, [lr, #0]	@ zero_extendqisi2
 2846 28bc 0020D4E5 		ldrb	r2, [r4, #0]	@ zero_extendqisi2
 2847 28c0 FF304302 		subeq	r3, r3, #255
 2848 28c4 0030CC05 		streqb	r3, [ip, #0]
 2849 28c8 052082E0 		add	r2, r2, r5
 2850 28cc 0020C4E5 		strb	r2, [r4, #0]
 2851 28d0 0010C6E7 		strb	r1, [r6, r0]
 2852 28d4 0000DCE5 		ldrb	r0, [ip, #0]	@ zero_extendqisi2
 2853 28d8 0210D7E5 		ldrb	r1, [r7, #2]	@ zero_extendqisi2
 2854 28dc 012080E2 		add	r2, r0, #1
 2855 28e0 0020CCE5 		strb	r2, [ip, #0]
 2856 28e4 053081E0 		add	r3, r1, r5
 2857 28e8 0030CEE5 		strb	r3, [lr, #0]
 2858 28ec 0030DCE5 		ldrb	r3, [ip, #0]	@ zero_extendqisi2
 2859 28f0 FF0053E3 		cmp	r3, #255
 2860 28f4 0050DEE5 		ldrb	r5, [lr, #0]	@ zero_extendqisi2
 2861 28f8 0020D4E5 		ldrb	r2, [r4, #0]	@ zero_extendqisi2
 2862 28fc FF304302 		subeq	r3, r3, #255
 2863 2900 0030CC05 		streqb	r3, [ip, #0]
 2864 2904 052082E0 		add	r2, r2, r5
 2865 2908 0020C4E5 		strb	r2, [r4, #0]
 2866 290c 0010C6E7 		strb	r1, [r6, r0]
 2867 2910 0010DCE5 		ldrb	r1, [ip, #0]	@ zero_extendqisi2
 2868 2914 0300D7E5 		ldrb	r0, [r7, #3]	@ zero_extendqisi2
 2869 2918 012081E2 		add	r2, r1, #1
 2870 291c 0020CCE5 		strb	r2, [ip, #0]
 2871 2920 053080E0 		add	r3, r0, r5
 2872 2924 0030CEE5 		strb	r3, [lr, #0]
 2873 2928 0030DCE5 		ldrb	r3, [ip, #0]	@ zero_extendqisi2
 2874 292c 0050DEE5 		ldrb	r5, [lr, #0]	@ zero_extendqisi2
 2875 2930 FF0053E3 		cmp	r3, #255
 2876 2934 0020D4E5 		ldrb	r2, [r4, #0]	@ zero_extendqisi2
 2877 2938 FF304302 		subeq	r3, r3, #255
 2878 293c 0030CC05 		streqb	r3, [ip, #0]
 2879 2940 052082E0 		add	r2, r2, r5
 2880 2944 507D1FE5 		ldr	r7, .L654+148
 2881 2948 0020C4E5 		strb	r2, [r4, #0]
 2882 294c 0100C6E7 		strb	r0, [r6, r1]
 2883 2950 0000DCE5 		ldrb	r0, [ip, #0]	@ zero_extendqisi2
 2884 2954 0010D7E5 		ldrb	r1, [r7, #0]	@ zero_extendqisi2
 2885 2958 012080E2 		add	r2, r0, #1
 2886 295c 053081E0 		add	r3, r1, r5
 2887 2960 0020CCE5 		strb	r2, [ip, #0]
 2888 2964 0030CEE5 		strb	r3, [lr, #0]
 2889 2968 0030DCE5 		ldrb	r3, [ip, #0]	@ zero_extendqisi2
 2890 296c 0050DEE5 		ldrb	r5, [lr, #0]	@ zero_extendqisi2
 2891 2970 0020D4E5 		ldrb	r2, [r4, #0]	@ zero_extendqisi2
 2892 2974 FF0053E3 		cmp	r3, #255
 2893 2978 052082E0 		add	r2, r2, r5
 2894 297c FF304302 		subeq	r3, r3, #255
 2895 2980 0020C4E5 		strb	r2, [r4, #0]
 2896 2984 0030CC05 		streqb	r3, [ip, #0]
 2897 2988 0010C6E7 		strb	r1, [r6, r0]
 2898 298c 0000DCE5 		ldrb	r0, [ip, #0]	@ zero_extendqisi2
 2899 2990 0110D7E5 		ldrb	r1, [r7, #1]	@ zero_extendqisi2
 2900 2994 012080E2 		add	r2, r0, #1
 2901 2998 0020CCE5 		strb	r2, [ip, #0]
 2902 299c 053081E0 		add	r3, r1, r5
 2903 29a0 0030CEE5 		strb	r3, [lr, #0]
 2904 29a4 0030DCE5 		ldrb	r3, [ip, #0]	@ zero_extendqisi2
 2905 29a8 FF0053E3 		cmp	r3, #255
 2906 29ac 0050DEE5 		ldrb	r5, [lr, #0]	@ zero_extendqisi2
 2907 29b0 0020D4E5 		ldrb	r2, [r4, #0]	@ zero_extendqisi2
 2908 29b4 FF304302 		subeq	r3, r3, #255
 2909 29b8 0030CC05 		streqb	r3, [ip, #0]
 2910 29bc 052082E0 		add	r2, r2, r5
 2911 29c0 0020C4E5 		strb	r2, [r4, #0]
 2912 29c4 0010C6E7 		strb	r1, [r6, r0]
 2913 29c8 0000DCE5 		ldrb	r0, [ip, #0]	@ zero_extendqisi2
 2914 29cc 0210D7E5 		ldrb	r1, [r7, #2]	@ zero_extendqisi2
 2915 29d0 012080E2 		add	r2, r0, #1
 2916 29d4 0020CCE5 		strb	r2, [ip, #0]
 2917 29d8 053081E0 		add	r3, r1, r5
 2918 29dc 0030CEE5 		strb	r3, [lr, #0]
 2919 29e0 0030DCE5 		ldrb	r3, [ip, #0]	@ zero_extendqisi2
 2920 29e4 0050DEE5 		ldrb	r5, [lr, #0]	@ zero_extendqisi2
 2921 29e8 0020D4E5 		ldrb	r2, [r4, #0]	@ zero_extendqisi2
 2922 29ec FF0053E3 		cmp	r3, #255
 2923 29f0 FF304302 		subeq	r3, r3, #255
 2924 29f4 0030CC05 		streqb	r3, [ip, #0]
 2925 29f8 052082E0 		add	r2, r2, r5
 2926 29fc 0020C4E5 		strb	r2, [r4, #0]
 2927 2a00 0010C6E7 		strb	r1, [r6, r0]
 2928 2a04 0010DCE5 		ldrb	r1, [ip, #0]	@ zero_extendqisi2
 2929 2a08 0300D7E5 		ldrb	r0, [r7, #3]	@ zero_extendqisi2
 2930 2a0c 012081E2 		add	r2, r1, #1
 2931 2a10 0020CCE5 		strb	r2, [ip, #0]
 2932 2a14 053080E0 		add	r3, r0, r5
 2933 2a18 0030CEE5 		strb	r3, [lr, #0]
 2934 2a1c 0030DCE5 		ldrb	r3, [ip, #0]	@ zero_extendqisi2
 2935 2a20 0050DEE5 		ldrb	r5, [lr, #0]	@ zero_extendqisi2
 2936 2a24 0020D4E5 		ldrb	r2, [r4, #0]	@ zero_extendqisi2
 2937 2a28 FF0053E3 		cmp	r3, #255
 2938 2a2c 052082E0 		add	r2, r2, r5
 2939 2a30 FF304302 		subeq	r3, r3, #255
 2940 2a34 0030CC05 		streqb	r3, [ip, #0]
 2941 2a38 407E1FE5 		ldr	r7, .L654+152
 2942 2a3c 0020C4E5 		strb	r2, [r4, #0]
 2943 2a40 0100C6E7 		strb	r0, [r6, r1]
 2944 2a44 0000DCE5 		ldrb	r0, [ip, #0]	@ zero_extendqisi2
 2945 2a48 0010D7E5 		ldrb	r1, [r7, #0]	@ zero_extendqisi2
 2946 2a4c 012080E2 		add	r2, r0, #1
 2947 2a50 053081E0 		add	r3, r1, r5
 2948 2a54 0030CEE5 		strb	r3, [lr, #0]
 2949 2a58 0020CCE5 		strb	r2, [ip, #0]
 2950 2a5c 0030DCE5 		ldrb	r3, [ip, #0]	@ zero_extendqisi2
 2951 2a60 FF0053E3 		cmp	r3, #255
 2952 2a64 0050DEE5 		ldrb	r5, [lr, #0]	@ zero_extendqisi2
 2953 2a68 0020D4E5 		ldrb	r2, [r4, #0]	@ zero_extendqisi2
 2954 2a6c FF304302 		subeq	r3, r3, #255
 2955 2a70 0030CC05 		streqb	r3, [ip, #0]
 2956 2a74 052082E0 		add	r2, r2, r5
 2957 2a78 0020C4E5 		strb	r2, [r4, #0]
 2958 2a7c 0010C6E7 		strb	r1, [r6, r0]
 2959 2a80 0000DCE5 		ldrb	r0, [ip, #0]	@ zero_extendqisi2
 2960 2a84 0110D7E5 		ldrb	r1, [r7, #1]	@ zero_extendqisi2
 2961 2a88 012080E2 		add	r2, r0, #1
 2962 2a8c 0020CCE5 		strb	r2, [ip, #0]
 2963 2a90 053081E0 		add	r3, r1, r5
 2964 2a94 0030CEE5 		strb	r3, [lr, #0]
 2965 2a98 0030DCE5 		ldrb	r3, [ip, #0]	@ zero_extendqisi2
 2966 2a9c FF0053E3 		cmp	r3, #255
 2967 2aa0 0050DEE5 		ldrb	r5, [lr, #0]	@ zero_extendqisi2
 2968 2aa4 0020D4E5 		ldrb	r2, [r4, #0]	@ zero_extendqisi2
 2969 2aa8 FF304302 		subeq	r3, r3, #255
 2970 2aac 0030CC05 		streqb	r3, [ip, #0]
 2971 2ab0 052082E0 		add	r2, r2, r5
 2972 2ab4 0020C4E5 		strb	r2, [r4, #0]
 2973 2ab8 0010C6E7 		strb	r1, [r6, r0]
 2974 2abc 0000DCE5 		ldrb	r0, [ip, #0]	@ zero_extendqisi2
 2975 2ac0 0210D7E5 		ldrb	r1, [r7, #2]	@ zero_extendqisi2
 2976 2ac4 012080E2 		add	r2, r0, #1
 2977 2ac8 0020CCE5 		strb	r2, [ip, #0]
 2978 2acc 053081E0 		add	r3, r1, r5
 2979 2ad0 0030CEE5 		strb	r3, [lr, #0]
 2980 2ad4 0030DCE5 		ldrb	r3, [ip, #0]	@ zero_extendqisi2
 2981 2ad8 0050DEE5 		ldrb	r5, [lr, #0]	@ zero_extendqisi2
 2982 2adc FF0053E3 		cmp	r3, #255
 2983 2ae0 0020D4E5 		ldrb	r2, [r4, #0]	@ zero_extendqisi2
 2984 2ae4 FF304302 		subeq	r3, r3, #255
 2985 2ae8 0030CC05 		streqb	r3, [ip, #0]
 2986 2aec 052082E0 		add	r2, r2, r5
 2987 2af0 0020C4E5 		strb	r2, [r4, #0]
 2988 2af4 0010C6E7 		strb	r1, [r6, r0]
 2989 2af8 0010DCE5 		ldrb	r1, [ip, #0]	@ zero_extendqisi2
 2990 2afc 0300D7E5 		ldrb	r0, [r7, #3]	@ zero_extendqisi2
 2991 2b00 012081E2 		add	r2, r1, #1
 2992 2b04 053080E0 		add	r3, r0, r5
 2993 2b08 0020CCE5 		strb	r2, [ip, #0]
 2994 2b0c 0030CEE5 		strb	r3, [lr, #0]
 2995 2b10 0030DCE5 		ldrb	r3, [ip, #0]	@ zero_extendqisi2
 2996 2b14 0050DEE5 		ldrb	r5, [lr, #0]	@ zero_extendqisi2
 2997 2b18 0020D4E5 		ldrb	r2, [r4, #0]	@ zero_extendqisi2
 2998 2b1c FF0053E3 		cmp	r3, #255
 2999 2b20 052082E0 		add	r2, r2, r5
 3000 2b24 FF304302 		subeq	r3, r3, #255
 3001 2b28 0020C4E5 		strb	r2, [r4, #0]
 3002 2b2c 0030CC05 		streqb	r3, [ip, #0]
 3003 2b30 0100C6E7 		strb	r0, [r6, r1]
 3004 2b34 387F1FE5 		ldr	r7, .L654+156
 3005 2b38 0000DCE5 		ldrb	r0, [ip, #0]	@ zero_extendqisi2
 3006 2b3c 0010D7E5 		ldrb	r1, [r7, #0]	@ zero_extendqisi2
 3007 2b40 012080E2 		add	r2, r0, #1
 3008 2b44 0020CCE5 		strb	r2, [ip, #0]
 3009 2b48 053081E0 		add	r3, r1, r5
 3010 2b4c 0030CEE5 		strb	r3, [lr, #0]
 3011 2b50 0030DCE5 		ldrb	r3, [ip, #0]	@ zero_extendqisi2
 3012 2b54 FF0053E3 		cmp	r3, #255
 3013 2b58 0050DEE5 		ldrb	r5, [lr, #0]	@ zero_extendqisi2
 3014 2b5c 0020D4E5 		ldrb	r2, [r4, #0]	@ zero_extendqisi2
 3015 2b60 FF304302 		subeq	r3, r3, #255
 3016 2b64 0030CC05 		streqb	r3, [ip, #0]
 3017 2b68 052082E0 		add	r2, r2, r5
 3018 2b6c 0020C4E5 		strb	r2, [r4, #0]
 3019 2b70 0010C6E7 		strb	r1, [r6, r0]
 3020 2b74 0000DCE5 		ldrb	r0, [ip, #0]	@ zero_extendqisi2
 3021 2b78 0110D7E5 		ldrb	r1, [r7, #1]	@ zero_extendqisi2
 3022 2b7c 012080E2 		add	r2, r0, #1
 3023 2b80 0020CCE5 		strb	r2, [ip, #0]
 3024 2b84 053081E0 		add	r3, r1, r5
 3025 2b88 0030CEE5 		strb	r3, [lr, #0]
 3026 2b8c 0030DCE5 		ldrb	r3, [ip, #0]	@ zero_extendqisi2
 3027 2b90 0050DEE5 		ldrb	r5, [lr, #0]	@ zero_extendqisi2
 3028 2b94 0020D4E5 		ldrb	r2, [r4, #0]	@ zero_extendqisi2
 3029 2b98 FF0053E3 		cmp	r3, #255
 3030 2b9c FF304302 		subeq	r3, r3, #255
 3031 2ba0 0030CC05 		streqb	r3, [ip, #0]
 3032 2ba4 052082E0 		add	r2, r2, r5
 3033 2ba8 0020C4E5 		strb	r2, [r4, #0]
 3034 2bac 0010C6E7 		strb	r1, [r6, r0]
 3035 2bb0 0000DCE5 		ldrb	r0, [ip, #0]	@ zero_extendqisi2
 3036 2bb4 0210D7E5 		ldrb	r1, [r7, #2]	@ zero_extendqisi2
 3037 2bb8 012080E2 		add	r2, r0, #1
 3038 2bbc 0020CCE5 		strb	r2, [ip, #0]
 3039 2bc0 053081E0 		add	r3, r1, r5
 3040 2bc4 0030CEE5 		strb	r3, [lr, #0]
 3041 2bc8 0030DCE5 		ldrb	r3, [ip, #0]	@ zero_extendqisi2
 3042 2bcc 0050DEE5 		ldrb	r5, [lr, #0]	@ zero_extendqisi2
 3043 2bd0 0020D4E5 		ldrb	r2, [r4, #0]	@ zero_extendqisi2
 3044 2bd4 FF0053E3 		cmp	r3, #255
 3045 2bd8 052082E0 		add	r2, r2, r5
 3046 2bdc FF304302 		subeq	r3, r3, #255
 3047 2be0 0030CC05 		streqb	r3, [ip, #0]
 3048 2be4 0020C4E5 		strb	r2, [r4, #0]
 3049 2be8 0010C6E7 		strb	r1, [r6, r0]
 3050 2bec 0010DCE5 		ldrb	r1, [ip, #0]	@ zero_extendqisi2
 3051 2bf0 0300D7E5 		ldrb	r0, [r7, #3]	@ zero_extendqisi2
 3052 2bf4 012081E2 		add	r2, r1, #1
 3053 2bf8 053080E0 		add	r3, r0, r5
 3054 2bfc 0030CEE5 		strb	r3, [lr, #0]
 3055 2c00 0020CCE5 		strb	r2, [ip, #0]
 3056 2c04 0030DCE5 		ldrb	r3, [ip, #0]	@ zero_extendqisi2
 3057 2c08 FF0053E3 		cmp	r3, #255
 3058 2c0c 0050DEE5 		ldrb	r5, [lr, #0]	@ zero_extendqisi2
 3059 2c10 0020D4E5 		ldrb	r2, [r4, #0]	@ zero_extendqisi2
 3060 2c14 FF304302 		subeq	r3, r3, #255
 3061 2c18 0030CC05 		streqb	r3, [ip, #0]
 3062 2c1c 052082E0 		add	r2, r2, r5
 3063 2c20 0020C4E5 		strb	r2, [r4, #0]
 3064 2c24 0100C6E7 		strb	r0, [r6, r1]
 3065 2c28 D07C9FE5 		ldr	r7, .L656+16
 3066 2c2c 0000DCE5 		ldrb	r0, [ip, #0]	@ zero_extendqisi2
 3067 2c30 0010D7E5 		ldrb	r1, [r7, #0]	@ zero_extendqisi2
 3068 2c34 012080E2 		add	r2, r0, #1
 3069 2c38 0020CCE5 		strb	r2, [ip, #0]
 3070 2c3c 053081E0 		add	r3, r1, r5
 3071 2c40 0030CEE5 		strb	r3, [lr, #0]
 3072 2c44 0030DCE5 		ldrb	r3, [ip, #0]	@ zero_extendqisi2
 3073 2c48 FF0053E3 		cmp	r3, #255
 3074 2c4c 0050DEE5 		ldrb	r5, [lr, #0]	@ zero_extendqisi2
 3075 2c50 0020D4E5 		ldrb	r2, [r4, #0]	@ zero_extendqisi2
 3076 2c54 FF304302 		subeq	r3, r3, #255
 3077 2c58 0030CC05 		streqb	r3, [ip, #0]
 3078 2c5c 052082E0 		add	r2, r2, r5
 3079 2c60 0020C4E5 		strb	r2, [r4, #0]
 3080 2c64 0010C6E7 		strb	r1, [r6, r0]
 3081 2c68 0000DCE5 		ldrb	r0, [ip, #0]	@ zero_extendqisi2
 3082 2c6c 0110D7E5 		ldrb	r1, [r7, #1]	@ zero_extendqisi2
 3083 2c70 012080E2 		add	r2, r0, #1
 3084 2c74 0020CCE5 		strb	r2, [ip, #0]
 3085 2c78 053081E0 		add	r3, r1, r5
 3086 2c7c 0030CEE5 		strb	r3, [lr, #0]
 3087 2c80 0030DCE5 		ldrb	r3, [ip, #0]	@ zero_extendqisi2
 3088 2c84 0050DEE5 		ldrb	r5, [lr, #0]	@ zero_extendqisi2
 3089 2c88 FF0053E3 		cmp	r3, #255
 3090 2c8c 0020D4E5 		ldrb	r2, [r4, #0]	@ zero_extendqisi2
 3091 2c90 FF304302 		subeq	r3, r3, #255
 3092 2c94 0030CC05 		streqb	r3, [ip, #0]
 3093 2c98 052082E0 		add	r2, r2, r5
 3094 2c9c 0020C4E5 		strb	r2, [r4, #0]
 3095 2ca0 0010C6E7 		strb	r1, [r6, r0]
 3096 2ca4 0000DCE5 		ldrb	r0, [ip, #0]	@ zero_extendqisi2
 3097 2ca8 0210D7E5 		ldrb	r1, [r7, #2]	@ zero_extendqisi2
 3098 2cac 012080E2 		add	r2, r0, #1
 3099 2cb0 053081E0 		add	r3, r1, r5
 3100 2cb4 0020CCE5 		strb	r2, [ip, #0]
 3101 2cb8 0030CEE5 		strb	r3, [lr, #0]
 3102 2cbc 0030DCE5 		ldrb	r3, [ip, #0]	@ zero_extendqisi2
 3103 2cc0 0050DEE5 		ldrb	r5, [lr, #0]	@ zero_extendqisi2
 3104 2cc4 0020D4E5 		ldrb	r2, [r4, #0]	@ zero_extendqisi2
 3105 2cc8 FF0053E3 		cmp	r3, #255
 3106 2ccc 052082E0 		add	r2, r2, r5
 3107 2cd0 FF304302 		subeq	r3, r3, #255
 3108 2cd4 0020C4E5 		strb	r2, [r4, #0]
 3109 2cd8 0030CC05 		streqb	r3, [ip, #0]
 3110 2cdc 0010C6E7 		strb	r1, [r6, r0]
 3111 2ce0 0010DCE5 		ldrb	r1, [ip, #0]	@ zero_extendqisi2
 3112 2ce4 0300D7E5 		ldrb	r0, [r7, #3]	@ zero_extendqisi2
 3113 2ce8 012081E2 		add	r2, r1, #1
 3114 2cec 0020CCE5 		strb	r2, [ip, #0]
 3115 2cf0 053080E0 		add	r3, r0, r5
 3116 2cf4 0030CEE5 		strb	r3, [lr, #0]
 3117 2cf8 0030DCE5 		ldrb	r3, [ip, #0]	@ zero_extendqisi2
 3118 2cfc FF0053E3 		cmp	r3, #255
 3119 2d00 0050DEE5 		ldrb	r5, [lr, #0]	@ zero_extendqisi2
 3120 2d04 0020D4E5 		ldrb	r2, [r4, #0]	@ zero_extendqisi2
 3121 2d08 FF304302 		subeq	r3, r3, #255
 3122 2d0c 0030CC05 		streqb	r3, [ip, #0]
 3123 2d10 052082E0 		add	r2, r2, r5
 3124 2d14 0020C4E5 		strb	r2, [r4, #0]
 3125 2d18 0100C6E7 		strb	r0, [r6, r1]
 3126 2d1c E07B9FE5 		ldr	r7, .L656+20
 3127 2d20 0000DCE5 		ldrb	r0, [ip, #0]	@ zero_extendqisi2
 3128 2d24 0010D7E5 		ldrb	r1, [r7, #0]	@ zero_extendqisi2
 3129 2d28 012080E2 		add	r2, r0, #1
 3130 2d2c 0020CCE5 		strb	r2, [ip, #0]
 3131 2d30 053081E0 		add	r3, r1, r5
 3132 2d34 0030CEE5 		strb	r3, [lr, #0]
 3133 2d38 0030DCE5 		ldrb	r3, [ip, #0]	@ zero_extendqisi2
 3134 2d3c 0050DEE5 		ldrb	r5, [lr, #0]	@ zero_extendqisi2
 3135 2d40 0020D4E5 		ldrb	r2, [r4, #0]	@ zero_extendqisi2
 3136 2d44 FF0053E3 		cmp	r3, #255
 3137 2d48 FF304302 		subeq	r3, r3, #255
 3138 2d4c 0030CC05 		streqb	r3, [ip, #0]
 3139 2d50 052082E0 		add	r2, r2, r5
 3140 2d54 0020C4E5 		strb	r2, [r4, #0]
 3141 2d58 0010C6E7 		strb	r1, [r6, r0]
 3142 2d5c 0000DCE5 		ldrb	r0, [ip, #0]	@ zero_extendqisi2
 3143 2d60 0110D7E5 		ldrb	r1, [r7, #1]	@ zero_extendqisi2
 3144 2d64 012080E2 		add	r2, r0, #1
 3145 2d68 0020CCE5 		strb	r2, [ip, #0]
 3146 2d6c 053081E0 		add	r3, r1, r5
 3147 2d70 0030CEE5 		strb	r3, [lr, #0]
 3148 2d74 0030DCE5 		ldrb	r3, [ip, #0]	@ zero_extendqisi2
 3149 2d78 0050DEE5 		ldrb	r5, [lr, #0]	@ zero_extendqisi2
 3150 2d7c 0020D4E5 		ldrb	r2, [r4, #0]	@ zero_extendqisi2
 3151 2d80 FF0053E3 		cmp	r3, #255
 3152 2d84 052082E0 		add	r2, r2, r5
 3153 2d88 FF304302 		subeq	r3, r3, #255
 3154 2d8c 0030CC05 		streqb	r3, [ip, #0]
 3155 2d90 0020C4E5 		strb	r2, [r4, #0]
 3156 2d94 0010C6E7 		strb	r1, [r6, r0]
 3157 2d98 0000DCE5 		ldrb	r0, [ip, #0]	@ zero_extendqisi2
 3158 2d9c 0210D7E5 		ldrb	r1, [r7, #2]	@ zero_extendqisi2
 3159 2da0 012080E2 		add	r2, r0, #1
 3160 2da4 053081E0 		add	r3, r1, r5
 3161 2da8 0030CEE5 		strb	r3, [lr, #0]
 3162 2dac 0020CCE5 		strb	r2, [ip, #0]
 3163 2db0 0030DCE5 		ldrb	r3, [ip, #0]	@ zero_extendqisi2
 3164 2db4 0050DEE5 		ldrb	r5, [lr, #0]	@ zero_extendqisi2
 3165 2db8 0020D4E5 		ldrb	r2, [r4, #0]	@ zero_extendqisi2
 3166 2dbc FF0053E3 		cmp	r3, #255
 3167 2dc0 FF304302 		subeq	r3, r3, #255
 3168 2dc4 052082E0 		add	r2, r2, r5
 3169 2dc8 0030CC05 		streqb	r3, [ip, #0]
 3170 2dcc 0020C4E5 		strb	r2, [r4, #0]
 3171 2dd0 0010C6E7 		strb	r1, [r6, r0]
 3172 2dd4 0010DCE5 		ldrb	r1, [ip, #0]	@ zero_extendqisi2
 3173 2dd8 0300D7E5 		ldrb	r0, [r7, #3]	@ zero_extendqisi2
 3174 2ddc 012081E2 		add	r2, r1, #1
 3175 2de0 053080E0 		add	r3, r0, r5
 3176 2de4 0020CCE5 		strb	r2, [ip, #0]
 3177 2de8 0030CEE5 		strb	r3, [lr, #0]
 3178 2dec 0020DCE5 		ldrb	r2, [ip, #0]	@ zero_extendqisi2
 3179 2df0 00E0DEE5 		ldrb	lr, [lr, #0]	@ zero_extendqisi2
 3180 2df4 0030D4E5 		ldrb	r3, [r4, #0]	@ zero_extendqisi2
 3181 2df8 FF0052E3 		cmp	r2, #255
 3182 2dfc 0E3083E0 		add	r3, r3, lr
 3183 2e00 0030C4E5 		strb	r3, [r4, #0]
 3184 2e04 0030A003 		moveq	r3, #0
 3185 2e08 0030CC05 		streqb	r3, [ip, #0]
 3186 2e0c 0030DCE5 		ldrb	r3, [ip, #0]	@ zero_extendqisi2
 3187 2e10 012083E2 		add	r2, r3, #1
 3188 2e14 0020CCE5 		strb	r2, [ip, #0]
 3189 2e18 0020DCE5 		ldrb	r2, [ip, #0]	@ zero_extendqisi2
 3190 2e1c FF0052E3 		cmp	r2, #255
 3191 2e20 0100C6E7 		strb	r0, [r6, r1]
 3192 2e24 03E0C6E7 		strb	lr, [r6, r3]
 3193 2e28 0030A003 		moveq	r3, #0
 3194 2e2c 0030CC05 		streqb	r3, [ip, #0]
 3195 2e30 0010DCE5 		ldrb	r1, [ip, #0]	@ zero_extendqisi2
 3196 2e34 013081E2 		add	r3, r1, #1
 3197 2e38 0030CCE5 		strb	r3, [ip, #0]
 3198 2e3c 0020D4E5 		ldrb	r2, [r4, #0]	@ zero_extendqisi2
 3199 2e40 0030DCE5 		ldrb	r3, [ip, #0]	@ zero_extendqisi2
 3200 2e44 0F0F00EA 		b	.L644
 3201              	.L275:
 3202 2e48 180053E3 		cmp	r3, #24
 3203 2e4c 110C001A 		bne	.L311
 3204 2e50 B03A9FE5 		ldr	r3, .L656+24
 3205 2e54 0030D3E5 		ldrb	r3, [r3, #0]	@ zero_extendqisi2
 3206 2e58 000053E3 		cmp	r3, #0
 3207 2e5c 180F000A 		beq	.L259
 3208 2e60 201B9FE5 		ldr	r1, .L656+152
 3209 2e64 240B9FE5 		ldr	r0, .L656+160
 3210 2e68 0030D1E5 		ldrb	r3, [r1, #0]	@ zero_extendqisi2
 3211 2e6c 0020D0E5 		ldrb	r2, [r0, #0]	@ zero_extendqisi2
 3212 2e70 030052E1 		cmp	r2, r3
 3213 2e74 0030D125 		ldrcsb	r3, [r1, #0]	@ zero_extendqisi2
 3214 2e78 0030D135 		ldrccb	r3, [r1, #0]	@ zero_extendqisi2
 3215 2e7c 02306320 		rsbcs	r3, r3, r2
 3216 2e80 FF306322 		rsbcs	r3, r3, #255
 3217 2e84 03306230 		rsbcc	r3, r2, r3
 3218 2e88 0C0053E3 		cmp	r3, #12
 3219 2e8c 140F00DA 		ble	.L400
 3220 2e90 0020D0E5 		ldrb	r2, [r0, #0]	@ zero_extendqisi2
 3221 2e94 013082E2 		add	r3, r2, #1
 3222 2e98 0030C0E5 		strb	r3, [r0, #0]
 3223 2e9c 0030D0E5 		ldrb	r3, [r0, #0]	@ zero_extendqisi2
 3224 2ea0 E46A9FE5 		ldr	r6, .L656+156
 3225 2ea4 FF0053E3 		cmp	r3, #255
 3226 2ea8 6630E0E3 		mvn	r3, #102
 3227 2eac 0230C6E7 		strb	r3, [r6, r2]
 3228 2eb0 67308302 		addeq	r3, r3, #103
 3229 2eb4 D4CA9FE5 		ldr	ip, .L656+160
 3230 2eb8 0030C005 		streqb	r3, [r0, #0]
 3231 2ebc 0020DCE5 		ldrb	r2, [ip, #0]	@ zero_extendqisi2
 3232 2ec0 013082E2 		add	r3, r2, #1
 3233 2ec4 0030CCE5 		strb	r3, [ip, #0]
 3234 2ec8 0030DCE5 		ldrb	r3, [ip, #0]	@ zero_extendqisi2
 3235 2ecc FF0053E3 		cmp	r3, #255
 3236 2ed0 0C30A0E3 		mov	r3, #12
 3237 2ed4 0230C6E7 		strb	r3, [r6, r2]
 3238 2ed8 0C304302 		subeq	r3, r3, #12
 3239 2edc 0030CC05 		streqb	r3, [ip, #0]
 3240 2ee0 0020DCE5 		ldrb	r2, [ip, #0]	@ zero_extendqisi2
 3241 2ee4 013082E2 		add	r3, r2, #1
 3242 2ee8 0030CCE5 		strb	r3, [ip, #0]
 3243 2eec 0030DCE5 		ldrb	r3, [ip, #0]	@ zero_extendqisi2
 3244 2ef0 9C4A9FE5 		ldr	r4, .L656+164
 3245 2ef4 9C5A9FE5 		ldr	r5, .L656+168
 3246 2ef8 FF0053E3 		cmp	r3, #255
 3247 2efc 1330A0E3 		mov	r3, #19
 3248 2f00 0030C4E5 		strb	r3, [r4, #0]
 3249 2f04 0C3083E2 		add	r3, r3, #12
 3250 2f08 0030C5E5 		strb	r3, [r5, #0]
 3251 2f0c 183043E2 		sub	r3, r3, #24
 3252 2f10 0230C6E7 		strb	r3, [r6, r2]
 3253 2f14 07304302 		subeq	r3, r3, #7
 3254 2f18 0030CC05 		streqb	r3, [ip, #0]
 3255 2f1c 0020DCE5 		ldrb	r2, [ip, #0]	@ zero_extendqisi2
 3256 2f20 013082E2 		add	r3, r2, #1
 3257 2f24 0030CCE5 		strb	r3, [ip, #0]
 3258 2f28 0030DCE5 		ldrb	r3, [ip, #0]	@ zero_extendqisi2
 3259 2f2c FF0053E3 		cmp	r3, #255
 3260 2f30 2830A0E3 		mov	r3, #40
 3261 2f34 0030C4E5 		strb	r3, [r4, #0]
 3262 2f38 1F3083E2 		add	r3, r3, #31
 3263 2f3c 0030C5E5 		strb	r3, [r5, #0]
 3264 2f40 323043E2 		sub	r3, r3, #50
 3265 2f44 0230C6E7 		strb	r3, [r6, r2]
 3266 2f48 15304302 		subeq	r3, r3, #21
 3267 2f4c 0030CC05 		streqb	r3, [ip, #0]
 3268 2f50 B4E99FE5 		ldr	lr, .L656+28
 3269 2f54 0000DCE5 		ldrb	r0, [ip, #0]	@ zero_extendqisi2
 3270 2f58 0010DEE5 		ldrb	r1, [lr, #0]	@ zero_extendqisi2
 3271 2f5c 012080E2 		add	r2, r0, #1
 3272 2f60 283081E2 		add	r3, r1, #40
 3273 2f64 0020CCE5 		strb	r2, [ip, #0]
 3274 2f68 0030C4E5 		strb	r3, [r4, #0]
 3275 2f6c 0030DCE5 		ldrb	r3, [ip, #0]	@ zero_extendqisi2
 3276 2f70 0020D4E5 		ldrb	r2, [r4, #0]	@ zero_extendqisi2
 3277 2f74 FF0053E3 		cmp	r3, #255
 3278 2f78 473082E2 		add	r3, r2, #71
 3279 2f7c 0030C5E5 		strb	r3, [r5, #0]
 3280 2f80 0030A003 		moveq	r3, #0
 3281 2f84 0030CC05 		streqb	r3, [ip, #0]
 3282 2f88 0010C6E7 		strb	r1, [r6, r0]
 3283 2f8c 0010DCE5 		ldrb	r1, [ip, #0]	@ zero_extendqisi2
 3284 2f90 0100DEE5 		ldrb	r0, [lr, #1]	@ zero_extendqisi2
 3285 2f94 023080E0 		add	r3, r0, r2
 3286 2f98 012081E2 		add	r2, r1, #1
 3287 2f9c 0030C4E5 		strb	r3, [r4, #0]
 3288 2fa0 0020CCE5 		strb	r2, [ip, #0]
 3289 2fa4 0030DCE5 		ldrb	r3, [ip, #0]	@ zero_extendqisi2
 3290 2fa8 FF0053E3 		cmp	r3, #255
 3291 2fac 00E0D4E5 		ldrb	lr, [r4, #0]	@ zero_extendqisi2
 3292 2fb0 0020D5E5 		ldrb	r2, [r5, #0]	@ zero_extendqisi2
 3293 2fb4 FF304302 		subeq	r3, r3, #255
 3294 2fb8 0030CC05 		streqb	r3, [ip, #0]
 3295 2fbc 0E2082E0 		add	r2, r2, lr
 3296 2fc0 0020C5E5 		strb	r2, [r5, #0]
 3297 2fc4 0100C6E7 		strb	r0, [r6, r1]
 3298 2fc8 40799FE5 		ldr	r7, .L656+32
 3299 2fcc 0000DCE5 		ldrb	r0, [ip, #0]	@ zero_extendqisi2
 3300 2fd0 0010D7E5 		ldrb	r1, [r7, #0]	@ zero_extendqisi2
 3301 2fd4 012080E2 		add	r2, r0, #1
 3302 2fd8 0020CCE5 		strb	r2, [ip, #0]
 3303 2fdc 0E3081E0 		add	r3, r1, lr
 3304 2fe0 0030C4E5 		strb	r3, [r4, #0]
 3305 2fe4 0030DCE5 		ldrb	r3, [ip, #0]	@ zero_extendqisi2
 3306 2fe8 00E0D4E5 		ldrb	lr, [r4, #0]	@ zero_extendqisi2
 3307 2fec FF0053E3 		cmp	r3, #255
 3308 2ff0 0020D5E5 		ldrb	r2, [r5, #0]	@ zero_extendqisi2
 3309 2ff4 FF304302 		subeq	r3, r3, #255
 3310 2ff8 0030CC05 		streqb	r3, [ip, #0]
 3311 2ffc 0E2082E0 		add	r2, r2, lr
 3312 3000 0020C5E5 		strb	r2, [r5, #0]
 3313 3004 0010C6E7 		strb	r1, [r6, r0]
 3314 3008 0010DCE5 		ldrb	r1, [ip, #0]	@ zero_extendqisi2
 3315 300c 0100D7E5 		ldrb	r0, [r7, #1]	@ zero_extendqisi2
 3316 3010 012081E2 		add	r2, r1, #1
 3317 3014 0E3080E0 		add	r3, r0, lr
 3318 3018 0020CCE5 		strb	r2, [ip, #0]
 3319 301c 0030C4E5 		strb	r3, [r4, #0]
 3320 3020 0030DCE5 		ldrb	r3, [ip, #0]	@ zero_extendqisi2
 3321 3024 0020D5E5 		ldrb	r2, [r5, #0]	@ zero_extendqisi2
 3322 3028 00E0D4E5 		ldrb	lr, [r4, #0]	@ zero_extendqisi2
 3323 302c FF0053E3 		cmp	r3, #255
 3324 3030 DC789FE5 		ldr	r7, .L656+36
 3325 3034 0E2082E0 		add	r2, r2, lr
 3326 3038 FF304302 		subeq	r3, r3, #255
 3327 303c 0020C5E5 		strb	r2, [r5, #0]
 3328 3040 0100C6E7 		strb	r0, [r6, r1]
 3329 3044 0030CC05 		streqb	r3, [ip, #0]
 3330 3048 E40E00EA 		b	.L653
 3331              	.L311:
 3332 304c 1E0053E3 		cmp	r3, #30
 3333 3050 C10C001A 		bne	.L330
 3334 3054 BC389FE5 		ldr	r3, .L656+40
 3335 3058 0030D3E5 		ldrb	r3, [r3, #0]	@ zero_extendqisi2
 3336 305c 000053E3 		cmp	r3, #0
 3337 3060 180F000A 		beq	.L259
 3338 3064 1C199FE5 		ldr	r1, .L656+152
 3339 3068 20099FE5 		ldr	r0, .L656+160
 3340 306c 0030D1E5 		ldrb	r3, [r1, #0]	@ zero_extendqisi2
 3341 3070 0020D0E5 		ldrb	r2, [r0, #0]	@ zero_extendqisi2
 3342 3074 030052E1 		cmp	r2, r3
 3343 3078 0030D125 		ldrcsb	r3, [r1, #0]	@ zero_extendqisi2
 3344 307c 0030D135 		ldrccb	r3, [r1, #0]	@ zero_extendqisi2
 3345 3080 02306320 		rsbcs	r3, r3, r2
 3346 3084 FF306322 		rsbcs	r3, r3, #255
 3347 3088 03306230 		rsbcc	r3, r2, r3
 3348 308c 0E0053E3 		cmp	r3, #14
 3349 3090 140F00DA 		ble	.L400
 3350 3094 0020D0E5 		ldrb	r2, [r0, #0]	@ zero_extendqisi2
 3351 3098 013082E2 		add	r3, r2, #1
 3352 309c 0030C0E5 		strb	r3, [r0, #0]
 3353 30a0 0030D0E5 		ldrb	r3, [r0, #0]	@ zero_extendqisi2
 3354 30a4 E0689FE5 		ldr	r6, .L656+156
 3355 30a8 FF0053E3 		cmp	r3, #255
 3356 30ac 6630E0E3 		mvn	r3, #102
 3357 30b0 0230C6E7 		strb	r3, [r6, r2]
 3358 30b4 67308302 		addeq	r3, r3, #103
 3359 30b8 D0C89FE5 		ldr	ip, .L656+160
 3360 30bc 0030C005 		streqb	r3, [r0, #0]
 3361 30c0 0020DCE5 		ldrb	r2, [ip, #0]	@ zero_extendqisi2
 3362 30c4 013082E2 		add	r3, r2, #1
 3363 30c8 0030CCE5 		strb	r3, [ip, #0]
 3364 30cc 0030DCE5 		ldrb	r3, [ip, #0]	@ zero_extendqisi2
 3365 30d0 FF0053E3 		cmp	r3, #255
 3366 30d4 0E30A0E3 		mov	r3, #14
 3367 30d8 0230C6E7 		strb	r3, [r6, r2]
 3368 30dc 0E304302 		subeq	r3, r3, #14
 3369 30e0 0030CC05 		streqb	r3, [ip, #0]
 3370 30e4 0020DCE5 		ldrb	r2, [ip, #0]	@ zero_extendqisi2
 3371 30e8 013082E2 		add	r3, r2, #1
 3372 30ec 0030CCE5 		strb	r3, [ip, #0]
 3373 30f0 0030DCE5 		ldrb	r3, [ip, #0]	@ zero_extendqisi2
 3374 30f4 98E89FE5 		ldr	lr, .L656+164
 3375 30f8 98589FE5 		ldr	r5, .L656+168
 3376 30fc FF0053E3 		cmp	r3, #255
 3377 3100 1530A0E3 		mov	r3, #21
 3378 3104 0030CEE5 		strb	r3, [lr, #0]
 3379 3108 0E3083E2 		add	r3, r3, #14
 3380 310c 0030C5E5 		strb	r3, [r5, #0]
 3381 3110 1C3043E2 		sub	r3, r3, #28
 3382 3114 0230C6E7 		strb	r3, [r6, r2]
 3383 3118 07304302 		subeq	r3, r3, #7
 3384 311c 0030CC05 		streqb	r3, [ip, #0]
 3385 3120 0020DCE5 		ldrb	r2, [ip, #0]	@ zero_extendqisi2
 3386 3124 013082E2 		add	r3, r2, #1
 3387 3128 0030CCE5 		strb	r3, [ip, #0]
 3388 312c 0030DCE5 		ldrb	r3, [ip, #0]	@ zero_extendqisi2
 3389 3130 FF0053E3 		cmp	r3, #255
 3390 3134 2B30A0E3 		mov	r3, #43
 3391 3138 0030CEE5 		strb	r3, [lr, #0]
 3392 313c 233083E2 		add	r3, r3, #35
 3393 3140 0030C5E5 		strb	r3, [r5, #0]
 3394 3144 383043E2 		sub	r3, r3, #56
 3395 3148 0230C6E7 		strb	r3, [r6, r2]
 3396 314c 16304302 		subeq	r3, r3, #22
 3397 3150 0030CC05 		streqb	r3, [ip, #0]
 3398 3154 C0479FE5 		ldr	r4, .L656+44
 3399 3158 0000DCE5 		ldrb	r0, [ip, #0]	@ zero_extendqisi2
 3400 315c 0010D4E5 		ldrb	r1, [r4, #0]	@ zero_extendqisi2
 3401 3160 012080E2 		add	r2, r0, #1
 3402 3164 2B3081E2 		add	r3, r1, #43
 3403 3168 0020CCE5 		strb	r2, [ip, #0]
 3404 316c 0030CEE5 		strb	r3, [lr, #0]
 3405 3170 0030DCE5 		ldrb	r3, [ip, #0]	@ zero_extendqisi2
 3406 3174 0020DEE5 		ldrb	r2, [lr, #0]	@ zero_extendqisi2
 3407 3178 FF0053E3 		cmp	r3, #255
 3408 317c 4E3082E2 		add	r3, r2, #78
 3409 3180 0030C5E5 		strb	r3, [r5, #0]
 3410 3184 0030A003 		moveq	r3, #0
 3411 3188 0030CC05 		streqb	r3, [ip, #0]
 3412 318c 0010C6E7 		strb	r1, [r6, r0]
 3413 3190 0010DCE5 		ldrb	r1, [ip, #0]	@ zero_extendqisi2
 3414 3194 0100D4E5 		ldrb	r0, [r4, #1]	@ zero_extendqisi2
 3415 3198 023080E0 		add	r3, r0, r2
 3416 319c 012081E2 		add	r2, r1, #1
 3417 31a0 0030CEE5 		strb	r3, [lr, #0]
 3418 31a4 0020CCE5 		strb	r2, [ip, #0]
 3419 31a8 0030DCE5 		ldrb	r3, [ip, #0]	@ zero_extendqisi2
 3420 31ac FF0053E3 		cmp	r3, #255
 3421 31b0 0040DEE5 		ldrb	r4, [lr, #0]	@ zero_extendqisi2
 3422 31b4 0020D5E5 		ldrb	r2, [r5, #0]	@ zero_extendqisi2
 3423 31b8 FF304302 		subeq	r3, r3, #255
 3424 31bc 0030CC05 		streqb	r3, [ip, #0]
 3425 31c0 042082E0 		add	r2, r2, r4
 3426 31c4 0020C5E5 		strb	r2, [r5, #0]
 3427 31c8 0100C6E7 		strb	r0, [r6, r1]
 3428 31cc 4C779FE5 		ldr	r7, .L656+48
 3429 31d0 0000DCE5 		ldrb	r0, [ip, #0]	@ zero_extendqisi2
 3430 31d4 0010D7E5 		ldrb	r1, [r7, #0]	@ zero_extendqisi2
 3431 31d8 012080E2 		add	r2, r0, #1
 3432 31dc 0020CCE5 		strb	r2, [ip, #0]
 3433 31e0 043081E0 		add	r3, r1, r4
 3434 31e4 0030CEE5 		strb	r3, [lr, #0]
 3435 31e8 0030DCE5 		ldrb	r3, [ip, #0]	@ zero_extendqisi2
 3436 31ec FF0053E3 		cmp	r3, #255
 3437 31f0 0040DEE5 		ldrb	r4, [lr, #0]	@ zero_extendqisi2
 3438 31f4 0020D5E5 		ldrb	r2, [r5, #0]	@ zero_extendqisi2
 3439 31f8 FF304302 		subeq	r3, r3, #255
 3440 31fc 0030CC05 		streqb	r3, [ip, #0]
 3441 3200 042082E0 		add	r2, r2, r4
 3442 3204 0020C5E5 		strb	r2, [r5, #0]
 3443 3208 0010C6E7 		strb	r1, [r6, r0]
 3444 320c 0010DCE5 		ldrb	r1, [ip, #0]	@ zero_extendqisi2
 3445 3210 0100D7E5 		ldrb	r0, [r7, #1]	@ zero_extendqisi2
 3446 3214 012081E2 		add	r2, r1, #1
 3447 3218 0020CCE5 		strb	r2, [ip, #0]
 3448 321c 043080E0 		add	r3, r0, r4
 3449 3220 0030CEE5 		strb	r3, [lr, #0]
 3450 3224 0030DCE5 		ldrb	r3, [ip, #0]	@ zero_extendqisi2
 3451 3228 0040DEE5 		ldrb	r4, [lr, #0]	@ zero_extendqisi2
 3452 322c FF0053E3 		cmp	r3, #255
 3453 3230 0020D5E5 		ldrb	r2, [r5, #0]	@ zero_extendqisi2
 3454 3234 FF304302 		subeq	r3, r3, #255
 3455 3238 0030CC05 		streqb	r3, [ip, #0]
 3456 323c 042082E0 		add	r2, r2, r4
 3457 3240 0020C5E5 		strb	r2, [r5, #0]
 3458 3244 0100C6E7 		strb	r0, [r6, r1]
 3459 3248 D4769FE5 		ldr	r7, .L656+52
 3460 324c 0000DCE5 		ldrb	r0, [ip, #0]	@ zero_extendqisi2
 3461 3250 0010D7E5 		ldrb	r1, [r7, #0]	@ zero_extendqisi2
 3462 3254 012080E2 		add	r2, r0, #1
 3463 3258 043081E0 		add	r3, r1, r4
 3464 325c 0020CCE5 		strb	r2, [ip, #0]
 3465 3260 0030CEE5 		strb	r3, [lr, #0]
 3466 3264 0030DCE5 		ldrb	r3, [ip, #0]	@ zero_extendqisi2
 3467 3268 0040DEE5 		ldrb	r4, [lr, #0]	@ zero_extendqisi2
 3468 326c 0020D5E5 		ldrb	r2, [r5, #0]	@ zero_extendqisi2
 3469 3270 FF0053E3 		cmp	r3, #255
 3470 3274 042082E0 		add	r2, r2, r4
 3471 3278 FF304302 		subeq	r3, r3, #255
 3472 327c 0020C5E5 		strb	r2, [r5, #0]
 3473 3280 0030CC05 		streqb	r3, [ip, #0]
 3474 3284 0010C6E7 		strb	r1, [r6, r0]
 3475 3288 0010DCE5 		ldrb	r1, [ip, #0]	@ zero_extendqisi2
 3476 328c 0100D7E5 		ldrb	r0, [r7, #1]	@ zero_extendqisi2
 3477 3290 012081E2 		add	r2, r1, #1
 3478 3294 0020CCE5 		strb	r2, [ip, #0]
 3479 3298 043080E0 		add	r3, r0, r4
 3480 329c 0030CEE5 		strb	r3, [lr, #0]
 3481 32a0 0030DCE5 		ldrb	r3, [ip, #0]	@ zero_extendqisi2
 3482 32a4 0040DEE5 		ldrb	r4, [lr, #0]	@ zero_extendqisi2
 3483 32a8 FF0053E3 		cmp	r3, #255
 3484 32ac 0020D5E5 		ldrb	r2, [r5, #0]	@ zero_extendqisi2
 3485 32b0 FF304302 		subeq	r3, r3, #255
 3486 32b4 0030CC05 		streqb	r3, [ip, #0]
 3487 32b8 042082E0 		add	r2, r2, r4
 3488 32bc 0020C5E5 		strb	r2, [r5, #0]
 3489 32c0 0100C6E7 		strb	r0, [r6, r1]
 3490 32c4 5C769FE5 		ldr	r7, .L656+56
 3491 32c8 0000DCE5 		ldrb	r0, [ip, #0]	@ zero_extendqisi2
 3492 32cc 0010D7E5 		ldrb	r1, [r7, #0]	@ zero_extendqisi2
 3493 32d0 012080E2 		add	r2, r0, #1
 3494 32d4 0020CCE5 		strb	r2, [ip, #0]
 3495 32d8 043081E0 		add	r3, r1, r4
 3496 32dc 0030CEE5 		strb	r3, [lr, #0]
 3497 32e0 0030DCE5 		ldrb	r3, [ip, #0]	@ zero_extendqisi2
 3498 32e4 0020D5E5 		ldrb	r2, [r5, #0]	@ zero_extendqisi2
 3499 32e8 0040DEE5 		ldrb	r4, [lr, #0]	@ zero_extendqisi2
 3500 32ec FF0053E3 		cmp	r3, #255
 3501 32f0 042082E0 		add	r2, r2, r4
 3502 32f4 FF304302 		subeq	r3, r3, #255
 3503 32f8 0020C5E5 		strb	r2, [r5, #0]
 3504 32fc 0010C6E7 		strb	r1, [r6, r0]
 3505 3300 0030CC05 		streqb	r3, [ip, #0]
 3506 3304 0100D7E5 		ldrb	r0, [r7, #1]	@ zero_extendqisi2
 3507 3308 330E00EA 		b	.L651
 3508              	.L330:
 3509 330c 240053E3 		cmp	r3, #36
 3510 3310 7F0D001A 		bne	.L351
 3511 3314 10769FE5 		ldr	r7, .L656+60
 3512 3318 0030D7E5 		ldrb	r3, [r7, #0]	@ zero_extendqisi2
 3513 331c 030053E3 		cmp	r3, #3
 3514 3320 0030A083 		movhi	r3, #0
 3515 3324 0030C785 		strhib	r3, [r7, #0]
 3516 3328 0030D7E5 		ldrb	r3, [r7, #0]	@ zero_extendqisi2
 3517 332c 030053E3 		cmp	r3, #3
 3518 3330 03F19F97 		ldrls	pc, [pc, r3, asl #2]
 3519 3334 E00C00EA 		b	.L361
 3520              		.p2align 2
 3521              	.L362:
 3522 3338 48330000 		.word	.L354
 3523 333c 54330000 		.word	.L355
 3524 3340 5C330000 		.word	.L357
 3525 3344 64330000 		.word	.L359
 3526              	.L354:
 3527 3348 E0359FE5 		ldr	r3, .L656+64
 3528 334c 003093E5 		ldr	r3, [r3, #0]	@ float
 3529 3350 E10C00EA 		b	.L621
 3530              	.L355:
 3531 3354 D8359FE5 		ldr	r3, .L656+68
 3532 3358 D80C00EA 		b	.L643
 3533              	.L357:
 3534 335c D4359FE5 		ldr	r3, .L656+72
 3535 3360 D80C00EA 		b	.L643
 3536              	.L359:
 3537 3364 00369FE5 		ldr	r3, .L656+124
 3538              	.L643:
 3539 3368 D040D3E1 		ldrsb	r4, [r3, #0]
 3540 336c 0400A0E1 		mov	r0, r4
 3541 3370 FEFFFFEB 		bl	__floatsisf
 3542 3374 000054E3 		cmp	r4, #0
 3543 3378 BC159FB5 		ldrlt	r1, .L656+76
 3544 337c FEFFFFBB 		bllt	__addsf3
 3545              	.L360:
 3546 3380 44000BE5 		str	r0, [fp, #-68]	@ float
 3547 3384 E20C00EA 		b	.L353
 3548              	.L361:
 3549 3388 0030A0E3 		mov	r3, #0
 3550              	.L621:
 3551 338c 44300BE5 		str	r3, [fp, #-68]	@ float
 3552              	.L353:
 3553 3390 F0159FE5 		ldr	r1, .L656+152
 3554 3394 F4059FE5 		ldr	r0, .L656+160
 3555 3398 0030D1E5 		ldrb	r3, [r1, #0]	@ zero_extendqisi2
 3556 339c 0020D0E5 		ldrb	r2, [r0, #0]	@ zero_extendqisi2
 3557 33a0 030052E1 		cmp	r2, r3
 3558 33a4 0030D125 		ldrcsb	r3, [r1, #0]	@ zero_extendqisi2
 3559 33a8 0030D135 		ldrccb	r3, [r1, #0]	@ zero_extendqisi2
 3560 33ac 02306320 		rsbcs	r3, r3, r2
 3561 33b0 03306230 		rsbcc	r3, r2, r3
 3562 33b4 FF306322 		rsbcs	r3, r3, #255
 3563 33b8 0B0053E3 		cmp	r3, #11
 3564 33bc 90259FD5 		ldrle	r2, .L656+100
 3565 33c0 0030D2D5 		ldrleb	r3, [r2, #0]	@ zero_extendqisi2
 3566 33c4 013083D2 		addle	r3, r3, #1
 3567 33c8 0030C2D5 		strleb	r3, [r2, #0]
 3568 33cc 7D0D00DA 		ble	.L377
 3569 33d0 0020D0E5 		ldrb	r2, [r0, #0]	@ zero_extendqisi2
 3570 33d4 013082E2 		add	r3, r2, #1
 3571 33d8 0030C0E5 		strb	r3, [r0, #0]
 3572 33dc 0030D0E5 		ldrb	r3, [r0, #0]	@ zero_extendqisi2
 3573 33e0 A4659FE5 		ldr	r6, .L656+156
 3574 33e4 FF0053E3 		cmp	r3, #255
 3575 33e8 6630E0E3 		mvn	r3, #102
 3576 33ec 0230C6E7 		strb	r3, [r6, r2]
 3577 33f0 67308302 		addeq	r3, r3, #103
 3578 33f4 94C59FE5 		ldr	ip, .L656+160
 3579 33f8 0030C005 		streqb	r3, [r0, #0]
 3580 33fc 0020DCE5 		ldrb	r2, [ip, #0]	@ zero_extendqisi2
 3581 3400 013082E2 		add	r3, r2, #1
 3582 3404 0030CCE5 		strb	r3, [ip, #0]
 3583 3408 0030DCE5 		ldrb	r3, [ip, #0]	@ zero_extendqisi2
 3584 340c FF0053E3 		cmp	r3, #255
 3585 3410 0B30A0E3 		mov	r3, #11
 3586 3414 0230C6E7 		strb	r3, [r6, r2]
 3587 3418 0B304302 		subeq	r3, r3, #11
 3588 341c 0030CC05 		streqb	r3, [ip, #0]
 3589 3420 0020DCE5 		ldrb	r2, [ip, #0]	@ zero_extendqisi2
 3590 3424 013082E2 		add	r3, r2, #1
 3591 3428 0030CCE5 		strb	r3, [ip, #0]
 3592 342c 0030DCE5 		ldrb	r3, [ip, #0]	@ zero_extendqisi2
 3593 3430 5C459FE5 		ldr	r4, .L656+164
 3594 3434 5C559FE5 		ldr	r5, .L656+168
 3595 3438 FF0053E3 		cmp	r3, #255
 3596 343c 1230A0E3 		mov	r3, #18
 3597 3440 0030C4E5 		strb	r3, [r4, #0]
 3598 3444 0B3083E2 		add	r3, r3, #11
 3599 3448 0030C5E5 		strb	r3, [r5, #0]
 3600 344c 163043E2 		sub	r3, r3, #22
 3601 3450 0230C6E7 		strb	r3, [r6, r2]
 3602 3454 07304302 		subeq	r3, r3, #7
 3603 3458 0030CC05 		streqb	r3, [ip, #0]
 3604 345c 0020DCE5 		ldrb	r2, [ip, #0]	@ zero_extendqisi2
 3605 3460 013082E2 		add	r3, r2, #1
 3606 3464 0030CCE5 		strb	r3, [ip, #0]
 3607 3468 0030DCE5 		ldrb	r3, [ip, #0]	@ zero_extendqisi2
 3608 346c FF0053E3 		cmp	r3, #255
 3609 3470 3130A0E3 		mov	r3, #49
 3610 3474 0030C4E5 		strb	r3, [r4, #0]
 3611 3478 1D3083E2 		add	r3, r3, #29
 3612 347c 0030C5E5 		strb	r3, [r5, #0]
 3613 3480 2F3043E2 		sub	r3, r3, #47
 3614 3484 0230C6E7 		strb	r3, [r6, r2]
 3615 3488 1F304302 		subeq	r3, r3, #31
 3616 348c 0030CC05 		streqb	r3, [ip, #0]
 3617 3490 0000D7E5 		ldrb	r0, [r7, #0]	@ zero_extendqisi2
 3618 3494 0010DCE5 		ldrb	r1, [ip, #0]	@ zero_extendqisi2
 3619 3498 313080E2 		add	r3, r0, #49
 3620 349c 012081E2 		add	r2, r1, #1
 3621 34a0 0020CCE5 		strb	r2, [ip, #0]
 3622 34a4 0030C4E5 		strb	r3, [r4, #0]
 3623 34a8 0030DCE5 		ldrb	r3, [ip, #0]	@ zero_extendqisi2
 3624 34ac 00E0D4E5 		ldrb	lr, [r4, #0]	@ zero_extendqisi2
 3625 34b0 FF0053E3 		cmp	r3, #255
 3626 34b4 4E308EE2 		add	r3, lr, #78
 3627 34b8 0030C5E5 		strb	r3, [r5, #0]
 3628 34bc 0030A003 		moveq	r3, #0
 3629 34c0 0030CC05 		streqb	r3, [ip, #0]
 3630 34c4 0100C6E7 		strb	r0, [r6, r1]
 3631 34c8 0000DCE5 		ldrb	r0, [ip, #0]	@ zero_extendqisi2
 3632 34cc 44105BE5 		ldrb	r1, [fp, #-68]	@ zero_extendqisi2
 3633 34d0 012080E2 		add	r2, r0, #1
 3634 34d4 0E3081E0 		add	r3, r1, lr
 3635 34d8 0030C4E5 		strb	r3, [r4, #0]
 3636 34dc 0020CCE5 		strb	r2, [ip, #0]
 3637 34e0 0030DCE5 		ldrb	r3, [ip, #0]	@ zero_extendqisi2
 3638 34e4 FF0053E3 		cmp	r3, #255
 3639 34e8 00E0D4E5 		ldrb	lr, [r4, #0]	@ zero_extendqisi2
 3640 34ec 0020D5E5 		ldrb	r2, [r5, #0]	@ zero_extendqisi2
 3641 34f0 FF304302 		subeq	r3, r3, #255
 3642 34f4 0030CC05 		streqb	r3, [ip, #0]
 3643 34f8 0E2082E0 		add	r2, r2, lr
 3644 34fc 0020C5E5 		strb	r2, [r5, #0]
 3645 3500 0010C6E7 		strb	r1, [r6, r0]
 3646 3504 0000DCE5 		ldrb	r0, [ip, #0]	@ zero_extendqisi2
 3647 3508 43105BE5 		ldrb	r1, [fp, #-67]	@ zero_extendqisi2
 3648 350c 012080E2 		add	r2, r0, #1
 3649 3510 0020CCE5 		strb	r2, [ip, #0]
 3650 3514 0E3081E0 		add	r3, r1, lr
 3651 3518 0030C4E5 		strb	r3, [r4, #0]
 3652 351c 0030DCE5 		ldrb	r3, [ip, #0]	@ zero_extendqisi2
 3653 3520 00E0D4E5 		ldrb	lr, [r4, #0]	@ zero_extendqisi2
 3654 3524 0020D5E5 		ldrb	r2, [r5, #0]	@ zero_extendqisi2
 3655 3528 FF0053E3 		cmp	r3, #255
 3656 352c FF304302 		subeq	r3, r3, #255
 3657 3530 0030CC05 		streqb	r3, [ip, #0]
 3658 3534 0E2082E0 		add	r2, r2, lr
 3659 3538 0020C5E5 		strb	r2, [r5, #0]
 3660 353c 0010C6E7 		strb	r1, [r6, r0]
 3661 3540 0000DCE5 		ldrb	r0, [ip, #0]	@ zero_extendqisi2
 3662 3544 42105BE5 		ldrb	r1, [fp, #-66]	@ zero_extendqisi2
 3663 3548 012080E2 		add	r2, r0, #1
 3664 354c 0020CCE5 		strb	r2, [ip, #0]
 3665 3550 0E3081E0 		add	r3, r1, lr
 3666 3554 0030C4E5 		strb	r3, [r4, #0]
 3667 3558 0030DCE5 		ldrb	r3, [ip, #0]	@ zero_extendqisi2
 3668 355c 00E0D4E5 		ldrb	lr, [r4, #0]	@ zero_extendqisi2
 3669 3560 0020D5E5 		ldrb	r2, [r5, #0]	@ zero_extendqisi2
 3670 3564 FF0053E3 		cmp	r3, #255
 3671 3568 0E2082E0 		add	r2, r2, lr
 3672 356c FF304302 		subeq	r3, r3, #255
 3673 3570 0030CC05 		streqb	r3, [ip, #0]
 3674 3574 0020C5E5 		strb	r2, [r5, #0]
 3675 3578 0010C6E7 		strb	r1, [r6, r0]
 3676 357c 0000DCE5 		ldrb	r0, [ip, #0]	@ zero_extendqisi2
 3677 3580 41105BE5 		ldrb	r1, [fp, #-65]	@ zero_extendqisi2
 3678 3584 012080E2 		add	r2, r0, #1
 3679 3588 0E3081E0 		add	r3, r1, lr
 3680 358c 0030C4E5 		strb	r3, [r4, #0]
 3681 3590 0020CCE5 		strb	r2, [ip, #0]
 3682 3594 00E0D4E5 		ldrb	lr, [r4, #0]	@ zero_extendqisi2
 3683 3598 0020DCE5 		ldrb	r2, [ip, #0]	@ zero_extendqisi2
 3684 359c 0030D5E5 		ldrb	r3, [r5, #0]	@ zero_extendqisi2
 3685 35a0 FF0052E3 		cmp	r2, #255
 3686 35a4 0E3083E0 		add	r3, r3, lr
 3687 35a8 0030C5E5 		strb	r3, [r5, #0]
 3688 35ac 0030A003 		moveq	r3, #0
 3689 35b0 0030CC05 		streqb	r3, [ip, #0]
 3690 35b4 0030DCE5 		ldrb	r3, [ip, #0]	@ zero_extendqisi2
 3691 35b8 012083E2 		add	r2, r3, #1
 3692 35bc 0020CCE5 		strb	r2, [ip, #0]
 3693 35c0 0020DCE5 		ldrb	r2, [ip, #0]	@ zero_extendqisi2
 3694 35c4 FF0052E3 		cmp	r2, #255
 3695 35c8 0010C6E7 		strb	r1, [r6, r0]
 3696 35cc 03E0C6E7 		strb	lr, [r6, r3]
 3697 35d0 0030A003 		moveq	r3, #0
 3698 35d4 0030CC05 		streqb	r3, [ip, #0]
 3699 35d8 0010DCE5 		ldrb	r1, [ip, #0]	@ zero_extendqisi2
 3700 35dc 013081E2 		add	r3, r1, #1
 3701 35e0 0030CCE5 		strb	r3, [ip, #0]
 3702 35e4 0030DCE5 		ldrb	r3, [ip, #0]	@ zero_extendqisi2
 3703 35e8 0020D5E5 		ldrb	r2, [r5, #0]	@ zero_extendqisi2
 3704 35ec FF0053E3 		cmp	r3, #255
 3705 35f0 FF304302 		subeq	r3, r3, #255
 3706 35f4 0120C6E7 		strb	r2, [r6, r1]
 3707 35f8 0030CC05 		streqb	r3, [ip, #0]
 3708              	.L377:
 3709 35fc 28239FE5 		ldr	r2, .L656+60
 3710 3600 150F00EA 		b	.L626
 3711              	.L351:
 3712 3604 2A0053E3 		cmp	r3, #42
 3713 3608 690E001A 		bne	.L379
 3714 360c 2C339FE5 		ldr	r3, .L656+80
 3715 3610 000093E5 		ldr	r0, [r3, #0]	@ float
 3716 3614 FEFFFFEB 		bl	__extendsfdf2
 3717 3618 2D2E8FE2 		adr	r2, .L656
 3718 361c 0C0092E8 		ldmia	r2, {r2-r3}
 3719 3620 FEFFFFEB 		bl	__divdf3
 3720 3624 B32F8FE2 		adr	r2, .L656+8
 3721 3628 0C0092E8 		ldmia	r2, {r2-r3}
 3722 362c FEFFFFEB 		bl	__muldf3
 3723 3630 FEFFFFEB 		bl	__fixdfsi
 3724 3634 4C139FE5 		ldr	r1, .L656+152
 3725 3638 50E39FE5 		ldr	lr, .L656+160
 3726 363c 0030D1E5 		ldrb	r3, [r1, #0]	@ zero_extendqisi2
 3727 3640 0020DEE5 		ldrb	r2, [lr, #0]	@ zero_extendqisi2
 3728 3644 B0034BE1 		strh	r0, [fp, #-48]	@ movhi 
 3729 3648 030052E1 		cmp	r2, r3
 3730 364c 0030D125 		ldrcsb	r3, [r1, #0]	@ zero_extendqisi2
 3731 3650 0030D135 		ldrccb	r3, [r1, #0]	@ zero_extendqisi2
 3732 3654 02306320 		rsbcs	r3, r3, r2
 3733 3658 FF306322 		rsbcs	r3, r3, #255
 3734 365c 03306230 		rsbcc	r3, r2, r3
 3735 3660 0E0053E3 		cmp	r3, #14
 3736 3664 140F00DA 		ble	.L400
 3737 3668 0020DEE5 		ldrb	r2, [lr, #0]	@ zero_extendqisi2
 3738 366c 013082E2 		add	r3, r2, #1
 3739 3670 0030CEE5 		strb	r3, [lr, #0]
 3740 3674 0030DEE5 		ldrb	r3, [lr, #0]	@ zero_extendqisi2
 3741 3678 0C639FE5 		ldr	r6, .L656+156
 3742 367c FF0053E3 		cmp	r3, #255
 3743 3680 6630E0E3 		mvn	r3, #102
 3744 3684 0230C6E7 		strb	r3, [r6, r2]
 3745 3688 67308302 		addeq	r3, r3, #103
 3746 368c FCC29FE5 		ldr	ip, .L656+160
 3747 3690 0030CE05 		streqb	r3, [lr, #0]
 3748 3694 0020DCE5 		ldrb	r2, [ip, #0]	@ zero_extendqisi2
 3749 3698 013082E2 		add	r3, r2, #1
 3750 369c 0030CCE5 		strb	r3, [ip, #0]
 3751 36a0 0030DCE5 		ldrb	r3, [ip, #0]	@ zero_extendqisi2
 3752 36a4 FF0053E3 		cmp	r3, #255
 3753 36a8 0E30A0E3 		mov	r3, #14
 3754 36ac 0230C6E7 		strb	r3, [r6, r2]
 3755 36b0 0E304302 		subeq	r3, r3, #14
 3756 36b4 0030CC05 		streqb	r3, [ip, #0]
 3757 36b8 0020DCE5 		ldrb	r2, [ip, #0]	@ zero_extendqisi2
 3758 36bc 013082E2 		add	r3, r2, #1
 3759 36c0 0030CCE5 		strb	r3, [ip, #0]
 3760 36c4 0030DCE5 		ldrb	r3, [ip, #0]	@ zero_extendqisi2
 3761 36c8 C4E29FE5 		ldr	lr, .L656+164
 3762 36cc C4529FE5 		ldr	r5, .L656+168
 3763 36d0 FF0053E3 		cmp	r3, #255
 3764 36d4 1530A0E3 		mov	r3, #21
 3765 36d8 0030CEE5 		strb	r3, [lr, #0]
 3766 36dc 0E3083E2 		add	r3, r3, #14
 3767 36e0 0030C5E5 		strb	r3, [r5, #0]
 3768 36e4 1C3043E2 		sub	r3, r3, #28
 3769 36e8 0230C6E7 		strb	r3, [r6, r2]
 3770 36ec 07304302 		subeq	r3, r3, #7
 3771 36f0 0030CC05 		streqb	r3, [ip, #0]
 3772 36f4 0020DCE5 		ldrb	r2, [ip, #0]	@ zero_extendqisi2
 3773 36f8 013082E2 		add	r3, r2, #1
 3774 36fc 0030CCE5 		strb	r3, [ip, #0]
 3775 3700 0030DCE5 		ldrb	r3, [ip, #0]	@ zero_extendqisi2
 3776 3704 FF0053E3 		cmp	r3, #255
 3777 3708 1A30A0E3 		mov	r3, #26
 3778 370c 0030CEE5 		strb	r3, [lr, #0]
 3779 3710 233083E2 		add	r3, r3, #35
 3780 3714 0030C5E5 		strb	r3, [r5, #0]
 3781 3718 383043E2 		sub	r3, r3, #56
 3782 371c 0230C6E7 		strb	r3, [r6, r2]
 3783 3720 05304302 		subeq	r3, r3, #5
 3784 3724 0030CC05 		streqb	r3, [ip, #0]
 3785 3728 1C429FE5 		ldr	r4, .L656+92
 3786 372c 0000DCE5 		ldrb	r0, [ip, #0]	@ zero_extendqisi2
 3787 3730 0010D4E5 		ldrb	r1, [r4, #0]	@ zero_extendqisi2
 3788 3734 012080E2 		add	r2, r0, #1
 3789 3738 1A3081E2 		add	r3, r1, #26
 3790 373c 0020CCE5 		strb	r2, [ip, #0]
 3791 3740 0030CEE5 		strb	r3, [lr, #0]
 3792 3744 0030DCE5 		ldrb	r3, [ip, #0]	@ zero_extendqisi2
 3793 3748 0020DEE5 		ldrb	r2, [lr, #0]	@ zero_extendqisi2
 3794 374c FF0053E3 		cmp	r3, #255
 3795 3750 3D3082E2 		add	r3, r2, #61
 3796 3754 0030C5E5 		strb	r3, [r5, #0]
 3797 3758 0030A003 		moveq	r3, #0
 3798 375c 0030CC05 		streqb	r3, [ip, #0]
 3799 3760 0010C6E7 		strb	r1, [r6, r0]
 3800 3764 0010DCE5 		ldrb	r1, [ip, #0]	@ zero_extendqisi2
 3801 3768 0100D4E5 		ldrb	r0, [r4, #1]	@ zero_extendqisi2
 3802 376c 023080E0 		add	r3, r0, r2
 3803 3770 012081E2 		add	r2, r1, #1
 3804 3774 0030CEE5 		strb	r3, [lr, #0]
 3805 3778 0020CCE5 		strb	r2, [ip, #0]
 3806 377c 0030DCE5 		ldrb	r3, [ip, #0]	@ zero_extendqisi2
 3807 3780 FF0053E3 		cmp	r3, #255
 3808 3784 0040DEE5 		ldrb	r4, [lr, #0]	@ zero_extendqisi2
 3809 3788 0020D5E5 		ldrb	r2, [r5, #0]	@ zero_extendqisi2
 3810 378c FF304302 		subeq	r3, r3, #255
 3811 3790 0030CC05 		streqb	r3, [ip, #0]
 3812 3794 042082E0 		add	r2, r2, r4
 3813 3798 0020C5E5 		strb	r2, [r5, #0]
 3814 379c 0100C6E7 		strb	r0, [r6, r1]
 3815 37a0 0000DCE5 		ldrb	r0, [ip, #0]	@ zero_extendqisi2
 3816 37a4 30105BE5 		ldrb	r1, [fp, #-48]	@ zero_extendqisi2
 3817 37a8 012080E2 		add	r2, r0, #1
 3818 37ac 0020CCE5 		strb	r2, [ip, #0]
 3819 37b0 043081E0 		add	r3, r1, r4
 3820 37b4 0030CEE5 		strb	r3, [lr, #0]
 3821 37b8 0030DCE5 		ldrb	r3, [ip, #0]	@ zero_extendqisi2
 3822 37bc FF0053E3 		cmp	r3, #255
 3823 37c0 0040DEE5 		ldrb	r4, [lr, #0]	@ zero_extendqisi2
 3824 37c4 0020D5E5 		ldrb	r2, [r5, #0]	@ zero_extendqisi2
 3825 37c8 FF304302 		subeq	r3, r3, #255
 3826 37cc 0030CC05 		streqb	r3, [ip, #0]
 3827 37d0 042082E0 		add	r2, r2, r4
 3828 37d4 0020C5E5 		strb	r2, [r5, #0]
 3829 37d8 0010C6E7 		strb	r1, [r6, r0]
 3830 37dc 0000DCE5 		ldrb	r0, [ip, #0]	@ zero_extendqisi2
 3831 37e0 2F105BE5 		ldrb	r1, [fp, #-47]	@ zero_extendqisi2
 3832 37e4 012080E2 		add	r2, r0, #1
 3833 37e8 0020CCE5 		strb	r2, [ip, #0]
 3834 37ec 043081E0 		add	r3, r1, r4
 3835 37f0 0030CEE5 		strb	r3, [lr, #0]
 3836 37f4 0030DCE5 		ldrb	r3, [ip, #0]	@ zero_extendqisi2
 3837 37f8 0040DEE5 		ldrb	r4, [lr, #0]	@ zero_extendqisi2
 3838 37fc FF0053E3 		cmp	r3, #255
 3839 3800 0020D5E5 		ldrb	r2, [r5, #0]	@ zero_extendqisi2
 3840 3804 FF304302 		subeq	r3, r3, #255
 3841 3808 0030CC05 		streqb	r3, [ip, #0]
 3842 380c 042082E0 		add	r2, r2, r4
 3843 3810 0020C5E5 		strb	r2, [r5, #0]
 3844 3814 28719FE5 		ldr	r7, .L656+84
 3845 3818 0010C6E7 		strb	r1, [r6, r0]
 3846 381c 0000DCE5 		ldrb	r0, [ip, #0]	@ zero_extendqisi2
 3847 3820 0010D7E5 		ldrb	r1, [r7, #0]	@ zero_extendqisi2
 3848 3824 012080E2 		add	r2, r0, #1
 3849 3828 043081E0 		add	r3, r1, r4
 3850 382c 0020CCE5 		strb	r2, [ip, #0]
 3851 3830 0030CEE5 		strb	r3, [lr, #0]
 3852 3834 0030DCE5 		ldrb	r3, [ip, #0]	@ zero_extendqisi2
 3853 3838 0040DEE5 		ldrb	r4, [lr, #0]	@ zero_extendqisi2
 3854 383c 0020D5E5 		ldrb	r2, [r5, #0]	@ zero_extendqisi2
 3855 3840 FF0053E3 		cmp	r3, #255
 3856 3844 042082E0 		add	r2, r2, r4
 3857 3848 FF304302 		subeq	r3, r3, #255
 3858 384c 0020C5E5 		strb	r2, [r5, #0]
 3859 3850 0030CC05 		streqb	r3, [ip, #0]
 3860 3854 0010C6E7 		strb	r1, [r6, r0]
 3861 3858 0000DCE5 		ldrb	r0, [ip, #0]	@ zero_extendqisi2
 3862 385c 0110D7E5 		ldrb	r1, [r7, #1]	@ zero_extendqisi2
 3863 3860 012080E2 		add	r2, r0, #1
 3864 3864 0020CCE5 		strb	r2, [ip, #0]
 3865 3868 043081E0 		add	r3, r1, r4
 3866 386c 0030CEE5 		strb	r3, [lr, #0]
 3867 3870 0030DCE5 		ldrb	r3, [ip, #0]	@ zero_extendqisi2
 3868 3874 0040DEE5 		ldrb	r4, [lr, #0]	@ zero_extendqisi2
 3869 3878 FF0053E3 		cmp	r3, #255
 3870 387c 0020D5E5 		ldrb	r2, [r5, #0]	@ zero_extendqisi2
 3871 3880 FF304302 		subeq	r3, r3, #255
 3872 3884 0030CC05 		streqb	r3, [ip, #0]
 3873 3888 042082E0 		add	r2, r2, r4
 3874 388c 0020C5E5 		strb	r2, [r5, #0]
 3875 3890 0010C6E7 		strb	r1, [r6, r0]
 3876 3894 0000DCE5 		ldrb	r0, [ip, #0]	@ zero_extendqisi2
 3877 3898 0210D7E5 		ldrb	r1, [r7, #2]	@ zero_extendqisi2
 3878 389c 012080E2 		add	r2, r0, #1
 3879 38a0 0020CCE5 		strb	r2, [ip, #0]
 3880 38a4 043081E0 		add	r3, r1, r4
 3881 38a8 0030CEE5 		strb	r3, [lr, #0]
 3882 38ac 0030DCE5 		ldrb	r3, [ip, #0]	@ zero_extendqisi2
 3883 38b0 0020D5E5 		ldrb	r2, [r5, #0]	@ zero_extendqisi2
 3884 38b4 0040DEE5 		ldrb	r4, [lr, #0]	@ zero_extendqisi2
 3885 38b8 FF0053E3 		cmp	r3, #255
 3886 38bc 042082E0 		add	r2, r2, r4
 3887 38c0 FF304302 		subeq	r3, r3, #255
 3888 38c4 0020C5E5 		strb	r2, [r5, #0]
 3889 38c8 0010C6E7 		strb	r1, [r6, r0]
 3890 38cc 0030CC05 		streqb	r3, [ip, #0]
 3891 38d0 0300D7E5 		ldrb	r0, [r7, #3]	@ zero_extendqisi2
 3892              	.L651:
 3893 38d4 043080E0 		add	r3, r0, r4
 3894 38d8 0030CEE5 		strb	r3, [lr, #0]
 3895 38dc 0010DCE5 		ldrb	r1, [ip, #0]	@ zero_extendqisi2
 3896 38e0 00E0DEE5 		ldrb	lr, [lr, #0]	@ zero_extendqisi2
 3897 38e4 012081E2 		add	r2, r1, #1
 3898 38e8 0020CCE5 		strb	r2, [ip, #0]
 3899 38ec FA0E00EA 		b	.L649
 3900              	.L657:
 3901              		.align	2
 3902              	.L656:
 3903 38f0 FB210940 		.word	1074340347
 3904 38f4 182D4454 		.word	1413754136
 3905 38f8 00209C40 		.word	1083973632
 3906 38fc 00000000 		.word	0
 3907 3900 00000000 		.word	v_ctl_altitude_setpoint
 3908 3904 00000000 		.word	v_ctl_climb_setpoint
 3909 3908 00000000 		.word	nav_in_circle
 3910 390c 00000000 		.word	nav_circle_x
 3911 3910 00000000 		.word	nav_circle_y
 3912 3914 00000000 		.word	nav_circle_radius
 3913 3918 00000000 		.word	nav_in_segment
 3914 391c 00000000 		.word	nav_segment_x_1
 3915 3920 00000000 		.word	nav_segment_y_1
 3916 3924 00000000 		.word	nav_segment_x_2
 3917 3928 00000000 		.word	nav_segment_y_2
 3918 392c 19000000 		.word	i.12
 3919 3930 00000000 		.word	flight_altitude
 3920 3934 00000000 		.word	pprz_mode
 3921 3938 00000000 		.word	launch
 3922 393c 00008043 		.word	1132462080
 3923 3940 00000000 		.word	estimator_rad
 3924 3944 00000000 		.word	estimator_rad_of_ir
 3925 3948 00000000 		.word	ir_pitch
 3926 394c 00000000 		.word	ir_roll
 3927 3950 00000000 		.word	ir_top
 3928 3954 00000000 		.word	downlink_nb_ovrn
 3929 3958 13000000 		.word	i120.8
 3930 395c 00000000 		.word	energy
 3931 3960 00000000 		.word	v_ctl_throttle_slewed
 3932 3964 00000000 		.word	vsupply
 3933 3968 00000000 		.word	estimator_flight_time
 3934 396c 00000000 		.word	kill_throttle
 3935 3970 00000000 		.word	block_time
 3936 3974 00000000 		.word	stage_time
 3937 3978 00000000 		.word	v_ctl_auto_throttle_sum_err
 3938 397c 00000000 		.word	v_ctl_auto_throttle_pgain
 3939 3980 00000000 		.word	h_ctl_course_pgain
 3940 3984 00000000 		.word	v_ctl_auto_throttle_submode
 3941 3988 00000000 		.word	tx_tail
 3942 398c 00000000 		.word	tx_buf
 3943 3990 00000000 		.word	tx_head
 3944 3994 00000000 		.word	ck_a
 3945 3998 00000000 		.word	ck_b
 3946 399c 00000000 		.word	survey_east
 3947 39a0 00000000 		.word	survey_north
 3948 39a4 00000000 		.word	survey_west
 3949 39a8 00000000 		.word	survey_south
 3950              	.L379:
 3951 39ac 300053E3 		cmp	r3, #48
 3952 39b0 180F001A 		bne	.L259
 3953 39b4 34101FE5 		ldr	r1, .L656+152
 3954 39b8 30001FE5 		ldr	r0, .L656+160
 3955 39bc 0030D1E5 		ldrb	r3, [r1, #0]	@ zero_extendqisi2
 3956 39c0 0020D0E5 		ldrb	r2, [r0, #0]	@ zero_extendqisi2
 3957 39c4 030052E1 		cmp	r2, r3
 3958 39c8 0030D125 		ldrcsb	r3, [r1, #0]	@ zero_extendqisi2
 3959 39cc 0030D135 		ldrccb	r3, [r1, #0]	@ zero_extendqisi2
 3960 39d0 02306320 		rsbcs	r3, r3, r2
 3961 39d4 FF306322 		rsbcs	r3, r3, #255
 3962 39d8 03306230 		rsbcc	r3, r2, r3
 3963 39dc 0C0053E3 		cmp	r3, #12
 3964 39e0 140F00DA 		ble	.L400
 3965 39e4 0020D0E5 		ldrb	r2, [r0, #0]	@ zero_extendqisi2
 3966 39e8 013082E2 		add	r3, r2, #1
 3967 39ec 0030C0E5 		strb	r3, [r0, #0]
 3968 39f0 0030D0E5 		ldrb	r3, [r0, #0]	@ zero_extendqisi2
 3969 39f4 70601FE5 		ldr	r6, .L656+156
 3970 39f8 FF0053E3 		cmp	r3, #255
 3971 39fc 6630E0E3 		mvn	r3, #102
 3972 3a00 0230C6E7 		strb	r3, [r6, r2]
 3973 3a04 67308302 		addeq	r3, r3, #103
 3974 3a08 80C01FE5 		ldr	ip, .L656+160
 3975 3a0c 0030C005 		streqb	r3, [r0, #0]
 3976 3a10 0020DCE5 		ldrb	r2, [ip, #0]	@ zero_extendqisi2
 3977 3a14 013082E2 		add	r3, r2, #1
 3978 3a18 0030CCE5 		strb	r3, [ip, #0]
 3979 3a1c 0030DCE5 		ldrb	r3, [ip, #0]	@ zero_extendqisi2
 3980 3a20 FF0053E3 		cmp	r3, #255
 3981 3a24 0C30A0E3 		mov	r3, #12
 3982 3a28 0230C6E7 		strb	r3, [r6, r2]
 3983 3a2c 0C304302 		subeq	r3, r3, #12
 3984 3a30 0030CC05 		streqb	r3, [ip, #0]
 3985 3a34 0020DCE5 		ldrb	r2, [ip, #0]	@ zero_extendqisi2
 3986 3a38 013082E2 		add	r3, r2, #1
 3987 3a3c 0030CCE5 		strb	r3, [ip, #0]
 3988 3a40 0030DCE5 		ldrb	r3, [ip, #0]	@ zero_extendqisi2
 3989 3a44 B8401FE5 		ldr	r4, .L656+164
 3990 3a48 B8501FE5 		ldr	r5, .L656+168
 3991 3a4c FF0053E3 		cmp	r3, #255
 3992 3a50 1330A0E3 		mov	r3, #19
 3993 3a54 0030C4E5 		strb	r3, [r4, #0]
 3994 3a58 0C3083E2 		add	r3, r3, #12
 3995 3a5c 0030C5E5 		strb	r3, [r5, #0]
 3996 3a60 1F304302 		subeq	r3, r3, #31
 3997 3a64 0030CC05 		streqb	r3, [ip, #0]
 3998 3a68 0710A0E3 		mov	r1, #7
 3999 3a6c 0210C6E7 		strb	r1, [r6, r2]
 4000 3a70 0020DCE5 		ldrb	r2, [ip, #0]	@ zero_extendqisi2
 4001 3a74 013082E2 		add	r3, r2, #1
 4002 3a78 0030CCE5 		strb	r3, [ip, #0]
 4003 3a7c 0030DCE5 		ldrb	r3, [ip, #0]	@ zero_extendqisi2
 4004 3a80 FF0053E3 		cmp	r3, #255
 4005 3a84 1A30A0E3 		mov	r3, #26
 4006 3a88 0030C4E5 		strb	r3, [r4, #0]
 4007 3a8c 1F3083E2 		add	r3, r3, #31
 4008 3a90 0030C5E5 		strb	r3, [r5, #0]
 4009 3a94 39304302 		subeq	r3, r3, #57
 4010 3a98 0030CC05 		streqb	r3, [ip, #0]
 4011 3a9c 0210C6E7 		strb	r1, [r6, r2]
 4012 3aa0 60E11FE5 		ldr	lr, .L656+88
 4013 3aa4 0000DCE5 		ldrb	r0, [ip, #0]	@ zero_extendqisi2
 4014 3aa8 0010DEE5 		ldrb	r1, [lr, #0]	@ zero_extendqisi2
 4015 3aac 012080E2 		add	r2, r0, #1
 4016 3ab0 1A3081E2 		add	r3, r1, #26
 4017 3ab4 0020CCE5 		strb	r2, [ip, #0]
 4018 3ab8 0030C4E5 		strb	r3, [r4, #0]
 4019 3abc 0030DCE5 		ldrb	r3, [ip, #0]	@ zero_extendqisi2
 4020 3ac0 0020D4E5 		ldrb	r2, [r4, #0]	@ zero_extendqisi2
 4021 3ac4 FF0053E3 		cmp	r3, #255
 4022 3ac8 393082E2 		add	r3, r2, #57
 4023 3acc 0030C5E5 		strb	r3, [r5, #0]
 4024 3ad0 0030A003 		moveq	r3, #0
 4025 3ad4 0030CC05 		streqb	r3, [ip, #0]
 4026 3ad8 0010C6E7 		strb	r1, [r6, r0]
 4027 3adc 0010DCE5 		ldrb	r1, [ip, #0]	@ zero_extendqisi2
 4028 3ae0 0100DEE5 		ldrb	r0, [lr, #1]	@ zero_extendqisi2
 4029 3ae4 023080E0 		add	r3, r0, r2
 4030 3ae8 012081E2 		add	r2, r1, #1
 4031 3aec 0030C4E5 		strb	r3, [r4, #0]
 4032 3af0 0020CCE5 		strb	r2, [ip, #0]
 4033 3af4 0030DCE5 		ldrb	r3, [ip, #0]	@ zero_extendqisi2
 4034 3af8 FF0053E3 		cmp	r3, #255
 4035 3afc 00E0D4E5 		ldrb	lr, [r4, #0]	@ zero_extendqisi2
 4036 3b00 0020D5E5 		ldrb	r2, [r5, #0]	@ zero_extendqisi2
 4037 3b04 FF304302 		subeq	r3, r3, #255
 4038 3b08 0030CC05 		streqb	r3, [ip, #0]
 4039 3b0c 0E2082E0 		add	r2, r2, lr
 4040 3b10 0020C5E5 		strb	r2, [r5, #0]
 4041 3b14 0100C6E7 		strb	r0, [r6, r1]
 4042 3b18 D4711FE5 		ldr	r7, .L656+92
 4043 3b1c 0000DCE5 		ldrb	r0, [ip, #0]	@ zero_extendqisi2
 4044 3b20 0010D7E5 		ldrb	r1, [r7, #0]	@ zero_extendqisi2
 4045 3b24 012080E2 		add	r2, r0, #1
 4046 3b28 0020CCE5 		strb	r2, [ip, #0]
 4047 3b2c 0E3081E0 		add	r3, r1, lr
 4048 3b30 0030C4E5 		strb	r3, [r4, #0]
 4049 3b34 0030DCE5 		ldrb	r3, [ip, #0]	@ zero_extendqisi2
 4050 3b38 00E0D4E5 		ldrb	lr, [r4, #0]	@ zero_extendqisi2
 4051 3b3c FF0053E3 		cmp	r3, #255
 4052 3b40 0020D5E5 		ldrb	r2, [r5, #0]	@ zero_extendqisi2
 4053 3b44 FF304302 		subeq	r3, r3, #255
 4054 3b48 0030CC05 		streqb	r3, [ip, #0]
 4055 3b4c 0E2082E0 		add	r2, r2, lr
 4056 3b50 0020C5E5 		strb	r2, [r5, #0]
 4057 3b54 0010C6E7 		strb	r1, [r6, r0]
 4058 3b58 0010DCE5 		ldrb	r1, [ip, #0]	@ zero_extendqisi2
 4059 3b5c 0100D7E5 		ldrb	r0, [r7, #1]	@ zero_extendqisi2
 4060 3b60 012081E2 		add	r2, r1, #1
 4061 3b64 0E3080E0 		add	r3, r0, lr
 4062 3b68 0020CCE5 		strb	r2, [ip, #0]
 4063 3b6c 0030C4E5 		strb	r3, [r4, #0]
 4064 3b70 0030DCE5 		ldrb	r3, [ip, #0]	@ zero_extendqisi2
 4065 3b74 0020D5E5 		ldrb	r2, [r5, #0]	@ zero_extendqisi2
 4066 3b78 00E0D4E5 		ldrb	lr, [r4, #0]	@ zero_extendqisi2
 4067 3b7c FF0053E3 		cmp	r3, #255
 4068 3b80 0E2082E0 		add	r2, r2, lr
 4069 3b84 FF304302 		subeq	r3, r3, #255
 4070 3b88 0020C5E5 		strb	r2, [r5, #0]
 4071 3b8c 0100C6E7 		strb	r0, [r6, r1]
 4072 3b90 0030CC05 		streqb	r3, [ip, #0]
 4073 3b94 4C721FE5 		ldr	r7, .L656+96
 4074              	.L653:
 4075 3b98 0000DCE5 		ldrb	r0, [ip, #0]	@ zero_extendqisi2
 4076 3b9c 0010D7E5 		ldrb	r1, [r7, #0]	@ zero_extendqisi2
 4077 3ba0 012080E2 		add	r2, r0, #1
 4078 3ba4 0020CCE5 		strb	r2, [ip, #0]
 4079 3ba8 0E3081E0 		add	r3, r1, lr
 4080 3bac 0030C4E5 		strb	r3, [r4, #0]
 4081 3bb0 0030DCE5 		ldrb	r3, [ip, #0]	@ zero_extendqisi2
 4082 3bb4 00E0D4E5 		ldrb	lr, [r4, #0]	@ zero_extendqisi2
 4083 3bb8 0020D5E5 		ldrb	r2, [r5, #0]	@ zero_extendqisi2
 4084 3bbc FF0053E3 		cmp	r3, #255
 4085 3bc0 0E2082E0 		add	r2, r2, lr
 4086 3bc4 FF304302 		subeq	r3, r3, #255
 4087 3bc8 0030CC05 		streqb	r3, [ip, #0]
 4088 3bcc 0020C5E5 		strb	r2, [r5, #0]
 4089 3bd0 0010C6E7 		strb	r1, [r6, r0]
 4090 3bd4 0100D7E5 		ldrb	r0, [r7, #1]	@ zero_extendqisi2
 4091 3bd8 0010DCE5 		ldrb	r1, [ip, #0]	@ zero_extendqisi2
 4092 3bdc 0E3080E0 		add	r3, r0, lr
 4093 3be0 0030C4E5 		strb	r3, [r4, #0]
 4094 3be4 012081E2 		add	r2, r1, #1
 4095 3be8 0020CCE5 		strb	r2, [ip, #0]
 4096 3bec 00E0D4E5 		ldrb	lr, [r4, #0]	@ zero_extendqisi2
 4097              	.L649:
 4098 3bf0 0020DCE5 		ldrb	r2, [ip, #0]	@ zero_extendqisi2
 4099 3bf4 0030D5E5 		ldrb	r3, [r5, #0]	@ zero_extendqisi2
 4100 3bf8 FF0052E3 		cmp	r2, #255
 4101 3bfc 0E3083E0 		add	r3, r3, lr
 4102 3c00 0030C5E5 		strb	r3, [r5, #0]
 4103 3c04 0030A003 		moveq	r3, #0
 4104 3c08 0030CC05 		streqb	r3, [ip, #0]
 4105 3c0c 0030DCE5 		ldrb	r3, [ip, #0]	@ zero_extendqisi2
 4106 3c10 012083E2 		add	r2, r3, #1
 4107 3c14 0020CCE5 		strb	r2, [ip, #0]
 4108 3c18 0020DCE5 		ldrb	r2, [ip, #0]	@ zero_extendqisi2
 4109 3c1c FF0052E3 		cmp	r2, #255
 4110 3c20 0100C6E7 		strb	r0, [r6, r1]
 4111 3c24 03E0C6E7 		strb	lr, [r6, r3]
 4112 3c28 0030A003 		moveq	r3, #0
 4113 3c2c 0030CC05 		streqb	r3, [ip, #0]
 4114 3c30 0010DCE5 		ldrb	r1, [ip, #0]	@ zero_extendqisi2
 4115 3c34 013081E2 		add	r3, r1, #1
 4116 3c38 0030CCE5 		strb	r3, [ip, #0]
 4117 3c3c 0020D5E5 		ldrb	r2, [r5, #0]	@ zero_extendqisi2
 4118 3c40 0030DCE5 		ldrb	r3, [ip, #0]	@ zero_extendqisi2
 4119              	.L644:
 4120 3c44 0120C6E7 		strb	r2, [r6, r1]
 4121 3c48 FF0053E3 		cmp	r3, #255
 4122              	.L640:
 4123 3c4c FF304302 		subeq	r3, r3, #255
 4124 3c50 0030CC05 		streqb	r3, [ip, #0]
 4125 3c54 180F00EA 		b	.L259
 4126              	.L400:
 4127 3c58 0C231FE5 		ldr	r2, .L656+100
 4128              	.L626:
 4129 3c5c 0030D2E5 		ldrb	r3, [r2, #0]	@ zero_extendqisi2
 4130 3c60 013083E2 		add	r3, r3, #1
 4131 3c64 0030C2E5 		strb	r3, [r2, #0]
 4132              	.L259:
 4133 3c68 18231FE5 		ldr	r2, .L656+104
 4134 3c6c 0030D2E5 		ldrb	r3, [r2, #0]	@ zero_extendqisi2
 4135 3c70 3C0053E3 		cmp	r3, #60
 4136 3c74 1410001A 		bne	.L418
 4137 3c78 24331FE5 		ldr	r3, .L656+108
 4138 3c7c 000093E5 		ldr	r0, [r3, #0]	@ float
 4139 3c80 FEFFFFEB 		bl	__fixsfsi
 4140 3c84 04131FE5 		ldr	r1, .L656+152
 4141 3c88 00E31FE5 		ldr	lr, .L656+160
 4142 3c8c 0030D1E5 		ldrb	r3, [r1, #0]	@ zero_extendqisi2
 4143 3c90 0020DEE5 		ldrb	r2, [lr, #0]	@ zero_extendqisi2
 4144 3c94 B2034BE1 		strh	r0, [fp, #-50]	@ movhi 
 4145 3c98 030052E1 		cmp	r2, r3
 4146 3c9c 0030D125 		ldrcsb	r3, [r1, #0]	@ zero_extendqisi2
 4147 3ca0 0030D135 		ldrccb	r3, [r1, #0]	@ zero_extendqisi2
 4148 3ca4 02306320 		rsbcs	r3, r3, r2
 4149 3ca8 FF306322 		rsbcs	r3, r3, #255
 4150 3cac 03306230 		rsbcc	r3, r2, r3
 4151 3cb0 120053E3 		cmp	r3, #18
 4152 3cb4 691200DA 		ble	.L468
 4153 3cb8 0020DEE5 		ldrb	r2, [lr, #0]	@ zero_extendqisi2
 4154 3cbc 013082E2 		add	r3, r2, #1
 4155 3cc0 0030CEE5 		strb	r3, [lr, #0]
 4156 3cc4 0030DEE5 		ldrb	r3, [lr, #0]	@ zero_extendqisi2
 4157 3cc8 44631FE5 		ldr	r6, .L656+156
 4158 3ccc FF0053E3 		cmp	r3, #255
 4159 3cd0 6630E0E3 		mvn	r3, #102
 4160 3cd4 0230C6E7 		strb	r3, [r6, r2]
 4161 3cd8 67308302 		addeq	r3, r3, #103
 4162 3cdc 54C31FE5 		ldr	ip, .L656+160
 4163 3ce0 0030CE05 		streqb	r3, [lr, #0]
 4164 3ce4 0020DCE5 		ldrb	r2, [ip, #0]	@ zero_extendqisi2
 4165 3ce8 013082E2 		add	r3, r2, #1
 4166 3cec 0030CCE5 		strb	r3, [ip, #0]
 4167 3cf0 0030DCE5 		ldrb	r3, [ip, #0]	@ zero_extendqisi2
 4168 3cf4 FF0053E3 		cmp	r3, #255
 4169 3cf8 1230A0E3 		mov	r3, #18
 4170 3cfc 0230C6E7 		strb	r3, [r6, r2]
 4171 3d00 12304302 		subeq	r3, r3, #18
 4172 3d04 0030CC05 		streqb	r3, [ip, #0]
 4173 3d08 0020DCE5 		ldrb	r2, [ip, #0]	@ zero_extendqisi2
 4174 3d0c 013082E2 		add	r3, r2, #1
 4175 3d10 0030CCE5 		strb	r3, [ip, #0]
 4176 3d14 0030DCE5 		ldrb	r3, [ip, #0]	@ zero_extendqisi2
 4177 3d18 8CE31FE5 		ldr	lr, .L656+164
 4178 3d1c 8C531FE5 		ldr	r5, .L656+168
 4179 3d20 FF0053E3 		cmp	r3, #255
 4180 3d24 1930A0E3 		mov	r3, #25
 4181 3d28 0030CEE5 		strb	r3, [lr, #0]
 4182 3d2c 123083E2 		add	r3, r3, #18
 4183 3d30 0030C5E5 		strb	r3, [r5, #0]
 4184 3d34 243043E2 		sub	r3, r3, #36
 4185 3d38 0230C6E7 		strb	r3, [r6, r2]
 4186 3d3c 07304302 		subeq	r3, r3, #7
 4187 3d40 0030CC05 		streqb	r3, [ip, #0]
 4188 3d44 0020DCE5 		ldrb	r2, [ip, #0]	@ zero_extendqisi2
 4189 3d48 013082E2 		add	r3, r2, #1
 4190 3d4c 0030CCE5 		strb	r3, [ip, #0]
 4191 3d50 0030DCE5 		ldrb	r3, [ip, #0]	@ zero_extendqisi2
 4192 3d54 FF0053E3 		cmp	r3, #255
 4193 3d58 2530A0E3 		mov	r3, #37
 4194 3d5c 0030CEE5 		strb	r3, [lr, #0]
 4195 3d60 2B3083E2 		add	r3, r3, #43
 4196 3d64 0030C5E5 		strb	r3, [r5, #0]
 4197 3d68 443043E2 		sub	r3, r3, #68
 4198 3d6c 0230C6E7 		strb	r3, [r6, r2]
 4199 3d70 0C304302 		subeq	r3, r3, #12
 4200 3d74 0030CC05 		streqb	r3, [ip, #0]
 4201 3d78 20441FE5 		ldr	r4, .L656+112
 4202 3d7c 0000DCE5 		ldrb	r0, [ip, #0]	@ zero_extendqisi2
 4203 3d80 0010D4E5 		ldrb	r1, [r4, #0]	@ zero_extendqisi2
 4204 3d84 012080E2 		add	r2, r0, #1
 4205 3d88 253081E2 		add	r3, r1, #37
 4206 3d8c 0020CCE5 		strb	r2, [ip, #0]
 4207 3d90 0030CEE5 		strb	r3, [lr, #0]
 4208 3d94 0030DCE5 		ldrb	r3, [ip, #0]	@ zero_extendqisi2
 4209 3d98 0020DEE5 		ldrb	r2, [lr, #0]	@ zero_extendqisi2
 4210 3d9c FF0053E3 		cmp	r3, #255
 4211 3da0 503082E2 		add	r3, r2, #80
 4212 3da4 0030C5E5 		strb	r3, [r5, #0]
 4213 3da8 0030A003 		moveq	r3, #0
 4214 3dac 0030CC05 		streqb	r3, [ip, #0]
 4215 3db0 0010C6E7 		strb	r1, [r6, r0]
 4216 3db4 0010DCE5 		ldrb	r1, [ip, #0]	@ zero_extendqisi2
 4217 3db8 0100D4E5 		ldrb	r0, [r4, #1]	@ zero_extendqisi2
 4218 3dbc 023080E0 		add	r3, r0, r2
 4219 3dc0 012081E2 		add	r2, r1, #1
 4220 3dc4 0030CEE5 		strb	r3, [lr, #0]
 4221 3dc8 0020CCE5 		strb	r2, [ip, #0]
 4222 3dcc 0030DCE5 		ldrb	r3, [ip, #0]	@ zero_extendqisi2
 4223 3dd0 FF0053E3 		cmp	r3, #255
 4224 3dd4 0040DEE5 		ldrb	r4, [lr, #0]	@ zero_extendqisi2
 4225 3dd8 0020D5E5 		ldrb	r2, [r5, #0]	@ zero_extendqisi2
 4226 3ddc FF304302 		subeq	r3, r3, #255
 4227 3de0 0030CC05 		streqb	r3, [ip, #0]
 4228 3de4 042082E0 		add	r2, r2, r4
 4229 3de8 0020C5E5 		strb	r2, [r5, #0]
 4230 3dec 0100C6E7 		strb	r0, [r6, r1]
 4231 3df0 94341FE5 		ldr	r3, .L656+116
 4232 3df4 0010DCE5 		ldrb	r1, [ip, #0]	@ zero_extendqisi2
 4233 3df8 0000D3E5 		ldrb	r0, [r3, #0]	@ zero_extendqisi2
 4234 3dfc 012081E2 		add	r2, r1, #1
 4235 3e00 0020CCE5 		strb	r2, [ip, #0]
 4236 3e04 043080E0 		add	r3, r0, r4
 4237 3e08 0030CEE5 		strb	r3, [lr, #0]
 4238 3e0c 0030DCE5 		ldrb	r3, [ip, #0]	@ zero_extendqisi2
 4239 3e10 FF0053E3 		cmp	r3, #255
 4240 3e14 0040DEE5 		ldrb	r4, [lr, #0]	@ zero_extendqisi2
 4241 3e18 0020D5E5 		ldrb	r2, [r5, #0]	@ zero_extendqisi2
 4242 3e1c FF304302 		subeq	r3, r3, #255
 4243 3e20 0030CC05 		streqb	r3, [ip, #0]
 4244 3e24 042082E0 		add	r2, r2, r4
 4245 3e28 0020C5E5 		strb	r2, [r5, #0]
 4246 3e2c 0100C6E7 		strb	r0, [r6, r1]
 4247 3e30 D0741FE5 		ldr	r7, .L656+120
 4248 3e34 0000DCE5 		ldrb	r0, [ip, #0]	@ zero_extendqisi2
 4249 3e38 0010D7E5 		ldrb	r1, [r7, #0]	@ zero_extendqisi2
 4250 3e3c 012080E2 		add	r2, r0, #1
 4251 3e40 0020CCE5 		strb	r2, [ip, #0]
 4252 3e44 043081E0 		add	r3, r1, r4
 4253 3e48 0030CEE5 		strb	r3, [lr, #0]
 4254 3e4c 0030DCE5 		ldrb	r3, [ip, #0]	@ zero_extendqisi2
 4255 3e50 0040DEE5 		ldrb	r4, [lr, #0]	@ zero_extendqisi2
 4256 3e54 FF0053E3 		cmp	r3, #255
 4257 3e58 0020D5E5 		ldrb	r2, [r5, #0]	@ zero_extendqisi2
 4258 3e5c FF304302 		subeq	r3, r3, #255
 4259 3e60 0030CC05 		streqb	r3, [ip, #0]
 4260 3e64 042082E0 		add	r2, r2, r4
 4261 3e68 0020C5E5 		strb	r2, [r5, #0]
 4262 3e6c 0010C6E7 		strb	r1, [r6, r0]
 4263 3e70 0010DCE5 		ldrb	r1, [ip, #0]	@ zero_extendqisi2
 4264 3e74 0100D7E5 		ldrb	r0, [r7, #1]	@ zero_extendqisi2
 4265 3e78 012081E2 		add	r2, r1, #1
 4266 3e7c 043080E0 		add	r3, r0, r4
 4267 3e80 0020CCE5 		strb	r2, [ip, #0]
 4268 3e84 0030CEE5 		strb	r3, [lr, #0]
 4269 3e88 0030DCE5 		ldrb	r3, [ip, #0]	@ zero_extendqisi2
 4270 3e8c 0040DEE5 		ldrb	r4, [lr, #0]	@ zero_extendqisi2
 4271 3e90 0020D5E5 		ldrb	r2, [r5, #0]	@ zero_extendqisi2
 4272 3e94 FF0053E3 		cmp	r3, #255
 4273 3e98 042082E0 		add	r2, r2, r4
 4274 3e9c FF304302 		subeq	r3, r3, #255
 4275 3ea0 0020C5E5 		strb	r2, [r5, #0]
 4276 3ea4 0030CC05 		streqb	r3, [ip, #0]
 4277 3ea8 0100C6E7 		strb	r0, [r6, r1]
 4278 3eac 48351FE5 		ldr	r3, .L656+124
 4279 3eb0 0010DCE5 		ldrb	r1, [ip, #0]	@ zero_extendqisi2
 4280 3eb4 0000D3E5 		ldrb	r0, [r3, #0]	@ zero_extendqisi2
 4281 3eb8 012081E2 		add	r2, r1, #1
 4282 3ebc 0020CCE5 		strb	r2, [ip, #0]
 4283 3ec0 043080E0 		add	r3, r0, r4
 4284 3ec4 0030CEE5 		strb	r3, [lr, #0]
 4285 3ec8 0030DCE5 		ldrb	r3, [ip, #0]	@ zero_extendqisi2
 4286 3ecc FF0053E3 		cmp	r3, #255
 4287 3ed0 0040DEE5 		ldrb	r4, [lr, #0]	@ zero_extendqisi2
 4288 3ed4 0020D5E5 		ldrb	r2, [r5, #0]	@ zero_extendqisi2
 4289 3ed8 FF304302 		subeq	r3, r3, #255
 4290 3edc 0030CC05 		streqb	r3, [ip, #0]
 4291 3ee0 042082E0 		add	r2, r2, r4
 4292 3ee4 0020C5E5 		strb	r2, [r5, #0]
 4293 3ee8 0100C6E7 		strb	r0, [r6, r1]
 4294 3eec 84751FE5 		ldr	r7, .L656+128
 4295 3ef0 0000DCE5 		ldrb	r0, [ip, #0]	@ zero_extendqisi2
 4296 3ef4 0010D7E5 		ldrb	r1, [r7, #0]	@ zero_extendqisi2
 4297 3ef8 012080E2 		add	r2, r0, #1
 4298 3efc 0020CCE5 		strb	r2, [ip, #0]
 4299 3f00 043081E0 		add	r3, r1, r4
 4300 3f04 0030CEE5 		strb	r3, [lr, #0]
 4301 3f08 0030DCE5 		ldrb	r3, [ip, #0]	@ zero_extendqisi2
 4302 3f0c 0040DEE5 		ldrb	r4, [lr, #0]	@ zero_extendqisi2
 4303 3f10 0020D5E5 		ldrb	r2, [r5, #0]	@ zero_extendqisi2
 4304 3f14 FF0053E3 		cmp	r3, #255
 4305 3f18 FF304302 		subeq	r3, r3, #255
 4306 3f1c 0030CC05 		streqb	r3, [ip, #0]
 4307 3f20 042082E0 		add	r2, r2, r4
 4308 3f24 0020C5E5 		strb	r2, [r5, #0]
 4309 3f28 0010C6E7 		strb	r1, [r6, r0]
 4310 3f2c 0010DCE5 		ldrb	r1, [ip, #0]	@ zero_extendqisi2
 4311 3f30 0100D7E5 		ldrb	r0, [r7, #1]	@ zero_extendqisi2
 4312 3f34 012081E2 		add	r2, r1, #1
 4313 3f38 0020CCE5 		strb	r2, [ip, #0]
 4314 3f3c 043080E0 		add	r3, r0, r4
 4315 3f40 0030CEE5 		strb	r3, [lr, #0]
 4316 3f44 0030DCE5 		ldrb	r3, [ip, #0]	@ zero_extendqisi2
 4317 3f48 0040DEE5 		ldrb	r4, [lr, #0]	@ zero_extendqisi2
 4318 3f4c 0020D5E5 		ldrb	r2, [r5, #0]	@ zero_extendqisi2
 4319 3f50 FF0053E3 		cmp	r3, #255
 4320 3f54 042082E0 		add	r2, r2, r4
 4321 3f58 FF304302 		subeq	r3, r3, #255
 4322 3f5c 0030CC05 		streqb	r3, [ip, #0]
 4323 3f60 0020C5E5 		strb	r2, [r5, #0]
 4324 3f64 0100C6E7 		strb	r0, [r6, r1]
 4325 3f68 FC751FE5 		ldr	r7, .L656+132
 4326 3f6c 0000DCE5 		ldrb	r0, [ip, #0]	@ zero_extendqisi2
 4327 3f70 0010D7E5 		ldrb	r1, [r7, #0]	@ zero_extendqisi2
 4328 3f74 012080E2 		add	r2, r0, #1
 4329 3f78 043081E0 		add	r3, r1, r4
 4330 3f7c 0030CEE5 		strb	r3, [lr, #0]
 4331 3f80 0020CCE5 		strb	r2, [ip, #0]
 4332 3f84 0030DCE5 		ldrb	r3, [ip, #0]	@ zero_extendqisi2
 4333 3f88 FF0053E3 		cmp	r3, #255
 4334 3f8c 0040DEE5 		ldrb	r4, [lr, #0]	@ zero_extendqisi2
 4335 3f90 0020D5E5 		ldrb	r2, [r5, #0]	@ zero_extendqisi2
 4336 3f94 FF304302 		subeq	r3, r3, #255
 4337 3f98 0030CC05 		streqb	r3, [ip, #0]
 4338 3f9c 042082E0 		add	r2, r2, r4
 4339 3fa0 0020C5E5 		strb	r2, [r5, #0]
 4340 3fa4 0010C6E7 		strb	r1, [r6, r0]
 4341 3fa8 0010DCE5 		ldrb	r1, [ip, #0]	@ zero_extendqisi2
 4342 3fac 0100D7E5 		ldrb	r0, [r7, #1]	@ zero_extendqisi2
 4343 3fb0 012081E2 		add	r2, r1, #1
 4344 3fb4 0020CCE5 		strb	r2, [ip, #0]
 4345 3fb8 043080E0 		add	r3, r0, r4
 4346 3fbc 0030CEE5 		strb	r3, [lr, #0]
 4347 3fc0 0030DCE5 		ldrb	r3, [ip, #0]	@ zero_extendqisi2
 4348 3fc4 0040DEE5 		ldrb	r4, [lr, #0]	@ zero_extendqisi2
 4349 3fc8 0020D5E5 		ldrb	r2, [r5, #0]	@ zero_extendqisi2
 4350 3fcc FF0053E3 		cmp	r3, #255
 4351 3fd0 FF304302 		subeq	r3, r3, #255
 4352 3fd4 0030CC05 		streqb	r3, [ip, #0]
 4353 3fd8 042082E0 		add	r2, r2, r4
 4354 3fdc 0020C5E5 		strb	r2, [r5, #0]
 4355 3fe0 0100C6E7 		strb	r0, [r6, r1]
 4356 3fe4 0000DCE5 		ldrb	r0, [ip, #0]	@ zero_extendqisi2
 4357 3fe8 32105BE5 		ldrb	r1, [fp, #-50]	@ zero_extendqisi2
 4358 3fec 012080E2 		add	r2, r0, #1
 4359 3ff0 0020CCE5 		strb	r2, [ip, #0]
 4360 3ff4 043081E0 		add	r3, r1, r4
 4361 3ff8 0030CEE5 		strb	r3, [lr, #0]
 4362 3ffc 0030DCE5 		ldrb	r3, [ip, #0]	@ zero_extendqisi2
 4363 4000 0040DEE5 		ldrb	r4, [lr, #0]	@ zero_extendqisi2
 4364 4004 0020D5E5 		ldrb	r2, [r5, #0]	@ zero_extendqisi2
 4365 4008 FF0053E3 		cmp	r3, #255
 4366 400c FF304302 		subeq	r3, r3, #255
 4367 4010 042082E0 		add	r2, r2, r4
 4368 4014 0030CC05 		streqb	r3, [ip, #0]
 4369 4018 0020C5E5 		strb	r2, [r5, #0]
 4370 401c 0010C6E7 		strb	r1, [r6, r0]
 4371 4020 0000DCE5 		ldrb	r0, [ip, #0]	@ zero_extendqisi2
 4372 4024 31105BE5 		ldrb	r1, [fp, #-49]	@ zero_extendqisi2
 4373 4028 012080E2 		add	r2, r0, #1
 4374 402c 043081E0 		add	r3, r1, r4
 4375 4030 0030CEE5 		strb	r3, [lr, #0]
 4376 4034 0020CCE5 		strb	r2, [ip, #0]
 4377 4038 00E0DEE5 		ldrb	lr, [lr, #0]	@ zero_extendqisi2
 4378 403c 0030D5E5 		ldrb	r3, [r5, #0]	@ zero_extendqisi2
 4379 4040 0020DCE5 		ldrb	r2, [ip, #0]	@ zero_extendqisi2
 4380 4044 0E3083E0 		add	r3, r3, lr
 4381 4048 FF0052E3 		cmp	r2, #255
 4382 404c 0030C5E5 		strb	r3, [r5, #0]
 4383 4050 0010C6E7 		strb	r1, [r6, r0]
 4384 4054 161100EA 		b	.L650
 4385              	.L418:
 4386 4058 420053E3 		cmp	r3, #66
 4387 405c 2611001A 		bne	.L442
 4388 4060 E0161FE5 		ldr	r1, .L656+152
 4389 4064 DC061FE5 		ldr	r0, .L656+160
 4390 4068 0030D1E5 		ldrb	r3, [r1, #0]	@ zero_extendqisi2
 4391 406c 0020D0E5 		ldrb	r2, [r0, #0]	@ zero_extendqisi2
 4392 4070 030052E1 		cmp	r2, r3
 4393 4074 0030D125 		ldrcsb	r3, [r1, #0]	@ zero_extendqisi2
 4394 4078 0030D135 		ldrccb	r3, [r1, #0]	@ zero_extendqisi2
 4395 407c 02306320 		rsbcs	r3, r3, r2
 4396 4080 FF306322 		rsbcs	r3, r3, #255
 4397 4084 03306230 		rsbcc	r3, r2, r3
 4398 4088 130053E3 		cmp	r3, #19
 4399 408c 691200DA 		ble	.L468
 4400 4090 0020D0E5 		ldrb	r2, [r0, #0]	@ zero_extendqisi2
 4401 4094 013082E2 		add	r3, r2, #1
 4402 4098 0030C0E5 		strb	r3, [r0, #0]
 4403 409c 0030D0E5 		ldrb	r3, [r0, #0]	@ zero_extendqisi2
 4404 40a0 1C671FE5 		ldr	r6, .L656+156
 4405 40a4 FF0053E3 		cmp	r3, #255
 4406 40a8 6630E0E3 		mvn	r3, #102
 4407 40ac 0230C6E7 		strb	r3, [r6, r2]
 4408 40b0 67308302 		addeq	r3, r3, #103
 4409 40b4 2CC71FE5 		ldr	ip, .L656+160
 4410 40b8 0030C005 		streqb	r3, [r0, #0]
 4411 40bc 0020DCE5 		ldrb	r2, [ip, #0]	@ zero_extendqisi2
 4412 40c0 013082E2 		add	r3, r2, #1
 4413 40c4 0030CCE5 		strb	r3, [ip, #0]
 4414 40c8 0030DCE5 		ldrb	r3, [ip, #0]	@ zero_extendqisi2
 4415 40cc FF0053E3 		cmp	r3, #255
 4416 40d0 1330A0E3 		mov	r3, #19
 4417 40d4 0230C6E7 		strb	r3, [r6, r2]
 4418 40d8 13304302 		subeq	r3, r3, #19
 4419 40dc 0030CC05 		streqb	r3, [ip, #0]
 4420 40e0 0020DCE5 		ldrb	r2, [ip, #0]	@ zero_extendqisi2
 4421 40e4 013082E2 		add	r3, r2, #1
 4422 40e8 0030CCE5 		strb	r3, [ip, #0]
 4423 40ec 0030DCE5 		ldrb	r3, [ip, #0]	@ zero_extendqisi2
 4424 40f0 64E71FE5 		ldr	lr, .L656+164
 4425 40f4 64571FE5 		ldr	r5, .L656+168
 4426 40f8 FF0053E3 		cmp	r3, #255
 4427 40fc 1A30A0E3 		mov	r3, #26
 4428 4100 0030CEE5 		strb	r3, [lr, #0]
 4429 4104 133083E2 		add	r3, r3, #19
 4430 4108 0030C5E5 		strb	r3, [r5, #0]
 4431 410c 263043E2 		sub	r3, r3, #38
 4432 4110 0230C6E7 		strb	r3, [r6, r2]
 4433 4114 07304302 		subeq	r3, r3, #7
 4434 4118 0030CC05 		streqb	r3, [ip, #0]
 4435 411c 0020DCE5 		ldrb	r2, [ip, #0]	@ zero_extendqisi2
 4436 4120 013082E2 		add	r3, r2, #1
 4437 4124 0030CCE5 		strb	r3, [ip, #0]
 4438 4128 0030DCE5 		ldrb	r3, [ip, #0]	@ zero_extendqisi2
 4439 412c FF0053E3 		cmp	r3, #255
 4440 4130 2830A0E3 		mov	r3, #40
 4441 4134 0030CEE5 		strb	r3, [lr, #0]
 4442 4138 2D3083E2 		add	r3, r3, #45
 4443 413c 0030C5E5 		strb	r3, [r5, #0]
 4444 4140 473043E2 		sub	r3, r3, #71
 4445 4144 0230C6E7 		strb	r3, [r6, r2]
 4446 4148 0E304302 		subeq	r3, r3, #14
 4447 414c 0030CC05 		streqb	r3, [ip, #0]
 4448 4150 E0771FE5 		ldr	r7, .L656+136
 4449 4154 0000DCE5 		ldrb	r0, [ip, #0]	@ zero_extendqisi2
 4450 4158 0010D7E5 		ldrb	r1, [r7, #0]	@ zero_extendqisi2
 4451 415c 012080E2 		add	r2, r0, #1
 4452 4160 283081E2 		add	r3, r1, #40
 4453 4164 0020CCE5 		strb	r2, [ip, #0]
 4454 4168 0030CEE5 		strb	r3, [lr, #0]
 4455 416c 0030DCE5 		ldrb	r3, [ip, #0]	@ zero_extendqisi2
 4456 4170 0040DEE5 		ldrb	r4, [lr, #0]	@ zero_extendqisi2
 4457 4174 FF0053E3 		cmp	r3, #255
 4458 4178 553084E2 		add	r3, r4, #85
 4459 417c 0030C5E5 		strb	r3, [r5, #0]
 4460 4180 0030A003 		moveq	r3, #0
 4461 4184 0030CC05 		streqb	r3, [ip, #0]
 4462 4188 0010C6E7 		strb	r1, [r6, r0]
 4463 418c 0000DCE5 		ldrb	r0, [ip, #0]	@ zero_extendqisi2
 4464 4190 0110D7E5 		ldrb	r1, [r7, #1]	@ zero_extendqisi2
 4465 4194 012080E2 		add	r2, r0, #1
 4466 4198 043081E0 		add	r3, r1, r4
 4467 419c 0030CEE5 		strb	r3, [lr, #0]
 4468 41a0 0020CCE5 		strb	r2, [ip, #0]
 4469 41a4 0030DCE5 		ldrb	r3, [ip, #0]	@ zero_extendqisi2
 4470 41a8 FF0053E3 		cmp	r3, #255
 4471 41ac 0040DEE5 		ldrb	r4, [lr, #0]	@ zero_extendqisi2
 4472 41b0 0020D5E5 		ldrb	r2, [r5, #0]	@ zero_extendqisi2
 4473 41b4 FF304302 		subeq	r3, r3, #255
 4474 41b8 0030CC05 		streqb	r3, [ip, #0]
 4475 41bc 042082E0 		add	r2, r2, r4
 4476 41c0 0020C5E5 		strb	r2, [r5, #0]
 4477 41c4 0010C6E7 		strb	r1, [r6, r0]
 4478 41c8 0000DCE5 		ldrb	r0, [ip, #0]	@ zero_extendqisi2
 4479 41cc 0210D7E5 		ldrb	r1, [r7, #2]	@ zero_extendqisi2
 4480 41d0 012080E2 		add	r2, r0, #1
 4481 41d4 0020CCE5 		strb	r2, [ip, #0]
 4482 41d8 043081E0 		add	r3, r1, r4
 4483 41dc 0030CEE5 		strb	r3, [lr, #0]
 4484 41e0 0030DCE5 		ldrb	r3, [ip, #0]	@ zero_extendqisi2
 4485 41e4 FF0053E3 		cmp	r3, #255
 4486 41e8 0040DEE5 		ldrb	r4, [lr, #0]	@ zero_extendqisi2
 4487 41ec 0020D5E5 		ldrb	r2, [r5, #0]	@ zero_extendqisi2
 4488 41f0 FF304302 		subeq	r3, r3, #255
 4489 41f4 0030CC05 		streqb	r3, [ip, #0]
 4490 41f8 042082E0 		add	r2, r2, r4
 4491 41fc 0020C5E5 		strb	r2, [r5, #0]
 4492 4200 0010C6E7 		strb	r1, [r6, r0]
 4493 4204 0010DCE5 		ldrb	r1, [ip, #0]	@ zero_extendqisi2
 4494 4208 0300D7E5 		ldrb	r0, [r7, #3]	@ zero_extendqisi2
 4495 420c 012081E2 		add	r2, r1, #1
 4496 4210 0020CCE5 		strb	r2, [ip, #0]
 4497 4214 043080E0 		add	r3, r0, r4
 4498 4218 0030CEE5 		strb	r3, [lr, #0]
 4499 421c 0030DCE5 		ldrb	r3, [ip, #0]	@ zero_extendqisi2
 4500 4220 0040DEE5 		ldrb	r4, [lr, #0]	@ zero_extendqisi2
 4501 4224 FF0053E3 		cmp	r3, #255
 4502 4228 0020D5E5 		ldrb	r2, [r5, #0]	@ zero_extendqisi2
 4503 422c FF304302 		subeq	r3, r3, #255
 4504 4230 0030CC05 		streqb	r3, [ip, #0]
 4505 4234 042082E0 		add	r2, r2, r4
 4506 4238 C4781FE5 		ldr	r7, .L656+140
 4507 423c 0020C5E5 		strb	r2, [r5, #0]
 4508 4240 0100C6E7 		strb	r0, [r6, r1]
 4509 4244 0000DCE5 		ldrb	r0, [ip, #0]	@ zero_extendqisi2
 4510 4248 0010D7E5 		ldrb	r1, [r7, #0]	@ zero_extendqisi2
 4511 424c 012080E2 		add	r2, r0, #1
 4512 4250 043081E0 		add	r3, r1, r4
 4513 4254 0020CCE5 		strb	r2, [ip, #0]
 4514 4258 0030CEE5 		strb	r3, [lr, #0]
 4515 425c 0030DCE5 		ldrb	r3, [ip, #0]	@ zero_extendqisi2
 4516 4260 0040DEE5 		ldrb	r4, [lr, #0]	@ zero_extendqisi2
 4517 4264 0020D5E5 		ldrb	r2, [r5, #0]	@ zero_extendqisi2
 4518 4268 FF0053E3 		cmp	r3, #255
 4519 426c 042082E0 		add	r2, r2, r4
 4520 4270 FF304302 		subeq	r3, r3, #255
 4521 4274 0020C5E5 		strb	r2, [r5, #0]
 4522 4278 0030CC05 		streqb	r3, [ip, #0]
 4523 427c 0010C6E7 		strb	r1, [r6, r0]
 4524 4280 0000DCE5 		ldrb	r0, [ip, #0]	@ zero_extendqisi2
 4525 4284 0110D7E5 		ldrb	r1, [r7, #1]	@ zero_extendqisi2
 4526 4288 012080E2 		add	r2, r0, #1
 4527 428c 0020CCE5 		strb	r2, [ip, #0]
 4528 4290 043081E0 		add	r3, r1, r4
 4529 4294 0030CEE5 		strb	r3, [lr, #0]
 4530 4298 0030DCE5 		ldrb	r3, [ip, #0]	@ zero_extendqisi2
 4531 429c FF0053E3 		cmp	r3, #255
 4532 42a0 0040DEE5 		ldrb	r4, [lr, #0]	@ zero_extendqisi2
 4533 42a4 0020D5E5 		ldrb	r2, [r5, #0]	@ zero_extendqisi2
 4534 42a8 FF304302 		subeq	r3, r3, #255
 4535 42ac 0030CC05 		streqb	r3, [ip, #0]
 4536 42b0 042082E0 		add	r2, r2, r4
 4537 42b4 0020C5E5 		strb	r2, [r5, #0]
 4538 42b8 0010C6E7 		strb	r1, [r6, r0]
 4539 42bc 0000DCE5 		ldrb	r0, [ip, #0]	@ zero_extendqisi2
 4540 42c0 0210D7E5 		ldrb	r1, [r7, #2]	@ zero_extendqisi2
 4541 42c4 012080E2 		add	r2, r0, #1
 4542 42c8 0020CCE5 		strb	r2, [ip, #0]
 4543 42cc 043081E0 		add	r3, r1, r4
 4544 42d0 0030CEE5 		strb	r3, [lr, #0]
 4545 42d4 0030DCE5 		ldrb	r3, [ip, #0]	@ zero_extendqisi2
 4546 42d8 0040DEE5 		ldrb	r4, [lr, #0]	@ zero_extendqisi2
 4547 42dc 0020D5E5 		ldrb	r2, [r5, #0]	@ zero_extendqisi2
 4548 42e0 FF0053E3 		cmp	r3, #255
 4549 42e4 FF304302 		subeq	r3, r3, #255
 4550 42e8 0030CC05 		streqb	r3, [ip, #0]
 4551 42ec 042082E0 		add	r2, r2, r4
 4552 42f0 0020C5E5 		strb	r2, [r5, #0]
 4553 42f4 0010C6E7 		strb	r1, [r6, r0]
 4554 42f8 0010DCE5 		ldrb	r1, [ip, #0]	@ zero_extendqisi2
 4555 42fc 0300D7E5 		ldrb	r0, [r7, #3]	@ zero_extendqisi2
 4556 4300 012081E2 		add	r2, r1, #1
 4557 4304 0020CCE5 		strb	r2, [ip, #0]
 4558 4308 043080E0 		add	r3, r0, r4
 4559 430c 0030CEE5 		strb	r3, [lr, #0]
 4560 4310 0030DCE5 		ldrb	r3, [ip, #0]	@ zero_extendqisi2
 4561 4314 0040DEE5 		ldrb	r4, [lr, #0]	@ zero_extendqisi2
 4562 4318 0020D5E5 		ldrb	r2, [r5, #0]	@ zero_extendqisi2
 4563 431c FF0053E3 		cmp	r3, #255
 4564 4320 042082E0 		add	r2, r2, r4
 4565 4324 FF304302 		subeq	r3, r3, #255
 4566 4328 0030CC05 		streqb	r3, [ip, #0]
 4567 432c B4791FE5 		ldr	r7, .L656+144
 4568 4330 0020C5E5 		strb	r2, [r5, #0]
 4569 4334 0100C6E7 		strb	r0, [r6, r1]
 4570 4338 0000DCE5 		ldrb	r0, [ip, #0]	@ zero_extendqisi2
 4571 433c 0010D7E5 		ldrb	r1, [r7, #0]	@ zero_extendqisi2
 4572 4340 012080E2 		add	r2, r0, #1
 4573 4344 043081E0 		add	r3, r1, r4
 4574 4348 0030CEE5 		strb	r3, [lr, #0]
 4575 434c 0020CCE5 		strb	r2, [ip, #0]
 4576 4350 0030DCE5 		ldrb	r3, [ip, #0]	@ zero_extendqisi2
 4577 4354 FF0053E3 		cmp	r3, #255
 4578 4358 0040DEE5 		ldrb	r4, [lr, #0]	@ zero_extendqisi2
 4579 435c 0020D5E5 		ldrb	r2, [r5, #0]	@ zero_extendqisi2
 4580 4360 FF304302 		subeq	r3, r3, #255
 4581 4364 0030CC05 		streqb	r3, [ip, #0]
 4582 4368 042082E0 		add	r2, r2, r4
 4583 436c 0020C5E5 		strb	r2, [r5, #0]
 4584 4370 0010C6E7 		strb	r1, [r6, r0]
 4585 4374 0000DCE5 		ldrb	r0, [ip, #0]	@ zero_extendqisi2
 4586 4378 0110D7E5 		ldrb	r1, [r7, #1]	@ zero_extendqisi2
 4587 437c 012080E2 		add	r2, r0, #1
 4588 4380 0020CCE5 		strb	r2, [ip, #0]
 4589 4384 043081E0 		add	r3, r1, r4
 4590 4388 0030CEE5 		strb	r3, [lr, #0]
 4591 438c 0030DCE5 		ldrb	r3, [ip, #0]	@ zero_extendqisi2
 4592 4390 FF0053E3 		cmp	r3, #255
 4593 4394 0040DEE5 		ldrb	r4, [lr, #0]	@ zero_extendqisi2
 4594 4398 0020D5E5 		ldrb	r2, [r5, #0]	@ zero_extendqisi2
 4595 439c FF304302 		subeq	r3, r3, #255
 4596 43a0 0030CC05 		streqb	r3, [ip, #0]
 4597 43a4 042082E0 		add	r2, r2, r4
 4598 43a8 0020C5E5 		strb	r2, [r5, #0]
 4599 43ac 0010C6E7 		strb	r1, [r6, r0]
 4600 43b0 0000DCE5 		ldrb	r0, [ip, #0]	@ zero_extendqisi2
 4601 43b4 0210D7E5 		ldrb	r1, [r7, #2]	@ zero_extendqisi2
 4602 43b8 012080E2 		add	r2, r0, #1
 4603 43bc 0020CCE5 		strb	r2, [ip, #0]
 4604 43c0 043081E0 		add	r3, r1, r4
 4605 43c4 0030CEE5 		strb	r3, [lr, #0]
 4606 43c8 0030DCE5 		ldrb	r3, [ip, #0]	@ zero_extendqisi2
 4607 43cc 0040DEE5 		ldrb	r4, [lr, #0]	@ zero_extendqisi2
 4608 43d0 FF0053E3 		cmp	r3, #255
 4609 43d4 0020D5E5 		ldrb	r2, [r5, #0]	@ zero_extendqisi2
 4610 43d8 FF304302 		subeq	r3, r3, #255
 4611 43dc 0030CC05 		streqb	r3, [ip, #0]
 4612 43e0 042082E0 		add	r2, r2, r4
 4613 43e4 0020C5E5 		strb	r2, [r5, #0]
 4614 43e8 0010C6E7 		strb	r1, [r6, r0]
 4615 43ec 0010DCE5 		ldrb	r1, [ip, #0]	@ zero_extendqisi2
 4616 43f0 0300D7E5 		ldrb	r0, [r7, #3]	@ zero_extendqisi2
 4617 43f4 012081E2 		add	r2, r1, #1
 4618 43f8 043080E0 		add	r3, r0, r4
 4619 43fc 0020CCE5 		strb	r2, [ip, #0]
 4620 4400 0030CEE5 		strb	r3, [lr, #0]
 4621 4404 0030DCE5 		ldrb	r3, [ip, #0]	@ zero_extendqisi2
 4622 4408 0040DEE5 		ldrb	r4, [lr, #0]	@ zero_extendqisi2
 4623 440c 0020D5E5 		ldrb	r2, [r5, #0]	@ zero_extendqisi2
 4624 4410 FF0053E3 		cmp	r3, #255
 4625 4414 FF304302 		subeq	r3, r3, #255
 4626 4418 042082E0 		add	r2, r2, r4
 4627 441c 0020C5E5 		strb	r2, [r5, #0]
 4628 4420 0030CC05 		streqb	r3, [ip, #0]
 4629 4424 0100C6E7 		strb	r0, [r6, r1]
 4630 4428 AC3A1FE5 		ldr	r3, .L656+148
 4631 442c 0000D3E5 		ldrb	r0, [r3, #0]	@ zero_extendqisi2
 4632 4430 0010DCE5 		ldrb	r1, [ip, #0]	@ zero_extendqisi2
 4633 4434 043080E0 		add	r3, r0, r4
 4634 4438 0030CEE5 		strb	r3, [lr, #0]
 4635 443c 012081E2 		add	r2, r1, #1
 4636 4440 0030D5E5 		ldrb	r3, [r5, #0]	@ zero_extendqisi2
 4637 4444 0020CCE5 		strb	r2, [ip, #0]
 4638 4448 00E0DEE5 		ldrb	lr, [lr, #0]	@ zero_extendqisi2
 4639 444c 0020DCE5 		ldrb	r2, [ip, #0]	@ zero_extendqisi2
 4640 4450 0E3083E0 		add	r3, r3, lr
 4641 4454 0030C5E5 		strb	r3, [r5, #0]
 4642 4458 0100C6E7 		strb	r0, [r6, r1]
 4643 445c FF0052E3 		cmp	r2, #255
 4644              	.L650:
 4645 4460 0030A003 		moveq	r3, #0
 4646 4464 0030CC05 		streqb	r3, [ip, #0]
 4647 4468 0030DCE5 		ldrb	r3, [ip, #0]	@ zero_extendqisi2
 4648 446c 012083E2 		add	r2, r3, #1
 4649 4470 0020CCE5 		strb	r2, [ip, #0]
 4650 4474 0020DCE5 		ldrb	r2, [ip, #0]	@ zero_extendqisi2
 4651 4478 FF0052E3 		cmp	r2, #255
 4652 447c 03E0C6E7 		strb	lr, [r6, r3]
 4653 4480 0030A003 		moveq	r3, #0
 4654 4484 0030CC05 		streqb	r3, [ip, #0]
 4655 4488 0010DCE5 		ldrb	r1, [ip, #0]	@ zero_extendqisi2
 4656 448c 013081E2 		add	r3, r1, #1
 4657 4490 0030CCE5 		strb	r3, [ip, #0]
 4658 4494 0020D5E5 		ldrb	r2, [r5, #0]	@ zero_extendqisi2
 4659 4498 0030DCE5 		ldrb	r3, [ip, #0]	@ zero_extendqisi2
 4660 449c 641200EA 		b	.L641
 4661              	.L442:
 4662 44a0 480053E3 		cmp	r3, #72
 4663 44a4 6D12001A 		bne	.L441
 4664 44a8 281B1FE5 		ldr	r1, .L656+152
 4665 44ac 240B1FE5 		ldr	r0, .L656+160
 4666 44b0 0030D1E5 		ldrb	r3, [r1, #0]	@ zero_extendqisi2
 4667 44b4 0020D0E5 		ldrb	r2, [r0, #0]	@ zero_extendqisi2
 4668 44b8 030052E1 		cmp	r2, r3
 4669 44bc 0030D125 		ldrcsb	r3, [r1, #0]	@ zero_extendqisi2
 4670 44c0 0030D135 		ldrccb	r3, [r1, #0]	@ zero_extendqisi2
 4671 44c4 02306320 		rsbcs	r3, r3, r2
 4672 44c8 FF306322 		rsbcs	r3, r3, #255
 4673 44cc 03306230 		rsbcc	r3, r2, r3
 4674 44d0 160053E3 		cmp	r3, #22
 4675 44d4 691200DA 		ble	.L468
 4676 44d8 0020D0E5 		ldrb	r2, [r0, #0]	@ zero_extendqisi2
 4677 44dc 013082E2 		add	r3, r2, #1
 4678 44e0 0030C0E5 		strb	r3, [r0, #0]
 4679 44e4 0030D0E5 		ldrb	r3, [r0, #0]	@ zero_extendqisi2
 4680 44e8 646B1FE5 		ldr	r6, .L656+156
 4681 44ec FF0053E3 		cmp	r3, #255
 4682 44f0 6630E0E3 		mvn	r3, #102
 4683 44f4 0230C6E7 		strb	r3, [r6, r2]
 4684 44f8 67308302 		addeq	r3, r3, #103
 4685 44fc 74CB1FE5 		ldr	ip, .L656+160
 4686 4500 0030C005 		streqb	r3, [r0, #0]
 4687 4504 0020DCE5 		ldrb	r2, [ip, #0]	@ zero_extendqisi2
 4688 4508 013082E2 		add	r3, r2, #1
 4689 450c 0030CCE5 		strb	r3, [ip, #0]
 4690 4510 0030DCE5 		ldrb	r3, [ip, #0]	@ zero_extendqisi2
 4691 4514 FF0053E3 		cmp	r3, #255
 4692 4518 1630A0E3 		mov	r3, #22
 4693 451c 0230C6E7 		strb	r3, [r6, r2]
 4694 4520 16304302 		subeq	r3, r3, #22
 4695 4524 0030CC05 		streqb	r3, [ip, #0]
 4696 4528 0020DCE5 		ldrb	r2, [ip, #0]	@ zero_extendqisi2
 4697 452c 013082E2 		add	r3, r2, #1
 4698 4530 0030CCE5 		strb	r3, [ip, #0]
 4699 4534 0030DCE5 		ldrb	r3, [ip, #0]	@ zero_extendqisi2
 4700 4538 ACEB1FE5 		ldr	lr, .L656+164
 4701 453c AC4B1FE5 		ldr	r4, .L656+168
 4702 4540 FF0053E3 		cmp	r3, #255
 4703 4544 1D30A0E3 		mov	r3, #29
 4704 4548 0030CEE5 		strb	r3, [lr, #0]
 4705 454c 163083E2 		add	r3, r3, #22
 4706 4550 0030C4E5 		strb	r3, [r4, #0]
 4707 4554 2C3043E2 		sub	r3, r3, #44
 4708 4558 0230C6E7 		strb	r3, [r6, r2]
 4709 455c 07304302 		subeq	r3, r3, #7
 4710 4560 0030CC05 		streqb	r3, [ip, #0]
 4711 4564 0020DCE5 		ldrb	r2, [ip, #0]	@ zero_extendqisi2
 4712 4568 013082E2 		add	r3, r2, #1
 4713 456c 0030CCE5 		strb	r3, [ip, #0]
 4714 4570 0030DCE5 		ldrb	r3, [ip, #0]	@ zero_extendqisi2
 4715 4574 FF0053E3 		cmp	r3, #255
 4716 4578 3830A0E3 		mov	r3, #56
 4717 457c 0030CEE5 		strb	r3, [lr, #0]
 4718 4580 333083E2 		add	r3, r3, #51
 4719 4584 0030C4E5 		strb	r3, [r4, #0]
 4720 4588 503043E2 		sub	r3, r3, #80
 4721 458c 0230C6E7 		strb	r3, [r6, r2]
 4722 4590 1B304302 		subeq	r3, r3, #27
 4723 4594 0030CC05 		streqb	r3, [ip, #0]
 4724 4598 047C1FE5 		ldr	r7, .L656+172
 4725 459c 0000DCE5 		ldrb	r0, [ip, #0]	@ zero_extendqisi2
 4726 45a0 0010D7E5 		ldrb	r1, [r7, #0]	@ zero_extendqisi2
 4727 45a4 012080E2 		add	r2, r0, #1
 4728 45a8 383081E2 		add	r3, r1, #56
 4729 45ac 0020CCE5 		strb	r2, [ip, #0]
 4730 45b0 0030CEE5 		strb	r3, [lr, #0]
 4731 45b4 0030DCE5 		ldrb	r3, [ip, #0]	@ zero_extendqisi2
 4732 45b8 0050DEE5 		ldrb	r5, [lr, #0]	@ zero_extendqisi2
 4733 45bc FF0053E3 		cmp	r3, #255
 4734 45c0 6B3085E2 		add	r3, r5, #107
 4735 45c4 0030C4E5 		strb	r3, [r4, #0]
 4736 45c8 0030A003 		moveq	r3, #0
 4737 45cc 0030CC05 		streqb	r3, [ip, #0]
 4738 45d0 0010C6E7 		strb	r1, [r6, r0]
 4739 45d4 0000DCE5 		ldrb	r0, [ip, #0]	@ zero_extendqisi2
 4740 45d8 0110D7E5 		ldrb	r1, [r7, #1]	@ zero_extendqisi2
 4741 45dc 012080E2 		add	r2, r0, #1
 4742 45e0 053081E0 		add	r3, r1, r5
 4743 45e4 0030CEE5 		strb	r3, [lr, #0]
 4744 45e8 0020CCE5 		strb	r2, [ip, #0]
 4745 45ec 0030DCE5 		ldrb	r3, [ip, #0]	@ zero_extendqisi2
 4746 45f0 FF0053E3 		cmp	r3, #255
 4747 45f4 0050DEE5 		ldrb	r5, [lr, #0]	@ zero_extendqisi2
 4748 45f8 0020D4E5 		ldrb	r2, [r4, #0]	@ zero_extendqisi2
 4749 45fc FF304302 		subeq	r3, r3, #255
 4750 4600 0030CC05 		streqb	r3, [ip, #0]
 4751 4604 052082E0 		add	r2, r2, r5
 4752 4608 0020C4E5 		strb	r2, [r4, #0]
 4753 460c 0010C6E7 		strb	r1, [r6, r0]
 4754 4610 0000DCE5 		ldrb	r0, [ip, #0]	@ zero_extendqisi2
 4755 4614 0210D7E5 		ldrb	r1, [r7, #2]	@ zero_extendqisi2
 4756 4618 012080E2 		add	r2, r0, #1
 4757 461c 0020CCE5 		strb	r2, [ip, #0]
 4758 4620 053081E0 		add	r3, r1, r5
 4759 4624 0030CEE5 		strb	r3, [lr, #0]
 4760 4628 0030DCE5 		ldrb	r3, [ip, #0]	@ zero_extendqisi2
 4761 462c FF0053E3 		cmp	r3, #255
 4762 4630 0050DEE5 		ldrb	r5, [lr, #0]	@ zero_extendqisi2
 4763 4634 0020D4E5 		ldrb	r2, [r4, #0]	@ zero_extendqisi2
 4764 4638 FF304302 		subeq	r3, r3, #255
 4765 463c 0030CC05 		streqb	r3, [ip, #0]
 4766 4640 052082E0 		add	r2, r2, r5
 4767 4644 0020C4E5 		strb	r2, [r4, #0]
 4768 4648 0010C6E7 		strb	r1, [r6, r0]
 4769 464c 0010DCE5 		ldrb	r1, [ip, #0]	@ zero_extendqisi2
 4770 4650 0300D7E5 		ldrb	r0, [r7, #3]	@ zero_extendqisi2
 4771 4654 012081E2 		add	r2, r1, #1
 4772 4658 0020CCE5 		strb	r2, [ip, #0]
 4773 465c 053080E0 		add	r3, r0, r5
 4774 4660 0030CEE5 		strb	r3, [lr, #0]
 4775 4664 0030DCE5 		ldrb	r3, [ip, #0]	@ zero_extendqisi2
 4776 4668 0050DEE5 		ldrb	r5, [lr, #0]	@ zero_extendqisi2
 4777 466c FF0053E3 		cmp	r3, #255
 4778 4670 0020D4E5 		ldrb	r2, [r4, #0]	@ zero_extendqisi2
 4779 4674 FF304302 		subeq	r3, r3, #255
 4780 4678 0030CC05 		streqb	r3, [ip, #0]
 4781 467c 052082E0 		add	r2, r2, r5
 4782 4680 E87C1FE5 		ldr	r7, .L656+176
 4783 4684 0020C4E5 		strb	r2, [r4, #0]
 4784 4688 0100C6E7 		strb	r0, [r6, r1]
 4785 468c 0000DCE5 		ldrb	r0, [ip, #0]	@ zero_extendqisi2
 4786 4690 0010D7E5 		ldrb	r1, [r7, #0]	@ zero_extendqisi2
 4787 4694 012080E2 		add	r2, r0, #1
 4788 4698 053081E0 		add	r3, r1, r5
 4789 469c 0020CCE5 		strb	r2, [ip, #0]
 4790 46a0 0030CEE5 		strb	r3, [lr, #0]
 4791 46a4 0030DCE5 		ldrb	r3, [ip, #0]	@ zero_extendqisi2
 4792 46a8 0050DEE5 		ldrb	r5, [lr, #0]	@ zero_extendqisi2
 4793 46ac 0020D4E5 		ldrb	r2, [r4, #0]	@ zero_extendqisi2
 4794 46b0 FF0053E3 		cmp	r3, #255
 4795 46b4 052082E0 		add	r2, r2, r5
 4796 46b8 FF304302 		subeq	r3, r3, #255
 4797 46bc 0020C4E5 		strb	r2, [r4, #0]
 4798 46c0 0030CC05 		streqb	r3, [ip, #0]
 4799 46c4 0010C6E7 		strb	r1, [r6, r0]
 4800 46c8 0000DCE5 		ldrb	r0, [ip, #0]	@ zero_extendqisi2
 4801 46cc 0110D7E5 		ldrb	r1, [r7, #1]	@ zero_extendqisi2
 4802 46d0 012080E2 		add	r2, r0, #1
 4803 46d4 0020CCE5 		strb	r2, [ip, #0]
 4804 46d8 053081E0 		add	r3, r1, r5
 4805 46dc 0030CEE5 		strb	r3, [lr, #0]
 4806 46e0 0030DCE5 		ldrb	r3, [ip, #0]	@ zero_extendqisi2
 4807 46e4 FF0053E3 		cmp	r3, #255
 4808 46e8 0050DEE5 		ldrb	r5, [lr, #0]	@ zero_extendqisi2
 4809 46ec 0020D4E5 		ldrb	r2, [r4, #0]	@ zero_extendqisi2
 4810 46f0 FF304302 		subeq	r3, r3, #255
 4811 46f4 0030CC05 		streqb	r3, [ip, #0]
 4812 46f8 052082E0 		add	r2, r2, r5
 4813 46fc 0020C4E5 		strb	r2, [r4, #0]
 4814 4700 0010C6E7 		strb	r1, [r6, r0]
 4815 4704 0000DCE5 		ldrb	r0, [ip, #0]	@ zero_extendqisi2
 4816 4708 0210D7E5 		ldrb	r1, [r7, #2]	@ zero_extendqisi2
 4817 470c 012080E2 		add	r2, r0, #1
 4818 4710 0020CCE5 		strb	r2, [ip, #0]
 4819 4714 053081E0 		add	r3, r1, r5
 4820 4718 0030CEE5 		strb	r3, [lr, #0]
 4821 471c 0030DCE5 		ldrb	r3, [ip, #0]	@ zero_extendqisi2
 4822 4720 0050DEE5 		ldrb	r5, [lr, #0]	@ zero_extendqisi2
 4823 4724 0020D4E5 		ldrb	r2, [r4, #0]	@ zero_extendqisi2
 4824 4728 FF0053E3 		cmp	r3, #255
 4825 472c FF304302 		subeq	r3, r3, #255
 4826 4730 0030CC05 		streqb	r3, [ip, #0]
 4827 4734 052082E0 		add	r2, r2, r5
 4828 4738 0020C4E5 		strb	r2, [r4, #0]
 4829 473c 0010C6E7 		strb	r1, [r6, r0]
 4830 4740 0010DCE5 		ldrb	r1, [ip, #0]	@ zero_extendqisi2
 4831 4744 0300D7E5 		ldrb	r0, [r7, #3]	@ zero_extendqisi2
 4832 4748 012081E2 		add	r2, r1, #1
 4833 474c 0020CCE5 		strb	r2, [ip, #0]
 4834 4750 053080E0 		add	r3, r0, r5
 4835 4754 0030CEE5 		strb	r3, [lr, #0]
 4836 4758 0030DCE5 		ldrb	r3, [ip, #0]	@ zero_extendqisi2
 4837 475c 0050DEE5 		ldrb	r5, [lr, #0]	@ zero_extendqisi2
 4838 4760 0020D4E5 		ldrb	r2, [r4, #0]	@ zero_extendqisi2
 4839 4764 FF0053E3 		cmp	r3, #255
 4840 4768 052082E0 		add	r2, r2, r5
 4841 476c FF304302 		subeq	r3, r3, #255
 4842 4770 0030CC05 		streqb	r3, [ip, #0]
 4843 4774 D87D1FE5 		ldr	r7, .L656+180
 4844 4778 0020C4E5 		strb	r2, [r4, #0]
 4845 477c 0100C6E7 		strb	r0, [r6, r1]
 4846 4780 0000DCE5 		ldrb	r0, [ip, #0]	@ zero_extendqisi2
 4847 4784 0010D7E5 		ldrb	r1, [r7, #0]	@ zero_extendqisi2
 4848 4788 012080E2 		add	r2, r0, #1
 4849 478c 053081E0 		add	r3, r1, r5
 4850 4790 0030CEE5 		strb	r3, [lr, #0]
 4851 4794 0020CCE5 		strb	r2, [ip, #0]
 4852 4798 0030DCE5 		ldrb	r3, [ip, #0]	@ zero_extendqisi2
 4853 479c FF0053E3 		cmp	r3, #255
 4854 47a0 0050DEE5 		ldrb	r5, [lr, #0]	@ zero_extendqisi2
 4855 47a4 0020D4E5 		ldrb	r2, [r4, #0]	@ zero_extendqisi2
 4856 47a8 FF304302 		subeq	r3, r3, #255
 4857 47ac 0030CC05 		streqb	r3, [ip, #0]
 4858 47b0 052082E0 		add	r2, r2, r5
 4859 47b4 0020C4E5 		strb	r2, [r4, #0]
 4860 47b8 0010C6E7 		strb	r1, [r6, r0]
 4861 47bc 0000DCE5 		ldrb	r0, [ip, #0]	@ zero_extendqisi2
 4862 47c0 0110D7E5 		ldrb	r1, [r7, #1]	@ zero_extendqisi2
 4863 47c4 012080E2 		add	r2, r0, #1
 4864 47c8 0020CCE5 		strb	r2, [ip, #0]
 4865 47cc 053081E0 		add	r3, r1, r5
 4866 47d0 0030CEE5 		strb	r3, [lr, #0]
 4867 47d4 0030DCE5 		ldrb	r3, [ip, #0]	@ zero_extendqisi2
 4868 47d8 FF0053E3 		cmp	r3, #255
 4869 47dc 0050DEE5 		ldrb	r5, [lr, #0]	@ zero_extendqisi2
 4870 47e0 0020D4E5 		ldrb	r2, [r4, #0]	@ zero_extendqisi2
 4871 47e4 FF304302 		subeq	r3, r3, #255
 4872 47e8 0030CC05 		streqb	r3, [ip, #0]
 4873 47ec 052082E0 		add	r2, r2, r5
 4874 47f0 0020C4E5 		strb	r2, [r4, #0]
 4875 47f4 0010C6E7 		strb	r1, [r6, r0]
 4876 47f8 0000DCE5 		ldrb	r0, [ip, #0]	@ zero_extendqisi2
 4877 47fc 0210D7E5 		ldrb	r1, [r7, #2]	@ zero_extendqisi2
 4878 4800 012080E2 		add	r2, r0, #1
 4879 4804 0020CCE5 		strb	r2, [ip, #0]
 4880 4808 053081E0 		add	r3, r1, r5
 4881 480c 0030CEE5 		strb	r3, [lr, #0]
 4882 4810 0030DCE5 		ldrb	r3, [ip, #0]	@ zero_extendqisi2
 4883 4814 0050DEE5 		ldrb	r5, [lr, #0]	@ zero_extendqisi2
 4884 4818 FF0053E3 		cmp	r3, #255
 4885 481c 0020D4E5 		ldrb	r2, [r4, #0]	@ zero_extendqisi2
 4886 4820 FF304302 		subeq	r3, r3, #255
 4887 4824 0030CC05 		streqb	r3, [ip, #0]
 4888 4828 052082E0 		add	r2, r2, r5
 4889 482c 0020C4E5 		strb	r2, [r4, #0]
 4890 4830 0010C6E7 		strb	r1, [r6, r0]
 4891 4834 0010DCE5 		ldrb	r1, [ip, #0]	@ zero_extendqisi2
 4892 4838 0300D7E5 		ldrb	r0, [r7, #3]	@ zero_extendqisi2
 4893 483c 012081E2 		add	r2, r1, #1
 4894 4840 053080E0 		add	r3, r0, r5
 4895 4844 0020CCE5 		strb	r2, [ip, #0]
 4896 4848 0030CEE5 		strb	r3, [lr, #0]
 4897 484c 0030DCE5 		ldrb	r3, [ip, #0]	@ zero_extendqisi2
 4898 4850 0050DEE5 		ldrb	r5, [lr, #0]	@ zero_extendqisi2
 4899 4854 0020D4E5 		ldrb	r2, [r4, #0]	@ zero_extendqisi2
 4900 4858 FF0053E3 		cmp	r3, #255
 4901 485c 052082E0 		add	r2, r2, r5
 4902 4860 FF304302 		subeq	r3, r3, #255
 4903 4864 0020C4E5 		strb	r2, [r4, #0]
 4904 4868 0030CC05 		streqb	r3, [ip, #0]
 4905 486c 0100C6E7 		strb	r0, [r6, r1]
 4906 4870 D07E1FE5 		ldr	r7, .L656+184
 4907 4874 0000DCE5 		ldrb	r0, [ip, #0]	@ zero_extendqisi2
 4908 4878 0010D7E5 		ldrb	r1, [r7, #0]	@ zero_extendqisi2
 4909 487c 012080E2 		add	r2, r0, #1
 4910 4880 0020CCE5 		strb	r2, [ip, #0]
 4911 4884 053081E0 		add	r3, r1, r5
 4912 4888 0030CEE5 		strb	r3, [lr, #0]
 4913 488c 0030DCE5 		ldrb	r3, [ip, #0]	@ zero_extendqisi2
 4914 4890 FF0053E3 		cmp	r3, #255
 4915 4894 0050DEE5 		ldrb	r5, [lr, #0]	@ zero_extendqisi2
 4916 4898 0020D4E5 		ldrb	r2, [r4, #0]	@ zero_extendqisi2
 4917 489c FF304302 		subeq	r3, r3, #255
 4918 48a0 0030CC05 		streqb	r3, [ip, #0]
 4919 48a4 052082E0 		add	r2, r2, r5
 4920 48a8 0020C4E5 		strb	r2, [r4, #0]
 4921 48ac 0010C6E7 		strb	r1, [r6, r0]
 4922 48b0 0000DCE5 		ldrb	r0, [ip, #0]	@ zero_extendqisi2
 4923 48b4 0110D7E5 		ldrb	r1, [r7, #1]	@ zero_extendqisi2
 4924 48b8 012080E2 		add	r2, r0, #1
 4925 48bc 0020CCE5 		strb	r2, [ip, #0]
 4926 48c0 053081E0 		add	r3, r1, r5
 4927 48c4 0030CEE5 		strb	r3, [lr, #0]
 4928 48c8 0030DCE5 		ldrb	r3, [ip, #0]	@ zero_extendqisi2
 4929 48cc 0050DEE5 		ldrb	r5, [lr, #0]	@ zero_extendqisi2
 4930 48d0 0020D4E5 		ldrb	r2, [r4, #0]	@ zero_extendqisi2
 4931 48d4 FF0053E3 		cmp	r3, #255
 4932 48d8 FF304302 		subeq	r3, r3, #255
 4933 48dc 0030CC05 		streqb	r3, [ip, #0]
 4934 48e0 052082E0 		add	r2, r2, r5
 4935 48e4 0020C4E5 		strb	r2, [r4, #0]
 4936 48e8 0010C6E7 		strb	r1, [r6, r0]
 4937 48ec 0000DCE5 		ldrb	r0, [ip, #0]	@ zero_extendqisi2
 4938 48f0 0210D7E5 		ldrb	r1, [r7, #2]	@ zero_extendqisi2
 4939 48f4 012080E2 		add	r2, r0, #1
 4940 48f8 0020CCE5 		strb	r2, [ip, #0]
 4941 48fc 053081E0 		add	r3, r1, r5
 4942 4900 0030CEE5 		strb	r3, [lr, #0]
 4943 4904 0030DCE5 		ldrb	r3, [ip, #0]	@ zero_extendqisi2
 4944 4908 0050DEE5 		ldrb	r5, [lr, #0]	@ zero_extendqisi2
 4945 490c 0020D4E5 		ldrb	r2, [r4, #0]	@ zero_extendqisi2
 4946 4910 FF0053E3 		cmp	r3, #255
 4947 4914 FF304302 		subeq	r3, r3, #255
 4948 4918 052082E0 		add	r2, r2, r5
 4949 491c 0030CC05 		streqb	r3, [ip, #0]
 4950 4920 0020C4E5 		strb	r2, [r4, #0]
 4951 4924 0010C6E7 		strb	r1, [r6, r0]
 4952 4928 0010DCE5 		ldrb	r1, [ip, #0]	@ zero_extendqisi2
 4953 492c 0300D7E5 		ldrb	r0, [r7, #3]	@ zero_extendqisi2
 4954 4930 012081E2 		add	r2, r1, #1
 4955 4934 053080E0 		add	r3, r0, r5
 4956 4938 0030CEE5 		strb	r3, [lr, #0]
 4957 493c 0020CCE5 		strb	r2, [ip, #0]
 4958 4940 00E0DEE5 		ldrb	lr, [lr, #0]	@ zero_extendqisi2
 4959 4944 0020DCE5 		ldrb	r2, [ip, #0]	@ zero_extendqisi2
 4960 4948 0030D4E5 		ldrb	r3, [r4, #0]	@ zero_extendqisi2
 4961 494c FF0052E3 		cmp	r2, #255
 4962 4950 0E3083E0 		add	r3, r3, lr
 4963 4954 0030C4E5 		strb	r3, [r4, #0]
 4964 4958 0030A003 		moveq	r3, #0
 4965 495c 0030CC05 		streqb	r3, [ip, #0]
 4966 4960 0030DCE5 		ldrb	r3, [ip, #0]	@ zero_extendqisi2
 4967 4964 012083E2 		add	r2, r3, #1
 4968 4968 0020CCE5 		strb	r2, [ip, #0]
 4969 496c 0020DCE5 		ldrb	r2, [ip, #0]	@ zero_extendqisi2
 4970 4970 FF0052E3 		cmp	r2, #255
 4971 4974 0100C6E7 		strb	r0, [r6, r1]
 4972 4978 03E0C6E7 		strb	lr, [r6, r3]
 4973 497c 0030A003 		moveq	r3, #0
 4974 4980 0030CC05 		streqb	r3, [ip, #0]
 4975 4984 0010DCE5 		ldrb	r1, [ip, #0]	@ zero_extendqisi2
 4976 4988 013081E2 		add	r3, r1, #1
 4977 498c 0030CCE5 		strb	r3, [ip, #0]
 4978 4990 0020D4E5 		ldrb	r2, [r4, #0]	@ zero_extendqisi2
 4979 4994 0030DCE5 		ldrb	r3, [ip, #0]	@ zero_extendqisi2
 4980              	.L641:
 4981 4998 FF0053E3 		cmp	r3, #255
 4982 499c FF304302 		subeq	r3, r3, #255
 4983 49a0 0120C6E7 		strb	r2, [r6, r1]
 4984 49a4 0030CC05 		streqb	r3, [ip, #0]
 4985 49a8 6D1200EA 		b	.L441
 4986              	.L468:
 4987 49ac 602D9FE5 		ldr	r2, .L658+156
 4988 49b0 0030D2E5 		ldrb	r3, [r2, #0]	@ zero_extendqisi2
 4989 49b4 013083E2 		add	r3, r3, #1
 4990 49b8 0030C2E5 		strb	r3, [r2, #0]
 4991              	.L441:
 4992 49bc C42C9FE5 		ldr	r2, .L658+16
 4993 49c0 B030D2E1 		ldrh	r3, [r2, #0]
 4994 49c4 4E0053E3 		cmp	r3, #78
 4995 49c8 2C13001A 		bne	.L494
 4996 49cc 381D9FE5 		ldr	r1, .L658+148
 4997 49d0 440D9FE5 		ldr	r0, .L658+164
 4998 49d4 0030D1E5 		ldrb	r3, [r1, #0]	@ zero_extendqisi2
 4999 49d8 0020D0E5 		ldrb	r2, [r0, #0]	@ zero_extendqisi2
 5000 49dc 030052E1 		cmp	r2, r3
 5001 49e0 0030D125 		ldrcsb	r3, [r1, #0]	@ zero_extendqisi2
 5002 49e4 0030D135 		ldrccb	r3, [r1, #0]	@ zero_extendqisi2
 5003 49e8 02306320 		rsbcs	r3, r3, r2
 5004 49ec FF306322 		rsbcs	r3, r3, #255
 5005 49f0 03306230 		rsbcc	r3, r2, r3
 5006 49f4 0D0053E3 		cmp	r3, #13
 5007 49f8 8C1300DA 		ble	.L516
 5008 49fc 0020D0E5 		ldrb	r2, [r0, #0]	@ zero_extendqisi2
 5009 4a00 013082E2 		add	r3, r2, #1
 5010 4a04 0030C0E5 		strb	r3, [r0, #0]
 5011 4a08 0030D0E5 		ldrb	r3, [r0, #0]	@ zero_extendqisi2
 5012 4a0c 046D9FE5 		ldr	r6, .L658+160
 5013 4a10 FF0053E3 		cmp	r3, #255
 5014 4a14 6630E0E3 		mvn	r3, #102
 5015 4a18 0230C6E7 		strb	r3, [r6, r2]
 5016 4a1c 67308302 		addeq	r3, r3, #103
 5017 4a20 F4CC9FE5 		ldr	ip, .L658+164
 5018 4a24 0030C005 		streqb	r3, [r0, #0]
 5019 4a28 0020DCE5 		ldrb	r2, [ip, #0]	@ zero_extendqisi2
 5020 4a2c 013082E2 		add	r3, r2, #1
 5021 4a30 0030CCE5 		strb	r3, [ip, #0]
 5022 4a34 0030DCE5 		ldrb	r3, [ip, #0]	@ zero_extendqisi2
 5023 4a38 FF0053E3 		cmp	r3, #255
 5024 4a3c 0D30A0E3 		mov	r3, #13
 5025 4a40 0230C6E7 		strb	r3, [r6, r2]
 5026 4a44 0D304302 		subeq	r3, r3, #13
 5027 4a48 0030CC05 		streqb	r3, [ip, #0]
 5028 4a4c 0020DCE5 		ldrb	r2, [ip, #0]	@ zero_extendqisi2
 5029 4a50 013082E2 		add	r3, r2, #1
 5030 4a54 0030CCE5 		strb	r3, [ip, #0]
 5031 4a58 0030DCE5 		ldrb	r3, [ip, #0]	@ zero_extendqisi2
 5032 4a5c BCEC9FE5 		ldr	lr, .L658+168
 5033 4a60 BC5C9FE5 		ldr	r5, .L658+172
 5034 4a64 FF0053E3 		cmp	r3, #255
 5035 4a68 1430A0E3 		mov	r3, #20
 5036 4a6c 0030CEE5 		strb	r3, [lr, #0]
 5037 4a70 0D3083E2 		add	r3, r3, #13
 5038 4a74 0030C5E5 		strb	r3, [r5, #0]
 5039 4a78 1A3043E2 		sub	r3, r3, #26
 5040 4a7c 0230C6E7 		strb	r3, [r6, r2]
 5041 4a80 07304302 		subeq	r3, r3, #7
 5042 4a84 0030CC05 		streqb	r3, [ip, #0]
 5043 4a88 0020DCE5 		ldrb	r2, [ip, #0]	@ zero_extendqisi2
 5044 4a8c 013082E2 		add	r3, r2, #1
 5045 4a90 0030CCE5 		strb	r3, [ip, #0]
 5046 4a94 0030DCE5 		ldrb	r3, [ip, #0]	@ zero_extendqisi2
 5047 4a98 FF0053E3 		cmp	r3, #255
 5048 4a9c 1F30A0E3 		mov	r3, #31
 5049 4aa0 0030CEE5 		strb	r3, [lr, #0]
 5050 4aa4 213083E2 		add	r3, r3, #33
 5051 4aa8 0030C5E5 		strb	r3, [r5, #0]
 5052 4aac 353043E2 		sub	r3, r3, #53
 5053 4ab0 0230C6E7 		strb	r3, [r6, r2]
 5054 4ab4 0B304302 		subeq	r3, r3, #11
 5055 4ab8 0030CC05 		streqb	r3, [ip, #0]
 5056 4abc C83B9FE5 		ldr	r3, .L658+20
 5057 4ac0 0010DCE5 		ldrb	r1, [ip, #0]	@ zero_extendqisi2
 5058 4ac4 0000D3E5 		ldrb	r0, [r3, #0]	@ zero_extendqisi2
 5059 4ac8 012081E2 		add	r2, r1, #1
 5060 4acc 1F3080E2 		add	r3, r0, #31
 5061 4ad0 0020CCE5 		strb	r2, [ip, #0]
 5062 4ad4 0030CEE5 		strb	r3, [lr, #0]
 5063 4ad8 0030DCE5 		ldrb	r3, [ip, #0]	@ zero_extendqisi2
 5064 4adc 0020DEE5 		ldrb	r2, [lr, #0]	@ zero_extendqisi2
 5065 4ae0 FF0053E3 		cmp	r3, #255
 5066 4ae4 403082E2 		add	r3, r2, #64
 5067 4ae8 0030C5E5 		strb	r3, [r5, #0]
 5068 4aec 0030A003 		moveq	r3, #0
 5069 4af0 0030CC05 		streqb	r3, [ip, #0]
 5070 4af4 0100C6E7 		strb	r0, [r6, r1]
 5071 4af8 903B9FE5 		ldr	r3, .L658+24
 5072 4afc 0010DCE5 		ldrb	r1, [ip, #0]	@ zero_extendqisi2
 5073 4b00 0000D3E5 		ldrb	r0, [r3, #0]	@ zero_extendqisi2
 5074 4b04 023080E0 		add	r3, r0, r2
 5075 4b08 012081E2 		add	r2, r1, #1
 5076 4b0c 0030CEE5 		strb	r3, [lr, #0]
 5077 4b10 0020CCE5 		strb	r2, [ip, #0]
 5078 4b14 0030DCE5 		ldrb	r3, [ip, #0]	@ zero_extendqisi2
 5079 4b18 FF0053E3 		cmp	r3, #255
 5080 4b1c 0040DEE5 		ldrb	r4, [lr, #0]	@ zero_extendqisi2
 5081 4b20 0020D5E5 		ldrb	r2, [r5, #0]	@ zero_extendqisi2
 5082 4b24 FF304302 		subeq	r3, r3, #255
 5083 4b28 0030CC05 		streqb	r3, [ip, #0]
 5084 4b2c 042082E0 		add	r2, r2, r4
 5085 4b30 0020C5E5 		strb	r2, [r5, #0]
 5086 4b34 0100C6E7 		strb	r0, [r6, r1]
 5087 4b38 543B9FE5 		ldr	r3, .L658+28
 5088 4b3c 0010DCE5 		ldrb	r1, [ip, #0]	@ zero_extendqisi2
 5089 4b40 0000D3E5 		ldrb	r0, [r3, #0]	@ zero_extendqisi2
 5090 4b44 012081E2 		add	r2, r1, #1
 5091 4b48 0020CCE5 		strb	r2, [ip, #0]
 5092 4b4c 043080E0 		add	r3, r0, r4
 5093 4b50 0030CEE5 		strb	r3, [lr, #0]
 5094 4b54 0030DCE5 		ldrb	r3, [ip, #0]	@ zero_extendqisi2
 5095 4b58 FF0053E3 		cmp	r3, #255
 5096 4b5c 0040DEE5 		ldrb	r4, [lr, #0]	@ zero_extendqisi2
 5097 4b60 0020D5E5 		ldrb	r2, [r5, #0]	@ zero_extendqisi2
 5098 4b64 FF304302 		subeq	r3, r3, #255
 5099 4b68 0030CC05 		streqb	r3, [ip, #0]
 5100 4b6c 042082E0 		add	r2, r2, r4
 5101 4b70 0020C5E5 		strb	r2, [r5, #0]
 5102 4b74 0100C6E7 		strb	r0, [r6, r1]
 5103 4b78 183B9FE5 		ldr	r3, .L658+32
 5104 4b7c 0010DCE5 		ldrb	r1, [ip, #0]	@ zero_extendqisi2
 5105 4b80 0000D3E5 		ldrb	r0, [r3, #0]	@ zero_extendqisi2
 5106 4b84 012081E2 		add	r2, r1, #1
 5107 4b88 0020CCE5 		strb	r2, [ip, #0]
 5108 4b8c 043080E0 		add	r3, r0, r4
 5109 4b90 0030CEE5 		strb	r3, [lr, #0]
 5110 4b94 0030DCE5 		ldrb	r3, [ip, #0]	@ zero_extendqisi2
 5111 4b98 0040DEE5 		ldrb	r4, [lr, #0]	@ zero_extendqisi2
 5112 4b9c FF0053E3 		cmp	r3, #255
 5113 4ba0 0020D5E5 		ldrb	r2, [r5, #0]	@ zero_extendqisi2
 5114 4ba4 FF304302 		subeq	r3, r3, #255
 5115 4ba8 0030CC05 		streqb	r3, [ip, #0]
 5116 4bac 042082E0 		add	r2, r2, r4
 5117 4bb0 0020C5E5 		strb	r2, [r5, #0]
 5118 4bb4 0100C6E7 		strb	r0, [r6, r1]
 5119 4bb8 DC3A9FE5 		ldr	r3, .L658+36
 5120 4bbc 0010DCE5 		ldrb	r1, [ip, #0]	@ zero_extendqisi2
 5121 4bc0 0000D3E5 		ldrb	r0, [r3, #0]	@ zero_extendqisi2
 5122 4bc4 012081E2 		add	r2, r1, #1
 5123 4bc8 043080E0 		add	r3, r0, r4
 5124 4bcc 0020CCE5 		strb	r2, [ip, #0]
 5125 4bd0 0030CEE5 		strb	r3, [lr, #0]
 5126 4bd4 0030DCE5 		ldrb	r3, [ip, #0]	@ zero_extendqisi2
 5127 4bd8 0040DEE5 		ldrb	r4, [lr, #0]	@ zero_extendqisi2
 5128 4bdc 0020D5E5 		ldrb	r2, [r5, #0]	@ zero_extendqisi2
 5129 4be0 FF0053E3 		cmp	r3, #255
 5130 4be4 042082E0 		add	r2, r2, r4
 5131 4be8 FF304302 		subeq	r3, r3, #255
 5132 4bec 0020C5E5 		strb	r2, [r5, #0]
 5133 4bf0 0030CC05 		streqb	r3, [ip, #0]
 5134 4bf4 0100C6E7 		strb	r0, [r6, r1]
 5135 4bf8 A03A9FE5 		ldr	r3, .L658+40
 5136 4bfc 0010DCE5 		ldrb	r1, [ip, #0]	@ zero_extendqisi2
 5137 4c00 0000D3E5 		ldrb	r0, [r3, #0]	@ zero_extendqisi2
 5138 4c04 012081E2 		add	r2, r1, #1
 5139 4c08 0020CCE5 		strb	r2, [ip, #0]
 5140 4c0c 043080E0 		add	r3, r0, r4
 5141 4c10 0030CEE5 		strb	r3, [lr, #0]
 5142 4c14 0030DCE5 		ldrb	r3, [ip, #0]	@ zero_extendqisi2
 5143 4c18 0040DEE5 		ldrb	r4, [lr, #0]	@ zero_extendqisi2
 5144 4c1c 0020D5E5 		ldrb	r2, [r5, #0]	@ zero_extendqisi2
 5145 4c20 FF0053E3 		cmp	r3, #255
 5146 4c24 FF304302 		subeq	r3, r3, #255
 5147 4c28 042082E0 		add	r2, r2, r4
 5148 4c2c 0030CC05 		streqb	r3, [ip, #0]
 5149 4c30 0020C5E5 		strb	r2, [r5, #0]
 5150 4c34 0100C6E7 		strb	r0, [r6, r1]
 5151 4c38 643A9FE5 		ldr	r3, .L658+44
 5152 4c3c 0010DCE5 		ldrb	r1, [ip, #0]	@ zero_extendqisi2
 5153 4c40 0000D3E5 		ldrb	r0, [r3, #0]	@ zero_extendqisi2
 5154 4c44 012081E2 		add	r2, r1, #1
 5155 4c48 043080E0 		add	r3, r0, r4
 5156 4c4c 0020CCE5 		strb	r2, [ip, #0]
 5157 4c50 0030CEE5 		strb	r3, [lr, #0]
 5158 4c54 0020DCE5 		ldrb	r2, [ip, #0]	@ zero_extendqisi2
 5159 4c58 00E0DEE5 		ldrb	lr, [lr, #0]	@ zero_extendqisi2
 5160 4c5c 0030D5E5 		ldrb	r3, [r5, #0]	@ zero_extendqisi2
 5161 4c60 FF0052E3 		cmp	r2, #255
 5162 4c64 0E3083E0 		add	r3, r3, lr
 5163 4c68 0030C5E5 		strb	r3, [r5, #0]
 5164 4c6c 0030A003 		moveq	r3, #0
 5165 4c70 0030CC05 		streqb	r3, [ip, #0]
 5166 4c74 0030DCE5 		ldrb	r3, [ip, #0]	@ zero_extendqisi2
 5167 4c78 012083E2 		add	r2, r3, #1
 5168 4c7c 0020CCE5 		strb	r2, [ip, #0]
 5169 4c80 0020DCE5 		ldrb	r2, [ip, #0]	@ zero_extendqisi2
 5170 4c84 FF0052E3 		cmp	r2, #255
 5171 4c88 0100C6E7 		strb	r0, [r6, r1]
 5172 4c8c 03E0C6E7 		strb	lr, [r6, r3]
 5173 4c90 0030A003 		moveq	r3, #0
 5174 4c94 0030CC05 		streqb	r3, [ip, #0]
 5175 4c98 0010DCE5 		ldrb	r1, [ip, #0]	@ zero_extendqisi2
 5176 4c9c 013081E2 		add	r3, r1, #1
 5177 4ca0 0030CCE5 		strb	r3, [ip, #0]
 5178 4ca4 0030DCE5 		ldrb	r3, [ip, #0]	@ zero_extendqisi2
 5179 4ca8 0020D5E5 		ldrb	r2, [r5, #0]	@ zero_extendqisi2
 5180 4cac FF0053E3 		cmp	r3, #255
 5181 4cb0 0120C6E7 		strb	r2, [r6, r1]
 5182 4cb4 891300EA 		b	.L642
 5183              	.L494:
 5184 4cb8 540053E3 		cmp	r3, #84
 5185 4cbc 9013000A 		beq	.L512
 5186 4cc0 5A0053E3 		cmp	r3, #90
 5187 4cc4 9013001A 		bne	.L512
 5188 4cc8 3C1A9FE5 		ldr	r1, .L658+148
 5189 4ccc 480A9FE5 		ldr	r0, .L658+164
 5190 4cd0 0030D1E5 		ldrb	r3, [r1, #0]	@ zero_extendqisi2
 5191 4cd4 0020D0E5 		ldrb	r2, [r0, #0]	@ zero_extendqisi2
 5192 4cd8 030052E1 		cmp	r2, r3
 5193 4cdc 0030D125 		ldrcsb	r3, [r1, #0]	@ zero_extendqisi2
 5194 4ce0 0030D135 		ldrccb	r3, [r1, #0]	@ zero_extendqisi2
 5195 4ce4 02306320 		rsbcs	r3, r3, r2
 5196 4ce8 FF306322 		rsbcs	r3, r3, #255
 5197 4cec 03306230 		rsbcc	r3, r2, r3
 5198 4cf0 070053E3 		cmp	r3, #7
 5199 4cf4 8C1300DA 		ble	.L516
 5200 4cf8 0020D0E5 		ldrb	r2, [r0, #0]	@ zero_extendqisi2
 5201 4cfc 013082E2 		add	r3, r2, #1
 5202 4d00 0030C0E5 		strb	r3, [r0, #0]
 5203 4d04 0030D0E5 		ldrb	r3, [r0, #0]	@ zero_extendqisi2
 5204 4d08 084A9FE5 		ldr	r4, .L658+160
 5205 4d0c FF0053E3 		cmp	r3, #255
 5206 4d10 6630E0E3 		mvn	r3, #102
 5207 4d14 0230C4E7 		strb	r3, [r4, r2]
 5208 4d18 67308302 		addeq	r3, r3, #103
 5209 4d1c F8C99FE5 		ldr	ip, .L658+164
 5210 4d20 0030C005 		streqb	r3, [r0, #0]
 5211 4d24 0030DCE5 		ldrb	r3, [ip, #0]	@ zero_extendqisi2
 5212 4d28 012083E2 		add	r2, r3, #1
 5213 4d2c 0020CCE5 		strb	r2, [ip, #0]
 5214 4d30 0020DCE5 		ldrb	r2, [ip, #0]	@ zero_extendqisi2
 5215 4d34 0710A0E3 		mov	r1, #7
 5216 4d38 FF0052E3 		cmp	r2, #255
 5217 4d3c 0310C4E7 		strb	r1, [r4, r3]
 5218 4d40 0030A003 		moveq	r3, #0
 5219 4d44 0030CC05 		streqb	r3, [ip, #0]
 5220 4d48 0020DCE5 		ldrb	r2, [ip, #0]	@ zero_extendqisi2
 5221 4d4c 013082E2 		add	r3, r2, #1
 5222 4d50 0030CCE5 		strb	r3, [ip, #0]
 5223 4d54 0030DCE5 		ldrb	r3, [ip, #0]	@ zero_extendqisi2
 5224 4d58 C0E99FE5 		ldr	lr, .L658+168
 5225 4d5c C0599FE5 		ldr	r5, .L658+172
 5226 4d60 FF0053E3 		cmp	r3, #255
 5227 4d64 0E30A0E3 		mov	r3, #14
 5228 4d68 0030CEE5 		strb	r3, [lr, #0]
 5229 4d6c 073083E2 		add	r3, r3, #7
 5230 4d70 0030C5E5 		strb	r3, [r5, #0]
 5231 4d74 15304302 		subeq	r3, r3, #21
 5232 4d78 0030CC05 		streqb	r3, [ip, #0]
 5233 4d7c 0210C4E7 		strb	r1, [r4, r2]
 5234 4d80 0020DCE5 		ldrb	r2, [ip, #0]	@ zero_extendqisi2
 5235 4d84 013082E2 		add	r3, r2, #1
 5236 4d88 0030CCE5 		strb	r3, [ip, #0]
 5237 4d8c 0030DCE5 		ldrb	r3, [ip, #0]	@ zero_extendqisi2
 5238 4d90 FF0053E3 		cmp	r3, #255
 5239 4d94 2C30A0E3 		mov	r3, #44
 5240 4d98 0030CEE5 		strb	r3, [lr, #0]
 5241 4d9c 153083E2 		add	r3, r3, #21
 5242 4da0 0030C5E5 		strb	r3, [r5, #0]
 5243 4da4 233043E2 		sub	r3, r3, #35
 5244 4da8 0230C4E7 		strb	r3, [r4, r2]
 5245 4dac 1E304302 		subeq	r3, r3, #30
 5246 4db0 0030CC05 		streqb	r3, [ip, #0]
 5247 4db4 EC389FE5 		ldr	r3, .L658+48
 5248 4db8 0010DCE5 		ldrb	r1, [ip, #0]	@ zero_extendqisi2
 5249 4dbc 0000D3E5 		ldrb	r0, [r3, #0]	@ zero_extendqisi2
 5250 4dc0 012081E2 		add	r2, r1, #1
 5251 4dc4 2C3080E2 		add	r3, r0, #44
 5252 4dc8 0020CCE5 		strb	r2, [ip, #0]
 5253 4dcc 0030CEE5 		strb	r3, [lr, #0]
 5254 4dd0 0030DCE5 		ldrb	r3, [ip, #0]	@ zero_extendqisi2
 5255 4dd4 00E0DEE5 		ldrb	lr, [lr, #0]	@ zero_extendqisi2
 5256 4dd8 FF0053E3 		cmp	r3, #255
 5257 4ddc 41308EE2 		add	r3, lr, #65
 5258 4de0 0030C5E5 		strb	r3, [r5, #0]
 5259 4de4 0030A003 		moveq	r3, #0
 5260 4de8 0030CC05 		streqb	r3, [ip, #0]
 5261 4dec 0030DCE5 		ldrb	r3, [ip, #0]	@ zero_extendqisi2
 5262 4df0 012083E2 		add	r2, r3, #1
 5263 4df4 0100C4E7 		strb	r0, [r4, r1]
 5264 4df8 0020CCE5 		strb	r2, [ip, #0]
 5265 4dfc 0020DCE5 		ldrb	r2, [ip, #0]	@ zero_extendqisi2
 5266 4e00 FF0052E3 		cmp	r2, #255
 5267 4e04 03E0C4E7 		strb	lr, [r4, r3]
 5268 4e08 0030A003 		moveq	r3, #0
 5269 4e0c 0030CC05 		streqb	r3, [ip, #0]
 5270 4e10 0010DCE5 		ldrb	r1, [ip, #0]	@ zero_extendqisi2
 5271 4e14 013081E2 		add	r3, r1, #1
 5272 4e18 0030CCE5 		strb	r3, [ip, #0]
 5273 4e1c 0020D5E5 		ldrb	r2, [r5, #0]	@ zero_extendqisi2
 5274 4e20 0030DCE5 		ldrb	r3, [ip, #0]	@ zero_extendqisi2
 5275 4e24 0120C4E7 		strb	r2, [r4, r1]
 5276 4e28 FF0053E3 		cmp	r3, #255
 5277              	.L642:
 5278 4e2c FF304302 		subeq	r3, r3, #255
 5279 4e30 0030CC05 		streqb	r3, [ip, #0]
 5280 4e34 901300EA 		b	.L512
 5281              	.L516:
 5282 4e38 D4289FE5 		ldr	r2, .L658+156
 5283 4e3c 0030D2E5 		ldrb	r3, [r2, #0]	@ zero_extendqisi2
 5284 4e40 013083E2 		add	r3, r3, #1
 5285 4e44 0030C2E5 		strb	r3, [r2, #0]
 5286              	.L512:
 5287 4e48 5C289FE5 		ldr	r2, .L658+52
 5288 4e4c B030D2E1 		ldrh	r3, [r2, #0]
 5289 4e50 600053E3 		cmp	r3, #96
 5290 4e54 6E14001A 		bne	.L173
 5291 4e58 AC189FE5 		ldr	r1, .L658+148
 5292 4e5c B8089FE5 		ldr	r0, .L658+164
 5293 4e60 0030D1E5 		ldrb	r3, [r1, #0]	@ zero_extendqisi2
 5294 4e64 0020D0E5 		ldrb	r2, [r0, #0]	@ zero_extendqisi2
 5295 4e68 030052E1 		cmp	r2, r3
 5296 4e6c 0030D125 		ldrcsb	r3, [r1, #0]	@ zero_extendqisi2
 5297 4e70 0030D135 		ldrccb	r3, [r1, #0]	@ zero_extendqisi2
 5298 4e74 02306320 		rsbcs	r3, r3, r2
 5299 4e78 03306230 		rsbcc	r3, r2, r3
 5300 4e7c FF306322 		rsbcs	r3, r3, #255
 5301 4e80 0F0053E3 		cmp	r3, #15
 5302 4e84 88289FD5 		ldrle	r2, .L658+156
 5303 4e88 0030D2D5 		ldrleb	r3, [r2, #0]	@ zero_extendqisi2
 5304 4e8c 013083D2 		addle	r3, r3, #1
 5305 4e90 0030C2D5 		strleb	r3, [r2, #0]
 5306 4e94 6E1400DA 		ble	.L173
 5307 4e98 0020D0E5 		ldrb	r2, [r0, #0]	@ zero_extendqisi2
 5308 4e9c 013082E2 		add	r3, r2, #1
 5309 4ea0 0030C0E5 		strb	r3, [r0, #0]
 5310 4ea4 0030D0E5 		ldrb	r3, [r0, #0]	@ zero_extendqisi2
 5311 4ea8 68689FE5 		ldr	r6, .L658+160
 5312 4eac FF0053E3 		cmp	r3, #255
 5313 4eb0 6630E0E3 		mvn	r3, #102
 5314 4eb4 0230C6E7 		strb	r3, [r6, r2]
 5315 4eb8 67308302 		addeq	r3, r3, #103
 5316 4ebc 58C89FE5 		ldr	ip, .L658+164
 5317 4ec0 0030C005 		streqb	r3, [r0, #0]
 5318 4ec4 0020DCE5 		ldrb	r2, [ip, #0]	@ zero_extendqisi2
 5319 4ec8 013082E2 		add	r3, r2, #1
 5320 4ecc 0030CCE5 		strb	r3, [ip, #0]
 5321 4ed0 0030DCE5 		ldrb	r3, [ip, #0]	@ zero_extendqisi2
 5322 4ed4 FF0053E3 		cmp	r3, #255
 5323 4ed8 0F30A0E3 		mov	r3, #15
 5324 4edc 0230C6E7 		strb	r3, [r6, r2]
 5325 4ee0 0F304302 		subeq	r3, r3, #15
 5326 4ee4 0030CC05 		streqb	r3, [ip, #0]
 5327 4ee8 0020DCE5 		ldrb	r2, [ip, #0]	@ zero_extendqisi2
 5328 4eec 013082E2 		add	r3, r2, #1
 5329 4ef0 0030CCE5 		strb	r3, [ip, #0]
 5330 4ef4 0030DCE5 		ldrb	r3, [ip, #0]	@ zero_extendqisi2
 5331 4ef8 20E89FE5 		ldr	lr, .L658+168
 5332 4efc 20589FE5 		ldr	r5, .L658+172
 5333 4f00 FF0053E3 		cmp	r3, #255
 5334 4f04 1630A0E3 		mov	r3, #22
 5335 4f08 0030CEE5 		strb	r3, [lr, #0]
 5336 4f0c 0F3083E2 		add	r3, r3, #15
 5337 4f10 0030C5E5 		strb	r3, [r5, #0]
 5338 4f14 1E3043E2 		sub	r3, r3, #30
 5339 4f18 0230C6E7 		strb	r3, [r6, r2]
 5340 4f1c 07304302 		subeq	r3, r3, #7
 5341 4f20 0030CC05 		streqb	r3, [ip, #0]
 5342 4f24 0020DCE5 		ldrb	r2, [ip, #0]	@ zero_extendqisi2
 5343 4f28 013082E2 		add	r3, r2, #1
 5344 4f2c 0030CCE5 		strb	r3, [ip, #0]
 5345 4f30 0030DCE5 		ldrb	r3, [ip, #0]	@ zero_extendqisi2
 5346 4f34 FF0053E3 		cmp	r3, #255
 5347 4f38 1F30A0E3 		mov	r3, #31
 5348 4f3c 0030CEE5 		strb	r3, [lr, #0]
 5349 4f40 253083E2 		add	r3, r3, #37
 5350 4f44 0030C5E5 		strb	r3, [r5, #0]
 5351 4f48 3B3043E2 		sub	r3, r3, #59
 5352 4f4c 0230C6E7 		strb	r3, [r6, r2]
 5353 4f50 09304302 		subeq	r3, r3, #9
 5354 4f54 0030CC05 		streqb	r3, [ip, #0]
 5355 4f58 50779FE5 		ldr	r7, .L658+56
 5356 4f5c 0000DCE5 		ldrb	r0, [ip, #0]	@ zero_extendqisi2
 5357 4f60 0010D7E5 		ldrb	r1, [r7, #0]	@ zero_extendqisi2
 5358 4f64 012080E2 		add	r2, r0, #1
 5359 4f68 1F3081E2 		add	r3, r1, #31
 5360 4f6c 0020CCE5 		strb	r2, [ip, #0]
 5361 4f70 0030CEE5 		strb	r3, [lr, #0]
 5362 4f74 0030DCE5 		ldrb	r3, [ip, #0]	@ zero_extendqisi2
 5363 4f78 0040DEE5 		ldrb	r4, [lr, #0]	@ zero_extendqisi2
 5364 4f7c FF0053E3 		cmp	r3, #255
 5365 4f80 443084E2 		add	r3, r4, #68
 5366 4f84 0030C5E5 		strb	r3, [r5, #0]
 5367 4f88 0030A003 		moveq	r3, #0
 5368 4f8c 0030CC05 		streqb	r3, [ip, #0]
 5369 4f90 0010C6E7 		strb	r1, [r6, r0]
 5370 4f94 0000DCE5 		ldrb	r0, [ip, #0]	@ zero_extendqisi2
 5371 4f98 0110D7E5 		ldrb	r1, [r7, #1]	@ zero_extendqisi2
 5372 4f9c 012080E2 		add	r2, r0, #1
 5373 4fa0 043081E0 		add	r3, r1, r4
 5374 4fa4 0030CEE5 		strb	r3, [lr, #0]
 5375 4fa8 0020CCE5 		strb	r2, [ip, #0]
 5376 4fac 0030DCE5 		ldrb	r3, [ip, #0]	@ zero_extendqisi2
 5377 4fb0 FF0053E3 		cmp	r3, #255
 5378 4fb4 0040DEE5 		ldrb	r4, [lr, #0]	@ zero_extendqisi2
 5379 4fb8 0020D5E5 		ldrb	r2, [r5, #0]	@ zero_extendqisi2
 5380 4fbc FF304302 		subeq	r3, r3, #255
 5381 4fc0 0030CC05 		streqb	r3, [ip, #0]
 5382 4fc4 042082E0 		add	r2, r2, r4
 5383 4fc8 0020C5E5 		strb	r2, [r5, #0]
 5384 4fcc 0010C6E7 		strb	r1, [r6, r0]
 5385 4fd0 0000DCE5 		ldrb	r0, [ip, #0]	@ zero_extendqisi2
 5386 4fd4 0210D7E5 		ldrb	r1, [r7, #2]	@ zero_extendqisi2
 5387 4fd8 012080E2 		add	r2, r0, #1
 5388 4fdc 0020CCE5 		strb	r2, [ip, #0]
 5389 4fe0 043081E0 		add	r3, r1, r4
 5390 4fe4 0030CEE5 		strb	r3, [lr, #0]
 5391 4fe8 0030DCE5 		ldrb	r3, [ip, #0]	@ zero_extendqisi2
 5392 4fec FF0053E3 		cmp	r3, #255
 5393 4ff0 0040DEE5 		ldrb	r4, [lr, #0]	@ zero_extendqisi2
 5394 4ff4 0020D5E5 		ldrb	r2, [r5, #0]	@ zero_extendqisi2
 5395 4ff8 FF304302 		subeq	r3, r3, #255
 5396 4ffc 0030CC05 		streqb	r3, [ip, #0]
 5397 5000 042082E0 		add	r2, r2, r4
 5398 5004 0020C5E5 		strb	r2, [r5, #0]
 5399 5008 0010C6E7 		strb	r1, [r6, r0]
 5400 500c 0010DCE5 		ldrb	r1, [ip, #0]	@ zero_extendqisi2
 5401 5010 0300D7E5 		ldrb	r0, [r7, #3]	@ zero_extendqisi2
 5402 5014 012081E2 		add	r2, r1, #1
 5403 5018 0020CCE5 		strb	r2, [ip, #0]
 5404 501c 043080E0 		add	r3, r0, r4
 5405 5020 0030CEE5 		strb	r3, [lr, #0]
 5406 5024 0030DCE5 		ldrb	r3, [ip, #0]	@ zero_extendqisi2
 5407 5028 0040DEE5 		ldrb	r4, [lr, #0]	@ zero_extendqisi2
 5408 502c FF0053E3 		cmp	r3, #255
 5409 5030 0020D5E5 		ldrb	r2, [r5, #0]	@ zero_extendqisi2
 5410 5034 FF304302 		subeq	r3, r3, #255
 5411 5038 0030CC05 		streqb	r3, [ip, #0]
 5412 503c 042082E0 		add	r2, r2, r4
 5413 5040 0020C5E5 		strb	r2, [r5, #0]
 5414 5044 68769FE5 		ldr	r7, .L658+60
 5415 5048 0100C6E7 		strb	r0, [r6, r1]
 5416 504c 0000DCE5 		ldrb	r0, [ip, #0]	@ zero_extendqisi2
 5417 5050 0010D7E5 		ldrb	r1, [r7, #0]	@ zero_extendqisi2
 5418 5054 012080E2 		add	r2, r0, #1
 5419 5058 043081E0 		add	r3, r1, r4
 5420 505c 0020CCE5 		strb	r2, [ip, #0]
 5421 5060 0030CEE5 		strb	r3, [lr, #0]
 5422 5064 0030DCE5 		ldrb	r3, [ip, #0]	@ zero_extendqisi2
 5423 5068 0040DEE5 		ldrb	r4, [lr, #0]	@ zero_extendqisi2
 5424 506c 0020D5E5 		ldrb	r2, [r5, #0]	@ zero_extendqisi2
 5425 5070 FF0053E3 		cmp	r3, #255
 5426 5074 042082E0 		add	r2, r2, r4
 5427 5078 FF304302 		subeq	r3, r3, #255
 5428 507c 0020C5E5 		strb	r2, [r5, #0]
 5429 5080 0030CC05 		streqb	r3, [ip, #0]
 5430 5084 0010C6E7 		strb	r1, [r6, r0]
 5431 5088 0000DCE5 		ldrb	r0, [ip, #0]	@ zero_extendqisi2
 5432 508c 0110D7E5 		ldrb	r1, [r7, #1]	@ zero_extendqisi2
 5433 5090 012080E2 		add	r2, r0, #1
 5434 5094 0020CCE5 		strb	r2, [ip, #0]
 5435 5098 043081E0 		add	r3, r1, r4
 5436 509c 0030CEE5 		strb	r3, [lr, #0]
 5437 50a0 0030DCE5 		ldrb	r3, [ip, #0]	@ zero_extendqisi2
 5438 50a4 FF0053E3 		cmp	r3, #255
 5439 50a8 0040DEE5 		ldrb	r4, [lr, #0]	@ zero_extendqisi2
 5440 50ac 0020D5E5 		ldrb	r2, [r5, #0]	@ zero_extendqisi2
 5441 50b0 FF304302 		subeq	r3, r3, #255
 5442 50b4 0030CC05 		streqb	r3, [ip, #0]
 5443 50b8 042082E0 		add	r2, r2, r4
 5444 50bc 0020C5E5 		strb	r2, [r5, #0]
 5445 50c0 0010C6E7 		strb	r1, [r6, r0]
 5446 50c4 0000DCE5 		ldrb	r0, [ip, #0]	@ zero_extendqisi2
 5447 50c8 0210D7E5 		ldrb	r1, [r7, #2]	@ zero_extendqisi2
 5448 50cc 012080E2 		add	r2, r0, #1
 5449 50d0 0020CCE5 		strb	r2, [ip, #0]
 5450 50d4 043081E0 		add	r3, r1, r4
 5451 50d8 0030CEE5 		strb	r3, [lr, #0]
 5452 50dc 0030DCE5 		ldrb	r3, [ip, #0]	@ zero_extendqisi2
 5453 50e0 0040DEE5 		ldrb	r4, [lr, #0]	@ zero_extendqisi2
 5454 50e4 0020D5E5 		ldrb	r2, [r5, #0]	@ zero_extendqisi2
 5455 50e8 FF0053E3 		cmp	r3, #255
 5456 50ec FF304302 		subeq	r3, r3, #255
 5457 50f0 0030CC05 		streqb	r3, [ip, #0]
 5458 50f4 042082E0 		add	r2, r2, r4
 5459 50f8 0020C5E5 		strb	r2, [r5, #0]
 5460 50fc 0010C6E7 		strb	r1, [r6, r0]
 5461 5100 0010DCE5 		ldrb	r1, [ip, #0]	@ zero_extendqisi2
 5462 5104 0300D7E5 		ldrb	r0, [r7, #3]	@ zero_extendqisi2
 5463 5108 012081E2 		add	r2, r1, #1
 5464 510c 0020CCE5 		strb	r2, [ip, #0]
 5465 5110 043080E0 		add	r3, r0, r4
 5466 5114 0030CEE5 		strb	r3, [lr, #0]
 5467 5118 0030DCE5 		ldrb	r3, [ip, #0]	@ zero_extendqisi2
 5468 511c 0040DEE5 		ldrb	r4, [lr, #0]	@ zero_extendqisi2
 5469 5120 0020D5E5 		ldrb	r2, [r5, #0]	@ zero_extendqisi2
 5470 5124 FF0053E3 		cmp	r3, #255
 5471 5128 FF304302 		subeq	r3, r3, #255
 5472 512c 042082E0 		add	r2, r2, r4
 5473 5130 0030CC05 		streqb	r3, [ip, #0]
 5474 5134 0020C5E5 		strb	r2, [r5, #0]
 5475 5138 0100C6E7 		strb	r0, [r6, r1]
 5476 513c 74359FE5 		ldr	r3, .L658+64
 5477 5140 0010DCE5 		ldrb	r1, [ip, #0]	@ zero_extendqisi2
 5478 5144 0000D3E5 		ldrb	r0, [r3, #0]	@ zero_extendqisi2
 5479 5148 012081E2 		add	r2, r1, #1
 5480 514c 043080E0 		add	r3, r0, r4
 5481 5150 0030CEE5 		strb	r3, [lr, #0]
 5482 5154 0020CCE5 		strb	r2, [ip, #0]
 5483 5158 00E0DEE5 		ldrb	lr, [lr, #0]	@ zero_extendqisi2
 5484 515c 0020DCE5 		ldrb	r2, [ip, #0]	@ zero_extendqisi2
 5485 5160 0030D5E5 		ldrb	r3, [r5, #0]	@ zero_extendqisi2
 5486 5164 FF0052E3 		cmp	r2, #255
 5487 5168 0E3083E0 		add	r3, r3, lr
 5488 516c 0030C5E5 		strb	r3, [r5, #0]
 5489 5170 0030A003 		moveq	r3, #0
 5490 5174 0030CC05 		streqb	r3, [ip, #0]
 5491 5178 0030DCE5 		ldrb	r3, [ip, #0]	@ zero_extendqisi2
 5492 517c 012083E2 		add	r2, r3, #1
 5493 5180 0020CCE5 		strb	r2, [ip, #0]
 5494 5184 0020DCE5 		ldrb	r2, [ip, #0]	@ zero_extendqisi2
 5495 5188 FF0052E3 		cmp	r2, #255
 5496 518c 0100C6E7 		strb	r0, [r6, r1]
 5497 5190 03E0C6E7 		strb	lr, [r6, r3]
 5498 5194 0030A003 		moveq	r3, #0
 5499 5198 0030CC05 		streqb	r3, [ip, #0]
 5500 519c 0010DCE5 		ldrb	r1, [ip, #0]	@ zero_extendqisi2
 5501 51a0 013081E2 		add	r3, r1, #1
 5502 51a4 0030CCE5 		strb	r3, [ip, #0]
 5503 51a8 0030DCE5 		ldrb	r3, [ip, #0]	@ zero_extendqisi2
 5504 51ac 0020D5E5 		ldrb	r2, [r5, #0]	@ zero_extendqisi2
 5505 51b0 FF0053E3 		cmp	r3, #255
 5506 51b4 FF304302 		subeq	r3, r3, #255
 5507 51b8 0120C6E7 		strb	r2, [r6, r1]
 5508 51bc 0030CC05 		streqb	r3, [ip, #0]
 5509              	.L173:
 5510 51c0 F4249FE5 		ldr	r2, .L658+68
 5511 51c4 0030D2E5 		ldrb	r3, [r2, #0]	@ zero_extendqisi2
 5512 51c8 010053E3 		cmp	r3, #1
 5513 51cc DA15001A 		bne	.L579
 5514 51d0 E8249FE5 		ldr	r2, .L658+72
 5515 51d4 0030D2E5 		ldrb	r3, [r2, #0]	@ zero_extendqisi2
 5516 51d8 013083E2 		add	r3, r3, #1
 5517 51dc 0030C2E5 		strb	r3, [r2, #0]
 5518 51e0 0030D2E5 		ldrb	r3, [r2, #0]	@ zero_extendqisi2
 5519 51e4 1D0053E3 		cmp	r3, #29
 5520 51e8 0030A083 		movhi	r3, #0
 5521 51ec 0030C285 		strhib	r3, [r2, #0]
 5522 51f0 0030D2E5 		ldrb	r3, [r2, #0]	@ zero_extendqisi2
 5523 51f4 000053E3 		cmp	r3, #0
 5524 51f8 D214001A 		bne	.L549
 5525 51fc FC349FE5 		ldr	r3, .L658+136
 5526 5200 B030D3E1 		ldrh	r3, [r3, #0]
 5527 5204 000053E3 		cmp	r3, #0
 5528 5208 DA15001A 		bne	.L579
 5529 520c B0349FE5 		ldr	r3, .L658+76
 5530 5210 0030D3E5 		ldrb	r3, [r3, #0]	@ zero_extendqisi2
 5531 5214 010053E3 		cmp	r3, #1
 5532 5218 DA15001A 		bne	.L579
 5533 521c E8149FE5 		ldr	r1, .L658+148
 5534 5220 F4049FE5 		ldr	r0, .L658+164
 5535 5224 0030D1E5 		ldrb	r3, [r1, #0]	@ zero_extendqisi2
 5536 5228 0020D0E5 		ldrb	r2, [r0, #0]	@ zero_extendqisi2
 5537 522c 030052E1 		cmp	r2, r3
 5538 5230 0030D125 		ldrcsb	r3, [r1, #0]	@ zero_extendqisi2
 5539 5234 0030D135 		ldrccb	r3, [r1, #0]	@ zero_extendqisi2
 5540 5238 02306320 		rsbcs	r3, r3, r2
 5541 523c FF306322 		rsbcs	r3, r3, #255
 5542 5240 03306230 		rsbcc	r3, r2, r3
 5543 5244 060053E3 		cmp	r3, #6
 5544 5248 D61500DA 		ble	.L563
 5545 524c 0020D0E5 		ldrb	r2, [r0, #0]	@ zero_extendqisi2
 5546 5250 013082E2 		add	r3, r2, #1
 5547 5254 0030C0E5 		strb	r3, [r0, #0]
 5548 5258 0030D0E5 		ldrb	r3, [r0, #0]	@ zero_extendqisi2
 5549 525c B4C49FE5 		ldr	ip, .L658+160
 5550 5260 FF0053E3 		cmp	r3, #255
 5551 5264 6630E0E3 		mvn	r3, #102
 5552 5268 0230CCE7 		strb	r3, [ip, r2]
 5553 526c 67308302 		addeq	r3, r3, #103
 5554 5270 0030C005 		streqb	r3, [r0, #0]
 5555 5274 A0149FE5 		ldr	r1, .L658+164
 5556 5278 0020D1E5 		ldrb	r2, [r1, #0]	@ zero_extendqisi2
 5557 527c 013082E2 		add	r3, r2, #1
 5558 5280 0030C1E5 		strb	r3, [r1, #0]
 5559 5284 0030D1E5 		ldrb	r3, [r1, #0]	@ zero_extendqisi2
 5560 5288 FF0053E3 		cmp	r3, #255
 5561 528c 0630A0E3 		mov	r3, #6
 5562 5290 0230CCE7 		strb	r3, [ip, r2]
 5563 5294 06304302 		subeq	r3, r3, #6
 5564 5298 0030C105 		streqb	r3, [r1, #0]
 5565 529c 0020D1E5 		ldrb	r2, [r1, #0]	@ zero_extendqisi2
 5566 52a0 013082E2 		add	r3, r2, #1
 5567 52a4 0030C1E5 		strb	r3, [r1, #0]
 5568 52a8 0030D1E5 		ldrb	r3, [r1, #0]	@ zero_extendqisi2
 5569 52ac 6CE49FE5 		ldr	lr, .L658+168
 5570 52b0 FF0053E3 		cmp	r3, #255
 5571 52b4 68449FE5 		ldr	r4, .L658+172
 5572 52b8 0D30A0E3 		mov	r3, #13
 5573 52bc 0030CEE5 		strb	r3, [lr, #0]
 5574 52c0 063083E2 		add	r3, r3, #6
 5575 52c4 0030C4E5 		strb	r3, [r4, #0]
 5576 52c8 0C3043E2 		sub	r3, r3, #12
 5577 52cc 0230CCE7 		strb	r3, [ip, r2]
 5578 52d0 07304302 		subeq	r3, r3, #7
 5579 52d4 0030C105 		streqb	r3, [r1, #0]
 5580 52d8 0020D1E5 		ldrb	r2, [r1, #0]	@ zero_extendqisi2
 5581 52dc 013082E2 		add	r3, r2, #1
 5582 52e0 0030C1E5 		strb	r3, [r1, #0]
 5583 52e4 0030D1E5 		ldrb	r3, [r1, #0]	@ zero_extendqisi2
 5584 52e8 FF0053E3 		cmp	r3, #255
 5585 52ec 0230A0E3 		mov	r3, #2
 5586 52f0 0230CCE7 		strb	r3, [ip, r2]
 5587 52f4 02304302 		subeq	r3, r3, #2
 5588 52f8 0030C105 		streqb	r3, [r1, #0]
 5589 52fc 0030D1E5 		ldrb	r3, [r1, #0]	@ zero_extendqisi2
 5590 5300 012083E2 		add	r2, r3, #1
 5591 5304 0020C1E5 		strb	r2, [r1, #0]
 5592 5308 0020D1E5 		ldrb	r2, [r1, #0]	@ zero_extendqisi2
 5593 530c 0F00A0E3 		mov	r0, #15
 5594 5310 FF0052E3 		cmp	r2, #255
 5595 5314 0300CCE7 		strb	r0, [ip, r3]
 5596 5318 0030A003 		moveq	r3, #0
 5597 531c 0030C105 		streqb	r3, [r1, #0]
 5598 5320 0030D1E5 		ldrb	r3, [r1, #0]	@ zero_extendqisi2
 5599 5324 012083E2 		add	r2, r3, #1
 5600 5328 0020C1E5 		strb	r2, [r1, #0]
 5601 532c 0020D1E5 		ldrb	r2, [r1, #0]	@ zero_extendqisi2
 5602 5330 2250A0E3 		mov	r5, #34
 5603 5334 FF0052E3 		cmp	r2, #255
 5604 5338 0350CCE7 		strb	r5, [ip, r3]
 5605 533c 0030A003 		moveq	r3, #0
 5606 5340 0000CEE5 		strb	r0, [lr, #0]
 5607 5344 0050C4E5 		strb	r5, [r4, #0]
 5608 5348 0030C105 		streqb	r3, [r1, #0]
 5609 534c DA1500EA 		b	.L579
 5610              	.L549:
 5611 5350 060053E3 		cmp	r3, #6
 5612 5354 DA15001A 		bne	.L579
 5613 5358 68339FE5 		ldr	r3, .L658+80
 5614 535c 000093E5 		ldr	r0, [r3, #0]	@ float
 5615 5360 FEFFFFEB 		bl	__extendsfdf2
 5616 5364 C32F8FE2 		adr	r2, .L658
 5617 5368 0C0092E8 		ldmia	r2, {r2-r3}
 5618 536c FEFFFFEB 		bl	__divdf3
 5619 5370 C22F8FE2 		adr	r2, .L658+8
 5620 5374 0C0092E8 		ldmia	r2, {r2-r3}
 5621 5378 FEFFFFEB 		bl	__muldf3
 5622 537c FEFFFFEB 		bl	__fixdfsi
 5623 5380 44339FE5 		ldr	r3, .L658+84
 5624 5384 B4034BE1 		strh	r0, [fp, #-52]	@ movhi 
 5625 5388 000093E5 		ldr	r0, [r3, #0]	@ float
 5626 538c FEFFFFEB 		bl	__extendsfdf2
 5627 5390 2E2E8FE2 		adr	r2, .L658
 5628 5394 0C0092E8 		ldmia	r2, {r2-r3}
 5629 5398 FEFFFFEB 		bl	__divdf3
 5630 539c B72F8FE2 		adr	r2, .L658+8
 5631 53a0 0C0092E8 		ldmia	r2, {r2-r3}
 5632 53a4 FEFFFFEB 		bl	__muldf3
 5633 53a8 FEFFFFEB 		bl	__fixdfsi
 5634 53ac 1C339FE5 		ldr	r3, .L658+88
 5635 53b0 B6034BE1 		strh	r0, [fp, #-54]	@ movhi 
 5636 53b4 000093E5 		ldr	r0, [r3, #0]	@ float
 5637 53b8 FEFFFFEB 		bl	__extendsfdf2
 5638 53bc AD2F8FE2 		adr	r2, .L658
 5639 53c0 0C0092E8 		ldmia	r2, {r2-r3}
 5640 53c4 FEFFFFEB 		bl	__divdf3
 5641 53c8 2B2E8FE2 		adr	r2, .L658+8
 5642 53cc 0C0092E8 		ldmia	r2, {r2-r3}
 5643 53d0 FEFFFFEB 		bl	__muldf3
 5644 53d4 FEFFFFEB 		bl	__fixdfsi
 5645 53d8 2C139FE5 		ldr	r1, .L658+148
 5646 53dc 38E39FE5 		ldr	lr, .L658+164
 5647 53e0 0030D1E5 		ldrb	r3, [r1, #0]	@ zero_extendqisi2
 5648 53e4 0020DEE5 		ldrb	r2, [lr, #0]	@ zero_extendqisi2
 5649 53e8 B8034BE1 		strh	r0, [fp, #-56]	@ movhi 
 5650 53ec 030052E1 		cmp	r2, r3
 5651 53f0 0030D125 		ldrcsb	r3, [r1, #0]	@ zero_extendqisi2
 5652 53f4 0030D135 		ldrccb	r3, [r1, #0]	@ zero_extendqisi2
 5653 53f8 02306320 		rsbcs	r3, r3, r2
 5654 53fc FF306322 		rsbcs	r3, r3, #255
 5655 5400 03306230 		rsbcc	r3, r2, r3
 5656 5404 0C0053E3 		cmp	r3, #12
 5657 5408 D61500DA 		ble	.L563
 5658 540c 0020DEE5 		ldrb	r2, [lr, #0]	@ zero_extendqisi2
 5659 5410 013082E2 		add	r3, r2, #1
 5660 5414 0030CEE5 		strb	r3, [lr, #0]
 5661 5418 0030DEE5 		ldrb	r3, [lr, #0]	@ zero_extendqisi2
 5662 541c F4629FE5 		ldr	r6, .L658+160
 5663 5420 FF0053E3 		cmp	r3, #255
 5664 5424 6630E0E3 		mvn	r3, #102
 5665 5428 0230C6E7 		strb	r3, [r6, r2]
 5666 542c 67308302 		addeq	r3, r3, #103
 5667 5430 E4C29FE5 		ldr	ip, .L658+164
 5668 5434 0030CE05 		streqb	r3, [lr, #0]
 5669 5438 0020DCE5 		ldrb	r2, [ip, #0]	@ zero_extendqisi2
 5670 543c 013082E2 		add	r3, r2, #1
 5671 5440 0030CCE5 		strb	r3, [ip, #0]
 5672 5444 0030DCE5 		ldrb	r3, [ip, #0]	@ zero_extendqisi2
 5673 5448 FF0053E3 		cmp	r3, #255
 5674 544c 0C30A0E3 		mov	r3, #12
 5675 5450 0230C6E7 		strb	r3, [r6, r2]
 5676 5454 0C304302 		subeq	r3, r3, #12
 5677 5458 0030CC05 		streqb	r3, [ip, #0]
 5678 545c 0020DCE5 		ldrb	r2, [ip, #0]	@ zero_extendqisi2
 5679 5460 013082E2 		add	r3, r2, #1
 5680 5464 0030CCE5 		strb	r3, [ip, #0]
 5681 5468 0030DCE5 		ldrb	r3, [ip, #0]	@ zero_extendqisi2
 5682 546c AC429FE5 		ldr	r4, .L658+168
 5683 5470 AC529FE5 		ldr	r5, .L658+172
 5684 5474 FF0053E3 		cmp	r3, #255
 5685 5478 1330A0E3 		mov	r3, #19
 5686 547c 0030C4E5 		strb	r3, [r4, #0]
 5687 5480 0C3083E2 		add	r3, r3, #12
 5688 5484 0030C5E5 		strb	r3, [r5, #0]
 5689 5488 183043E2 		sub	r3, r3, #24
 5690 548c 0230C6E7 		strb	r3, [r6, r2]
 5691 5490 07304302 		subeq	r3, r3, #7
 5692 5494 0030CC05 		streqb	r3, [ip, #0]
 5693 5498 0020DCE5 		ldrb	r2, [ip, #0]	@ zero_extendqisi2
 5694 549c 013082E2 		add	r3, r2, #1
 5695 54a0 0030CCE5 		strb	r3, [ip, #0]
 5696 54a4 0030DCE5 		ldrb	r3, [ip, #0]	@ zero_extendqisi2
 5697 54a8 FF0053E3 		cmp	r3, #255
 5698 54ac 1930A0E3 		mov	r3, #25
 5699 54b0 0030C4E5 		strb	r3, [r4, #0]
 5700 54b4 1F3083E2 		add	r3, r3, #31
 5701 54b8 0030C5E5 		strb	r3, [r5, #0]
 5702 54bc 323043E2 		sub	r3, r3, #50
 5703 54c0 0230C6E7 		strb	r3, [r6, r2]
 5704 54c4 06304302 		subeq	r3, r3, #6
 5705 54c8 0030CC05 		streqb	r3, [ip, #0]
 5706 54cc 34105BE5 		ldrb	r1, [fp, #-52]	@ zero_extendqisi2
 5707 54d0 0000DCE5 		ldrb	r0, [ip, #0]	@ zero_extendqisi2
 5708 54d4 193081E2 		add	r3, r1, #25
 5709 54d8 012080E2 		add	r2, r0, #1
 5710 54dc 0020CCE5 		strb	r2, [ip, #0]
 5711 54e0 0030C4E5 		strb	r3, [r4, #0]
 5712 54e4 0030DCE5 		ldrb	r3, [ip, #0]	@ zero_extendqisi2
 5713 54e8 00E0D4E5 		ldrb	lr, [r4, #0]	@ zero_extendqisi2
 5714 54ec FF0053E3 		cmp	r3, #255
 5715 54f0 38308EE2 		add	r3, lr, #56
 5716 54f4 0030C5E5 		strb	r3, [r5, #0]
 5717 54f8 0030A003 		moveq	r3, #0
 5718 54fc 0030CC05 		streqb	r3, [ip, #0]
 5719 5500 0010C6E7 		strb	r1, [r6, r0]
 5720 5504 0000DCE5 		ldrb	r0, [ip, #0]	@ zero_extendqisi2
 5721 5508 33105BE5 		ldrb	r1, [fp, #-51]	@ zero_extendqisi2
 5722 550c 012080E2 		add	r2, r0, #1
 5723 5510 0E3081E0 		add	r3, r1, lr
 5724 5514 0030C4E5 		strb	r3, [r4, #0]
 5725 5518 0020CCE5 		strb	r2, [ip, #0]
 5726 551c 0030DCE5 		ldrb	r3, [ip, #0]	@ zero_extendqisi2
 5727 5520 FF0053E3 		cmp	r3, #255
 5728 5524 00E0D4E5 		ldrb	lr, [r4, #0]	@ zero_extendqisi2
 5729 5528 0020D5E5 		ldrb	r2, [r5, #0]	@ zero_extendqisi2
 5730 552c FF304302 		subeq	r3, r3, #255
 5731 5530 0030CC05 		streqb	r3, [ip, #0]
 5732 5534 0E2082E0 		add	r2, r2, lr
 5733 5538 0020C5E5 		strb	r2, [r5, #0]
 5734 553c 0010C6E7 		strb	r1, [r6, r0]
 5735 5540 0000DCE5 		ldrb	r0, [ip, #0]	@ zero_extendqisi2
 5736 5544 36105BE5 		ldrb	r1, [fp, #-54]	@ zero_extendqisi2
 5737 5548 012080E2 		add	r2, r0, #1
 5738 554c 0020CCE5 		strb	r2, [ip, #0]
 5739 5550 0E3081E0 		add	r3, r1, lr
 5740 5554 0030C4E5 		strb	r3, [r4, #0]
 5741 5558 0030DCE5 		ldrb	r3, [ip, #0]	@ zero_extendqisi2
 5742 555c FF0053E3 		cmp	r3, #255
 5743 5560 00E0D4E5 		ldrb	lr, [r4, #0]	@ zero_extendqisi2
 5744 5564 0020D5E5 		ldrb	r2, [r5, #0]	@ zero_extendqisi2
 5745 5568 FF304302 		subeq	r3, r3, #255
 5746 556c 0030CC05 		streqb	r3, [ip, #0]
 5747 5570 0E2082E0 		add	r2, r2, lr
 5748 5574 0020C5E5 		strb	r2, [r5, #0]
 5749 5578 0010C6E7 		strb	r1, [r6, r0]
 5750 557c 0000DCE5 		ldrb	r0, [ip, #0]	@ zero_extendqisi2
 5751 5580 35105BE5 		ldrb	r1, [fp, #-53]	@ zero_extendqisi2
 5752 5584 012080E2 		add	r2, r0, #1
 5753 5588 0020CCE5 		strb	r2, [ip, #0]
 5754 558c 0E3081E0 		add	r3, r1, lr
 5755 5590 0030C4E5 		strb	r3, [r4, #0]
 5756 5594 0030DCE5 		ldrb	r3, [ip, #0]	@ zero_extendqisi2
 5757 5598 00E0D4E5 		ldrb	lr, [r4, #0]	@ zero_extendqisi2
 5758 559c FF0053E3 		cmp	r3, #255
 5759 55a0 0020D5E5 		ldrb	r2, [r5, #0]	@ zero_extendqisi2
 5760 55a4 FF304302 		subeq	r3, r3, #255
 5761 55a8 0030CC05 		streqb	r3, [ip, #0]
 5762 55ac 0E2082E0 		add	r2, r2, lr
 5763 55b0 0020C5E5 		strb	r2, [r5, #0]
 5764 55b4 0010C6E7 		strb	r1, [r6, r0]
 5765 55b8 0000DCE5 		ldrb	r0, [ip, #0]	@ zero_extendqisi2
 5766 55bc 38105BE5 		ldrb	r1, [fp, #-56]	@ zero_extendqisi2
 5767 55c0 012080E2 		add	r2, r0, #1
 5768 55c4 0E3081E0 		add	r3, r1, lr
 5769 55c8 0020CCE5 		strb	r2, [ip, #0]
 5770 55cc 0030C4E5 		strb	r3, [r4, #0]
 5771 55d0 0030DCE5 		ldrb	r3, [ip, #0]	@ zero_extendqisi2
 5772 55d4 00E0D4E5 		ldrb	lr, [r4, #0]	@ zero_extendqisi2
 5773 55d8 0020D5E5 		ldrb	r2, [r5, #0]	@ zero_extendqisi2
 5774 55dc FF0053E3 		cmp	r3, #255
 5775 55e0 0E2082E0 		add	r2, r2, lr
 5776 55e4 FF304302 		subeq	r3, r3, #255
 5777 55e8 0020C5E5 		strb	r2, [r5, #0]
 5778 55ec 0030CC05 		streqb	r3, [ip, #0]
 5779 55f0 0010C6E7 		strb	r1, [r6, r0]
 5780 55f4 0000DCE5 		ldrb	r0, [ip, #0]	@ zero_extendqisi2
 5781 55f8 37105BE5 		ldrb	r1, [fp, #-55]	@ zero_extendqisi2
 5782 55fc 012080E2 		add	r2, r0, #1
 5783 5600 0E3081E0 		add	r3, r1, lr
 5784 5604 0020CCE5 		strb	r2, [ip, #0]
 5785 5608 0030C4E5 		strb	r3, [r4, #0]
 5786 560c 0020DCE5 		ldrb	r2, [ip, #0]	@ zero_extendqisi2
 5787 5610 00E0D4E5 		ldrb	lr, [r4, #0]	@ zero_extendqisi2
 5788 5614 0030D5E5 		ldrb	r3, [r5, #0]	@ zero_extendqisi2
 5789 5618 FF0052E3 		cmp	r2, #255
 5790 561c 0E3083E0 		add	r3, r3, lr
 5791 5620 0030C5E5 		strb	r3, [r5, #0]
 5792 5624 0030A003 		moveq	r3, #0
 5793 5628 0030CC05 		streqb	r3, [ip, #0]
 5794 562c 0030DCE5 		ldrb	r3, [ip, #0]	@ zero_extendqisi2
 5795 5630 012083E2 		add	r2, r3, #1
 5796 5634 0020CCE5 		strb	r2, [ip, #0]
 5797 5638 0020DCE5 		ldrb	r2, [ip, #0]	@ zero_extendqisi2
 5798 563c FF0052E3 		cmp	r2, #255
 5799 5640 0010C6E7 		strb	r1, [r6, r0]
 5800 5644 03E0C6E7 		strb	lr, [r6, r3]
 5801 5648 0030A003 		moveq	r3, #0
 5802 564c 0030CC05 		streqb	r3, [ip, #0]
 5803 5650 0010DCE5 		ldrb	r1, [ip, #0]	@ zero_extendqisi2
 5804 5654 013081E2 		add	r3, r1, #1
 5805 5658 0030CCE5 		strb	r3, [ip, #0]
 5806 565c 0030DCE5 		ldrb	r3, [ip, #0]	@ zero_extendqisi2
 5807 5660 0020D5E5 		ldrb	r2, [r5, #0]	@ zero_extendqisi2
 5808 5664 FF0053E3 		cmp	r3, #255
 5809 5668 FF304302 		subeq	r3, r3, #255
 5810 566c 0120C6E7 		strb	r2, [r6, r1]
 5811 5670 0030CC05 		streqb	r3, [ip, #0]
 5812 5674 DA1500EA 		b	.L579
 5813              	.L659:
 5814              		.align	2
 5815              	.L658:
 5816 5678 FB210940 		.word	1074340347
 5817 567c 182D4454 		.word	1413754136
 5818 5680 00806640 		.word	1080459264
 5819 5684 00000000 		.word	0
 5820 5688 14000000 		.word	i300.9
 5821 568c 00000000 		.word	pprz_mode
 5822 5690 00000000 		.word	v_ctl_mode
 5823 5694 00000000 		.word	lateral_mode
 5824 5698 00000000 		.word	horizontal_mode
 5825 569c 00000000 		.word	rc_settings_mode
 5826 56a0 20000000 		.word	mcu1_status
 5827 56a4 00000000 		.word	ir_estim_mode
 5828 56a8 00000000 		.word	modem_nb_ovrn
 5829 56ac 16000000 		.word	i540.10
 5830 56b0 00000000 		.word	nav_utm_east0
 5831 56b4 00000000 		.word	nav_utm_north0
 5832 56b8 00000000 		.word	nav_utm_zone0
 5833 56bc 00000000 		.word	telemetry_mode_Ap
 5834 56c0 1A000000 		.word	i30.13
 5835 56c4 00000000 		.word	calib_status
 5836 56c8 00000000 		.word	estimator_phi
 5837 56cc 00000000 		.word	estimator_psi
 5838 56d0 00000000 		.word	estimator_theta
 5839 56d4 0E000000 		.word	_10Hz.1
 5840 56d8 10000000 		.word	_1Hz.3
 5841 56dc 00000000 		.word	stage_time_ds
 5842 56e0 00000000 		.word	block_time
 5843 56e4 00000000 		.word	stage_time
 5844 56e8 00000000 		.word	vsupply
 5845 56ec 1B000000 		.word	t.4
 5846 56f0 00000000 		.word	kill_throttle
 5847 56f4 00000000 		.word	dist2_to_home
 5848 56f8 00C8AF48 		.word	1219479552
 5849 56fc 0F000000 		.word	_4Hz.2
 5850 5700 00000000 		.word	estimator_flight_time
 5851 5704 00000000 		.word	estimator_hspeed_mod
 5852 5708 0000A040 		.word	1084227584
 5853 570c 00000000 		.word	tx_tail
 5854 5710 00000000 		.word	launch
