
/home/dragonfly/paparazzi_new/test/paparazzi3/var/pogo/ap/ap.elf:     file format elf32-littlearm

Sections:
Idx Name          Size      VMA       LMA       File off  Algn
  0 .text         0000ec2a  00004000  00004000  00000094  2**2
                  CONTENTS, ALLOC, LOAD, READONLY, CODE
  1 .ctors        00000000  00012c2a  00012c2a  0000f194  2**0
                  CONTENTS
  2 .dtors        00000000  00012c2a  00012c2a  0000f194  2**0
                  CONTENTS
  3 .data         000004d4  40000000  00012c2c  0000ecc0  2**2
                  CONTENTS, ALLOC, LOAD, DATA
  4 .bss          00000c38  400004d4  400004d4  0000f194  2**2
                  ALLOC
  5 .stack        00001000  40001200  40001200  0000f194  2**0
                  ALLOC
  6 .comment      0000034e  00000000  00000000  0000f194  2**0
                  CONTENTS, READONLY
  7 .debug_aranges 00000260  00000000  00000000  0000f4e2  2**0
                  CONTENTS, READONLY, DEBUGGING
  8 .debug_pubnames 000002af  00000000  00000000  0000f742  2**0
                  CONTENTS, READONLY, DEBUGGING
  9 .debug_info   00003246  00000000  00000000  0000f9f1  2**0
                  CONTENTS, READONLY, DEBUGGING
 10 .debug_abbrev 000011d8  00000000  00000000  00012c37  2**0
                  CONTENTS, READONLY, DEBUGGING
 11 .debug_line   00001487  00000000  00000000  00013e0f  2**0
                  CONTENTS, READONLY, DEBUGGING
 12 .debug_frame  000003b4  00000000  00000000  00015298  2**2
                  CONTENTS, READONLY, DEBUGGING
 13 .debug_str    00000c71  00000000  00000000  0001564c  2**0
                  CONTENTS, READONLY, DEBUGGING
 14 .debug_ranges 000000c8  00000000  00000000  000162bd  2**0
                  CONTENTS, READONLY, DEBUGGING
Disassembly of section .text:

00004000 <_boot>:
    4000:	ea000012 	b	4050 <_mainCRTStartup>
    4004:	e59ff014 	ldr	pc, [pc, #20]	; 4020 <_undf>
    4008:	e59ff014 	ldr	pc, [pc, #20]	; 4024 <_swi>
    400c:	e59ff014 	ldr	pc, [pc, #20]	; 4028 <_pabt>
    4010:	e59ff014 	ldr	pc, [pc, #20]	; 402c <_dabt>
    4014:	e1a00000 	nop			(mov r0,r0)
    4018:	e51ffff0 	ldr	pc, [pc, #-4080]	; 3030 <STACK_SIZE+0x2030>
    401c:	e59ff010 	ldr	pc, [pc, #16]	; 4034 <_fiq>

00004020 <_undf>:
    4020:	00004038 	andeq	r4, r0, r8, lsr r0

00004024 <_swi>:
    4024:	0000403c 	andeq	r4, r0, ip, lsr r0

00004028 <_pabt>:
    4028:	00004040 	andeq	r4, r0, r0, asr #32

0000402c <_dabt>:
    402c:	00004044 	andeq	r4, r0, r4, asr #32

00004030 <_irq>:
    4030:	00004048 	andeq	r4, r0, r8, asr #32

00004034 <_fiq>:
    4034:	0000404c 	andeq	r4, r0, ip, asr #32

00004038 <__undf>:
    4038:	eafffffe 	b	4038 <__undf>

0000403c <__swi>:
    403c:	eafffffe 	b	403c <__swi>

00004040 <__pabt>:
    4040:	eafffffe 	b	4040 <__pabt>

00004044 <__dabt>:
    4044:	eafffffe 	b	4044 <__dabt>

00004048 <__irq>:
    4048:	eafffffe 	b	4048 <__irq>

0000404c <__fiq>:
    404c:	eafffffe 	b	404c <__fiq>

00004050 <_mainCRTStartup>:
    4050:	e59f00c0 	ldr	r0, [pc, #192]	; 4118 <.text+0x118>
    4054:	e321f0db 	msr	CPSR_c, #219	; 0xdb
    4058:	e1a0d000 	mov	sp, r0
    405c:	e2400004 	sub	r0, r0, #4	; 0x4
    4060:	e321f0d7 	msr	CPSR_c, #215	; 0xd7
    4064:	e1a0d000 	mov	sp, r0
    4068:	e2400004 	sub	r0, r0, #4	; 0x4
    406c:	e321f0d1 	msr	CPSR_c, #209	; 0xd1
    4070:	e1a0d000 	mov	sp, r0
    4074:	e2400004 	sub	r0, r0, #4	; 0x4
    4078:	e321f0d2 	msr	CPSR_c, #210	; 0xd2
    407c:	e1a0d000 	mov	sp, r0
    4080:	e2400080 	sub	r0, r0, #128	; 0x80
    4084:	e321f0d3 	msr	CPSR_c, #211	; 0xd3
    4088:	e1a0d000 	mov	sp, r0
    408c:	e2400004 	sub	r0, r0, #4	; 0x4
    4090:	e321f0df 	msr	CPSR_c, #223	; 0xdf
    4094:	e1a0d000 	mov	sp, r0
    4098:	e59f107c 	ldr	r1, [pc, #124]	; 411c <.text+0x11c>
    409c:	e59f207c 	ldr	r2, [pc, #124]	; 4120 <.text+0x120>
    40a0:	e59f307c 	ldr	r3, [pc, #124]	; 4124 <.text+0x124>
    40a4:	e1520003 	cmp	r2, r3
    40a8:	34910004 	ldrcc	r0, [r1], #4
    40ac:	34820004 	strcc	r0, [r2], #4
    40b0:	3afffffb 	bcc	40a4 <_mainCRTStartup+0x54>
    40b4:	e3a00000 	mov	r0, #0	; 0x0
    40b8:	e59f1068 	ldr	r1, [pc, #104]	; 4128 <.text+0x128>
    40bc:	e59f2068 	ldr	r2, [pc, #104]	; 412c <.text+0x12c>
    40c0:	e1510002 	cmp	r1, r2
    40c4:	34810004 	strcc	r0, [r1], #4
    40c8:	3afffffc 	bcc	40c0 <_mainCRTStartup+0x70>
    40cc:	e59f005c 	ldr	r0, [pc, #92]	; 4130 <.text+0x130>
    40d0:	e59f105c 	ldr	r1, [pc, #92]	; 4134 <.text+0x134>

000040d4 <ctor_loop>:
    40d4:	e1500001 	cmp	r0, r1
    40d8:	0a000005 	beq	40f4 <ctor_end>
    40dc:	e4902004 	ldr	r2, [r0], #4
    40e0:	e92d0003 	stmdb	sp!, {r0, r1}
    40e4:	e1a0e00f 	mov	lr, pc
    40e8:	e1a0f002 	mov	pc, r2
    40ec:	e8bd0003 	ldmia	sp!, {r0, r1}
    40f0:	eafffff7 	b	40d4 <ctor_loop>

000040f4 <ctor_end>:
    40f4:	e3a00000 	mov	r0, #0	; 0x0
    40f8:	e1a01000 	mov	r1, r0
    40fc:	e1a02000 	mov	r2, r0
    4100:	e1a0b000 	mov	fp, r0
    4104:	e1a07000 	mov	r7, r0
    4108:	e59fa028 	ldr	sl, [pc, #40]	; 4138 <.text+0x138>
    410c:	e1a0e00f 	mov	lr, pc
    4110:	e12fff1a 	bx	sl

00004114 <_reset>:
    4114:	eafffffe 	b	4114 <_reset>
    4118:	40002200 	andmi	r2, r0, r0, lsl #4
    411c:	00012c2c 	andeq	r2, r1, ip, lsr #24
    4120:	40000000 	andmi	r0, r0, r0
    4124:	400004d4 	ldrmid	r0, [r0], -r4
    4128:	400004d4 	ldrmid	r0, [r0], -r4
    412c:	4000110c 	andmi	r1, r0, ip, lsl #2
    4130:	00012c2a 	andeq	r2, r1, sl, lsr #24
    4134:	00012c2a 	andeq	r2, r1, sl, lsr #24
    4138:	000092f0 	streqd	r9, [r0], -r0

0000413c <TIMER0_ISR>:
    413c:	e24ee004 	sub	lr, lr, #4	; 0x4
    4140:	e92d5fff 	stmdb	sp!, {r0, r1, r2, r3, r4, r5, r6, r7, r8, r9, sl, fp, ip, lr}
    4144:	e14f1000 	mrs	r1, SPSR
    4148:	e92d0002 	stmdb	sp!, {r1}
    414c:	e59f21c0 	ldr	r2, [pc, #448]	; 4314 <.text+0x314>
    4150:	e5923000 	ldr	r3, [r2]
    4154:	e3130042 	tst	r3, #66	; 0x42
    4158:	0a000067 	beq	42fc <TIMER0_ISR+0x1c0>
    415c:	e5923000 	ldr	r3, [r2]
    4160:	e3130040 	tst	r3, #64	; 0x40
    4164:	0a000025 	beq	4200 <TIMER0_ISR+0xc4>
    4168:	e59f01a8 	ldr	r0, [pc, #424]	; 4318 <.text+0x318>
    416c:	e59f31a8 	ldr	r3, [pc, #424]	; 431c <.text+0x31c>
    4170:	e5d0c000 	ldrb	ip, [r0]
    4174:	e5922034 	ldr	r2, [r2, #52]
    4178:	e5931000 	ldr	r1, [r3]
    417c:	e20ce0ff 	and	lr, ip, #255	; 0xff
    4180:	e35e0008 	cmp	lr, #8	; 0x8
    4184:	e5832000 	str	r2, [r3]
    4188:	e0611002 	rsb	r1, r1, r2
    418c:	1a000006 	bne	41ac <TIMER0_ISR+0x70>
    4190:	e2413b49 	sub	r3, r1, #74752	; 0x12400
    4194:	e59f2184 	ldr	r2, [pc, #388]	; 4320 <.text+0x320>
    4198:	e24330f9 	sub	r3, r3, #249	; 0xf9
    419c:	e1530002 	cmp	r3, r2
    41a0:	93a03000 	movls	r3, #0	; 0x0
    41a4:	9a000011 	bls	41f0 <TIMER0_ISR+0xb4>
    41a8:	ea000011 	b	41f4 <TIMER0_ISR+0xb8>
    41ac:	e2413dd2 	sub	r3, r1, #13440	; 0x3480
    41b0:	e59f216c 	ldr	r2, [pc, #364]	; 4324 <.text+0x324>
    41b4:	e243303d 	sub	r3, r3, #61	; 0x3d
    41b8:	e1530002 	cmp	r3, r2
    41bc:	83a03008 	movhi	r3, #8	; 0x8
    41c0:	8a00000a 	bhi	41f0 <TIMER0_ISR+0xb4>
    41c4:	e28c3001 	add	r3, ip, #1	; 0x1
    41c8:	e5c03000 	strb	r3, [r0]
    41cc:	e5d03000 	ldrb	r3, [r0]
    41d0:	e3530008 	cmp	r3, #8	; 0x8
    41d4:	e59f314c 	ldr	r3, [pc, #332]	; 4328 <.text+0x328>
    41d8:	e1a0208e 	mov	r2, lr, lsl #1
    41dc:	e18210b3 	strh	r1, [r2, r3]
    41e0:	059f3144 	ldreq	r3, [pc, #324]	; 432c <.text+0x32c>
    41e4:	03a02001 	moveq	r2, #1	; 0x1
    41e8:	05c32000 	streqb	r2, [r3]
    41ec:	ea000000 	b	41f4 <TIMER0_ISR+0xb8>
    41f0:	e5c03000 	strb	r3, [r0]
    41f4:	e59f3118 	ldr	r3, [pc, #280]	; 4314 <.text+0x314>
    41f8:	e3a02040 	mov	r2, #64	; 0x40
    41fc:	e5832000 	str	r2, [r3]
    4200:	e59f410c 	ldr	r4, [pc, #268]	; 4314 <.text+0x314>
    4204:	e5943000 	ldr	r3, [r4]
    4208:	e3130002 	tst	r3, #2	; 0x2
    420c:	0affffce 	beq	414c <TIMER0_ISR+0x10>
    4210:	e59f5118 	ldr	r5, [pc, #280]	; 4330 <.text+0x330>
    4214:	e5d5e000 	ldrb	lr, [r5]
    4218:	e20ec0ff 	and	ip, lr, #255	; 0xff
    421c:	e35c0000 	cmp	ip, #0	; 0x0
    4220:	1a000006 	bne	4240 <TIMER0_ISR+0x104>
    4224:	e59f0108 	ldr	r0, [pc, #264]	; 4334 <.text+0x334>
    4228:	e590201c 	ldr	r2, [r0, #28]
    422c:	e59f1104 	ldr	r1, [pc, #260]	; 4338 <.text+0x338>
    4230:	e59f3104 	ldr	r3, [pc, #260]	; 433c <.text+0x33c>
    4234:	e3822601 	orr	r2, r2, #1048576	; 0x100000
    4238:	e5831000 	str	r1, [r3]
    423c:	e580201c 	str	r2, [r0, #28]
    4240:	e35c0007 	cmp	ip, #7	; 0x7
    4244:	8a00000c 	bhi	427c <TIMER0_ISR+0x140>
    4248:	e59f00ec 	ldr	r0, [pc, #236]	; 433c <.text+0x33c>
    424c:	e59f30ec 	ldr	r3, [pc, #236]	; 4340 <.text+0x340>
    4250:	e1a0208c 	mov	r2, ip, lsl #1
    4254:	e19210b3 	ldrh	r1, [r2, r3]
    4258:	e594301c 	ldr	r3, [r4, #28]
    425c:	e5902000 	ldr	r2, [r0]
    4260:	e0833001 	add	r3, r3, r1
    4264:	e0612002 	rsb	r2, r1, r2
    4268:	e28e1001 	add	r1, lr, #1	; 0x1
    426c:	e584301c 	str	r3, [r4, #28]
    4270:	e5802000 	str	r2, [r0]
    4274:	e5c51000 	strb	r1, [r5]
    4278:	ea000018 	b	42e0 <TIMER0_ISR+0x1a4>
    427c:	e35c0008 	cmp	ip, #8	; 0x8
    4280:	e59f10b4 	ldr	r1, [pc, #180]	; 433c <.text+0x33c>
    4284:	1a000008 	bne	42ac <TIMER0_ISR+0x170>
    4288:	e59f20a4 	ldr	r2, [pc, #164]	; 4334 <.text+0x334>
    428c:	e5923014 	ldr	r3, [r2, #20]
    4290:	e3833202 	orr	r3, r3, #536870912	; 0x20000000
    4294:	e5823014 	str	r3, [r2, #20]
    4298:	e5912000 	ldr	r2, [r1]
    429c:	e594301c 	ldr	r3, [r4, #28]
    42a0:	e08330a2 	add	r3, r3, r2, lsr #1
    42a4:	e28e2001 	add	r2, lr, #1	; 0x1
    42a8:	ea00000a 	b	42d8 <TIMER0_ISR+0x19c>
    42ac:	e59f2080 	ldr	r2, [pc, #128]	; 4334 <.text+0x334>
    42b0:	e5923014 	ldr	r3, [r2, #20]
    42b4:	e3833601 	orr	r3, r3, #1048576	; 0x100000
    42b8:	e5823014 	str	r3, [r2, #20]
    42bc:	e592301c 	ldr	r3, [r2, #28]
    42c0:	e3833202 	orr	r3, r3, #536870912	; 0x20000000
    42c4:	e582301c 	str	r3, [r2, #28]
    42c8:	e5912000 	ldr	r2, [r1]
    42cc:	e594301c 	ldr	r3, [r4, #28]
    42d0:	e08330a2 	add	r3, r3, r2, lsr #1
    42d4:	e3a02000 	mov	r2, #0	; 0x0
    42d8:	e5c52000 	strb	r2, [r5]
    42dc:	e584301c 	str	r3, [r4, #28]
    42e0:	e59f302c 	ldr	r3, [pc, #44]	; 4314 <.text+0x314>
    42e4:	e593203c 	ldr	r2, [r3, #60]
    42e8:	e3c22002 	bic	r2, r2, #2	; 0x2
    42ec:	e583203c 	str	r2, [r3, #60]
    42f0:	e3a02002 	mov	r2, #2	; 0x2
    42f4:	e5832000 	str	r2, [r3]
    42f8:	eaffff93 	b	414c <TIMER0_ISR+0x10>
    42fc:	e59f3040 	ldr	r3, [pc, #64]	; 4344 <.text+0x344>
    4300:	e3a02000 	mov	r2, #0	; 0x0
    4304:	e5832030 	str	r2, [r3, #48]
    4308:	e8bd0002 	ldmia	sp!, {r1}
    430c:	e161f001 	msr	SPSR_c, r1
    4310:	e8fd9fff 	ldmia	sp!, {r0, r1, r2, r3, r4, r5, r6, r7, r8, r9, sl, fp, ip, pc}^
    4314:	e0004000 	and	r4, r0, r0
    4318:	40000000 	andmi	r0, r0, r0
    431c:	400004d8 	ldrmid	r0, [r0], -r8
    4320:	000249ee 	andeq	r4, r2, lr, ror #19
    4324:	0000464e 	andeq	r4, r0, lr, asr #12
    4328:	40000b72 	andmi	r0, r0, r2, ror fp
    432c:	40000b82 	andmi	r0, r0, r2, lsl #23
    4330:	40000b1e 	andmi	r0, r0, lr, lsl fp
    4334:	e0028000 	and	r8, r2, r0
    4338:	000493e0 	andeq	r9, r4, r0, ror #7
    433c:	40000008 	andmi	r0, r0, r8
    4340:	40000b20 	andmi	r0, r0, r0, lsr #22
    4344:	fffff000 	swinv	0x00fff000

00004348 <disableIRQ>:
    4348:	e10f0000 	mrs	r0, CPSR
    434c:	e3803080 	orr	r3, r0, #128	; 0x80
    4350:	e129f003 	msr	CPSR_fc, r3
    4354:	e12fff1e 	bx	lr

00004358 <restoreIRQ>:
    4358:	e1a02000 	mov	r2, r0
    435c:	e10f0000 	mrs	r0, CPSR
    4360:	e2022080 	and	r2, r2, #128	; 0x80
    4364:	e3c03080 	bic	r3, r0, #128	; 0x80
    4368:	e1833002 	orr	r3, r3, r2
    436c:	e129f003 	msr	CPSR_fc, r3
    4370:	e12fff1e 	bx	lr

00004374 <enableIRQ>:
    4374:	e10f0000 	mrs	r0, CPSR
    4378:	e3c03080 	bic	r3, r0, #128	; 0x80
    437c:	e129f003 	msr	CPSR_fc, r3
    4380:	e12fff1e 	bx	lr

00004384 <disableFIQ>:
    4384:	e10f0000 	mrs	r0, CPSR
    4388:	e3803040 	orr	r3, r0, #64	; 0x40
    438c:	e129f003 	msr	CPSR_fc, r3
    4390:	e12fff1e 	bx	lr

00004394 <restoreFIQ>:
    4394:	e1a02000 	mov	r2, r0
    4398:	e10f0000 	mrs	r0, CPSR
    439c:	e2022040 	and	r2, r2, #64	; 0x40
    43a0:	e3c03040 	bic	r3, r0, #64	; 0x40
    43a4:	e1833002 	orr	r3, r3, r2
    43a8:	e129f003 	msr	CPSR_fc, r3
    43ac:	e12fff1e 	bx	lr

000043b0 <enableFIQ>:
    43b0:	e10f0000 	mrs	r0, CPSR
    43b4:	e3c03040 	bic	r3, r0, #64	; 0x40
    43b8:	e129f003 	msr	CPSR_fc, r3
    43bc:	e12fff1e 	bx	lr

000043c0 <init_fbw>:
    43c0:	e59f218c 	ldr	r2, [pc, #396]	; 4554 <.text+0x554>
    43c4:	e1a0c00d 	mov	ip, sp
    43c8:	e3a03024 	mov	r3, #36	; 0x24
    43cc:	e92dd830 	stmdb	sp!, {r4, r5, fp, ip, lr, pc}
    43d0:	e5c23084 	strb	r3, [r2, #132]
    43d4:	e2433023 	sub	r3, r3, #35	; 0x23
    43d8:	e5c23080 	strb	r3, [r2, #128]
    43dc:	e2433057 	sub	r3, r3, #87	; 0x57
    43e0:	e5c2308c 	strb	r3, [r2, #140]
    43e4:	e28330ab 	add	r3, r3, #171	; 0xab
    43e8:	e5c2308c 	strb	r3, [r2, #140]
    43ec:	e24cb004 	sub	fp, ip, #4	; 0x4
    43f0:	e59f515c 	ldr	r5, [pc, #348]	; 4554 <.text+0x554>
    43f4:	e1d538b8 	ldrh	r3, [r5, #136]
    43f8:	e3130b01 	tst	r3, #1024	; 0x400
    43fc:	0afffffb 	beq	43f0 <init_fbw+0x30>
    4400:	e3a02003 	mov	r2, #3	; 0x3
    4404:	e3e03055 	mvn	r3, #85	; 0x55
    4408:	e5c52080 	strb	r2, [r5, #128]
    440c:	e5c5308c 	strb	r3, [r5, #140]
    4410:	e28330ab 	add	r3, r3, #171	; 0xab
    4414:	e5c5308c 	strb	r3, [r5, #140]
    4418:	e59f1138 	ldr	r1, [pc, #312]	; 4558 <.text+0x558>
    441c:	e3a04000 	mov	r4, #0	; 0x0
    4420:	e3a0c002 	mov	ip, #2	; 0x2
    4424:	e28330ab 	add	r3, r3, #171	; 0xab
    4428:	e5c52004 	strb	r2, [r5, #4]
    442c:	e3a0e001 	mov	lr, #1	; 0x1
    4430:	e5c5c000 	strb	ip, [r5]
    4434:	e5c52004 	strb	r2, [r5, #4]
    4438:	e5c5c000 	strb	ip, [r5]
    443c:	e7c54003 	strb	r4, [r5, r3]
    4440:	e3e03000 	mvn	r3, #0	; 0x0
    4444:	e5c5e040 	strb	lr, [r5, #64]
    4448:	e59f010c 	ldr	r0, [pc, #268]	; 455c <.text+0x55c>
    444c:	e5813014 	str	r3, [r1, #20]
    4450:	e59f3108 	ldr	r3, [pc, #264]	; 4560 <.text+0x560>
    4454:	e581400c 	str	r4, [r1, #12]
    4458:	e5813034 	str	r3, [r1, #52]
    445c:	e580c004 	str	ip, [r0, #4]
    4460:	e580400c 	str	r4, [r0, #12]
    4464:	e5804014 	str	r4, [r0, #20]
    4468:	e5804028 	str	r4, [r0, #40]
    446c:	e580403c 	str	r4, [r0, #60]
    4470:	e580e004 	str	lr, [r0, #4]
    4474:	e591300c 	ldr	r3, [r1, #12]
    4478:	e3c33010 	bic	r3, r3, #16	; 0x10
    447c:	e581300c 	str	r3, [r1, #12]
    4480:	e3a03010 	mov	r3, #16	; 0x10
    4484:	e5813010 	str	r3, [r1, #16]
    4488:	e2833014 	add	r3, r3, #20	; 0x14
    448c:	e5813204 	str	r3, [r1, #516]
    4490:	e59f30cc 	ldr	r3, [pc, #204]	; 4564 <.text+0x564>
    4494:	e59f20cc 	ldr	r2, [pc, #204]	; 4568 <.text+0x568>
    4498:	e5813104 	str	r3, [r1, #260]
    449c:	e5923018 	ldr	r3, [r2, #24]
    44a0:	e3833201 	orr	r3, r3, #268435456	; 0x10000000
    44a4:	e5823018 	str	r3, [r2, #24]
    44a8:	e3a03201 	mov	r3, #268435456	; 0x10000000
    44ac:	e5823014 	str	r3, [r2, #20]
    44b0:	e5923018 	ldr	r3, [r2, #24]
    44b4:	e3833702 	orr	r3, r3, #524288	; 0x80000
    44b8:	e5823018 	str	r3, [r2, #24]
    44bc:	e3a03702 	mov	r3, #524288	; 0x80000
    44c0:	e5823014 	str	r3, [r2, #20]
    44c4:	e59f30a0 	ldr	r3, [pc, #160]	; 456c <.text+0x56c>
    44c8:	e1c340b0 	strh	r4, [r3]
    44cc:	e59f309c 	ldr	r3, [pc, #156]	; 4570 <.text+0x570>
    44d0:	e5834000 	str	r4, [r3]
    44d4:	eb0013ee 	bl	9494 <uart0_init_tx>
    44d8:	eb00178a 	bl	a308 <adc_init>
    44dc:	e3a0000e 	mov	r0, #14	; 0xe
    44e0:	e59f108c 	ldr	r1, [pc, #140]	; 4574 <.text+0x574>
    44e4:	e3a02020 	mov	r2, #32	; 0x20
    44e8:	eb001780 	bl	a2f0 <adc_buf_channel>
    44ec:	eb0013b6 	bl	93cc <actuators_init>
    44f0:	e59f2080 	ldr	r2, [pc, #128]	; 4578 <.text+0x578>
    44f4:	e1a01084 	mov	r1, r4, lsl #1
    44f8:	e59f307c 	ldr	r3, [pc, #124]	; 457c <.text+0x57c>
    44fc:	e2844001 	add	r4, r4, #1	; 0x1
    4500:	e19120b2 	ldrh	r2, [r1, r2]
    4504:	e3540003 	cmp	r4, #3	; 0x3
    4508:	e18120b3 	strh	r2, [r1, r3]
    450c:	dafffff7 	ble	44f0 <init_fbw+0x130>
    4510:	e59f2068 	ldr	r2, [pc, #104]	; 4580 <.text+0x580>
    4514:	e5923000 	ldr	r3, [r2]
    4518:	e3833a02 	orr	r3, r3, #8192	; 0x2000
    451c:	e5823000 	str	r3, [r2]
    4520:	e59f005c 	ldr	r0, [pc, #92]	; 4584 <.text+0x584>
    4524:	e59f3030 	ldr	r3, [pc, #48]	; 455c <.text+0x55c>
    4528:	e3a02d06 	mov	r2, #384	; 0x180
    452c:	e5832028 	str	r2, [r3, #40]
    4530:	e590c000 	ldr	ip, [r0]
    4534:	e59f304c 	ldr	r3, [pc, #76]	; 4588 <.text+0x588>
    4538:	e3a01000 	mov	r1, #0	; 0x0
    453c:	e5c31000 	strb	r1, [r3]
    4540:	e5cc1011 	strb	r1, [ip, #17]
    4544:	e5903000 	ldr	r3, [r0]
    4548:	e5c31012 	strb	r1, [r3, #18]
    454c:	e89d6830 	ldmia	sp, {r4, r5, fp, sp, lr}
    4550:	e12fff1e 	bx	lr
    4554:	e01fc000 	ands	ip, pc, r0
    4558:	fffff000 	swinv	0x00fff000
    455c:	e0004000 	and	r4, r0, r0
    4560:	00004114 	andeq	r4, r0, r4, lsl r1
    4564:	0000413c 	andeq	r4, r0, ip, lsr r1
    4568:	e0028000 	and	r8, r2, r0
    456c:	40000890 	mulmi	r0, r0, r8
    4570:	40000894 	mulmi	r0, r4, r8
    4574:	40000898 	mulmi	r0, r8, r8
    4578:	0001294a 	andeq	r2, r1, sl, asr #18
    457c:	40000b16 	andmi	r0, r0, r6, lsl fp
    4580:	e002c000 	and	ip, r2, r0
    4584:	40000010 	andmi	r0, r0, r0, lsl r0
    4588:	40000b82 	andmi	r0, r0, r2, lsl #23

0000458c <event_task_fbw>:
    458c:	e1a0c00d 	mov	ip, sp
    4590:	e92ddff0 	stmdb	sp!, {r4, r5, r6, r7, r8, r9, sl, fp, ip, lr, pc}
    4594:	e24cb004 	sub	fp, ip, #4	; 0x4
    4598:	e59fc560 	ldr	ip, [pc, #1376]	; 4b00 <.text+0xb00>
    459c:	e5dc3000 	ldrb	r3, [ip]
    45a0:	e3530000 	cmp	r3, #0	; 0x0
    45a4:	0a000107 	beq	49c8 <event_task_fbw+0x43c>
    45a8:	e59f1554 	ldr	r1, [pc, #1364]	; 4b04 <.text+0xb04>
    45ac:	e59f9554 	ldr	r9, [pc, #1364]	; 4b08 <.text+0xb08>
    45b0:	e5d13000 	ldrb	r3, [r1]
    45b4:	e1d940b0 	ldrh	r4, [r9]
    45b8:	e2833001 	add	r3, r3, #1	; 0x1
    45bc:	e5c13000 	strb	r3, [r1]
    45c0:	e2444c59 	sub	r4, r4, #22784	; 0x5900
    45c4:	e59f3540 	ldr	r3, [pc, #1344]	; 4b0c <.text+0xb0c>
    45c8:	e3a02000 	mov	r2, #0	; 0x0
    45cc:	e244405b 	sub	r4, r4, #91	; 0x5b
    45d0:	e5c32000 	strb	r2, [r3]
    45d4:	e1a04804 	mov	r4, r4, lsl #16
    45d8:	e59f3530 	ldr	r3, [pc, #1328]	; 4b10 <.text+0xb10>
    45dc:	e1a04844 	mov	r4, r4, asr #16
    45e0:	e5c32000 	strb	r2, [r3]
    45e4:	e5cc2000 	strb	r2, [ip]
    45e8:	e1a00004 	mov	r0, r4
    45ec:	eb003775 	bl	123c8 <__floatsisf>
    45f0:	e3540000 	cmp	r4, #0	; 0x0
    45f4:	a59f1518 	ldrge	r1, [pc, #1304]	; 4b14 <.text+0xb14>
    45f8:	b59f1518 	ldrlt	r1, [pc, #1304]	; 4b18 <.text+0xb18>
    45fc:	eb003784 	bl	12414 <__mulsf3>
    4600:	eb003876 	bl	127e0 <__fixsfsi>
    4604:	e59fa510 	ldr	sl, [pc, #1296]	; 4b1c <.text+0xb1c>
    4608:	e1ca00b0 	strh	r0, [sl]
    460c:	e1da30f0 	ldrsh	r3, [sl]
    4610:	e3530d96 	cmp	r3, #9600	; 0x2580
    4614:	c3a01d96 	movgt	r1, #9600	; 0x2580
    4618:	c1ca10b0 	strgth	r1, [sl]
    461c:	ca000003 	bgt	4630 <event_task_fbw+0xa4>
    4620:	e3730d96 	cmn	r3, #9600	; 0x2580
    4624:	b59f24f4 	ldrlt	r2, [pc, #1268]	; 4b20 <.text+0xb20>
    4628:	b59f34ec 	ldrlt	r3, [pc, #1260]	; 4b1c <.text+0xb1c>
    462c:	b1c320b0 	strlth	r2, [r3]
    4630:	e1d940b2 	ldrh	r4, [r9, #2]
    4634:	e2444b16 	sub	r4, r4, #22528	; 0x5800
    4638:	e24440f2 	sub	r4, r4, #242	; 0xf2
    463c:	e1a04804 	mov	r4, r4, lsl #16
    4640:	e1a04844 	mov	r4, r4, asr #16
    4644:	e1a00004 	mov	r0, r4
    4648:	eb00375e 	bl	123c8 <__floatsisf>
    464c:	e3540000 	cmp	r4, #0	; 0x0
    4650:	a59f14cc 	ldrge	r1, [pc, #1228]	; 4b24 <.text+0xb24>
    4654:	b59f14cc 	ldrlt	r1, [pc, #1228]	; 4b28 <.text+0xb28>
    4658:	eb00376d 	bl	12414 <__mulsf3>
    465c:	eb00385f 	bl	127e0 <__fixsfsi>
    4660:	e59f34b4 	ldr	r3, [pc, #1204]	; 4b1c <.text+0xb1c>
    4664:	e1c300b2 	strh	r0, [r3, #2]
    4668:	e1da30f2 	ldrsh	r3, [sl, #2]
    466c:	e3530d96 	cmp	r3, #9600	; 0x2580
    4670:	c3a02d96 	movgt	r2, #9600	; 0x2580
    4674:	c1ca20b2 	strgth	r2, [sl, #2]
    4678:	ca000003 	bgt	468c <event_task_fbw+0x100>
    467c:	e3730d96 	cmn	r3, #9600	; 0x2580
    4680:	b59f2498 	ldrlt	r2, [pc, #1176]	; 4b20 <.text+0xb20>
    4684:	b59f3490 	ldrlt	r3, [pc, #1168]	; 4b1c <.text+0xb1c>
    4688:	b1c320b2 	strlth	r2, [r3, #2]
    468c:	e1d900b4 	ldrh	r0, [r9, #4]
    4690:	e2400c71 	sub	r0, r0, #28928	; 0x7100
    4694:	e24000ac 	sub	r0, r0, #172	; 0xac
    4698:	e1a00800 	mov	r0, r0, lsl #16
    469c:	e1a00840 	mov	r0, r0, asr #16
    46a0:	eb003748 	bl	123c8 <__floatsisf>
    46a4:	e59f1480 	ldr	r1, [pc, #1152]	; 4b2c <.text+0xb2c>
    46a8:	eb003759 	bl	12414 <__mulsf3>
    46ac:	eb00384b 	bl	127e0 <__fixsfsi>
    46b0:	e1ca00b4 	strh	r0, [sl, #4]
    46b4:	e1da30f4 	ldrsh	r3, [sl, #4]
    46b8:	e3530d96 	cmp	r3, #9600	; 0x2580
    46bc:	c3a03d96 	movgt	r3, #9600	; 0x2580
    46c0:	c1ca30b4 	strgth	r3, [sl, #4]
    46c4:	ca000003 	bgt	46d8 <event_task_fbw+0x14c>
    46c8:	e3530000 	cmp	r3, #0	; 0x0
    46cc:	b59f3448 	ldrlt	r3, [pc, #1096]	; 4b1c <.text+0xb1c>
    46d0:	b3a01000 	movlt	r1, #0	; 0x0
    46d4:	b1c310b4 	strlth	r1, [r3, #4]
    46d8:	e1d940b6 	ldrh	r4, [r9, #6]
    46dc:	e2444c57 	sub	r4, r4, #22272	; 0x5700
    46e0:	e24440c6 	sub	r4, r4, #198	; 0xc6
    46e4:	e1a04804 	mov	r4, r4, lsl #16
    46e8:	e1a04844 	mov	r4, r4, asr #16
    46ec:	e1a00004 	mov	r0, r4
    46f0:	eb003734 	bl	123c8 <__floatsisf>
    46f4:	e3540000 	cmp	r4, #0	; 0x0
    46f8:	a59f1430 	ldrge	r1, [pc, #1072]	; 4b30 <.text+0xb30>
    46fc:	b59f1430 	ldrlt	r1, [pc, #1072]	; 4b34 <.text+0xb34>
    4700:	eb003743 	bl	12414 <__mulsf3>
    4704:	eb003835 	bl	127e0 <__fixsfsi>
    4708:	e59f340c 	ldr	r3, [pc, #1036]	; 4b1c <.text+0xb1c>
    470c:	e1c300b6 	strh	r0, [r3, #6]
    4710:	e1da30f6 	ldrsh	r3, [sl, #6]
    4714:	e3530d96 	cmp	r3, #9600	; 0x2580
    4718:	c3a02d96 	movgt	r2, #9600	; 0x2580
    471c:	c1ca20b6 	strgth	r2, [sl, #6]
    4720:	ca000003 	bgt	4734 <event_task_fbw+0x1a8>
    4724:	e3730d96 	cmn	r3, #9600	; 0x2580
    4728:	b59f23f0 	ldrlt	r2, [pc, #1008]	; 4b20 <.text+0xb20>
    472c:	b59f33e8 	ldrlt	r3, [pc, #1000]	; 4b1c <.text+0xb1c>
    4730:	b1c320b6 	strlth	r2, [r3, #6]
    4734:	e59f83fc 	ldr	r8, [pc, #1020]	; 4b38 <.text+0xb38>
    4738:	e5d83000 	ldrb	r3, [r8]
    473c:	e2833001 	add	r3, r3, #1	; 0x1
    4740:	e59f73f4 	ldr	r7, [pc, #1012]	; 4b3c <.text+0xb3c>
    4744:	e5c83000 	strb	r3, [r8]
    4748:	e5975010 	ldr	r5, [r7, #16]
    474c:	e5973014 	ldr	r3, [r7, #20]
    4750:	e5972018 	ldr	r2, [r7, #24]
    4754:	e597101c 	ldr	r1, [r7, #28]
    4758:	e1d960be 	ldrh	r6, [r9, #14]
    475c:	e1d900b8 	ldrh	r0, [r9, #8]
    4760:	e1d9c0ba 	ldrh	ip, [r9, #10]
    4764:	e1d9e0bc 	ldrh	lr, [r9, #12]
    4768:	e5d84000 	ldrb	r4, [r8]
    476c:	e0855000 	add	r5, r5, r0
    4770:	e083300c 	add	r3, r3, ip
    4774:	e082200e 	add	r2, r2, lr
    4778:	e0811006 	add	r1, r1, r6
    477c:	e3540008 	cmp	r4, #8	; 0x8
    4780:	e5873014 	str	r3, [r7, #20]
    4784:	e5872018 	str	r2, [r7, #24]
    4788:	e587101c 	str	r1, [r7, #28]
    478c:	e5875010 	str	r5, [r7, #16]
    4790:	1a000073 	bne	4964 <event_task_fbw+0x3d8>
    4794:	e1a04fc5 	mov	r4, r5, asr #31
    4798:	e0854ea4 	add	r4, r5, r4, lsr #29
    479c:	e1a041c4 	mov	r4, r4, asr #3
    47a0:	e2444c59 	sub	r4, r4, #22784	; 0x5900
    47a4:	e244405b 	sub	r4, r4, #91	; 0x5b
    47a8:	e1a04804 	mov	r4, r4, lsl #16
    47ac:	e1a04844 	mov	r4, r4, asr #16
    47b0:	e3a03000 	mov	r3, #0	; 0x0
    47b4:	e1a00004 	mov	r0, r4
    47b8:	e5c83000 	strb	r3, [r8]
    47bc:	eb003701 	bl	123c8 <__floatsisf>
    47c0:	e3540000 	cmp	r4, #0	; 0x0
    47c4:	a59f1374 	ldrge	r1, [pc, #884]	; 4b40 <.text+0xb40>
    47c8:	b59f1374 	ldrlt	r1, [pc, #884]	; 4b44 <.text+0xb44>
    47cc:	eb003710 	bl	12414 <__mulsf3>
    47d0:	eb003802 	bl	127e0 <__fixsfsi>
    47d4:	e59f3340 	ldr	r3, [pc, #832]	; 4b1c <.text+0xb1c>
    47d8:	e1c300b8 	strh	r0, [r3, #8]
    47dc:	e1da20f8 	ldrsh	r2, [sl, #8]
    47e0:	e3a03000 	mov	r3, #0	; 0x0
    47e4:	e3520d96 	cmp	r2, #9600	; 0x2580
    47e8:	e5873010 	str	r3, [r7, #16]
    47ec:	c3a03d96 	movgt	r3, #9600	; 0x2580
    47f0:	c1ca30b8 	strgth	r3, [sl, #8]
    47f4:	ca000003 	bgt	4808 <event_task_fbw+0x27c>
    47f8:	e3720d96 	cmn	r2, #9600	; 0x2580
    47fc:	b59f231c 	ldrlt	r2, [pc, #796]	; 4b20 <.text+0xb20>
    4800:	b59f3314 	ldrlt	r3, [pc, #788]	; 4b1c <.text+0xb1c>
    4804:	b1c320b8 	strlth	r2, [r3, #8]
    4808:	e5974014 	ldr	r4, [r7, #20]
    480c:	e1a03fc4 	mov	r3, r4, asr #31
    4810:	e0844ea3 	add	r4, r4, r3, lsr #29
    4814:	e1a041c4 	mov	r4, r4, asr #3
    4818:	e2444c59 	sub	r4, r4, #22784	; 0x5900
    481c:	e2444010 	sub	r4, r4, #16	; 0x10
    4820:	e1a04804 	mov	r4, r4, lsl #16
    4824:	e1a04844 	mov	r4, r4, asr #16
    4828:	e1a00004 	mov	r0, r4
    482c:	eb0036e5 	bl	123c8 <__floatsisf>
    4830:	e3540000 	cmp	r4, #0	; 0x0
    4834:	a59f130c 	ldrge	r1, [pc, #780]	; 4b48 <.text+0xb48>
    4838:	b59f130c 	ldrlt	r1, [pc, #780]	; 4b4c <.text+0xb4c>
    483c:	eb0036f4 	bl	12414 <__mulsf3>
    4840:	eb0037e6 	bl	127e0 <__fixsfsi>
    4844:	e59f32d0 	ldr	r3, [pc, #720]	; 4b1c <.text+0xb1c>
    4848:	e1c300ba 	strh	r0, [r3, #10]
    484c:	e1da20fa 	ldrsh	r2, [sl, #10]
    4850:	e3520d96 	cmp	r2, #9600	; 0x2580
    4854:	e3a03000 	mov	r3, #0	; 0x0
    4858:	c3a01d96 	movgt	r1, #9600	; 0x2580
    485c:	e5873014 	str	r3, [r7, #20]
    4860:	c1ca10ba 	strgth	r1, [sl, #10]
    4864:	ca000003 	bgt	4878 <event_task_fbw+0x2ec>
    4868:	e3720d96 	cmn	r2, #9600	; 0x2580
    486c:	b59f22ac 	ldrlt	r2, [pc, #684]	; 4b20 <.text+0xb20>
    4870:	b59f32a4 	ldrlt	r3, [pc, #676]	; 4b1c <.text+0xb1c>
    4874:	b1c320ba 	strlth	r2, [r3, #10]
    4878:	e5974018 	ldr	r4, [r7, #24]
    487c:	e1a03fc4 	mov	r3, r4, asr #31
    4880:	e0844ea3 	add	r4, r4, r3, lsr #29
    4884:	e1a041c4 	mov	r4, r4, asr #3
    4888:	e2444b16 	sub	r4, r4, #22528	; 0x5800
    488c:	e24440f2 	sub	r4, r4, #242	; 0xf2
    4890:	e1a04804 	mov	r4, r4, lsl #16
    4894:	e1a04844 	mov	r4, r4, asr #16
    4898:	e1a00004 	mov	r0, r4
    489c:	eb0036c9 	bl	123c8 <__floatsisf>
    48a0:	e3540000 	cmp	r4, #0	; 0x0
    48a4:	a59f12a4 	ldrge	r1, [pc, #676]	; 4b50 <.text+0xb50>
    48a8:	b59f12a4 	ldrlt	r1, [pc, #676]	; 4b54 <.text+0xb54>
    48ac:	eb0036d8 	bl	12414 <__mulsf3>
    48b0:	eb0037ca 	bl	127e0 <__fixsfsi>
    48b4:	e59f3260 	ldr	r3, [pc, #608]	; 4b1c <.text+0xb1c>
    48b8:	e1c300bc 	strh	r0, [r3, #12]
    48bc:	e1da20fc 	ldrsh	r2, [sl, #12]
    48c0:	e3520d96 	cmp	r2, #9600	; 0x2580
    48c4:	e3a03000 	mov	r3, #0	; 0x0
    48c8:	c3a02d96 	movgt	r2, #9600	; 0x2580
    48cc:	e5873018 	str	r3, [r7, #24]
    48d0:	c1ca20bc 	strgth	r2, [sl, #12]
    48d4:	ca000003 	bgt	48e8 <event_task_fbw+0x35c>
    48d8:	e3720d96 	cmn	r2, #9600	; 0x2580
    48dc:	b59f223c 	ldrlt	r2, [pc, #572]	; 4b20 <.text+0xb20>
    48e0:	b59f3234 	ldrlt	r3, [pc, #564]	; 4b1c <.text+0xb1c>
    48e4:	b1c320bc 	strlth	r2, [r3, #12]
    48e8:	e597401c 	ldr	r4, [r7, #28]
    48ec:	e1a03fc4 	mov	r3, r4, asr #31
    48f0:	e0844ea3 	add	r4, r4, r3, lsr #29
    48f4:	e1a041c4 	mov	r4, r4, asr #3
    48f8:	e2444c59 	sub	r4, r4, #22784	; 0x5900
    48fc:	e244406a 	sub	r4, r4, #106	; 0x6a
    4900:	e1a04804 	mov	r4, r4, lsl #16
    4904:	e1a04844 	mov	r4, r4, asr #16
    4908:	e1a00004 	mov	r0, r4
    490c:	eb0036ad 	bl	123c8 <__floatsisf>
    4910:	e3540000 	cmp	r4, #0	; 0x0
    4914:	a59f123c 	ldrge	r1, [pc, #572]	; 4b58 <.text+0xb58>
    4918:	b59f123c 	ldrlt	r1, [pc, #572]	; 4b5c <.text+0xb5c>
    491c:	eb0036bc 	bl	12414 <__mulsf3>
    4920:	eb0037ae 	bl	127e0 <__fixsfsi>
    4924:	e59f31f0 	ldr	r3, [pc, #496]	; 4b1c <.text+0xb1c>
    4928:	e1c300be 	strh	r0, [r3, #14]
    492c:	e1da20fe 	ldrsh	r2, [sl, #14]
    4930:	e3a03000 	mov	r3, #0	; 0x0
    4934:	e3520d96 	cmp	r2, #9600	; 0x2580
    4938:	e587301c 	str	r3, [r7, #28]
    493c:	c3a03d96 	movgt	r3, #9600	; 0x2580
    4940:	c1ca30be 	strgth	r3, [sl, #14]
    4944:	ca000003 	bgt	4958 <event_task_fbw+0x3cc>
    4948:	e3720d96 	cmn	r2, #9600	; 0x2580
    494c:	b59f21cc 	ldrlt	r2, [pc, #460]	; 4b20 <.text+0xb20>
    4950:	b59f31c4 	ldrlt	r3, [pc, #452]	; 4b1c <.text+0xb1c>
    4954:	b1c320be 	strlth	r2, [r3, #14]
    4958:	e59f3200 	ldr	r3, [pc, #512]	; 4b60 <.text+0xb60>
    495c:	e3a02001 	mov	r2, #1	; 0x1
    4960:	e5c32000 	strb	r2, [r3]
    4964:	e59f31f4 	ldr	r3, [pc, #500]	; 4b60 <.text+0xb60>
    4968:	e5d33000 	ldrb	r3, [r3]
    496c:	e3530000 	cmp	r3, #0	; 0x0
    4970:	0a000006 	beq	4990 <event_task_fbw+0x404>
    4974:	e59f31a0 	ldr	r3, [pc, #416]	; 4b1c <.text+0xb1c>
    4978:	e1d330fe 	ldrsh	r3, [r3, #14]
    497c:	e59f21e0 	ldr	r2, [pc, #480]	; 4b64 <.text+0xb64>
    4980:	e3730d4b 	cmn	r3, #4800	; 0x12c0
    4984:	b3a03000 	movlt	r3, #0	; 0x0
    4988:	a3a03001 	movge	r3, #1	; 0x1
    498c:	e5c23000 	strb	r3, [r2]
    4990:	e59f31cc 	ldr	r3, [pc, #460]	; 4b64 <.text+0xb64>
    4994:	e5d33000 	ldrb	r3, [r3]
    4998:	e3530000 	cmp	r3, #0	; 0x0
    499c:	1a000009 	bne	49c8 <event_task_fbw+0x43c>
    49a0:	e59f3174 	ldr	r3, [pc, #372]	; 4b1c <.text+0xb1c>
    49a4:	e59f21bc 	ldr	r2, [pc, #444]	; 4b68 <.text+0xb68>
    49a8:	e1d310b6 	ldrh	r1, [r3, #6]
    49ac:	e1c210b6 	strh	r1, [r2, #6]
    49b0:	e1d310b4 	ldrh	r1, [r3, #4]
    49b4:	e1c210b0 	strh	r1, [r2]
    49b8:	e1d310b0 	ldrh	r1, [r3]
    49bc:	e1d330b2 	ldrh	r3, [r3, #2]
    49c0:	e1c210b2 	strh	r1, [r2, #2]
    49c4:	e1c230b4 	strh	r3, [r2, #4]
    49c8:	e59f019c 	ldr	r0, [pc, #412]	; 4b6c <.text+0xb6c>
    49cc:	e5d03000 	ldrb	r3, [r0]
    49d0:	e3530000 	cmp	r3, #0	; 0x0
    49d4:	0a000047 	beq	4af8 <event_task_fbw+0x56c>
    49d8:	e59fe184 	ldr	lr, [pc, #388]	; 4b64 <.text+0xb64>
    49dc:	e5de3000 	ldrb	r3, [lr]
    49e0:	e3530001 	cmp	r3, #1	; 0x1
    49e4:	e59f3184 	ldr	r3, [pc, #388]	; 4b70 <.text+0xb70>
    49e8:	e3a01000 	mov	r1, #0	; 0x0
    49ec:	e3a02001 	mov	r2, #1	; 0x1
    49f0:	e5c01000 	strb	r1, [r0]
    49f4:	e5c32000 	strb	r2, [r3]
    49f8:	e59f3174 	ldr	r3, [pc, #372]	; 4b74 <.text+0xb74>
    49fc:	e5c31000 	strb	r1, [r3]
    4a00:	e59f3170 	ldr	r3, [pc, #368]	; 4b78 <.text+0xb78>
    4a04:	e5c32000 	strb	r2, [r3]
    4a08:	1a000009 	bne	4a34 <event_task_fbw+0x4a8>
    4a0c:	e1a00001 	mov	r0, r1
    4a10:	e59f3164 	ldr	r3, [pc, #356]	; 4b7c <.text+0xb7c>
    4a14:	e5931000 	ldr	r1, [r3]
    4a18:	e1a02080 	mov	r2, r0, lsl #1
    4a1c:	e59f3144 	ldr	r3, [pc, #324]	; 4b68 <.text+0xb68>
    4a20:	e2800001 	add	r0, r0, #1	; 0x1
    4a24:	e19210b1 	ldrh	r1, [r2, r1]
    4a28:	e3500003 	cmp	r0, #3	; 0x3
    4a2c:	e18210b3 	strh	r1, [r2, r3]
    4a30:	dafffff6 	ble	4a10 <event_task_fbw+0x484>
    4a34:	e3a01000 	mov	r1, #0	; 0x0
    4a38:	e2813001 	add	r3, r1, #1	; 0x1
    4a3c:	e1a02081 	mov	r2, r1, lsl #1
    4a40:	e59fc138 	ldr	ip, [pc, #312]	; 4b80 <.text+0xb80>
    4a44:	e20310ff 	and	r1, r3, #255	; 0xff
    4a48:	e59f30cc 	ldr	r3, [pc, #204]	; 4b1c <.text+0xb1c>
    4a4c:	e59c0000 	ldr	r0, [ip]
    4a50:	e19230b3 	ldrh	r3, [r2, r3]
    4a54:	e3510007 	cmp	r1, #7	; 0x7
    4a58:	e18230b0 	strh	r3, [r2, r0]
    4a5c:	9afffff5 	bls	4a38 <event_task_fbw+0x4ac>
    4a60:	e59f311c 	ldr	r3, [pc, #284]	; 4b84 <.text+0xb84>
    4a64:	e5d33000 	ldrb	r3, [r3]
    4a68:	e5c03010 	strb	r3, [r0, #16]
    4a6c:	e59f3098 	ldr	r3, [pc, #152]	; 4b0c <.text+0xb0c>
    4a70:	e5d33000 	ldrb	r3, [r3]
    4a74:	e2732001 	rsbs	r2, r3, #1	; 0x1
    4a78:	33a02000 	movcc	r2, #0	; 0x0
    4a7c:	e3530002 	cmp	r3, #2	; 0x2
    4a80:	120220ff 	andne	r2, r2, #255	; 0xff
    4a84:	1a000002 	bne	4a94 <event_task_fbw+0x508>
    4a88:	e3520000 	cmp	r2, #0	; 0x0
    4a8c:	13a02003 	movne	r2, #3	; 0x3
    4a90:	03a02002 	moveq	r2, #2	; 0x2
    4a94:	e5de3000 	ldrb	r3, [lr]
    4a98:	e3530001 	cmp	r3, #1	; 0x1
    4a9c:	e5de3000 	ldrb	r3, [lr]
    4aa0:	03822004 	orreq	r2, r2, #4	; 0x4
    4aa4:	120220ff 	andne	r2, r2, #255	; 0xff
    4aa8:	e3530002 	cmp	r3, #2	; 0x2
    4aac:	e59c3000 	ldr	r3, [ip]
    4ab0:	03822008 	orreq	r2, r2, #8	; 0x8
    4ab4:	120220ff 	andne	r2, r2, #255	; 0xff
    4ab8:	e5c32011 	strb	r2, [r3, #17]
    4abc:	e59f109c 	ldr	r1, [pc, #156]	; 4b60 <.text+0xb60>
    4ac0:	e5d13000 	ldrb	r3, [r1]
    4ac4:	e3530000 	cmp	r3, #0	; 0x0
    4ac8:	0a000005 	beq	4ae4 <event_task_fbw+0x558>
    4acc:	e59c3000 	ldr	r3, [ip]
    4ad0:	e5d32011 	ldrb	r2, [r3, #17]
    4ad4:	e3822010 	orr	r2, r2, #16	; 0x10
    4ad8:	e5c32011 	strb	r2, [r3, #17]
    4adc:	e3a03000 	mov	r3, #0	; 0x0
    4ae0:	e5c13000 	strb	r3, [r1]
    4ae4:	e59f3094 	ldr	r3, [pc, #148]	; 4b80 <.text+0xb80>
    4ae8:	e5932000 	ldr	r2, [r3]
    4aec:	e59f3094 	ldr	r3, [pc, #148]	; 4b88 <.text+0xb88>
    4af0:	e5d33000 	ldrb	r3, [r3]
    4af4:	e5c23013 	strb	r3, [r2, #19]
    4af8:	e89d6ff0 	ldmia	sp, {r4, r5, r6, r7, r8, r9, sl, fp, sp, lr}
    4afc:	e12fff1e 	bx	lr
    4b00:	40000b82 	andmi	r0, r0, r2, lsl #23
    4b04:	40000b3e 	andmi	r0, r0, lr, lsr fp
    4b08:	40000b72 	andmi	r0, r0, r2, ror fp
    4b0c:	40000b3c 	andmi	r0, r0, ip, lsr fp
    4b10:	40000b3d 	andmi	r0, r0, sp, lsr fp
    4b14:	bfc759e0 	swilt	0x00c759e0
    4b18:	bfc5dfd8 	swilt	0x00c5dfd8
    4b1c:	40000b40 	andmi	r0, r0, r0, asr #22
    4b20:	ffffda80 	swinv	0x00ffda80
    4b24:	3fc3835c 	swicc	0x00c3835c
    4b28:	3fc9ce79 	swicc	0x00c9ce79
    4b2c:	bf469c28 	swilt	0x00469c28
    4b30:	bfd5ed76 	swilt	0x00d5ed76
    4b34:	bfb956e1 	swilt	0x00b956e1
    4b38:	400004e0 	andmi	r0, r0, r0, ror #9
    4b3c:	40000b50 	andmi	r0, r0, r0, asr fp
    4b40:	bf935b16 	swilt	0x00935b16
    4b44:	bf939a86 	swilt	0x00939a86
    4b48:	3f92cf5f 	swicc	0x0092cf5f
    4b4c:	3f94f6a9 	swicc	0x0094f6a9
    4b50:	3f928c23 	swicc	0x00928c23
    4b54:	3f9581da 	swicc	0x009581da
    4b58:	bf924d9a 	swilt	0x00924d9a
    4b5c:	bf94232f 	swilt	0x0094232f
    4b60:	40000524 	andmi	r0, r0, r4, lsr #10
    4b64:	400008dd 	ldrmid	r0, [r0], -sp
    4b68:	40000b16 	andmi	r0, r0, r6, lsl fp
    4b6c:	4000053c 	andmi	r0, r0, ip, lsr r5
    4b70:	4000053d 	andmi	r0, r0, sp, lsr r5
    4b74:	40000e1b 	andmi	r0, r0, fp, lsl lr
    4b78:	40000e1a 	andmi	r0, r0, sl, lsl lr
    4b7c:	4000000c 	andmi	r0, r0, ip
    4b80:	40000010 	andmi	r0, r0, r0, lsl r0
    4b84:	40000b70 	andmi	r0, r0, r0, ror fp
    4b88:	400008dc 	ldrmid	r0, [r0], -ip

00004b8c <periodic_task_fbw>:
    4b8c:	e1a0c00d 	mov	ip, sp
    4b90:	e92ddff0 	stmdb	sp!, {r4, r5, r6, r7, r8, r9, sl, fp, ip, lr, pc}
    4b94:	e59fadbc 	ldr	sl, [pc, #3516]	; 5958 <.text+0x1958>
    4b98:	e5da3000 	ldrb	r3, [sl]
    4b9c:	e2833001 	add	r3, r3, #1	; 0x1
    4ba0:	e5ca3000 	strb	r3, [sl]
    4ba4:	e5da3000 	ldrb	r3, [sl]
    4ba8:	e24cb004 	sub	fp, ip, #4	; 0x4
    4bac:	e3530005 	cmp	r3, #5	; 0x5
    4bb0:	e59fcda4 	ldr	ip, [pc, #3492]	; 595c <.text+0x195c>
    4bb4:	83a03000 	movhi	r3, #0	; 0x0
    4bb8:	85ca3000 	strhib	r3, [sl]
    4bbc:	e5dc3000 	ldrb	r3, [ip]
    4bc0:	e2833001 	add	r3, r3, #1	; 0x1
    4bc4:	e5cc3000 	strb	r3, [ip]
    4bc8:	e5dc3000 	ldrb	r3, [ip]
    4bcc:	e353003b 	cmp	r3, #59	; 0x3b
    4bd0:	9a000006 	bls	4bf0 <periodic_task_fbw+0x64>
    4bd4:	e59f0d84 	ldr	r0, [pc, #3460]	; 5960 <.text+0x1960>
    4bd8:	e59f3d84 	ldr	r3, [pc, #3460]	; 5964 <.text+0x1964>
    4bdc:	e5d01000 	ldrb	r1, [r0]
    4be0:	e3a02000 	mov	r2, #0	; 0x0
    4be4:	e5c31000 	strb	r1, [r3]
    4be8:	e5c02000 	strb	r2, [r0]
    4bec:	e5cc2000 	strb	r2, [ip]
    4bf0:	e59f0d78 	ldr	r0, [pc, #3448]	; 5970 <.text+0x1970>
    4bf4:	e5d01000 	ldrb	r1, [r0]
    4bf8:	e20130ff 	and	r3, r1, #255	; 0xff
    4bfc:	e353003b 	cmp	r3, #59	; 0x3b
    4c00:	859f3d6c 	ldrhi	r3, [pc, #3436]	; 5974 <.text+0x1974>
    4c04:	83a02002 	movhi	r2, #2	; 0x2
    4c08:	85c32000 	strhib	r2, [r3]
    4c0c:	8a000005 	bhi	4c28 <periodic_task_fbw+0x9c>
    4c10:	e353001d 	cmp	r3, #29	; 0x1d
    4c14:	859f3d58 	ldrhi	r3, [pc, #3416]	; 5974 <.text+0x1974>
    4c18:	83a02001 	movhi	r2, #1	; 0x1
    4c1c:	85c32000 	strhib	r2, [r3]
    4c20:	e2813001 	add	r3, r1, #1	; 0x1
    4c24:	e5c03000 	strb	r3, [r0]
    4c28:	e59f7d48 	ldr	r7, [pc, #3400]	; 5978 <.text+0x1978>
    4c2c:	e5d73000 	ldrb	r3, [r7]
    4c30:	e3530000 	cmp	r3, #0	; 0x0
    4c34:	1a000004 	bne	4c4c <periodic_task_fbw+0xc0>
    4c38:	e59f3d34 	ldr	r3, [pc, #3380]	; 5974 <.text+0x1974>
    4c3c:	e5d33000 	ldrb	r3, [r3]
    4c40:	e3530002 	cmp	r3, #2	; 0x2
    4c44:	02433001 	subeq	r3, r3, #1	; 0x1
    4c48:	05c73000 	streqb	r3, [r7]
    4c4c:	e59f2d28 	ldr	r2, [pc, #3368]	; 597c <.text+0x197c>
    4c50:	e5d23000 	ldrb	r3, [r2]
    4c54:	e353001d 	cmp	r3, #29	; 0x1d
    4c58:	859f3d20 	ldrhi	r3, [pc, #3360]	; 5980 <.text+0x1980>
    4c5c:	92833001 	addls	r3, r3, #1	; 0x1
    4c60:	83a02000 	movhi	r2, #0	; 0x0
    4c64:	85c32000 	strhib	r2, [r3]
    4c68:	95c23000 	strlsb	r3, [r2]
    4c6c:	e5d73000 	ldrb	r3, [r7]
    4c70:	e3530001 	cmp	r3, #1	; 0x1
    4c74:	1a00000e 	bne	4cb4 <periodic_task_fbw+0x128>
    4c78:	e59f3d00 	ldr	r3, [pc, #3328]	; 5980 <.text+0x1980>
    4c7c:	e5d31000 	ldrb	r1, [r3]
    4c80:	e3510000 	cmp	r1, #0	; 0x0
    4c84:	1a00000a 	bne	4cb4 <periodic_task_fbw+0x128>
    4c88:	e3a03002 	mov	r3, #2	; 0x2
    4c8c:	e5c73000 	strb	r3, [r7]
    4c90:	e1a00001 	mov	r0, r1
    4c94:	e59f2ce8 	ldr	r2, [pc, #3304]	; 5984 <.text+0x1984>
    4c98:	e1a01080 	mov	r1, r0, lsl #1
    4c9c:	e59f3ce4 	ldr	r3, [pc, #3300]	; 5988 <.text+0x1988>
    4ca0:	e2800001 	add	r0, r0, #1	; 0x1
    4ca4:	e19120b2 	ldrh	r2, [r1, r2]
    4ca8:	e3500003 	cmp	r0, #3	; 0x3
    4cac:	e18120b3 	strh	r2, [r1, r3]
    4cb0:	dafffff7 	ble	4c94 <periodic_task_fbw+0x108>
    4cb4:	e59f9cd0 	ldr	r9, [pc, #3280]	; 598c <.text+0x198c>
    4cb8:	e5d96000 	ldrb	r6, [r9]
    4cbc:	e3560000 	cmp	r6, #0	; 0x0
    4cc0:	1a0000da 	bne	5030 <periodic_task_fbw+0x4a4>
    4cc4:	e59f2cc4 	ldr	r2, [pc, #3268]	; 5990 <.text+0x1990>
    4cc8:	e5d23000 	ldrb	r3, [r2]
    4ccc:	e2833001 	add	r3, r3, #1	; 0x1
    4cd0:	e5c23000 	strb	r3, [r2]
    4cd4:	e59f8cb8 	ldr	r8, [pc, #3256]	; 5994 <.text+0x1994>
    4cd8:	e5d23000 	ldrb	r3, [r2]
    4cdc:	e353003b 	cmp	r3, #59	; 0x3b
    4ce0:	e1d830b0 	ldrh	r3, [r8]
    4ce4:	e2833001 	add	r3, r3, #1	; 0x1
    4ce8:	e1c830b0 	strh	r3, [r8]
    4cec:	85c26000 	strhib	r6, [r2]
    4cf0:	e1d830b0 	ldrh	r3, [r8]
    4cf4:	e3530f4b 	cmp	r3, #300	; 0x12c
    4cf8:	e5d23000 	ldrb	r3, [r2]
    4cfc:	21c860b0 	strcsh	r6, [r8]
    4d00:	e3530000 	cmp	r3, #0	; 0x0
    4d04:	1a00003e 	bne	4e04 <periodic_task_fbw+0x278>
    4d08:	e3a0000e 	mov	r0, #14	; 0xe
    4d0c:	eb001217 	bl	9570 <uart0_check_free_space>
    4d10:	e31000ff 	tst	r0, #255	; 0xff
    4d14:	0a00007a 	beq	4f04 <periodic_task_fbw+0x378>
    4d18:	e3a0007e 	mov	r0, #126	; 0x7e
    4d1c:	e59f5c74 	ldr	r5, [pc, #3188]	; 5998 <.text+0x1998>
    4d20:	eb001226 	bl	95c0 <uart0_transmit>
    4d24:	e1a00006 	mov	r0, r6
    4d28:	e3a04001 	mov	r4, #1	; 0x1
    4d2c:	eb001223 	bl	95c0 <uart0_transmit>
    4d30:	e3a00010 	mov	r0, #16	; 0x10
    4d34:	eb001221 	bl	95c0 <uart0_transmit>
    4d38:	e1a00004 	mov	r0, r4
    4d3c:	e5c54000 	strb	r4, [r5]
    4d40:	eb00121e 	bl	95c0 <uart0_transmit>
    4d44:	e1a00006 	mov	r0, r6
    4d48:	eb00121c 	bl	95c0 <uart0_transmit>
    4d4c:	e5d53000 	ldrb	r3, [r5]
    4d50:	e0833004 	add	r3, r3, r4
    4d54:	e5c53000 	strb	r3, [r5]
    4d58:	e1a00004 	mov	r0, r4
    4d5c:	eb001217 	bl	95c0 <uart0_transmit>
    4d60:	e1a00006 	mov	r0, r6
    4d64:	eb001215 	bl	95c0 <uart0_transmit>
    4d68:	e1a00006 	mov	r0, r6
    4d6c:	eb001213 	bl	95c0 <uart0_transmit>
    4d70:	e5d53000 	ldrb	r3, [r5]
    4d74:	e283300a 	add	r3, r3, #10	; 0xa
    4d78:	e3a0000a 	mov	r0, #10	; 0xa
    4d7c:	e5c53000 	strb	r3, [r5]
    4d80:	eb00120e 	bl	95c0 <uart0_transmit>
    4d84:	e5d53000 	ldrb	r3, [r5]
    4d88:	e2833066 	add	r3, r3, #102	; 0x66
    4d8c:	e3a00066 	mov	r0, #102	; 0x66
    4d90:	e5c53000 	strb	r3, [r5]
    4d94:	eb001209 	bl	95c0 <uart0_transmit>
    4d98:	e5d53000 	ldrb	r3, [r5]
    4d9c:	e2833004 	add	r3, r3, #4	; 0x4
    4da0:	e3a00004 	mov	r0, #4	; 0x4
    4da4:	e5c53000 	strb	r3, [r5]
    4da8:	eb001204 	bl	95c0 <uart0_transmit>
    4dac:	e59f4bd4 	ldr	r4, [pc, #3028]	; 5988 <.text+0x1988>
    4db0:	e5d53000 	ldrb	r3, [r5]
    4db4:	e7d40086 	ldrb	r0, [r4, r6, lsl #1]
    4db8:	e0803003 	add	r3, r0, r3
    4dbc:	e5c53000 	strb	r3, [r5]
    4dc0:	e2844001 	add	r4, r4, #1	; 0x1
    4dc4:	eb0011fd 	bl	95c0 <uart0_transmit>
    4dc8:	e7d43086 	ldrb	r3, [r4, r6, lsl #1]
    4dcc:	e5d52000 	ldrb	r2, [r5]
    4dd0:	e1a00003 	mov	r0, r3
    4dd4:	e0833002 	add	r3, r3, r2
    4dd8:	e5c53000 	strb	r3, [r5]
    4ddc:	eb0011f7 	bl	95c0 <uart0_transmit>
    4de0:	e2863001 	add	r3, r6, #1	; 0x1
    4de4:	e20360ff 	and	r6, r3, #255	; 0xff
    4de8:	e3560003 	cmp	r6, #3	; 0x3
    4dec:	9affffee 	bls	4dac <periodic_task_fbw+0x220>
    4df0:	e5d53000 	ldrb	r3, [r5]
    4df4:	e1e03003 	mvn	r3, r3
    4df8:	e5c53000 	strb	r3, [r5]
    4dfc:	e5d50000 	ldrb	r0, [r5]
    4e00:	ea00003d 	b	4efc <periodic_task_fbw+0x370>
    4e04:	e3530006 	cmp	r3, #6	; 0x6
    4e08:	1a000041 	bne	4f14 <periodic_task_fbw+0x388>
    4e0c:	e3a00008 	mov	r0, #8	; 0x8
    4e10:	eb0011d6 	bl	9570 <uart0_check_free_space>
    4e14:	e31000ff 	tst	r0, #255	; 0xff
    4e18:	0a000039 	beq	4f04 <periodic_task_fbw+0x378>
    4e1c:	e3a0007e 	mov	r0, #126	; 0x7e
    4e20:	e59f4b70 	ldr	r4, [pc, #2928]	; 5998 <.text+0x1998>
    4e24:	eb0011e5 	bl	95c0 <uart0_transmit>
    4e28:	e1a00006 	mov	r0, r6
    4e2c:	eb0011e3 	bl	95c0 <uart0_transmit>
    4e30:	e3a05001 	mov	r5, #1	; 0x1
    4e34:	e3a0000a 	mov	r0, #10	; 0xa
    4e38:	eb0011e0 	bl	95c0 <uart0_transmit>
    4e3c:	e1a00005 	mov	r0, r5
    4e40:	e5c45000 	strb	r5, [r4]
    4e44:	eb0011dd 	bl	95c0 <uart0_transmit>
    4e48:	e1a00006 	mov	r0, r6
    4e4c:	eb0011db 	bl	95c0 <uart0_transmit>
    4e50:	e5d43000 	ldrb	r3, [r4]
    4e54:	e0833005 	add	r3, r3, r5
    4e58:	e5c43000 	strb	r3, [r4]
    4e5c:	e1a00005 	mov	r0, r5
    4e60:	eb0011d6 	bl	95c0 <uart0_transmit>
    4e64:	e1a00006 	mov	r0, r6
    4e68:	eb0011d4 	bl	95c0 <uart0_transmit>
    4e6c:	e1a00006 	mov	r0, r6
    4e70:	eb0011d2 	bl	95c0 <uart0_transmit>
    4e74:	e5d43000 	ldrb	r3, [r4]
    4e78:	e283300a 	add	r3, r3, #10	; 0xa
    4e7c:	e3a0000a 	mov	r0, #10	; 0xa
    4e80:	e5c43000 	strb	r3, [r4]
    4e84:	eb0011cd 	bl	95c0 <uart0_transmit>
    4e88:	e5d43000 	ldrb	r3, [r4]
    4e8c:	e2833067 	add	r3, r3, #103	; 0x67
    4e90:	e3a00067 	mov	r0, #103	; 0x67
    4e94:	e5c43000 	strb	r3, [r4]
    4e98:	eb0011c8 	bl	95c0 <uart0_transmit>
    4e9c:	e59f3ad0 	ldr	r3, [pc, #2768]	; 5974 <.text+0x1974>
    4ea0:	e5d42000 	ldrb	r2, [r4]
    4ea4:	e5d33000 	ldrb	r3, [r3]
    4ea8:	e1a00003 	mov	r0, r3
    4eac:	e0833002 	add	r3, r3, r2
    4eb0:	e5c43000 	strb	r3, [r4]
    4eb4:	eb0011c1 	bl	95c0 <uart0_transmit>
    4eb8:	e5d73000 	ldrb	r3, [r7]
    4ebc:	e5d42000 	ldrb	r2, [r4]
    4ec0:	e1a00003 	mov	r0, r3
    4ec4:	e0833002 	add	r3, r3, r2
    4ec8:	e5c43000 	strb	r3, [r4]
    4ecc:	eb0011bb 	bl	95c0 <uart0_transmit>
    4ed0:	e59f3ac4 	ldr	r3, [pc, #2756]	; 599c <.text+0x199c>
    4ed4:	e5d42000 	ldrb	r2, [r4]
    4ed8:	e5d33000 	ldrb	r3, [r3]
    4edc:	e1a00003 	mov	r0, r3
    4ee0:	e0833002 	add	r3, r3, r2
    4ee4:	e5c43000 	strb	r3, [r4]
    4ee8:	eb0011b4 	bl	95c0 <uart0_transmit>
    4eec:	e5d43000 	ldrb	r3, [r4]
    4ef0:	e1e03003 	mvn	r3, r3
    4ef4:	e5c43000 	strb	r3, [r4]
    4ef8:	e5d40000 	ldrb	r0, [r4]
    4efc:	eb0011af 	bl	95c0 <uart0_transmit>
    4f00:	ea000003 	b	4f14 <periodic_task_fbw+0x388>
    4f04:	e59f2a94 	ldr	r2, [pc, #2708]	; 59a0 <.text+0x19a0>
    4f08:	e5d23000 	ldrb	r3, [r2]
    4f0c:	e2833001 	add	r3, r3, #1	; 0x1
    4f10:	e5c23000 	strb	r3, [r2]
    4f14:	e1d830b0 	ldrh	r3, [r8]
    4f18:	e353000c 	cmp	r3, #12	; 0xc
    4f1c:	1a000043 	bne	5030 <periodic_task_fbw+0x4a4>
    4f20:	e3a00010 	mov	r0, #16	; 0x10
    4f24:	eb001191 	bl	9570 <uart0_check_free_space>
    4f28:	e31000ff 	tst	r0, #255	; 0xff
    4f2c:	059f2a6c 	ldreq	r2, [pc, #2668]	; 59a0 <.text+0x19a0>
    4f30:	05d23000 	ldreqb	r3, [r2]
    4f34:	02833001 	addeq	r3, r3, #1	; 0x1
    4f38:	05c23000 	streqb	r3, [r2]
    4f3c:	0a00003b 	beq	5030 <periodic_task_fbw+0x4a4>
    4f40:	e3a05000 	mov	r5, #0	; 0x0
    4f44:	e3a0007e 	mov	r0, #126	; 0x7e
    4f48:	e59f6a48 	ldr	r6, [pc, #2632]	; 5998 <.text+0x1998>
    4f4c:	eb00119b 	bl	95c0 <uart0_transmit>
    4f50:	e1a00005 	mov	r0, r5
    4f54:	e3a04001 	mov	r4, #1	; 0x1
    4f58:	eb001198 	bl	95c0 <uart0_transmit>
    4f5c:	e3a00012 	mov	r0, #18	; 0x12
    4f60:	eb001196 	bl	95c0 <uart0_transmit>
    4f64:	e1a00004 	mov	r0, r4
    4f68:	e5c64000 	strb	r4, [r6]
    4f6c:	eb001193 	bl	95c0 <uart0_transmit>
    4f70:	e1a00005 	mov	r0, r5
    4f74:	eb001191 	bl	95c0 <uart0_transmit>
    4f78:	e5d63000 	ldrb	r3, [r6]
    4f7c:	e0833004 	add	r3, r3, r4
    4f80:	e5c63000 	strb	r3, [r6]
    4f84:	e1a00004 	mov	r0, r4
    4f88:	eb00118c 	bl	95c0 <uart0_transmit>
    4f8c:	e1a00005 	mov	r0, r5
    4f90:	eb00118a 	bl	95c0 <uart0_transmit>
    4f94:	e1a00005 	mov	r0, r5
    4f98:	eb001188 	bl	95c0 <uart0_transmit>
    4f9c:	e5d63000 	ldrb	r3, [r6]
    4fa0:	e283300a 	add	r3, r3, #10	; 0xa
    4fa4:	e3a0000a 	mov	r0, #10	; 0xa
    4fa8:	e5c63000 	strb	r3, [r6]
    4fac:	eb001183 	bl	95c0 <uart0_transmit>
    4fb0:	e5d63000 	ldrb	r3, [r6]
    4fb4:	e2833069 	add	r3, r3, #105	; 0x69
    4fb8:	e3a00069 	mov	r0, #105	; 0x69
    4fbc:	e5c63000 	strb	r3, [r6]
    4fc0:	eb00117e 	bl	95c0 <uart0_transmit>
    4fc4:	e5d63000 	ldrb	r3, [r6]
    4fc8:	e2833005 	add	r3, r3, #5	; 0x5
    4fcc:	e3a00005 	mov	r0, #5	; 0x5
    4fd0:	e5c63000 	strb	r3, [r6]
    4fd4:	eb001179 	bl	95c0 <uart0_transmit>
    4fd8:	e59f49c4 	ldr	r4, [pc, #2500]	; 59a4 <.text+0x19a4>
    4fdc:	e5d63000 	ldrb	r3, [r6]
    4fe0:	e7d40085 	ldrb	r0, [r4, r5, lsl #1]
    4fe4:	e0803003 	add	r3, r0, r3
    4fe8:	e5c63000 	strb	r3, [r6]
    4fec:	e2844001 	add	r4, r4, #1	; 0x1
    4ff0:	eb001172 	bl	95c0 <uart0_transmit>
    4ff4:	e7d43085 	ldrb	r3, [r4, r5, lsl #1]
    4ff8:	e5d62000 	ldrb	r2, [r6]
    4ffc:	e1a00003 	mov	r0, r3
    5000:	e0833002 	add	r3, r3, r2
    5004:	e5c63000 	strb	r3, [r6]
    5008:	eb00116c 	bl	95c0 <uart0_transmit>
    500c:	e2853001 	add	r3, r5, #1	; 0x1
    5010:	e20350ff 	and	r5, r3, #255	; 0xff
    5014:	e3550004 	cmp	r5, #4	; 0x4
    5018:	9affffee 	bls	4fd8 <periodic_task_fbw+0x44c>
    501c:	e5d63000 	ldrb	r3, [r6]
    5020:	e1e03003 	mvn	r3, r3
    5024:	e5c63000 	strb	r3, [r6]
    5028:	e5d60000 	ldrb	r0, [r6]
    502c:	eb001163 	bl	95c0 <uart0_transmit>
    5030:	e5d96000 	ldrb	r6, [r9]
    5034:	e3560001 	cmp	r6, #1	; 0x1
    5038:	1a000167 	bne	55dc <periodic_task_fbw+0xa50>
    503c:	e59f0964 	ldr	r0, [pc, #2404]	; 59a8 <.text+0x19a8>
    5040:	e5d03000 	ldrb	r3, [r0]
    5044:	e2833001 	add	r3, r3, #1	; 0x1
    5048:	e5c03000 	strb	r3, [r0]
    504c:	e5d03000 	ldrb	r3, [r0]
    5050:	e59f7954 	ldr	r7, [pc, #2388]	; 59ac <.text+0x19ac>
    5054:	e353001d 	cmp	r3, #29	; 0x1d
    5058:	83a03000 	movhi	r3, #0	; 0x0
    505c:	85c03000 	strhib	r3, [r0]
    5060:	e5d73000 	ldrb	r3, [r7]
    5064:	e2833001 	add	r3, r3, #1	; 0x1
    5068:	e5c73000 	strb	r3, [r7]
    506c:	e5d73000 	ldrb	r3, [r7]
    5070:	e59f8938 	ldr	r8, [pc, #2360]	; 59b0 <.text+0x19b0>
    5074:	e353003b 	cmp	r3, #59	; 0x3b
    5078:	83a03000 	movhi	r3, #0	; 0x0
    507c:	85c73000 	strhib	r3, [r7]
    5080:	e1d830b0 	ldrh	r3, [r8]
    5084:	e2833001 	add	r3, r3, #1	; 0x1
    5088:	e1c830b0 	strh	r3, [r8]
    508c:	e1d830b0 	ldrh	r3, [r8]
    5090:	e5d04000 	ldrb	r4, [r0]
    5094:	e3530f4b 	cmp	r3, #300	; 0x12c
    5098:	23a03000 	movcs	r3, #0	; 0x0
    509c:	21c830b0 	strcsh	r3, [r8]
    50a0:	e3540000 	cmp	r4, #0	; 0x0
    50a4:	1a00003a 	bne	5194 <periodic_task_fbw+0x608>
    50a8:	e3a00016 	mov	r0, #22	; 0x16
    50ac:	eb00112f 	bl	9570 <uart0_check_free_space>
    50b0:	e31000ff 	tst	r0, #255	; 0xff
    50b4:	0a0000b7 	beq	5398 <periodic_task_fbw+0x80c>
    50b8:	e3a0007e 	mov	r0, #126	; 0x7e
    50bc:	e59f58d4 	ldr	r5, [pc, #2260]	; 5998 <.text+0x1998>
    50c0:	eb00113e 	bl	95c0 <uart0_transmit>
    50c4:	e1a00004 	mov	r0, r4
    50c8:	eb00113c 	bl	95c0 <uart0_transmit>
    50cc:	e3a00018 	mov	r0, #24	; 0x18
    50d0:	eb00113a 	bl	95c0 <uart0_transmit>
    50d4:	e1a00006 	mov	r0, r6
    50d8:	e5c56000 	strb	r6, [r5]
    50dc:	eb001137 	bl	95c0 <uart0_transmit>
    50e0:	e1a00004 	mov	r0, r4
    50e4:	eb001135 	bl	95c0 <uart0_transmit>
    50e8:	e5d53000 	ldrb	r3, [r5]
    50ec:	e2833001 	add	r3, r3, #1	; 0x1
    50f0:	e5c53000 	strb	r3, [r5]
    50f4:	e1a00006 	mov	r0, r6
    50f8:	eb001130 	bl	95c0 <uart0_transmit>
    50fc:	e1a00004 	mov	r0, r4
    5100:	eb00112e 	bl	95c0 <uart0_transmit>
    5104:	e1a00004 	mov	r0, r4
    5108:	eb00112c 	bl	95c0 <uart0_transmit>
    510c:	e5d53000 	ldrb	r3, [r5]
    5110:	e283300a 	add	r3, r3, #10	; 0xa
    5114:	e3a0000a 	mov	r0, #10	; 0xa
    5118:	e5c53000 	strb	r3, [r5]
    511c:	eb001127 	bl	95c0 <uart0_transmit>
    5120:	e5d53000 	ldrb	r3, [r5]
    5124:	e2833064 	add	r3, r3, #100	; 0x64
    5128:	e3a00064 	mov	r0, #100	; 0x64
    512c:	e5c53000 	strb	r3, [r5]
    5130:	eb001122 	bl	95c0 <uart0_transmit>
    5134:	e5d53000 	ldrb	r3, [r5]
    5138:	e2833008 	add	r3, r3, #8	; 0x8
    513c:	e3a00008 	mov	r0, #8	; 0x8
    5140:	e5c53000 	strb	r3, [r5]
    5144:	eb00111d 	bl	95c0 <uart0_transmit>
    5148:	e1a06004 	mov	r6, r4
    514c:	e59f4860 	ldr	r4, [pc, #2144]	; 59b4 <.text+0x19b4>
    5150:	e5d53000 	ldrb	r3, [r5]
    5154:	e7d40086 	ldrb	r0, [r4, r6, lsl #1]
    5158:	e0803003 	add	r3, r0, r3
    515c:	e5c53000 	strb	r3, [r5]
    5160:	e2844001 	add	r4, r4, #1	; 0x1
    5164:	eb001115 	bl	95c0 <uart0_transmit>
    5168:	e7d43086 	ldrb	r3, [r4, r6, lsl #1]
    516c:	e5d52000 	ldrb	r2, [r5]
    5170:	e1a00003 	mov	r0, r3
    5174:	e0833002 	add	r3, r3, r2
    5178:	e5c53000 	strb	r3, [r5]
    517c:	eb00110f 	bl	95c0 <uart0_transmit>
    5180:	e2863001 	add	r3, r6, #1	; 0x1
    5184:	e20360ff 	and	r6, r3, #255	; 0xff
    5188:	e3560007 	cmp	r6, #7	; 0x7
    518c:	9affffee 	bls	514c <periodic_task_fbw+0x5c0>
    5190:	ea00007a 	b	5380 <periodic_task_fbw+0x7f4>
    5194:	e3540006 	cmp	r4, #6	; 0x6
    5198:	1a00003b 	bne	528c <periodic_task_fbw+0x700>
    519c:	e3a00016 	mov	r0, #22	; 0x16
    51a0:	eb0010f2 	bl	9570 <uart0_check_free_space>
    51a4:	e31000ff 	tst	r0, #255	; 0xff
    51a8:	0a00007a 	beq	5398 <periodic_task_fbw+0x80c>
    51ac:	e2444006 	sub	r4, r4, #6	; 0x6
    51b0:	e3a0007e 	mov	r0, #126	; 0x7e
    51b4:	e59f57dc 	ldr	r5, [pc, #2012]	; 5998 <.text+0x1998>
    51b8:	eb001100 	bl	95c0 <uart0_transmit>
    51bc:	e1a00004 	mov	r0, r4
    51c0:	eb0010fe 	bl	95c0 <uart0_transmit>
    51c4:	e3a00018 	mov	r0, #24	; 0x18
    51c8:	eb0010fc 	bl	95c0 <uart0_transmit>
    51cc:	e1a00006 	mov	r0, r6
    51d0:	e5c56000 	strb	r6, [r5]
    51d4:	eb0010f9 	bl	95c0 <uart0_transmit>
    51d8:	e1a00004 	mov	r0, r4
    51dc:	eb0010f7 	bl	95c0 <uart0_transmit>
    51e0:	e5d53000 	ldrb	r3, [r5]
    51e4:	e2833001 	add	r3, r3, #1	; 0x1
    51e8:	e5c53000 	strb	r3, [r5]
    51ec:	e1a00006 	mov	r0, r6
    51f0:	eb0010f2 	bl	95c0 <uart0_transmit>
    51f4:	e1a00004 	mov	r0, r4
    51f8:	eb0010f0 	bl	95c0 <uart0_transmit>
    51fc:	e1a00004 	mov	r0, r4
    5200:	eb0010ee 	bl	95c0 <uart0_transmit>
    5204:	e5d53000 	ldrb	r3, [r5]
    5208:	e283300a 	add	r3, r3, #10	; 0xa
    520c:	e3a0000a 	mov	r0, #10	; 0xa
    5210:	e5c53000 	strb	r3, [r5]
    5214:	eb0010e9 	bl	95c0 <uart0_transmit>
    5218:	e5d53000 	ldrb	r3, [r5]
    521c:	e2833065 	add	r3, r3, #101	; 0x65
    5220:	e3a00065 	mov	r0, #101	; 0x65
    5224:	e5c53000 	strb	r3, [r5]
    5228:	eb0010e4 	bl	95c0 <uart0_transmit>
    522c:	e5d53000 	ldrb	r3, [r5]
    5230:	e2833008 	add	r3, r3, #8	; 0x8
    5234:	e3a00008 	mov	r0, #8	; 0x8
    5238:	e5c53000 	strb	r3, [r5]
    523c:	eb0010df 	bl	95c0 <uart0_transmit>
    5240:	e1a06004 	mov	r6, r4
    5244:	e59f476c 	ldr	r4, [pc, #1900]	; 59b8 <.text+0x19b8>
    5248:	e5d53000 	ldrb	r3, [r5]
    524c:	e7d40086 	ldrb	r0, [r4, r6, lsl #1]
    5250:	e0803003 	add	r3, r0, r3
    5254:	e5c53000 	strb	r3, [r5]
    5258:	e2844001 	add	r4, r4, #1	; 0x1
    525c:	eb0010d7 	bl	95c0 <uart0_transmit>
    5260:	e7d43086 	ldrb	r3, [r4, r6, lsl #1]
    5264:	e5d52000 	ldrb	r2, [r5]
    5268:	e1a00003 	mov	r0, r3
    526c:	e0833002 	add	r3, r3, r2
    5270:	e5c53000 	strb	r3, [r5]
    5274:	eb0010d1 	bl	95c0 <uart0_transmit>
    5278:	e2863001 	add	r3, r6, #1	; 0x1
    527c:	e20360ff 	and	r6, r3, #255	; 0xff
    5280:	e3560007 	cmp	r6, #7	; 0x7
    5284:	9affffee 	bls	5244 <periodic_task_fbw+0x6b8>
    5288:	ea00003c 	b	5380 <periodic_task_fbw+0x7f4>
    528c:	e354000c 	cmp	r4, #12	; 0xc
    5290:	1a000044 	bne	53a8 <periodic_task_fbw+0x81c>
    5294:	e3a0000e 	mov	r0, #14	; 0xe
    5298:	eb0010b4 	bl	9570 <uart0_check_free_space>
    529c:	e31000ff 	tst	r0, #255	; 0xff
    52a0:	0a00003c 	beq	5398 <periodic_task_fbw+0x80c>
    52a4:	e244400c 	sub	r4, r4, #12	; 0xc
    52a8:	e3a0007e 	mov	r0, #126	; 0x7e
    52ac:	e59f56e4 	ldr	r5, [pc, #1764]	; 5998 <.text+0x1998>
    52b0:	eb0010c2 	bl	95c0 <uart0_transmit>
    52b4:	e1a00004 	mov	r0, r4
    52b8:	eb0010c0 	bl	95c0 <uart0_transmit>
    52bc:	e3a00010 	mov	r0, #16	; 0x10
    52c0:	eb0010be 	bl	95c0 <uart0_transmit>
    52c4:	e1a00006 	mov	r0, r6
    52c8:	e5c56000 	strb	r6, [r5]
    52cc:	eb0010bb 	bl	95c0 <uart0_transmit>
    52d0:	e1a00004 	mov	r0, r4
    52d4:	eb0010b9 	bl	95c0 <uart0_transmit>
    52d8:	e5d53000 	ldrb	r3, [r5]
    52dc:	e2833001 	add	r3, r3, #1	; 0x1
    52e0:	e5c53000 	strb	r3, [r5]
    52e4:	e1a00006 	mov	r0, r6
    52e8:	eb0010b4 	bl	95c0 <uart0_transmit>
    52ec:	e1a00004 	mov	r0, r4
    52f0:	eb0010b2 	bl	95c0 <uart0_transmit>
    52f4:	e1a00004 	mov	r0, r4
    52f8:	eb0010b0 	bl	95c0 <uart0_transmit>
    52fc:	e5d53000 	ldrb	r3, [r5]
    5300:	e283300a 	add	r3, r3, #10	; 0xa
    5304:	e3a0000a 	mov	r0, #10	; 0xa
    5308:	e5c53000 	strb	r3, [r5]
    530c:	eb0010ab 	bl	95c0 <uart0_transmit>
    5310:	e5d53000 	ldrb	r3, [r5]
    5314:	e2833066 	add	r3, r3, #102	; 0x66
    5318:	e3a00066 	mov	r0, #102	; 0x66
    531c:	e5c53000 	strb	r3, [r5]
    5320:	eb0010a6 	bl	95c0 <uart0_transmit>
    5324:	e5d53000 	ldrb	r3, [r5]
    5328:	e2833004 	add	r3, r3, #4	; 0x4
    532c:	e3a00004 	mov	r0, #4	; 0x4
    5330:	e5c53000 	strb	r3, [r5]
    5334:	eb0010a1 	bl	95c0 <uart0_transmit>
    5338:	e1a06004 	mov	r6, r4
    533c:	e59f4644 	ldr	r4, [pc, #1604]	; 5988 <.text+0x1988>
    5340:	e5d53000 	ldrb	r3, [r5]
    5344:	e7d40086 	ldrb	r0, [r4, r6, lsl #1]
    5348:	e0803003 	add	r3, r0, r3
    534c:	e5c53000 	strb	r3, [r5]
    5350:	e2844001 	add	r4, r4, #1	; 0x1
    5354:	eb001099 	bl	95c0 <uart0_transmit>
    5358:	e7d43086 	ldrb	r3, [r4, r6, lsl #1]
    535c:	e5d52000 	ldrb	r2, [r5]
    5360:	e1a00003 	mov	r0, r3
    5364:	e0833002 	add	r3, r3, r2
    5368:	e5c53000 	strb	r3, [r5]
    536c:	eb001093 	bl	95c0 <uart0_transmit>
    5370:	e2863001 	add	r3, r6, #1	; 0x1
    5374:	e20360ff 	and	r6, r3, #255	; 0xff
    5378:	e3560003 	cmp	r6, #3	; 0x3
    537c:	9affffee 	bls	533c <periodic_task_fbw+0x7b0>
    5380:	e5d53000 	ldrb	r3, [r5]
    5384:	e1e03003 	mvn	r3, r3
    5388:	e5c53000 	strb	r3, [r5]
    538c:	e5d50000 	ldrb	r0, [r5]
    5390:	eb00108a 	bl	95c0 <uart0_transmit>
    5394:	ea000003 	b	53a8 <periodic_task_fbw+0x81c>
    5398:	e59f2600 	ldr	r2, [pc, #1536]	; 59a0 <.text+0x19a0>
    539c:	e5d23000 	ldrb	r3, [r2]
    53a0:	e2833001 	add	r3, r3, #1	; 0x1
    53a4:	e5c23000 	strb	r3, [r2]
    53a8:	e5d73000 	ldrb	r3, [r7]
    53ac:	e3530012 	cmp	r3, #18	; 0x12
    53b0:	1a000042 	bne	54c0 <periodic_task_fbw+0x934>
    53b4:	e3a00008 	mov	r0, #8	; 0x8
    53b8:	eb00106c 	bl	9570 <uart0_check_free_space>
    53bc:	e31000ff 	tst	r0, #255	; 0xff
    53c0:	059f25d8 	ldreq	r2, [pc, #1496]	; 59a0 <.text+0x19a0>
    53c4:	05d23000 	ldreqb	r3, [r2]
    53c8:	02833001 	addeq	r3, r3, #1	; 0x1
    53cc:	05c23000 	streqb	r3, [r2]
    53d0:	0a00003a 	beq	54c0 <periodic_task_fbw+0x934>
    53d4:	e3a06000 	mov	r6, #0	; 0x0
    53d8:	e3a0007e 	mov	r0, #126	; 0x7e
    53dc:	e59f45b4 	ldr	r4, [pc, #1460]	; 5998 <.text+0x1998>
    53e0:	eb001076 	bl	95c0 <uart0_transmit>
    53e4:	e1a00006 	mov	r0, r6
    53e8:	eb001074 	bl	95c0 <uart0_transmit>
    53ec:	e3a05001 	mov	r5, #1	; 0x1
    53f0:	e3a0000a 	mov	r0, #10	; 0xa
    53f4:	eb001071 	bl	95c0 <uart0_transmit>
    53f8:	e1a00005 	mov	r0, r5
    53fc:	e5c45000 	strb	r5, [r4]
    5400:	eb00106e 	bl	95c0 <uart0_transmit>
    5404:	e1a00006 	mov	r0, r6
    5408:	eb00106c 	bl	95c0 <uart0_transmit>
    540c:	e5d43000 	ldrb	r3, [r4]
    5410:	e0833005 	add	r3, r3, r5
    5414:	e5c43000 	strb	r3, [r4]
    5418:	e1a00005 	mov	r0, r5
    541c:	eb001067 	bl	95c0 <uart0_transmit>
    5420:	e1a00006 	mov	r0, r6
    5424:	eb001065 	bl	95c0 <uart0_transmit>
    5428:	e1a00006 	mov	r0, r6
    542c:	eb001063 	bl	95c0 <uart0_transmit>
    5430:	e5d43000 	ldrb	r3, [r4]
    5434:	e283300a 	add	r3, r3, #10	; 0xa
    5438:	e3a0000a 	mov	r0, #10	; 0xa
    543c:	e5c43000 	strb	r3, [r4]
    5440:	eb00105e 	bl	95c0 <uart0_transmit>
    5444:	e5d43000 	ldrb	r3, [r4]
    5448:	e2833067 	add	r3, r3, #103	; 0x67
    544c:	e3a00067 	mov	r0, #103	; 0x67
    5450:	e5c43000 	strb	r3, [r4]
    5454:	eb001059 	bl	95c0 <uart0_transmit>
    5458:	e59f3514 	ldr	r3, [pc, #1300]	; 5974 <.text+0x1974>
    545c:	e5d42000 	ldrb	r2, [r4]
    5460:	e5d33000 	ldrb	r3, [r3]
    5464:	e1a00003 	mov	r0, r3
    5468:	e0833002 	add	r3, r3, r2
    546c:	e5c43000 	strb	r3, [r4]
    5470:	eb001052 	bl	95c0 <uart0_transmit>
    5474:	e59f34fc 	ldr	r3, [pc, #1276]	; 5978 <.text+0x1978>
    5478:	e5d42000 	ldrb	r2, [r4]
    547c:	e5d33000 	ldrb	r3, [r3]
    5480:	e1a00003 	mov	r0, r3
    5484:	e0833002 	add	r3, r3, r2
    5488:	e5c43000 	strb	r3, [r4]
    548c:	eb00104b 	bl	95c0 <uart0_transmit>
    5490:	e59f3504 	ldr	r3, [pc, #1284]	; 599c <.text+0x199c>
    5494:	e5d42000 	ldrb	r2, [r4]
    5498:	e5d33000 	ldrb	r3, [r3]
    549c:	e1a00003 	mov	r0, r3
    54a0:	e0833002 	add	r3, r3, r2
    54a4:	e5c43000 	strb	r3, [r4]
    54a8:	eb001044 	bl	95c0 <uart0_transmit>
    54ac:	e5d43000 	ldrb	r3, [r4]
    54b0:	e1e03003 	mvn	r3, r3
    54b4:	e5c43000 	strb	r3, [r4]
    54b8:	e5d40000 	ldrb	r0, [r4]
    54bc:	eb00103f 	bl	95c0 <uart0_transmit>
    54c0:	e1d830b0 	ldrh	r3, [r8]
    54c4:	e3530018 	cmp	r3, #24	; 0x18
    54c8:	1a000043 	bne	55dc <periodic_task_fbw+0xa50>
    54cc:	e3a00010 	mov	r0, #16	; 0x10
    54d0:	eb001026 	bl	9570 <uart0_check_free_space>
    54d4:	e31000ff 	tst	r0, #255	; 0xff
    54d8:	059f24c0 	ldreq	r2, [pc, #1216]	; 59a0 <.text+0x19a0>
    54dc:	05d23000 	ldreqb	r3, [r2]
    54e0:	02833001 	addeq	r3, r3, #1	; 0x1
    54e4:	05c23000 	streqb	r3, [r2]
    54e8:	0a00003b 	beq	55dc <periodic_task_fbw+0xa50>
    54ec:	e3a05000 	mov	r5, #0	; 0x0
    54f0:	e3a0007e 	mov	r0, #126	; 0x7e
    54f4:	e59f649c 	ldr	r6, [pc, #1180]	; 5998 <.text+0x1998>
    54f8:	eb001030 	bl	95c0 <uart0_transmit>
    54fc:	e1a00005 	mov	r0, r5
    5500:	e3a04001 	mov	r4, #1	; 0x1
    5504:	eb00102d 	bl	95c0 <uart0_transmit>
    5508:	e3a00012 	mov	r0, #18	; 0x12
    550c:	eb00102b 	bl	95c0 <uart0_transmit>
    5510:	e1a00004 	mov	r0, r4
    5514:	e5c64000 	strb	r4, [r6]
    5518:	eb001028 	bl	95c0 <uart0_transmit>
    551c:	e1a00005 	mov	r0, r5
    5520:	eb001026 	bl	95c0 <uart0_transmit>
    5524:	e5d63000 	ldrb	r3, [r6]
    5528:	e0833004 	add	r3, r3, r4
    552c:	e5c63000 	strb	r3, [r6]
    5530:	e1a00004 	mov	r0, r4
    5534:	eb001021 	bl	95c0 <uart0_transmit>
    5538:	e1a00005 	mov	r0, r5
    553c:	eb00101f 	bl	95c0 <uart0_transmit>
    5540:	e1a00005 	mov	r0, r5
    5544:	eb00101d 	bl	95c0 <uart0_transmit>
    5548:	e5d63000 	ldrb	r3, [r6]
    554c:	e283300a 	add	r3, r3, #10	; 0xa
    5550:	e3a0000a 	mov	r0, #10	; 0xa
    5554:	e5c63000 	strb	r3, [r6]
    5558:	eb001018 	bl	95c0 <uart0_transmit>
    555c:	e5d63000 	ldrb	r3, [r6]
    5560:	e2833069 	add	r3, r3, #105	; 0x69
    5564:	e3a00069 	mov	r0, #105	; 0x69
    5568:	e5c63000 	strb	r3, [r6]
    556c:	eb001013 	bl	95c0 <uart0_transmit>
    5570:	e5d63000 	ldrb	r3, [r6]
    5574:	e2833005 	add	r3, r3, #5	; 0x5
    5578:	e3a00005 	mov	r0, #5	; 0x5
    557c:	e5c63000 	strb	r3, [r6]
    5580:	eb00100e 	bl	95c0 <uart0_transmit>
    5584:	e59f4418 	ldr	r4, [pc, #1048]	; 59a4 <.text+0x19a4>
    5588:	e5d63000 	ldrb	r3, [r6]
    558c:	e7d40085 	ldrb	r0, [r4, r5, lsl #1]
    5590:	e0803003 	add	r3, r0, r3
    5594:	e5c63000 	strb	r3, [r6]
    5598:	e2844001 	add	r4, r4, #1	; 0x1
    559c:	eb001007 	bl	95c0 <uart0_transmit>
    55a0:	e7d43085 	ldrb	r3, [r4, r5, lsl #1]
    55a4:	e5d62000 	ldrb	r2, [r6]
    55a8:	e1a00003 	mov	r0, r3
    55ac:	e0833002 	add	r3, r3, r2
    55b0:	e5c63000 	strb	r3, [r6]
    55b4:	eb001001 	bl	95c0 <uart0_transmit>
    55b8:	e2853001 	add	r3, r5, #1	; 0x1
    55bc:	e20350ff 	and	r5, r3, #255	; 0xff
    55c0:	e3550004 	cmp	r5, #4	; 0x4
    55c4:	9affffee 	bls	5584 <periodic_task_fbw+0x9f8>
    55c8:	e5d63000 	ldrb	r3, [r6]
    55cc:	e1e03003 	mvn	r3, r3
    55d0:	e5c63000 	strb	r3, [r6]
    55d4:	e5d60000 	ldrb	r0, [r6]
    55d8:	eb000ff8 	bl	95c0 <uart0_transmit>
    55dc:	e5da3000 	ldrb	r3, [sl]
    55e0:	e3530000 	cmp	r3, #0	; 0x0
    55e4:	1a00000c 	bne	561c <periodic_task_fbw+0xa90>
    55e8:	e59f33cc 	ldr	r3, [pc, #972]	; 59bc <.text+0x19bc>
    55ec:	e5d31043 	ldrb	r1, [r3, #67]
    55f0:	e1d300b0 	ldrh	r0, [r3]
    55f4:	eb0034aa 	bl	128a4 <____divsi3_from_arm>
    55f8:	e0800100 	add	r0, r0, r0, lsl #2
    55fc:	e1a00080 	mov	r0, r0, lsl #1
    5600:	eb0030fc 	bl	119f8 <__floatsidf>
    5604:	e28f2fc1 	add	r2, pc, #772	; 0x304
    5608:	e892000c 	ldmia	r2, {r2, r3}
    560c:	eb003117 	bl	11a70 <__muldf3>
    5610:	eb00329e 	bl	12090 <__fixunsdfsi>
    5614:	e59f3380 	ldr	r3, [pc, #896]	; 599c <.text+0x199c>
    5618:	e5c30000 	strb	r0, [r3]
    561c:	e59f7364 	ldr	r7, [pc, #868]	; 5988 <.text+0x1988>
    5620:	e1d700f0 	ldrsh	r0, [r7]
    5624:	eb003367 	bl	123c8 <__floatsisf>
    5628:	e1a04000 	mov	r4, r0
    562c:	eb0030fc 	bl	11a24 <__extendsfdf2>
    5630:	e1a06001 	mov	r6, r1
    5634:	e1a05000 	mov	r5, r0
    5638:	e1a00004 	mov	r0, r4
    563c:	e3a01000 	mov	r1, #0	; 0x0
    5640:	eb00343f 	bl	12744 <__gesf2>
    5644:	e3500000 	cmp	r0, #0	; 0x0
    5648:	c28f2fb2 	addgt	r2, pc, #712	; 0x2c8
    564c:	c892000c 	ldmgtia	r2, {r2, r3}
    5650:	c1a01006 	movgt	r1, r6
    5654:	c1a00005 	movgt	r0, r5
    5658:	d28f2d0b 	addle	r2, pc, #704	; 0x2c0
    565c:	d892000c 	ldmleia	r2, {r2, r3}
    5660:	d1a01006 	movle	r1, r6
    5664:	d1a00005 	movle	r0, r5
    5668:	eb003100 	bl	11a70 <__muldf3>
    566c:	eb0032a4 	bl	12104 <__truncdfsf2>
    5670:	eb00345a 	bl	127e0 <__fixsfsi>
    5674:	e2800ffa 	add	r0, r0, #1000	; 0x3e8
    5678:	e1a00800 	mov	r0, r0, lsl #16
    567c:	e1a00820 	mov	r0, r0, lsr #16
    5680:	e3500ffa 	cmp	r0, #1000	; 0x3e8
    5684:	e59f8318 	ldr	r8, [pc, #792]	; 59a4 <.text+0x19a4>
    5688:	33a03ffa 	movcc	r3, #1000	; 0x3e8
    568c:	3a000002 	bcc	569c <periodic_task_fbw+0xb10>
    5690:	e59f3328 	ldr	r3, [pc, #808]	; 59c0 <.text+0x19c0>
    5694:	e1500003 	cmp	r0, r3
    5698:	31a03000 	movcc	r3, r0
    569c:	e1c830b6 	strh	r3, [r8, #6]
    56a0:	e1d800b6 	ldrh	r0, [r8, #6]
    56a4:	eb0030d3 	bl	119f8 <__floatsidf>
    56a8:	e28f2f9e 	add	r2, pc, #632	; 0x278
    56ac:	e892000c 	ldmia	r2, {r2, r3}
    56b0:	eb0030ee 	bl	11a70 <__muldf3>
    56b4:	e28f2f9d 	add	r2, pc, #628	; 0x274
    56b8:	e892000c 	ldmia	r2, {r2, r3}
    56bc:	eb0030eb 	bl	11a70 <__muldf3>
    56c0:	e28f2e27 	add	r2, pc, #624	; 0x270
    56c4:	e892000c 	ldmia	r2, {r2, r3}
    56c8:	eb002fff 	bl	116cc <__adddf3>
    56cc:	eb00326f 	bl	12090 <__fixunsdfsi>
    56d0:	e59fa2ec 	ldr	sl, [pc, #748]	; 59c4 <.text+0x19c4>
    56d4:	e1ca00b6 	strh	r0, [sl, #6]
    56d8:	e1d700f6 	ldrsh	r0, [r7, #6]
    56dc:	eb0030c5 	bl	119f8 <__floatsidf>
    56e0:	e28f2f96 	add	r2, pc, #600	; 0x258
    56e4:	e892000c 	ldmia	r2, {r2, r3}
    56e8:	eb0030e0 	bl	11a70 <__muldf3>
    56ec:	eb003247 	bl	12010 <__fixdfsi>
    56f0:	e1a03800 	mov	r3, r0, lsl #16
    56f4:	e1d700f4 	ldrsh	r0, [r7, #4]
    56f8:	e1a05823 	mov	r5, r3, lsr #16
    56fc:	eb0030bd 	bl	119f8 <__floatsidf>
    5700:	e28f2d09 	add	r2, pc, #576	; 0x240
    5704:	e892000c 	ldmia	r2, {r2, r3}
    5708:	eb0030d8 	bl	11a70 <__muldf3>
    570c:	eb00323f 	bl	12010 <__fixdfsi>
    5710:	e1a03800 	mov	r3, r0, lsl #16
    5714:	e1d700f2 	ldrsh	r0, [r7, #2]
    5718:	e1a04823 	mov	r4, r3, lsr #16
    571c:	eb003329 	bl	123c8 <__floatsisf>
    5720:	eb0030bf 	bl	11a24 <__extendsfdf2>
    5724:	e28f2f89 	add	r2, pc, #548	; 0x224
    5728:	e892000c 	ldmia	r2, {r2, r3}
    572c:	eb0030cf 	bl	11a70 <__muldf3>
    5730:	eb003273 	bl	12104 <__truncdfsf2>
    5734:	eb003429 	bl	127e0 <__fixsfsi>
    5738:	e2800e5d 	add	r0, r0, #1488	; 0x5d0
    573c:	e280000c 	add	r0, r0, #12	; 0xc
    5740:	e1a00800 	mov	r0, r0, lsl #16
    5744:	e1a00820 	mov	r0, r0, lsr #16
    5748:	e3500ffa 	cmp	r0, #1000	; 0x3e8
    574c:	33a02ffa 	movcc	r2, #1000	; 0x3e8
    5750:	3a000002 	bcc	5760 <periodic_task_fbw+0xbd4>
    5754:	e3500e7d 	cmp	r0, #2000	; 0x7d0
    5758:	31a02000 	movcc	r2, r0
    575c:	23a02e7d 	movcs	r2, #2000	; 0x7d0
    5760:	e59f323c 	ldr	r3, [pc, #572]	; 59a4 <.text+0x19a4>
    5764:	e1c320b8 	strh	r2, [r3, #8]
    5768:	e1d800b8 	ldrh	r0, [r8, #8]
    576c:	eb0030a1 	bl	119f8 <__floatsidf>
    5770:	e28f2e1b 	add	r2, pc, #432	; 0x1b0
    5774:	e892000c 	ldmia	r2, {r2, r3}
    5778:	eb0030bc 	bl	11a70 <__muldf3>
    577c:	e28f2f6b 	add	r2, pc, #428	; 0x1ac
    5780:	e892000c 	ldmia	r2, {r2, r3}
    5784:	eb0030b9 	bl	11a70 <__muldf3>
    5788:	e28f2f6a 	add	r2, pc, #424	; 0x1a8
    578c:	e892000c 	ldmia	r2, {r2, r3}
    5790:	eb002fcd 	bl	116cc <__adddf3>
    5794:	eb00323d 	bl	12090 <__fixunsdfsi>
    5798:	e1a05805 	mov	r5, r5, lsl #16
    579c:	e1a03845 	mov	r3, r5, asr #16
    57a0:	e1a06804 	mov	r6, r4, lsl #16
    57a4:	e1ca00b8 	strh	r0, [sl, #8]
    57a8:	e0830846 	add	r0, r3, r6, asr #16
    57ac:	eb003305 	bl	123c8 <__floatsisf>
    57b0:	e59f9210 	ldr	r9, [pc, #528]	; 59c8 <.text+0x19c8>
    57b4:	e1d720f0 	ldrsh	r2, [r7]
    57b8:	e5d93000 	ldrb	r3, [r9]
    57bc:	e1a04000 	mov	r4, r0
    57c0:	e0000293 	mul	r0, r3, r2
    57c4:	eb0032ff 	bl	123c8 <__floatsisf>
    57c8:	e59f11fc 	ldr	r1, [pc, #508]	; 59cc <.text+0x19cc>
    57cc:	eb003374 	bl	125a4 <__divsf3>
    57d0:	e1a01000 	mov	r1, r0
    57d4:	e1a00004 	mov	r0, r4
    57d8:	eb003287 	bl	121fc <__subsf3>
    57dc:	eb003090 	bl	11a24 <__extendsfdf2>
    57e0:	e28f2d06 	add	r2, pc, #384	; 0x180
    57e4:	e892000c 	ldmia	r2, {r2, r3}
    57e8:	eb0030a0 	bl	11a70 <__muldf3>
    57ec:	eb003244 	bl	12104 <__truncdfsf2>
    57f0:	eb0033fa 	bl	127e0 <__fixsfsi>
    57f4:	e2800e5d 	add	r0, r0, #1488	; 0x5d0
    57f8:	e280000c 	add	r0, r0, #12	; 0xc
    57fc:	e1a00800 	mov	r0, r0, lsl #16
    5800:	e1a00820 	mov	r0, r0, lsr #16
    5804:	e3500ffa 	cmp	r0, #1000	; 0x3e8
    5808:	33a02ffa 	movcc	r2, #1000	; 0x3e8
    580c:	3a000002 	bcc	581c <periodic_task_fbw+0xc90>
    5810:	e3500e7d 	cmp	r0, #2000	; 0x7d0
    5814:	31a02000 	movcc	r2, r0
    5818:	23a02e7d 	movcs	r2, #2000	; 0x7d0
    581c:	e59f3180 	ldr	r3, [pc, #384]	; 59a4 <.text+0x19a4>
    5820:	e1c320b2 	strh	r2, [r3, #2]
    5824:	e1d800b2 	ldrh	r0, [r8, #2]
    5828:	eb003072 	bl	119f8 <__floatsidf>
    582c:	e28f20f4 	add	r2, pc, #244	; 0xf4
    5830:	e892000c 	ldmia	r2, {r2, r3}
    5834:	eb00308d 	bl	11a70 <__muldf3>
    5838:	e28f20f0 	add	r2, pc, #240	; 0xf0
    583c:	e892000c 	ldmia	r2, {r2, r3}
    5840:	eb00308a 	bl	11a70 <__muldf3>
    5844:	e28f20ec 	add	r2, pc, #236	; 0xec
    5848:	e892000c 	ldmia	r2, {r2, r3}
    584c:	eb002f9e 	bl	116cc <__adddf3>
    5850:	eb00320e 	bl	12090 <__fixunsdfsi>
    5854:	e1a03845 	mov	r3, r5, asr #16
    5858:	e1ca00b2 	strh	r0, [sl, #2]
    585c:	e0630846 	rsb	r0, r3, r6, asr #16
    5860:	eb0032d8 	bl	123c8 <__floatsisf>
    5864:	e1d720f0 	ldrsh	r2, [r7]
    5868:	e5d93000 	ldrb	r3, [r9]
    586c:	e1a04000 	mov	r4, r0
    5870:	e0000293 	mul	r0, r3, r2
    5874:	eb0032d3 	bl	123c8 <__floatsisf>
    5878:	e59f114c 	ldr	r1, [pc, #332]	; 59cc <.text+0x19cc>
    587c:	eb003348 	bl	125a4 <__divsf3>
    5880:	e1a01000 	mov	r1, r0
    5884:	e1a00004 	mov	r0, r4
    5888:	eb00325c 	bl	12200 <__addsf3>
    588c:	eb003064 	bl	11a24 <__extendsfdf2>
    5890:	e28f20d0 	add	r2, pc, #208	; 0xd0
    5894:	e892000c 	ldmia	r2, {r2, r3}
    5898:	eb003074 	bl	11a70 <__muldf3>
    589c:	eb003218 	bl	12104 <__truncdfsf2>
    58a0:	eb0033ce 	bl	127e0 <__fixsfsi>
    58a4:	e2800e5d 	add	r0, r0, #1488	; 0x5d0
    58a8:	e280000c 	add	r0, r0, #12	; 0xc
    58ac:	e1a00800 	mov	r0, r0, lsl #16
    58b0:	e1a00820 	mov	r0, r0, lsr #16
    58b4:	e3500ffa 	cmp	r0, #1000	; 0x3e8
    58b8:	33a02ffa 	movcc	r2, #1000	; 0x3e8
    58bc:	3a000002 	bcc	58cc <periodic_task_fbw+0xd40>
    58c0:	e3500e7d 	cmp	r0, #2000	; 0x7d0
    58c4:	31a02000 	movcc	r2, r0
    58c8:	23a02e7d 	movcs	r2, #2000	; 0x7d0
    58cc:	e59f30d0 	ldr	r3, [pc, #208]	; 59a4 <.text+0x19a4>
    58d0:	e1c320b0 	strh	r2, [r3]
    58d4:	e1d800b0 	ldrh	r0, [r8]
    58d8:	eb003046 	bl	119f8 <__floatsidf>
    58dc:	e28f2044 	add	r2, pc, #68	; 0x44
    58e0:	e892000c 	ldmia	r2, {r2, r3}
    58e4:	eb003061 	bl	11a70 <__muldf3>
    58e8:	e28f2040 	add	r2, pc, #64	; 0x40
    58ec:	e892000c 	ldmia	r2, {r2, r3}
    58f0:	eb00305e 	bl	11a70 <__muldf3>
    58f4:	e28f203c 	add	r2, pc, #60	; 0x3c
    58f8:	e892000c 	ldmia	r2, {r2, r3}
    58fc:	eb002f72 	bl	116cc <__adddf3>
    5900:	eb0031e2 	bl	12090 <__fixunsdfsi>
    5904:	e1ca00b0 	strh	r0, [sl]
    5908:	e89d6ff0 	ldmia	sp, {r4, r5, r6, r7, r8, r9, sl, fp, sp, lr}
    590c:	e12fff1e 	bx	lr
    5910:	3f924ccc 	swicc	0x00924ccc
    5914:	cccccccd 	stcgtl	12, cr12, [ip], {205}
    5918:	3fb2aaaa 	swicc	0x00b2aaaa
    591c:	aaaab40d 	bge	feab2958 <_end+0xbeab0758>
	...
    5928:	3eb0c6f7 	mrccc	6, 5, ip, cr0, cr7, {7}
    592c:	a0b5ed8d 	adcges	lr, r5, sp, lsl #27
    5930:	416c9c38 	cmnmi	ip, r8, lsr ip
    5934:	00000000 	andeq	r0, r0, r0
    5938:	3fe00000 	swicc	0x00e00000
    593c:	00000000 	andeq	r0, r0, r0
    5940:	3fe19999 	swicc	0x00e19999
    5944:	9999999a 	ldmlsib	r9, {r1, r3, r4, r7, r8, fp, ip, pc}
    5948:	3fe80000 	swicc	0x00e80000
    594c:	00000000 	andeq	r0, r0, r0
    5950:	bfaaaaaa 	swilt	0x00aaaaaa
    5954:	aaaa97e7 	bge	feaab8f8 <_end+0xbeaa96f8>
    5958:	400004e1 	andmi	r0, r0, r1, ror #9
    595c:	400004e2 	andmi	r0, r0, r2, ror #9
    5960:	40000b3e 	andmi	r0, r0, lr, lsr fp
    5964:	40000b70 	andmi	r0, r0, r0, ror fp
    5968:	3faaaaaa 	swicc	0x00aaaaaa
    596c:	aaaa97e7 	bge	feaab910 <_end+0xbeaa9710>
    5970:	40000b3d 	andmi	r0, r0, sp, lsr fp
    5974:	40000b3c 	andmi	r0, r0, ip, lsr fp
    5978:	400008dd 	ldrmid	r0, [r0], -sp
    597c:	40000e1b 	andmi	r0, r0, fp, lsl lr
    5980:	40000e1a 	andmi	r0, r0, sl, lsl lr
    5984:	0001294a 	andeq	r2, r1, sl, asr #18
    5988:	40000b16 	andmi	r0, r0, r6, lsl fp
    598c:	40000531 	andmi	r0, r0, r1, lsr r5
    5990:	400004e3 	andmi	r0, r0, r3, ror #9
    5994:	400004e4 	andmi	r0, r0, r4, ror #9
    5998:	40000e19 	andmi	r0, r0, r9, lsl lr
    599c:	400008dc 	ldrmid	r0, [r0], -ip
    59a0:	40000b83 	andmi	r0, r0, r3, lsl #23
    59a4:	40000b30 	andmi	r0, r0, r0, lsr fp
    59a8:	400004e6 	andmi	r0, r0, r6, ror #9
    59ac:	400004e7 	andmi	r0, r0, r7, ror #9
    59b0:	400004e8 	andmi	r0, r0, r8, ror #9
    59b4:	40000b72 	andmi	r0, r0, r2, ror fp
    59b8:	40000b40 	andmi	r0, r0, r0, asr #22
    59bc:	40000898 	mulmi	r0, r8, r8
    59c0:	000006a4 	andeq	r0, r0, r4, lsr #13
    59c4:	40000b20 	andmi	r0, r0, r0, lsr #22
    59c8:	40000b14 	andmi	r0, r0, r4, lsl fp
    59cc:	42f00000 	rscmis	r0, r0, #0	; 0x0

000059d0 <telecommand_task>:
    59d0:	e1a0c00d 	mov	ip, sp
    59d4:	e92dd9f0 	stmdb	sp!, {r4, r5, r6, r7, r8, fp, ip, lr, pc}
    59d8:	e59f3440 	ldr	r3, [pc, #1088]	; 5e20 <.text+0x1e20>
    59dc:	e59f8440 	ldr	r8, [pc, #1088]	; 5e24 <.text+0x1e24>
    59e0:	e5932000 	ldr	r2, [r3]
    59e4:	e5983000 	ldr	r3, [r8]
    59e8:	e1d310b6 	ldrh	r1, [r3, #6]
    59ec:	e1c210b6 	strh	r1, [r2, #6]
    59f0:	e5d33011 	ldrb	r3, [r3, #17]
    59f4:	e24cb004 	sub	fp, ip, #4	; 0x4
    59f8:	e3130002 	tst	r3, #2	; 0x2
    59fc:	e3a0c000 	mov	ip, #0	; 0x0
    5a00:	e1a0200c 	mov	r2, ip
    5a04:	0a000004 	beq	5a1c <telecommand_task+0x4c>
    5a08:	e59f3418 	ldr	r3, [pc, #1048]	; 5e28 <.text+0x1e28>
    5a0c:	e5d33000 	ldrb	r3, [r3]
    5a10:	e3530001 	cmp	r3, #1	; 0x1
    5a14:	83a02000 	movhi	r2, #0	; 0x0
    5a18:	93a02001 	movls	r2, #1	; 0x1
    5a1c:	e59f0404 	ldr	r0, [pc, #1028]	; 5e28 <.text+0x1e28>
    5a20:	e5d03000 	ldrb	r3, [r0]
    5a24:	e2433003 	sub	r3, r3, #3	; 0x3
    5a28:	e3530001 	cmp	r3, #1	; 0x1
    5a2c:	9a00000d 	bls	5a68 <telecommand_task+0x98>
    5a30:	e59f33f4 	ldr	r3, [pc, #1012]	; 5e2c <.text+0x1e2c>
    5a34:	e5d33000 	ldrb	r3, [r3]
    5a38:	e3530000 	cmp	r3, #0	; 0x0
    5a3c:	0a000009 	beq	5a68 <telecommand_task+0x98>
    5a40:	e59f33e8 	ldr	r3, [pc, #1000]	; 5e30 <.text+0x1e30>
    5a44:	e5d33000 	ldrb	r3, [r3]
    5a48:	e3530000 	cmp	r3, #0	; 0x0
    5a4c:	13a03003 	movne	r3, #3	; 0x3
    5a50:	15c03000 	strneb	r3, [r0]
    5a54:	13a0c001 	movne	ip, #1	; 0x1
    5a58:	e3520000 	cmp	r2, #0	; 0x0
    5a5c:	13a03003 	movne	r3, #3	; 0x3
    5a60:	15c03000 	strneb	r3, [r0]
    5a64:	13a0c001 	movne	ip, #1	; 0x1
    5a68:	e5981000 	ldr	r1, [r8]
    5a6c:	e5d13011 	ldrb	r3, [r1, #17]
    5a70:	e3130010 	tst	r3, #16	; 0x10
    5a74:	0a000017 	beq	5ad8 <telecommand_task+0x108>
    5a78:	e5d03000 	ldrb	r3, [r0]
    5a7c:	e2433003 	sub	r3, r3, #3	; 0x3
    5a80:	e3530001 	cmp	r3, #1	; 0x1
    5a84:	8a000005 	bhi	5aa0 <telecommand_task+0xd0>
    5a88:	e59f23a4 	ldr	r2, [pc, #932]	; 5e34 <.text+0x1e34>
    5a8c:	e5d23000 	ldrb	r3, [r2]
    5a90:	e3530000 	cmp	r3, #0	; 0x0
    5a94:	0a00000e 	beq	5ad4 <telecommand_task+0x104>
    5a98:	e3a03000 	mov	r3, #0	; 0x0
    5a9c:	e5c23000 	strb	r3, [r2]
    5aa0:	e1d130fe 	ldrsh	r3, [r1, #14]
    5aa4:	e3530d4b 	cmp	r3, #4800	; 0x12c0
    5aa8:	c3a02002 	movgt	r2, #2	; 0x2
    5aac:	ca000002 	bgt	5abc <telecommand_task+0xec>
    5ab0:	e3730d4b 	cmn	r3, #4800	; 0x12c0
    5ab4:	d3a02000 	movle	r2, #0	; 0x0
    5ab8:	c3a02001 	movgt	r2, #1	; 0x1
    5abc:	e5d03000 	ldrb	r3, [r0]
    5ac0:	e1530002 	cmp	r3, r2
    5ac4:	13a03001 	movne	r3, #1	; 0x1
    5ac8:	03a03000 	moveq	r3, #0	; 0x0
    5acc:	15c02000 	strneb	r2, [r0]
    5ad0:	e20330ff 	and	r3, r3, #255	; 0xff
    5ad4:	e18cc003 	orr	ip, ip, r3
    5ad8:	e5983000 	ldr	r3, [r8]
    5adc:	e59f7354 	ldr	r7, [pc, #852]	; 5e38 <.text+0x1e38>
    5ae0:	e5d33011 	ldrb	r3, [r3, #17]
    5ae4:	e5d72000 	ldrb	r2, [r7]
    5ae8:	e20310ff 	and	r1, r3, #255	; 0xff
    5aec:	e1520001 	cmp	r2, r1
    5af0:	03a02000 	moveq	r2, #0	; 0x0
    5af4:	0a000004 	beq	5b0c <telecommand_task+0x13c>
    5af8:	e202200f 	and	r2, r2, #15	; 0xf
    5afc:	e203300f 	and	r3, r3, #15	; 0xf
    5b00:	e5c71000 	strb	r1, [r7]
    5b04:	e0522003 	subs	r2, r2, r3
    5b08:	13a02001 	movne	r2, #1	; 0x1
    5b0c:	e19cc002 	orrs	ip, ip, r2
    5b10:	0a00005d 	beq	5c8c <telecommand_task+0x2bc>
    5b14:	e3a0000c 	mov	r0, #12	; 0xc
    5b18:	eb000e94 	bl	9570 <uart0_check_free_space>
    5b1c:	e31000ff 	tst	r0, #255	; 0xff
    5b20:	059f2314 	ldreq	r2, [pc, #788]	; 5e3c <.text+0x1e3c>
    5b24:	05d23000 	ldreqb	r3, [r2]
    5b28:	02833001 	addeq	r3, r3, #1	; 0x1
    5b2c:	05c23000 	streqb	r3, [r2]
    5b30:	0a000055 	beq	5c8c <telecommand_task+0x2bc>
    5b34:	e3a06000 	mov	r6, #0	; 0x0
    5b38:	e3a0007e 	mov	r0, #126	; 0x7e
    5b3c:	e59f42fc 	ldr	r4, [pc, #764]	; 5e40 <.text+0x1e40>
    5b40:	eb000e9e 	bl	95c0 <uart0_transmit>
    5b44:	e1a00006 	mov	r0, r6
    5b48:	eb000e9c 	bl	95c0 <uart0_transmit>
    5b4c:	e3a05001 	mov	r5, #1	; 0x1
    5b50:	e3a0000e 	mov	r0, #14	; 0xe
    5b54:	eb000e99 	bl	95c0 <uart0_transmit>
    5b58:	e1a00005 	mov	r0, r5
    5b5c:	e5c45000 	strb	r5, [r4]
    5b60:	eb000e96 	bl	95c0 <uart0_transmit>
    5b64:	e1a00006 	mov	r0, r6
    5b68:	eb000e94 	bl	95c0 <uart0_transmit>
    5b6c:	e5d43000 	ldrb	r3, [r4]
    5b70:	e0833005 	add	r3, r3, r5
    5b74:	e5c43000 	strb	r3, [r4]
    5b78:	e1a00005 	mov	r0, r5
    5b7c:	eb000e8f 	bl	95c0 <uart0_transmit>
    5b80:	e1a00006 	mov	r0, r6
    5b84:	eb000e8d 	bl	95c0 <uart0_transmit>
    5b88:	e1a00006 	mov	r0, r6
    5b8c:	eb000e8b 	bl	95c0 <uart0_transmit>
    5b90:	e5d43000 	ldrb	r3, [r4]
    5b94:	e283300a 	add	r3, r3, #10	; 0xa
    5b98:	e3a0000a 	mov	r0, #10	; 0xa
    5b9c:	e5c43000 	strb	r3, [r4]
    5ba0:	eb000e86 	bl	95c0 <uart0_transmit>
    5ba4:	e5d43000 	ldrb	r3, [r4]
    5ba8:	e283300b 	add	r3, r3, #11	; 0xb
    5bac:	e3a0000b 	mov	r0, #11	; 0xb
    5bb0:	e5c43000 	strb	r3, [r4]
    5bb4:	eb000e81 	bl	95c0 <uart0_transmit>
    5bb8:	e59f3268 	ldr	r3, [pc, #616]	; 5e28 <.text+0x1e28>
    5bbc:	e5d42000 	ldrb	r2, [r4]
    5bc0:	e5d33000 	ldrb	r3, [r3]
    5bc4:	e1a00003 	mov	r0, r3
    5bc8:	e0833002 	add	r3, r3, r2
    5bcc:	e5c43000 	strb	r3, [r4]
    5bd0:	eb000e7a 	bl	95c0 <uart0_transmit>
    5bd4:	e59f3268 	ldr	r3, [pc, #616]	; 5e44 <.text+0x1e44>
    5bd8:	e5d42000 	ldrb	r2, [r4]
    5bdc:	e5d33000 	ldrb	r3, [r3]
    5be0:	e1a00003 	mov	r0, r3
    5be4:	e0833002 	add	r3, r3, r2
    5be8:	e5c43000 	strb	r3, [r4]
    5bec:	eb000e73 	bl	95c0 <uart0_transmit>
    5bf0:	e59f3250 	ldr	r3, [pc, #592]	; 5e48 <.text+0x1e48>
    5bf4:	e5d42000 	ldrb	r2, [r4]
    5bf8:	e5d33000 	ldrb	r3, [r3]
    5bfc:	e1a00003 	mov	r0, r3
    5c00:	e0833002 	add	r3, r3, r2
    5c04:	e5c43000 	strb	r3, [r4]
    5c08:	eb000e6c 	bl	95c0 <uart0_transmit>
    5c0c:	e59f3238 	ldr	r3, [pc, #568]	; 5e4c <.text+0x1e4c>
    5c10:	e5d42000 	ldrb	r2, [r4]
    5c14:	e5d33000 	ldrb	r3, [r3]
    5c18:	e1a00003 	mov	r0, r3
    5c1c:	e0833002 	add	r3, r3, r2
    5c20:	e5c43000 	strb	r3, [r4]
    5c24:	eb000e65 	bl	95c0 <uart0_transmit>
    5c28:	e59f3220 	ldr	r3, [pc, #544]	; 5e50 <.text+0x1e50>
    5c2c:	e5d42000 	ldrb	r2, [r4]
    5c30:	e5d33000 	ldrb	r3, [r3]
    5c34:	e1a00003 	mov	r0, r3
    5c38:	e0833002 	add	r3, r3, r2
    5c3c:	e5c43000 	strb	r3, [r4]
    5c40:	eb000e5e 	bl	95c0 <uart0_transmit>
    5c44:	e5d73000 	ldrb	r3, [r7]
    5c48:	e5d42000 	ldrb	r2, [r4]
    5c4c:	e1a00003 	mov	r0, r3
    5c50:	e0833002 	add	r3, r3, r2
    5c54:	e5c43000 	strb	r3, [r4]
    5c58:	eb000e58 	bl	95c0 <uart0_transmit>
    5c5c:	e59f31f0 	ldr	r3, [pc, #496]	; 5e54 <.text+0x1e54>
    5c60:	e5d42000 	ldrb	r2, [r4]
    5c64:	e5d33000 	ldrb	r3, [r3]
    5c68:	e1a00003 	mov	r0, r3
    5c6c:	e0833002 	add	r3, r3, r2
    5c70:	e5c43000 	strb	r3, [r4]
    5c74:	eb000e51 	bl	95c0 <uart0_transmit>
    5c78:	e5d43000 	ldrb	r3, [r4]
    5c7c:	e1e03003 	mvn	r3, r3
    5c80:	e5c43000 	strb	r3, [r4]
    5c84:	e5d40000 	ldrb	r0, [r4]
    5c88:	eb000e4c 	bl	95c0 <uart0_transmit>
    5c8c:	e59f6194 	ldr	r6, [pc, #404]	; 5e28 <.text+0x1e28>
    5c90:	e5d65000 	ldrb	r5, [r6]
    5c94:	e3550001 	cmp	r5, #1	; 0x1
    5c98:	1a00001c 	bne	5d10 <telecommand_task+0x340>
    5c9c:	e5984000 	ldr	r4, [r8]
    5ca0:	e1d400f0 	ldrsh	r0, [r4]
    5ca4:	eb0031c7 	bl	123c8 <__floatsisf>
    5ca8:	e59f11a8 	ldr	r1, [pc, #424]	; 5e58 <.text+0x1e58>
    5cac:	eb00323c 	bl	125a4 <__divsf3>
    5cb0:	eb002f5b 	bl	11a24 <__extendsfdf2>
    5cb4:	e28f2f55 	add	r2, pc, #340	; 0x154
    5cb8:	e892000c 	ldmia	r2, {r2, r3}
    5cbc:	eb002f6b 	bl	11a70 <__muldf3>
    5cc0:	e28f2e15 	add	r2, pc, #336	; 0x150
    5cc4:	e892000c 	ldmia	r2, {r2, r3}
    5cc8:	eb002e7f 	bl	116cc <__adddf3>
    5ccc:	eb00310c 	bl	12104 <__truncdfsf2>
    5cd0:	e59f3184 	ldr	r3, [pc, #388]	; 5e5c <.text+0x1e5c>
    5cd4:	e5830000 	str	r0, [r3]
    5cd8:	e1d400f2 	ldrsh	r0, [r4, #2]
    5cdc:	eb0031b9 	bl	123c8 <__floatsisf>
    5ce0:	e59f1170 	ldr	r1, [pc, #368]	; 5e58 <.text+0x1e58>
    5ce4:	eb00322e 	bl	125a4 <__divsf3>
    5ce8:	eb002f4d 	bl	11a24 <__extendsfdf2>
    5cec:	e28f2f47 	add	r2, pc, #284	; 0x11c
    5cf0:	e892000c 	ldmia	r2, {r2, r3}
    5cf4:	eb002f5d 	bl	11a70 <__muldf3>
    5cf8:	e28f2f46 	add	r2, pc, #280	; 0x118
    5cfc:	e892000c 	ldmia	r2, {r2, r3}
    5d00:	eb002e71 	bl	116cc <__adddf3>
    5d04:	eb0030fe 	bl	12104 <__truncdfsf2>
    5d08:	e59f3150 	ldr	r3, [pc, #336]	; 5e60 <.text+0x1e60>
    5d0c:	e5830000 	str	r0, [r3]
    5d10:	e3550001 	cmp	r5, #1	; 0x1
    5d14:	959f3108 	ldrls	r3, [pc, #264]	; 5e24 <.text+0x1e24>
    5d18:	95932000 	ldrls	r2, [r3]
    5d1c:	e59f0100 	ldr	r0, [pc, #256]	; 5e24 <.text+0x1e24>
    5d20:	91d220b4 	ldrlsh	r2, [r2, #4]
    5d24:	959f3138 	ldrls	r3, [pc, #312]	; 5e64 <.text+0x1e64>
    5d28:	91c320b0 	strlsh	r2, [r3]
    5d2c:	e5902000 	ldr	r2, [r0]
    5d30:	e59f3130 	ldr	r3, [pc, #304]	; 5e68 <.text+0x1e68>
    5d34:	e5d21010 	ldrb	r1, [r2, #16]
    5d38:	e5c31000 	strb	r1, [r3]
    5d3c:	e59f3128 	ldr	r3, [pc, #296]	; 5e6c <.text+0x1e6c>
    5d40:	e5d21013 	ldrb	r1, [r2, #19]
    5d44:	e5c31000 	strb	r1, [r3]
    5d48:	e59f3120 	ldr	r3, [pc, #288]	; 5e70 <.text+0x1e70>
    5d4c:	e1d220fa 	ldrsh	r2, [r2, #10]
    5d50:	e1520003 	cmp	r2, r3
    5d54:	e59f2118 	ldr	r2, [pc, #280]	; 5e74 <.text+0x1e74>
    5d58:	d3a03000 	movle	r3, #0	; 0x0
    5d5c:	d1c230b0 	strleh	r3, [r2]
    5d60:	da000009 	ble	5d8c <telecommand_task+0x3bc>
    5d64:	e1d230b0 	ldrh	r3, [r2]
    5d68:	e3530013 	cmp	r3, #19	; 0x13
    5d6c:	8a000006 	bhi	5d8c <telecommand_task+0x3bc>
    5d70:	e2833001 	add	r3, r3, #1	; 0x1
    5d74:	e1c230b0 	strh	r3, [r2]
    5d78:	e1d230b0 	ldrh	r3, [r2]
    5d7c:	e3530014 	cmp	r3, #20	; 0x14
    5d80:	059f30ac 	ldreq	r3, [pc, #172]	; 5e34 <.text+0x1e34>
    5d84:	03a02001 	moveq	r2, #1	; 0x1
    5d88:	05c32000 	streqb	r2, [r3]
    5d8c:	e5903000 	ldr	r3, [r0]
    5d90:	e1d320fa 	ldrsh	r2, [r3, #10]
    5d94:	e59f30dc 	ldr	r3, [pc, #220]	; 5e78 <.text+0x1e78>
    5d98:	e1520003 	cmp	r2, r3
    5d9c:	e59f20d8 	ldr	r2, [pc, #216]	; 5e7c <.text+0x1e7c>
    5da0:	a3a01000 	movge	r1, #0	; 0x0
    5da4:	a1c210b0 	strgeh	r1, [r2]
    5da8:	aa000009 	bge	5dd4 <telecommand_task+0x404>
    5dac:	e1d230b0 	ldrh	r3, [r2]
    5db0:	e3530013 	cmp	r3, #19	; 0x13
    5db4:	8a000006 	bhi	5dd4 <telecommand_task+0x404>
    5db8:	e2833001 	add	r3, r3, #1	; 0x1
    5dbc:	e1c230b0 	strh	r3, [r2]
    5dc0:	e1d230b0 	ldrh	r3, [r2]
    5dc4:	e3530014 	cmp	r3, #20	; 0x14
    5dc8:	059f30b0 	ldreq	r3, [pc, #176]	; 5e80 <.text+0x1e80>
    5dcc:	03a02001 	moveq	r2, #1	; 0x1
    5dd0:	05c32000 	streqb	r2, [r3]
    5dd4:	e59f30a8 	ldr	r3, [pc, #168]	; 5e84 <.text+0x1e84>
    5dd8:	e1d330b0 	ldrh	r3, [r3]
    5ddc:	e3530000 	cmp	r3, #0	; 0x0
    5de0:	1a000008 	bne	5e08 <telecommand_task+0x438>
    5de4:	e5d63000 	ldrb	r3, [r6]
    5de8:	e3530002 	cmp	r3, #2	; 0x2
    5dec:	1a000005 	bne	5e08 <telecommand_task+0x438>
    5df0:	e5903000 	ldr	r3, [r0]
    5df4:	e1d330f4 	ldrsh	r3, [r3, #4]
    5df8:	e3530d87 	cmp	r3, #8640	; 0x21c0
    5dfc:	c59f3028 	ldrgt	r3, [pc, #40]	; 5e2c <.text+0x1e2c>
    5e00:	c3a02001 	movgt	r2, #1	; 0x1
    5e04:	c5c32000 	strgtb	r2, [r3]
    5e08:	e89d69f0 	ldmia	sp, {r4, r5, r6, r7, r8, fp, sp, lr}
    5e0c:	e12fff1e 	bx	lr
    5e10:	3fdbecde 	swicc	0x00dbecde
    5e14:	5da115a9 	cfstr32pl	mvfx1, [r1, #676]!
	...
    5e20:	4000000c 	andmi	r0, r0, ip
    5e24:	40000010 	andmi	r0, r0, r0, lsl r0
    5e28:	40000003 	andmi	r0, r0, r3
    5e2c:	400004f1 	strmid	r0, [r0], -r1
    5e30:	40000e94 	mulmi	r0, r4, lr
    5e34:	400008e4 	andmi	r0, r0, r4, ror #17
    5e38:	40000514 	andmi	r0, r0, r4, lsl r5
    5e3c:	40000b83 	andmi	r0, r0, r3, lsl #23
    5e40:	40000e19 	andmi	r0, r0, r9, lsl lr
    5e44:	40000f44 	andmi	r0, r0, r4, asr #30
    5e48:	400004f4 	strmid	r0, [r0], -r4
    5e4c:	40000e90 	mulmi	r0, r0, lr
    5e50:	400004f6 	strmid	r0, [r0], -r6
    5e54:	400004f3 	strmid	r0, [r0], -r3
    5e58:	46160000 	ldrmi	r0, [r6], -r0
    5e5c:	40000f20 	andmi	r0, r0, r0, lsr #30
    5e60:	40000efc 	strmid	r0, [r0], -ip
    5e64:	40000f5c 	andmi	r0, r0, ip, asr pc
    5e68:	40000515 	andmi	r0, r0, r5, lsl r5
    5e6c:	40000b14 	andmi	r0, r0, r4, lsl fp
    5e70:	00001c20 	andeq	r1, r0, r0, lsr #24
    5e74:	400004f8 	strmid	r0, [r0], -r8
    5e78:	ffffe3e0 	swinv	0x00ffe3e0
    5e7c:	400004fa 	strmid	r0, [r0], -sl
    5e80:	40000ae8 	andmi	r0, r0, r8, ror #21
    5e84:	40000e20 	andmi	r0, r0, r0, lsr #28

00005e88 <navigation_task>:
    5e88:	e1a0c00d 	mov	ip, sp
    5e8c:	e92dd870 	stmdb	sp!, {r4, r5, r6, fp, ip, lr, pc}
    5e90:	e59f32e0 	ldr	r3, [pc, #736]	; 6178 <.text+0x2178>
    5e94:	e24cb004 	sub	fp, ip, #4	; 0x4
    5e98:	e24dd008 	sub	sp, sp, #8	; 0x8
    5e9c:	e5d31000 	ldrb	r1, [r3]
    5ea0:	e59f32d4 	ldr	r3, [pc, #724]	; 617c <.text+0x217c>
    5ea4:	e3a02003 	mov	r2, #3	; 0x3
    5ea8:	e3510003 	cmp	r1, #3	; 0x3
    5eac:	e5c32000 	strb	r2, [r3]
    5eb0:	1a000001 	bne	5ebc <navigation_task+0x34>
    5eb4:	eb001449 	bl	afe0 <nav_home>
    5eb8:	ea000004 	b	5ed0 <navigation_task+0x48>
    5ebc:	e3510004 	cmp	r1, #4	; 0x4
    5ec0:	1a000001 	bne	5ecc <navigation_task+0x44>
    5ec4:	eb0016cc 	bl	b9fc <nav_without_gps>
    5ec8:	ea000000 	b	5ed0 <navigation_task+0x48>
    5ecc:	eb001486 	bl	b0ec <nav_update>
    5ed0:	e59f32a8 	ldr	r3, [pc, #680]	; 6180 <.text+0x2180>
    5ed4:	e5930000 	ldr	r0, [r3]
    5ed8:	eb003240 	bl	127e0 <__fixsfsi>
    5edc:	e59f32a0 	ldr	r3, [pc, #672]	; 6184 <.text+0x2184>
    5ee0:	e14b01ba 	strh	r0, [fp, #-26]
    5ee4:	e5930000 	ldr	r0, [r3]
    5ee8:	eb00323c 	bl	127e0 <__fixsfsi>
    5eec:	e59f3294 	ldr	r3, [pc, #660]	; 6188 <.text+0x2188>
    5ef0:	e14b01bc 	strh	r0, [fp, #-28]
    5ef4:	e5930000 	ldr	r0, [r3]
    5ef8:	eb002ec9 	bl	11a24 <__extendsfdf2>
    5efc:	e28f2f99 	add	r2, pc, #612	; 0x264
    5f00:	e892000c 	ldmia	r2, {r2, r3}
    5f04:	eb002f77 	bl	11ce8 <__divdf3>
    5f08:	e28f2e26 	add	r2, pc, #608	; 0x260
    5f0c:	e892000c 	ldmia	r2, {r2, r3}
    5f10:	eb002ed6 	bl	11a70 <__muldf3>
    5f14:	eb00303d 	bl	12010 <__fixdfsi>
    5f18:	e14b01be 	strh	r0, [fp, #-30]
    5f1c:	e3a00015 	mov	r0, #21	; 0x15
    5f20:	eb000d92 	bl	9570 <uart0_check_free_space>
    5f24:	e31000ff 	tst	r0, #255	; 0xff
    5f28:	059f225c 	ldreq	r2, [pc, #604]	; 618c <.text+0x218c>
    5f2c:	05d23000 	ldreqb	r3, [r2]
    5f30:	02833001 	addeq	r3, r3, #1	; 0x1
    5f34:	05c23000 	streqb	r3, [r2]
    5f38:	0a000087 	beq	615c <navigation_task+0x2d4>
    5f3c:	e3a06000 	mov	r6, #0	; 0x0
    5f40:	e3a0007e 	mov	r0, #126	; 0x7e
    5f44:	eb000d9d 	bl	95c0 <uart0_transmit>
    5f48:	e1a00006 	mov	r0, r6
    5f4c:	e59f423c 	ldr	r4, [pc, #572]	; 6190 <.text+0x2190>
    5f50:	e3a05001 	mov	r5, #1	; 0x1
    5f54:	eb000d99 	bl	95c0 <uart0_transmit>
    5f58:	e3a00017 	mov	r0, #23	; 0x17
    5f5c:	eb000d97 	bl	95c0 <uart0_transmit>
    5f60:	e1a00005 	mov	r0, r5
    5f64:	e5c45000 	strb	r5, [r4]
    5f68:	eb000d94 	bl	95c0 <uart0_transmit>
    5f6c:	e1a00006 	mov	r0, r6
    5f70:	eb000d92 	bl	95c0 <uart0_transmit>
    5f74:	e5d43000 	ldrb	r3, [r4]
    5f78:	e1a00005 	mov	r0, r5
    5f7c:	e0833005 	add	r3, r3, r5
    5f80:	e5c43000 	strb	r3, [r4]
    5f84:	eb000d8d 	bl	95c0 <uart0_transmit>
    5f88:	e1a00006 	mov	r0, r6
    5f8c:	eb000d8b 	bl	95c0 <uart0_transmit>
    5f90:	e1a00006 	mov	r0, r6
    5f94:	eb000d89 	bl	95c0 <uart0_transmit>
    5f98:	e5d43000 	ldrb	r3, [r4]
    5f9c:	e3a0000a 	mov	r0, #10	; 0xa
    5fa0:	e283300a 	add	r3, r3, #10	; 0xa
    5fa4:	e5c43000 	strb	r3, [r4]
    5fa8:	eb000d84 	bl	95c0 <uart0_transmit>
    5fac:	e5d43000 	ldrb	r3, [r4]
    5fb0:	e3a0000a 	mov	r0, #10	; 0xa
    5fb4:	e283300a 	add	r3, r3, #10	; 0xa
    5fb8:	e5c43000 	strb	r3, [r4]
    5fbc:	eb000d7f 	bl	95c0 <uart0_transmit>
    5fc0:	e59f31cc 	ldr	r3, [pc, #460]	; 6194 <.text+0x2194>
    5fc4:	e5d42000 	ldrb	r2, [r4]
    5fc8:	e5d33000 	ldrb	r3, [r3]
    5fcc:	e1a00003 	mov	r0, r3
    5fd0:	e0833002 	add	r3, r3, r2
    5fd4:	e5c43000 	strb	r3, [r4]
    5fd8:	eb000d78 	bl	95c0 <uart0_transmit>
    5fdc:	e59f31b4 	ldr	r3, [pc, #436]	; 6198 <.text+0x2198>
    5fe0:	e5d42000 	ldrb	r2, [r4]
    5fe4:	e5d33000 	ldrb	r3, [r3]
    5fe8:	e1a00003 	mov	r0, r3
    5fec:	e0833002 	add	r3, r3, r2
    5ff0:	e5c43000 	strb	r3, [r4]
    5ff4:	eb000d71 	bl	95c0 <uart0_transmit>
    5ff8:	e5d42000 	ldrb	r2, [r4]
    5ffc:	e55b301a 	ldrb	r3, [fp, #-26]
    6000:	e1a00003 	mov	r0, r3
    6004:	e0833002 	add	r3, r3, r2
    6008:	e5c43000 	strb	r3, [r4]
    600c:	eb000d6b 	bl	95c0 <uart0_transmit>
    6010:	e5d42000 	ldrb	r2, [r4]
    6014:	e55b3019 	ldrb	r3, [fp, #-25]
    6018:	e1a00003 	mov	r0, r3
    601c:	e0833002 	add	r3, r3, r2
    6020:	e5c43000 	strb	r3, [r4]
    6024:	eb000d65 	bl	95c0 <uart0_transmit>
    6028:	e5d42000 	ldrb	r2, [r4]
    602c:	e55b301c 	ldrb	r3, [fp, #-28]
    6030:	e1a00003 	mov	r0, r3
    6034:	e0833002 	add	r3, r3, r2
    6038:	e5c43000 	strb	r3, [r4]
    603c:	eb000d5f 	bl	95c0 <uart0_transmit>
    6040:	e5d42000 	ldrb	r2, [r4]
    6044:	e55b301b 	ldrb	r3, [fp, #-27]
    6048:	e1a00003 	mov	r0, r3
    604c:	e0833002 	add	r3, r3, r2
    6050:	e5c43000 	strb	r3, [r4]
    6054:	eb000d59 	bl	95c0 <uart0_transmit>
    6058:	e5d42000 	ldrb	r2, [r4]
    605c:	e55b301e 	ldrb	r3, [fp, #-30]
    6060:	e1a00003 	mov	r0, r3
    6064:	e0833002 	add	r3, r3, r2
    6068:	e5c43000 	strb	r3, [r4]
    606c:	eb000d53 	bl	95c0 <uart0_transmit>
    6070:	e55b001d 	ldrb	r0, [fp, #-29]
    6074:	e5d43000 	ldrb	r3, [r4]
    6078:	e59f511c 	ldr	r5, [pc, #284]	; 619c <.text+0x219c>
    607c:	e0803003 	add	r3, r0, r3
    6080:	e5c43000 	strb	r3, [r4]
    6084:	eb000d4d 	bl	95c0 <uart0_transmit>
    6088:	e5d53000 	ldrb	r3, [r5]
    608c:	e5d42000 	ldrb	r2, [r4]
    6090:	e1a00003 	mov	r0, r3
    6094:	e0833002 	add	r3, r3, r2
    6098:	e5c43000 	strb	r3, [r4]
    609c:	eb000d47 	bl	95c0 <uart0_transmit>
    60a0:	e5d53001 	ldrb	r3, [r5, #1]
    60a4:	e5d42000 	ldrb	r2, [r4]
    60a8:	e1a00003 	mov	r0, r3
    60ac:	e0833002 	add	r3, r3, r2
    60b0:	e5c43000 	strb	r3, [r4]
    60b4:	eb000d41 	bl	95c0 <uart0_transmit>
    60b8:	e5d53002 	ldrb	r3, [r5, #2]
    60bc:	e5d42000 	ldrb	r2, [r4]
    60c0:	e1a00003 	mov	r0, r3
    60c4:	e0833002 	add	r3, r3, r2
    60c8:	e5c43000 	strb	r3, [r4]
    60cc:	eb000d3b 	bl	95c0 <uart0_transmit>
    60d0:	e5d50003 	ldrb	r0, [r5, #3]
    60d4:	e5d43000 	ldrb	r3, [r4]
    60d8:	e59f50c0 	ldr	r5, [pc, #192]	; 61a0 <.text+0x21a0>
    60dc:	e0803003 	add	r3, r0, r3
    60e0:	e5c43000 	strb	r3, [r4]
    60e4:	eb000d35 	bl	95c0 <uart0_transmit>
    60e8:	e5d53000 	ldrb	r3, [r5]
    60ec:	e5d42000 	ldrb	r2, [r4]
    60f0:	e1a00003 	mov	r0, r3
    60f4:	e0833002 	add	r3, r3, r2
    60f8:	e5c43000 	strb	r3, [r4]
    60fc:	eb000d2f 	bl	95c0 <uart0_transmit>
    6100:	e5d53001 	ldrb	r3, [r5, #1]
    6104:	e5d42000 	ldrb	r2, [r4]
    6108:	e1a00003 	mov	r0, r3
    610c:	e0833002 	add	r3, r3, r2
    6110:	e5c43000 	strb	r3, [r4]
    6114:	eb000d29 	bl	95c0 <uart0_transmit>
    6118:	e5d53002 	ldrb	r3, [r5, #2]
    611c:	e5d42000 	ldrb	r2, [r4]
    6120:	e1a00003 	mov	r0, r3
    6124:	e0833002 	add	r3, r3, r2
    6128:	e5c43000 	strb	r3, [r4]
    612c:	eb000d23 	bl	95c0 <uart0_transmit>
    6130:	e5d53003 	ldrb	r3, [r5, #3]
    6134:	e5d42000 	ldrb	r2, [r4]
    6138:	e1a00003 	mov	r0, r3
    613c:	e0833002 	add	r3, r3, r2
    6140:	e5c43000 	strb	r3, [r4]
    6144:	eb000d1d 	bl	95c0 <uart0_transmit>
    6148:	e5d43000 	ldrb	r3, [r4]
    614c:	e1e03003 	mvn	r3, r3
    6150:	e5c43000 	strb	r3, [r4]
    6154:	e5d40000 	ldrb	r0, [r4]
    6158:	eb000d18 	bl	95c0 <uart0_transmit>
    615c:	e24bd018 	sub	sp, fp, #24	; 0x18
    6160:	e89d6870 	ldmia	sp, {r4, r5, r6, fp, sp, lr}
    6164:	e12fff1e 	bx	lr
    6168:	400921fb 	strmid	r2, [r9], -fp
    616c:	54442d18 	strplb	r2, [r4], #-3352
    6170:	409c2000 	addmis	r2, ip, r0
    6174:	00000000 	andeq	r0, r0, r0
    6178:	40000003 	andmi	r0, r0, r3
    617c:	400004f4 	strmid	r0, [r0], -r4
    6180:	40000e4c 	andmi	r0, r0, ip, asr #28
    6184:	40000e64 	andmi	r0, r0, r4, ror #28
    6188:	40000f04 	andmi	r0, r0, r4, lsl #30
    618c:	40000b83 	andmi	r0, r0, r3, lsl #23
    6190:	40000e19 	andmi	r0, r0, r9, lsl lr
    6194:	40000e91 	mulmi	r0, r1, lr
    6198:	40000ea8 	andmi	r0, r0, r8, lsr #29
    619c:	40000e6c 	andmi	r0, r0, ip, ror #28
    61a0:	40000ea0 	andmi	r0, r0, r0, lsr #29

000061a4 <constraint_task>:
    61a4:	e12fff1e 	bx	lr

000061a8 <guidance_task>:
    61a8:	e1a0c00d 	mov	ip, sp
    61ac:	e92dd870 	stmdb	sp!, {r4, r5, r6, fp, ip, lr, pc}
    61b0:	e59f413c 	ldr	r4, [pc, #316]	; 62f4 <.text+0x22f4>
    61b4:	e5d43000 	ldrb	r3, [r4]
    61b8:	e3530003 	cmp	r3, #3	; 0x3
    61bc:	e24cb004 	sub	fp, ip, #4	; 0x4
    61c0:	0b001c77 	bleq	d3a4 <v_ctl_altitude_loop>
    61c4:	e59f312c 	ldr	r3, [pc, #300]	; 62f8 <.text+0x22f8>
    61c8:	e5d33000 	ldrb	r3, [r3]
    61cc:	e2433002 	sub	r3, r3, #2	; 0x2
    61d0:	e3530002 	cmp	r3, #2	; 0x2
    61d4:	8a00002f 	bhi	6298 <guidance_task+0xf0>
    61d8:	e59f311c 	ldr	r3, [pc, #284]	; 62fc <.text+0x22fc>
    61dc:	e5d33000 	ldrb	r3, [r3]
    61e0:	e3530002 	cmp	r3, #2	; 0x2
    61e4:	e59f3114 	ldr	r3, [pc, #276]	; 6300 <.text+0x2300>
    61e8:	e3a02000 	mov	r2, #0	; 0x0
    61ec:	e5c32000 	strb	r2, [r3]
    61f0:	8b0019b3 	blhi	c8c4 <h_ctl_course_loop>
    61f4:	e5d43000 	ldrb	r3, [r4]
    61f8:	e3530001 	cmp	r3, #1	; 0x1
    61fc:	8b001caa 	blhi	d4ac <v_ctl_climb_loop>
    6200:	e5d43000 	ldrb	r3, [r4]
    6204:	e3530001 	cmp	r3, #1	; 0x1
    6208:	059f20f4 	ldreq	r2, [pc, #244]	; 6304 <.text+0x2304>
    620c:	059f30f4 	ldreq	r3, [pc, #244]	; 6308 <.text+0x2308>
    6210:	01d220b0 	ldreqh	r2, [r2]
    6214:	01c320b0 	streqh	r2, [r3]
    6218:	e59f30ec 	ldr	r3, [pc, #236]	; 630c <.text+0x230c>
    621c:	e59f60ec 	ldr	r6, [pc, #236]	; 6310 <.text+0x2310>
    6220:	e5934000 	ldr	r4, [r3]
    6224:	e3a0143f 	mov	r1, #1056964608	; 0x3f000000
    6228:	e1a00004 	mov	r0, r4
    622c:	e5864000 	str	r4, [r6]
    6230:	eb003143 	bl	12744 <__gesf2>
    6234:	e3500000 	cmp	r0, #0	; 0x0
    6238:	c3a0343f 	movgt	r3, #1056964608	; 0x3f000000
    623c:	ca000005 	bgt	6258 <guidance_task+0xb0>
    6240:	e1a00004 	mov	r0, r4
    6244:	e3a014bf 	mov	r1, #-1090519040	; 0xbf000000
    6248:	eb00313f 	bl	1274c <__lesf2>
    624c:	e3500000 	cmp	r0, #0	; 0x0
    6250:	aa000001 	bge	625c <guidance_task+0xb4>
    6254:	e3a034bf 	mov	r3, #-1090519040	; 0xbf000000
    6258:	e5863000 	str	r3, [r6]
    625c:	e59f30b0 	ldr	r3, [pc, #176]	; 6314 <.text+0x2314>
    6260:	e5d33000 	ldrb	r3, [r3]
    6264:	e3530000 	cmp	r3, #0	; 0x0
    6268:	1a000007 	bne	628c <guidance_task+0xe4>
    626c:	e59f30a4 	ldr	r3, [pc, #164]	; 6318 <.text+0x2318>
    6270:	e1d330b0 	ldrh	r3, [r3]
    6274:	e3530000 	cmp	r3, #0	; 0x0
    6278:	1a000006 	bne	6298 <guidance_task+0xf0>
    627c:	e59f3098 	ldr	r3, [pc, #152]	; 631c <.text+0x231c>
    6280:	e5d33000 	ldrb	r3, [r3]
    6284:	e3530000 	cmp	r3, #0	; 0x0
    6288:	1a000002 	bne	6298 <guidance_task+0xf0>
    628c:	e59f3074 	ldr	r3, [pc, #116]	; 6308 <.text+0x2308>
    6290:	e3a02000 	mov	r2, #0	; 0x0
    6294:	e1c320b0 	strh	r2, [r3]
    6298:	e59f6080 	ldr	r6, [pc, #128]	; 6320 <.text+0x2320>
    629c:	e5960000 	ldr	r0, [r6]
    62a0:	eb002ddf 	bl	11a24 <__extendsfdf2>
    62a4:	e59f305c 	ldr	r3, [pc, #92]	; 6308 <.text+0x2308>
    62a8:	e1a05001 	mov	r5, r1
    62ac:	e1a04000 	mov	r4, r0
    62b0:	e1d300f0 	ldrsh	r0, [r3]
    62b4:	eb003043 	bl	123c8 <__floatsisf>
    62b8:	eb002dd9 	bl	11a24 <__extendsfdf2>
    62bc:	e28f2028 	add	r2, pc, #40	; 0x28
    62c0:	e892000c 	ldmia	r2, {r2, r3}
    62c4:	eb002de9 	bl	11a70 <__muldf3>
    62c8:	e1a03001 	mov	r3, r1
    62cc:	e1a02000 	mov	r2, r0
    62d0:	e1a01005 	mov	r1, r5
    62d4:	e1a00004 	mov	r0, r4
    62d8:	eb002cfb 	bl	116cc <__adddf3>
    62dc:	eb002f88 	bl	12104 <__truncdfsf2>
    62e0:	e5860000 	str	r0, [r6]
    62e4:	e89d6870 	ldmia	sp, {r4, r5, r6, fp, sp, lr}
    62e8:	e12fff1e 	bx	lr
    62ec:	3ef77bd5 	mrccc	11, 7, r7, cr7, cr5, {6}
    62f0:	f29ea6d8 	addnvs	sl, lr, #226492416	; 0xd800000
    62f4:	40000f44 	andmi	r0, r0, r4, asr #30
    62f8:	40000003 	andmi	r0, r0, r3
    62fc:	400004f4 	strmid	r0, [r0], -r4
    6300:	40000ecc 	andmi	r0, r0, ip, asr #29
    6304:	40000e80 	andmi	r0, r0, r0, lsl #29
    6308:	40000f5c 	andmi	r0, r0, ip, asr pc
    630c:	400005a0 	andmi	r0, r0, r0, lsr #11
    6310:	40000efc 	strmid	r0, [r0], -ip
    6314:	400004f2 	strmid	r0, [r0], -r2
    6318:	40000e20 	andmi	r0, r0, r0, lsr #28
    631c:	400004f1 	strmid	r0, [r0], -r1
    6320:	40000af4 	strmid	r0, [r0], -r4

00006324 <controllability_task>:
    6324:	e12fff1e 	bx	lr

00006328 <statistics_task>:
    6328:	e12fff1e 	bx	lr

0000632c <periodic_task_ap>:
    632c:	e1a0c00d 	mov	ip, sp
    6330:	e92ddff0 	stmdb	sp!, {r4, r5, r6, r7, r8, r9, sl, fp, ip, lr, pc}
    6334:	e59f263c 	ldr	r2, [pc, #1596]	; 6978 <.text+0x2978>
    6338:	e24cb004 	sub	fp, ip, #4	; 0x4
    633c:	e24dd01c 	sub	sp, sp, #28	; 0x1c
    6340:	e5d23000 	ldrb	r3, [r2]
    6344:	e2833001 	add	r3, r3, #1	; 0x1
    6348:	e5c23000 	strb	r3, [r2]
    634c:	e5d23000 	ldrb	r3, [r2]
    6350:	e3530002 	cmp	r3, #2	; 0x2
    6354:	83a03000 	movhi	r3, #0	; 0x0
    6358:	85c23000 	strhib	r3, [r2]
    635c:	e59f2618 	ldr	r2, [pc, #1560]	; 697c <.text+0x297c>
    6360:	e5d23000 	ldrb	r3, [r2]
    6364:	e2833001 	add	r3, r3, #1	; 0x1
    6368:	e5c23000 	strb	r3, [r2]
    636c:	e5d23000 	ldrb	r3, [r2]
    6370:	e3530005 	cmp	r3, #5	; 0x5
    6374:	83a03000 	movhi	r3, #0	; 0x0
    6378:	85c23000 	strhib	r3, [r2]
    637c:	e59f25fc 	ldr	r2, [pc, #1532]	; 6980 <.text+0x2980>
    6380:	e5d23000 	ldrb	r3, [r2]
    6384:	e2833001 	add	r3, r3, #1	; 0x1
    6388:	e5c23000 	strb	r3, [r2]
    638c:	e5d23000 	ldrb	r3, [r2]
    6390:	e353000e 	cmp	r3, #14	; 0xe
    6394:	83a03000 	movhi	r3, #0	; 0x0
    6398:	85c23000 	strhib	r3, [r2]
    639c:	e59f25e0 	ldr	r2, [pc, #1504]	; 6984 <.text+0x2984>
    63a0:	e5d23000 	ldrb	r3, [r2]
    63a4:	e2833001 	add	r3, r3, #1	; 0x1
    63a8:	e5c23000 	strb	r3, [r2]
    63ac:	e5d23000 	ldrb	r3, [r2]
    63b0:	e59f75d0 	ldr	r7, [pc, #1488]	; 6988 <.text+0x2988>
    63b4:	e353003c 	cmp	r3, #60	; 0x3c
    63b8:	83a03000 	movhi	r3, #0	; 0x0
    63bc:	85c23000 	strhib	r3, [r2]
    63c0:	e5d73000 	ldrb	r3, [r7]
    63c4:	e3530000 	cmp	r3, #0	; 0x0
    63c8:	0a00003d 	beq	64c4 <periodic_task_ap+0x198>
    63cc:	e3a00007 	mov	r0, #7	; 0x7
    63d0:	eb000c66 	bl	9570 <uart0_check_free_space>
    63d4:	e31000ff 	tst	r0, #255	; 0xff
    63d8:	059f2700 	ldreq	r2, [pc, #1792]	; 6ae0 <.text+0x2ae0>
    63dc:	05d23000 	ldreqb	r3, [r2]
    63e0:	02833001 	addeq	r3, r3, #1	; 0x1
    63e4:	05c23000 	streqb	r3, [r2]
    63e8:	0a000032 	beq	64b8 <periodic_task_ap+0x18c>
    63ec:	e3a05000 	mov	r5, #0	; 0x0
    63f0:	e3a0007e 	mov	r0, #126	; 0x7e
    63f4:	e59f46d0 	ldr	r4, [pc, #1744]	; 6acc <.text+0x2acc>
    63f8:	eb000c70 	bl	95c0 <uart0_transmit>
    63fc:	e1a00005 	mov	r0, r5
    6400:	e3a06001 	mov	r6, #1	; 0x1
    6404:	eb000c6d 	bl	95c0 <uart0_transmit>
    6408:	e3a00009 	mov	r0, #9	; 0x9
    640c:	eb000c6b 	bl	95c0 <uart0_transmit>
    6410:	e1a00006 	mov	r0, r6
    6414:	e5c46000 	strb	r6, [r4]
    6418:	eb000c68 	bl	95c0 <uart0_transmit>
    641c:	e1a00005 	mov	r0, r5
    6420:	eb000c66 	bl	95c0 <uart0_transmit>
    6424:	e5d43000 	ldrb	r3, [r4]
    6428:	e0833006 	add	r3, r3, r6
    642c:	e5c43000 	strb	r3, [r4]
    6430:	e1a00006 	mov	r0, r6
    6434:	eb000c61 	bl	95c0 <uart0_transmit>
    6438:	e1a00005 	mov	r0, r5
    643c:	eb000c5f 	bl	95c0 <uart0_transmit>
    6440:	e1a00005 	mov	r0, r5
    6444:	eb000c5d 	bl	95c0 <uart0_transmit>
    6448:	e5d43000 	ldrb	r3, [r4]
    644c:	e283300a 	add	r3, r3, #10	; 0xa
    6450:	e3a0000a 	mov	r0, #10	; 0xa
    6454:	e5c43000 	strb	r3, [r4]
    6458:	eb000c58 	bl	95c0 <uart0_transmit>
    645c:	e5d43000 	ldrb	r3, [r4]
    6460:	e59f5524 	ldr	r5, [pc, #1316]	; 698c <.text+0x298c>
    6464:	e0833006 	add	r3, r3, r6
    6468:	e1a00006 	mov	r0, r6
    646c:	e5c43000 	strb	r3, [r4]
    6470:	eb000c52 	bl	95c0 <uart0_transmit>
    6474:	e5d53000 	ldrb	r3, [r5]
    6478:	e5d42000 	ldrb	r2, [r4]
    647c:	e1a00003 	mov	r0, r3
    6480:	e0833002 	add	r3, r3, r2
    6484:	e5c43000 	strb	r3, [r4]
    6488:	eb000c4c 	bl	95c0 <uart0_transmit>
    648c:	e5d53001 	ldrb	r3, [r5, #1]
    6490:	e5d42000 	ldrb	r2, [r4]
    6494:	e1a00003 	mov	r0, r3
    6498:	e0833002 	add	r3, r3, r2
    649c:	e5c43000 	strb	r3, [r4]
    64a0:	eb000c46 	bl	95c0 <uart0_transmit>
    64a4:	e5d43000 	ldrb	r3, [r4]
    64a8:	e1e03003 	mvn	r3, r3
    64ac:	e5c43000 	strb	r3, [r4]
    64b0:	e5d40000 	ldrb	r0, [r4]
    64b4:	eb000c41 	bl	95c0 <uart0_transmit>
    64b8:	e3a03000 	mov	r3, #0	; 0x0
    64bc:	e5c73000 	strb	r3, [r7]
    64c0:	ea00080c 	b	84f8 <.text+0x44f8>
    64c4:	e59f34c4 	ldr	r3, [pc, #1220]	; 6990 <.text+0x2990>
    64c8:	e5d36000 	ldrb	r6, [r3]
    64cc:	e3560000 	cmp	r6, #0	; 0x0
    64d0:	1a000785 	bne	82ec <.text+0x42ec>
    64d4:	e59fa4b8 	ldr	sl, [pc, #1208]	; 6994 <.text+0x2994>
    64d8:	e5da3000 	ldrb	r3, [sl]
    64dc:	e2833001 	add	r3, r3, #1	; 0x1
    64e0:	e5ca3000 	strb	r3, [sl]
    64e4:	e59f94ac 	ldr	r9, [pc, #1196]	; 6998 <.text+0x2998>
    64e8:	e5da3000 	ldrb	r3, [sl]
    64ec:	e353001d 	cmp	r3, #29	; 0x1d
    64f0:	e5d93000 	ldrb	r3, [r9]
    64f4:	e2833001 	add	r3, r3, #1	; 0x1
    64f8:	e5c93000 	strb	r3, [r9]
    64fc:	e59f25e0 	ldr	r2, [pc, #1504]	; 6ae4 <.text+0x2ae4>
    6500:	e5d93000 	ldrb	r3, [r9]
    6504:	85ca6000 	strhib	r6, [sl]
    6508:	e353003b 	cmp	r3, #59	; 0x3b
    650c:	e5d23000 	ldrb	r3, [r2]
    6510:	e2833001 	add	r3, r3, #1	; 0x1
    6514:	e5c23000 	strb	r3, [r2]
    6518:	e5d23000 	ldrb	r3, [r2]
    651c:	85c96000 	strhib	r6, [r9]
    6520:	e3530077 	cmp	r3, #119	; 0x77
    6524:	85c26000 	strhib	r6, [r2]
    6528:	e59f246c 	ldr	r2, [pc, #1132]	; 699c <.text+0x299c>
    652c:	e1d230b0 	ldrh	r3, [r2]
    6530:	e2833001 	add	r3, r3, #1	; 0x1
    6534:	e1c230b0 	strh	r3, [r2]
    6538:	e1d230b0 	ldrh	r3, [r2]
    653c:	e3530f4b 	cmp	r3, #300	; 0x12c
    6540:	21c260b0 	strcsh	r6, [r2]
    6544:	e59f2454 	ldr	r2, [pc, #1108]	; 69a0 <.text+0x29a0>
    6548:	e1d230b0 	ldrh	r3, [r2]
    654c:	e2833001 	add	r3, r3, #1	; 0x1
    6550:	e1c230b0 	strh	r3, [r2]
    6554:	e1d230b0 	ldrh	r3, [r2]
    6558:	e5da5000 	ldrb	r5, [sl]
    655c:	e3530f87 	cmp	r3, #540	; 0x21c
    6560:	21c260b0 	strcsh	r6, [r2]
    6564:	e3550000 	cmp	r5, #0	; 0x0
    6568:	1a000064 	bne	6700 <periodic_task_ap+0x3d4>
    656c:	e59f3430 	ldr	r3, [pc, #1072]	; 69a4 <.text+0x29a4>
    6570:	e5930000 	ldr	r0, [r3]
    6574:	eb002d2a 	bl	11a24 <__extendsfdf2>
    6578:	e28f2ffa 	add	r2, pc, #1000	; 0x3e8
    657c:	e892000c 	ldmia	r2, {r2, r3}
    6580:	eb002dd8 	bl	11ce8 <__divdf3>
    6584:	e28f2ff9 	add	r2, pc, #996	; 0x3e4
    6588:	e892000c 	ldmia	r2, {r2, r3}
    658c:	eb002d37 	bl	11a70 <__muldf3>
    6590:	eb002e9e 	bl	12010 <__fixdfsi>
    6594:	e59f340c 	ldr	r3, [pc, #1036]	; 69a8 <.text+0x29a8>
    6598:	e14b02ba 	strh	r0, [fp, #-42]
    659c:	e5930000 	ldr	r0, [r3]
    65a0:	eb002d1f 	bl	11a24 <__extendsfdf2>
    65a4:	e28f2fef 	add	r2, pc, #956	; 0x3bc
    65a8:	e892000c 	ldmia	r2, {r2, r3}
    65ac:	eb002dcd 	bl	11ce8 <__divdf3>
    65b0:	e28f2fee 	add	r2, pc, #952	; 0x3b8
    65b4:	e892000c 	ldmia	r2, {r2, r3}
    65b8:	eb002d2c 	bl	11a70 <__muldf3>
    65bc:	eb002e93 	bl	12010 <__fixdfsi>
    65c0:	e59f33e4 	ldr	r3, [pc, #996]	; 69ac <.text+0x29ac>
    65c4:	e14b02bc 	strh	r0, [fp, #-44]
    65c8:	e5930000 	ldr	r0, [r3]
    65cc:	eb002d14 	bl	11a24 <__extendsfdf2>
    65d0:	e28f2e39 	add	r2, pc, #912	; 0x390
    65d4:	e892000c 	ldmia	r2, {r2, r3}
    65d8:	eb002dc2 	bl	11ce8 <__divdf3>
    65dc:	e28f2fe3 	add	r2, pc, #908	; 0x38c
    65e0:	e892000c 	ldmia	r2, {r2, r3}
    65e4:	eb002d21 	bl	11a70 <__muldf3>
    65e8:	eb002e88 	bl	12010 <__fixdfsi>
    65ec:	e14b02be 	strh	r0, [fp, #-46]
    65f0:	e3a0000b 	mov	r0, #11	; 0xb
    65f4:	eb000bdd 	bl	9570 <uart0_check_free_space>
    65f8:	e31000ff 	tst	r0, #255	; 0xff
    65fc:	0a0001d3 	beq	6d50 <.text+0x2d50>
    6600:	e3a0007e 	mov	r0, #126	; 0x7e
    6604:	e59f44c0 	ldr	r4, [pc, #1216]	; 6acc <.text+0x2acc>
    6608:	eb000bec 	bl	95c0 <uart0_transmit>
    660c:	e1a00006 	mov	r0, r6
    6610:	eb000bea 	bl	95c0 <uart0_transmit>
    6614:	e2855001 	add	r5, r5, #1	; 0x1
    6618:	e3a0000d 	mov	r0, #13	; 0xd
    661c:	eb000be7 	bl	95c0 <uart0_transmit>
    6620:	e1a00005 	mov	r0, r5
    6624:	e5c45000 	strb	r5, [r4]
    6628:	eb000be4 	bl	95c0 <uart0_transmit>
    662c:	e1a00006 	mov	r0, r6
    6630:	eb000be2 	bl	95c0 <uart0_transmit>
    6634:	e5d43000 	ldrb	r3, [r4]
    6638:	e0833005 	add	r3, r3, r5
    663c:	e5c43000 	strb	r3, [r4]
    6640:	e1a00005 	mov	r0, r5
    6644:	eb000bdd 	bl	95c0 <uart0_transmit>
    6648:	e1a00006 	mov	r0, r6
    664c:	eb000bdb 	bl	95c0 <uart0_transmit>
    6650:	e1a00006 	mov	r0, r6
    6654:	eb000bd9 	bl	95c0 <uart0_transmit>
    6658:	e5d43000 	ldrb	r3, [r4]
    665c:	e283300a 	add	r3, r3, #10	; 0xa
    6660:	e3a0000a 	mov	r0, #10	; 0xa
    6664:	e5c43000 	strb	r3, [r4]
    6668:	eb000bd4 	bl	95c0 <uart0_transmit>
    666c:	e5d43000 	ldrb	r3, [r4]
    6670:	e2833006 	add	r3, r3, #6	; 0x6
    6674:	e3a00006 	mov	r0, #6	; 0x6
    6678:	e5c43000 	strb	r3, [r4]
    667c:	eb000bcf 	bl	95c0 <uart0_transmit>
    6680:	e55b302a 	ldrb	r3, [fp, #-42]
    6684:	e5d42000 	ldrb	r2, [r4]
    6688:	e1a00003 	mov	r0, r3
    668c:	e0833002 	add	r3, r3, r2
    6690:	e5c43000 	strb	r3, [r4]
    6694:	eb000bc9 	bl	95c0 <uart0_transmit>
    6698:	e55b3029 	ldrb	r3, [fp, #-41]
    669c:	e5d42000 	ldrb	r2, [r4]
    66a0:	e1a00003 	mov	r0, r3
    66a4:	e0833002 	add	r3, r3, r2
    66a8:	e5c43000 	strb	r3, [r4]
    66ac:	eb000bc3 	bl	95c0 <uart0_transmit>
    66b0:	e55b302c 	ldrb	r3, [fp, #-44]
    66b4:	e5d42000 	ldrb	r2, [r4]
    66b8:	e1a00003 	mov	r0, r3
    66bc:	e0833002 	add	r3, r3, r2
    66c0:	e5c43000 	strb	r3, [r4]
    66c4:	eb000bbd 	bl	95c0 <uart0_transmit>
    66c8:	e55b302b 	ldrb	r3, [fp, #-43]
    66cc:	e5d42000 	ldrb	r2, [r4]
    66d0:	e1a00003 	mov	r0, r3
    66d4:	e0833002 	add	r3, r3, r2
    66d8:	e5c43000 	strb	r3, [r4]
    66dc:	eb000bb7 	bl	95c0 <uart0_transmit>
    66e0:	e55b302e 	ldrb	r3, [fp, #-46]
    66e4:	e5d42000 	ldrb	r2, [r4]
    66e8:	e1a00003 	mov	r0, r3
    66ec:	e0833002 	add	r3, r3, r2
    66f0:	e5c43000 	strb	r3, [r4]
    66f4:	eb000bb1 	bl	95c0 <uart0_transmit>
    66f8:	e55b302d 	ldrb	r3, [fp, #-45]
    66fc:	ea000188 	b	6d24 <.text+0x2d24>
    6700:	e3550006 	cmp	r5, #6	; 0x6
    6704:	0a000195 	beq	6d60 <.text+0x2d60>
    6708:	e355000c 	cmp	r5, #12	; 0xc
    670c:	0a000193 	beq	6d60 <.text+0x2d60>
    6710:	e3550012 	cmp	r5, #18	; 0x12
    6714:	1a0000f4 	bne	6aec <.text+0x2aec>
    6718:	e59f7290 	ldr	r7, [pc, #656]	; 69b0 <.text+0x29b0>
    671c:	e5d73000 	ldrb	r3, [r7]
    6720:	e2833001 	add	r3, r3, #1	; 0x1
    6724:	e5c73000 	strb	r3, [r7]
    6728:	e59f3284 	ldr	r3, [pc, #644]	; 69b4 <.text+0x29b4>
    672c:	e5d32000 	ldrb	r2, [r3]
    6730:	e5d73000 	ldrb	r3, [r7]
    6734:	e1530002 	cmp	r3, r2
    6738:	e59f3278 	ldr	r3, [pc, #632]	; 69b8 <.text+0x29b8>
    673c:	85c76000 	strhib	r6, [r7]
    6740:	e5930000 	ldr	r0, [r3]
    6744:	eb002f1f 	bl	123c8 <__floatsisf>
    6748:	e5d74000 	ldrb	r4, [r7]
    674c:	e59f8268 	ldr	r8, [pc, #616]	; 69bc <.text+0x29bc>
    6750:	e0844084 	add	r4, r4, r4, lsl #1
    6754:	e1a04104 	mov	r4, r4, lsl #2
    6758:	e7941008 	ldr	r1, [r4, r8]
    675c:	eb002ea7 	bl	12200 <__addsf3>
    6760:	e59f3258 	ldr	r3, [pc, #600]	; 69c0 <.text+0x29c0>
    6764:	e50b003c 	str	r0, [fp, #-60]
    6768:	e0844008 	add	r4, r4, r8
    676c:	e5930000 	ldr	r0, [r3]
    6770:	eb002f14 	bl	123c8 <__floatsisf>
    6774:	e5941004 	ldr	r1, [r4, #4]
    6778:	eb002ea0 	bl	12200 <__addsf3>
    677c:	e50b0040 	str	r0, [fp, #-64]
    6780:	e1a00005 	mov	r0, r5
    6784:	eb000b79 	bl	9570 <uart0_check_free_space>
    6788:	e31000ff 	tst	r0, #255	; 0xff
    678c:	0a00016f 	beq	6d50 <.text+0x2d50>
    6790:	e3a0007e 	mov	r0, #126	; 0x7e
    6794:	e59f4330 	ldr	r4, [pc, #816]	; 6acc <.text+0x2acc>
    6798:	eb000b88 	bl	95c0 <uart0_transmit>
    679c:	e1a00006 	mov	r0, r6
    67a0:	eb000b86 	bl	95c0 <uart0_transmit>
    67a4:	e3a05001 	mov	r5, #1	; 0x1
    67a8:	e3a00014 	mov	r0, #20	; 0x14
    67ac:	eb000b83 	bl	95c0 <uart0_transmit>
    67b0:	e1a00005 	mov	r0, r5
    67b4:	e5c45000 	strb	r5, [r4]
    67b8:	eb000b80 	bl	95c0 <uart0_transmit>
    67bc:	e1a00006 	mov	r0, r6
    67c0:	eb000b7e 	bl	95c0 <uart0_transmit>
    67c4:	e5d43000 	ldrb	r3, [r4]
    67c8:	e0833005 	add	r3, r3, r5
    67cc:	e5c43000 	strb	r3, [r4]
    67d0:	e1a00005 	mov	r0, r5
    67d4:	eb000b79 	bl	95c0 <uart0_transmit>
    67d8:	e1a00006 	mov	r0, r6
    67dc:	eb000b77 	bl	95c0 <uart0_transmit>
    67e0:	e1a00006 	mov	r0, r6
    67e4:	eb000b75 	bl	95c0 <uart0_transmit>
    67e8:	e5d43000 	ldrb	r3, [r4]
    67ec:	e283300a 	add	r3, r3, #10	; 0xa
    67f0:	e3a0000a 	mov	r0, #10	; 0xa
    67f4:	e5c43000 	strb	r3, [r4]
    67f8:	eb000b70 	bl	95c0 <uart0_transmit>
    67fc:	e5d43000 	ldrb	r3, [r4]
    6800:	e2833023 	add	r3, r3, #35	; 0x23
    6804:	e3a00023 	mov	r0, #35	; 0x23
    6808:	e5c43000 	strb	r3, [r4]
    680c:	eb000b6b 	bl	95c0 <uart0_transmit>
    6810:	e5d73000 	ldrb	r3, [r7]
    6814:	e5d42000 	ldrb	r2, [r4]
    6818:	e1a00003 	mov	r0, r3
    681c:	e0833002 	add	r3, r3, r2
    6820:	e5c43000 	strb	r3, [r4]
    6824:	eb000b65 	bl	95c0 <uart0_transmit>
    6828:	e55b303c 	ldrb	r3, [fp, #-60]
    682c:	e5d42000 	ldrb	r2, [r4]
    6830:	e1a00003 	mov	r0, r3
    6834:	e0833002 	add	r3, r3, r2
    6838:	e5c43000 	strb	r3, [r4]
    683c:	eb000b5f 	bl	95c0 <uart0_transmit>
    6840:	e55b303b 	ldrb	r3, [fp, #-59]
    6844:	e5d42000 	ldrb	r2, [r4]
    6848:	e1a00003 	mov	r0, r3
    684c:	e0833002 	add	r3, r3, r2
    6850:	e5c43000 	strb	r3, [r4]
    6854:	eb000b59 	bl	95c0 <uart0_transmit>
    6858:	e55b303a 	ldrb	r3, [fp, #-58]
    685c:	e5d42000 	ldrb	r2, [r4]
    6860:	e1a00003 	mov	r0, r3
    6864:	e0833002 	add	r3, r3, r2
    6868:	e5c43000 	strb	r3, [r4]
    686c:	eb000b53 	bl	95c0 <uart0_transmit>
    6870:	e55b3039 	ldrb	r3, [fp, #-57]
    6874:	e5d42000 	ldrb	r2, [r4]
    6878:	e1a00003 	mov	r0, r3
    687c:	e0833002 	add	r3, r3, r2
    6880:	e5c43000 	strb	r3, [r4]
    6884:	eb000b4d 	bl	95c0 <uart0_transmit>
    6888:	e55b3040 	ldrb	r3, [fp, #-64]
    688c:	e5d42000 	ldrb	r2, [r4]
    6890:	e1a00003 	mov	r0, r3
    6894:	e0833002 	add	r3, r3, r2
    6898:	e5c43000 	strb	r3, [r4]
    689c:	eb000b47 	bl	95c0 <uart0_transmit>
    68a0:	e55b303f 	ldrb	r3, [fp, #-63]
    68a4:	e5d42000 	ldrb	r2, [r4]
    68a8:	e1a00003 	mov	r0, r3
    68ac:	e0833002 	add	r3, r3, r2
    68b0:	e5c43000 	strb	r3, [r4]
    68b4:	eb000b41 	bl	95c0 <uart0_transmit>
    68b8:	e55b303e 	ldrb	r3, [fp, #-62]
    68bc:	e5d42000 	ldrb	r2, [r4]
    68c0:	e1a00003 	mov	r0, r3
    68c4:	e0833002 	add	r3, r3, r2
    68c8:	e5c43000 	strb	r3, [r4]
    68cc:	eb000b3b 	bl	95c0 <uart0_transmit>
    68d0:	e55b303d 	ldrb	r3, [fp, #-61]
    68d4:	e5d42000 	ldrb	r2, [r4]
    68d8:	e1a00003 	mov	r0, r3
    68dc:	e0833002 	add	r3, r3, r2
    68e0:	e5c43000 	strb	r3, [r4]
    68e4:	eb000b35 	bl	95c0 <uart0_transmit>
    68e8:	e5d73000 	ldrb	r3, [r7]
    68ec:	e2882008 	add	r2, r8, #8	; 0x8
    68f0:	e0833083 	add	r3, r3, r3, lsl #1
    68f4:	e7d23103 	ldrb	r3, [r2, r3, lsl #2]
    68f8:	e5d42000 	ldrb	r2, [r4]
    68fc:	e1a00003 	mov	r0, r3
    6900:	e0833002 	add	r3, r3, r2
    6904:	e5c43000 	strb	r3, [r4]
    6908:	eb000b2c 	bl	95c0 <uart0_transmit>
    690c:	e5d73000 	ldrb	r3, [r7]
    6910:	e2882009 	add	r2, r8, #9	; 0x9
    6914:	e0833083 	add	r3, r3, r3, lsl #1
    6918:	e7d23103 	ldrb	r3, [r2, r3, lsl #2]
    691c:	e5d42000 	ldrb	r2, [r4]
    6920:	e1a00003 	mov	r0, r3
    6924:	e0833002 	add	r3, r3, r2
    6928:	e5c43000 	strb	r3, [r4]
    692c:	eb000b23 	bl	95c0 <uart0_transmit>
    6930:	e5d73000 	ldrb	r3, [r7]
    6934:	e288200a 	add	r2, r8, #10	; 0xa
    6938:	e0833083 	add	r3, r3, r3, lsl #1
    693c:	e7d23103 	ldrb	r3, [r2, r3, lsl #2]
    6940:	e5d42000 	ldrb	r2, [r4]
    6944:	e1a00003 	mov	r0, r3
    6948:	e0833002 	add	r3, r3, r2
    694c:	e5c43000 	strb	r3, [r4]
    6950:	eb000b1a 	bl	95c0 <uart0_transmit>
    6954:	e5d73000 	ldrb	r3, [r7]
    6958:	e288200b 	add	r2, r8, #11	; 0xb
    695c:	e0833083 	add	r3, r3, r3, lsl #1
    6960:	e7d23103 	ldrb	r3, [r2, r3, lsl #2]
    6964:	ea0000ee 	b	6d24 <.text+0x2d24>
    6968:	400921fb 	strmid	r2, [r9], -fp
    696c:	54442d18 	strplb	r2, [r4], #-3352
    6970:	40668000 	rsbmi	r8, r6, r0
    6974:	00000000 	andeq	r0, r0, r0
    6978:	400004fc 	strmid	r0, [r0], -ip
    697c:	400004fd 	strmid	r0, [r0], -sp
    6980:	400004fe 	strmid	r0, [r0], -lr
    6984:	400004ff 	strmid	r0, [r0], -pc
    6988:	40000004 	andmi	r0, r0, r4
    698c:	00012948 	andeq	r2, r1, r8, asr #18
    6990:	40000530 	andmi	r0, r0, r0, lsr r5
    6994:	40000500 	andmi	r0, r0, r0, lsl #10
    6998:	40000501 	andmi	r0, r0, r1, lsl #10
    699c:	40000504 	andmi	r0, r0, r4, lsl #10
    69a0:	40000506 	andmi	r0, r0, r6, lsl #10
    69a4:	40000e48 	andmi	r0, r0, r8, asr #28
    69a8:	40000e24 	andmi	r0, r0, r4, lsr #28
    69ac:	40000e40 	andmi	r0, r0, r0, asr #28
    69b0:	40000508 	andmi	r0, r0, r8, lsl #10
    69b4:	00012962 	andeq	r2, r1, r2, ror #18
    69b8:	40000070 	andmi	r0, r0, r0, ror r0
    69bc:	40000034 	andmi	r0, r0, r4, lsr r0
    69c0:	4000006c 	andmi	r0, r0, ip, rrx
    69c4:	40000f86 	andmi	r0, r0, r6, lsl #31
    69c8:	40000f8c 	andmi	r0, r0, ip, lsl #31
    69cc:	40000f84 	andmi	r0, r0, r4, lsl #31
    69d0:	40000e5c 	andmi	r0, r0, ip, asr lr
    69d4:	40000e38 	andmi	r0, r0, r8, lsr lr
    69d8:	40000e2c 	andmi	r0, r0, ip, lsr #28
    69dc:	400008ec 	andmi	r0, r0, ip, ror #17
    69e0:	40000ad8 	ldrmid	r0, [r0], -r8
    69e4:	40000e28 	andmi	r0, r0, r8, lsr #28
    69e8:	40000e1c 	andmi	r0, r0, ip, lsl lr
    69ec:	40000f20 	andmi	r0, r0, r0, lsr #30
    69f0:	40000efc 	strmid	r0, [r0], -ip
    69f4:	40000e74 	andmi	r0, r0, r4, ror lr
    69f8:	40000e88 	andmi	r0, r0, r8, lsl #29
    69fc:	40000f40 	andmi	r0, r0, r0, asr #30
    6a00:	40000f60 	andmi	r0, r0, r0, ror #30
    6a04:	400005ad 	andmi	r0, r0, sp, lsr #11
    6a08:	40000eb0 	strmih	r0, [r0], -r0
    6a0c:	40000e92 	mulmi	r0, r2, lr
    6a10:	40000e7a 	andmi	r0, r0, sl, ror lr
    6a14:	400005ac 	andmi	r0, r0, ip, lsr #11
    6a18:	40000e70 	andmi	r0, r0, r0, ror lr
    6a1c:	40000eb4 	strmih	r0, [r0], -r4
    6a20:	40000e78 	andmi	r0, r0, r8, ror lr
    6a24:	40000eb2 	strmih	r0, [r0], -r2
    6a28:	40000ec8 	andmi	r0, r0, r8, asr #29
    6a2c:	40000002 	andmi	r0, r0, r2
    6a30:	40000e34 	andmi	r0, r0, r4, lsr lr
    6a34:	40000e58 	andmi	r0, r0, r8, asr lr
    6a38:	40000003 	andmi	r0, r0, r3
    6a3c:	40000e20 	andmi	r0, r0, r0, lsr #28
    6a40:	47800000 	strmi	r0, [r0, r0]
    6a44:	400004f1 	strmid	r0, [r0], -r1
    6a48:	400004f2 	strmid	r0, [r0], -r2
    6a4c:	43800000 	orrmi	r0, r0, #0	; 0x0
    6a50:	40000ad0 	ldrmid	r0, [r0], -r0
    6a54:	40000b04 	andmi	r0, r0, r4, lsl #22
    6a58:	40000af0 	strmid	r0, [r0], -r0
    6a5c:	40000aec 	andmi	r0, r0, ip, ror #21
    6a60:	40000b00 	andmi	r0, r0, r0, lsl #22
    6a64:	400008e8 	andmi	r0, r0, r8, ror #17
    6a68:	40000ae4 	andmi	r0, r0, r4, ror #21
    6a6c:	40000b10 	andmi	r0, r0, r0, lsl fp
    6a70:	40000afc 	strmid	r0, [r0], -ip
    6a74:	400008e0 	andmi	r0, r0, r0, ror #17
    6a78:	40000ae0 	andmi	r0, r0, r0, ror #21
    6a7c:	40000af8 	strmid	r0, [r0], -r8
    6a80:	40000f1c 	andmi	r0, r0, ip, lsl pc
    6a84:	40000eec 	andmi	r0, r0, ip, ror #29
    6a88:	40000f08 	andmi	r0, r0, r8, lsl #30
    6a8c:	40000f10 	andmi	r0, r0, r0, lsl pc
    6a90:	40000f24 	andmi	r0, r0, r4, lsr #30
    6a94:	40000ef4 	strmid	r0, [r0], -r4
    6a98:	40000ef0 	strmid	r0, [r0], -r0
    6a9c:	40000f14 	andmi	r0, r0, r4, lsl pc
    6aa0:	40000f4c 	andmi	r0, r0, ip, asr #30
    6aa4:	40000f48 	andmi	r0, r0, r8, asr #30
    6aa8:	40000f70 	andmi	r0, r0, r0, ror pc
    6aac:	40000f58 	andmi	r0, r0, r8, asr pc
    6ab0:	40000f54 	andmi	r0, r0, r4, asr pc
    6ab4:	40000f50 	andmi	r0, r0, r0, asr pc
    6ab8:	40000f64 	andmi	r0, r0, r4, ror #30
    6abc:	40000f04 	andmi	r0, r0, r4, lsl #30
    6ac0:	40000ee0 	andmi	r0, r0, r0, ror #29
    6ac4:	40000e68 	andmi	r0, r0, r8, ror #28
    6ac8:	40000509 	andmi	r0, r0, r9, lsl #10
    6acc:	40000e19 	andmi	r0, r0, r9, lsl lr
    6ad0:	40000f78 	andmi	r0, r0, r8, ror pc
    6ad4:	40000b0c 	andmi	r0, r0, ip, lsl #22
    6ad8:	40000e3c 	andmi	r0, r0, ip, lsr lr
    6adc:	40000e50 	andmi	r0, r0, r0, asr lr
    6ae0:	40000b83 	andmi	r0, r0, r3, lsl #23
    6ae4:	40000502 	andmi	r0, r0, r2, lsl #10
    6ae8:	40000af4 	strmid	r0, [r0], -r4
    6aec:	e3550018 	cmp	r5, #24	; 0x18
    6af0:	1a00009a 	bne	6d60 <.text+0x2d60>
    6af4:	e3a00017 	mov	r0, #23	; 0x17
    6af8:	eb000a9c 	bl	9570 <uart0_check_free_space>
    6afc:	e31000ff 	tst	r0, #255	; 0xff
    6b00:	0a000092 	beq	6d50 <.text+0x2d50>
    6b04:	e3a0007e 	mov	r0, #126	; 0x7e
    6b08:	e51f4044 	ldr	r4, [pc, #-68]	; 6acc <.text+0x2acc>
    6b0c:	eb000aab 	bl	95c0 <uart0_transmit>
    6b10:	e1a00006 	mov	r0, r6
    6b14:	e2455017 	sub	r5, r5, #23	; 0x17
    6b18:	eb000aa8 	bl	95c0 <uart0_transmit>
    6b1c:	e3a00019 	mov	r0, #25	; 0x19
    6b20:	eb000aa6 	bl	95c0 <uart0_transmit>
    6b24:	e1a00005 	mov	r0, r5
    6b28:	e5c45000 	strb	r5, [r4]
    6b2c:	eb000aa3 	bl	95c0 <uart0_transmit>
    6b30:	e1a00006 	mov	r0, r6
    6b34:	eb000aa1 	bl	95c0 <uart0_transmit>
    6b38:	e5d43000 	ldrb	r3, [r4]
    6b3c:	e0833005 	add	r3, r3, r5
    6b40:	e5c43000 	strb	r3, [r4]
    6b44:	e1a00005 	mov	r0, r5
    6b48:	eb000a9c 	bl	95c0 <uart0_transmit>
    6b4c:	e1a00006 	mov	r0, r6
    6b50:	eb000a9a 	bl	95c0 <uart0_transmit>
    6b54:	e1a00006 	mov	r0, r6
    6b58:	eb000a98 	bl	95c0 <uart0_transmit>
    6b5c:	e5d43000 	ldrb	r3, [r4]
    6b60:	e283300a 	add	r3, r3, #10	; 0xa
    6b64:	e3a0000a 	mov	r0, #10	; 0xa
    6b68:	e5c43000 	strb	r3, [r4]
    6b6c:	eb000a93 	bl	95c0 <uart0_transmit>
    6b70:	e5d43000 	ldrb	r3, [r4]
    6b74:	e51f51b8 	ldr	r5, [pc, #-440]	; 69c4 <.text+0x29c4>
    6b78:	e243302c 	sub	r3, r3, #44	; 0x2c
    6b7c:	e3a000d4 	mov	r0, #212	; 0xd4
    6b80:	e5c43000 	strb	r3, [r4]
    6b84:	eb000a8d 	bl	95c0 <uart0_transmit>
    6b88:	e5d53000 	ldrb	r3, [r5]
    6b8c:	e5d42000 	ldrb	r2, [r4]
    6b90:	e1a00003 	mov	r0, r3
    6b94:	e0833002 	add	r3, r3, r2
    6b98:	e5c43000 	strb	r3, [r4]
    6b9c:	eb000a87 	bl	95c0 <uart0_transmit>
    6ba0:	e5d50001 	ldrb	r0, [r5, #1]
    6ba4:	e5d43000 	ldrb	r3, [r4]
    6ba8:	e51f51e8 	ldr	r5, [pc, #-488]	; 69c8 <.text+0x29c8>
    6bac:	e0803003 	add	r3, r0, r3
    6bb0:	e5c43000 	strb	r3, [r4]
    6bb4:	eb000a81 	bl	95c0 <uart0_transmit>
    6bb8:	e5d53000 	ldrb	r3, [r5]
    6bbc:	e5d42000 	ldrb	r2, [r4]
    6bc0:	e1a00003 	mov	r0, r3
    6bc4:	e0833002 	add	r3, r3, r2
    6bc8:	e5c43000 	strb	r3, [r4]
    6bcc:	eb000a7b 	bl	95c0 <uart0_transmit>
    6bd0:	e5d50001 	ldrb	r0, [r5, #1]
    6bd4:	e5d43000 	ldrb	r3, [r4]
    6bd8:	e51f5214 	ldr	r5, [pc, #-532]	; 69cc <.text+0x29cc>
    6bdc:	e0803003 	add	r3, r0, r3
    6be0:	e5c43000 	strb	r3, [r4]
    6be4:	eb000a75 	bl	95c0 <uart0_transmit>
    6be8:	e5d53000 	ldrb	r3, [r5]
    6bec:	e5d42000 	ldrb	r2, [r4]
    6bf0:	e1a00003 	mov	r0, r3
    6bf4:	e0833002 	add	r3, r3, r2
    6bf8:	e5c43000 	strb	r3, [r4]
    6bfc:	eb000a6f 	bl	95c0 <uart0_transmit>
    6c00:	e5d50001 	ldrb	r0, [r5, #1]
    6c04:	e5d43000 	ldrb	r3, [r4]
    6c08:	e51f5240 	ldr	r5, [pc, #-576]	; 69d0 <.text+0x29d0>
    6c0c:	e0803003 	add	r3, r0, r3
    6c10:	e5c43000 	strb	r3, [r4]
    6c14:	eb000a69 	bl	95c0 <uart0_transmit>
    6c18:	e5d53000 	ldrb	r3, [r5]
    6c1c:	e5d42000 	ldrb	r2, [r4]
    6c20:	e1a00003 	mov	r0, r3
    6c24:	e0833002 	add	r3, r3, r2
    6c28:	e5c43000 	strb	r3, [r4]
    6c2c:	eb000a63 	bl	95c0 <uart0_transmit>
    6c30:	e5d53001 	ldrb	r3, [r5, #1]
    6c34:	e5d42000 	ldrb	r2, [r4]
    6c38:	e1a00003 	mov	r0, r3
    6c3c:	e0833002 	add	r3, r3, r2
    6c40:	e5c43000 	strb	r3, [r4]
    6c44:	eb000a5d 	bl	95c0 <uart0_transmit>
    6c48:	e5d53002 	ldrb	r3, [r5, #2]
    6c4c:	e5d42000 	ldrb	r2, [r4]
    6c50:	e1a00003 	mov	r0, r3
    6c54:	e0833002 	add	r3, r3, r2
    6c58:	e5c43000 	strb	r3, [r4]
    6c5c:	eb000a57 	bl	95c0 <uart0_transmit>
    6c60:	e5d50003 	ldrb	r0, [r5, #3]
    6c64:	e5d43000 	ldrb	r3, [r4]
    6c68:	e51f529c 	ldr	r5, [pc, #-668]	; 69d4 <.text+0x29d4>
    6c6c:	e0803003 	add	r3, r0, r3
    6c70:	e5c43000 	strb	r3, [r4]
    6c74:	eb000a51 	bl	95c0 <uart0_transmit>
    6c78:	e5d53000 	ldrb	r3, [r5]
    6c7c:	e5d42000 	ldrb	r2, [r4]
    6c80:	e1a00003 	mov	r0, r3
    6c84:	e0833002 	add	r3, r3, r2
    6c88:	e5c43000 	strb	r3, [r4]
    6c8c:	eb000a4b 	bl	95c0 <uart0_transmit>
    6c90:	e5d53001 	ldrb	r3, [r5, #1]
    6c94:	e5d42000 	ldrb	r2, [r4]
    6c98:	e1a00003 	mov	r0, r3
    6c9c:	e0833002 	add	r3, r3, r2
    6ca0:	e5c43000 	strb	r3, [r4]
    6ca4:	eb000a45 	bl	95c0 <uart0_transmit>
    6ca8:	e5d53002 	ldrb	r3, [r5, #2]
    6cac:	e5d42000 	ldrb	r2, [r4]
    6cb0:	e1a00003 	mov	r0, r3
    6cb4:	e0833002 	add	r3, r3, r2
    6cb8:	e5c43000 	strb	r3, [r4]
    6cbc:	eb000a3f 	bl	95c0 <uart0_transmit>
    6cc0:	e5d50003 	ldrb	r0, [r5, #3]
    6cc4:	e5d43000 	ldrb	r3, [r4]
    6cc8:	e51f52f8 	ldr	r5, [pc, #-760]	; 69d8 <.text+0x29d8>
    6ccc:	e0803003 	add	r3, r0, r3
    6cd0:	e5c43000 	strb	r3, [r4]
    6cd4:	eb000a39 	bl	95c0 <uart0_transmit>
    6cd8:	e5d53000 	ldrb	r3, [r5]
    6cdc:	e5d42000 	ldrb	r2, [r4]
    6ce0:	e1a00003 	mov	r0, r3
    6ce4:	e0833002 	add	r3, r3, r2
    6ce8:	e5c43000 	strb	r3, [r4]
    6cec:	eb000a33 	bl	95c0 <uart0_transmit>
    6cf0:	e5d53001 	ldrb	r3, [r5, #1]
    6cf4:	e5d42000 	ldrb	r2, [r4]
    6cf8:	e1a00003 	mov	r0, r3
    6cfc:	e0833002 	add	r3, r3, r2
    6d00:	e5c43000 	strb	r3, [r4]
    6d04:	eb000a2d 	bl	95c0 <uart0_transmit>
    6d08:	e5d53002 	ldrb	r3, [r5, #2]
    6d0c:	e5d42000 	ldrb	r2, [r4]
    6d10:	e1a00003 	mov	r0, r3
    6d14:	e0833002 	add	r3, r3, r2
    6d18:	e5c43000 	strb	r3, [r4]
    6d1c:	eb000a27 	bl	95c0 <uart0_transmit>
    6d20:	e5d53003 	ldrb	r3, [r5, #3]
    6d24:	e5d42000 	ldrb	r2, [r4]
    6d28:	e1a00003 	mov	r0, r3
    6d2c:	e0833002 	add	r3, r3, r2
    6d30:	e5c43000 	strb	r3, [r4]
    6d34:	eb000a21 	bl	95c0 <uart0_transmit>
    6d38:	e5d43000 	ldrb	r3, [r4]
    6d3c:	e1e03003 	mvn	r3, r3
    6d40:	e5c43000 	strb	r3, [r4]
    6d44:	e5d40000 	ldrb	r0, [r4]
    6d48:	eb000a1c 	bl	95c0 <uart0_transmit>
    6d4c:	ea000003 	b	6d60 <.text+0x2d60>
    6d50:	e51f2278 	ldr	r2, [pc, #-632]	; 6ae0 <.text+0x2ae0>
    6d54:	e5d23000 	ldrb	r3, [r2]
    6d58:	e2833001 	add	r3, r3, #1	; 0x1
    6d5c:	e5c23000 	strb	r3, [r2]
    6d60:	e5da6000 	ldrb	r6, [sl]
    6d64:	e3560000 	cmp	r6, #0	; 0x0
    6d68:	1a00005d 	bne	6ee4 <.text+0x2ee4>
    6d6c:	e3a0000d 	mov	r0, #13	; 0xd
    6d70:	eb0009fe 	bl	9570 <uart0_check_free_space>
    6d74:	e31000ff 	tst	r0, #255	; 0xff
    6d78:	051f22a0 	ldreq	r2, [pc, #-672]	; 6ae0 <.text+0x2ae0>
    6d7c:	05d23000 	ldreqb	r3, [r2]
    6d80:	02833001 	addeq	r3, r3, #1	; 0x1
    6d84:	05c23000 	streqb	r3, [r2]
    6d88:	0a000055 	beq	6ee4 <.text+0x2ee4>
    6d8c:	e3a0007e 	mov	r0, #126	; 0x7e
    6d90:	e51f42cc 	ldr	r4, [pc, #-716]	; 6acc <.text+0x2acc>
    6d94:	eb000a09 	bl	95c0 <uart0_transmit>
    6d98:	e1a00006 	mov	r0, r6
    6d9c:	e3a05001 	mov	r5, #1	; 0x1
    6da0:	eb000a06 	bl	95c0 <uart0_transmit>
    6da4:	e3a0000f 	mov	r0, #15	; 0xf
    6da8:	eb000a04 	bl	95c0 <uart0_transmit>
    6dac:	e1a00005 	mov	r0, r5
    6db0:	e5c45000 	strb	r5, [r4]
    6db4:	eb000a01 	bl	95c0 <uart0_transmit>
    6db8:	e1a00006 	mov	r0, r6
    6dbc:	eb0009ff 	bl	95c0 <uart0_transmit>
    6dc0:	e5d43000 	ldrb	r3, [r4]
    6dc4:	e0833005 	add	r3, r3, r5
    6dc8:	e5c43000 	strb	r3, [r4]
    6dcc:	e1a00005 	mov	r0, r5
    6dd0:	eb0009fa 	bl	95c0 <uart0_transmit>
    6dd4:	e1a00006 	mov	r0, r6
    6dd8:	eb0009f8 	bl	95c0 <uart0_transmit>
    6ddc:	e1a00006 	mov	r0, r6
    6de0:	eb0009f6 	bl	95c0 <uart0_transmit>
    6de4:	e5d43000 	ldrb	r3, [r4]
    6de8:	e283300a 	add	r3, r3, #10	; 0xa
    6dec:	e3a0000a 	mov	r0, #10	; 0xa
    6df0:	e5c43000 	strb	r3, [r4]
    6df4:	eb0009f1 	bl	95c0 <uart0_transmit>
    6df8:	e5d43000 	ldrb	r3, [r4]
    6dfc:	e51f5428 	ldr	r5, [pc, #-1064]	; 69dc <.text+0x29dc>
    6e00:	e243302b 	sub	r3, r3, #43	; 0x2b
    6e04:	e3a000d5 	mov	r0, #213	; 0xd5
    6e08:	e5c43000 	strb	r3, [r4]
    6e0c:	eb0009eb 	bl	95c0 <uart0_transmit>
    6e10:	e5d53000 	ldrb	r3, [r5]
    6e14:	e5d42000 	ldrb	r2, [r4]
    6e18:	e1a00003 	mov	r0, r3
    6e1c:	e0833002 	add	r3, r3, r2
    6e20:	e5c43000 	strb	r3, [r4]
    6e24:	eb0009e5 	bl	95c0 <uart0_transmit>
    6e28:	e5d53001 	ldrb	r3, [r5, #1]
    6e2c:	e5d42000 	ldrb	r2, [r4]
    6e30:	e1a00003 	mov	r0, r3
    6e34:	e0833002 	add	r3, r3, r2
    6e38:	e5c43000 	strb	r3, [r4]
    6e3c:	eb0009df 	bl	95c0 <uart0_transmit>
    6e40:	e5d53002 	ldrb	r3, [r5, #2]
    6e44:	e5d42000 	ldrb	r2, [r4]
    6e48:	e1a00003 	mov	r0, r3
    6e4c:	e0833002 	add	r3, r3, r2
    6e50:	e5c43000 	strb	r3, [r4]
    6e54:	eb0009d9 	bl	95c0 <uart0_transmit>
    6e58:	e5d50003 	ldrb	r0, [r5, #3]
    6e5c:	e5d43000 	ldrb	r3, [r4]
    6e60:	e51f5488 	ldr	r5, [pc, #-1160]	; 69e0 <.text+0x29e0>
    6e64:	e0803003 	add	r3, r0, r3
    6e68:	e5c43000 	strb	r3, [r4]
    6e6c:	eb0009d3 	bl	95c0 <uart0_transmit>
    6e70:	e5d53000 	ldrb	r3, [r5]
    6e74:	e5d42000 	ldrb	r2, [r4]
    6e78:	e1a00003 	mov	r0, r3
    6e7c:	e0833002 	add	r3, r3, r2
    6e80:	e5c43000 	strb	r3, [r4]
    6e84:	eb0009cd 	bl	95c0 <uart0_transmit>
    6e88:	e5d53001 	ldrb	r3, [r5, #1]
    6e8c:	e5d42000 	ldrb	r2, [r4]
    6e90:	e1a00003 	mov	r0, r3
    6e94:	e0833002 	add	r3, r3, r2
    6e98:	e5c43000 	strb	r3, [r4]
    6e9c:	eb0009c7 	bl	95c0 <uart0_transmit>
    6ea0:	e5d53002 	ldrb	r3, [r5, #2]
    6ea4:	e5d42000 	ldrb	r2, [r4]
    6ea8:	e1a00003 	mov	r0, r3
    6eac:	e0833002 	add	r3, r3, r2
    6eb0:	e5c43000 	strb	r3, [r4]
    6eb4:	eb0009c1 	bl	95c0 <uart0_transmit>
    6eb8:	e5d53003 	ldrb	r3, [r5, #3]
    6ebc:	e5d42000 	ldrb	r2, [r4]
    6ec0:	e1a00003 	mov	r0, r3
    6ec4:	e0833002 	add	r3, r3, r2
    6ec8:	e5c43000 	strb	r3, [r4]
    6ecc:	eb0009bb 	bl	95c0 <uart0_transmit>
    6ed0:	e5d43000 	ldrb	r3, [r4]
    6ed4:	e1e03003 	mvn	r3, r3
    6ed8:	e5c43000 	strb	r3, [r4]
    6edc:	e5d40000 	ldrb	r0, [r4]
    6ee0:	eb0009b6 	bl	95c0 <uart0_transmit>
    6ee4:	e5da3000 	ldrb	r3, [sl]
    6ee8:	e3530006 	cmp	r3, #6	; 0x6
    6eec:	1a00005e 	bne	706c <.text+0x306c>
    6ef0:	e3a0000d 	mov	r0, #13	; 0xd
    6ef4:	eb00099d 	bl	9570 <uart0_check_free_space>
    6ef8:	e31000ff 	tst	r0, #255	; 0xff
    6efc:	051f2424 	ldreq	r2, [pc, #-1060]	; 6ae0 <.text+0x2ae0>
    6f00:	05d23000 	ldreqb	r3, [r2]
    6f04:	02833001 	addeq	r3, r3, #1	; 0x1
    6f08:	05c23000 	streqb	r3, [r2]
    6f0c:	0a000056 	beq	706c <.text+0x306c>
    6f10:	e3a06000 	mov	r6, #0	; 0x0
    6f14:	e3a0007e 	mov	r0, #126	; 0x7e
    6f18:	e51f4454 	ldr	r4, [pc, #-1108]	; 6acc <.text+0x2acc>
    6f1c:	eb0009a7 	bl	95c0 <uart0_transmit>
    6f20:	e1a00006 	mov	r0, r6
    6f24:	e3a05001 	mov	r5, #1	; 0x1
    6f28:	eb0009a4 	bl	95c0 <uart0_transmit>
    6f2c:	e3a0000f 	mov	r0, #15	; 0xf
    6f30:	eb0009a2 	bl	95c0 <uart0_transmit>
    6f34:	e1a00005 	mov	r0, r5
    6f38:	e5c45000 	strb	r5, [r4]
    6f3c:	eb00099f 	bl	95c0 <uart0_transmit>
    6f40:	e1a00006 	mov	r0, r6
    6f44:	eb00099d 	bl	95c0 <uart0_transmit>
    6f48:	e5d43000 	ldrb	r3, [r4]
    6f4c:	e0833005 	add	r3, r3, r5
    6f50:	e5c43000 	strb	r3, [r4]
    6f54:	e1a00005 	mov	r0, r5
    6f58:	eb000998 	bl	95c0 <uart0_transmit>
    6f5c:	e1a00006 	mov	r0, r6
    6f60:	eb000996 	bl	95c0 <uart0_transmit>
    6f64:	e1a00006 	mov	r0, r6
    6f68:	eb000994 	bl	95c0 <uart0_transmit>
    6f6c:	e5d43000 	ldrb	r3, [r4]
    6f70:	e283300a 	add	r3, r3, #10	; 0xa
    6f74:	e3a0000a 	mov	r0, #10	; 0xa
    6f78:	e5c43000 	strb	r3, [r4]
    6f7c:	eb00098f 	bl	95c0 <uart0_transmit>
    6f80:	e5d43000 	ldrb	r3, [r4]
    6f84:	e51f55a8 	ldr	r5, [pc, #-1448]	; 69e4 <.text+0x29e4>
    6f88:	e283302a 	add	r3, r3, #42	; 0x2a
    6f8c:	e3a0002a 	mov	r0, #42	; 0x2a
    6f90:	e5c43000 	strb	r3, [r4]
    6f94:	eb000989 	bl	95c0 <uart0_transmit>
    6f98:	e5d53000 	ldrb	r3, [r5]
    6f9c:	e5d42000 	ldrb	r2, [r4]
    6fa0:	e1a00003 	mov	r0, r3
    6fa4:	e0833002 	add	r3, r3, r2
    6fa8:	e5c43000 	strb	r3, [r4]
    6fac:	eb000983 	bl	95c0 <uart0_transmit>
    6fb0:	e5d53001 	ldrb	r3, [r5, #1]
    6fb4:	e5d42000 	ldrb	r2, [r4]
    6fb8:	e1a00003 	mov	r0, r3
    6fbc:	e0833002 	add	r3, r3, r2
    6fc0:	e5c43000 	strb	r3, [r4]
    6fc4:	eb00097d 	bl	95c0 <uart0_transmit>
    6fc8:	e5d53002 	ldrb	r3, [r5, #2]
    6fcc:	e5d42000 	ldrb	r2, [r4]
    6fd0:	e1a00003 	mov	r0, r3
    6fd4:	e0833002 	add	r3, r3, r2
    6fd8:	e5c43000 	strb	r3, [r4]
    6fdc:	eb000977 	bl	95c0 <uart0_transmit>
    6fe0:	e5d50003 	ldrb	r0, [r5, #3]
    6fe4:	e5d43000 	ldrb	r3, [r4]
    6fe8:	e51f5608 	ldr	r5, [pc, #-1544]	; 69e8 <.text+0x29e8>
    6fec:	e0803003 	add	r3, r0, r3
    6ff0:	e5c43000 	strb	r3, [r4]
    6ff4:	eb000971 	bl	95c0 <uart0_transmit>
    6ff8:	e5d53000 	ldrb	r3, [r5]
    6ffc:	e5d42000 	ldrb	r2, [r4]
    7000:	e1a00003 	mov	r0, r3
    7004:	e0833002 	add	r3, r3, r2
    7008:	e5c43000 	strb	r3, [r4]
    700c:	eb00096b 	bl	95c0 <uart0_transmit>
    7010:	e5d53001 	ldrb	r3, [r5, #1]
    7014:	e5d42000 	ldrb	r2, [r4]
    7018:	e1a00003 	mov	r0, r3
    701c:	e0833002 	add	r3, r3, r2
    7020:	e5c43000 	strb	r3, [r4]
    7024:	eb000965 	bl	95c0 <uart0_transmit>
    7028:	e5d53002 	ldrb	r3, [r5, #2]
    702c:	e5d42000 	ldrb	r2, [r4]
    7030:	e1a00003 	mov	r0, r3
    7034:	e0833002 	add	r3, r3, r2
    7038:	e5c43000 	strb	r3, [r4]
    703c:	eb00095f 	bl	95c0 <uart0_transmit>
    7040:	e5d53003 	ldrb	r3, [r5, #3]
    7044:	e5d42000 	ldrb	r2, [r4]
    7048:	e1a00003 	mov	r0, r3
    704c:	e0833002 	add	r3, r3, r2
    7050:	e5c43000 	strb	r3, [r4]
    7054:	eb000959 	bl	95c0 <uart0_transmit>
    7058:	e5d43000 	ldrb	r3, [r4]
    705c:	e1e03003 	mvn	r3, r3
    7060:	e5c43000 	strb	r3, [r4]
    7064:	e5d40000 	ldrb	r0, [r4]
    7068:	eb000954 	bl	95c0 <uart0_transmit>
    706c:	e5d96000 	ldrb	r6, [r9]
    7070:	e356000c 	cmp	r6, #12	; 0xc
    7074:	0a000292 	beq	7ac4 <.text+0x3ac4>
    7078:	e3560012 	cmp	r6, #18	; 0x12
    707c:	0a000290 	beq	7ac4 <.text+0x3ac4>
    7080:	e3560018 	cmp	r6, #24	; 0x18
    7084:	1a00009b 	bne	72f8 <.text+0x32f8>
    7088:	e3a0001d 	mov	r0, #29	; 0x1d
    708c:	eb000937 	bl	9570 <uart0_check_free_space>
    7090:	e31000ff 	tst	r0, #255	; 0xff
    7094:	0a000286 	beq	7ab4 <.text+0x3ab4>
    7098:	e2466018 	sub	r6, r6, #24	; 0x18
    709c:	e3a0007e 	mov	r0, #126	; 0x7e
    70a0:	e51f45dc 	ldr	r4, [pc, #-1500]	; 6acc <.text+0x2acc>
    70a4:	eb000945 	bl	95c0 <uart0_transmit>
    70a8:	e1a00006 	mov	r0, r6
    70ac:	e3a05001 	mov	r5, #1	; 0x1
    70b0:	eb000942 	bl	95c0 <uart0_transmit>
    70b4:	e3a0001f 	mov	r0, #31	; 0x1f
    70b8:	eb000940 	bl	95c0 <uart0_transmit>
    70bc:	e1a00005 	mov	r0, r5
    70c0:	e5c45000 	strb	r5, [r4]
    70c4:	eb00093d 	bl	95c0 <uart0_transmit>
    70c8:	e1a00006 	mov	r0, r6
    70cc:	eb00093b 	bl	95c0 <uart0_transmit>
    70d0:	e5d43000 	ldrb	r3, [r4]
    70d4:	e0833005 	add	r3, r3, r5
    70d8:	e5c43000 	strb	r3, [r4]
    70dc:	e1a00005 	mov	r0, r5
    70e0:	eb000936 	bl	95c0 <uart0_transmit>
    70e4:	e1a00006 	mov	r0, r6
    70e8:	eb000934 	bl	95c0 <uart0_transmit>
    70ec:	e1a00006 	mov	r0, r6
    70f0:	eb000932 	bl	95c0 <uart0_transmit>
    70f4:	e5d43000 	ldrb	r3, [r4]
    70f8:	e283300a 	add	r3, r3, #10	; 0xa
    70fc:	e3a0000a 	mov	r0, #10	; 0xa
    7100:	e5c43000 	strb	r3, [r4]
    7104:	eb00092d 	bl	95c0 <uart0_transmit>
    7108:	e5d43000 	ldrb	r3, [r4]
    710c:	e51f5728 	ldr	r5, [pc, #-1832]	; 69ec <.text+0x29ec>
    7110:	e2833010 	add	r3, r3, #16	; 0x10
    7114:	e3a00010 	mov	r0, #16	; 0x10
    7118:	e5c43000 	strb	r3, [r4]
    711c:	eb000927 	bl	95c0 <uart0_transmit>
    7120:	e5d53000 	ldrb	r3, [r5]
    7124:	e5d42000 	ldrb	r2, [r4]
    7128:	e1a00003 	mov	r0, r3
    712c:	e0833002 	add	r3, r3, r2
    7130:	e5c43000 	strb	r3, [r4]
    7134:	eb000921 	bl	95c0 <uart0_transmit>
    7138:	e5d53001 	ldrb	r3, [r5, #1]
    713c:	e5d42000 	ldrb	r2, [r4]
    7140:	e1a00003 	mov	r0, r3
    7144:	e0833002 	add	r3, r3, r2
    7148:	e5c43000 	strb	r3, [r4]
    714c:	eb00091b 	bl	95c0 <uart0_transmit>
    7150:	e5d53002 	ldrb	r3, [r5, #2]
    7154:	e5d42000 	ldrb	r2, [r4]
    7158:	e1a00003 	mov	r0, r3
    715c:	e0833002 	add	r3, r3, r2
    7160:	e5c43000 	strb	r3, [r4]
    7164:	eb000915 	bl	95c0 <uart0_transmit>
    7168:	e5d50003 	ldrb	r0, [r5, #3]
    716c:	e5d43000 	ldrb	r3, [r4]
    7170:	e51f5788 	ldr	r5, [pc, #-1928]	; 69f0 <.text+0x29f0>
    7174:	e0803003 	add	r3, r0, r3
    7178:	e5c43000 	strb	r3, [r4]
    717c:	eb00090f 	bl	95c0 <uart0_transmit>
    7180:	e5d53000 	ldrb	r3, [r5]
    7184:	e5d42000 	ldrb	r2, [r4]
    7188:	e1a00003 	mov	r0, r3
    718c:	e0833002 	add	r3, r3, r2
    7190:	e5c43000 	strb	r3, [r4]
    7194:	eb000909 	bl	95c0 <uart0_transmit>
    7198:	e5d53001 	ldrb	r3, [r5, #1]
    719c:	e5d42000 	ldrb	r2, [r4]
    71a0:	e1a00003 	mov	r0, r3
    71a4:	e0833002 	add	r3, r3, r2
    71a8:	e5c43000 	strb	r3, [r4]
    71ac:	eb000903 	bl	95c0 <uart0_transmit>
    71b0:	e5d53002 	ldrb	r3, [r5, #2]
    71b4:	e5d42000 	ldrb	r2, [r4]
    71b8:	e1a00003 	mov	r0, r3
    71bc:	e0833002 	add	r3, r3, r2
    71c0:	e5c43000 	strb	r3, [r4]
    71c4:	eb0008fd 	bl	95c0 <uart0_transmit>
    71c8:	e5d50003 	ldrb	r0, [r5, #3]
    71cc:	e5d43000 	ldrb	r3, [r4]
    71d0:	e51f57e4 	ldr	r5, [pc, #-2020]	; 69f4 <.text+0x29f4>
    71d4:	e0803003 	add	r3, r0, r3
    71d8:	e5c43000 	strb	r3, [r4]
    71dc:	eb0008f7 	bl	95c0 <uart0_transmit>
    71e0:	e5d53000 	ldrb	r3, [r5]
    71e4:	e5d42000 	ldrb	r2, [r4]
    71e8:	e1a00003 	mov	r0, r3
    71ec:	e0833002 	add	r3, r3, r2
    71f0:	e5c43000 	strb	r3, [r4]
    71f4:	eb0008f1 	bl	95c0 <uart0_transmit>
    71f8:	e5d53001 	ldrb	r3, [r5, #1]
    71fc:	e5d42000 	ldrb	r2, [r4]
    7200:	e1a00003 	mov	r0, r3
    7204:	e0833002 	add	r3, r3, r2
    7208:	e5c43000 	strb	r3, [r4]
    720c:	eb0008eb 	bl	95c0 <uart0_transmit>
    7210:	e5d53002 	ldrb	r3, [r5, #2]
    7214:	e5d42000 	ldrb	r2, [r4]
    7218:	e1a00003 	mov	r0, r3
    721c:	e0833002 	add	r3, r3, r2
    7220:	e5c43000 	strb	r3, [r4]
    7224:	eb0008e5 	bl	95c0 <uart0_transmit>
    7228:	e5d50003 	ldrb	r0, [r5, #3]
    722c:	e5d43000 	ldrb	r3, [r4]
    7230:	e51f5840 	ldr	r5, [pc, #-2112]	; 69f8 <.text+0x29f8>
    7234:	e0803003 	add	r3, r0, r3
    7238:	e5c43000 	strb	r3, [r4]
    723c:	eb0008df 	bl	95c0 <uart0_transmit>
    7240:	e5d53000 	ldrb	r3, [r5]
    7244:	e5d42000 	ldrb	r2, [r4]
    7248:	e1a00003 	mov	r0, r3
    724c:	e0833002 	add	r3, r3, r2
    7250:	e5c43000 	strb	r3, [r4]
    7254:	eb0008d9 	bl	95c0 <uart0_transmit>
    7258:	e5d53001 	ldrb	r3, [r5, #1]
    725c:	e5d42000 	ldrb	r2, [r4]
    7260:	e1a00003 	mov	r0, r3
    7264:	e0833002 	add	r3, r3, r2
    7268:	e5c43000 	strb	r3, [r4]
    726c:	eb0008d3 	bl	95c0 <uart0_transmit>
    7270:	e5d53002 	ldrb	r3, [r5, #2]
    7274:	e5d42000 	ldrb	r2, [r4]
    7278:	e1a00003 	mov	r0, r3
    727c:	e0833002 	add	r3, r3, r2
    7280:	e5c43000 	strb	r3, [r4]
    7284:	eb0008cd 	bl	95c0 <uart0_transmit>
    7288:	e5d50003 	ldrb	r0, [r5, #3]
    728c:	e5d43000 	ldrb	r3, [r4]
    7290:	e51f589c 	ldr	r5, [pc, #-2204]	; 69fc <.text+0x29fc>
    7294:	e0803003 	add	r3, r0, r3
    7298:	e5c43000 	strb	r3, [r4]
    729c:	eb0008c7 	bl	95c0 <uart0_transmit>
    72a0:	e5d53000 	ldrb	r3, [r5]
    72a4:	e5d42000 	ldrb	r2, [r4]
    72a8:	e1a00003 	mov	r0, r3
    72ac:	e0833002 	add	r3, r3, r2
    72b0:	e5c43000 	strb	r3, [r4]
    72b4:	eb0008c1 	bl	95c0 <uart0_transmit>
    72b8:	e5d53001 	ldrb	r3, [r5, #1]
    72bc:	e5d42000 	ldrb	r2, [r4]
    72c0:	e1a00003 	mov	r0, r3
    72c4:	e0833002 	add	r3, r3, r2
    72c8:	e5c43000 	strb	r3, [r4]
    72cc:	eb0008bb 	bl	95c0 <uart0_transmit>
    72d0:	e5d53002 	ldrb	r3, [r5, #2]
    72d4:	e5d42000 	ldrb	r2, [r4]
    72d8:	e1a00003 	mov	r0, r3
    72dc:	e0833002 	add	r3, r3, r2
    72e0:	e5c43000 	strb	r3, [r4]
    72e4:	eb0008b5 	bl	95c0 <uart0_transmit>
    72e8:	e5d50003 	ldrb	r0, [r5, #3]
    72ec:	e5d43000 	ldrb	r3, [r4]
    72f0:	e51f58f8 	ldr	r5, [pc, #-2296]	; 6a00 <.text+0x2a00>
    72f4:	ea0001cd 	b	7a30 <.text+0x3a30>
    72f8:	e356001e 	cmp	r6, #30	; 0x1e
    72fc:	1a00003f 	bne	7400 <.text+0x3400>
    7300:	e51f3904 	ldr	r3, [pc, #-2308]	; 6a04 <.text+0x2a04>
    7304:	e5d33000 	ldrb	r3, [r3]
    7308:	e3530000 	cmp	r3, #0	; 0x0
    730c:	0a0001ec 	beq	7ac4 <.text+0x3ac4>
    7310:	e3a0000b 	mov	r0, #11	; 0xb
    7314:	eb000895 	bl	9570 <uart0_check_free_space>
    7318:	e31000ff 	tst	r0, #255	; 0xff
    731c:	0a0001e4 	beq	7ab4 <.text+0x3ab4>
    7320:	e246601e 	sub	r6, r6, #30	; 0x1e
    7324:	e3a0007e 	mov	r0, #126	; 0x7e
    7328:	e51f4864 	ldr	r4, [pc, #-2148]	; 6acc <.text+0x2acc>
    732c:	eb0008a3 	bl	95c0 <uart0_transmit>
    7330:	e1a00006 	mov	r0, r6
    7334:	e3a05001 	mov	r5, #1	; 0x1
    7338:	eb0008a0 	bl	95c0 <uart0_transmit>
    733c:	e3a0000d 	mov	r0, #13	; 0xd
    7340:	eb00089e 	bl	95c0 <uart0_transmit>
    7344:	e1a00005 	mov	r0, r5
    7348:	e5c45000 	strb	r5, [r4]
    734c:	eb00089b 	bl	95c0 <uart0_transmit>
    7350:	e1a00006 	mov	r0, r6
    7354:	eb000899 	bl	95c0 <uart0_transmit>
    7358:	e5d43000 	ldrb	r3, [r4]
    735c:	e0833005 	add	r3, r3, r5
    7360:	e5c43000 	strb	r3, [r4]
    7364:	e1a00005 	mov	r0, r5
    7368:	eb000894 	bl	95c0 <uart0_transmit>
    736c:	e1a00006 	mov	r0, r6
    7370:	eb000892 	bl	95c0 <uart0_transmit>
    7374:	e1a00006 	mov	r0, r6
    7378:	eb000890 	bl	95c0 <uart0_transmit>
    737c:	e5d43000 	ldrb	r3, [r4]
    7380:	e283300a 	add	r3, r3, #10	; 0xa
    7384:	e3a0000a 	mov	r0, #10	; 0xa
    7388:	e5c43000 	strb	r3, [r4]
    738c:	eb00088b 	bl	95c0 <uart0_transmit>
    7390:	e5d43000 	ldrb	r3, [r4]
    7394:	e51f5994 	ldr	r5, [pc, #-2452]	; 6a08 <.text+0x2a08>
    7398:	e2833015 	add	r3, r3, #21	; 0x15
    739c:	e3a00015 	mov	r0, #21	; 0x15
    73a0:	e5c43000 	strb	r3, [r4]
    73a4:	eb000885 	bl	95c0 <uart0_transmit>
    73a8:	e5d53000 	ldrb	r3, [r5]
    73ac:	e5d42000 	ldrb	r2, [r4]
    73b0:	e1a00003 	mov	r0, r3
    73b4:	e0833002 	add	r3, r3, r2
    73b8:	e5c43000 	strb	r3, [r4]
    73bc:	eb00087f 	bl	95c0 <uart0_transmit>
    73c0:	e5d50001 	ldrb	r0, [r5, #1]
    73c4:	e5d43000 	ldrb	r3, [r4]
    73c8:	e51f59c4 	ldr	r5, [pc, #-2500]	; 6a0c <.text+0x2a0c>
    73cc:	e0803003 	add	r3, r0, r3
    73d0:	e5c43000 	strb	r3, [r4]
    73d4:	eb000879 	bl	95c0 <uart0_transmit>
    73d8:	e5d53000 	ldrb	r3, [r5]
    73dc:	e5d42000 	ldrb	r2, [r4]
    73e0:	e1a00003 	mov	r0, r3
    73e4:	e0833002 	add	r3, r3, r2
    73e8:	e5c43000 	strb	r3, [r4]
    73ec:	eb000873 	bl	95c0 <uart0_transmit>
    73f0:	e5d50001 	ldrb	r0, [r5, #1]
    73f4:	e5d43000 	ldrb	r3, [r4]
    73f8:	e51f59f0 	ldr	r5, [pc, #-2544]	; 6a10 <.text+0x2a10>
    73fc:	ea00004c 	b	7534 <.text+0x3534>
    7400:	e3560024 	cmp	r6, #36	; 0x24
    7404:	1a000055 	bne	7560 <.text+0x3560>
    7408:	e51f39fc 	ldr	r3, [pc, #-2556]	; 6a14 <.text+0x2a14>
    740c:	e5d33000 	ldrb	r3, [r3]
    7410:	e3530000 	cmp	r3, #0	; 0x0
    7414:	0a0001aa 	beq	7ac4 <.text+0x3ac4>
    7418:	e3a0000d 	mov	r0, #13	; 0xd
    741c:	eb000853 	bl	9570 <uart0_check_free_space>
    7420:	e31000ff 	tst	r0, #255	; 0xff
    7424:	0a0001a2 	beq	7ab4 <.text+0x3ab4>
    7428:	e2466024 	sub	r6, r6, #36	; 0x24
    742c:	e3a0007e 	mov	r0, #126	; 0x7e
    7430:	e51f496c 	ldr	r4, [pc, #-2412]	; 6acc <.text+0x2acc>
    7434:	eb000861 	bl	95c0 <uart0_transmit>
    7438:	e1a00006 	mov	r0, r6
    743c:	e3a05001 	mov	r5, #1	; 0x1
    7440:	eb00085e 	bl	95c0 <uart0_transmit>
    7444:	e3a0000f 	mov	r0, #15	; 0xf
    7448:	eb00085c 	bl	95c0 <uart0_transmit>
    744c:	e1a00005 	mov	r0, r5
    7450:	e5c45000 	strb	r5, [r4]
    7454:	eb000859 	bl	95c0 <uart0_transmit>
    7458:	e1a00006 	mov	r0, r6
    745c:	eb000857 	bl	95c0 <uart0_transmit>
    7460:	e5d43000 	ldrb	r3, [r4]
    7464:	e0833005 	add	r3, r3, r5
    7468:	e5c43000 	strb	r3, [r4]
    746c:	e1a00005 	mov	r0, r5
    7470:	eb000852 	bl	95c0 <uart0_transmit>
    7474:	e1a00006 	mov	r0, r6
    7478:	eb000850 	bl	95c0 <uart0_transmit>
    747c:	e1a00006 	mov	r0, r6
    7480:	eb00084e 	bl	95c0 <uart0_transmit>
    7484:	e5d43000 	ldrb	r3, [r4]
    7488:	e283300a 	add	r3, r3, #10	; 0xa
    748c:	e3a0000a 	mov	r0, #10	; 0xa
    7490:	e5c43000 	strb	r3, [r4]
    7494:	eb000849 	bl	95c0 <uart0_transmit>
    7498:	e5d43000 	ldrb	r3, [r4]
    749c:	e51f5a8c 	ldr	r5, [pc, #-2700]	; 6a18 <.text+0x2a18>
    74a0:	e2833016 	add	r3, r3, #22	; 0x16
    74a4:	e3a00016 	mov	r0, #22	; 0x16
    74a8:	e5c43000 	strb	r3, [r4]
    74ac:	eb000843 	bl	95c0 <uart0_transmit>
    74b0:	e5d53000 	ldrb	r3, [r5]
    74b4:	e5d42000 	ldrb	r2, [r4]
    74b8:	e1a00003 	mov	r0, r3
    74bc:	e0833002 	add	r3, r3, r2
    74c0:	e5c43000 	strb	r3, [r4]
    74c4:	eb00083d 	bl	95c0 <uart0_transmit>
    74c8:	e5d50001 	ldrb	r0, [r5, #1]
    74cc:	e5d43000 	ldrb	r3, [r4]
    74d0:	e51f5abc 	ldr	r5, [pc, #-2748]	; 6a1c <.text+0x2a1c>
    74d4:	e0803003 	add	r3, r0, r3
    74d8:	e5c43000 	strb	r3, [r4]
    74dc:	eb000837 	bl	95c0 <uart0_transmit>
    74e0:	e5d53000 	ldrb	r3, [r5]
    74e4:	e5d42000 	ldrb	r2, [r4]
    74e8:	e1a00003 	mov	r0, r3
    74ec:	e0833002 	add	r3, r3, r2
    74f0:	e5c43000 	strb	r3, [r4]
    74f4:	eb000831 	bl	95c0 <uart0_transmit>
    74f8:	e5d50001 	ldrb	r0, [r5, #1]
    74fc:	e5d43000 	ldrb	r3, [r4]
    7500:	e51f5ae8 	ldr	r5, [pc, #-2792]	; 6a20 <.text+0x2a20>
    7504:	e0803003 	add	r3, r0, r3
    7508:	e5c43000 	strb	r3, [r4]
    750c:	eb00082b 	bl	95c0 <uart0_transmit>
    7510:	e5d53000 	ldrb	r3, [r5]
    7514:	e5d42000 	ldrb	r2, [r4]
    7518:	e1a00003 	mov	r0, r3
    751c:	e0833002 	add	r3, r3, r2
    7520:	e5c43000 	strb	r3, [r4]
    7524:	eb000825 	bl	95c0 <uart0_transmit>
    7528:	e5d50001 	ldrb	r0, [r5, #1]
    752c:	e5d43000 	ldrb	r3, [r4]
    7530:	e51f5b14 	ldr	r5, [pc, #-2836]	; 6a24 <.text+0x2a24>
    7534:	e0803003 	add	r3, r0, r3
    7538:	e5c43000 	strb	r3, [r4]
    753c:	eb00081f 	bl	95c0 <uart0_transmit>
    7540:	e5d53000 	ldrb	r3, [r5]
    7544:	e5d42000 	ldrb	r2, [r4]
    7548:	e1a00003 	mov	r0, r3
    754c:	e0833002 	add	r3, r3, r2
    7550:	e5c43000 	strb	r3, [r4]
    7554:	eb000819 	bl	95c0 <uart0_transmit>
    7558:	e5d53001 	ldrb	r3, [r5, #1]
    755c:	ea000149 	b	7a88 <.text+0x3a88>
    7560:	e356002a 	cmp	r6, #42	; 0x2a
    7564:	1a0000d9 	bne	78d0 <.text+0x38d0>
    7568:	e51f7aa8 	ldr	r7, [pc, #-2728]	; 6ac8 <.text+0x2ac8>
    756c:	e5d73000 	ldrb	r3, [r7]
    7570:	e3530025 	cmp	r3, #37	; 0x25
    7574:	83a03000 	movhi	r3, #0	; 0x0
    7578:	85c73000 	strhib	r3, [r7]
    757c:	e5d73000 	ldrb	r3, [r7]
    7580:	e3530025 	cmp	r3, #37	; 0x25
    7584:	979ff103 	ldrls	pc, [pc, r3, lsl #2]
    7588:	ea000080 	b	7790 <.text+0x3790>
    758c:	00007624 	andeq	r7, r0, r4, lsr #12
    7590:	0000762c 	andeq	r7, r0, ip, lsr #12
    7594:	00007634 	andeq	r7, r0, r4, lsr r6
    7598:	00007640 	andeq	r7, r0, r0, asr #12
    759c:	00007648 	andeq	r7, r0, r8, asr #12
    75a0:	00007650 	andeq	r7, r0, r0, asr r6
    75a4:	00007670 	andeq	r7, r0, r0, ror r6
    75a8:	00007678 	andeq	r7, r0, r8, ror r6
    75ac:	000076a0 	andeq	r7, r0, r0, lsr #13
    75b0:	000076a8 	andeq	r7, r0, r8, lsr #13
    75b4:	000076b0 	streqh	r7, [r0], -r0
    75b8:	000076b8 	streqh	r7, [r0], -r8
    75bc:	000076c0 	andeq	r7, r0, r0, asr #13
    75c0:	000076c8 	andeq	r7, r0, r8, asr #13
    75c4:	000076d0 	ldreqd	r7, [r0], -r0
    75c8:	000076d8 	ldreqd	r7, [r0], -r8
    75cc:	000076e0 	andeq	r7, r0, r0, ror #13
    75d0:	000076e8 	andeq	r7, r0, r8, ror #13
    75d4:	000076f0 	streqd	r7, [r0], -r0
    75d8:	000076f8 	streqd	r7, [r0], -r8
    75dc:	00007700 	andeq	r7, r0, r0, lsl #14
    75e0:	00007708 	andeq	r7, r0, r8, lsl #14
    75e4:	00007710 	andeq	r7, r0, r0, lsl r7
    75e8:	00007718 	andeq	r7, r0, r8, lsl r7
    75ec:	00007720 	andeq	r7, r0, r0, lsr #14
    75f0:	00007728 	andeq	r7, r0, r8, lsr #14
    75f4:	00007730 	andeq	r7, r0, r0, lsr r7
    75f8:	00007738 	andeq	r7, r0, r8, lsr r7
    75fc:	00007740 	andeq	r7, r0, r0, asr #14
    7600:	00007748 	andeq	r7, r0, r8, asr #14
    7604:	00007750 	andeq	r7, r0, r0, asr r7
    7608:	00007758 	andeq	r7, r0, r8, asr r7
    760c:	00007760 	andeq	r7, r0, r0, ror #14
    7610:	00007768 	andeq	r7, r0, r8, ror #14
    7614:	00007770 	andeq	r7, r0, r0, ror r7
    7618:	00007778 	andeq	r7, r0, r8, ror r7
    761c:	00007780 	andeq	r7, r0, r0, lsl #15
    7620:	00007788 	andeq	r7, r0, r8, lsl #15
    7624:	e51f3c04 	ldr	r3, [pc, #-3076]	; 6a28 <.text+0x2a28>
    7628:	ea000002 	b	7638 <.text+0x3638>
    762c:	e51f3c08 	ldr	r3, [pc, #-3080]	; 6a2c <.text+0x2a2c>
    7630:	ea000011 	b	767c <.text+0x367c>
    7634:	e51f3c0c 	ldr	r3, [pc, #-3084]	; 6a30 <.text+0x2a30>
    7638:	e5933000 	ldr	r3, [r3]
    763c:	ea000054 	b	7794 <.text+0x3794>
    7640:	e51f3c14 	ldr	r3, [pc, #-3092]	; 6a34 <.text+0x2a34>
    7644:	eafffffb 	b	7638 <.text+0x3638>
    7648:	e51f3c18 	ldr	r3, [pc, #-3096]	; 6a38 <.text+0x2a38>
    764c:	ea00000a 	b	767c <.text+0x367c>
    7650:	e51f3c1c 	ldr	r3, [pc, #-3100]	; 6a3c <.text+0x2a3c>
    7654:	e1d340f0 	ldrsh	r4, [r3]
    7658:	e1a00004 	mov	r0, r4
    765c:	eb002b59 	bl	123c8 <__floatsisf>
    7660:	e3540000 	cmp	r4, #0	; 0x0
    7664:	b51f1c2c 	ldrlt	r1, [pc, #-3116]	; 6a40 <.text+0x2a40>
    7668:	ba000009 	blt	7694 <.text+0x3694>
    766c:	ea000009 	b	7698 <.text+0x3698>
    7670:	e51f3c34 	ldr	r3, [pc, #-3124]	; 6a44 <.text+0x2a44>
    7674:	ea000000 	b	767c <.text+0x367c>
    7678:	e51f3c38 	ldr	r3, [pc, #-3128]	; 6a48 <.text+0x2a48>
    767c:	e1d340d0 	ldrsb	r4, [r3]
    7680:	e1a00004 	mov	r0, r4
    7684:	eb002b4f 	bl	123c8 <__floatsisf>
    7688:	e3540000 	cmp	r4, #0	; 0x0
    768c:	aa000001 	bge	7698 <.text+0x3698>
    7690:	e51f1c4c 	ldr	r1, [pc, #-3148]	; 6a4c <.text+0x2a4c>
    7694:	eb002ad9 	bl	12200 <__addsf3>
    7698:	e50b0044 	str	r0, [fp, #-68]
    769c:	ea00003d 	b	7798 <.text+0x3798>
    76a0:	e51f3c58 	ldr	r3, [pc, #-3160]	; 6a50 <.text+0x2a50>
    76a4:	eaffffe3 	b	7638 <.text+0x3638>
    76a8:	e51f3c5c 	ldr	r3, [pc, #-3164]	; 6a54 <.text+0x2a54>
    76ac:	eaffffe1 	b	7638 <.text+0x3638>
    76b0:	e51f3c60 	ldr	r3, [pc, #-3168]	; 6a58 <.text+0x2a58>
    76b4:	eaffffdf 	b	7638 <.text+0x3638>
    76b8:	e51f3c64 	ldr	r3, [pc, #-3172]	; 6a5c <.text+0x2a5c>
    76bc:	eaffffdd 	b	7638 <.text+0x3638>
    76c0:	e51f3c68 	ldr	r3, [pc, #-3176]	; 6a60 <.text+0x2a60>
    76c4:	eaffffdb 	b	7638 <.text+0x3638>
    76c8:	e51f3c6c 	ldr	r3, [pc, #-3180]	; 6a64 <.text+0x2a64>
    76cc:	eaffffd9 	b	7638 <.text+0x3638>
    76d0:	e51f3c70 	ldr	r3, [pc, #-3184]	; 6a68 <.text+0x2a68>
    76d4:	eaffffd7 	b	7638 <.text+0x3638>
    76d8:	e51f3c74 	ldr	r3, [pc, #-3188]	; 6a6c <.text+0x2a6c>
    76dc:	eaffffd5 	b	7638 <.text+0x3638>
    76e0:	e51f3c78 	ldr	r3, [pc, #-3192]	; 6a70 <.text+0x2a70>
    76e4:	eaffffd3 	b	7638 <.text+0x3638>
    76e8:	e51f3c7c 	ldr	r3, [pc, #-3196]	; 6a74 <.text+0x2a74>
    76ec:	eaffffd1 	b	7638 <.text+0x3638>
    76f0:	e51f3c80 	ldr	r3, [pc, #-3200]	; 6a78 <.text+0x2a78>
    76f4:	eaffffcf 	b	7638 <.text+0x3638>
    76f8:	e51f3c84 	ldr	r3, [pc, #-3204]	; 6a7c <.text+0x2a7c>
    76fc:	eaffffcd 	b	7638 <.text+0x3638>
    7700:	e51f3c88 	ldr	r3, [pc, #-3208]	; 6a80 <.text+0x2a80>
    7704:	eaffffcb 	b	7638 <.text+0x3638>
    7708:	e51f3c8c 	ldr	r3, [pc, #-3212]	; 6a84 <.text+0x2a84>
    770c:	eaffffc9 	b	7638 <.text+0x3638>
    7710:	e51f3c90 	ldr	r3, [pc, #-3216]	; 6a88 <.text+0x2a88>
    7714:	eaffffc7 	b	7638 <.text+0x3638>
    7718:	e51f3c94 	ldr	r3, [pc, #-3220]	; 6a8c <.text+0x2a8c>
    771c:	eaffffc5 	b	7638 <.text+0x3638>
    7720:	e51f3c98 	ldr	r3, [pc, #-3224]	; 6a90 <.text+0x2a90>
    7724:	eaffffc3 	b	7638 <.text+0x3638>
    7728:	e51f3c9c 	ldr	r3, [pc, #-3228]	; 6a94 <.text+0x2a94>
    772c:	eaffffc1 	b	7638 <.text+0x3638>
    7730:	e51f3ca0 	ldr	r3, [pc, #-3232]	; 6a98 <.text+0x2a98>
    7734:	eaffffbf 	b	7638 <.text+0x3638>
    7738:	e51f3ca4 	ldr	r3, [pc, #-3236]	; 6a9c <.text+0x2a9c>
    773c:	eaffffbd 	b	7638 <.text+0x3638>
    7740:	e51f3ca8 	ldr	r3, [pc, #-3240]	; 6aa0 <.text+0x2aa0>
    7744:	eaffffbb 	b	7638 <.text+0x3638>
    7748:	e51f3cac 	ldr	r3, [pc, #-3244]	; 6aa4 <.text+0x2aa4>
    774c:	eaffffb9 	b	7638 <.text+0x3638>
    7750:	e51f3cb0 	ldr	r3, [pc, #-3248]	; 6aa8 <.text+0x2aa8>
    7754:	eaffffb7 	b	7638 <.text+0x3638>
    7758:	e51f3cb4 	ldr	r3, [pc, #-3252]	; 6aac <.text+0x2aac>
    775c:	eaffffb5 	b	7638 <.text+0x3638>
    7760:	e51f3cb8 	ldr	r3, [pc, #-3256]	; 6ab0 <.text+0x2ab0>
    7764:	eaffffb3 	b	7638 <.text+0x3638>
    7768:	e51f3cbc 	ldr	r3, [pc, #-3260]	; 6ab4 <.text+0x2ab4>
    776c:	eaffffb1 	b	7638 <.text+0x3638>
    7770:	e51f3cc0 	ldr	r3, [pc, #-3264]	; 6ab8 <.text+0x2ab8>
    7774:	eaffffaf 	b	7638 <.text+0x3638>
    7778:	e51f3cc4 	ldr	r3, [pc, #-3268]	; 6abc <.text+0x2abc>
    777c:	eaffffad 	b	7638 <.text+0x3638>
    7780:	e51f3cc8 	ldr	r3, [pc, #-3272]	; 6ac0 <.text+0x2ac0>
    7784:	eaffffab 	b	7638 <.text+0x3638>
    7788:	e51f3ccc 	ldr	r3, [pc, #-3276]	; 6ac4 <.text+0x2ac4>
    778c:	eaffffa9 	b	7638 <.text+0x3638>
    7790:	e3a03000 	mov	r3, #0	; 0x0
    7794:	e50b3044 	str	r3, [fp, #-68]
    7798:	e3a0000a 	mov	r0, #10	; 0xa
    779c:	eb000773 	bl	9570 <uart0_check_free_space>
    77a0:	e31000ff 	tst	r0, #255	; 0xff
    77a4:	051f2ccc 	ldreq	r2, [pc, #-3276]	; 6ae0 <.text+0x2ae0>
    77a8:	05d23000 	ldreqb	r3, [r2]
    77ac:	02833001 	addeq	r3, r3, #1	; 0x1
    77b0:	05c23000 	streqb	r3, [r2]
    77b4:	0a000043 	beq	78c8 <.text+0x38c8>
    77b8:	e3a06000 	mov	r6, #0	; 0x0
    77bc:	e3a0007e 	mov	r0, #126	; 0x7e
    77c0:	e51f4cfc 	ldr	r4, [pc, #-3324]	; 6acc <.text+0x2acc>
    77c4:	eb00077d 	bl	95c0 <uart0_transmit>
    77c8:	e1a00006 	mov	r0, r6
    77cc:	eb00077b 	bl	95c0 <uart0_transmit>
    77d0:	e3a05001 	mov	r5, #1	; 0x1
    77d4:	e3a0000c 	mov	r0, #12	; 0xc
    77d8:	eb000778 	bl	95c0 <uart0_transmit>
    77dc:	e1a00005 	mov	r0, r5
    77e0:	e5c45000 	strb	r5, [r4]
    77e4:	eb000775 	bl	95c0 <uart0_transmit>
    77e8:	e1a00006 	mov	r0, r6
    77ec:	eb000773 	bl	95c0 <uart0_transmit>
    77f0:	e5d43000 	ldrb	r3, [r4]
    77f4:	e0833005 	add	r3, r3, r5
    77f8:	e5c43000 	strb	r3, [r4]
    77fc:	e1a00005 	mov	r0, r5
    7800:	eb00076e 	bl	95c0 <uart0_transmit>
    7804:	e1a00006 	mov	r0, r6
    7808:	eb00076c 	bl	95c0 <uart0_transmit>
    780c:	e1a00006 	mov	r0, r6
    7810:	eb00076a 	bl	95c0 <uart0_transmit>
    7814:	e5d43000 	ldrb	r3, [r4]
    7818:	e283300a 	add	r3, r3, #10	; 0xa
    781c:	e3a0000a 	mov	r0, #10	; 0xa
    7820:	e5c43000 	strb	r3, [r4]
    7824:	eb000765 	bl	95c0 <uart0_transmit>
    7828:	e5d43000 	ldrb	r3, [r4]
    782c:	e283301f 	add	r3, r3, #31	; 0x1f
    7830:	e3a0001f 	mov	r0, #31	; 0x1f
    7834:	e5c43000 	strb	r3, [r4]
    7838:	eb000760 	bl	95c0 <uart0_transmit>
    783c:	e5d73000 	ldrb	r3, [r7]
    7840:	e5d42000 	ldrb	r2, [r4]
    7844:	e1a00003 	mov	r0, r3
    7848:	e0833002 	add	r3, r3, r2
    784c:	e5c43000 	strb	r3, [r4]
    7850:	eb00075a 	bl	95c0 <uart0_transmit>
    7854:	e55b3044 	ldrb	r3, [fp, #-68]
    7858:	e5d42000 	ldrb	r2, [r4]
    785c:	e1a00003 	mov	r0, r3
    7860:	e0833002 	add	r3, r3, r2
    7864:	e5c43000 	strb	r3, [r4]
    7868:	eb000754 	bl	95c0 <uart0_transmit>
    786c:	e55b3043 	ldrb	r3, [fp, #-67]
    7870:	e5d42000 	ldrb	r2, [r4]
    7874:	e1a00003 	mov	r0, r3
    7878:	e0833002 	add	r3, r3, r2
    787c:	e5c43000 	strb	r3, [r4]
    7880:	eb00074e 	bl	95c0 <uart0_transmit>
    7884:	e55b3042 	ldrb	r3, [fp, #-66]
    7888:	e5d42000 	ldrb	r2, [r4]
    788c:	e1a00003 	mov	r0, r3
    7890:	e0833002 	add	r3, r3, r2
    7894:	e5c43000 	strb	r3, [r4]
    7898:	eb000748 	bl	95c0 <uart0_transmit>
    789c:	e55b3041 	ldrb	r3, [fp, #-65]
    78a0:	e5d42000 	ldrb	r2, [r4]
    78a4:	e1a00003 	mov	r0, r3
    78a8:	e0833002 	add	r3, r3, r2
    78ac:	e5c43000 	strb	r3, [r4]
    78b0:	eb000742 	bl	95c0 <uart0_transmit>
    78b4:	e5d43000 	ldrb	r3, [r4]
    78b8:	e1e03003 	mvn	r3, r3
    78bc:	e5c43000 	strb	r3, [r4]
    78c0:	e5d40000 	ldrb	r0, [r4]
    78c4:	eb00073d 	bl	95c0 <uart0_transmit>
    78c8:	e51f2e08 	ldr	r2, [pc, #-3592]	; 6ac8 <.text+0x2ac8>
    78cc:	ea000079 	b	7ab8 <.text+0x3ab8>
    78d0:	e3560030 	cmp	r6, #48	; 0x30
    78d4:	0a00007a 	beq	7ac4 <.text+0x3ac4>
    78d8:	e3560036 	cmp	r6, #54	; 0x36
    78dc:	0a000078 	beq	7ac4 <.text+0x3ac4>
    78e0:	e3560000 	cmp	r6, #0	; 0x0
    78e4:	1a000076 	bne	7ac4 <.text+0x3ac4>
    78e8:	e3a00011 	mov	r0, #17	; 0x11
    78ec:	eb00071f 	bl	9570 <uart0_check_free_space>
    78f0:	e31000ff 	tst	r0, #255	; 0xff
    78f4:	0a00006e 	beq	7ab4 <.text+0x3ab4>
    78f8:	e3a0007e 	mov	r0, #126	; 0x7e
    78fc:	e51f4e38 	ldr	r4, [pc, #-3640]	; 6acc <.text+0x2acc>
    7900:	eb00072e 	bl	95c0 <uart0_transmit>
    7904:	e1a00006 	mov	r0, r6
    7908:	e3a05001 	mov	r5, #1	; 0x1
    790c:	eb00072b 	bl	95c0 <uart0_transmit>
    7910:	e3a00013 	mov	r0, #19	; 0x13
    7914:	eb000729 	bl	95c0 <uart0_transmit>
    7918:	e1a00005 	mov	r0, r5
    791c:	e5c45000 	strb	r5, [r4]
    7920:	eb000726 	bl	95c0 <uart0_transmit>
    7924:	e1a00006 	mov	r0, r6
    7928:	eb000724 	bl	95c0 <uart0_transmit>
    792c:	e5d43000 	ldrb	r3, [r4]
    7930:	e0833005 	add	r3, r3, r5
    7934:	e5c43000 	strb	r3, [r4]
    7938:	e1a00005 	mov	r0, r5
    793c:	eb00071f 	bl	95c0 <uart0_transmit>
    7940:	e1a00006 	mov	r0, r6
    7944:	eb00071d 	bl	95c0 <uart0_transmit>
    7948:	e1a00006 	mov	r0, r6
    794c:	eb00071b 	bl	95c0 <uart0_transmit>
    7950:	e5d43000 	ldrb	r3, [r4]
    7954:	e283300a 	add	r3, r3, #10	; 0xa
    7958:	e3a0000a 	mov	r0, #10	; 0xa
    795c:	e5c43000 	strb	r3, [r4]
    7960:	eb000716 	bl	95c0 <uart0_transmit>
    7964:	e5d43000 	ldrb	r3, [r4]
    7968:	e51f5ea0 	ldr	r5, [pc, #-3744]	; 6ad0 <.text+0x2ad0>
    796c:	e2833024 	add	r3, r3, #36	; 0x24
    7970:	e3a00024 	mov	r0, #36	; 0x24
    7974:	e5c43000 	strb	r3, [r4]
    7978:	eb000710 	bl	95c0 <uart0_transmit>
    797c:	e5d53000 	ldrb	r3, [r5]
    7980:	e5d42000 	ldrb	r2, [r4]
    7984:	e1a00003 	mov	r0, r3
    7988:	e0833002 	add	r3, r3, r2
    798c:	e5c43000 	strb	r3, [r4]
    7990:	eb00070a 	bl	95c0 <uart0_transmit>
    7994:	e5d50001 	ldrb	r0, [r5, #1]
    7998:	e5d43000 	ldrb	r3, [r4]
    799c:	e51f5ed0 	ldr	r5, [pc, #-3792]	; 6ad4 <.text+0x2ad4>
    79a0:	e0803003 	add	r3, r0, r3
    79a4:	e5c43000 	strb	r3, [r4]
    79a8:	eb000704 	bl	95c0 <uart0_transmit>
    79ac:	e5d53000 	ldrb	r3, [r5]
    79b0:	e5d42000 	ldrb	r2, [r4]
    79b4:	e1a00003 	mov	r0, r3
    79b8:	e0833002 	add	r3, r3, r2
    79bc:	e5c43000 	strb	r3, [r4]
    79c0:	eb0006fe 	bl	95c0 <uart0_transmit>
    79c4:	e5d50001 	ldrb	r0, [r5, #1]
    79c8:	e5d43000 	ldrb	r3, [r4]
    79cc:	e51f5efc 	ldr	r5, [pc, #-3836]	; 6ad8 <.text+0x2ad8>
    79d0:	e0803003 	add	r3, r0, r3
    79d4:	e5c43000 	strb	r3, [r4]
    79d8:	eb0006f8 	bl	95c0 <uart0_transmit>
    79dc:	e5d53000 	ldrb	r3, [r5]
    79e0:	e5d42000 	ldrb	r2, [r4]
    79e4:	e1a00003 	mov	r0, r3
    79e8:	e0833002 	add	r3, r3, r2
    79ec:	e5c43000 	strb	r3, [r4]
    79f0:	eb0006f2 	bl	95c0 <uart0_transmit>
    79f4:	e5d53001 	ldrb	r3, [r5, #1]
    79f8:	e5d42000 	ldrb	r2, [r4]
    79fc:	e1a00003 	mov	r0, r3
    7a00:	e0833002 	add	r3, r3, r2
    7a04:	e5c43000 	strb	r3, [r4]
    7a08:	eb0006ec 	bl	95c0 <uart0_transmit>
    7a0c:	e5d53002 	ldrb	r3, [r5, #2]
    7a10:	e5d42000 	ldrb	r2, [r4]
    7a14:	e1a00003 	mov	r0, r3
    7a18:	e0833002 	add	r3, r3, r2
    7a1c:	e5c43000 	strb	r3, [r4]
    7a20:	eb0006e6 	bl	95c0 <uart0_transmit>
    7a24:	e5d50003 	ldrb	r0, [r5, #3]
    7a28:	e5d43000 	ldrb	r3, [r4]
    7a2c:	e51f5f58 	ldr	r5, [pc, #-3928]	; 6adc <.text+0x2adc>
    7a30:	e0803003 	add	r3, r0, r3
    7a34:	e5c43000 	strb	r3, [r4]
    7a38:	eb0006e0 	bl	95c0 <uart0_transmit>
    7a3c:	e5d53000 	ldrb	r3, [r5]
    7a40:	e5d42000 	ldrb	r2, [r4]
    7a44:	e1a00003 	mov	r0, r3
    7a48:	e0833002 	add	r3, r3, r2
    7a4c:	e5c43000 	strb	r3, [r4]
    7a50:	eb0006da 	bl	95c0 <uart0_transmit>
    7a54:	e5d53001 	ldrb	r3, [r5, #1]
    7a58:	e5d42000 	ldrb	r2, [r4]
    7a5c:	e1a00003 	mov	r0, r3
    7a60:	e0833002 	add	r3, r3, r2
    7a64:	e5c43000 	strb	r3, [r4]
    7a68:	eb0006d4 	bl	95c0 <uart0_transmit>
    7a6c:	e5d53002 	ldrb	r3, [r5, #2]
    7a70:	e5d42000 	ldrb	r2, [r4]
    7a74:	e1a00003 	mov	r0, r3
    7a78:	e0833002 	add	r3, r3, r2
    7a7c:	e5c43000 	strb	r3, [r4]
    7a80:	eb0006ce 	bl	95c0 <uart0_transmit>
    7a84:	e5d53003 	ldrb	r3, [r5, #3]
    7a88:	e5d42000 	ldrb	r2, [r4]
    7a8c:	e1a00003 	mov	r0, r3
    7a90:	e0833002 	add	r3, r3, r2
    7a94:	e5c43000 	strb	r3, [r4]
    7a98:	eb0006c8 	bl	95c0 <uart0_transmit>
    7a9c:	e5d43000 	ldrb	r3, [r4]
    7aa0:	e1e03003 	mvn	r3, r3
    7aa4:	e5c43000 	strb	r3, [r4]
    7aa8:	e5d40000 	ldrb	r0, [r4]
    7aac:	eb0006c3 	bl	95c0 <uart0_transmit>
    7ab0:	ea000003 	b	7ac4 <.text+0x3ac4>
    7ab4:	e51f2fdc 	ldr	r2, [pc, #-4060]	; 6ae0 <.text+0x2ae0>
    7ab8:	e5d23000 	ldrb	r3, [r2]
    7abc:	e2833001 	add	r3, r3, #1	; 0x1
    7ac0:	e5c23000 	strb	r3, [r2]
    7ac4:	e51f2fe8 	ldr	r2, [pc, #-4072]	; 6ae4 <.text+0x2ae4>
    7ac8:	e5d23000 	ldrb	r3, [r2]
    7acc:	e3530006 	cmp	r3, #6	; 0x6
    7ad0:	1a00006f 	bne	7c94 <.text+0x3c94>
    7ad4:	e51f3ff4 	ldr	r3, [pc, #-4084]	; 6ae8 <.text+0x2ae8>
    7ad8:	e5930000 	ldr	r0, [r3]
    7adc:	eb002b3f 	bl	127e0 <__fixsfsi>
    7ae0:	e14b03b0 	strh	r0, [fp, #-48]
    7ae4:	e3a00011 	mov	r0, #17	; 0x11
    7ae8:	eb0006a0 	bl	9570 <uart0_check_free_space>
    7aec:	e31000ff 	tst	r0, #255	; 0xff
    7af0:	0a00012c 	beq	7fa8 <.text+0x3fa8>
    7af4:	e3a06000 	mov	r6, #0	; 0x0
    7af8:	e3a0007e 	mov	r0, #126	; 0x7e
    7afc:	e59f4c24 	ldr	r4, [pc, #3108]	; 8728 <.text+0x4728>
    7b00:	eb0006ae 	bl	95c0 <uart0_transmit>
    7b04:	e1a00006 	mov	r0, r6
    7b08:	e3a05001 	mov	r5, #1	; 0x1
    7b0c:	eb0006ab 	bl	95c0 <uart0_transmit>
    7b10:	e3a00013 	mov	r0, #19	; 0x13
    7b14:	eb0006a9 	bl	95c0 <uart0_transmit>
    7b18:	e1a00005 	mov	r0, r5
    7b1c:	e5c45000 	strb	r5, [r4]
    7b20:	eb0006a6 	bl	95c0 <uart0_transmit>
    7b24:	e1a00006 	mov	r0, r6
    7b28:	eb0006a4 	bl	95c0 <uart0_transmit>
    7b2c:	e5d43000 	ldrb	r3, [r4]
    7b30:	e0833005 	add	r3, r3, r5
    7b34:	e5c43000 	strb	r3, [r4]
    7b38:	e1a00005 	mov	r0, r5
    7b3c:	eb00069f 	bl	95c0 <uart0_transmit>
    7b40:	e1a00006 	mov	r0, r6
    7b44:	eb00069d 	bl	95c0 <uart0_transmit>
    7b48:	e1a00006 	mov	r0, r6
    7b4c:	eb00069b 	bl	95c0 <uart0_transmit>
    7b50:	e5d43000 	ldrb	r3, [r4]
    7b54:	e283300a 	add	r3, r3, #10	; 0xa
    7b58:	e3a0000a 	mov	r0, #10	; 0xa
    7b5c:	e5c43000 	strb	r3, [r4]
    7b60:	eb000696 	bl	95c0 <uart0_transmit>
    7b64:	e5d43000 	ldrb	r3, [r4]
    7b68:	e59f5bec 	ldr	r5, [pc, #3052]	; 875c <.text+0x475c>
    7b6c:	e283300c 	add	r3, r3, #12	; 0xc
    7b70:	e3a0000c 	mov	r0, #12	; 0xc
    7b74:	e5c43000 	strb	r3, [r4]
    7b78:	eb000690 	bl	95c0 <uart0_transmit>
    7b7c:	e5d53000 	ldrb	r3, [r5]
    7b80:	e5d42000 	ldrb	r2, [r4]
    7b84:	e1a00003 	mov	r0, r3
    7b88:	e0833002 	add	r3, r3, r2
    7b8c:	e5c43000 	strb	r3, [r4]
    7b90:	eb00068a 	bl	95c0 <uart0_transmit>
    7b94:	e5d53001 	ldrb	r3, [r5, #1]
    7b98:	e5d42000 	ldrb	r2, [r4]
    7b9c:	e1a00003 	mov	r0, r3
    7ba0:	e0833002 	add	r3, r3, r2
    7ba4:	e5c43000 	strb	r3, [r4]
    7ba8:	eb000684 	bl	95c0 <uart0_transmit>
    7bac:	e59f3ae4 	ldr	r3, [pc, #2788]	; 8698 <.text+0x4698>
    7bb0:	e5d30000 	ldrb	r0, [r3]
    7bb4:	e5d43000 	ldrb	r3, [r4]
    7bb8:	e59f5b54 	ldr	r5, [pc, #2900]	; 8714 <.text+0x4714>
    7bbc:	e0803003 	add	r3, r0, r3
    7bc0:	e5c43000 	strb	r3, [r4]
    7bc4:	eb00067d 	bl	95c0 <uart0_transmit>
    7bc8:	e5d53000 	ldrb	r3, [r5]
    7bcc:	e5d42000 	ldrb	r2, [r4]
    7bd0:	e1a00003 	mov	r0, r3
    7bd4:	e0833002 	add	r3, r3, r2
    7bd8:	e5c43000 	strb	r3, [r4]
    7bdc:	eb000677 	bl	95c0 <uart0_transmit>
    7be0:	e5d53001 	ldrb	r3, [r5, #1]
    7be4:	e5d42000 	ldrb	r2, [r4]
    7be8:	e1a00003 	mov	r0, r3
    7bec:	e0833002 	add	r3, r3, r2
    7bf0:	e5c43000 	strb	r3, [r4]
    7bf4:	eb000671 	bl	95c0 <uart0_transmit>
    7bf8:	e59f3a9c 	ldr	r3, [pc, #2716]	; 869c <.text+0x469c>
    7bfc:	e5d30000 	ldrb	r0, [r3]
    7c00:	e5d43000 	ldrb	r3, [r4]
    7c04:	e59f5a94 	ldr	r5, [pc, #2708]	; 86a0 <.text+0x46a0>
    7c08:	e0803003 	add	r3, r0, r3
    7c0c:	e5c43000 	strb	r3, [r4]
    7c10:	eb00066a 	bl	95c0 <uart0_transmit>
    7c14:	e5d53000 	ldrb	r3, [r5]
    7c18:	e5d42000 	ldrb	r2, [r4]
    7c1c:	e1a00003 	mov	r0, r3
    7c20:	e0833002 	add	r3, r3, r2
    7c24:	e5c43000 	strb	r3, [r4]
    7c28:	eb000664 	bl	95c0 <uart0_transmit>
    7c2c:	e5d50001 	ldrb	r0, [r5, #1]
    7c30:	e5d43000 	ldrb	r3, [r4]
    7c34:	e59f5a68 	ldr	r5, [pc, #2664]	; 86a4 <.text+0x46a4>
    7c38:	e0803003 	add	r3, r0, r3
    7c3c:	e5c43000 	strb	r3, [r4]
    7c40:	eb00065e 	bl	95c0 <uart0_transmit>
    7c44:	e5d53000 	ldrb	r3, [r5]
    7c48:	e5d42000 	ldrb	r2, [r4]
    7c4c:	e1a00003 	mov	r0, r3
    7c50:	e0833002 	add	r3, r3, r2
    7c54:	e5c43000 	strb	r3, [r4]
    7c58:	eb000658 	bl	95c0 <uart0_transmit>
    7c5c:	e5d53001 	ldrb	r3, [r5, #1]
    7c60:	e5d42000 	ldrb	r2, [r4]
    7c64:	e1a00003 	mov	r0, r3
    7c68:	e0833002 	add	r3, r3, r2
    7c6c:	e5c43000 	strb	r3, [r4]
    7c70:	eb000652 	bl	95c0 <uart0_transmit>
    7c74:	e55b3030 	ldrb	r3, [fp, #-48]
    7c78:	e5d42000 	ldrb	r2, [r4]
    7c7c:	e1a00003 	mov	r0, r3
    7c80:	e0833002 	add	r3, r3, r2
    7c84:	e5c43000 	strb	r3, [r4]
    7c88:	eb00064c 	bl	95c0 <uart0_transmit>
    7c8c:	e55b302f 	ldrb	r3, [fp, #-47]
    7c90:	ea0000b9 	b	7f7c <.text+0x3f7c>
    7c94:	e353000c 	cmp	r3, #12	; 0xc
    7c98:	1a000070 	bne	7e60 <.text+0x3e60>
    7c9c:	e3a00012 	mov	r0, #18	; 0x12
    7ca0:	eb000632 	bl	9570 <uart0_check_free_space>
    7ca4:	e31000ff 	tst	r0, #255	; 0xff
    7ca8:	0a0000be 	beq	7fa8 <.text+0x3fa8>
    7cac:	e3a06000 	mov	r6, #0	; 0x0
    7cb0:	e3a0007e 	mov	r0, #126	; 0x7e
    7cb4:	e59f4a6c 	ldr	r4, [pc, #2668]	; 8728 <.text+0x4728>
    7cb8:	eb000640 	bl	95c0 <uart0_transmit>
    7cbc:	e1a00006 	mov	r0, r6
    7cc0:	e3a05001 	mov	r5, #1	; 0x1
    7cc4:	eb00063d 	bl	95c0 <uart0_transmit>
    7cc8:	e3a00014 	mov	r0, #20	; 0x14
    7ccc:	eb00063b 	bl	95c0 <uart0_transmit>
    7cd0:	e1a00005 	mov	r0, r5
    7cd4:	e5c45000 	strb	r5, [r4]
    7cd8:	eb000638 	bl	95c0 <uart0_transmit>
    7cdc:	e1a00006 	mov	r0, r6
    7ce0:	eb000636 	bl	95c0 <uart0_transmit>
    7ce4:	e5d43000 	ldrb	r3, [r4]
    7ce8:	e0833005 	add	r3, r3, r5
    7cec:	e5c43000 	strb	r3, [r4]
    7cf0:	e1a00005 	mov	r0, r5
    7cf4:	eb000631 	bl	95c0 <uart0_transmit>
    7cf8:	e1a00006 	mov	r0, r6
    7cfc:	eb00062f 	bl	95c0 <uart0_transmit>
    7d00:	e1a00006 	mov	r0, r6
    7d04:	eb00062d 	bl	95c0 <uart0_transmit>
    7d08:	e5d43000 	ldrb	r3, [r4]
    7d0c:	e283300a 	add	r3, r3, #10	; 0xa
    7d10:	e3a0000a 	mov	r0, #10	; 0xa
    7d14:	e5c43000 	strb	r3, [r4]
    7d18:	eb000628 	bl	95c0 <uart0_transmit>
    7d1c:	e5d43000 	ldrb	r3, [r4]
    7d20:	e59f5980 	ldr	r5, [pc, #2432]	; 86a8 <.text+0x46a8>
    7d24:	e283300e 	add	r3, r3, #14	; 0xe
    7d28:	e3a0000e 	mov	r0, #14	; 0xe
    7d2c:	e5c43000 	strb	r3, [r4]
    7d30:	eb000622 	bl	95c0 <uart0_transmit>
    7d34:	e5d53000 	ldrb	r3, [r5]
    7d38:	e5d42000 	ldrb	r2, [r4]
    7d3c:	e1a00003 	mov	r0, r3
    7d40:	e0833002 	add	r3, r3, r2
    7d44:	e5c43000 	strb	r3, [r4]
    7d48:	eb00061c 	bl	95c0 <uart0_transmit>
    7d4c:	e5d53001 	ldrb	r3, [r5, #1]
    7d50:	e5d42000 	ldrb	r2, [r4]
    7d54:	e1a00003 	mov	r0, r3
    7d58:	e0833002 	add	r3, r3, r2
    7d5c:	e5c43000 	strb	r3, [r4]
    7d60:	eb000616 	bl	95c0 <uart0_transmit>
    7d64:	e5d53002 	ldrb	r3, [r5, #2]
    7d68:	e5d42000 	ldrb	r2, [r4]
    7d6c:	e1a00003 	mov	r0, r3
    7d70:	e0833002 	add	r3, r3, r2
    7d74:	e5c43000 	strb	r3, [r4]
    7d78:	eb000610 	bl	95c0 <uart0_transmit>
    7d7c:	e5d50003 	ldrb	r0, [r5, #3]
    7d80:	e5d43000 	ldrb	r3, [r4]
    7d84:	e59f5920 	ldr	r5, [pc, #2336]	; 86ac <.text+0x46ac>
    7d88:	e0803003 	add	r3, r0, r3
    7d8c:	e5c43000 	strb	r3, [r4]
    7d90:	eb00060a 	bl	95c0 <uart0_transmit>
    7d94:	e5d53000 	ldrb	r3, [r5]
    7d98:	e5d42000 	ldrb	r2, [r4]
    7d9c:	e1a00003 	mov	r0, r3
    7da0:	e0833002 	add	r3, r3, r2
    7da4:	e5c43000 	strb	r3, [r4]
    7da8:	eb000604 	bl	95c0 <uart0_transmit>
    7dac:	e5d53001 	ldrb	r3, [r5, #1]
    7db0:	e5d42000 	ldrb	r2, [r4]
    7db4:	e1a00003 	mov	r0, r3
    7db8:	e0833002 	add	r3, r3, r2
    7dbc:	e5c43000 	strb	r3, [r4]
    7dc0:	eb0005fe 	bl	95c0 <uart0_transmit>
    7dc4:	e5d53002 	ldrb	r3, [r5, #2]
    7dc8:	e5d42000 	ldrb	r2, [r4]
    7dcc:	e1a00003 	mov	r0, r3
    7dd0:	e0833002 	add	r3, r3, r2
    7dd4:	e5c43000 	strb	r3, [r4]
    7dd8:	eb0005f8 	bl	95c0 <uart0_transmit>
    7ddc:	e5d50003 	ldrb	r0, [r5, #3]
    7de0:	e5d43000 	ldrb	r3, [r4]
    7de4:	e59f58c4 	ldr	r5, [pc, #2244]	; 86b0 <.text+0x46b0>
    7de8:	e0803003 	add	r3, r0, r3
    7dec:	e5c43000 	strb	r3, [r4]
    7df0:	eb0005f2 	bl	95c0 <uart0_transmit>
    7df4:	e5d53000 	ldrb	r3, [r5]
    7df8:	e5d42000 	ldrb	r2, [r4]
    7dfc:	e1a00003 	mov	r0, r3
    7e00:	e0833002 	add	r3, r3, r2
    7e04:	e5c43000 	strb	r3, [r4]
    7e08:	eb0005ec 	bl	95c0 <uart0_transmit>
    7e0c:	e5d53001 	ldrb	r3, [r5, #1]
    7e10:	e5d42000 	ldrb	r2, [r4]
    7e14:	e1a00003 	mov	r0, r3
    7e18:	e0833002 	add	r3, r3, r2
    7e1c:	e5c43000 	strb	r3, [r4]
    7e20:	eb0005e6 	bl	95c0 <uart0_transmit>
    7e24:	e5d53002 	ldrb	r3, [r5, #2]
    7e28:	e5d42000 	ldrb	r2, [r4]
    7e2c:	e1a00003 	mov	r0, r3
    7e30:	e0833002 	add	r3, r3, r2
    7e34:	e5c43000 	strb	r3, [r4]
    7e38:	eb0005e0 	bl	95c0 <uart0_transmit>
    7e3c:	e5d53003 	ldrb	r3, [r5, #3]
    7e40:	e5d42000 	ldrb	r2, [r4]
    7e44:	e1a00003 	mov	r0, r3
    7e48:	e0833002 	add	r3, r3, r2
    7e4c:	e5c43000 	strb	r3, [r4]
    7e50:	eb0005da 	bl	95c0 <uart0_transmit>
    7e54:	e59f3858 	ldr	r3, [pc, #2136]	; 86b4 <.text+0x46b4>
    7e58:	e5d33000 	ldrb	r3, [r3]
    7e5c:	ea000046 	b	7f7c <.text+0x3f7c>
    7e60:	e3530012 	cmp	r3, #18	; 0x12
    7e64:	1a000053 	bne	7fb8 <.text+0x3fb8>
    7e68:	e3a0000b 	mov	r0, #11	; 0xb
    7e6c:	eb0005bf 	bl	9570 <uart0_check_free_space>
    7e70:	e31000ff 	tst	r0, #255	; 0xff
    7e74:	0a00004b 	beq	7fa8 <.text+0x3fa8>
    7e78:	e3a06000 	mov	r6, #0	; 0x0
    7e7c:	e3a0007e 	mov	r0, #126	; 0x7e
    7e80:	e59f48a0 	ldr	r4, [pc, #2208]	; 8728 <.text+0x4728>
    7e84:	eb0005cd 	bl	95c0 <uart0_transmit>
    7e88:	e1a00006 	mov	r0, r6
    7e8c:	e3a05001 	mov	r5, #1	; 0x1
    7e90:	eb0005ca 	bl	95c0 <uart0_transmit>
    7e94:	e3a0000d 	mov	r0, #13	; 0xd
    7e98:	eb0005c8 	bl	95c0 <uart0_transmit>
    7e9c:	e1a00005 	mov	r0, r5
    7ea0:	e5c45000 	strb	r5, [r4]
    7ea4:	eb0005c5 	bl	95c0 <uart0_transmit>
    7ea8:	e1a00006 	mov	r0, r6
    7eac:	eb0005c3 	bl	95c0 <uart0_transmit>
    7eb0:	e5d43000 	ldrb	r3, [r4]
    7eb4:	e0833005 	add	r3, r3, r5
    7eb8:	e5c43000 	strb	r3, [r4]
    7ebc:	e1a00005 	mov	r0, r5
    7ec0:	eb0005be 	bl	95c0 <uart0_transmit>
    7ec4:	e1a00006 	mov	r0, r6
    7ec8:	eb0005bc 	bl	95c0 <uart0_transmit>
    7ecc:	e1a00006 	mov	r0, r6
    7ed0:	eb0005ba 	bl	95c0 <uart0_transmit>
    7ed4:	e5d43000 	ldrb	r3, [r4]
    7ed8:	e283300a 	add	r3, r3, #10	; 0xa
    7edc:	e3a0000a 	mov	r0, #10	; 0xa
    7ee0:	e5c43000 	strb	r3, [r4]
    7ee4:	eb0005b5 	bl	95c0 <uart0_transmit>
    7ee8:	e5d43000 	ldrb	r3, [r4]
    7eec:	e59f57c4 	ldr	r5, [pc, #1988]	; 86b8 <.text+0x46b8>
    7ef0:	e243302f 	sub	r3, r3, #47	; 0x2f
    7ef4:	e3a000d1 	mov	r0, #209	; 0xd1
    7ef8:	e5c43000 	strb	r3, [r4]
    7efc:	eb0005af 	bl	95c0 <uart0_transmit>
    7f00:	e5d53000 	ldrb	r3, [r5]
    7f04:	e5d42000 	ldrb	r2, [r4]
    7f08:	e1a00003 	mov	r0, r3
    7f0c:	e0833002 	add	r3, r3, r2
    7f10:	e5c43000 	strb	r3, [r4]
    7f14:	eb0005a9 	bl	95c0 <uart0_transmit>
    7f18:	e5d50001 	ldrb	r0, [r5, #1]
    7f1c:	e5d43000 	ldrb	r3, [r4]
    7f20:	e59f5838 	ldr	r5, [pc, #2104]	; 8760 <.text+0x4760>
    7f24:	e0803003 	add	r3, r0, r3
    7f28:	e5c43000 	strb	r3, [r4]
    7f2c:	eb0005a3 	bl	95c0 <uart0_transmit>
    7f30:	e5d53000 	ldrb	r3, [r5]
    7f34:	e5d42000 	ldrb	r2, [r4]
    7f38:	e1a00003 	mov	r0, r3
    7f3c:	e0833002 	add	r3, r3, r2
    7f40:	e5c43000 	strb	r3, [r4]
    7f44:	eb00059d 	bl	95c0 <uart0_transmit>
    7f48:	e5d50001 	ldrb	r0, [r5, #1]
    7f4c:	e5d43000 	ldrb	r3, [r4]
    7f50:	e59f580c 	ldr	r5, [pc, #2060]	; 8764 <.text+0x4764>
    7f54:	e0803003 	add	r3, r0, r3
    7f58:	e5c43000 	strb	r3, [r4]
    7f5c:	eb000597 	bl	95c0 <uart0_transmit>
    7f60:	e5d53000 	ldrb	r3, [r5]
    7f64:	e5d42000 	ldrb	r2, [r4]
    7f68:	e1a00003 	mov	r0, r3
    7f6c:	e0833002 	add	r3, r3, r2
    7f70:	e5c43000 	strb	r3, [r4]
    7f74:	eb000591 	bl	95c0 <uart0_transmit>
    7f78:	e5d53001 	ldrb	r3, [r5, #1]
    7f7c:	e5d42000 	ldrb	r2, [r4]
    7f80:	e1a00003 	mov	r0, r3
    7f84:	e0833002 	add	r3, r3, r2
    7f88:	e5c43000 	strb	r3, [r4]
    7f8c:	eb00058b 	bl	95c0 <uart0_transmit>
    7f90:	e5d43000 	ldrb	r3, [r4]
    7f94:	e1e03003 	mvn	r3, r3
    7f98:	e5c43000 	strb	r3, [r4]
    7f9c:	e5d40000 	ldrb	r0, [r4]
    7fa0:	eb000586 	bl	95c0 <uart0_transmit>
    7fa4:	ea000003 	b	7fb8 <.text+0x3fb8>
    7fa8:	e59f2774 	ldr	r2, [pc, #1908]	; 8724 <.text+0x4724>
    7fac:	e5d23000 	ldrb	r3, [r2]
    7fb0:	e2833001 	add	r3, r3, #1	; 0x1
    7fb4:	e5c23000 	strb	r3, [r2]
    7fb8:	e59f26fc 	ldr	r2, [pc, #1788]	; 86bc <.text+0x46bc>
    7fbc:	e1d230b0 	ldrh	r3, [r2]
    7fc0:	e353001e 	cmp	r3, #30	; 0x1e
    7fc4:	1a00005e 	bne	8144 <.text+0x4144>
    7fc8:	e3a0000c 	mov	r0, #12	; 0xc
    7fcc:	eb000567 	bl	9570 <uart0_check_free_space>
    7fd0:	e31000ff 	tst	r0, #255	; 0xff
    7fd4:	059f2748 	ldreq	r2, [pc, #1864]	; 8724 <.text+0x4724>
    7fd8:	05d23000 	ldreqb	r3, [r2]
    7fdc:	02833001 	addeq	r3, r3, #1	; 0x1
    7fe0:	05c23000 	streqb	r3, [r2]
    7fe4:	0a000056 	beq	8144 <.text+0x4144>
    7fe8:	e3a06000 	mov	r6, #0	; 0x0
    7fec:	e3a0007e 	mov	r0, #126	; 0x7e
    7ff0:	e59f4730 	ldr	r4, [pc, #1840]	; 8728 <.text+0x4728>
    7ff4:	eb000571 	bl	95c0 <uart0_transmit>
    7ff8:	e1a00006 	mov	r0, r6
    7ffc:	eb00056f 	bl	95c0 <uart0_transmit>
    8000:	e3a05001 	mov	r5, #1	; 0x1
    8004:	e3a0000e 	mov	r0, #14	; 0xe
    8008:	eb00056c 	bl	95c0 <uart0_transmit>
    800c:	e1a00005 	mov	r0, r5
    8010:	e5c45000 	strb	r5, [r4]
    8014:	eb000569 	bl	95c0 <uart0_transmit>
    8018:	e1a00006 	mov	r0, r6
    801c:	eb000567 	bl	95c0 <uart0_transmit>
    8020:	e5d43000 	ldrb	r3, [r4]
    8024:	e0833005 	add	r3, r3, r5
    8028:	e5c43000 	strb	r3, [r4]
    802c:	e1a00005 	mov	r0, r5
    8030:	eb000562 	bl	95c0 <uart0_transmit>
    8034:	e1a00006 	mov	r0, r6
    8038:	eb000560 	bl	95c0 <uart0_transmit>
    803c:	e1a00006 	mov	r0, r6
    8040:	eb00055e 	bl	95c0 <uart0_transmit>
    8044:	e5d43000 	ldrb	r3, [r4]
    8048:	e283300a 	add	r3, r3, #10	; 0xa
    804c:	e3a0000a 	mov	r0, #10	; 0xa
    8050:	e5c43000 	strb	r3, [r4]
    8054:	eb000559 	bl	95c0 <uart0_transmit>
    8058:	e5d43000 	ldrb	r3, [r4]
    805c:	e283300b 	add	r3, r3, #11	; 0xb
    8060:	e3a0000b 	mov	r0, #11	; 0xb
    8064:	e5c43000 	strb	r3, [r4]
    8068:	eb000554 	bl	95c0 <uart0_transmit>
    806c:	e59f364c 	ldr	r3, [pc, #1612]	; 86c0 <.text+0x46c0>
    8070:	e5d42000 	ldrb	r2, [r4]
    8074:	e5d33000 	ldrb	r3, [r3]
    8078:	e1a00003 	mov	r0, r3
    807c:	e0833002 	add	r3, r3, r2
    8080:	e5c43000 	strb	r3, [r4]
    8084:	eb00054d 	bl	95c0 <uart0_transmit>
    8088:	e59f3634 	ldr	r3, [pc, #1588]	; 86c4 <.text+0x46c4>
    808c:	e5d42000 	ldrb	r2, [r4]
    8090:	e5d33000 	ldrb	r3, [r3]
    8094:	e1a00003 	mov	r0, r3
    8098:	e0833002 	add	r3, r3, r2
    809c:	e5c43000 	strb	r3, [r4]
    80a0:	eb000546 	bl	95c0 <uart0_transmit>
    80a4:	e59f361c 	ldr	r3, [pc, #1564]	; 86c8 <.text+0x46c8>
    80a8:	e5d42000 	ldrb	r2, [r4]
    80ac:	e5d33000 	ldrb	r3, [r3]
    80b0:	e1a00003 	mov	r0, r3
    80b4:	e0833002 	add	r3, r3, r2
    80b8:	e5c43000 	strb	r3, [r4]
    80bc:	eb00053f 	bl	95c0 <uart0_transmit>
    80c0:	e59f3604 	ldr	r3, [pc, #1540]	; 86cc <.text+0x46cc>
    80c4:	e5d42000 	ldrb	r2, [r4]
    80c8:	e5d33000 	ldrb	r3, [r3]
    80cc:	e1a00003 	mov	r0, r3
    80d0:	e0833002 	add	r3, r3, r2
    80d4:	e5c43000 	strb	r3, [r4]
    80d8:	eb000538 	bl	95c0 <uart0_transmit>
    80dc:	e59f35ec 	ldr	r3, [pc, #1516]	; 86d0 <.text+0x46d0>
    80e0:	e5d42000 	ldrb	r2, [r4]
    80e4:	e5d33000 	ldrb	r3, [r3]
    80e8:	e1a00003 	mov	r0, r3
    80ec:	e0833002 	add	r3, r3, r2
    80f0:	e5c43000 	strb	r3, [r4]
    80f4:	eb000531 	bl	95c0 <uart0_transmit>
    80f8:	e59f35d4 	ldr	r3, [pc, #1492]	; 86d4 <.text+0x46d4>
    80fc:	e5d42000 	ldrb	r2, [r4]
    8100:	e5d33000 	ldrb	r3, [r3]
    8104:	e1a00003 	mov	r0, r3
    8108:	e0833002 	add	r3, r3, r2
    810c:	e5c43000 	strb	r3, [r4]
    8110:	eb00052a 	bl	95c0 <uart0_transmit>
    8114:	e59f35bc 	ldr	r3, [pc, #1468]	; 86d8 <.text+0x46d8>
    8118:	e5d42000 	ldrb	r2, [r4]
    811c:	e5d33000 	ldrb	r3, [r3]
    8120:	e1a00003 	mov	r0, r3
    8124:	e0833002 	add	r3, r3, r2
    8128:	e5c43000 	strb	r3, [r4]
    812c:	eb000523 	bl	95c0 <uart0_transmit>
    8130:	e5d43000 	ldrb	r3, [r4]
    8134:	e1e03003 	mvn	r3, r3
    8138:	e5c43000 	strb	r3, [r4]
    813c:	e5d40000 	ldrb	r0, [r4]
    8140:	eb00051e 	bl	95c0 <uart0_transmit>
    8144:	e59f2590 	ldr	r2, [pc, #1424]	; 86dc <.text+0x46dc>
    8148:	e1d230b0 	ldrh	r3, [r2]
    814c:	e3530030 	cmp	r3, #48	; 0x30
    8150:	1a000065 	bne	82ec <.text+0x42ec>
    8154:	e3a0000e 	mov	r0, #14	; 0xe
    8158:	eb000504 	bl	9570 <uart0_check_free_space>
    815c:	e31000ff 	tst	r0, #255	; 0xff
    8160:	059f25bc 	ldreq	r2, [pc, #1468]	; 8724 <.text+0x4724>
    8164:	05d23000 	ldreqb	r3, [r2]
    8168:	02833001 	addeq	r3, r3, #1	; 0x1
    816c:	05c23000 	streqb	r3, [r2]
    8170:	0a00005d 	beq	82ec <.text+0x42ec>
    8174:	e3a06000 	mov	r6, #0	; 0x0
    8178:	e3a0007e 	mov	r0, #126	; 0x7e
    817c:	e59f45a4 	ldr	r4, [pc, #1444]	; 8728 <.text+0x4728>
    8180:	eb00050e 	bl	95c0 <uart0_transmit>
    8184:	e1a00006 	mov	r0, r6
    8188:	e3a05001 	mov	r5, #1	; 0x1
    818c:	eb00050b 	bl	95c0 <uart0_transmit>
    8190:	e3a00010 	mov	r0, #16	; 0x10
    8194:	eb000509 	bl	95c0 <uart0_transmit>
    8198:	e1a00005 	mov	r0, r5
    819c:	e5c45000 	strb	r5, [r4]
    81a0:	eb000506 	bl	95c0 <uart0_transmit>
    81a4:	e1a00006 	mov	r0, r6
    81a8:	eb000504 	bl	95c0 <uart0_transmit>
    81ac:	e5d43000 	ldrb	r3, [r4]
    81b0:	e0833005 	add	r3, r3, r5
    81b4:	e5c43000 	strb	r3, [r4]
    81b8:	e1a00005 	mov	r0, r5
    81bc:	eb0004ff 	bl	95c0 <uart0_transmit>
    81c0:	e1a00006 	mov	r0, r6
    81c4:	eb0004fd 	bl	95c0 <uart0_transmit>
    81c8:	e1a00006 	mov	r0, r6
    81cc:	eb0004fb 	bl	95c0 <uart0_transmit>
    81d0:	e5d43000 	ldrb	r3, [r4]
    81d4:	e283300a 	add	r3, r3, #10	; 0xa
    81d8:	e3a0000a 	mov	r0, #10	; 0xa
    81dc:	e5c43000 	strb	r3, [r4]
    81e0:	eb0004f6 	bl	95c0 <uart0_transmit>
    81e4:	e5d43000 	ldrb	r3, [r4]
    81e8:	e59f54f0 	ldr	r5, [pc, #1264]	; 86e0 <.text+0x46e0>
    81ec:	e2833009 	add	r3, r3, #9	; 0x9
    81f0:	e3a00009 	mov	r0, #9	; 0x9
    81f4:	e5c43000 	strb	r3, [r4]
    81f8:	eb0004f0 	bl	95c0 <uart0_transmit>
    81fc:	e5d53000 	ldrb	r3, [r5]
    8200:	e5d42000 	ldrb	r2, [r4]
    8204:	e1a00003 	mov	r0, r3
    8208:	e0833002 	add	r3, r3, r2
    820c:	e5c43000 	strb	r3, [r4]
    8210:	eb0004ea 	bl	95c0 <uart0_transmit>
    8214:	e5d53001 	ldrb	r3, [r5, #1]
    8218:	e5d42000 	ldrb	r2, [r4]
    821c:	e1a00003 	mov	r0, r3
    8220:	e0833002 	add	r3, r3, r2
    8224:	e5c43000 	strb	r3, [r4]
    8228:	eb0004e4 	bl	95c0 <uart0_transmit>
    822c:	e5d53002 	ldrb	r3, [r5, #2]
    8230:	e5d42000 	ldrb	r2, [r4]
    8234:	e1a00003 	mov	r0, r3
    8238:	e0833002 	add	r3, r3, r2
    823c:	e5c43000 	strb	r3, [r4]
    8240:	eb0004de 	bl	95c0 <uart0_transmit>
    8244:	e5d50003 	ldrb	r0, [r5, #3]
    8248:	e5d43000 	ldrb	r3, [r4]
    824c:	e59f5490 	ldr	r5, [pc, #1168]	; 86e4 <.text+0x46e4>
    8250:	e0803003 	add	r3, r0, r3
    8254:	e5c43000 	strb	r3, [r4]
    8258:	eb0004d8 	bl	95c0 <uart0_transmit>
    825c:	e5d53000 	ldrb	r3, [r5]
    8260:	e5d42000 	ldrb	r2, [r4]
    8264:	e1a00003 	mov	r0, r3
    8268:	e0833002 	add	r3, r3, r2
    826c:	e5c43000 	strb	r3, [r4]
    8270:	eb0004d2 	bl	95c0 <uart0_transmit>
    8274:	e5d53001 	ldrb	r3, [r5, #1]
    8278:	e5d42000 	ldrb	r2, [r4]
    827c:	e1a00003 	mov	r0, r3
    8280:	e0833002 	add	r3, r3, r2
    8284:	e5c43000 	strb	r3, [r4]
    8288:	eb0004cc 	bl	95c0 <uart0_transmit>
    828c:	e5d53002 	ldrb	r3, [r5, #2]
    8290:	e5d42000 	ldrb	r2, [r4]
    8294:	e1a00003 	mov	r0, r3
    8298:	e0833002 	add	r3, r3, r2
    829c:	e5c43000 	strb	r3, [r4]
    82a0:	eb0004c6 	bl	95c0 <uart0_transmit>
    82a4:	e5d53003 	ldrb	r3, [r5, #3]
    82a8:	e5d42000 	ldrb	r2, [r4]
    82ac:	e1a00003 	mov	r0, r3
    82b0:	e0833002 	add	r3, r3, r2
    82b4:	e5c43000 	strb	r3, [r4]
    82b8:	eb0004c0 	bl	95c0 <uart0_transmit>
    82bc:	e59f3424 	ldr	r3, [pc, #1060]	; 86e8 <.text+0x46e8>
    82c0:	e5d42000 	ldrb	r2, [r4]
    82c4:	e5d33000 	ldrb	r3, [r3]
    82c8:	e1a00003 	mov	r0, r3
    82cc:	e0833002 	add	r3, r3, r2
    82d0:	e5c43000 	strb	r3, [r4]
    82d4:	eb0004b9 	bl	95c0 <uart0_transmit>
    82d8:	e5d43000 	ldrb	r3, [r4]
    82dc:	e1e03003 	mvn	r3, r3
    82e0:	e5c43000 	strb	r3, [r4]
    82e4:	e5d40000 	ldrb	r0, [r4]
    82e8:	eb0004b4 	bl	95c0 <uart0_transmit>
    82ec:	e59f33f8 	ldr	r3, [pc, #1016]	; 86ec <.text+0x46ec>
    82f0:	e5d36000 	ldrb	r6, [r3]
    82f4:	e3560001 	cmp	r6, #1	; 0x1
    82f8:	1a00007e 	bne	84f8 <.text+0x44f8>
    82fc:	e59f03ec 	ldr	r0, [pc, #1004]	; 86f0 <.text+0x46f0>
    8300:	e5d03000 	ldrb	r3, [r0]
    8304:	e2833001 	add	r3, r3, #1	; 0x1
    8308:	e5c03000 	strb	r3, [r0]
    830c:	e5d03000 	ldrb	r3, [r0]
    8310:	e353001d 	cmp	r3, #29	; 0x1d
    8314:	83a03000 	movhi	r3, #0	; 0x0
    8318:	85c03000 	strhib	r3, [r0]
    831c:	e5d07000 	ldrb	r7, [r0]
    8320:	e3570000 	cmp	r7, #0	; 0x0
    8324:	0a000073 	beq	84f8 <.text+0x44f8>
    8328:	e3570006 	cmp	r7, #6	; 0x6
    832c:	1a000071 	bne	84f8 <.text+0x44f8>
    8330:	e59f340c 	ldr	r3, [pc, #1036]	; 8744 <.text+0x4744>
    8334:	e5930000 	ldr	r0, [r3]
    8338:	eb0025b9 	bl	11a24 <__extendsfdf2>
    833c:	e28f2fcb 	add	r2, pc, #812	; 0x32c
    8340:	e892000c 	ldmia	r2, {r2, r3}
    8344:	eb002667 	bl	11ce8 <__divdf3>
    8348:	e28f2fca 	add	r2, pc, #808	; 0x328
    834c:	e892000c 	ldmia	r2, {r2, r3}
    8350:	eb0025c6 	bl	11a70 <__muldf3>
    8354:	eb00272d 	bl	12010 <__fixdfsi>
    8358:	e59f3394 	ldr	r3, [pc, #916]	; 86f4 <.text+0x46f4>
    835c:	e14b03b2 	strh	r0, [fp, #-50]
    8360:	e5930000 	ldr	r0, [r3]
    8364:	eb0025ae 	bl	11a24 <__extendsfdf2>
    8368:	e28f2c03 	add	r2, pc, #768	; 0x300
    836c:	e892000c 	ldmia	r2, {r2, r3}
    8370:	eb00265c 	bl	11ce8 <__divdf3>
    8374:	e28f2fbf 	add	r2, pc, #764	; 0x2fc
    8378:	e892000c 	ldmia	r2, {r2, r3}
    837c:	eb0025bb 	bl	11a70 <__muldf3>
    8380:	eb002722 	bl	12010 <__fixdfsi>
    8384:	e59f33c0 	ldr	r3, [pc, #960]	; 874c <.text+0x474c>
    8388:	e14b03b4 	strh	r0, [fp, #-52]
    838c:	e5930000 	ldr	r0, [r3]
    8390:	eb0025a3 	bl	11a24 <__extendsfdf2>
    8394:	e28f2fb5 	add	r2, pc, #724	; 0x2d4
    8398:	e892000c 	ldmia	r2, {r2, r3}
    839c:	eb002651 	bl	11ce8 <__divdf3>
    83a0:	e28f2e2d 	add	r2, pc, #720	; 0x2d0
    83a4:	e892000c 	ldmia	r2, {r2, r3}
    83a8:	eb0025b0 	bl	11a70 <__muldf3>
    83ac:	eb002717 	bl	12010 <__fixdfsi>
    83b0:	e14b03b6 	strh	r0, [fp, #-54]
    83b4:	e3a0000b 	mov	r0, #11	; 0xb
    83b8:	eb00046c 	bl	9570 <uart0_check_free_space>
    83bc:	e31000ff 	tst	r0, #255	; 0xff
    83c0:	059f235c 	ldreq	r2, [pc, #860]	; 8724 <.text+0x4724>
    83c4:	05d23000 	ldreqb	r3, [r2]
    83c8:	02833001 	addeq	r3, r3, #1	; 0x1
    83cc:	05c23000 	streqb	r3, [r2]
    83d0:	0a000048 	beq	84f8 <.text+0x44f8>
    83d4:	e3a05000 	mov	r5, #0	; 0x0
    83d8:	e3a0007e 	mov	r0, #126	; 0x7e
    83dc:	e59f4344 	ldr	r4, [pc, #836]	; 8728 <.text+0x4728>
    83e0:	eb000476 	bl	95c0 <uart0_transmit>
    83e4:	e1a00005 	mov	r0, r5
    83e8:	eb000474 	bl	95c0 <uart0_transmit>
    83ec:	e3a0000d 	mov	r0, #13	; 0xd
    83f0:	eb000472 	bl	95c0 <uart0_transmit>
    83f4:	e1a00006 	mov	r0, r6
    83f8:	e5c46000 	strb	r6, [r4]
    83fc:	eb00046f 	bl	95c0 <uart0_transmit>
    8400:	e1a00005 	mov	r0, r5
    8404:	eb00046d 	bl	95c0 <uart0_transmit>
    8408:	e5d43000 	ldrb	r3, [r4]
    840c:	e2833001 	add	r3, r3, #1	; 0x1
    8410:	e5c43000 	strb	r3, [r4]
    8414:	e1a00006 	mov	r0, r6
    8418:	eb000468 	bl	95c0 <uart0_transmit>
    841c:	e1a00005 	mov	r0, r5
    8420:	eb000466 	bl	95c0 <uart0_transmit>
    8424:	e1a00005 	mov	r0, r5
    8428:	eb000464 	bl	95c0 <uart0_transmit>
    842c:	e5d43000 	ldrb	r3, [r4]
    8430:	e283300a 	add	r3, r3, #10	; 0xa
    8434:	e3a0000a 	mov	r0, #10	; 0xa
    8438:	e5c43000 	strb	r3, [r4]
    843c:	eb00045f 	bl	95c0 <uart0_transmit>
    8440:	e5d43000 	ldrb	r3, [r4]
    8444:	e2833006 	add	r3, r3, #6	; 0x6
    8448:	e1a00007 	mov	r0, r7
    844c:	e5c43000 	strb	r3, [r4]
    8450:	eb00045a 	bl	95c0 <uart0_transmit>
    8454:	e55b3032 	ldrb	r3, [fp, #-50]
    8458:	e5d42000 	ldrb	r2, [r4]
    845c:	e1a00003 	mov	r0, r3
    8460:	e0833002 	add	r3, r3, r2
    8464:	e5c43000 	strb	r3, [r4]
    8468:	eb000454 	bl	95c0 <uart0_transmit>
    846c:	e55b3031 	ldrb	r3, [fp, #-49]
    8470:	e5d42000 	ldrb	r2, [r4]
    8474:	e1a00003 	mov	r0, r3
    8478:	e0833002 	add	r3, r3, r2
    847c:	e5c43000 	strb	r3, [r4]
    8480:	eb00044e 	bl	95c0 <uart0_transmit>
    8484:	e55b3034 	ldrb	r3, [fp, #-52]
    8488:	e5d42000 	ldrb	r2, [r4]
    848c:	e1a00003 	mov	r0, r3
    8490:	e0833002 	add	r3, r3, r2
    8494:	e5c43000 	strb	r3, [r4]
    8498:	eb000448 	bl	95c0 <uart0_transmit>
    849c:	e55b3033 	ldrb	r3, [fp, #-51]
    84a0:	e5d42000 	ldrb	r2, [r4]
    84a4:	e1a00003 	mov	r0, r3
    84a8:	e0833002 	add	r3, r3, r2
    84ac:	e5c43000 	strb	r3, [r4]
    84b0:	eb000442 	bl	95c0 <uart0_transmit>
    84b4:	e55b3036 	ldrb	r3, [fp, #-54]
    84b8:	e5d42000 	ldrb	r2, [r4]
    84bc:	e1a00003 	mov	r0, r3
    84c0:	e0833002 	add	r3, r3, r2
    84c4:	e5c43000 	strb	r3, [r4]
    84c8:	eb00043c 	bl	95c0 <uart0_transmit>
    84cc:	e55b3035 	ldrb	r3, [fp, #-53]
    84d0:	e5d42000 	ldrb	r2, [r4]
    84d4:	e1a00003 	mov	r0, r3
    84d8:	e0833002 	add	r3, r3, r2
    84dc:	e5c43000 	strb	r3, [r4]
    84e0:	eb000436 	bl	95c0 <uart0_transmit>
    84e4:	e5d43000 	ldrb	r3, [r4]
    84e8:	e1e03003 	mvn	r3, r3
    84ec:	e5c43000 	strb	r3, [r4]
    84f0:	e5d40000 	ldrb	r0, [r4]
    84f4:	eb000431 	bl	95c0 <uart0_transmit>
    84f8:	e59f21f8 	ldr	r2, [pc, #504]	; 86f8 <.text+0x46f8>
    84fc:	e5d23000 	ldrb	r3, [r2]
    8500:	e3530000 	cmp	r3, #0	; 0x0
    8504:	1a000007 	bne	8528 <.text+0x4528>
    8508:	e59f41ec 	ldr	r4, [pc, #492]	; 86fc <.text+0x46fc>
    850c:	e5940000 	ldr	r0, [r4]
    8510:	eb002543 	bl	11a24 <__extendsfdf2>
    8514:	e28f2f59 	add	r2, pc, #356	; 0x164
    8518:	e892000c 	ldmia	r2, {r2, r3}
    851c:	eb00246a 	bl	116cc <__adddf3>
    8520:	eb0026f7 	bl	12104 <__truncdfsf2>
    8524:	e5840000 	str	r0, [r4]
    8528:	e59f31d0 	ldr	r3, [pc, #464]	; 8700 <.text+0x4700>
    852c:	e5d37000 	ldrb	r7, [r3]
    8530:	e3570000 	cmp	r7, #0	; 0x0
    8534:	1a00003e 	bne	8634 <.text+0x4634>
    8538:	e59f21d4 	ldr	r2, [pc, #468]	; 8714 <.text+0x4714>
    853c:	e1d230b0 	ldrh	r3, [r2]
    8540:	e59f61b4 	ldr	r6, [pc, #436]	; 86fc <.text+0x46fc>
    8544:	e3530000 	cmp	r3, #0	; 0x0
    8548:	12833001 	addne	r3, r3, #1	; 0x1
    854c:	11c230b0 	strneh	r3, [r2]
    8550:	e5960000 	ldr	r0, [r6]
    8554:	eb002532 	bl	11a24 <__extendsfdf2>
    8558:	e28f2f4a 	add	r2, pc, #296	; 0x128
    855c:	e892000c 	ldmia	r2, {r2, r3}
    8560:	eb002459 	bl	116cc <__adddf3>
    8564:	eb0026a9 	bl	12010 <__fixdfsi>
    8568:	e1a00800 	mov	r0, r0, lsl #16
    856c:	e1a00840 	mov	r0, r0, asr #16
    8570:	eb002794 	bl	123c8 <__floatsisf>
    8574:	e59f4124 	ldr	r4, [pc, #292]	; 86a0 <.text+0x46a0>
    8578:	e59fe124 	ldr	lr, [pc, #292]	; 86a4 <.text+0x46a4>
    857c:	e59f51a8 	ldr	r5, [pc, #424]	; 872c <.text+0x472c>
    8580:	e1de20b0 	ldrh	r2, [lr]
    8584:	e1d410b0 	ldrh	r1, [r4]
    8588:	e1d5c0b0 	ldrh	ip, [r5]
    858c:	e59f3104 	ldr	r3, [pc, #260]	; 8698 <.text+0x4698>
    8590:	e2822001 	add	r2, r2, #1	; 0x1
    8594:	e28cc001 	add	ip, ip, #1	; 0x1
    8598:	e2811001 	add	r1, r1, #1	; 0x1
    859c:	e5860000 	str	r0, [r6]
    85a0:	e1ce20b0 	strh	r2, [lr]
    85a4:	e1c5c0b0 	strh	ip, [r5]
    85a8:	e5d30000 	ldrb	r0, [r3]
    85ac:	e1c410b0 	strh	r1, [r4]
    85b0:	eb002510 	bl	119f8 <__floatsidf>
    85b4:	e28f20d4 	add	r2, pc, #212	; 0xd4
    85b8:	e892000c 	ldmia	r2, {r2, r3}
    85bc:	eb002668 	bl	11f64 <__ledf2>
    85c0:	e59f213c 	ldr	r2, [pc, #316]	; 8704 <.text+0x4704>
    85c4:	e3500000 	cmp	r0, #0	; 0x0
    85c8:	b5d23000 	ldrltb	r3, [r2]
    85cc:	b2833001 	addlt	r3, r3, #1	; 0x1
    85d0:	b5c23000 	strltb	r3, [r2]
    85d4:	e59f3144 	ldr	r3, [pc, #324]	; 8720 <.text+0x4720>
    85d8:	a5c27000 	strgeb	r7, [r2]
    85dc:	e59f00b8 	ldr	r0, [pc, #184]	; 869c <.text+0x469c>
    85e0:	e5d31000 	ldrb	r1, [r3]
    85e4:	e59f3118 	ldr	r3, [pc, #280]	; 8704 <.text+0x4704>
    85e8:	e5d32000 	ldrb	r2, [r3]
    85ec:	e5d03000 	ldrb	r3, [r0]
    85f0:	e59f60a4 	ldr	r6, [pc, #164]	; 869c <.text+0x469c>
    85f4:	e3520004 	cmp	r2, #4	; 0x4
    85f8:	83833001 	orrhi	r3, r3, #1	; 0x1
    85fc:	e3510000 	cmp	r1, #0	; 0x0
    8600:	e5c03000 	strb	r3, [r0]
    8604:	e1a05006 	mov	r5, r6
    8608:	e3a04000 	mov	r4, #0	; 0x0
    860c:	0a000005 	beq	8628 <.text+0x4628>
    8610:	e59f30f0 	ldr	r3, [pc, #240]	; 8708 <.text+0x4708>
    8614:	e59f10f0 	ldr	r1, [pc, #240]	; 870c <.text+0x470c>
    8618:	e5930000 	ldr	r0, [r3]
    861c:	eb002848 	bl	12744 <__gesf2>
    8620:	e3500000 	cmp	r0, #0	; 0x0
    8624:	c3a04001 	movgt	r4, #1	; 0x1
    8628:	e5d53000 	ldrb	r3, [r5]
    862c:	e1833004 	orr	r3, r3, r4
    8630:	e5c63000 	strb	r3, [r6]
    8634:	e59f20d4 	ldr	r2, [pc, #212]	; 8710 <.text+0x4710>
    8638:	e5d25000 	ldrb	r5, [r2]
    863c:	e3550001 	cmp	r5, #1	; 0x1
    8640:	0a000049 	beq	876c <.text+0x476c>
    8644:	ca000002 	bgt	8654 <.text+0x4654>
    8648:	e3550000 	cmp	r5, #0	; 0x0
    864c:	0a000003 	beq	8660 <.text+0x4660>
    8650:	ea000095 	b	88ac <.text+0x48ac>
    8654:	e3550003 	cmp	r5, #3	; 0x3
    8658:	0a00008a 	beq	8888 <.text+0x4888>
    865c:	ea000092 	b	88ac <.text+0x48ac>
    8660:	eb0007d9 	bl	a5cc <estimator_propagate_state>
    8664:	ebfff607 	bl	5e88 <navigation_task>
    8668:	ebfff6ce 	bl	61a8 <guidance_task>
    866c:	ea00008e 	b	88ac <.text+0x48ac>
    8670:	400921fb 	strmid	r2, [r9], -fp
    8674:	54442d18 	strplb	r2, [r4], #-3352
    8678:	40668000 	rsbmi	r8, r6, r0
    867c:	00000000 	andeq	r0, r0, r0
    8680:	3fb99999 	swicc	0x00b99999
    8684:	9999999a 	ldmlsib	r9, {r1, r3, r4, r7, r8, fp, ip, pc}
    8688:	3fe00000 	swicc	0x00e00000
    868c:	00000000 	andeq	r0, r0, r0
    8690:	40574000 	submis	r4, r7, r0
    8694:	00000000 	andeq	r0, r0, r0
    8698:	40000b14 	andmi	r0, r0, r4, lsl fp
    869c:	400004f2 	strmid	r0, [r0], -r2
    86a0:	40000ec2 	andmi	r0, r0, r2, asr #29
    86a4:	40000ec0 	andmi	r0, r0, r0, asr #29
    86a8:	40000f34 	andmi	r0, r0, r4, lsr pc
    86ac:	40000f70 	andmi	r0, r0, r0, ror pc
    86b0:	40000f04 	andmi	r0, r0, r4, lsl #30
    86b4:	40000f38 	andmi	r0, r0, r8, lsr pc
    86b8:	40000f5c 	andmi	r0, r0, ip, asr pc
    86bc:	40000504 	andmi	r0, r0, r4, lsl #10
    86c0:	40000003 	andmi	r0, r0, r3
    86c4:	40000f44 	andmi	r0, r0, r4, asr #30
    86c8:	400004f4 	strmid	r0, [r0], -r4
    86cc:	40000e90 	mulmi	r0, r0, lr
    86d0:	400004f6 	strmid	r0, [r0], -r6
    86d4:	40000514 	andmi	r0, r0, r4, lsl r5
    86d8:	400004f3 	strmid	r0, [r0], -r3
    86dc:	40000506 	andmi	r0, r0, r6, lsl #10
    86e0:	40000070 	andmi	r0, r0, r0, ror r0
    86e4:	4000006c 	andmi	r0, r0, ip, rrx
    86e8:	40000068 	andmi	r0, r0, r8, rrx
    86ec:	40000530 	andmi	r0, r0, r0, lsr r5
    86f0:	4000050a 	andmi	r0, r0, sl, lsl #10
    86f4:	40000e24 	andmi	r0, r0, r4, lsr #28
    86f8:	400004fd 	strmid	r0, [r0], -sp
    86fc:	40000e7c 	andmi	r0, r0, ip, ror lr
    8700:	400004ff 	strmid	r0, [r0], -pc
    8704:	4000050b 	andmi	r0, r0, fp, lsl #10
    8708:	40000ea0 	andmi	r0, r0, r0, lsr #29
    870c:	49095440 	stmmidb	r9, {r6, sl, ip, lr}
    8710:	400004fe 	strmid	r0, [r0], -lr
    8714:	40000e20 	andmi	r0, r0, r0, lsr #28
    8718:	40000e44 	andmi	r0, r0, r4, asr #28
    871c:	40a00000 	adcmi	r0, r0, r0
    8720:	400004f1 	strmid	r0, [r0], -r1
    8724:	40000b83 	andmi	r0, r0, r3, lsl #23
    8728:	40000e19 	andmi	r0, r0, r9, lsl lr
    872c:	40000890 	mulmi	r0, r0, r8
    8730:	40001108 	andmi	r1, r0, r8, lsl #2
    8734:	e0028000 	and	r8, r2, r0
    8738:	400004fc 	strmid	r0, [r0], -ip
    873c:	40000e38 	andmi	r0, r0, r8, lsr lr
    8740:	40000e2c 	andmi	r0, r0, ip, lsr #28
    8744:	40000e48 	andmi	r0, r0, r8, asr #28
    8748:	40000e5c 	andmi	r0, r0, ip, asr lr
    874c:	40000e40 	andmi	r0, r0, r0, asr #28
    8750:	400008ec 	andmi	r0, r0, ip, ror #17
    8754:	40000ad8 	ldrmid	r0, [r0], -r8
    8758:	4000000c 	andmi	r0, r0, ip
    875c:	40000f6c 	andmi	r0, r0, ip, ror #30
    8760:	40000ef8 	strmid	r0, [r0], -r8
    8764:	40000ee4 	andmi	r0, r0, r4, ror #29
    8768:	4000053c 	andmi	r0, r0, ip, lsr r5
    876c:	e51f4060 	ldr	r4, [pc, #-96]	; 8714 <.text+0x4714>
    8770:	e1d460b0 	ldrh	r6, [r4]
    8774:	e3560000 	cmp	r6, #0	; 0x0
    8778:	1a00004b 	bne	88ac <.text+0x48ac>
    877c:	e51f306c 	ldr	r3, [pc, #-108]	; 8718 <.text+0x4718>
    8780:	e51f106c 	ldr	r1, [pc, #-108]	; 871c <.text+0x471c>
    8784:	e5930000 	ldr	r0, [r3]
    8788:	eb0027ed 	bl	12744 <__gesf2>
    878c:	e3500000 	cmp	r0, #0	; 0x0
    8790:	da000045 	ble	88ac <.text+0x48ac>
    8794:	e51f307c 	ldr	r3, [pc, #-124]	; 8720 <.text+0x4720>
    8798:	e3a00007 	mov	r0, #7	; 0x7
    879c:	e5c35000 	strb	r5, [r3]
    87a0:	e1c450b0 	strh	r5, [r4]
    87a4:	eb000371 	bl	9570 <uart0_check_free_space>
    87a8:	e31000ff 	tst	r0, #255	; 0xff
    87ac:	051f2090 	ldreq	r2, [pc, #-144]	; 8724 <.text+0x4724>
    87b0:	05d23000 	ldreqb	r3, [r2]
    87b4:	02833001 	addeq	r3, r3, #1	; 0x1
    87b8:	05c23000 	streqb	r3, [r2]
    87bc:	0a00003a 	beq	88ac <.text+0x48ac>
    87c0:	e3a0007e 	mov	r0, #126	; 0x7e
    87c4:	e51f40a4 	ldr	r4, [pc, #-164]	; 8728 <.text+0x4728>
    87c8:	eb00037c 	bl	95c0 <uart0_transmit>
    87cc:	e1a00006 	mov	r0, r6
    87d0:	eb00037a 	bl	95c0 <uart0_transmit>
    87d4:	e3a00009 	mov	r0, #9	; 0x9
    87d8:	eb000378 	bl	95c0 <uart0_transmit>
    87dc:	e1a00005 	mov	r0, r5
    87e0:	e5c45000 	strb	r5, [r4]
    87e4:	eb000375 	bl	95c0 <uart0_transmit>
    87e8:	e1a00006 	mov	r0, r6
    87ec:	eb000373 	bl	95c0 <uart0_transmit>
    87f0:	e5d43000 	ldrb	r3, [r4]
    87f4:	e2833001 	add	r3, r3, #1	; 0x1
    87f8:	e5c43000 	strb	r3, [r4]
    87fc:	e1a00005 	mov	r0, r5
    8800:	eb00036e 	bl	95c0 <uart0_transmit>
    8804:	e1a00006 	mov	r0, r6
    8808:	eb00036c 	bl	95c0 <uart0_transmit>
    880c:	e1a00006 	mov	r0, r6
    8810:	eb00036a 	bl	95c0 <uart0_transmit>
    8814:	e5d43000 	ldrb	r3, [r4]
    8818:	e283300a 	add	r3, r3, #10	; 0xa
    881c:	e5c43000 	strb	r3, [r4]
    8820:	e3a0000a 	mov	r0, #10	; 0xa
    8824:	eb000365 	bl	95c0 <uart0_transmit>
    8828:	e5d43000 	ldrb	r3, [r4]
    882c:	e51f5108 	ldr	r5, [pc, #-264]	; 872c <.text+0x472c>
    8830:	e2833004 	add	r3, r3, #4	; 0x4
    8834:	e5c43000 	strb	r3, [r4]
    8838:	e3a00004 	mov	r0, #4	; 0x4
    883c:	eb00035f 	bl	95c0 <uart0_transmit>
    8840:	e5d53000 	ldrb	r3, [r5]
    8844:	e5d42000 	ldrb	r2, [r4]
    8848:	e1a00003 	mov	r0, r3
    884c:	e0833002 	add	r3, r3, r2
    8850:	e5c43000 	strb	r3, [r4]
    8854:	eb000359 	bl	95c0 <uart0_transmit>
    8858:	e5d53001 	ldrb	r3, [r5, #1]
    885c:	e5d42000 	ldrb	r2, [r4]
    8860:	e1a00003 	mov	r0, r3
    8864:	e0833002 	add	r3, r3, r2
    8868:	e5c43000 	strb	r3, [r4]
    886c:	eb000353 	bl	95c0 <uart0_transmit>
    8870:	e5d43000 	ldrb	r3, [r4]
    8874:	e1e03003 	mvn	r3, r3
    8878:	e5c43000 	strb	r3, [r4]
    887c:	e5d40000 	ldrb	r0, [r4]
    8880:	eb00034e 	bl	95c0 <uart0_transmit>
    8884:	ea000008 	b	88ac <.text+0x48ac>
    8888:	e51f3160 	ldr	r3, [pc, #-352]	; 8730 <.text+0x4730>
    888c:	e5d33000 	ldrb	r3, [r3]
    8890:	e3530000 	cmp	r3, #0	; 0x0
    8894:	151f3168 	ldrne	r3, [pc, #-360]	; 8734 <.text+0x4734>
    8898:	051f316c 	ldreq	r3, [pc, #-364]	; 8734 <.text+0x4734>
    889c:	13a02080 	movne	r2, #128	; 0x80
    88a0:	03a02080 	moveq	r2, #128	; 0x80
    88a4:	15832004 	strne	r2, [r3, #4]
    88a8:	0583200c 	streq	r2, [r3, #12]
    88ac:	e51f217c 	ldr	r2, [pc, #-380]	; 8738 <.text+0x4738>
    88b0:	e5d23000 	ldrb	r3, [r2]
    88b4:	e3530000 	cmp	r3, #0	; 0x0
    88b8:	1a000053 	bne	8a0c <.text+0x4a0c>
    88bc:	e51f7188 	ldr	r7, [pc, #-392]	; 873c <.text+0x473c>
    88c0:	eb001483 	bl	dad4 <gyro_update>
    88c4:	eb0014fc 	bl	dcbc <accel_update>
    88c8:	e5970000 	ldr	r0, [r7]
    88cc:	eb002454 	bl	11a24 <__extendsfdf2>
    88d0:	e51f6198 	ldr	r6, [pc, #-408]	; 8740 <.text+0x4740>
    88d4:	e1a05001 	mov	r5, r1
    88d8:	e1a04000 	mov	r4, r0
    88dc:	e5960000 	ldr	r0, [r6]
    88e0:	eb00244f 	bl	11a24 <__extendsfdf2>
    88e4:	e1a03001 	mov	r3, r1
    88e8:	e1a02000 	mov	r2, r0
    88ec:	e1a01005 	mov	r1, r5
    88f0:	e1a00004 	mov	r0, r4
    88f4:	eb0027ed 	bl	128b0 <__atan2_from_arm>
    88f8:	eb002601 	bl	12104 <__truncdfsf2>
    88fc:	e51f91c0 	ldr	r9, [pc, #-448]	; 8744 <.text+0x4744>
    8900:	e51f81c0 	ldr	r8, [pc, #-448]	; 8748 <.text+0x4748>
    8904:	e5890000 	str	r0, [r9]
    8908:	e5980000 	ldr	r0, [r8]
    890c:	eb002444 	bl	11a24 <__extendsfdf2>
    8910:	e1a05001 	mov	r5, r1
    8914:	e1a04000 	mov	r4, r0
    8918:	e5960000 	ldr	r0, [r6]
    891c:	eb002440 	bl	11a24 <__extendsfdf2>
    8920:	e1a03001 	mov	r3, r1
    8924:	e1a02000 	mov	r2, r0
    8928:	e1a01005 	mov	r1, r5
    892c:	e1a00004 	mov	r0, r4
    8930:	eb0027de 	bl	128b0 <__atan2_from_arm>
    8934:	eb0025f2 	bl	12104 <__truncdfsf2>
    8938:	e51fa1f4 	ldr	sl, [pc, #-500]	; 874c <.text+0x474c>
    893c:	e2203102 	eor	r3, r0, #-2147483648	; 0x80000000
    8940:	e58a3000 	str	r3, [sl]
    8944:	e5970000 	ldr	r0, [r7]
    8948:	eb002435 	bl	11a24 <__extendsfdf2>
    894c:	e1a05001 	mov	r5, r1
    8950:	e1a04000 	mov	r4, r0
    8954:	e5960000 	ldr	r0, [r6]
    8958:	eb002431 	bl	11a24 <__extendsfdf2>
    895c:	e1a03001 	mov	r3, r1
    8960:	e1a02000 	mov	r2, r0
    8964:	e1a01005 	mov	r1, r5
    8968:	e1a00004 	mov	r0, r4
    896c:	eb0027cf 	bl	128b0 <__atan2_from_arm>
    8970:	eb0025e3 	bl	12104 <__truncdfsf2>
    8974:	e51f722c 	ldr	r7, [pc, #-556]	; 8750 <.text+0x4750>
    8978:	e5870000 	str	r0, [r7]
    897c:	e5980000 	ldr	r0, [r8]
    8980:	eb002427 	bl	11a24 <__extendsfdf2>
    8984:	e1a05001 	mov	r5, r1
    8988:	e1a04000 	mov	r4, r0
    898c:	e5960000 	ldr	r0, [r6]
    8990:	eb002423 	bl	11a24 <__extendsfdf2>
    8994:	e1a03001 	mov	r3, r1
    8998:	e1a02000 	mov	r2, r0
    899c:	e1a01005 	mov	r1, r5
    89a0:	e1a00004 	mov	r0, r4
    89a4:	eb0027c1 	bl	128b0 <__atan2_from_arm>
    89a8:	eb0025d5 	bl	12104 <__truncdfsf2>
    89ac:	e51f4260 	ldr	r4, [pc, #-608]	; 8754 <.text+0x4754>
    89b0:	e2203102 	eor	r3, r0, #-2147483648	; 0x80000000
    89b4:	e5843000 	str	r3, [r4]
    89b8:	eb001567 	bl	df5c <kalman_roll_pitch_update>
    89bc:	e5973000 	ldr	r3, [r7]
    89c0:	e5942000 	ldr	r2, [r4]
    89c4:	e5893000 	str	r3, [r9]
    89c8:	e58a2000 	str	r2, [sl]
    89cc:	eb00104d 	bl	cb08 <h_ctl_attitude_loop>
    89d0:	eb0013f7 	bl	d9b4 <v_ctl_throttle_slew>
    89d4:	e51f3284 	ldr	r3, [pc, #-644]	; 8758 <.text+0x4758>
    89d8:	e5932000 	ldr	r2, [r3]
    89dc:	e51f3288 	ldr	r3, [pc, #-648]	; 875c <.text+0x475c>
    89e0:	e1d330b0 	ldrh	r3, [r3]
    89e4:	e1c230b0 	strh	r3, [r2]
    89e8:	e51f3290 	ldr	r3, [pc, #-656]	; 8760 <.text+0x4760>
    89ec:	e1d330b0 	ldrh	r3, [r3]
    89f0:	e1c230b2 	strh	r3, [r2, #2]
    89f4:	e51f3298 	ldr	r3, [pc, #-664]	; 8764 <.text+0x4764>
    89f8:	e1d330b0 	ldrh	r3, [r3]
    89fc:	e1c230b4 	strh	r3, [r2, #4]
    8a00:	e51f32a0 	ldr	r3, [pc, #-672]	; 8768 <.text+0x4768>
    8a04:	e3a02001 	mov	r2, #1	; 0x1
    8a08:	e5c32000 	strb	r2, [r3]
    8a0c:	e24bd028 	sub	sp, fp, #40	; 0x28
    8a10:	e89d6ff0 	ldmia	sp, {r4, r5, r6, r7, r8, r9, sl, fp, sp, lr}
    8a14:	e12fff1e 	bx	lr

00008a18 <init_ap>:
    8a18:	e1a0c00d 	mov	ip, sp
    8a1c:	e92dd8f0 	stmdb	sp!, {r4, r5, r6, r7, fp, ip, lr, pc}
    8a20:	e24cb004 	sub	fp, ip, #4	; 0x4
    8a24:	eb00140a 	bl	da54 <gyro_init>
    8a28:	eb001475 	bl	dc04 <accel_init>
    8a2c:	eb000298 	bl	9494 <uart0_init_tx>
    8a30:	eb0002cd 	bl	956c <uart0_init_rx>
    8a34:	e59f2168 	ldr	r2, [pc, #360]	; 8ba4 <.text+0x4ba4>
    8a38:	e5923000 	ldr	r3, [r2]
    8a3c:	e59fc164 	ldr	ip, [pc, #356]	; 8ba8 <.text+0x4ba8>
    8a40:	e5823000 	str	r3, [r2]
    8a44:	e59f3160 	ldr	r3, [pc, #352]	; 8bac <.text+0x4bac>
    8a48:	e59c2008 	ldr	r2, [ip, #8]
    8a4c:	e5930000 	ldr	r0, [r3]
    8a50:	e59f3158 	ldr	r3, [pc, #344]	; 8bb0 <.text+0x4bb0>
    8a54:	e3a01000 	mov	r1, #0	; 0x0
    8a58:	e3822080 	orr	r2, r2, #128	; 0x80
    8a5c:	e5c31000 	strb	r1, [r3]
    8a60:	e3a03080 	mov	r3, #128	; 0x80
    8a64:	e58c2008 	str	r2, [ip, #8]
    8a68:	e58c300c 	str	r3, [ip, #12]
    8a6c:	eb0023ec 	bl	11a24 <__extendsfdf2>
    8a70:	e59f613c 	ldr	r6, [pc, #316]	; 8bb4 <.text+0x4bb4>
    8a74:	e1a05001 	mov	r5, r1
    8a78:	e1a04000 	mov	r4, r0
    8a7c:	e5960000 	ldr	r0, [r6]
    8a80:	eb0023e7 	bl	11a24 <__extendsfdf2>
    8a84:	e1a03001 	mov	r3, r1
    8a88:	e1a02000 	mov	r2, r0
    8a8c:	e1a01005 	mov	r1, r5
    8a90:	e1a00004 	mov	r0, r4
    8a94:	eb002785 	bl	128b0 <__atan2_from_arm>
    8a98:	eb002599 	bl	12104 <__truncdfsf2>
    8a9c:	e59f3114 	ldr	r3, [pc, #276]	; 8bb8 <.text+0x4bb8>
    8aa0:	e5830000 	str	r0, [r3]
    8aa4:	e59f3110 	ldr	r3, [pc, #272]	; 8bbc <.text+0x4bbc>
    8aa8:	e5930000 	ldr	r0, [r3]
    8aac:	eb0023dc 	bl	11a24 <__extendsfdf2>
    8ab0:	e1a05001 	mov	r5, r1
    8ab4:	e1a04000 	mov	r4, r0
    8ab8:	e5960000 	ldr	r0, [r6]
    8abc:	eb0023d8 	bl	11a24 <__extendsfdf2>
    8ac0:	e1a03001 	mov	r3, r1
    8ac4:	e1a02000 	mov	r2, r0
    8ac8:	e1a01005 	mov	r1, r5
    8acc:	e1a00004 	mov	r0, r4
    8ad0:	eb002776 	bl	128b0 <__atan2_from_arm>
    8ad4:	eb00258a 	bl	12104 <__truncdfsf2>
    8ad8:	e59f30e0 	ldr	r3, [pc, #224]	; 8bc0 <.text+0x4bc0>
    8adc:	e5830000 	str	r0, [r3]
    8ae0:	eb0014dd 	bl	de5c <kalman_roll_pitch_init>
    8ae4:	eb000f24 	bl	c77c <h_ctl_init>
    8ae8:	eb0011e3 	bl	d27c <v_ctl_init>
    8aec:	eb000686 	bl	a50c <estimator_init>
    8af0:	eb000bb0 	bl	b9b8 <nav_init>
    8af4:	ebffee1e 	bl	4374 <enableIRQ>
    8af8:	e3a0601e 	mov	r6, #30	; 0x1e
    8afc:	e59f30c0 	ldr	r3, [pc, #192]	; 8bc4 <.text+0x4bc4>
    8b00:	e59f70c0 	ldr	r7, [pc, #192]	; 8bc8 <.text+0x4bc8>
    8b04:	e5932008 	ldr	r2, [r3, #8]
    8b08:	e5971000 	ldr	r1, [r7]
    8b0c:	e59f30b8 	ldr	r3, [pc, #184]	; 8bcc <.text+0x4bcc>
    8b10:	e59fc0b8 	ldr	ip, [pc, #184]	; 8bd0 <.text+0x4bd0>
    8b14:	e0612002 	rsb	r2, r1, r2
    8b18:	e1520003 	cmp	r2, r3
    8b1c:	e59f40b0 	ldr	r4, [pc, #176]	; 8bd4 <.text+0x4bd4>
    8b20:	e081000c 	add	r0, r1, ip
    8b24:	93a03000 	movls	r3, #0	; 0x0
    8b28:	9a000015 	bls	8b84 <init_ap+0x16c>
    8b2c:	e5942000 	ldr	r2, [r4]
    8b30:	e59f30a0 	ldr	r3, [pc, #160]	; 8bd8 <.text+0x4bd8>
    8b34:	e082c00c 	add	ip, r2, ip
    8b38:	e59f109c 	ldr	r1, [pc, #156]	; 8bdc <.text+0x4bdc>
    8b3c:	e15c0003 	cmp	ip, r3
    8b40:	e59fe060 	ldr	lr, [pc, #96]	; 8ba8 <.text+0x4ba8>
    8b44:	e59f5094 	ldr	r5, [pc, #148]	; 8be0 <.text+0x4be0>
    8b48:	e0821001 	add	r1, r2, r1
    8b4c:	e5870000 	str	r0, [r7]
    8b50:	e584c000 	str	ip, [r4]
    8b54:	9a000009 	bls	8b80 <init_ap+0x168>
    8b58:	e59e2010 	ldr	r2, [lr, #16]
    8b5c:	e1d530b0 	ldrh	r3, [r5]
    8b60:	e3120201 	tst	r2, #268435456	; 0x10000000
    8b64:	e2833001 	add	r3, r3, #1	; 0x1
    8b68:	e1c530b0 	strh	r3, [r5]
    8b6c:	13a03201 	movne	r3, #268435456	; 0x10000000
    8b70:	03a03201 	moveq	r3, #268435456	; 0x10000000
    8b74:	e5841000 	str	r1, [r4]
    8b78:	158e301c 	strne	r3, [lr, #28]
    8b7c:	058e3014 	streq	r3, [lr, #20]
    8b80:	e3a03001 	mov	r3, #1	; 0x1
    8b84:	e3530000 	cmp	r3, #0	; 0x0
    8b88:	e2463001 	sub	r3, r6, #1	; 0x1
    8b8c:	120360ff 	andne	r6, r3, #255	; 0xff
    8b90:	e3560000 	cmp	r6, #0	; 0x0
    8b94:	1affffd8 	bne	8afc <init_ap+0xe4>
    8b98:	eb00052e 	bl	a058 <xbee_init>
    8b9c:	e89d68f0 	ldmia	sp, {r4, r5, r6, r7, fp, sp, lr}
    8ba0:	e12fff1e 	bx	lr
    8ba4:	e002c000 	and	ip, r2, r0
    8ba8:	e0028000 	and	r8, r2, r0
    8bac:	40000f7c 	andmi	r0, r0, ip, ror pc
    8bb0:	40001108 	andmi	r1, r0, r8, lsl #2
    8bb4:	40000f88 	andmi	r0, r0, r8, lsl #31
    8bb8:	400008ec 	andmi	r0, r0, ip, ror #17
    8bbc:	40000f80 	andmi	r0, r0, r0, lsl #31
    8bc0:	40000ad8 	ldrmid	r0, [r0], -r8
    8bc4:	e0004000 	and	r4, r0, r0
    8bc8:	40000510 	andmi	r0, r0, r0, lsl r5
    8bcc:	00039386 	andeq	r9, r3, r6, lsl #7
    8bd0:	00039387 	andeq	r9, r3, r7, lsl #7
    8bd4:	40000894 	mulmi	r0, r4, r8
    8bd8:	00e4e1c0 	rsceq	lr, r4, r0, asr #3
    8bdc:	ff1eb1c7 	swinv	0x001eb1c7
    8be0:	40000890 	mulmi	r0, r0, r8

00008be4 <event_task_ap>:
    8be4:	e1a0c00d 	mov	ip, sp
    8be8:	e92dd9f0 	stmdb	sp!, {r4, r5, r6, r7, r8, fp, ip, lr, pc}
    8bec:	e59f0658 	ldr	r0, [pc, #1624]	; 924c <.text+0x524c>
    8bf0:	e59f5658 	ldr	r5, [pc, #1624]	; 9250 <.text+0x5250>
    8bf4:	e1d010b0 	ldrh	r1, [r0]
    8bf8:	e1d530b0 	ldrh	r3, [r5]
    8bfc:	e1530001 	cmp	r3, r1
    8c00:	e24cb004 	sub	fp, ip, #4	; 0x4
    8c04:	0a000073 	beq	8dd8 <.text+0x4dd8>
    8c08:	e59f3644 	ldr	r3, [pc, #1604]	; 9254 <.text+0x5254>
    8c0c:	e5d33000 	ldrb	r3, [r3]
    8c10:	e3530000 	cmp	r3, #0	; 0x0
    8c14:	1a000051 	bne	8d60 <.text+0x4d60>
    8c18:	e59f4638 	ldr	r4, [pc, #1592]	; 9258 <.text+0x5258>
    8c1c:	e2813001 	add	r3, r1, #1	; 0x1
    8c20:	e203307f 	and	r3, r3, #127	; 0x7f
    8c24:	e1c030b0 	strh	r3, [r0]
    8c28:	e5d42000 	ldrb	r2, [r4]
    8c2c:	e59f3628 	ldr	r3, [pc, #1576]	; 925c <.text+0x525c>
    8c30:	e7d3e001 	ldrb	lr, [r3, r1]
    8c34:	e3520004 	cmp	r2, #4	; 0x4
    8c38:	979ff102 	ldrls	pc, [pc, r2, lsl #2]
    8c3c:	ea000041 	b	8d48 <.text+0x4d48>
    8c40:	00008c54 	andeq	r8, r0, r4, asr ip
    8c44:	00008c5c 	andeq	r8, r0, ip, asr ip
    8c48:	00008c94 	muleq	r0, r4, ip
    8c4c:	00008cc8 	andeq	r8, r0, r8, asr #25
    8c50:	00008d10 	andeq	r8, r0, r0, lsl sp
    8c54:	e35e007e 	cmp	lr, #126	; 0x7e
    8c58:	ea000028 	b	8d00 <.text+0x4d00>
    8c5c:	e59f35f0 	ldr	r3, [pc, #1520]	; 9254 <.text+0x5254>
    8c60:	e5d33000 	ldrb	r3, [r3]
    8c64:	e20310ff 	and	r1, r3, #255	; 0xff
    8c68:	e3510000 	cmp	r1, #0	; 0x0
    8c6c:	159f25ec 	ldrne	r2, [pc, #1516]	; 9260 <.text+0x5260>
    8c70:	15d23000 	ldrneb	r3, [r2]
    8c74:	12833001 	addne	r3, r3, #1	; 0x1
    8c78:	15c23000 	strneb	r3, [r2]
    8c7c:	1a00002b 	bne	8d30 <.text+0x4d30>
    8c80:	e5d43000 	ldrb	r3, [r4]
    8c84:	e59f25d8 	ldr	r2, [pc, #1496]	; 9264 <.text+0x5264>
    8c88:	e2833001 	add	r3, r3, #1	; 0x1
    8c8c:	e5c21000 	strb	r1, [r2]
    8c90:	ea00002b 	b	8d44 <.text+0x4d44>
    8c94:	e59f15c8 	ldr	r1, [pc, #1480]	; 9264 <.text+0x5264>
    8c98:	e5d13000 	ldrb	r3, [r1]
    8c9c:	e18e3003 	orr	r3, lr, r3
    8ca0:	e5c13000 	strb	r3, [r1]
    8ca4:	e59f35bc 	ldr	r3, [pc, #1468]	; 9268 <.text+0x5268>
    8ca8:	e5d42000 	ldrb	r2, [r4]
    8cac:	e3a00000 	mov	r0, #0	; 0x0
    8cb0:	e5c30000 	strb	r0, [r3]
    8cb4:	e59f35b0 	ldr	r3, [pc, #1456]	; 926c <.text+0x526c>
    8cb8:	e2822001 	add	r2, r2, #1	; 0x1
    8cbc:	e5c42000 	strb	r2, [r4]
    8cc0:	e5c30000 	strb	r0, [r3]
    8cc4:	ea00001f 	b	8d48 <.text+0x4d48>
    8cc8:	e59f259c 	ldr	r2, [pc, #1436]	; 926c <.text+0x526c>
    8ccc:	e5d2c000 	ldrb	ip, [r2]
    8cd0:	e28c3001 	add	r3, ip, #1	; 0x1
    8cd4:	e5c23000 	strb	r3, [r2]
    8cd8:	e59f0588 	ldr	r0, [pc, #1416]	; 9268 <.text+0x5268>
    8cdc:	e59f3580 	ldr	r3, [pc, #1408]	; 9264 <.text+0x5264>
    8ce0:	e5d21000 	ldrb	r1, [r2]
    8ce4:	e5d32000 	ldrb	r2, [r3]
    8ce8:	e5d03000 	ldrb	r3, [r0]
    8cec:	e08e3003 	add	r3, lr, r3
    8cf0:	e5c03000 	strb	r3, [r0]
    8cf4:	e59f3574 	ldr	r3, [pc, #1396]	; 9270 <.text+0x5270>
    8cf8:	e7c3e00c 	strb	lr, [r3, ip]
    8cfc:	e1510002 	cmp	r1, r2
    8d00:	05d43000 	ldreqb	r3, [r4]
    8d04:	02833001 	addeq	r3, r3, #1	; 0x1
    8d08:	0a00000d 	beq	8d44 <.text+0x4d44>
    8d0c:	ea00000d 	b	8d48 <.text+0x4d48>
    8d10:	e59f3550 	ldr	r3, [pc, #1360]	; 9268 <.text+0x5268>
    8d14:	e5d33000 	ldrb	r3, [r3]
    8d18:	e08e3003 	add	r3, lr, r3
    8d1c:	e35300ff 	cmp	r3, #255	; 0xff
    8d20:	059f352c 	ldreq	r3, [pc, #1324]	; 9254 <.text+0x5254>
    8d24:	03a02001 	moveq	r2, #1	; 0x1
    8d28:	05c32000 	streqb	r2, [r3]
    8d2c:	0a000003 	beq	8d40 <.text+0x4d40>
    8d30:	e59f253c 	ldr	r2, [pc, #1340]	; 9274 <.text+0x5274>
    8d34:	e5d23000 	ldrb	r3, [r2]
    8d38:	e2833001 	add	r3, r3, #1	; 0x1
    8d3c:	e5c23000 	strb	r3, [r2]
    8d40:	e3a03000 	mov	r3, #0	; 0x0
    8d44:	e5c43000 	strb	r3, [r4]
    8d48:	e59f34fc 	ldr	r3, [pc, #1276]	; 924c <.text+0x524c>
    8d4c:	e1d310b0 	ldrh	r1, [r3]
    8d50:	e1d530b0 	ldrh	r3, [r5]
    8d54:	e1530001 	cmp	r3, r1
    8d58:	e59f04ec 	ldr	r0, [pc, #1260]	; 924c <.text+0x524c>
    8d5c:	1affffa9 	bne	8c08 <event_task_ap+0x24>
    8d60:	e59f54ec 	ldr	r5, [pc, #1260]	; 9254 <.text+0x5254>
    8d64:	e5d53000 	ldrb	r3, [r5]
    8d68:	e3530000 	cmp	r3, #0	; 0x0
    8d6c:	0a000019 	beq	8dd8 <.text+0x4dd8>
    8d70:	e59fe4f8 	ldr	lr, [pc, #1272]	; 9270 <.text+0x5270>
    8d74:	e5de3000 	ldrb	r3, [lr]
    8d78:	e3530081 	cmp	r3, #129	; 0x81
    8d7c:	1a000013 	bne	8dd0 <.text+0x4dd0>
    8d80:	e59f44dc 	ldr	r4, [pc, #1244]	; 9264 <.text+0x5264>
    8d84:	e5d43000 	ldrb	r3, [r4]
    8d88:	e5de2003 	ldrb	r2, [lr, #3]
    8d8c:	e3530005 	cmp	r3, #5	; 0x5
    8d90:	e59f34e0 	ldr	r3, [pc, #1248]	; 9278 <.text+0x5278>
    8d94:	e5c32000 	strb	r2, [r3]
    8d98:	e3a0c005 	mov	ip, #5	; 0x5
    8d9c:	9a000008 	bls	8dc4 <.text+0x4dc4>
    8da0:	e59f34d4 	ldr	r3, [pc, #1236]	; 927c <.text+0x527c>
    8da4:	e28c1001 	add	r1, ip, #1	; 0x1
    8da8:	e5d40000 	ldrb	r0, [r4]
    8dac:	e08c3003 	add	r3, ip, r3
    8db0:	e7de200c 	ldrb	r2, [lr, ip]
    8db4:	e201c0ff 	and	ip, r1, #255	; 0xff
    8db8:	e150000c 	cmp	r0, ip
    8dbc:	e5432005 	strb	r2, [r3, #-5]
    8dc0:	eafffff5 	b	8d9c <.text+0x4d9c>
    8dc4:	e59f34b4 	ldr	r3, [pc, #1204]	; 9280 <.text+0x5280>
    8dc8:	e3a02001 	mov	r2, #1	; 0x1
    8dcc:	e5c32000 	strb	r2, [r3]
    8dd0:	e3a03000 	mov	r3, #0	; 0x0
    8dd4:	e5c53000 	strb	r3, [r5]
    8dd8:	e59f44a0 	ldr	r4, [pc, #1184]	; 9280 <.text+0x5280>
    8ddc:	e5d43000 	ldrb	r3, [r4]
    8de0:	e3530000 	cmp	r3, #0	; 0x0
    8de4:	0a000002 	beq	8df4 <.text+0x4df4>
    8de8:	eb000277 	bl	97cc <dl_parse_msg>
    8dec:	e3a03000 	mov	r3, #0	; 0x0
    8df0:	e5c43000 	strb	r3, [r4]
    8df4:	e59f2488 	ldr	r2, [pc, #1160]	; 9284 <.text+0x5284>
    8df8:	e5d23000 	ldrb	r3, [r2]
    8dfc:	e3530000 	cmp	r3, #0	; 0x0
    8e00:	0a00010b 	beq	9234 <.text+0x5234>
    8e04:	e59f347c 	ldr	r3, [pc, #1148]	; 9288 <.text+0x5288>
    8e08:	e59f847c 	ldr	r8, [pc, #1148]	; 928c <.text+0x528c>
    8e0c:	e3a01000 	mov	r1, #0	; 0x0
    8e10:	e5c21000 	strb	r1, [r2]
    8e14:	e5932000 	ldr	r2, [r3]
    8e18:	e5983000 	ldr	r3, [r8]
    8e1c:	e1d300b6 	ldrh	r0, [r3, #6]
    8e20:	e1c200b6 	strh	r0, [r2, #6]
    8e24:	e5d33011 	ldrb	r3, [r3, #17]
    8e28:	e3130002 	tst	r3, #2	; 0x2
    8e2c:	e1a02001 	mov	r2, r1
    8e30:	0a000004 	beq	8e48 <.text+0x4e48>
    8e34:	e59f3454 	ldr	r3, [pc, #1108]	; 9290 <.text+0x5290>
    8e38:	e5d33000 	ldrb	r3, [r3]
    8e3c:	e3530001 	cmp	r3, #1	; 0x1
    8e40:	83a02000 	movhi	r2, #0	; 0x0
    8e44:	93a02001 	movls	r2, #1	; 0x1
    8e48:	e59fc440 	ldr	ip, [pc, #1088]	; 9290 <.text+0x5290>
    8e4c:	e5dc3000 	ldrb	r3, [ip]
    8e50:	e2433003 	sub	r3, r3, #3	; 0x3
    8e54:	e3530001 	cmp	r3, #1	; 0x1
    8e58:	9a00000d 	bls	8e94 <.text+0x4e94>
    8e5c:	e59f3430 	ldr	r3, [pc, #1072]	; 9294 <.text+0x5294>
    8e60:	e5d33000 	ldrb	r3, [r3]
    8e64:	e3530000 	cmp	r3, #0	; 0x0
    8e68:	0a000009 	beq	8e94 <.text+0x4e94>
    8e6c:	e59f3424 	ldr	r3, [pc, #1060]	; 9298 <.text+0x5298>
    8e70:	e5d33000 	ldrb	r3, [r3]
    8e74:	e3530000 	cmp	r3, #0	; 0x0
    8e78:	13a03003 	movne	r3, #3	; 0x3
    8e7c:	15cc3000 	strneb	r3, [ip]
    8e80:	13a01001 	movne	r1, #1	; 0x1
    8e84:	e3520000 	cmp	r2, #0	; 0x0
    8e88:	13a03003 	movne	r3, #3	; 0x3
    8e8c:	15cc3000 	strneb	r3, [ip]
    8e90:	13a01001 	movne	r1, #1	; 0x1
    8e94:	e5980000 	ldr	r0, [r8]
    8e98:	e5d03011 	ldrb	r3, [r0, #17]
    8e9c:	e3130010 	tst	r3, #16	; 0x10
    8ea0:	0a000017 	beq	8f04 <.text+0x4f04>
    8ea4:	e5dc3000 	ldrb	r3, [ip]
    8ea8:	e2433003 	sub	r3, r3, #3	; 0x3
    8eac:	e3530001 	cmp	r3, #1	; 0x1
    8eb0:	8a000005 	bhi	8ecc <.text+0x4ecc>
    8eb4:	e59f23e0 	ldr	r2, [pc, #992]	; 929c <.text+0x529c>
    8eb8:	e5d23000 	ldrb	r3, [r2]
    8ebc:	e3530000 	cmp	r3, #0	; 0x0
    8ec0:	0a00000e 	beq	8f00 <.text+0x4f00>
    8ec4:	e3a03000 	mov	r3, #0	; 0x0
    8ec8:	e5c23000 	strb	r3, [r2]
    8ecc:	e1d030fe 	ldrsh	r3, [r0, #14]
    8ed0:	e3530d4b 	cmp	r3, #4800	; 0x12c0
    8ed4:	c3a02002 	movgt	r2, #2	; 0x2
    8ed8:	ca000002 	bgt	8ee8 <.text+0x4ee8>
    8edc:	e3730d4b 	cmn	r3, #4800	; 0x12c0
    8ee0:	d3a02000 	movle	r2, #0	; 0x0
    8ee4:	c3a02001 	movgt	r2, #1	; 0x1
    8ee8:	e5dc3000 	ldrb	r3, [ip]
    8eec:	e1530002 	cmp	r3, r2
    8ef0:	13a03001 	movne	r3, #1	; 0x1
    8ef4:	03a03000 	moveq	r3, #0	; 0x0
    8ef8:	15cc2000 	strneb	r2, [ip]
    8efc:	e20330ff 	and	r3, r3, #255	; 0xff
    8f00:	e1811003 	orr	r1, r1, r3
    8f04:	e5983000 	ldr	r3, [r8]
    8f08:	e59f7390 	ldr	r7, [pc, #912]	; 92a0 <.text+0x52a0>
    8f0c:	e5d33011 	ldrb	r3, [r3, #17]
    8f10:	e5d72000 	ldrb	r2, [r7]
    8f14:	e20300ff 	and	r0, r3, #255	; 0xff
    8f18:	e1520000 	cmp	r2, r0
    8f1c:	03a02000 	moveq	r2, #0	; 0x0
    8f20:	0a000004 	beq	8f38 <.text+0x4f38>
    8f24:	e202200f 	and	r2, r2, #15	; 0xf
    8f28:	e203300f 	and	r3, r3, #15	; 0xf
    8f2c:	e5c70000 	strb	r0, [r7]
    8f30:	e0522003 	subs	r2, r2, r3
    8f34:	13a02001 	movne	r2, #1	; 0x1
    8f38:	e1911002 	orrs	r1, r1, r2
    8f3c:	0a00005d 	beq	90b8 <.text+0x50b8>
    8f40:	e3a0000c 	mov	r0, #12	; 0xc
    8f44:	eb000189 	bl	9570 <uart0_check_free_space>
    8f48:	e31000ff 	tst	r0, #255	; 0xff
    8f4c:	059f2350 	ldreq	r2, [pc, #848]	; 92a4 <.text+0x52a4>
    8f50:	05d23000 	ldreqb	r3, [r2]
    8f54:	02833001 	addeq	r3, r3, #1	; 0x1
    8f58:	05c23000 	streqb	r3, [r2]
    8f5c:	0a000055 	beq	90b8 <.text+0x50b8>
    8f60:	e3a06000 	mov	r6, #0	; 0x0
    8f64:	e3a0007e 	mov	r0, #126	; 0x7e
    8f68:	e59f4338 	ldr	r4, [pc, #824]	; 92a8 <.text+0x52a8>
    8f6c:	eb000193 	bl	95c0 <uart0_transmit>
    8f70:	e1a00006 	mov	r0, r6
    8f74:	eb000191 	bl	95c0 <uart0_transmit>
    8f78:	e3a05001 	mov	r5, #1	; 0x1
    8f7c:	e3a0000e 	mov	r0, #14	; 0xe
    8f80:	eb00018e 	bl	95c0 <uart0_transmit>
    8f84:	e1a00005 	mov	r0, r5
    8f88:	e5c45000 	strb	r5, [r4]
    8f8c:	eb00018b 	bl	95c0 <uart0_transmit>
    8f90:	e1a00006 	mov	r0, r6
    8f94:	eb000189 	bl	95c0 <uart0_transmit>
    8f98:	e5d43000 	ldrb	r3, [r4]
    8f9c:	e0833005 	add	r3, r3, r5
    8fa0:	e5c43000 	strb	r3, [r4]
    8fa4:	e1a00005 	mov	r0, r5
    8fa8:	eb000184 	bl	95c0 <uart0_transmit>
    8fac:	e1a00006 	mov	r0, r6
    8fb0:	eb000182 	bl	95c0 <uart0_transmit>
    8fb4:	e1a00006 	mov	r0, r6
    8fb8:	eb000180 	bl	95c0 <uart0_transmit>
    8fbc:	e5d43000 	ldrb	r3, [r4]
    8fc0:	e283300a 	add	r3, r3, #10	; 0xa
    8fc4:	e3a0000a 	mov	r0, #10	; 0xa
    8fc8:	e5c43000 	strb	r3, [r4]
    8fcc:	eb00017b 	bl	95c0 <uart0_transmit>
    8fd0:	e5d43000 	ldrb	r3, [r4]
    8fd4:	e283300b 	add	r3, r3, #11	; 0xb
    8fd8:	e3a0000b 	mov	r0, #11	; 0xb
    8fdc:	e5c43000 	strb	r3, [r4]
    8fe0:	eb000176 	bl	95c0 <uart0_transmit>
    8fe4:	e59f32a4 	ldr	r3, [pc, #676]	; 9290 <.text+0x5290>
    8fe8:	e5d42000 	ldrb	r2, [r4]
    8fec:	e5d33000 	ldrb	r3, [r3]
    8ff0:	e1a00003 	mov	r0, r3
    8ff4:	e0833002 	add	r3, r3, r2
    8ff8:	e5c43000 	strb	r3, [r4]
    8ffc:	eb00016f 	bl	95c0 <uart0_transmit>
    9000:	e59f32a4 	ldr	r3, [pc, #676]	; 92ac <.text+0x52ac>
    9004:	e5d42000 	ldrb	r2, [r4]
    9008:	e5d33000 	ldrb	r3, [r3]
    900c:	e1a00003 	mov	r0, r3
    9010:	e0833002 	add	r3, r3, r2
    9014:	e5c43000 	strb	r3, [r4]
    9018:	eb000168 	bl	95c0 <uart0_transmit>
    901c:	e59f328c 	ldr	r3, [pc, #652]	; 92b0 <.text+0x52b0>
    9020:	e5d42000 	ldrb	r2, [r4]
    9024:	e5d33000 	ldrb	r3, [r3]
    9028:	e1a00003 	mov	r0, r3
    902c:	e0833002 	add	r3, r3, r2
    9030:	e5c43000 	strb	r3, [r4]
    9034:	eb000161 	bl	95c0 <uart0_transmit>
    9038:	e59f3274 	ldr	r3, [pc, #628]	; 92b4 <.text+0x52b4>
    903c:	e5d42000 	ldrb	r2, [r4]
    9040:	e5d33000 	ldrb	r3, [r3]
    9044:	e1a00003 	mov	r0, r3
    9048:	e0833002 	add	r3, r3, r2
    904c:	e5c43000 	strb	r3, [r4]
    9050:	eb00015a 	bl	95c0 <uart0_transmit>
    9054:	e59f325c 	ldr	r3, [pc, #604]	; 92b8 <.text+0x52b8>
    9058:	e5d42000 	ldrb	r2, [r4]
    905c:	e5d33000 	ldrb	r3, [r3]
    9060:	e1a00003 	mov	r0, r3
    9064:	e0833002 	add	r3, r3, r2
    9068:	e5c43000 	strb	r3, [r4]
    906c:	eb000153 	bl	95c0 <uart0_transmit>
    9070:	e5d73000 	ldrb	r3, [r7]
    9074:	e5d42000 	ldrb	r2, [r4]
    9078:	e1a00003 	mov	r0, r3
    907c:	e0833002 	add	r3, r3, r2
    9080:	e5c43000 	strb	r3, [r4]
    9084:	eb00014d 	bl	95c0 <uart0_transmit>
    9088:	e59f322c 	ldr	r3, [pc, #556]	; 92bc <.text+0x52bc>
    908c:	e5d42000 	ldrb	r2, [r4]
    9090:	e5d33000 	ldrb	r3, [r3]
    9094:	e1a00003 	mov	r0, r3
    9098:	e0833002 	add	r3, r3, r2
    909c:	e5c43000 	strb	r3, [r4]
    90a0:	eb000146 	bl	95c0 <uart0_transmit>
    90a4:	e5d43000 	ldrb	r3, [r4]
    90a8:	e1e03003 	mvn	r3, r3
    90ac:	e5c43000 	strb	r3, [r4]
    90b0:	e5d40000 	ldrb	r0, [r4]
    90b4:	eb000141 	bl	95c0 <uart0_transmit>
    90b8:	e59f61d0 	ldr	r6, [pc, #464]	; 9290 <.text+0x5290>
    90bc:	e5d65000 	ldrb	r5, [r6]
    90c0:	e3550001 	cmp	r5, #1	; 0x1
    90c4:	1a00001c 	bne	913c <.text+0x513c>
    90c8:	e5984000 	ldr	r4, [r8]
    90cc:	e1d400f0 	ldrsh	r0, [r4]
    90d0:	eb0024bc 	bl	123c8 <__floatsisf>
    90d4:	e59f11e4 	ldr	r1, [pc, #484]	; 92c0 <.text+0x52c0>
    90d8:	eb002531 	bl	125a4 <__divsf3>
    90dc:	eb002250 	bl	11a24 <__extendsfdf2>
    90e0:	e28f2f55 	add	r2, pc, #340	; 0x154
    90e4:	e892000c 	ldmia	r2, {r2, r3}
    90e8:	eb002260 	bl	11a70 <__muldf3>
    90ec:	e28f2e15 	add	r2, pc, #336	; 0x150
    90f0:	e892000c 	ldmia	r2, {r2, r3}
    90f4:	eb002174 	bl	116cc <__adddf3>
    90f8:	eb002401 	bl	12104 <__truncdfsf2>
    90fc:	e59f31c0 	ldr	r3, [pc, #448]	; 92c4 <.text+0x52c4>
    9100:	e5830000 	str	r0, [r3]
    9104:	e1d400f2 	ldrsh	r0, [r4, #2]
    9108:	eb0024ae 	bl	123c8 <__floatsisf>
    910c:	e59f11ac 	ldr	r1, [pc, #428]	; 92c0 <.text+0x52c0>
    9110:	eb002523 	bl	125a4 <__divsf3>
    9114:	eb002242 	bl	11a24 <__extendsfdf2>
    9118:	e28f2f47 	add	r2, pc, #284	; 0x11c
    911c:	e892000c 	ldmia	r2, {r2, r3}
    9120:	eb002252 	bl	11a70 <__muldf3>
    9124:	e28f2f46 	add	r2, pc, #280	; 0x118
    9128:	e892000c 	ldmia	r2, {r2, r3}
    912c:	eb002166 	bl	116cc <__adddf3>
    9130:	eb0023f3 	bl	12104 <__truncdfsf2>
    9134:	e59f318c 	ldr	r3, [pc, #396]	; 92c8 <.text+0x52c8>
    9138:	e5830000 	str	r0, [r3]
    913c:	e3550001 	cmp	r5, #1	; 0x1
    9140:	959f3144 	ldrls	r3, [pc, #324]	; 928c <.text+0x528c>
    9144:	95932000 	ldrls	r2, [r3]
    9148:	e59f013c 	ldr	r0, [pc, #316]	; 928c <.text+0x528c>
    914c:	91d220b4 	ldrlsh	r2, [r2, #4]
    9150:	959f3174 	ldrls	r3, [pc, #372]	; 92cc <.text+0x52cc>
    9154:	91c320b0 	strlsh	r2, [r3]
    9158:	e5902000 	ldr	r2, [r0]
    915c:	e59f316c 	ldr	r3, [pc, #364]	; 92d0 <.text+0x52d0>
    9160:	e5d21010 	ldrb	r1, [r2, #16]
    9164:	e5c31000 	strb	r1, [r3]
    9168:	e59f3164 	ldr	r3, [pc, #356]	; 92d4 <.text+0x52d4>
    916c:	e5d21013 	ldrb	r1, [r2, #19]
    9170:	e5c31000 	strb	r1, [r3]
    9174:	e59f315c 	ldr	r3, [pc, #348]	; 92d8 <.text+0x52d8>
    9178:	e1d220fa 	ldrsh	r2, [r2, #10]
    917c:	e1520003 	cmp	r2, r3
    9180:	e59f2154 	ldr	r2, [pc, #340]	; 92dc <.text+0x52dc>
    9184:	d3a03000 	movle	r3, #0	; 0x0
    9188:	d1c230b0 	strleh	r3, [r2]
    918c:	da000009 	ble	91b8 <.text+0x51b8>
    9190:	e1d230b0 	ldrh	r3, [r2]
    9194:	e3530013 	cmp	r3, #19	; 0x13
    9198:	8a000006 	bhi	91b8 <.text+0x51b8>
    919c:	e2833001 	add	r3, r3, #1	; 0x1
    91a0:	e1c230b0 	strh	r3, [r2]
    91a4:	e1d230b0 	ldrh	r3, [r2]
    91a8:	e3530014 	cmp	r3, #20	; 0x14
    91ac:	059f30e8 	ldreq	r3, [pc, #232]	; 929c <.text+0x529c>
    91b0:	03a02001 	moveq	r2, #1	; 0x1
    91b4:	05c32000 	streqb	r2, [r3]
    91b8:	e5903000 	ldr	r3, [r0]
    91bc:	e1d320fa 	ldrsh	r2, [r3, #10]
    91c0:	e59f3118 	ldr	r3, [pc, #280]	; 92e0 <.text+0x52e0>
    91c4:	e1520003 	cmp	r2, r3
    91c8:	e59f2114 	ldr	r2, [pc, #276]	; 92e4 <.text+0x52e4>
    91cc:	a3a03000 	movge	r3, #0	; 0x0
    91d0:	a1c230b0 	strgeh	r3, [r2]
    91d4:	aa000009 	bge	9200 <.text+0x5200>
    91d8:	e1d230b0 	ldrh	r3, [r2]
    91dc:	e3530013 	cmp	r3, #19	; 0x13
    91e0:	8a000006 	bhi	9200 <.text+0x5200>
    91e4:	e2833001 	add	r3, r3, #1	; 0x1
    91e8:	e1c230b0 	strh	r3, [r2]
    91ec:	e1d230b0 	ldrh	r3, [r2]
    91f0:	e3530014 	cmp	r3, #20	; 0x14
    91f4:	059f30ec 	ldreq	r3, [pc, #236]	; 92e8 <.text+0x52e8>
    91f8:	03a02001 	moveq	r2, #1	; 0x1
    91fc:	05c32000 	streqb	r2, [r3]
    9200:	e59f30e4 	ldr	r3, [pc, #228]	; 92ec <.text+0x52ec>
    9204:	e1d330b0 	ldrh	r3, [r3]
    9208:	e3530000 	cmp	r3, #0	; 0x0
    920c:	1a000008 	bne	9234 <.text+0x5234>
    9210:	e5d63000 	ldrb	r3, [r6]
    9214:	e3530002 	cmp	r3, #2	; 0x2
    9218:	1a000005 	bne	9234 <.text+0x5234>
    921c:	e5903000 	ldr	r3, [r0]
    9220:	e1d330f4 	ldrsh	r3, [r3, #4]
    9224:	e3530d87 	cmp	r3, #8640	; 0x21c0
    9228:	c59f3064 	ldrgt	r3, [pc, #100]	; 9294 <.text+0x5294>
    922c:	c3a02001 	movgt	r2, #1	; 0x1
    9230:	c5c32000 	strgtb	r2, [r3]
    9234:	e89d69f0 	ldmia	sp, {r4, r5, r6, r7, r8, fp, sp, lr}
    9238:	e12fff1e 	bx	lr
    923c:	3fdbecde 	swicc	0x00dbecde
    9240:	5da115a9 	cfstr32pl	mvfx1, [r1, #676]!
	...
    924c:	40000c8c 	andmi	r0, r0, ip, lsl #25
    9250:	40000c06 	andmi	r0, r0, r6, lsl #24
    9254:	40000d16 	andmi	r0, r0, r6, lsl sp
    9258:	4000050c 	andmi	r0, r0, ip, lsl #10
    925c:	40000c0b 	andmi	r0, r0, fp, lsl #24
    9260:	40000d15 	andmi	r0, r0, r5, lsl sp
    9264:	40000d17 	andmi	r0, r0, r7, lsl sp
    9268:	4000050d 	andmi	r0, r0, sp, lsl #10
    926c:	4000050e 	andmi	r0, r0, lr, lsl #10
    9270:	40000d19 	andmi	r0, r0, r9, lsl sp
    9274:	40000d18 	andmi	r0, r0, r8, lsl sp
    9278:	40000d14 	andmi	r0, r0, r4, lsl sp
    927c:	40000c94 	mulmi	r0, r4, ip
    9280:	40000c90 	mulmi	r0, r0, ip
    9284:	4000053d 	andmi	r0, r0, sp, lsr r5
    9288:	4000000c 	andmi	r0, r0, ip
    928c:	40000010 	andmi	r0, r0, r0, lsl r0
    9290:	40000003 	andmi	r0, r0, r3
    9294:	400004f1 	strmid	r0, [r0], -r1
    9298:	40000e94 	mulmi	r0, r4, lr
    929c:	400008e4 	andmi	r0, r0, r4, ror #17
    92a0:	40000514 	andmi	r0, r0, r4, lsl r5
    92a4:	40000b83 	andmi	r0, r0, r3, lsl #23
    92a8:	40000e19 	andmi	r0, r0, r9, lsl lr
    92ac:	40000f44 	andmi	r0, r0, r4, asr #30
    92b0:	400004f4 	strmid	r0, [r0], -r4
    92b4:	40000e90 	mulmi	r0, r0, lr
    92b8:	400004f6 	strmid	r0, [r0], -r6
    92bc:	400004f3 	strmid	r0, [r0], -r3
    92c0:	46160000 	ldrmi	r0, [r6], -r0
    92c4:	40000f20 	andmi	r0, r0, r0, lsr #30
    92c8:	40000efc 	strmid	r0, [r0], -ip
    92cc:	40000f5c 	andmi	r0, r0, ip, asr pc
    92d0:	40000515 	andmi	r0, r0, r5, lsl r5
    92d4:	40000b14 	andmi	r0, r0, r4, lsl fp
    92d8:	00001c20 	andeq	r1, r0, r0, lsr #24
    92dc:	400004f8 	strmid	r0, [r0], -r8
    92e0:	ffffe3e0 	swinv	0x00ffe3e0
    92e4:	400004fa 	strmid	r0, [r0], -sl
    92e8:	40000ae8 	andmi	r0, r0, r8, ror #21
    92ec:	40000e20 	andmi	r0, r0, r0, lsr #28

000092f0 <main>:
    92f0:	e1a0c00d 	mov	ip, sp
    92f4:	e92dd870 	stmdb	sp!, {r4, r5, r6, fp, ip, lr, pc}
    92f8:	e24cb004 	sub	fp, ip, #4	; 0x4
    92fc:	ebffec2f 	bl	43c0 <init_fbw>
    9300:	ebfffdc4 	bl	8a18 <init_ap>
    9304:	e59f309c 	ldr	r3, [pc, #156]	; 93a8 <.text+0x53a8>
    9308:	e59f609c 	ldr	r6, [pc, #156]	; 93ac <.text+0x53ac>
    930c:	e5932008 	ldr	r2, [r3, #8]
    9310:	e5961000 	ldr	r1, [r6]
    9314:	e59f3094 	ldr	r3, [pc, #148]	; 93b0 <.text+0x53b0>
    9318:	e59fc094 	ldr	ip, [pc, #148]	; 93b4 <.text+0x53b4>
    931c:	e0612002 	rsb	r2, r1, r2
    9320:	e1520003 	cmp	r2, r3
    9324:	e59f408c 	ldr	r4, [pc, #140]	; 93b8 <.text+0x53b8>
    9328:	e081000c 	add	r0, r1, ip
    932c:	93a03000 	movls	r3, #0	; 0x0
    9330:	9a000015 	bls	938c <main+0x9c>
    9334:	e5942000 	ldr	r2, [r4]
    9338:	e59f307c 	ldr	r3, [pc, #124]	; 93bc <.text+0x53bc>
    933c:	e082c00c 	add	ip, r2, ip
    9340:	e59f1078 	ldr	r1, [pc, #120]	; 93c0 <.text+0x53c0>
    9344:	e15c0003 	cmp	ip, r3
    9348:	e59fe074 	ldr	lr, [pc, #116]	; 93c4 <.text+0x53c4>
    934c:	e59f5074 	ldr	r5, [pc, #116]	; 93c8 <.text+0x53c8>
    9350:	e0821001 	add	r1, r2, r1
    9354:	e5860000 	str	r0, [r6]
    9358:	e584c000 	str	ip, [r4]
    935c:	9a000009 	bls	9388 <main+0x98>
    9360:	e59e2010 	ldr	r2, [lr, #16]
    9364:	e1d530b0 	ldrh	r3, [r5]
    9368:	e3120201 	tst	r2, #268435456	; 0x10000000
    936c:	e2833001 	add	r3, r3, #1	; 0x1
    9370:	e1c530b0 	strh	r3, [r5]
    9374:	13a03201 	movne	r3, #268435456	; 0x10000000
    9378:	03a03201 	moveq	r3, #268435456	; 0x10000000
    937c:	e5841000 	str	r1, [r4]
    9380:	158e301c 	strne	r3, [lr, #28]
    9384:	058e3014 	streq	r3, [lr, #20]
    9388:	e3a03001 	mov	r3, #1	; 0x1
    938c:	e3530000 	cmp	r3, #0	; 0x0
    9390:	0a000001 	beq	939c <main+0xac>
    9394:	ebffedfc 	bl	4b8c <periodic_task_fbw>
    9398:	ebfff3e3 	bl	632c <periodic_task_ap>
    939c:	ebffec7a 	bl	458c <event_task_fbw>
    93a0:	ebfffe0f 	bl	8be4 <event_task_ap>
    93a4:	eaffffd6 	b	9304 <main+0x14>
    93a8:	e0004000 	and	r4, r0, r0
    93ac:	40000518 	andmi	r0, r0, r8, lsl r5
    93b0:	00039386 	andeq	r9, r3, r6, lsl #7
    93b4:	00039387 	andeq	r9, r3, r7, lsl #7
    93b8:	40000894 	mulmi	r0, r4, r8
    93bc:	00e4e1c0 	rsceq	lr, r4, r0, asr #3
    93c0:	ff1eb1c7 	swinv	0x001eb1c7
    93c4:	e0028000 	and	r8, r2, r0
    93c8:	40000890 	mulmi	r0, r0, r8

000093cc <actuators_init>:
    93cc:	e59f20a8 	ldr	r2, [pc, #168]	; 947c <.text+0x547c>
    93d0:	e5923008 	ldr	r3, [r2, #8]
    93d4:	e3833020 	orr	r3, r3, #32	; 0x20
    93d8:	e5823008 	str	r3, [r2, #8]
    93dc:	e59f109c 	ldr	r1, [pc, #156]	; 9480 <.text+0x5480>
    93e0:	e5913000 	ldr	r3, [r1]
    93e4:	e3833b02 	orr	r3, r3, #2048	; 0x800
    93e8:	e5813000 	str	r3, [r1]
    93ec:	e5923018 	ldr	r3, [r2, #24]
    93f0:	e3833202 	orr	r3, r3, #536870912	; 0x20000000
    93f4:	e5823018 	str	r3, [r2, #24]
    93f8:	e5913014 	ldr	r3, [r1, #20]
    93fc:	e3c33008 	bic	r3, r3, #8	; 0x8
    9400:	e5813014 	str	r3, [r1, #20]
    9404:	e3a03202 	mov	r3, #536870912	; 0x20000000
    9408:	e5823014 	str	r3, [r2, #20]
    940c:	e5923018 	ldr	r3, [r2, #24]
    9410:	e3833601 	orr	r3, r3, #1048576	; 0x100000
    9414:	e5823018 	str	r3, [r2, #24]
    9418:	e2422909 	sub	r2, r2, #147456	; 0x24000
    941c:	e5923014 	ldr	r3, [r2, #20]
    9420:	e3833008 	orr	r3, r3, #8	; 0x8
    9424:	e5823014 	str	r3, [r2, #20]
    9428:	e592303c 	ldr	r3, [r2, #60]
    942c:	e3c33002 	bic	r3, r3, #2	; 0x2
    9430:	e582303c 	str	r3, [r2, #60]
    9434:	e59f3048 	ldr	r3, [pc, #72]	; 9484 <.text+0x5484>
    9438:	e592103c 	ldr	r1, [r2, #60]
    943c:	e3a00008 	mov	r0, #8	; 0x8
    9440:	e5c30000 	strb	r0, [r3]
    9444:	e59f303c 	ldr	r3, [pc, #60]	; 9488 <.text+0x5488>
    9448:	e3811080 	orr	r1, r1, #128	; 0x80
    944c:	e582103c 	str	r1, [r2, #60]
    9450:	e582301c 	str	r3, [r2, #28]
    9454:	e2400008 	sub	r0, r0, #8	; 0x8
    9458:	e2803001 	add	r3, r0, #1	; 0x1
    945c:	e1a01080 	mov	r1, r0, lsl #1
    9460:	e59f2024 	ldr	r2, [pc, #36]	; 948c <.text+0x548c>
    9464:	e20300ff 	and	r0, r3, #255	; 0xff
    9468:	e59f3020 	ldr	r3, [pc, #32]	; 9490 <.text+0x5490>
    946c:	e3500007 	cmp	r0, #7	; 0x7
    9470:	e18120b3 	strh	r2, [r1, r3]
    9474:	9afffff7 	bls	9458 <actuators_init+0x8c>
    9478:	e12fff1e 	bx	lr
    947c:	e0028000 	and	r8, r2, r0
    9480:	e002c000 	and	ip, r2, r0
    9484:	40000b1e 	andmi	r0, r0, lr, lsl fp
    9488:	0000ffff 	streqd	pc, [r0], -pc
    948c:	000057e4 	andeq	r5, r0, r4, ror #15
    9490:	40000b20 	andmi	r0, r0, r0, lsr #22

00009494 <uart0_init_tx>:
    9494:	e52de004 	str	lr, [sp, #-4]!
    9498:	e59f20a8 	ldr	r2, [pc, #168]	; 9548 <.text+0x5548>
    949c:	e5923000 	ldr	r3, [r2]
    94a0:	e59f00a4 	ldr	r0, [pc, #164]	; 954c <.text+0x554c>
    94a4:	e3c3300f 	bic	r3, r3, #15	; 0xf
    94a8:	e3a0e000 	mov	lr, #0	; 0x0
    94ac:	e3833005 	orr	r3, r3, #5	; 0x5
    94b0:	e5823000 	str	r3, [r2]
    94b4:	e5c0e004 	strb	lr, [r0, #4]
    94b8:	e5d03008 	ldrb	r3, [r0, #8]
    94bc:	e5d03000 	ldrb	r3, [r0]
    94c0:	e5d03014 	ldrb	r3, [r0, #20]
    94c4:	e3e0307f 	mvn	r3, #127	; 0x7f
    94c8:	e5c0300c 	strb	r3, [r0, #12]
    94cc:	e28330e2 	add	r3, r3, #226	; 0xe2
    94d0:	e5c03000 	strb	r3, [r0]
    94d4:	e243305f 	sub	r3, r3, #95	; 0x5f
    94d8:	e5c0e004 	strb	lr, [r0, #4]
    94dc:	e5c0300c 	strb	r3, [r0, #12]
    94e0:	e283307e 	add	r3, r3, #126	; 0x7e
    94e4:	e5c03008 	strb	r3, [r0, #8]
    94e8:	e59fc060 	ldr	ip, [pc, #96]	; 9550 <.text+0x5550>
    94ec:	e59f3060 	ldr	r3, [pc, #96]	; 9554 <.text+0x5554>
    94f0:	e59c200c 	ldr	r2, [ip, #12]
    94f4:	e5c3e000 	strb	lr, [r3]
    94f8:	e59f3058 	ldr	r3, [pc, #88]	; 9558 <.text+0x5558>
    94fc:	e1c3e0b0 	strh	lr, [r3]
    9500:	e59f3054 	ldr	r3, [pc, #84]	; 955c <.text+0x555c>
    9504:	e3c22040 	bic	r2, r2, #64	; 0x40
    9508:	e1c3e0b0 	strh	lr, [r3]
    950c:	e3a03040 	mov	r3, #64	; 0x40
    9510:	e58c200c 	str	r2, [ip, #12]
    9514:	e58c3010 	str	r3, [ip, #16]
    9518:	e59f3040 	ldr	r3, [pc, #64]	; 9560 <.text+0x5560>
    951c:	e1c3e0b0 	strh	lr, [r3]
    9520:	e3a03026 	mov	r3, #38	; 0x26
    9524:	e58c3218 	str	r3, [ip, #536]
    9528:	e59f3034 	ldr	r3, [pc, #52]	; 9564 <.text+0x5564>
    952c:	e58c3118 	str	r3, [ip, #280]
    9530:	e3a03001 	mov	r3, #1	; 0x1
    9534:	e5c03004 	strb	r3, [r0, #4]
    9538:	e59f3028 	ldr	r3, [pc, #40]	; 9568 <.text+0x5568>
    953c:	e1c3e0b0 	strh	lr, [r3]
    9540:	e49de004 	ldr	lr, [sp], #4
    9544:	e12fff1e 	bx	lr
    9548:	e002c000 	and	ip, r2, r0
    954c:	e000c000 	and	ip, r0, r0
    9550:	fffff000 	swinv	0x00fff000
    9554:	40000c0a 	andmi	r0, r0, sl, lsl #24
    9558:	40000c06 	andmi	r0, r0, r6, lsl #24
    955c:	40000c08 	andmi	r0, r0, r8, lsl #24
    9560:	40000c04 	andmi	r0, r0, r4, lsl #24
    9564:	00009664 	andeq	r9, r0, r4, ror #12
    9568:	40000c8c 	andmi	r0, r0, ip, lsl #25

0000956c <uart0_init_rx>:
    956c:	e12fff1e 	bx	lr

00009570 <uart0_check_free_space>:
    9570:	e59f3040 	ldr	r3, [pc, #64]	; 95b8 <.text+0x55b8>
    9574:	e1d320b0 	ldrh	r2, [r3]
    9578:	e59f303c 	ldr	r3, [pc, #60]	; 95bc <.text+0x55bc>
    957c:	e1d330b0 	ldrh	r3, [r3]
    9580:	e0632002 	rsb	r2, r3, r2
    9584:	e1a02802 	mov	r2, r2, lsl #16
    9588:	e3520000 	cmp	r2, #0	; 0x0
    958c:	e1a02822 	mov	r2, r2, lsr #16
    9590:	e2823080 	add	r3, r2, #128	; 0x80
    9594:	e1a03803 	mov	r3, r3, lsl #16
    9598:	d1a02823 	movle	r2, r3, lsr #16
    959c:	e2423001 	sub	r3, r2, #1	; 0x1
    95a0:	e20000ff 	and	r0, r0, #255	; 0xff
    95a4:	e1a03803 	mov	r3, r3, lsl #16
    95a8:	e1500823 	cmp	r0, r3, lsr #16
    95ac:	83a00000 	movhi	r0, #0	; 0x0
    95b0:	93a00001 	movls	r0, #1	; 0x1
    95b4:	e12fff1e 	bx	lr
    95b8:	40000c08 	andmi	r0, r0, r8, lsl #24
    95bc:	40000c04 	andmi	r0, r0, r4, lsl #24

000095c0 <uart0_transmit>:
    95c0:	e1a0c00d 	mov	ip, sp
    95c4:	e92dd8f0 	stmdb	sp!, {r4, r5, r6, r7, fp, ip, lr, pc}
    95c8:	e59f5080 	ldr	r5, [pc, #128]	; 9650 <.text+0x5650>
    95cc:	e59f2080 	ldr	r2, [pc, #128]	; 9654 <.text+0x5654>
    95d0:	e1d530b0 	ldrh	r3, [r5]
    95d4:	e1d220b0 	ldrh	r2, [r2]
    95d8:	e2833001 	add	r3, r3, #1	; 0x1
    95dc:	e203707f 	and	r7, r3, #127	; 0x7f
    95e0:	e1520007 	cmp	r2, r7
    95e4:	e24cb004 	sub	fp, ip, #4	; 0x4
    95e8:	e59f6068 	ldr	r6, [pc, #104]	; 9658 <.text+0x5658>
    95ec:	e20040ff 	and	r4, r0, #255	; 0xff
    95f0:	0a000014 	beq	9648 <uart0_transmit+0x88>
    95f4:	ebffeb53 	bl	4348 <disableIRQ>
    95f8:	e5d63004 	ldrb	r3, [r6, #4]
    95fc:	e3c33002 	bic	r3, r3, #2	; 0x2
    9600:	e5c63004 	strb	r3, [r6, #4]
    9604:	ebffeb53 	bl	4358 <restoreIRQ>
    9608:	e59f204c 	ldr	r2, [pc, #76]	; 965c <.text+0x565c>
    960c:	e5d23000 	ldrb	r3, [r2]
    9610:	e3530000 	cmp	r3, #0	; 0x0
    9614:	11d520b0 	ldrneh	r2, [r5]
    9618:	159f3040 	ldrne	r3, [pc, #64]	; 9660 <.text+0x5660>
    961c:	03a03001 	moveq	r3, #1	; 0x1
    9620:	05c23000 	streqb	r3, [r2]
    9624:	17c34002 	strneb	r4, [r3, r2]
    9628:	05c64000 	streqb	r4, [r6]
    962c:	11c570b0 	strneh	r7, [r5]
    9630:	ebffeb44 	bl	4348 <disableIRQ>
    9634:	e59f201c 	ldr	r2, [pc, #28]	; 9658 <.text+0x5658>
    9638:	e5d23004 	ldrb	r3, [r2, #4]
    963c:	e3833002 	orr	r3, r3, #2	; 0x2
    9640:	e5c23004 	strb	r3, [r2, #4]
    9644:	ebffeb43 	bl	4358 <restoreIRQ>
    9648:	e89d68f0 	ldmia	sp, {r4, r5, r6, r7, fp, sp, lr}
    964c:	e12fff1e 	bx	lr
    9650:	40000c04 	andmi	r0, r0, r4, lsl #24
    9654:	40000c08 	andmi	r0, r0, r8, lsl #24
    9658:	e000c000 	and	ip, r0, r0
    965c:	40000c0a 	andmi	r0, r0, sl, lsl #24
    9660:	40000b84 	andmi	r0, r0, r4, lsl #23

00009664 <uart0_ISR>:
    9664:	e24ee004 	sub	lr, lr, #4	; 0x4
    9668:	e92d5fff 	stmdb	sp!, {r0, r1, r2, r3, r4, r5, r6, r7, r8, r9, sl, fp, ip, lr}
    966c:	e14f1000 	mrs	r1, SPSR
    9670:	e92d0002 	stmdb	sp!, {r1}
    9674:	e59f312c 	ldr	r3, [pc, #300]	; 97a8 <.text+0x57a8>
    9678:	e5d33008 	ldrb	r3, [r3, #8]
    967c:	e20330ff 	and	r3, r3, #255	; 0xff
    9680:	e3130001 	tst	r3, #1	; 0x1
    9684:	1a000041 	bne	9790 <.text+0x5790>
    9688:	e203300e 	and	r3, r3, #14	; 0xe
    968c:	e2433002 	sub	r3, r3, #2	; 0x2
    9690:	e353000a 	cmp	r3, #10	; 0xa
    9694:	979ff103 	ldrls	pc, [pc, r3, lsl #2]
    9698:	ea000038 	b	9780 <.text+0x5780>
    969c:	00009724 	andeq	r9, r0, r4, lsr #14
    96a0:	00009780 	andeq	r9, r0, r0, lsl #15
    96a4:	000096d4 	ldreqd	r9, [r0], -r4
    96a8:	00009780 	andeq	r9, r0, r0, lsl #15
    96ac:	000096c8 	andeq	r9, r0, r8, asr #13
    96b0:	00009780 	andeq	r9, r0, r0, lsl #15
    96b4:	00009780 	andeq	r9, r0, r0, lsl #15
    96b8:	00009780 	andeq	r9, r0, r0, lsl #15
    96bc:	00009780 	andeq	r9, r0, r0, lsl #15
    96c0:	00009780 	andeq	r9, r0, r0, lsl #15
    96c4:	000096d4 	ldreqd	r9, [r0], -r4
    96c8:	e59f30d8 	ldr	r3, [pc, #216]	; 97a8 <.text+0x57a8>
    96cc:	e5d33014 	ldrb	r3, [r3, #20]
    96d0:	eaffffe7 	b	9674 <uart0_ISR+0x10>
    96d4:	e59f40d0 	ldr	r4, [pc, #208]	; 97ac <.text+0x57ac>
    96d8:	e59f30d0 	ldr	r3, [pc, #208]	; 97b0 <.text+0x57b0>
    96dc:	e1d400b0 	ldrh	r0, [r4]
    96e0:	e59fe0c0 	ldr	lr, [pc, #192]	; 97a8 <.text+0x57a8>
    96e4:	e1d310b0 	ldrh	r1, [r3]
    96e8:	e2803001 	add	r3, r0, #1	; 0x1
    96ec:	e203c07f 	and	ip, r3, #127	; 0x7f
    96f0:	e5de2000 	ldrb	r2, [lr]
    96f4:	e59f30b8 	ldr	r3, [pc, #184]	; 97b4 <.text+0x57b4>
    96f8:	e151000c 	cmp	r1, ip
    96fc:	11c4c0b0 	strneh	ip, [r4]
    9700:	e7c32000 	strb	r2, [r3, r0]
    9704:	e5de3014 	ldrb	r3, [lr, #20]
    9708:	e3130001 	tst	r3, #1	; 0x1
    970c:	1afffff0 	bne	96d4 <.text+0x56d4>
    9710:	eaffffd7 	b	9674 <uart0_ISR+0x10>
    9714:	e59f309c 	ldr	r3, [pc, #156]	; 97b8 <.text+0x57b8>
    9718:	e3a02000 	mov	r2, #0	; 0x0
    971c:	e5c32000 	strb	r2, [r3]
    9720:	eaffffd3 	b	9674 <uart0_ISR+0x10>
    9724:	e59f307c 	ldr	r3, [pc, #124]	; 97a8 <.text+0x57a8>
    9728:	e5d33014 	ldrb	r3, [r3, #20]
    972c:	e3130020 	tst	r3, #32	; 0x20
    9730:	0affffcf 	beq	9674 <uart0_ISR+0x10>
    9734:	e59f0080 	ldr	r0, [pc, #128]	; 97bc <.text+0x57bc>
    9738:	e59f2080 	ldr	r2, [pc, #128]	; 97c0 <.text+0x57c0>
    973c:	e1d030b0 	ldrh	r3, [r0]
    9740:	e1d220b0 	ldrh	r2, [r2]
    9744:	e1520003 	cmp	r2, r3
    9748:	e59fe058 	ldr	lr, [pc, #88]	; 97a8 <.text+0x57a8>
    974c:	e283c001 	add	ip, r3, #1	; 0x1
    9750:	e1a01003 	mov	r1, r3
    9754:	0affffee 	beq	9714 <.text+0x5714>
    9758:	e59f3064 	ldr	r3, [pc, #100]	; 97c4 <.text+0x57c4>
    975c:	e7d33001 	ldrb	r3, [r3, r1]
    9760:	e1c0c0b0 	strh	ip, [r0]
    9764:	e5ce3000 	strb	r3, [lr]
    9768:	e5de2014 	ldrb	r2, [lr, #20]
    976c:	e1d030b0 	ldrh	r3, [r0]
    9770:	e3120020 	tst	r2, #32	; 0x20
    9774:	e203307f 	and	r3, r3, #127	; 0x7f
    9778:	e1c030b0 	strh	r3, [r0]
    977c:	eaffffeb 	b	9730 <.text+0x5730>
    9780:	e59f3020 	ldr	r3, [pc, #32]	; 97a8 <.text+0x57a8>
    9784:	e5d32014 	ldrb	r2, [r3, #20]
    9788:	e5d33000 	ldrb	r3, [r3]
    978c:	eaffffb8 	b	9674 <uart0_ISR+0x10>
    9790:	e59f3030 	ldr	r3, [pc, #48]	; 97c8 <.text+0x57c8>
    9794:	e3a02000 	mov	r2, #0	; 0x0
    9798:	e5832030 	str	r2, [r3, #48]
    979c:	e8bd0002 	ldmia	sp!, {r1}
    97a0:	e161f001 	msr	SPSR_c, r1
    97a4:	e8fd9fff 	ldmia	sp!, {r0, r1, r2, r3, r4, r5, r6, r7, r8, r9, sl, fp, ip, pc}^
    97a8:	e000c000 	and	ip, r0, r0
    97ac:	40000c06 	andmi	r0, r0, r6, lsl #24
    97b0:	40000c8c 	andmi	r0, r0, ip, lsl #25
    97b4:	40000c0b 	andmi	r0, r0, fp, lsl #24
    97b8:	40000c0a 	andmi	r0, r0, sl, lsl #24
    97bc:	40000c08 	andmi	r0, r0, r8, lsl #24
    97c0:	40000c04 	andmi	r0, r0, r4, lsl #24
    97c4:	40000b84 	andmi	r0, r0, r4, lsl #23
    97c8:	fffff000 	swinv	0x00fff000

000097cc <dl_parse_msg>:
    97cc:	e1a0c00d 	mov	ip, sp
    97d0:	e92ddff0 	stmdb	sp!, {r4, r5, r6, r7, r8, r9, sl, fp, ip, lr, pc}
    97d4:	e24cb004 	sub	fp, ip, #4	; 0x4
    97d8:	e24dd014 	sub	sp, sp, #20	; 0x14
    97dc:	e59f53b0 	ldr	r5, [pc, #944]	; 9b94 <.text+0x5b94>
    97e0:	e5d53001 	ldrb	r3, [r5, #1]
    97e4:	e3530001 	cmp	r3, #1	; 0x1
    97e8:	1a000038 	bne	98d0 <dl_parse_msg+0x104>
    97ec:	e5950004 	ldr	r0, [r5, #4]
    97f0:	eb0022f4 	bl	123c8 <__floatsisf>
    97f4:	e59f139c 	ldr	r1, [pc, #924]	; 9b98 <.text+0x5b98>
    97f8:	eb002369 	bl	125a4 <__divsf3>
    97fc:	e1a08000 	mov	r8, r0
    9800:	e5950008 	ldr	r0, [r5, #8]
    9804:	eb0022ef 	bl	123c8 <__floatsisf>
    9808:	e59f1388 	ldr	r1, [pc, #904]	; 9b98 <.text+0x5b98>
    980c:	eb002364 	bl	125a4 <__divsf3>
    9810:	e1a0a000 	mov	sl, r0
    9814:	e595000c 	ldr	r0, [r5, #12]
    9818:	eb0022ea 	bl	123c8 <__floatsisf>
    981c:	e59f1374 	ldr	r1, [pc, #884]	; 9b98 <.text+0x5b98>
    9820:	eb00235f 	bl	125a4 <__divsf3>
    9824:	e1a09000 	mov	r9, r0
    9828:	e1d500f2 	ldrsh	r0, [r5, #2]
    982c:	eb0022e5 	bl	123c8 <__floatsisf>
    9830:	eb00207b 	bl	11a24 <__extendsfdf2>
    9834:	e28f2d0d 	add	r2, pc, #832	; 0x340
    9838:	e892000c 	ldmia	r2, {r2, r3}
    983c:	eb002129 	bl	11ce8 <__divdf3>
    9840:	e28f2fcf 	add	r2, pc, #828	; 0x33c
    9844:	e892000c 	ldmia	r2, {r2, r3}
    9848:	eb002126 	bl	11ce8 <__divdf3>
    984c:	e28f2fce 	add	r2, pc, #824	; 0x338
    9850:	e892000c 	ldmia	r2, {r2, r3}
    9854:	eb002085 	bl	11a70 <__muldf3>
    9858:	eb002229 	bl	12104 <__truncdfsf2>
    985c:	e1d541f4 	ldrsh	r4, [r5, #20]
    9860:	e1a07000 	mov	r7, r0
    9864:	e1a00004 	mov	r0, r4
    9868:	eb0022d6 	bl	123c8 <__floatsisf>
    986c:	e3540000 	cmp	r4, #0	; 0x0
    9870:	e5d54018 	ldrb	r4, [r5, #24]
    9874:	b59f1320 	ldrlt	r1, [pc, #800]	; 9b9c <.text+0x5b9c>
    9878:	bb002260 	bllt	12200 <__addsf3>
    987c:	e59f1314 	ldr	r1, [pc, #788]	; 9b98 <.text+0x5b98>
    9880:	eb002347 	bl	125a4 <__divsf3>
    9884:	e3540017 	cmp	r4, #23	; 0x17
    9888:	e1a06000 	mov	r6, r0
    988c:	8a0001ee 	bhi	a04c <.text+0x604c>
    9890:	e59f1308 	ldr	r1, [pc, #776]	; 9ba0 <.text+0x5ba0>
    9894:	e1a00008 	mov	r0, r8
    9898:	eb002257 	bl	121fc <__subsf3>
    989c:	e59f5300 	ldr	r5, [pc, #768]	; 9ba4 <.text+0x5ba4>
    98a0:	e0844104 	add	r4, r4, r4, lsl #2
    98a4:	e1a04104 	mov	r4, r4, lsl #2
    98a8:	e7840005 	str	r0, [r4, r5]
    98ac:	e59f12f4 	ldr	r1, [pc, #756]	; 9ba8 <.text+0x5ba8>
    98b0:	e1a0000a 	mov	r0, sl
    98b4:	eb002250 	bl	121fc <__subsf3>
    98b8:	e0844005 	add	r4, r4, r5
    98bc:	e5846010 	str	r6, [r4, #16]
    98c0:	e5840004 	str	r0, [r4, #4]
    98c4:	e5847008 	str	r7, [r4, #8]
    98c8:	e584900c 	str	r9, [r4, #12]
    98cc:	ea0001de 	b	a04c <.text+0x604c>
    98d0:	e3530002 	cmp	r3, #2	; 0x2
    98d4:	1a00009a 	bne	9b44 <dl_parse_msg+0x378>
    98d8:	e5d53002 	ldrb	r3, [r5, #2]
    98dc:	e5950004 	ldr	r0, [r5, #4]
    98e0:	e54b3029 	strb	r3, [fp, #-41]
    98e4:	eb0022b7 	bl	123c8 <__floatsisf>
    98e8:	e59f12a8 	ldr	r1, [pc, #680]	; 9b98 <.text+0x5b98>
    98ec:	eb00232c 	bl	125a4 <__divsf3>
    98f0:	e1a06000 	mov	r6, r0
    98f4:	e5950008 	ldr	r0, [r5, #8]
    98f8:	e50b6030 	str	r6, [fp, #-48]
    98fc:	eb0022b1 	bl	123c8 <__floatsisf>
    9900:	e59f1290 	ldr	r1, [pc, #656]	; 9b98 <.text+0x5b98>
    9904:	eb002326 	bl	125a4 <__divsf3>
    9908:	e1a08000 	mov	r8, r0
    990c:	e595000c 	ldr	r0, [r5, #12]
    9910:	e50b8034 	str	r8, [fp, #-52]
    9914:	eb0022ab 	bl	123c8 <__floatsisf>
    9918:	e59f1278 	ldr	r1, [pc, #632]	; 9b98 <.text+0x5b98>
    991c:	eb002320 	bl	125a4 <__divsf3>
    9920:	e59f3284 	ldr	r3, [pc, #644]	; 9bac <.text+0x5bac>
    9924:	e55b2029 	ldrb	r2, [fp, #-41]
    9928:	e5d33000 	ldrb	r3, [r3]
    992c:	e1520003 	cmp	r2, r3
    9930:	e1a07000 	mov	r7, r0
    9934:	e50b0038 	str	r0, [fp, #-56]
    9938:	2a000012 	bcs	9988 <dl_parse_msg+0x1bc>
    993c:	e59f326c 	ldr	r3, [pc, #620]	; 9bb0 <.text+0x5bb0>
    9940:	e5930000 	ldr	r0, [r3]
    9944:	e0824082 	add	r4, r2, r2, lsl #1
    9948:	eb00229e 	bl	123c8 <__floatsisf>
    994c:	e1a01000 	mov	r1, r0
    9950:	e1a00006 	mov	r0, r6
    9954:	eb002228 	bl	121fc <__subsf3>
    9958:	e59f5254 	ldr	r5, [pc, #596]	; 9bb4 <.text+0x5bb4>
    995c:	e59f3254 	ldr	r3, [pc, #596]	; 9bb8 <.text+0x5bb8>
    9960:	e1a04104 	mov	r4, r4, lsl #2
    9964:	e7840005 	str	r0, [r4, r5]
    9968:	e5930000 	ldr	r0, [r3]
    996c:	eb002295 	bl	123c8 <__floatsisf>
    9970:	e1a01000 	mov	r1, r0
    9974:	e1a00008 	mov	r0, r8
    9978:	eb00221f 	bl	121fc <__subsf3>
    997c:	e0844005 	add	r4, r4, r5
    9980:	e5847008 	str	r7, [r4, #8]
    9984:	e5840004 	str	r0, [r4, #4]
    9988:	e3a00012 	mov	r0, #18	; 0x12
    998c:	ebfffef7 	bl	9570 <uart0_check_free_space>
    9990:	e31000ff 	tst	r0, #255	; 0xff
    9994:	0a0001a8 	beq	a03c <.text+0x603c>
    9998:	e3a06000 	mov	r6, #0	; 0x0
    999c:	e3a0007e 	mov	r0, #126	; 0x7e
    99a0:	e59f42b0 	ldr	r4, [pc, #688]	; 9c58 <.text+0x5c58>
    99a4:	ebffff05 	bl	95c0 <uart0_transmit>
    99a8:	e1a00006 	mov	r0, r6
    99ac:	ebffff03 	bl	95c0 <uart0_transmit>
    99b0:	e3a05001 	mov	r5, #1	; 0x1
    99b4:	e3a00014 	mov	r0, #20	; 0x14
    99b8:	ebffff00 	bl	95c0 <uart0_transmit>
    99bc:	e1a00005 	mov	r0, r5
    99c0:	e5c45000 	strb	r5, [r4]
    99c4:	ebfffefd 	bl	95c0 <uart0_transmit>
    99c8:	e1a00006 	mov	r0, r6
    99cc:	ebfffefb 	bl	95c0 <uart0_transmit>
    99d0:	e5d43000 	ldrb	r3, [r4]
    99d4:	e0833005 	add	r3, r3, r5
    99d8:	e5c43000 	strb	r3, [r4]
    99dc:	e1a00005 	mov	r0, r5
    99e0:	ebfffef6 	bl	95c0 <uart0_transmit>
    99e4:	e1a00006 	mov	r0, r6
    99e8:	ebfffef4 	bl	95c0 <uart0_transmit>
    99ec:	e1a00006 	mov	r0, r6
    99f0:	ebfffef2 	bl	95c0 <uart0_transmit>
    99f4:	e5d43000 	ldrb	r3, [r4]
    99f8:	e283300a 	add	r3, r3, #10	; 0xa
    99fc:	e3a0000a 	mov	r0, #10	; 0xa
    9a00:	e5c43000 	strb	r3, [r4]
    9a04:	ebfffeed 	bl	95c0 <uart0_transmit>
    9a08:	e5d43000 	ldrb	r3, [r4]
    9a0c:	e2833023 	add	r3, r3, #35	; 0x23
    9a10:	e3a00023 	mov	r0, #35	; 0x23
    9a14:	e5c43000 	strb	r3, [r4]
    9a18:	ebfffee8 	bl	95c0 <uart0_transmit>
    9a1c:	e55b3029 	ldrb	r3, [fp, #-41]
    9a20:	e5d42000 	ldrb	r2, [r4]
    9a24:	e1a00003 	mov	r0, r3
    9a28:	e0833002 	add	r3, r3, r2
    9a2c:	e5c43000 	strb	r3, [r4]
    9a30:	ebfffee2 	bl	95c0 <uart0_transmit>
    9a34:	e55b3030 	ldrb	r3, [fp, #-48]
    9a38:	e5d42000 	ldrb	r2, [r4]
    9a3c:	e1a00003 	mov	r0, r3
    9a40:	e0833002 	add	r3, r3, r2
    9a44:	e5c43000 	strb	r3, [r4]
    9a48:	ebfffedc 	bl	95c0 <uart0_transmit>
    9a4c:	e55b302f 	ldrb	r3, [fp, #-47]
    9a50:	e5d42000 	ldrb	r2, [r4]
    9a54:	e1a00003 	mov	r0, r3
    9a58:	e0833002 	add	r3, r3, r2
    9a5c:	e5c43000 	strb	r3, [r4]
    9a60:	ebfffed6 	bl	95c0 <uart0_transmit>
    9a64:	e55b302e 	ldrb	r3, [fp, #-46]
    9a68:	e5d42000 	ldrb	r2, [r4]
    9a6c:	e1a00003 	mov	r0, r3
    9a70:	e0833002 	add	r3, r3, r2
    9a74:	e5c43000 	strb	r3, [r4]
    9a78:	ebfffed0 	bl	95c0 <uart0_transmit>
    9a7c:	e55b302d 	ldrb	r3, [fp, #-45]
    9a80:	e5d42000 	ldrb	r2, [r4]
    9a84:	e1a00003 	mov	r0, r3
    9a88:	e0833002 	add	r3, r3, r2
    9a8c:	e5c43000 	strb	r3, [r4]
    9a90:	ebfffeca 	bl	95c0 <uart0_transmit>
    9a94:	e55b3034 	ldrb	r3, [fp, #-52]
    9a98:	e5d42000 	ldrb	r2, [r4]
    9a9c:	e1a00003 	mov	r0, r3
    9aa0:	e0833002 	add	r3, r3, r2
    9aa4:	e5c43000 	strb	r3, [r4]
    9aa8:	ebfffec4 	bl	95c0 <uart0_transmit>
    9aac:	e55b3033 	ldrb	r3, [fp, #-51]
    9ab0:	e5d42000 	ldrb	r2, [r4]
    9ab4:	e1a00003 	mov	r0, r3
    9ab8:	e0833002 	add	r3, r3, r2
    9abc:	e5c43000 	strb	r3, [r4]
    9ac0:	ebfffebe 	bl	95c0 <uart0_transmit>
    9ac4:	e55b3032 	ldrb	r3, [fp, #-50]
    9ac8:	e5d42000 	ldrb	r2, [r4]
    9acc:	e1a00003 	mov	r0, r3
    9ad0:	e0833002 	add	r3, r3, r2
    9ad4:	e5c43000 	strb	r3, [r4]
    9ad8:	ebfffeb8 	bl	95c0 <uart0_transmit>
    9adc:	e55b3031 	ldrb	r3, [fp, #-49]
    9ae0:	e5d42000 	ldrb	r2, [r4]
    9ae4:	e1a00003 	mov	r0, r3
    9ae8:	e0833002 	add	r3, r3, r2
    9aec:	e5c43000 	strb	r3, [r4]
    9af0:	ebfffeb2 	bl	95c0 <uart0_transmit>
    9af4:	e55b3038 	ldrb	r3, [fp, #-56]
    9af8:	e5d42000 	ldrb	r2, [r4]
    9afc:	e1a00003 	mov	r0, r3
    9b00:	e0833002 	add	r3, r3, r2
    9b04:	e5c43000 	strb	r3, [r4]
    9b08:	ebfffeac 	bl	95c0 <uart0_transmit>
    9b0c:	e55b3037 	ldrb	r3, [fp, #-55]
    9b10:	e5d42000 	ldrb	r2, [r4]
    9b14:	e1a00003 	mov	r0, r3
    9b18:	e0833002 	add	r3, r3, r2
    9b1c:	e5c43000 	strb	r3, [r4]
    9b20:	ebfffea6 	bl	95c0 <uart0_transmit>
    9b24:	e55b3036 	ldrb	r3, [fp, #-54]
    9b28:	e5d42000 	ldrb	r2, [r4]
    9b2c:	e1a00003 	mov	r0, r3
    9b30:	e0833002 	add	r3, r3, r2
    9b34:	e5c43000 	strb	r3, [r4]
    9b38:	ebfffea0 	bl	95c0 <uart0_transmit>
    9b3c:	e55b3035 	ldrb	r3, [fp, #-53]
    9b40:	ea000132 	b	a010 <.text+0x6010>
    9b44:	e3530005 	cmp	r3, #5	; 0x5
    9b48:	1a000002 	bne	9b58 <dl_parse_msg+0x38c>
    9b4c:	e5d50002 	ldrb	r0, [r5, #2]
    9b50:	eb00040c 	bl	ab88 <nav_goto_block>
    9b54:	ea00013c 	b	a04c <.text+0x604c>
    9b58:	e3530003 	cmp	r3, #3	; 0x3
    9b5c:	1a00003f 	bne	9c60 <.text+0x5c60>
    9b60:	e5952004 	ldr	r2, [r5, #4]
    9b64:	e59f305c 	ldr	r3, [pc, #92]	; 9bc8 <.text+0x5bc8>
    9b68:	e5951008 	ldr	r1, [r5, #8]
    9b6c:	e5832000 	str	r2, [r3]
    9b70:	e59f3054 	ldr	r3, [pc, #84]	; 9bcc <.text+0x5bcc>
    9b74:	e5831000 	str	r1, [r3]
    9b78:	ea000133 	b	a04c <.text+0x604c>
    9b7c:	40240000 	eormi	r0, r4, r0
    9b80:	00000000 	andeq	r0, r0, r0
    9b84:	40668000 	rsbmi	r8, r6, r0
    9b88:	00000000 	andeq	r0, r0, r0
    9b8c:	400921fb 	strmid	r2, [r9], -fp
    9b90:	54442d18 	strplb	r2, [r4], #-3352
    9b94:	40000c94 	mulmi	r0, r4, ip
    9b98:	42c80000 	sbcmi	r0, r8, #0	; 0x0
    9b9c:	47800000 	strmi	r0, [r0, r0]
    9ba0:	48f73fc0 	ldmmiia	r7!, {r6, r7, r8, r9, sl, fp, ip, sp}^
    9ba4:	400008f0 	strmid	r0, [r0], -r0
    9ba8:	4a59aad8 	bmi	1674710 <_etext+0x1661ae4>
    9bac:	00012962 	andeq	r2, r1, r2, ror #18
    9bb0:	40000070 	andmi	r0, r0, r0, ror r0
    9bb4:	40000034 	andmi	r0, r0, r4, lsr r0
    9bb8:	4000006c 	andmi	r0, r0, ip, rrx
    9bbc:	40000530 	andmi	r0, r0, r0, lsr r5
    9bc0:	40000ec8 	andmi	r0, r0, r8, asr #29
    9bc4:	40000002 	andmi	r0, r0, r2
    9bc8:	40000e34 	andmi	r0, r0, r4, lsr lr
    9bcc:	40000e58 	andmi	r0, r0, r8, asr lr
    9bd0:	40000003 	andmi	r0, r0, r3
    9bd4:	40000e20 	andmi	r0, r0, r0, lsr #28
    9bd8:	400004f1 	strmid	r0, [r0], -r1
    9bdc:	400004f2 	strmid	r0, [r0], -r2
    9be0:	40000ad0 	ldrmid	r0, [r0], -r0
    9be4:	40000b04 	andmi	r0, r0, r4, lsl #22
    9be8:	40000af0 	strmid	r0, [r0], -r0
    9bec:	40000aec 	andmi	r0, r0, ip, ror #21
    9bf0:	40000b00 	andmi	r0, r0, r0, lsl #22
    9bf4:	400008e8 	andmi	r0, r0, r8, ror #17
    9bf8:	40000ae4 	andmi	r0, r0, r4, ror #21
    9bfc:	40000b10 	andmi	r0, r0, r0, lsl fp
    9c00:	40000afc 	strmid	r0, [r0], -ip
    9c04:	400008e0 	andmi	r0, r0, r0, ror #17
    9c08:	40000ae0 	andmi	r0, r0, r0, ror #21
    9c0c:	40000af8 	strmid	r0, [r0], -r8
    9c10:	40000f1c 	andmi	r0, r0, ip, lsl pc
    9c14:	40000eec 	andmi	r0, r0, ip, ror #29
    9c18:	40000f08 	andmi	r0, r0, r8, lsl #30
    9c1c:	40000f10 	andmi	r0, r0, r0, lsl pc
    9c20:	40000f24 	andmi	r0, r0, r4, lsr #30
    9c24:	40000ef4 	strmid	r0, [r0], -r4
    9c28:	40000ef0 	strmid	r0, [r0], -r0
    9c2c:	40000f14 	andmi	r0, r0, r4, lsl pc
    9c30:	40000f4c 	andmi	r0, r0, ip, asr #30
    9c34:	40000f48 	andmi	r0, r0, r8, asr #30
    9c38:	40000f70 	andmi	r0, r0, r0, ror pc
    9c3c:	40000f58 	andmi	r0, r0, r8, asr pc
    9c40:	40000f54 	andmi	r0, r0, r4, asr pc
    9c44:	40000f50 	andmi	r0, r0, r0, asr pc
    9c48:	40000f64 	andmi	r0, r0, r4, ror #30
    9c4c:	40000f04 	andmi	r0, r0, r4, lsl #30
    9c50:	40000ee0 	andmi	r0, r0, r0, ror #29
    9c54:	40000e68 	andmi	r0, r0, r8, ror #28
    9c58:	40000e19 	andmi	r0, r0, r9, lsl lr
    9c5c:	40000b83 	andmi	r0, r0, r3, lsl #23
    9c60:	e3530008 	cmp	r3, #8	; 0x8
    9c64:	05d52002 	ldreqb	r2, [r5, #2]
    9c68:	051f30b4 	ldreq	r3, [pc, #-180]	; 9bbc <.text+0x5bbc>
    9c6c:	05c32000 	streqb	r2, [r3]
    9c70:	0a0000f5 	beq	a04c <.text+0x604c>
    9c74:	e3530004 	cmp	r3, #4	; 0x4
    9c78:	1a0000f3 	bne	a04c <.text+0x604c>
    9c7c:	e5d53002 	ldrb	r3, [r5, #2]
    9c80:	e54b302a 	strb	r3, [fp, #-42]
    9c84:	e5952004 	ldr	r2, [r5, #4]
    9c88:	e55b302a 	ldrb	r3, [fp, #-42]
    9c8c:	e50b203c 	str	r2, [fp, #-60]
    9c90:	e3530025 	cmp	r3, #37	; 0x25
    9c94:	979ff103 	ldrls	pc, [pc, r3, lsl #2]
    9c98:	ea00009e 	b	9f18 <.text+0x5f18>
    9c9c:	00009d34 	andeq	r9, r0, r4, lsr sp
    9ca0:	00009d40 	andeq	r9, r0, r0, asr #26
    9ca4:	00009d50 	andeq	r9, r0, r0, asr sp
    9ca8:	00009d5c 	andeq	r9, r0, ip, asr sp
    9cac:	00009d68 	andeq	r9, r0, r8, ror #26
    9cb0:	00009d78 	andeq	r9, r0, r8, ror sp
    9cb4:	00009d8c 	andeq	r9, r0, ip, lsl #27
    9cb8:	00009d9c 	muleq	r0, ip, sp
    9cbc:	00009db0 	streqh	r9, [r0], -r0
    9cc0:	00009dbc 	streqh	r9, [r0], -ip
    9cc4:	00009dc8 	andeq	r9, r0, r8, asr #27
    9cc8:	00009dd4 	ldreqd	r9, [r0], -r4
    9ccc:	00009de0 	andeq	r9, r0, r0, ror #27
    9cd0:	00009dec 	andeq	r9, r0, ip, ror #27
    9cd4:	00009df8 	streqd	r9, [r0], -r8
    9cd8:	00009e04 	andeq	r9, r0, r4, lsl #28
    9cdc:	00009e10 	andeq	r9, r0, r0, lsl lr
    9ce0:	00009e1c 	andeq	r9, r0, ip, lsl lr
    9ce4:	00009e28 	andeq	r9, r0, r8, lsr #28
    9ce8:	00009e34 	andeq	r9, r0, r4, lsr lr
    9cec:	00009e40 	andeq	r9, r0, r0, asr #28
    9cf0:	00009e4c 	andeq	r9, r0, ip, asr #28
    9cf4:	00009e58 	andeq	r9, r0, r8, asr lr
    9cf8:	00009e64 	andeq	r9, r0, r4, ror #28
    9cfc:	00009e70 	andeq	r9, r0, r0, ror lr
    9d00:	00009e7c 	andeq	r9, r0, ip, ror lr
    9d04:	00009e88 	andeq	r9, r0, r8, lsl #29
    9d08:	00009e94 	muleq	r0, r4, lr
    9d0c:	00009ea0 	andeq	r9, r0, r0, lsr #29
    9d10:	00009eac 	andeq	r9, r0, ip, lsr #29
    9d14:	00009eb8 	streqh	r9, [r0], -r8
    9d18:	00009ec4 	andeq	r9, r0, r4, asr #29
    9d1c:	00009ed0 	ldreqd	r9, [r0], -r0
    9d20:	00009edc 	ldreqd	r9, [r0], -ip
    9d24:	00009ee8 	andeq	r9, r0, r8, ror #29
    9d28:	00009ef4 	streqd	r9, [r0], -r4
    9d2c:	00009f00 	andeq	r9, r0, r0, lsl #30
    9d30:	00009f0c 	andeq	r9, r0, ip, lsl #30
    9d34:	e51b203c 	ldr	r2, [fp, #-60]
    9d38:	e51f3180 	ldr	r3, [pc, #-384]	; 9bc0 <.text+0x5bc0>
    9d3c:	ea000074 	b	9f14 <.text+0x5f14>
    9d40:	e51b003c 	ldr	r0, [fp, #-60]
    9d44:	eb0022bf 	bl	12848 <__fixunssfsi>
    9d48:	e51f318c 	ldr	r3, [pc, #-396]	; 9bc4 <.text+0x5bc4>
    9d4c:	ea000015 	b	9da8 <.text+0x5da8>
    9d50:	e51b203c 	ldr	r2, [fp, #-60]
    9d54:	e51f3194 	ldr	r3, [pc, #-404]	; 9bc8 <.text+0x5bc8>
    9d58:	ea00006d 	b	9f14 <.text+0x5f14>
    9d5c:	e51b203c 	ldr	r2, [fp, #-60]
    9d60:	e51f319c 	ldr	r3, [pc, #-412]	; 9bcc <.text+0x5bcc>
    9d64:	ea00006a 	b	9f14 <.text+0x5f14>
    9d68:	e51b003c 	ldr	r0, [fp, #-60]
    9d6c:	eb0022b5 	bl	12848 <__fixunssfsi>
    9d70:	e51f31a8 	ldr	r3, [pc, #-424]	; 9bd0 <.text+0x5bd0>
    9d74:	ea00000b 	b	9da8 <.text+0x5da8>
    9d78:	e51b003c 	ldr	r0, [fp, #-60]
    9d7c:	eb0022b1 	bl	12848 <__fixunssfsi>
    9d80:	e51f31b4 	ldr	r3, [pc, #-436]	; 9bd4 <.text+0x5bd4>
    9d84:	e1c300b0 	strh	r0, [r3]
    9d88:	ea000062 	b	9f18 <.text+0x5f18>
    9d8c:	e51b003c 	ldr	r0, [fp, #-60]
    9d90:	eb0022ac 	bl	12848 <__fixunssfsi>
    9d94:	e51f31c4 	ldr	r3, [pc, #-452]	; 9bd8 <.text+0x5bd8>
    9d98:	ea000002 	b	9da8 <.text+0x5da8>
    9d9c:	e51b003c 	ldr	r0, [fp, #-60]
    9da0:	eb0022a8 	bl	12848 <__fixunssfsi>
    9da4:	e51f31d0 	ldr	r3, [pc, #-464]	; 9bdc <.text+0x5bdc>
    9da8:	e5c30000 	strb	r0, [r3]
    9dac:	ea000059 	b	9f18 <.text+0x5f18>
    9db0:	e51b203c 	ldr	r2, [fp, #-60]
    9db4:	e51f31dc 	ldr	r3, [pc, #-476]	; 9be0 <.text+0x5be0>
    9db8:	ea000055 	b	9f14 <.text+0x5f14>
    9dbc:	e51b203c 	ldr	r2, [fp, #-60]
    9dc0:	e51f31e4 	ldr	r3, [pc, #-484]	; 9be4 <.text+0x5be4>
    9dc4:	ea000052 	b	9f14 <.text+0x5f14>
    9dc8:	e51b203c 	ldr	r2, [fp, #-60]
    9dcc:	e51f31ec 	ldr	r3, [pc, #-492]	; 9be8 <.text+0x5be8>
    9dd0:	ea00004f 	b	9f14 <.text+0x5f14>
    9dd4:	e51b203c 	ldr	r2, [fp, #-60]
    9dd8:	e51f31f4 	ldr	r3, [pc, #-500]	; 9bec <.text+0x5bec>
    9ddc:	ea00004c 	b	9f14 <.text+0x5f14>
    9de0:	e51b203c 	ldr	r2, [fp, #-60]
    9de4:	e51f31fc 	ldr	r3, [pc, #-508]	; 9bf0 <.text+0x5bf0>
    9de8:	ea000049 	b	9f14 <.text+0x5f14>
    9dec:	e51b203c 	ldr	r2, [fp, #-60]
    9df0:	e51f3204 	ldr	r3, [pc, #-516]	; 9bf4 <.text+0x5bf4>
    9df4:	ea000046 	b	9f14 <.text+0x5f14>
    9df8:	e51b203c 	ldr	r2, [fp, #-60]
    9dfc:	e51f320c 	ldr	r3, [pc, #-524]	; 9bf8 <.text+0x5bf8>
    9e00:	ea000043 	b	9f14 <.text+0x5f14>
    9e04:	e51b203c 	ldr	r2, [fp, #-60]
    9e08:	e51f3214 	ldr	r3, [pc, #-532]	; 9bfc <.text+0x5bfc>
    9e0c:	ea000040 	b	9f14 <.text+0x5f14>
    9e10:	e51b203c 	ldr	r2, [fp, #-60]
    9e14:	e51f321c 	ldr	r3, [pc, #-540]	; 9c00 <.text+0x5c00>
    9e18:	ea00003d 	b	9f14 <.text+0x5f14>
    9e1c:	e51b203c 	ldr	r2, [fp, #-60]
    9e20:	e51f3224 	ldr	r3, [pc, #-548]	; 9c04 <.text+0x5c04>
    9e24:	ea00003a 	b	9f14 <.text+0x5f14>
    9e28:	e51b203c 	ldr	r2, [fp, #-60]
    9e2c:	e51f322c 	ldr	r3, [pc, #-556]	; 9c08 <.text+0x5c08>
    9e30:	ea000037 	b	9f14 <.text+0x5f14>
    9e34:	e51b203c 	ldr	r2, [fp, #-60]
    9e38:	e51f3234 	ldr	r3, [pc, #-564]	; 9c0c <.text+0x5c0c>
    9e3c:	ea000034 	b	9f14 <.text+0x5f14>
    9e40:	e51b203c 	ldr	r2, [fp, #-60]
    9e44:	e51f323c 	ldr	r3, [pc, #-572]	; 9c10 <.text+0x5c10>
    9e48:	ea000031 	b	9f14 <.text+0x5f14>
    9e4c:	e51b203c 	ldr	r2, [fp, #-60]
    9e50:	e51f3244 	ldr	r3, [pc, #-580]	; 9c14 <.text+0x5c14>
    9e54:	ea00002e 	b	9f14 <.text+0x5f14>
    9e58:	e51b203c 	ldr	r2, [fp, #-60]
    9e5c:	e51f324c 	ldr	r3, [pc, #-588]	; 9c18 <.text+0x5c18>
    9e60:	ea00002b 	b	9f14 <.text+0x5f14>
    9e64:	e51b203c 	ldr	r2, [fp, #-60]
    9e68:	e51f3254 	ldr	r3, [pc, #-596]	; 9c1c <.text+0x5c1c>
    9e6c:	ea000028 	b	9f14 <.text+0x5f14>
    9e70:	e51b203c 	ldr	r2, [fp, #-60]
    9e74:	e51f325c 	ldr	r3, [pc, #-604]	; 9c20 <.text+0x5c20>
    9e78:	ea000025 	b	9f14 <.text+0x5f14>
    9e7c:	e51b203c 	ldr	r2, [fp, #-60]
    9e80:	e51f3264 	ldr	r3, [pc, #-612]	; 9c24 <.text+0x5c24>
    9e84:	ea000022 	b	9f14 <.text+0x5f14>
    9e88:	e51b203c 	ldr	r2, [fp, #-60]
    9e8c:	e51f326c 	ldr	r3, [pc, #-620]	; 9c28 <.text+0x5c28>
    9e90:	ea00001f 	b	9f14 <.text+0x5f14>
    9e94:	e51b203c 	ldr	r2, [fp, #-60]
    9e98:	e51f3274 	ldr	r3, [pc, #-628]	; 9c2c <.text+0x5c2c>
    9e9c:	ea00001c 	b	9f14 <.text+0x5f14>
    9ea0:	e51b203c 	ldr	r2, [fp, #-60]
    9ea4:	e51f327c 	ldr	r3, [pc, #-636]	; 9c30 <.text+0x5c30>
    9ea8:	ea000019 	b	9f14 <.text+0x5f14>
    9eac:	e51b203c 	ldr	r2, [fp, #-60]
    9eb0:	e51f3284 	ldr	r3, [pc, #-644]	; 9c34 <.text+0x5c34>
    9eb4:	ea000016 	b	9f14 <.text+0x5f14>
    9eb8:	e51b203c 	ldr	r2, [fp, #-60]
    9ebc:	e51f328c 	ldr	r3, [pc, #-652]	; 9c38 <.text+0x5c38>
    9ec0:	ea000013 	b	9f14 <.text+0x5f14>
    9ec4:	e51b203c 	ldr	r2, [fp, #-60]
    9ec8:	e51f3294 	ldr	r3, [pc, #-660]	; 9c3c <.text+0x5c3c>
    9ecc:	ea000010 	b	9f14 <.text+0x5f14>
    9ed0:	e51b203c 	ldr	r2, [fp, #-60]
    9ed4:	e51f329c 	ldr	r3, [pc, #-668]	; 9c40 <.text+0x5c40>
    9ed8:	ea00000d 	b	9f14 <.text+0x5f14>
    9edc:	e51b203c 	ldr	r2, [fp, #-60]
    9ee0:	e51f32a4 	ldr	r3, [pc, #-676]	; 9c44 <.text+0x5c44>
    9ee4:	ea00000a 	b	9f14 <.text+0x5f14>
    9ee8:	e51b203c 	ldr	r2, [fp, #-60]
    9eec:	e51f32ac 	ldr	r3, [pc, #-684]	; 9c48 <.text+0x5c48>
    9ef0:	ea000007 	b	9f14 <.text+0x5f14>
    9ef4:	e51b203c 	ldr	r2, [fp, #-60]
    9ef8:	e51f32b4 	ldr	r3, [pc, #-692]	; 9c4c <.text+0x5c4c>
    9efc:	ea000004 	b	9f14 <.text+0x5f14>
    9f00:	e51b203c 	ldr	r2, [fp, #-60]
    9f04:	e51f32bc 	ldr	r3, [pc, #-700]	; 9c50 <.text+0x5c50>
    9f08:	ea000001 	b	9f14 <.text+0x5f14>
    9f0c:	e51b203c 	ldr	r2, [fp, #-60]
    9f10:	e51f32c4 	ldr	r3, [pc, #-708]	; 9c54 <.text+0x5c54>
    9f14:	e5832000 	str	r2, [r3]
    9f18:	e3a0000a 	mov	r0, #10	; 0xa
    9f1c:	ebfffd93 	bl	9570 <uart0_check_free_space>
    9f20:	e31000ff 	tst	r0, #255	; 0xff
    9f24:	0a000044 	beq	a03c <.text+0x603c>
    9f28:	e3a06000 	mov	r6, #0	; 0x0
    9f2c:	e3a0007e 	mov	r0, #126	; 0x7e
    9f30:	e51f42e0 	ldr	r4, [pc, #-736]	; 9c58 <.text+0x5c58>
    9f34:	ebfffda1 	bl	95c0 <uart0_transmit>
    9f38:	e1a00006 	mov	r0, r6
    9f3c:	ebfffd9f 	bl	95c0 <uart0_transmit>
    9f40:	e3a05001 	mov	r5, #1	; 0x1
    9f44:	e3a0000c 	mov	r0, #12	; 0xc
    9f48:	ebfffd9c 	bl	95c0 <uart0_transmit>
    9f4c:	e1a00005 	mov	r0, r5
    9f50:	e5c45000 	strb	r5, [r4]
    9f54:	ebfffd99 	bl	95c0 <uart0_transmit>
    9f58:	e1a00006 	mov	r0, r6
    9f5c:	ebfffd97 	bl	95c0 <uart0_transmit>
    9f60:	e5d43000 	ldrb	r3, [r4]
    9f64:	e0833005 	add	r3, r3, r5
    9f68:	e5c43000 	strb	r3, [r4]
    9f6c:	e1a00005 	mov	r0, r5
    9f70:	ebfffd92 	bl	95c0 <uart0_transmit>
    9f74:	e1a00006 	mov	r0, r6
    9f78:	ebfffd90 	bl	95c0 <uart0_transmit>
    9f7c:	e1a00006 	mov	r0, r6
    9f80:	ebfffd8e 	bl	95c0 <uart0_transmit>
    9f84:	e5d43000 	ldrb	r3, [r4]
    9f88:	e283300a 	add	r3, r3, #10	; 0xa
    9f8c:	e3a0000a 	mov	r0, #10	; 0xa
    9f90:	e5c43000 	strb	r3, [r4]
    9f94:	ebfffd89 	bl	95c0 <uart0_transmit>
    9f98:	e5d43000 	ldrb	r3, [r4]
    9f9c:	e283301f 	add	r3, r3, #31	; 0x1f
    9fa0:	e3a0001f 	mov	r0, #31	; 0x1f
    9fa4:	e5c43000 	strb	r3, [r4]
    9fa8:	ebfffd84 	bl	95c0 <uart0_transmit>
    9fac:	e55b302a 	ldrb	r3, [fp, #-42]
    9fb0:	e5d42000 	ldrb	r2, [r4]
    9fb4:	e1a00003 	mov	r0, r3
    9fb8:	e0833002 	add	r3, r3, r2
    9fbc:	e5c43000 	strb	r3, [r4]
    9fc0:	ebfffd7e 	bl	95c0 <uart0_transmit>
    9fc4:	e55b303c 	ldrb	r3, [fp, #-60]
    9fc8:	e5d42000 	ldrb	r2, [r4]
    9fcc:	e1a00003 	mov	r0, r3
    9fd0:	e0833002 	add	r3, r3, r2
    9fd4:	e5c43000 	strb	r3, [r4]
    9fd8:	ebfffd78 	bl	95c0 <uart0_transmit>
    9fdc:	e55b303b 	ldrb	r3, [fp, #-59]
    9fe0:	e5d42000 	ldrb	r2, [r4]
    9fe4:	e1a00003 	mov	r0, r3
    9fe8:	e0833002 	add	r3, r3, r2
    9fec:	e5c43000 	strb	r3, [r4]
    9ff0:	ebfffd72 	bl	95c0 <uart0_transmit>
    9ff4:	e55b303a 	ldrb	r3, [fp, #-58]
    9ff8:	e5d42000 	ldrb	r2, [r4]
    9ffc:	e1a00003 	mov	r0, r3
    a000:	e0833002 	add	r3, r3, r2
    a004:	e5c43000 	strb	r3, [r4]
    a008:	ebfffd6c 	bl	95c0 <uart0_transmit>
    a00c:	e55b3039 	ldrb	r3, [fp, #-57]
    a010:	e5d42000 	ldrb	r2, [r4]
    a014:	e1a00003 	mov	r0, r3
    a018:	e0833002 	add	r3, r3, r2
    a01c:	e5c43000 	strb	r3, [r4]
    a020:	ebfffd66 	bl	95c0 <uart0_transmit>
    a024:	e5d43000 	ldrb	r3, [r4]
    a028:	e1e03003 	mvn	r3, r3
    a02c:	e5c43000 	strb	r3, [r4]
    a030:	e5d40000 	ldrb	r0, [r4]
    a034:	ebfffd61 	bl	95c0 <uart0_transmit>
    a038:	ea000003 	b	a04c <.text+0x604c>
    a03c:	e51f23e8 	ldr	r2, [pc, #-1000]	; 9c5c <.text+0x5c5c>
    a040:	e5d23000 	ldrb	r3, [r2]
    a044:	e2833001 	add	r3, r3, #1	; 0x1
    a048:	e5c23000 	strb	r3, [r2]
    a04c:	e24bd028 	sub	sp, fp, #40	; 0x28
    a050:	e89d6ff0 	ldmia	sp, {r4, r5, r6, r7, r8, r9, sl, fp, sp, lr}
    a054:	e12fff1e 	bx	lr

0000a058 <xbee_init>:
    a058:	e1a0c00d 	mov	ip, sp
    a05c:	e92dd8f0 	stmdb	sp!, {r4, r5, r6, r7, fp, ip, lr, pc}
    a060:	e59f2228 	ldr	r2, [pc, #552]	; a290 <.text+0x6290>
    a064:	e24cb004 	sub	fp, ip, #4	; 0x4
    a068:	e24dd010 	sub	sp, sp, #16	; 0x10
    a06c:	e5d23000 	ldrb	r3, [r2]
    a070:	e3a04000 	mov	r4, #0	; 0x0
    a074:	e3530000 	cmp	r3, #0	; 0x0
    a078:	0a000007 	beq	a09c <xbee_init+0x44>
    a07c:	e7d20004 	ldrb	r0, [r2, r4]
    a080:	ebfffd4e 	bl	95c0 <uart0_transmit>
    a084:	e2843001 	add	r3, r4, #1	; 0x1
    a088:	e59f2200 	ldr	r2, [pc, #512]	; a290 <.text+0x6290>
    a08c:	e20340ff 	and	r4, r3, #255	; 0xff
    a090:	e7d23004 	ldrb	r3, [r2, r4]
    a094:	e3530000 	cmp	r3, #0	; 0x0
    a098:	eafffff6 	b	a078 <xbee_init+0x20>
    a09c:	e3a05078 	mov	r5, #120	; 0x78
    a0a0:	e59f31ec 	ldr	r3, [pc, #492]	; a294 <.text+0x6294>
    a0a4:	e59f71ec 	ldr	r7, [pc, #492]	; a298 <.text+0x6298>
    a0a8:	e5932008 	ldr	r2, [r3, #8]
    a0ac:	e5971000 	ldr	r1, [r7]
    a0b0:	e59f31e4 	ldr	r3, [pc, #484]	; a29c <.text+0x629c>
    a0b4:	e59fc1e4 	ldr	ip, [pc, #484]	; a2a0 <.text+0x62a0>
    a0b8:	e0612002 	rsb	r2, r1, r2
    a0bc:	e1520003 	cmp	r2, r3
    a0c0:	e59f41dc 	ldr	r4, [pc, #476]	; a2a4 <.text+0x62a4>
    a0c4:	e081000c 	add	r0, r1, ip
    a0c8:	93a03000 	movls	r3, #0	; 0x0
    a0cc:	9a000015 	bls	a128 <xbee_init+0xd0>
    a0d0:	e5942000 	ldr	r2, [r4]
    a0d4:	e59f31cc 	ldr	r3, [pc, #460]	; a2a8 <.text+0x62a8>
    a0d8:	e082c00c 	add	ip, r2, ip
    a0dc:	e59f11c8 	ldr	r1, [pc, #456]	; a2ac <.text+0x62ac>
    a0e0:	e15c0003 	cmp	ip, r3
    a0e4:	e59fe1c4 	ldr	lr, [pc, #452]	; a2b0 <.text+0x62b0>
    a0e8:	e59f61c4 	ldr	r6, [pc, #452]	; a2b4 <.text+0x62b4>
    a0ec:	e0821001 	add	r1, r2, r1
    a0f0:	e5870000 	str	r0, [r7]
    a0f4:	e584c000 	str	ip, [r4]
    a0f8:	9a000009 	bls	a124 <xbee_init+0xcc>
    a0fc:	e59e2010 	ldr	r2, [lr, #16]
    a100:	e1d630b0 	ldrh	r3, [r6]
    a104:	e3120201 	tst	r2, #268435456	; 0x10000000
    a108:	e2833001 	add	r3, r3, #1	; 0x1
    a10c:	e1c630b0 	strh	r3, [r6]
    a110:	13a03201 	movne	r3, #268435456	; 0x10000000
    a114:	03a03201 	moveq	r3, #268435456	; 0x10000000
    a118:	e5841000 	str	r1, [r4]
    a11c:	158e301c 	strne	r3, [lr, #28]
    a120:	058e3014 	streq	r3, [lr, #20]
    a124:	e3a03001 	mov	r3, #1	; 0x1
    a128:	e3530000 	cmp	r3, #0	; 0x0
    a12c:	e2453001 	sub	r3, r5, #1	; 0x1
    a130:	120350ff 	andne	r5, r3, #255	; 0xff
    a134:	e3550000 	cmp	r5, #0	; 0x0
    a138:	1affffd8 	bne	a0a0 <xbee_init+0x48>
    a13c:	e59f2174 	ldr	r2, [pc, #372]	; a2b8 <.text+0x62b8>
    a140:	e5d23000 	ldrb	r3, [r2]
    a144:	e1a04005 	mov	r4, r5
    a148:	e3530000 	cmp	r3, #0	; 0x0
    a14c:	0a000007 	beq	a170 <xbee_init+0x118>
    a150:	e7d20004 	ldrb	r0, [r2, r4]
    a154:	ebfffd19 	bl	95c0 <uart0_transmit>
    a158:	e2843001 	add	r3, r4, #1	; 0x1
    a15c:	e59f2154 	ldr	r2, [pc, #340]	; a2b8 <.text+0x62b8>
    a160:	e20340ff 	and	r4, r3, #255	; 0xff
    a164:	e7d23004 	ldrb	r3, [r2, r4]
    a168:	e3530000 	cmp	r3, #0	; 0x0
    a16c:	eafffff6 	b	a14c <xbee_init+0xf4>
    a170:	e24b402c 	sub	r4, fp, #44	; 0x2c
    a174:	e59f1140 	ldr	r1, [pc, #320]	; a2bc <.text+0x62bc>
    a178:	e3a02010 	mov	r2, #16	; 0x10
    a17c:	e1a00004 	mov	r0, r4
    a180:	eb0021cd 	bl	128bc <__memcpy_from_arm>
    a184:	e55b002c 	ldrb	r0, [fp, #-44]
    a188:	ebfffd0c 	bl	95c0 <uart0_transmit>
    a18c:	e55b002c 	ldrb	r0, [fp, #-44]
    a190:	ebfffd0a 	bl	95c0 <uart0_transmit>
    a194:	e3a02010 	mov	r2, #16	; 0x10
    a198:	e59f111c 	ldr	r1, [pc, #284]	; a2bc <.text+0x62bc>
    a19c:	e1a00004 	mov	r0, r4
    a1a0:	eb0021c5 	bl	128bc <__memcpy_from_arm>
    a1a4:	e55b002c 	ldrb	r0, [fp, #-44]
    a1a8:	ebfffd04 	bl	95c0 <uart0_transmit>
    a1ac:	e55b0022 	ldrb	r0, [fp, #-34]
    a1b0:	ebfffd02 	bl	95c0 <uart0_transmit>
    a1b4:	e59f2104 	ldr	r2, [pc, #260]	; a2c0 <.text+0x62c0>
    a1b8:	e5d23000 	ldrb	r3, [r2]
    a1bc:	e3a04000 	mov	r4, #0	; 0x0
    a1c0:	e3530000 	cmp	r3, #0	; 0x0
    a1c4:	0a000007 	beq	a1e8 <xbee_init+0x190>
    a1c8:	e7d20004 	ldrb	r0, [r2, r4]
    a1cc:	ebfffcfb 	bl	95c0 <uart0_transmit>
    a1d0:	e2843001 	add	r3, r4, #1	; 0x1
    a1d4:	e59f20e4 	ldr	r2, [pc, #228]	; a2c0 <.text+0x62c0>
    a1d8:	e20340ff 	and	r4, r3, #255	; 0xff
    a1dc:	e7d23004 	ldrb	r3, [r2, r4]
    a1e0:	e3530000 	cmp	r3, #0	; 0x0
    a1e4:	eafffff6 	b	a1c4 <xbee_init+0x16c>
    a1e8:	e59f20d4 	ldr	r2, [pc, #212]	; a2c4 <.text+0x62c4>
    a1ec:	e5d23000 	ldrb	r3, [r2]
    a1f0:	e3a04000 	mov	r4, #0	; 0x0
    a1f4:	e3530000 	cmp	r3, #0	; 0x0
    a1f8:	0a000007 	beq	a21c <xbee_init+0x1c4>
    a1fc:	e7d20004 	ldrb	r0, [r2, r4]
    a200:	ebfffcee 	bl	95c0 <uart0_transmit>
    a204:	e2843001 	add	r3, r4, #1	; 0x1
    a208:	e59f20b4 	ldr	r2, [pc, #180]	; a2c4 <.text+0x62c4>
    a20c:	e20340ff 	and	r4, r3, #255	; 0xff
    a210:	e7d23004 	ldrb	r3, [r2, r4]
    a214:	e3530000 	cmp	r3, #0	; 0x0
    a218:	eafffff6 	b	a1f8 <xbee_init+0x1a0>
    a21c:	e59f20a4 	ldr	r2, [pc, #164]	; a2c8 <.text+0x62c8>
    a220:	e5d23000 	ldrb	r3, [r2]
    a224:	e3a04000 	mov	r4, #0	; 0x0
    a228:	e3530000 	cmp	r3, #0	; 0x0
    a22c:	0a000007 	beq	a250 <xbee_init+0x1f8>
    a230:	e7d20004 	ldrb	r0, [r2, r4]
    a234:	ebfffce1 	bl	95c0 <uart0_transmit>
    a238:	e2843001 	add	r3, r4, #1	; 0x1
    a23c:	e59f2084 	ldr	r2, [pc, #132]	; a2c8 <.text+0x62c8>
    a240:	e20340ff 	and	r4, r3, #255	; 0xff
    a244:	e7d23004 	ldrb	r3, [r2, r4]
    a248:	e3530000 	cmp	r3, #0	; 0x0
    a24c:	eafffff6 	b	a22c <xbee_init+0x1d4>
    a250:	e59f2074 	ldr	r2, [pc, #116]	; a2cc <.text+0x62cc>
    a254:	e5d23000 	ldrb	r3, [r2]
    a258:	e3a04000 	mov	r4, #0	; 0x0
    a25c:	e3530000 	cmp	r3, #0	; 0x0
    a260:	0a000007 	beq	a284 <xbee_init+0x22c>
    a264:	e7d20004 	ldrb	r0, [r2, r4]
    a268:	ebfffcd4 	bl	95c0 <uart0_transmit>
    a26c:	e2843001 	add	r3, r4, #1	; 0x1
    a270:	e59f2054 	ldr	r2, [pc, #84]	; a2cc <.text+0x62cc>
    a274:	e20340ff 	and	r4, r3, #255	; 0xff
    a278:	e7d23004 	ldrb	r3, [r2, r4]
    a27c:	e3530000 	cmp	r3, #0	; 0x0
    a280:	eafffff6 	b	a260 <xbee_init+0x208>
    a284:	e24bd01c 	sub	sp, fp, #28	; 0x1c
    a288:	e89d68f0 	ldmia	sp, {r4, r5, r6, r7, fp, sp, lr}
    a28c:	e12fff1e 	bx	lr
    a290:	00012bdc 	ldreqd	r2, [r1], -ip
    a294:	e0004000 	and	r4, r0, r0
    a298:	40000538 	andmi	r0, r0, r8, lsr r5
    a29c:	00039386 	andeq	r9, r3, r6, lsl #7
    a2a0:	00039387 	andeq	r9, r3, r7, lsl #7
    a2a4:	40000894 	mulmi	r0, r4, r8
    a2a8:	00e4e1c0 	rsceq	lr, r4, r0, asr #3
    a2ac:	ff1eb1c7 	swinv	0x001eb1c7
    a2b0:	e0028000 	and	r8, r2, r0
    a2b4:	40000890 	mulmi	r0, r0, r8
    a2b8:	00012be0 	andeq	r2, r1, r0, ror #23
    a2bc:	00012952 	andeq	r2, r1, r2, asr r9
    a2c0:	00012c14 	andeq	r2, r1, r4, lsl ip
    a2c4:	00012be8 	andeq	r2, r1, r8, ror #23
    a2c8:	00012bf0 	streqd	r2, [r1], -r0
    a2cc:	00012c10 	andeq	r2, r1, r0, lsl ip

0000a2d0 <get_ac_info>:
    a2d0:	e20000ff 	and	r0, r0, #255	; 0xff
    a2d4:	e3500017 	cmp	r0, #23	; 0x17
    a2d8:	83a00000 	movhi	r0, #0	; 0x0
    a2dc:	e59f3008 	ldr	r3, [pc, #8]	; a2ec <.text+0x62ec>
    a2e0:	e0800100 	add	r0, r0, r0, lsl #2
    a2e4:	e0830100 	add	r0, r3, r0, lsl #2
    a2e8:	e12fff1e 	bx	lr
    a2ec:	400008f0 	strmid	r0, [r0], -r0

0000a2f0 <adc_buf_channel>:
    a2f0:	e59f300c 	ldr	r3, [pc, #12]	; a304 <.text+0x6304>
    a2f4:	e20000ff 	and	r0, r0, #255	; 0xff
    a2f8:	e7831100 	str	r1, [r3, r0, lsl #2]
    a2fc:	e5c12043 	strb	r2, [r1, #67]
    a300:	e12fff1e 	bx	lr
    a304:	40000560 	andmi	r0, r0, r0, ror #10

0000a308 <adc_init>:
    a308:	e59f2080 	ldr	r2, [pc, #128]	; a390 <.text+0x6390>
    a30c:	e5923000 	ldr	r3, [r2]
    a310:	e3833403 	orr	r3, r3, #50331648	; 0x3000000
    a314:	e5823000 	str	r3, [r2]
    a318:	e5923004 	ldr	r3, [r2, #4]
    a31c:	e3833415 	orr	r3, r3, #352321536	; 0x15000000
    a320:	e3833b06 	orr	r3, r3, #6144	; 0x1800
    a324:	e5823004 	str	r3, [r2, #4]
    a328:	e59f2064 	ldr	r2, [pc, #100]	; a394 <.text+0x6394>
    a32c:	e59f3064 	ldr	r3, [pc, #100]	; a398 <.text+0x6398>
    a330:	e5832000 	str	r2, [r3]
    a334:	e59f2060 	ldr	r2, [pc, #96]	; a39c <.text+0x639c>
    a338:	e592300c 	ldr	r3, [r2, #12]
    a33c:	e3c33701 	bic	r3, r3, #262144	; 0x40000
    a340:	e582300c 	str	r3, [r2, #12]
    a344:	e3a03701 	mov	r3, #262144	; 0x40000
    a348:	e5823010 	str	r3, [r2, #16]
    a34c:	e3a03032 	mov	r3, #50	; 0x32
    a350:	e582320c 	str	r3, [r2, #524]
    a354:	e59f3044 	ldr	r3, [pc, #68]	; a3a0 <.text+0x63a0>
    a358:	e59f1044 	ldr	r1, [pc, #68]	; a3a4 <.text+0x63a4>
    a35c:	e582310c 	str	r3, [r2, #268]
    a360:	e59f3040 	ldr	r3, [pc, #64]	; a3a8 <.text+0x63a8>
    a364:	e5831000 	str	r1, [r3]
    a368:	e592300c 	ldr	r3, [r2, #12]
    a36c:	e3c33602 	bic	r3, r3, #2097152	; 0x200000
    a370:	e582300c 	str	r3, [r2, #12]
    a374:	e3a03602 	mov	r3, #2097152	; 0x200000
    a378:	e5823010 	str	r3, [r2, #16]
    a37c:	e3a03035 	mov	r3, #53	; 0x35
    a380:	e5823210 	str	r3, [r2, #528]
    a384:	e59f3020 	ldr	r3, [pc, #32]	; a3ac <.text+0x63ac>
    a388:	e5823110 	str	r3, [r2, #272]
    a38c:	e12fff1e 	bx	lr
    a390:	e002c000 	and	ip, r2, r0
    a394:	0021ff0e 	eoreq	pc, r1, lr, lsl #30
    a398:	e0034000 	and	r4, r3, r0
    a39c:	fffff000 	swinv	0x00fff000
    a3a0:	0000a3b0 	streqh	sl, [r0], -r0
    a3a4:	0021ffc8 	eoreq	pc, r1, r8, asr #31
    a3a8:	e0060000 	and	r0, r6, r0
    a3ac:	0000a45c 	andeq	sl, r0, ip, asr r4

0000a3b0 <adcISR0>:
    a3b0:	e24ee004 	sub	lr, lr, #4	; 0x4
    a3b4:	e92d5fff 	stmdb	sp!, {r0, r1, r2, r3, r4, r5, r6, r7, r8, r9, sl, fp, ip, lr}
    a3b8:	e14f1000 	mrs	r1, SPSR
    a3bc:	e92d0002 	stmdb	sp!, {r1}
    a3c0:	e59f3084 	ldr	r3, [pc, #132]	; a44c <.text+0x644c>
    a3c4:	e5932004 	ldr	r2, [r3, #4]
    a3c8:	e59f3080 	ldr	r3, [pc, #128]	; a450 <.text+0x6450>
    a3cc:	e1a01c22 	mov	r1, r2, lsr #24
    a3d0:	e2011007 	and	r1, r1, #7	; 0x7
    a3d4:	e793c101 	ldr	ip, [r3, r1, lsl #2]
    a3d8:	e1a02802 	mov	r2, r2, lsl #16
    a3dc:	e59f3070 	ldr	r3, [pc, #112]	; a454 <.text+0x6454>
    a3e0:	e1a0eb22 	mov	lr, r2, lsr #22
    a3e4:	e1a01081 	mov	r1, r1, lsl #1
    a3e8:	e35c0000 	cmp	ip, #0	; 0x0
    a3ec:	e181e0b3 	strh	lr, [r1, r3]
    a3f0:	0a00000f 	beq	a434 <adcISR0+0x84>
    a3f4:	e5dc2042 	ldrb	r2, [ip, #66]
    a3f8:	e5dc3043 	ldrb	r3, [ip, #67]
    a3fc:	e2822001 	add	r2, r2, #1	; 0x1
    a400:	e20220ff 	and	r2, r2, #255	; 0xff
    a404:	e1530002 	cmp	r3, r2
    a408:	93a02000 	movls	r2, #0	; 0x0
    a40c:	e08c0082 	add	r0, ip, r2, lsl #1
    a410:	e1dc30b0 	ldrh	r3, [ip]
    a414:	e1d010b2 	ldrh	r1, [r0, #2]
    a418:	e0613003 	rsb	r3, r1, r3
    a41c:	e1cc30b0 	strh	r3, [ip]
    a420:	e1dc30b0 	ldrh	r3, [ip]
    a424:	e08e3003 	add	r3, lr, r3
    a428:	e5cc2042 	strb	r2, [ip, #66]
    a42c:	e1c0e0b2 	strh	lr, [r0, #2]
    a430:	e1cc30b0 	strh	r3, [ip]
    a434:	e59f301c 	ldr	r3, [pc, #28]	; a458 <.text+0x6458>
    a438:	e3a02000 	mov	r2, #0	; 0x0
    a43c:	e5832030 	str	r2, [r3, #48]
    a440:	e8bd0002 	ldmia	sp!, {r1}
    a444:	e161f001 	msr	SPSR_c, r1
    a448:	e8fd9fff 	ldmia	sp!, {r0, r1, r2, r3, r4, r5, r6, r7, r8, r9, sl, fp, ip, pc}^
    a44c:	e0034000 	and	r4, r3, r0
    a450:	40000560 	andmi	r0, r0, r0, ror #10
    a454:	40000024 	andmi	r0, r0, r4, lsr #32
    a458:	fffff000 	swinv	0x00fff000

0000a45c <adcISR1>:
    a45c:	e24ee004 	sub	lr, lr, #4	; 0x4
    a460:	e92d5fff 	stmdb	sp!, {r0, r1, r2, r3, r4, r5, r6, r7, r8, r9, sl, fp, ip, lr}
    a464:	e14f1000 	mrs	r1, SPSR
    a468:	e92d0002 	stmdb	sp!, {r1}
    a46c:	e59f3088 	ldr	r3, [pc, #136]	; a4fc <.text+0x64fc>
    a470:	e5932004 	ldr	r2, [r3, #4]
    a474:	e59f3084 	ldr	r3, [pc, #132]	; a500 <.text+0x6500>
    a478:	e1a01c22 	mov	r1, r2, lsr #24
    a47c:	e2011007 	and	r1, r1, #7	; 0x7
    a480:	e0833101 	add	r3, r3, r1, lsl #2
    a484:	e593c020 	ldr	ip, [r3, #32]
    a488:	e1a02802 	mov	r2, r2, lsl #16
    a48c:	e59f3070 	ldr	r3, [pc, #112]	; a504 <.text+0x6504>
    a490:	e1a0eb22 	mov	lr, r2, lsr #22
    a494:	e1a01081 	mov	r1, r1, lsl #1
    a498:	e35c0000 	cmp	ip, #0	; 0x0
    a49c:	e181e0b3 	strh	lr, [r1, r3]
    a4a0:	0a00000f 	beq	a4e4 <adcISR1+0x88>
    a4a4:	e5dc2042 	ldrb	r2, [ip, #66]
    a4a8:	e5dc3043 	ldrb	r3, [ip, #67]
    a4ac:	e2822001 	add	r2, r2, #1	; 0x1
    a4b0:	e20220ff 	and	r2, r2, #255	; 0xff
    a4b4:	e1530002 	cmp	r3, r2
    a4b8:	93a02000 	movls	r2, #0	; 0x0
    a4bc:	e08c0082 	add	r0, ip, r2, lsl #1
    a4c0:	e1dc30b0 	ldrh	r3, [ip]
    a4c4:	e1d010b2 	ldrh	r1, [r0, #2]
    a4c8:	e0613003 	rsb	r3, r1, r3
    a4cc:	e1cc30b0 	strh	r3, [ip]
    a4d0:	e1dc30b0 	ldrh	r3, [ip]
    a4d4:	e08e3003 	add	r3, lr, r3
    a4d8:	e5cc2042 	strb	r2, [ip, #66]
    a4dc:	e1c0e0b2 	strh	lr, [r0, #2]
    a4e0:	e1cc30b0 	strh	r3, [ip]
    a4e4:	e59f301c 	ldr	r3, [pc, #28]	; a508 <.text+0x6508>
    a4e8:	e3a02000 	mov	r2, #0	; 0x0
    a4ec:	e5832030 	str	r2, [r3, #48]
    a4f0:	e8bd0002 	ldmia	sp!, {r1}
    a4f4:	e161f001 	msr	SPSR_c, r1
    a4f8:	e8fd9fff 	ldmia	sp!, {r0, r1, r2, r3, r4, r5, r6, r7, r8, r9, sl, fp, ip, pc}^
    a4fc:	e0060000 	and	r0, r6, r0
    a500:	40000560 	andmi	r0, r0, r0, ror #10
    a504:	40000014 	andmi	r0, r0, r4, lsl r0
    a508:	fffff000 	swinv	0x00fff000

0000a50c <estimator_init>:
    a50c:	e59f307c 	ldr	r3, [pc, #124]	; a590 <.text+0x6590>
    a510:	e3a02000 	mov	r2, #0	; 0x0
    a514:	e5832000 	str	r2, [r3]
    a518:	e59f3074 	ldr	r3, [pc, #116]	; a594 <.text+0x6594>
    a51c:	e5832000 	str	r2, [r3]
    a520:	e59f3070 	ldr	r3, [pc, #112]	; a598 <.text+0x6598>
    a524:	e5832000 	str	r2, [r3]
    a528:	e59f306c 	ldr	r3, [pc, #108]	; a59c <.text+0x659c>
    a52c:	e5832000 	str	r2, [r3]
    a530:	e59f3068 	ldr	r3, [pc, #104]	; a5a0 <.text+0x65a0>
    a534:	e5832000 	str	r2, [r3]
    a538:	e59f3064 	ldr	r3, [pc, #100]	; a5a4 <.text+0x65a4>
    a53c:	e5832000 	str	r2, [r3]
    a540:	e59f3060 	ldr	r3, [pc, #96]	; a5a8 <.text+0x65a8>
    a544:	e5832000 	str	r2, [r3]
    a548:	e59f305c 	ldr	r3, [pc, #92]	; a5ac <.text+0x65ac>
    a54c:	e5832000 	str	r2, [r3]
    a550:	e59f3058 	ldr	r3, [pc, #88]	; a5b0 <.text+0x65b0>
    a554:	e5832000 	str	r2, [r3]
    a558:	e59f3054 	ldr	r3, [pc, #84]	; a5b4 <.text+0x65b4>
    a55c:	e5832000 	str	r2, [r3]
    a560:	e59f3050 	ldr	r3, [pc, #80]	; a5b8 <.text+0x65b8>
    a564:	e5832000 	str	r2, [r3]
    a568:	e59f304c 	ldr	r3, [pc, #76]	; a5bc <.text+0x65bc>
    a56c:	e5832000 	str	r2, [r3]
    a570:	e59f3048 	ldr	r3, [pc, #72]	; a5c0 <.text+0x65c0>
    a574:	e5832000 	str	r2, [r3]
    a578:	e59f3044 	ldr	r3, [pc, #68]	; a5c4 <.text+0x65c4>
    a57c:	e5832000 	str	r2, [r3]
    a580:	e59f3040 	ldr	r3, [pc, #64]	; a5c8 <.text+0x65c8>
    a584:	e3a02000 	mov	r2, #0	; 0x0
    a588:	e1c320b0 	strh	r2, [r3]
    a58c:	e12fff1e 	bx	lr
    a590:	40000e2c 	andmi	r0, r0, ip, lsr #28
    a594:	40000e4c 	andmi	r0, r0, ip, asr #28
    a598:	40000e64 	andmi	r0, r0, r4, ror #28
    a59c:	40000e28 	andmi	r0, r0, r8, lsr #28
    a5a0:	40000e48 	andmi	r0, r0, r8, asr #28
    a5a4:	40000e24 	andmi	r0, r0, r4, lsr #28
    a5a8:	40000e40 	andmi	r0, r0, r0, asr #28
    a5ac:	40000e44 	andmi	r0, r0, r4, asr #28
    a5b0:	40000e54 	andmi	r0, r0, r4, asr lr
    a5b4:	40000e1c 	andmi	r0, r0, ip, lsl lr
    a5b8:	40000e3c 	andmi	r0, r0, ip, lsr lr
    a5bc:	40000e50 	andmi	r0, r0, r0, asr lr
    a5c0:	40000e5c 	andmi	r0, r0, ip, asr lr
    a5c4:	40000e38 	andmi	r0, r0, r8, lsr lr
    a5c8:	40000e20 	andmi	r0, r0, r0, lsr #28

0000a5cc <estimator_propagate_state>:
    a5cc:	e12fff1e 	bx	lr

0000a5d0 <nav_init_stage>:
    a5d0:	e52de004 	str	lr, [sp, #-4]!
    a5d4:	e59f3050 	ldr	r3, [pc, #80]	; a62c <.text+0x662c>
    a5d8:	e5931000 	ldr	r1, [r3]
    a5dc:	e59f304c 	ldr	r3, [pc, #76]	; a630 <.text+0x6630>
    a5e0:	e5930000 	ldr	r0, [r3]
    a5e4:	e59f3048 	ldr	r3, [pc, #72]	; a634 <.text+0x6634>
    a5e8:	e5831000 	str	r1, [r3]
    a5ec:	e59f3044 	ldr	r3, [pc, #68]	; a638 <.text+0x6638>
    a5f0:	e5830000 	str	r0, [r3]
    a5f4:	e59f3040 	ldr	r3, [pc, #64]	; a63c <.text+0x663c>
    a5f8:	e3a0e000 	mov	lr, #0	; 0x0
    a5fc:	e583e000 	str	lr, [r3]
    a600:	e59f3038 	ldr	r3, [pc, #56]	; a640 <.text+0x6640>
    a604:	e3a02000 	mov	r2, #0	; 0x0
    a608:	e5c32000 	strb	r2, [r3]
    a60c:	e59f3030 	ldr	r3, [pc, #48]	; a644 <.text+0x6644>
    a610:	e5c32000 	strb	r2, [r3]
    a614:	e59f302c 	ldr	r3, [pc, #44]	; a648 <.text+0x6648>
    a618:	e1c320b0 	strh	r2, [r3]
    a61c:	e59f3028 	ldr	r3, [pc, #40]	; a64c <.text+0x664c>
    a620:	e583e000 	str	lr, [r3]
    a624:	e49de004 	ldr	lr, [sp], #4
    a628:	e12fff1e 	bx	lr
    a62c:	40000e4c 	andmi	r0, r0, ip, asr #28
    a630:	40000e64 	andmi	r0, r0, r4, ror #28
    a634:	400005bc 	strmih	r0, [r0], -ip
    a638:	400005c0 	andmi	r0, r0, r0, asr #11
    a63c:	400005c8 	andmi	r0, r0, r8, asr #11
    a640:	400005ad 	andmi	r0, r0, sp, lsr #11
    a644:	400005ac 	andmi	r0, r0, ip, lsr #11
    a648:	40000ec0 	andmi	r0, r0, r0, asr #29
    a64c:	40000e7c 	andmi	r0, r0, ip, ror lr

0000a650 <nav_circle_XY>:
    a650:	e1a0c00d 	mov	ip, sp
    a654:	e92ddff0 	stmdb	sp!, {r4, r5, r6, r7, r8, r9, sl, fp, ip, lr, pc}
    a658:	e59f3270 	ldr	r3, [pc, #624]	; a8d0 <.text+0x68d0>
    a65c:	e24cb004 	sub	fp, ip, #4	; 0x4
    a660:	e24dd014 	sub	sp, sp, #20	; 0x14
    a664:	e50b002c 	str	r0, [fp, #-44]
    a668:	e5930000 	ldr	r0, [r3]
    a66c:	e50b2034 	str	r2, [fp, #-52]
    a670:	e50b1030 	str	r1, [fp, #-48]
    a674:	eb001ee0 	bl	121fc <__subsf3>
    a678:	eb001ce9 	bl	11a24 <__extendsfdf2>
    a67c:	e59fc258 	ldr	ip, [pc, #600]	; a8dc <.text+0x68dc>
    a680:	e1a05001 	mov	r5, r1
    a684:	e1a04000 	mov	r4, r0
    a688:	e59c0000 	ldr	r0, [ip]
    a68c:	e51b102c 	ldr	r1, [fp, #-44]
    a690:	eb001ed9 	bl	121fc <__subsf3>
    a694:	eb001ce2 	bl	11a24 <__extendsfdf2>
    a698:	e59f920c 	ldr	r9, [pc, #524]	; a8ac <.text+0x68ac>
    a69c:	e1a03001 	mov	r3, r1
    a6a0:	e1a02000 	mov	r2, r0
    a6a4:	e1a01005 	mov	r1, r5
    a6a8:	e1a00004 	mov	r0, r4
    a6ac:	e5994000 	ldr	r4, [r9]
    a6b0:	eb00207e 	bl	128b0 <__atan2_from_arm>
    a6b4:	eb001e92 	bl	12104 <__truncdfsf2>
    a6b8:	e59f2224 	ldr	r2, [pc, #548]	; a8e4 <.text+0x68e4>
    a6bc:	e5d23000 	ldrb	r3, [r2]
    a6c0:	e3530000 	cmp	r3, #0	; 0x0
    a6c4:	e5890000 	str	r0, [r9]
    a6c8:	0a000027 	beq	a76c <nav_circle_XY+0x11c>
    a6cc:	e1a01004 	mov	r1, r4
    a6d0:	eb001ec9 	bl	121fc <__subsf3>
    a6d4:	ea000001 	b	a6e0 <nav_circle_XY+0x90>
    a6d8:	eb001bfa 	bl	116c8 <__subdf3>
    a6dc:	eb001e88 	bl	12104 <__truncdfsf2>
    a6e0:	e1a06000 	mov	r6, r0
    a6e4:	eb001cce 	bl	11a24 <__extendsfdf2>
    a6e8:	e28f2f67 	add	r2, pc, #412	; 0x19c
    a6ec:	e892000c 	ldmia	r2, {r2, r3}
    a6f0:	e1a05001 	mov	r5, r1
    a6f4:	e1a04000 	mov	r4, r0
    a6f8:	eb001e17 	bl	11f5c <__gedf2>
    a6fc:	e3500000 	cmp	r0, #0	; 0x0
    a700:	e28f2f63 	add	r2, pc, #396	; 0x18c
    a704:	e892000c 	ldmia	r2, {r2, r3}
    a708:	e1a01005 	mov	r1, r5
    a70c:	e1a00004 	mov	r0, r4
    a710:	cafffff0 	bgt	a6d8 <nav_circle_XY+0x88>
    a714:	ea000002 	b	a724 <nav_circle_XY+0xd4>
    a718:	eb001beb 	bl	116cc <__adddf3>
    a71c:	eb001e78 	bl	12104 <__truncdfsf2>
    a720:	e1a06000 	mov	r6, r0
    a724:	e1a00006 	mov	r0, r6
    a728:	eb001cbd 	bl	11a24 <__extendsfdf2>
    a72c:	e28f2f5a 	add	r2, pc, #360	; 0x168
    a730:	e892000c 	ldmia	r2, {r2, r3}
    a734:	e1a05001 	mov	r5, r1
    a738:	e1a04000 	mov	r4, r0
    a73c:	eb001e08 	bl	11f64 <__ledf2>
    a740:	e3500000 	cmp	r0, #0	; 0x0
    a744:	e28f2f52 	add	r2, pc, #328	; 0x148
    a748:	e892000c 	ldmia	r2, {r2, r3}
    a74c:	e1a01005 	mov	r1, r5
    a750:	e1a00004 	mov	r0, r4
    a754:	baffffef 	blt	a718 <nav_circle_XY+0xc8>
    a758:	e59f4150 	ldr	r4, [pc, #336]	; a8b0 <.text+0x68b0>
    a75c:	e1a01006 	mov	r1, r6
    a760:	e5940000 	ldr	r0, [r4]
    a764:	eb001ea5 	bl	12200 <__addsf3>
    a768:	e5840000 	str	r0, [r4]
    a76c:	e59f3168 	ldr	r3, [pc, #360]	; a8dc <.text+0x68dc>
    a770:	e51b102c 	ldr	r1, [fp, #-44]
    a774:	e5930000 	ldr	r0, [r3]
    a778:	eb001e9f 	bl	121fc <__subsf3>
    a77c:	e1a01000 	mov	r1, r0
    a780:	eb001f23 	bl	12414 <__mulsf3>
    a784:	e59fc144 	ldr	ip, [pc, #324]	; a8d0 <.text+0x68d0>
    a788:	e1a04000 	mov	r4, r0
    a78c:	e51b1030 	ldr	r1, [fp, #-48]
    a790:	e59c0000 	ldr	r0, [ip]
    a794:	eb001e98 	bl	121fc <__subsf3>
    a798:	e1a01000 	mov	r1, r0
    a79c:	eb001f1c 	bl	12414 <__mulsf3>
    a7a0:	e1a01000 	mov	r1, r0
    a7a4:	e1a00004 	mov	r0, r4
    a7a8:	eb001e94 	bl	12200 <__addsf3>
    a7ac:	e59f310c 	ldr	r3, [pc, #268]	; a8c0 <.text+0x68c0>
    a7b0:	e5938000 	ldr	r8, [r3]
    a7b4:	e1a05000 	mov	r5, r0
    a7b8:	e59f10f4 	ldr	r1, [pc, #244]	; a8b4 <.text+0x68b4>
    a7bc:	e1a00008 	mov	r0, r8
    a7c0:	eb001f13 	bl	12414 <__mulsf3>
    a7c4:	e3a01000 	mov	r1, #0	; 0x0
    a7c8:	e1a04000 	mov	r4, r0
    a7cc:	e51b0034 	ldr	r0, [fp, #-52]
    a7d0:	eb001fdb 	bl	12744 <__gesf2>
    a7d4:	e51b2034 	ldr	r2, [fp, #-52]
    a7d8:	e59fa0d8 	ldr	sl, [pc, #216]	; a8b8 <.text+0x68b8>
    a7dc:	e3c26102 	bic	r6, r2, #-2147483648	; 0x80000000
    a7e0:	e3500000 	cmp	r0, #0	; 0x0
    a7e4:	e3a035fe 	mov	r3, #1065353216	; 0x3f800000
    a7e8:	e1a01004 	mov	r1, r4
    a7ec:	e1a00006 	mov	r0, r6
    a7f0:	c1a0a003 	movgt	sl, r3
    a7f4:	eb001e81 	bl	12200 <__addsf3>
    a7f8:	e1a01000 	mov	r1, r0
    a7fc:	eb001f04 	bl	12414 <__mulsf3>
    a800:	e1a01000 	mov	r1, r0
    a804:	e1a00005 	mov	r0, r5
    a808:	eb001fcd 	bl	12744 <__gesf2>
    a80c:	e3500000 	cmp	r0, #0	; 0x0
    a810:	ca00003f 	bgt	a914 <.text+0x6914>
    a814:	e1a01004 	mov	r1, r4
    a818:	e1a00006 	mov	r0, r6
    a81c:	eb001e76 	bl	121fc <__subsf3>
    a820:	e1a01000 	mov	r1, r0
    a824:	eb001efa 	bl	12414 <__mulsf3>
    a828:	e1a01000 	mov	r1, r0
    a82c:	e1a00005 	mov	r0, r5
    a830:	eb001fc5 	bl	1274c <__lesf2>
    a834:	e3500000 	cmp	r0, #0	; 0x0
    a838:	ba000035 	blt	a914 <.text+0x6914>
    a83c:	e1a01008 	mov	r1, r8
    a840:	e1a00008 	mov	r0, r8
    a844:	eb001ef2 	bl	12414 <__mulsf3>
    a848:	eb001c75 	bl	11a24 <__extendsfdf2>
    a84c:	e1a05001 	mov	r5, r1
    a850:	e1a04000 	mov	r4, r0
    a854:	e51b0034 	ldr	r0, [fp, #-52]
    a858:	eb001c71 	bl	11a24 <__extendsfdf2>
    a85c:	e28f2040 	add	r2, pc, #64	; 0x40
    a860:	e892000c 	ldmia	r2, {r2, r3}
    a864:	eb001c81 	bl	11a70 <__muldf3>
    a868:	e1a03001 	mov	r3, r1
    a86c:	e1a02000 	mov	r2, r0
    a870:	e1a01005 	mov	r1, r5
    a874:	e1a00004 	mov	r0, r4
    a878:	eb001d1a 	bl	11ce8 <__divdf3>
    a87c:	eb002011 	bl	128c8 <__atan_from_arm>
    a880:	eb001e1f 	bl	12104 <__truncdfsf2>
    a884:	e1a02000 	mov	r2, r0
    a888:	ea000022 	b	a918 <.text+0x6918>
    a88c:	400921fb 	strmid	r2, [r9], -fp
    a890:	54442d18 	strplb	r2, [r4], #-3352
    a894:	401921fb 	ldrmish	r2, [r9], -fp
    a898:	54442d18 	strplb	r2, [r4], #-3352
    a89c:	c00921fb 	strgtd	r2, [r9], -fp
    a8a0:	54442d18 	strplb	r2, [r4], #-3352
    a8a4:	40239cac 	eormi	r9, r3, ip, lsr #25
    a8a8:	083126e9 	ldmeqda	r1!, {r0, r3, r5, r6, r7, r9, sl, sp}
    a8ac:	40000ec4 	andmi	r0, r0, r4, asr #29
    a8b0:	400005c8 	andmi	r0, r0, r8, asr #11
    a8b4:	40a00000 	adcmi	r0, r0, r0
    a8b8:	bf800000 	swilt	0x00800000
    a8bc:	400005a8 	andmi	r0, r0, r8, lsr #11
    a8c0:	40000e44 	andmi	r0, r0, r4, asr #28
    a8c4:	3f490fdb 	swicc	0x00490fdb
    a8c8:	3e490fdb 	mcrcc	15, 2, r0, cr9, cr11, {6}
    a8cc:	40000e90 	mulmi	r0, r0, lr
    a8d0:	40000e64 	andmi	r0, r0, r4, ror #28
    a8d4:	40000e74 	andmi	r0, r0, r4, ror lr
    a8d8:	40000e88 	andmi	r0, r0, r8, lsl #29
    a8dc:	40000e4c 	andmi	r0, r0, ip, asr #28
    a8e0:	40000ed0 	ldrmid	r0, [r0], -r0
    a8e4:	400005ad 	andmi	r0, r0, sp, lsr #11
    a8e8:	40000eb0 	strmih	r0, [r0], -r0
    a8ec:	40000e92 	mulmi	r0, r2, lr
    a8f0:	40000e7a 	andmi	r0, r0, sl, ror lr
    a8f4:	40140000 	andmis	r0, r4, r0
    a8f8:	00000000 	andeq	r0, r0, r0
    a8fc:	3fe921fb 	swicc	0x00e921fb
    a900:	54442d18 	strplb	r2, [r4], #-3352
    a904:	3fc921fb 	swicc	0x00c921fb
    a908:	54442d18 	strplb	r2, [r4], #-3352
    a90c:	3ff921fb 	swicc	0x00f921fb
    a910:	54442d18 	strplb	r2, [r4], #-3352
    a914:	e3a02000 	mov	r2, #0	; 0x0
    a918:	e51f3064 	ldr	r3, [pc, #-100]	; a8bc <.text+0x68bc>
    a91c:	e1a00006 	mov	r0, r6
    a920:	e5832000 	str	r2, [r3]
    a924:	eb001c3e 	bl	11a24 <__extendsfdf2>
    a928:	e1a07001 	mov	r7, r1
    a92c:	e1a06000 	mov	r6, r0
    a930:	e1a03001 	mov	r3, r1
    a934:	e1a02000 	mov	r2, r0
    a938:	e24f004c 	sub	r0, pc, #76	; 0x4c
    a93c:	e8900003 	ldmia	r0, {r0, r1}
    a940:	eb001ce8 	bl	11ce8 <__divdf3>
    a944:	e51f308c 	ldr	r3, [pc, #-140]	; a8c0 <.text+0x68c0>
    a948:	e1a05001 	mov	r5, r1
    a94c:	e1a04000 	mov	r4, r0
    a950:	e5930000 	ldr	r0, [r3]
    a954:	eb001c32 	bl	11a24 <__extendsfdf2>
    a958:	e1a03001 	mov	r3, r1
    a95c:	e1a02000 	mov	r2, r0
    a960:	e1a01005 	mov	r1, r5
    a964:	e1a00004 	mov	r0, r4
    a968:	eb001c40 	bl	11a70 <__muldf3>
    a96c:	eb001de4 	bl	12104 <__truncdfsf2>
    a970:	e1a04000 	mov	r4, r0
    a974:	eb001c2a 	bl	11a24 <__extendsfdf2>
    a978:	e24f2084 	sub	r2, pc, #132	; 0x84
    a97c:	e892000c 	ldmia	r2, {r2, r3}
    a980:	eb001d77 	bl	11f64 <__ledf2>
    a984:	e51f30c8 	ldr	r3, [pc, #-200]	; a8c4 <.text+0x68c4>
    a988:	e3500000 	cmp	r0, #0	; 0x0
    a98c:	a1a04003 	movge	r4, r3
    a990:	e1a00004 	mov	r0, r4
    a994:	eb001c22 	bl	11a24 <__extendsfdf2>
    a998:	e24f209c 	sub	r2, pc, #156	; 0x9c
    a99c:	e892000c 	ldmia	r2, {r2, r3}
    a9a0:	eb001d6d 	bl	11f5c <__gedf2>
    a9a4:	e51f30e4 	ldr	r3, [pc, #-228]	; a8c8 <.text+0x68c8>
    a9a8:	e3500000 	cmp	r0, #0	; 0x0
    a9ac:	d1a04003 	movle	r4, r3
    a9b0:	e1a01004 	mov	r1, r4
    a9b4:	e1a0000a 	mov	r0, sl
    a9b8:	eb001e95 	bl	12414 <__mulsf3>
    a9bc:	e1a01000 	mov	r1, r0
    a9c0:	e5990000 	ldr	r0, [r9]
    a9c4:	eb001e0c 	bl	121fc <__subsf3>
    a9c8:	e51f3104 	ldr	r3, [pc, #-260]	; a8cc <.text+0x68cc>
    a9cc:	e3a02002 	mov	r2, #2	; 0x2
    a9d0:	e1a05000 	mov	r5, r0
    a9d4:	e5c32000 	strb	r2, [r3]
    a9d8:	e1a00004 	mov	r0, r4
    a9dc:	eb001c10 	bl	11a24 <__extendsfdf2>
    a9e0:	eb001fbb 	bl	128d4 <__cos_from_arm>
    a9e4:	e1a03001 	mov	r3, r1
    a9e8:	e1a02000 	mov	r2, r0
    a9ec:	e1a01007 	mov	r1, r7
    a9f0:	e1a00006 	mov	r0, r6
    a9f4:	eb001cbb 	bl	11ce8 <__divdf3>
    a9f8:	e1a03007 	mov	r3, r7
    a9fc:	e1a02006 	mov	r2, r6
    aa00:	eb001b30 	bl	116c8 <__subdf3>
    aa04:	e1a03001 	mov	r3, r1
    aa08:	e1a02000 	mov	r2, r0
    aa0c:	e1a01007 	mov	r1, r7
    aa10:	e1a00006 	mov	r0, r6
    aa14:	eb001b2c 	bl	116cc <__adddf3>
    aa18:	eb001db9 	bl	12104 <__truncdfsf2>
    aa1c:	e1a06000 	mov	r6, r0
    aa20:	e51b002c 	ldr	r0, [fp, #-44]
    aa24:	eb001bfe 	bl	11a24 <__extendsfdf2>
    aa28:	e24b3040 	sub	r3, fp, #64	; 0x40
    aa2c:	e9830003 	stmib	r3, {r0, r1}
    aa30:	e1a00005 	mov	r0, r5
    aa34:	eb001bfa 	bl	11a24 <__extendsfdf2>
    aa38:	e1a09001 	mov	r9, r1
    aa3c:	e1a08000 	mov	r8, r0
    aa40:	eb001fa3 	bl	128d4 <__cos_from_arm>
    aa44:	e1a05001 	mov	r5, r1
    aa48:	e1a04000 	mov	r4, r0
    aa4c:	e1a00006 	mov	r0, r6
    aa50:	eb001bf3 	bl	11a24 <__extendsfdf2>
    aa54:	e1a07001 	mov	r7, r1
    aa58:	e1a06000 	mov	r6, r0
    aa5c:	e1a03007 	mov	r3, r7
    aa60:	e1a02006 	mov	r2, r6
    aa64:	e1a01005 	mov	r1, r5
    aa68:	e1a00004 	mov	r0, r4
    aa6c:	eb001bff 	bl	11a70 <__muldf3>
    aa70:	e24bc040 	sub	ip, fp, #64	; 0x40
    aa74:	e1a03001 	mov	r3, r1
    aa78:	e1a02000 	mov	r2, r0
    aa7c:	e99c0003 	ldmib	ip, {r0, r1}
    aa80:	eb001b11 	bl	116cc <__adddf3>
    aa84:	eb001d9e 	bl	12104 <__truncdfsf2>
    aa88:	e1a0a000 	mov	sl, r0
    aa8c:	e51b0030 	ldr	r0, [fp, #-48]
    aa90:	eb001be3 	bl	11a24 <__extendsfdf2>
    aa94:	e1a05001 	mov	r5, r1
    aa98:	e1a04000 	mov	r4, r0
    aa9c:	e1a01009 	mov	r1, r9
    aaa0:	e1a00008 	mov	r0, r8
    aaa4:	eb001f8d 	bl	128e0 <__sin_from_arm>
    aaa8:	e1a03007 	mov	r3, r7
    aaac:	e1a02006 	mov	r2, r6
    aab0:	eb001bee 	bl	11a70 <__muldf3>
    aab4:	e1a03001 	mov	r3, r1
    aab8:	e1a02000 	mov	r2, r0
    aabc:	e1a01005 	mov	r1, r5
    aac0:	e1a00004 	mov	r0, r4
    aac4:	eb001b00 	bl	116cc <__adddf3>
    aac8:	eb001d8d 	bl	12104 <__truncdfsf2>
    aacc:	e51f3204 	ldr	r3, [pc, #-516]	; a8d0 <.text+0x68d0>
    aad0:	e5931000 	ldr	r1, [r3]
    aad4:	e51f3208 	ldr	r3, [pc, #-520]	; a8d4 <.text+0x68d4>
    aad8:	e583a000 	str	sl, [r3]
    aadc:	e51f320c 	ldr	r3, [pc, #-524]	; a8d8 <.text+0x68d8>
    aae0:	e1a02000 	mov	r2, r0
    aae4:	e5832000 	str	r2, [r3]
    aae8:	eb001dc3 	bl	121fc <__subsf3>
    aaec:	eb001bcc 	bl	11a24 <__extendsfdf2>
    aaf0:	e51fc21c 	ldr	ip, [pc, #-540]	; a8dc <.text+0x68dc>
    aaf4:	e1a05001 	mov	r5, r1
    aaf8:	e1a04000 	mov	r4, r0
    aafc:	e59c1000 	ldr	r1, [ip]
    ab00:	e1a0000a 	mov	r0, sl
    ab04:	eb001dbc 	bl	121fc <__subsf3>
    ab08:	eb001bc5 	bl	11a24 <__extendsfdf2>
    ab0c:	e1a03001 	mov	r3, r1
    ab10:	e1a02000 	mov	r2, r0
    ab14:	e1a01005 	mov	r1, r5
    ab18:	e1a00004 	mov	r0, r4
    ab1c:	eb001f63 	bl	128b0 <__atan2_from_arm>
    ab20:	e1a03001 	mov	r3, r1
    ab24:	e1a02000 	mov	r2, r0
    ab28:	e24f0f89 	sub	r0, pc, #548	; 0x224
    ab2c:	e8900003 	ldmia	r0, {r0, r1}
    ab30:	eb001ae4 	bl	116c8 <__subdf3>
    ab34:	eb001d72 	bl	12104 <__truncdfsf2>
    ab38:	e51f3260 	ldr	r3, [pc, #-608]	; a8e0 <.text+0x68e0>
    ab3c:	e51f2260 	ldr	r2, [pc, #-608]	; a8e4 <.text+0x68e4>
    ab40:	e5830000 	str	r0, [r3]
    ab44:	e3a03001 	mov	r3, #1	; 0x1
    ab48:	e5c23000 	strb	r3, [r2]
    ab4c:	e51b002c 	ldr	r0, [fp, #-44]
    ab50:	eb001f22 	bl	127e0 <__fixsfsi>
    ab54:	e51f3274 	ldr	r3, [pc, #-628]	; a8e8 <.text+0x68e8>
    ab58:	e1c300b0 	strh	r0, [r3]
    ab5c:	e51b0030 	ldr	r0, [fp, #-48]
    ab60:	eb001f1e 	bl	127e0 <__fixsfsi>
    ab64:	e51f3280 	ldr	r3, [pc, #-640]	; a8ec <.text+0x68ec>
    ab68:	e1c300b0 	strh	r0, [r3]
    ab6c:	e51b0034 	ldr	r0, [fp, #-52]
    ab70:	eb001f1a 	bl	127e0 <__fixsfsi>
    ab74:	e51f328c 	ldr	r3, [pc, #-652]	; a8f0 <.text+0x68f0>
    ab78:	e1c300b0 	strh	r0, [r3]
    ab7c:	e24bd028 	sub	sp, fp, #40	; 0x28
    ab80:	e89d6ff0 	ldmia	sp, {r4, r5, r6, r7, r8, r9, sl, fp, sp, lr}
    ab84:	e12fff1e 	bx	lr

0000ab88 <nav_goto_block>:
    ab88:	e59fc048 	ldr	ip, [pc, #72]	; abd8 <.text+0x6bd8>
    ab8c:	e5dc1000 	ldrb	r1, [ip]
    ab90:	e20000ff 	and	r0, r0, #255	; 0xff
    ab94:	e1510000 	cmp	r1, r0
    ab98:	e52de004 	str	lr, [sp, #-4]!
    ab9c:	e3a0e000 	mov	lr, #0	; 0x0
    aba0:	0a000005 	beq	abbc <nav_goto_block+0x34>
    aba4:	e59f3030 	ldr	r3, [pc, #48]	; abdc <.text+0x6bdc>
    aba8:	e5d32000 	ldrb	r2, [r3]
    abac:	e59f302c 	ldr	r3, [pc, #44]	; abe0 <.text+0x6be0>
    abb0:	e5c31000 	strb	r1, [r3]
    abb4:	e59f3028 	ldr	r3, [pc, #40]	; abe4 <.text+0x6be4>
    abb8:	e5c32000 	strb	r2, [r3]
    abbc:	e59f3024 	ldr	r3, [pc, #36]	; abe8 <.text+0x6be8>
    abc0:	e1c3e0b0 	strh	lr, [r3]
    abc4:	e59f3010 	ldr	r3, [pc, #16]	; abdc <.text+0x6bdc>
    abc8:	e5cc0000 	strb	r0, [ip]
    abcc:	e5c3e000 	strb	lr, [r3]
    abd0:	e49de004 	ldr	lr, [sp], #4
    abd4:	eafffe7d 	b	a5d0 <nav_init_stage>
    abd8:	40000e91 	mulmi	r0, r1, lr
    abdc:	40000ea8 	andmi	r0, r0, r8, lsr #29
    abe0:	400005b8 	strmih	r0, [r0], -r8
    abe4:	400005b9 	strmih	r0, [r0], -r9
    abe8:	40000ec2 	andmi	r0, r0, r2, asr #29

0000abec <nav_approaching_xy>:
    abec:	e1a0c00d 	mov	ip, sp
    abf0:	e92dddf0 	stmdb	sp!, {r4, r5, r6, r7, r8, sl, fp, ip, lr, pc}
    abf4:	e59f30e8 	ldr	r3, [pc, #232]	; ace4 <.text+0x6ce4>
    abf8:	e24cb004 	sub	fp, ip, #4	; 0x4
    abfc:	e1a0a001 	mov	sl, r1
    ac00:	e5931000 	ldr	r1, [r3]
    ac04:	e1a05002 	mov	r5, r2
    ac08:	e1a06000 	mov	r6, r0
    ac0c:	eb001d7a 	bl	121fc <__subsf3>
    ac10:	e59f30d0 	ldr	r3, [pc, #208]	; ace8 <.text+0x6ce8>
    ac14:	e1a07000 	mov	r7, r0
    ac18:	e5931000 	ldr	r1, [r3]
    ac1c:	e1a0000a 	mov	r0, sl
    ac20:	eb001d75 	bl	121fc <__subsf3>
    ac24:	e1a01007 	mov	r1, r7
    ac28:	e1a08000 	mov	r8, r0
    ac2c:	e1a00007 	mov	r0, r7
    ac30:	eb001df7 	bl	12414 <__mulsf3>
    ac34:	e1a01008 	mov	r1, r8
    ac38:	e1a04000 	mov	r4, r0
    ac3c:	e1a00008 	mov	r0, r8
    ac40:	eb001df3 	bl	12414 <__mulsf3>
    ac44:	e1a01000 	mov	r1, r0
    ac48:	e1a00004 	mov	r0, r4
    ac4c:	eb001d6b 	bl	12200 <__addsf3>
    ac50:	e59f3094 	ldr	r3, [pc, #148]	; acec <.text+0x6cec>
    ac54:	e5931000 	ldr	r1, [r3]
    ac58:	e59f3090 	ldr	r3, [pc, #144]	; acf0 <.text+0x6cf0>
    ac5c:	e1a04000 	mov	r4, r0
    ac60:	e5834000 	str	r4, [r3]
    ac64:	e1a00005 	mov	r0, r5
    ac68:	eb001de9 	bl	12414 <__mulsf3>
    ac6c:	e1a01000 	mov	r1, r0
    ac70:	eb001de7 	bl	12414 <__mulsf3>
    ac74:	e1a01000 	mov	r1, r0
    ac78:	e1a00004 	mov	r0, r4
    ac7c:	eb001eb2 	bl	1274c <__lesf2>
    ac80:	e3500000 	cmp	r0, #0	; 0x0
    ac84:	e3a03001 	mov	r3, #1	; 0x1
    ac88:	e1a00006 	mov	r0, r6
    ac8c:	ba000011 	blt	acd8 <nav_approaching_xy+0xec>
    ac90:	e59f305c 	ldr	r3, [pc, #92]	; acf4 <.text+0x6cf4>
    ac94:	e5931000 	ldr	r1, [r3]
    ac98:	eb001d57 	bl	121fc <__subsf3>
    ac9c:	e1a01007 	mov	r1, r7
    aca0:	eb001ddb 	bl	12414 <__mulsf3>
    aca4:	e59f304c 	ldr	r3, [pc, #76]	; acf8 <.text+0x6cf8>
    aca8:	e1a04000 	mov	r4, r0
    acac:	e5931000 	ldr	r1, [r3]
    acb0:	e1a0000a 	mov	r0, sl
    acb4:	eb001d50 	bl	121fc <__subsf3>
    acb8:	e1a01008 	mov	r1, r8
    acbc:	eb001dd4 	bl	12414 <__mulsf3>
    acc0:	e1a01000 	mov	r1, r0
    acc4:	e1a00004 	mov	r0, r4
    acc8:	eb001d4c 	bl	12200 <__addsf3>
    accc:	e3a01000 	mov	r1, #0	; 0x0
    acd0:	eb001e9d 	bl	1274c <__lesf2>
    acd4:	e1a03fa0 	mov	r3, r0, lsr #31
    acd8:	e1a00003 	mov	r0, r3
    acdc:	e89d6df0 	ldmia	sp, {r4, r5, r6, r7, r8, sl, fp, sp, lr}
    ace0:	e12fff1e 	bx	lr
    ace4:	40000e4c 	andmi	r0, r0, ip, asr #28
    ace8:	40000e64 	andmi	r0, r0, r4, ror #28
    acec:	40000e44 	andmi	r0, r0, r4, asr #28
    acf0:	40000e6c 	andmi	r0, r0, ip, ror #28
    acf4:	400005bc 	strmih	r0, [r0], -ip
    acf8:	400005c0 	andmi	r0, r0, r0, asr #11

0000acfc <nav_route_xy>:
    acfc:	e1a0c00d 	mov	ip, sp
    ad00:	e92ddff0 	stmdb	sp!, {r4, r5, r6, r7, r8, r9, sl, fp, ip, lr, pc}
    ad04:	e24cb004 	sub	fp, ip, #4	; 0x4
    ad08:	e24dd010 	sub	sp, sp, #16	; 0x10
    ad0c:	e50b002c 	str	r0, [fp, #-44]
    ad10:	e50b1030 	str	r1, [fp, #-48]
    ad14:	e1a00002 	mov	r0, r2
    ad18:	e51b102c 	ldr	r1, [fp, #-44]
    ad1c:	e50b2034 	str	r2, [fp, #-52]
    ad20:	e50b3038 	str	r3, [fp, #-56]
    ad24:	eb001d34 	bl	121fc <__subsf3>
    ad28:	e51b1030 	ldr	r1, [fp, #-48]
    ad2c:	e1a0a000 	mov	sl, r0
    ad30:	e51b0038 	ldr	r0, [fp, #-56]
    ad34:	eb001d30 	bl	121fc <__subsf3>
    ad38:	e1a0100a 	mov	r1, sl
    ad3c:	e1a09000 	mov	r9, r0
    ad40:	e1a0000a 	mov	r0, sl
    ad44:	eb001db2 	bl	12414 <__mulsf3>
    ad48:	e1a01009 	mov	r1, r9
    ad4c:	e1a04000 	mov	r4, r0
    ad50:	e1a00009 	mov	r0, r9
    ad54:	eb001dae 	bl	12414 <__mulsf3>
    ad58:	e1a01000 	mov	r1, r0
    ad5c:	e1a00004 	mov	r0, r4
    ad60:	eb001d26 	bl	12200 <__addsf3>
    ad64:	e3a015fe 	mov	r1, #1065353216	; 0x3f800000
    ad68:	e1a05000 	mov	r5, r0
    ad6c:	eb001e74 	bl	12744 <__gesf2>
    ad70:	e59f322c 	ldr	r3, [pc, #556]	; afa4 <.text+0x6fa4>
    ad74:	e3500000 	cmp	r0, #0	; 0x0
    ad78:	e51b102c 	ldr	r1, [fp, #-44]
    ad7c:	e5930000 	ldr	r0, [r3]
    ad80:	e3a035fe 	mov	r3, #1065353216	; 0x3f800000
    ad84:	d1a05003 	movle	r5, r3
    ad88:	eb001d1b 	bl	121fc <__subsf3>
    ad8c:	e1a0100a 	mov	r1, sl
    ad90:	eb001d9f 	bl	12414 <__mulsf3>
    ad94:	e59f320c 	ldr	r3, [pc, #524]	; afa8 <.text+0x6fa8>
    ad98:	e1a04000 	mov	r4, r0
    ad9c:	e51b1030 	ldr	r1, [fp, #-48]
    ada0:	e5930000 	ldr	r0, [r3]
    ada4:	eb001d14 	bl	121fc <__subsf3>
    ada8:	e1a01009 	mov	r1, r9
    adac:	eb001d98 	bl	12414 <__mulsf3>
    adb0:	e1a01000 	mov	r1, r0
    adb4:	e1a00004 	mov	r0, r4
    adb8:	eb001d10 	bl	12200 <__addsf3>
    adbc:	e1a01005 	mov	r1, r5
    adc0:	eb001df7 	bl	125a4 <__divsf3>
    adc4:	e3a01000 	mov	r1, #0	; 0x0
    adc8:	e1a04000 	mov	r4, r0
    adcc:	eb001e5c 	bl	12744 <__gesf2>
    add0:	e3a06000 	mov	r6, #0	; 0x0
    add4:	e3500000 	cmp	r0, #0	; 0x0
    add8:	e59f31cc 	ldr	r3, [pc, #460]	; afac <.text+0x6fac>
    addc:	d1a04006 	movle	r4, r6
    ade0:	e5834000 	str	r4, [r3]
    ade4:	e1a00005 	mov	r0, r5
    ade8:	eb001b0d 	bl	11a24 <__extendsfdf2>
    adec:	eb001ebe 	bl	128ec <__sqrt_from_arm>
    adf0:	eb001cc3 	bl	12104 <__truncdfsf2>
    adf4:	e59f31b4 	ldr	r3, [pc, #436]	; afb0 <.text+0x6fb0>
    adf8:	e1a05000 	mov	r5, r0
    adfc:	e5930000 	ldr	r0, [r3]
    ae00:	e59f31ac 	ldr	r3, [pc, #428]	; afb4 <.text+0x6fb4>
    ae04:	e59f11ac 	ldr	r1, [pc, #428]	; afb8 <.text+0x6fb8>
    ae08:	e5835000 	str	r5, [r3]
    ae0c:	eb001d80 	bl	12414 <__mulsf3>
    ae10:	e59f3194 	ldr	r3, [pc, #404]	; afac <.text+0x6fac>
    ae14:	e1a04000 	mov	r4, r0
    ae18:	e5930000 	ldr	r0, [r3]
    ae1c:	eb001b00 	bl	11a24 <__extendsfdf2>
    ae20:	e1a08001 	mov	r8, r1
    ae24:	e1a07000 	mov	r7, r0
    ae28:	e1a01005 	mov	r1, r5
    ae2c:	e1a00004 	mov	r0, r4
    ae30:	eb001ddb 	bl	125a4 <__divsf3>
    ae34:	e1a01006 	mov	r1, r6
    ae38:	e1a04000 	mov	r4, r0
    ae3c:	eb001e40 	bl	12744 <__gesf2>
    ae40:	e3500000 	cmp	r0, #0	; 0x0
    ae44:	e59f5160 	ldr	r5, [pc, #352]	; afac <.text+0x6fac>
    ae48:	da000006 	ble	ae68 <nav_route_xy+0x16c>
    ae4c:	e1a00004 	mov	r0, r4
    ae50:	eb001af3 	bl	11a24 <__extendsfdf2>
    ae54:	e1a03001 	mov	r3, r1
    ae58:	e1a02000 	mov	r2, r0
    ae5c:	e1a01008 	mov	r1, r8
    ae60:	e1a00007 	mov	r0, r7
    ae64:	ea000003 	b	ae78 <nav_route_xy+0x17c>
    ae68:	e28f2f49 	add	r2, pc, #292	; 0x124
    ae6c:	e892000c 	ldmia	r2, {r2, r3}
    ae70:	e1a01008 	mov	r1, r8
    ae74:	e1a00007 	mov	r0, r7
    ae78:	eb001a13 	bl	116cc <__adddf3>
    ae7c:	eb001ca0 	bl	12104 <__truncdfsf2>
    ae80:	e59f3134 	ldr	r3, [pc, #308]	; afbc <.text+0x6fbc>
    ae84:	e5850000 	str	r0, [r5]
    ae88:	e3a05001 	mov	r5, #1	; 0x1
    ae8c:	e5c35000 	strb	r5, [r3]
    ae90:	e51b002c 	ldr	r0, [fp, #-44]
    ae94:	eb001e51 	bl	127e0 <__fixsfsi>
    ae98:	e59f3120 	ldr	r3, [pc, #288]	; afc0 <.text+0x6fc0>
    ae9c:	e1c300b0 	strh	r0, [r3]
    aea0:	e51b0030 	ldr	r0, [fp, #-48]
    aea4:	eb001e4d 	bl	127e0 <__fixsfsi>
    aea8:	e59f3114 	ldr	r3, [pc, #276]	; afc4 <.text+0x6fc4>
    aeac:	e1c300b0 	strh	r0, [r3]
    aeb0:	e51b0034 	ldr	r0, [fp, #-52]
    aeb4:	eb001e49 	bl	127e0 <__fixsfsi>
    aeb8:	e59f3108 	ldr	r3, [pc, #264]	; afc8 <.text+0x6fc8>
    aebc:	e1c300b0 	strh	r0, [r3]
    aec0:	e51b0038 	ldr	r0, [fp, #-56]
    aec4:	eb001e45 	bl	127e0 <__fixsfsi>
    aec8:	e59f30dc 	ldr	r3, [pc, #220]	; afac <.text+0x6fac>
    aecc:	e5934000 	ldr	r4, [r3]
    aed0:	e59f30f4 	ldr	r3, [pc, #244]	; afcc <.text+0x6fcc>
    aed4:	e1c300b0 	strh	r0, [r3]
    aed8:	e59f30f0 	ldr	r3, [pc, #240]	; afd0 <.text+0x6fd0>
    aedc:	e1a0100a 	mov	r1, sl
    aee0:	e5c35000 	strb	r5, [r3]
    aee4:	e1a00004 	mov	r0, r4
    aee8:	eb001d49 	bl	12414 <__mulsf3>
    aeec:	e1a01000 	mov	r1, r0
    aef0:	e51b002c 	ldr	r0, [fp, #-44]
    aef4:	eb001cc1 	bl	12200 <__addsf3>
    aef8:	e1a01009 	mov	r1, r9
    aefc:	e1a06000 	mov	r6, r0
    af00:	e1a00004 	mov	r0, r4
    af04:	eb001d42 	bl	12414 <__mulsf3>
    af08:	e1a01000 	mov	r1, r0
    af0c:	e51b0030 	ldr	r0, [fp, #-48]
    af10:	eb001cba 	bl	12200 <__addsf3>
    af14:	e59f308c 	ldr	r3, [pc, #140]	; afa8 <.text+0x6fa8>
    af18:	e5931000 	ldr	r1, [r3]
    af1c:	e59f30b0 	ldr	r3, [pc, #176]	; afd4 <.text+0x6fd4>
    af20:	e5836000 	str	r6, [r3]
    af24:	e59f30ac 	ldr	r3, [pc, #172]	; afd8 <.text+0x6fd8>
    af28:	e1a02000 	mov	r2, r0
    af2c:	e5832000 	str	r2, [r3]
    af30:	eb001cb1 	bl	121fc <__subsf3>
    af34:	eb001aba 	bl	11a24 <__extendsfdf2>
    af38:	e59f3064 	ldr	r3, [pc, #100]	; afa4 <.text+0x6fa4>
    af3c:	e1a05001 	mov	r5, r1
    af40:	e1a04000 	mov	r4, r0
    af44:	e5931000 	ldr	r1, [r3]
    af48:	e1a00006 	mov	r0, r6
    af4c:	eb001caa 	bl	121fc <__subsf3>
    af50:	eb001ab3 	bl	11a24 <__extendsfdf2>
    af54:	e1a03001 	mov	r3, r1
    af58:	e1a02000 	mov	r2, r0
    af5c:	e1a01005 	mov	r1, r5
    af60:	e1a00004 	mov	r0, r4
    af64:	eb001e51 	bl	128b0 <__atan2_from_arm>
    af68:	e1a03001 	mov	r3, r1
    af6c:	e1a02000 	mov	r2, r0
    af70:	e28f0024 	add	r0, pc, #36	; 0x24
    af74:	e8900003 	ldmia	r0, {r0, r1}
    af78:	eb0019d2 	bl	116c8 <__subdf3>
    af7c:	eb001c60 	bl	12104 <__truncdfsf2>
    af80:	e59f3054 	ldr	r3, [pc, #84]	; afdc <.text+0x6fdc>
    af84:	e5830000 	str	r0, [r3]
    af88:	e24bd028 	sub	sp, fp, #40	; 0x28
    af8c:	e89d6ff0 	ldmia	sp, {r4, r5, r6, r7, r8, r9, sl, fp, sp, lr}
    af90:	e12fff1e 	bx	lr
	...
    af9c:	3ff921fb 	swicc	0x00f921fb
    afa0:	54442d18 	strplb	r2, [r4], #-3352
    afa4:	40000e4c 	andmi	r0, r0, ip, asr #28
    afa8:	40000e64 	andmi	r0, r0, r4, ror #28
    afac:	400005cc 	andmi	r0, r0, ip, asr #11
    afb0:	40000e44 	andmi	r0, r0, r4, asr #28
    afb4:	400005d0 	ldrmid	r0, [r0], -r0
    afb8:	40a00000 	adcmi	r0, r0, r0
    afbc:	400005ac 	andmi	r0, r0, ip, lsr #11
    afc0:	40000e70 	andmi	r0, r0, r0, ror lr
    afc4:	40000eb4 	strmih	r0, [r0], -r4
    afc8:	40000e78 	andmi	r0, r0, r8, ror lr
    afcc:	40000eb2 	strmih	r0, [r0], -r2
    afd0:	40000e90 	mulmi	r0, r0, lr
    afd4:	40000e74 	andmi	r0, r0, r4, ror lr
    afd8:	40000e88 	andmi	r0, r0, r8, lsl #29
    afdc:	40000ed0 	ldrmid	r0, [r0], -r0

0000afe0 <nav_home>:
    afe0:	e1a0c00d 	mov	ip, sp
    afe4:	e92dd830 	stmdb	sp!, {r4, r5, fp, ip, lr, pc}
    afe8:	e59f40c8 	ldr	r4, [pc, #200]	; b0b8 <.text+0x70b8>
    afec:	e24cb004 	sub	fp, ip, #4	; 0x4
    aff0:	e594000c 	ldr	r0, [r4, #12]
    aff4:	e5941010 	ldr	r1, [r4, #16]
    aff8:	e59f20bc 	ldr	r2, [pc, #188]	; b0bc <.text+0x70bc>
    affc:	ebfffd93 	bl	a650 <nav_circle_XY>
    b000:	e59f30b8 	ldr	r3, [pc, #184]	; b0c0 <.text+0x70c0>
    b004:	e5930000 	ldr	r0, [r3]
    b008:	e59f30b4 	ldr	r3, [pc, #180]	; b0c4 <.text+0x70c4>
    b00c:	e3a02000 	mov	r2, #0	; 0x0
    b010:	e5832000 	str	r2, [r3]
    b014:	e59f30ac 	ldr	r3, [pc, #172]	; b0c8 <.text+0x70c8>
    b018:	e3a02003 	mov	r2, #3	; 0x3
    b01c:	e5c32000 	strb	r2, [r3]
    b020:	e59f10a4 	ldr	r1, [pc, #164]	; b0cc <.text+0x70cc>
    b024:	eb001c75 	bl	12200 <__addsf3>
    b028:	e59f30a0 	ldr	r3, [pc, #160]	; b0d0 <.text+0x70d0>
    b02c:	e5830000 	str	r0, [r3]
    b030:	e59f309c 	ldr	r3, [pc, #156]	; b0d4 <.text+0x70d4>
    b034:	e594000c 	ldr	r0, [r4, #12]
    b038:	e5931000 	ldr	r1, [r3]
    b03c:	eb001c6e 	bl	121fc <__subsf3>
    b040:	e59f3090 	ldr	r3, [pc, #144]	; b0d8 <.text+0x70d8>
    b044:	e1a05000 	mov	r5, r0
    b048:	e5931000 	ldr	r1, [r3]
    b04c:	e5940010 	ldr	r0, [r4, #16]
    b050:	eb001c69 	bl	121fc <__subsf3>
    b054:	e1a01005 	mov	r1, r5
    b058:	e1a04000 	mov	r4, r0
    b05c:	e1a00005 	mov	r0, r5
    b060:	eb001ceb 	bl	12414 <__mulsf3>
    b064:	e1a01004 	mov	r1, r4
    b068:	e1a05000 	mov	r5, r0
    b06c:	e1a00004 	mov	r0, r4
    b070:	eb001ce7 	bl	12414 <__mulsf3>
    b074:	e1a01000 	mov	r1, r0
    b078:	e1a00005 	mov	r0, r5
    b07c:	eb001c5f 	bl	12200 <__addsf3>
    b080:	e59f3054 	ldr	r3, [pc, #84]	; b0dc <.text+0x70dc>
    b084:	e1a04000 	mov	r4, r0
    b088:	e5834000 	str	r4, [r3]
    b08c:	e59f104c 	ldr	r1, [pc, #76]	; b0e0 <.text+0x70e0>
    b090:	eb001dab 	bl	12744 <__gesf2>
    b094:	e59f3048 	ldr	r3, [pc, #72]	; b0e4 <.text+0x70e4>
    b098:	e3500000 	cmp	r0, #0	; 0x0
    b09c:	e3a02000 	mov	r2, #0	; 0x0
    b0a0:	c3a02001 	movgt	r2, #1	; 0x1
    b0a4:	e5c32000 	strb	r2, [r3]
    b0a8:	e59f3038 	ldr	r3, [pc, #56]	; b0e8 <.text+0x70e8>
    b0ac:	e5834000 	str	r4, [r3]
    b0b0:	e89d6830 	ldmia	sp, {r4, r5, fp, sp, lr}
    b0b4:	e12fff1e 	bx	lr
    b0b8:	40000034 	andmi	r0, r0, r4, lsr r0
    b0bc:	42c80000 	sbcmi	r0, r8, #0	; 0x0
    b0c0:	40000eb8 	strmih	r0, [r0], -r8
    b0c4:	400005a0 	andmi	r0, r0, r0, lsr #11
    b0c8:	40000f44 	andmi	r0, r0, r4, asr #30
    b0cc:	42200000 	eormi	r0, r0, #0	; 0x0
    b0d0:	40000064 	andmi	r0, r0, r4, rrx
    b0d4:	40000e4c 	andmi	r0, r0, ip, asr #28
    b0d8:	40000e64 	andmi	r0, r0, r4, ror #28
    b0dc:	40000ea0 	andmi	r0, r0, r0, lsr #29
    b0e0:	48742400 	ldmmida	r4!, {sl, sp}^
    b0e4:	40000e94 	mulmi	r0, r4, lr
    b0e8:	40000e6c 	andmi	r0, r0, ip, ror #28

0000b0ec <nav_update>:
    b0ec:	e1a0c00d 	mov	ip, sp
    b0f0:	e92ddff0 	stmdb	sp!, {r4, r5, r6, r7, r8, r9, sl, fp, ip, lr, pc}
    b0f4:	e59f26f0 	ldr	r2, [pc, #1776]	; b7ec <.text+0x77ec>
    b0f8:	e59f66d8 	ldr	r6, [pc, #1752]	; b7d8 <.text+0x77d8>
    b0fc:	e5921000 	ldr	r1, [r2]
    b100:	e24cb004 	sub	fp, ip, #4	; 0x4
    b104:	e596000c 	ldr	r0, [r6, #12]
    b108:	eb001c3b 	bl	121fc <__subsf3>
    b10c:	e59f967c 	ldr	r9, [pc, #1660]	; b790 <.text+0x7790>
    b110:	e1a05000 	mov	r5, r0
    b114:	e5991000 	ldr	r1, [r9]
    b118:	e5960010 	ldr	r0, [r6, #16]
    b11c:	eb001c36 	bl	121fc <__subsf3>
    b120:	e1a01005 	mov	r1, r5
    b124:	e1a04000 	mov	r4, r0
    b128:	e1a00005 	mov	r0, r5
    b12c:	eb001cb8 	bl	12414 <__mulsf3>
    b130:	e1a01004 	mov	r1, r4
    b134:	e1a05000 	mov	r5, r0
    b138:	e1a00004 	mov	r0, r4
    b13c:	eb001cb4 	bl	12414 <__mulsf3>
    b140:	e1a01000 	mov	r1, r0
    b144:	e1a00005 	mov	r0, r5
    b148:	eb001c2c 	bl	12200 <__addsf3>
    b14c:	e59f3640 	ldr	r3, [pc, #1600]	; b794 <.text+0x7794>
    b150:	e1a02000 	mov	r2, r0
    b154:	e5832000 	str	r2, [r3]
    b158:	e59f1638 	ldr	r1, [pc, #1592]	; b798 <.text+0x7798>
    b15c:	eb001d78 	bl	12744 <__gesf2>
    b160:	e3500000 	cmp	r0, #0	; 0x0
    b164:	e59f0630 	ldr	r0, [pc, #1584]	; b79c <.text+0x779c>
    b168:	e59f3630 	ldr	r3, [pc, #1584]	; b7a0 <.text+0x77a0>
    b16c:	e5d02000 	ldrb	r2, [r0]
    b170:	e3a01000 	mov	r1, #0	; 0x0
    b174:	c3a01001 	movgt	r1, #1	; 0x1
    b178:	e5c31000 	strb	r1, [r3]
    b17c:	e3520003 	cmp	r2, #3	; 0x3
    b180:	979ff102 	ldrls	pc, [pc, r2, lsl #2]
    b184:	ea0001e7 	b	b928 <.text+0x7928>
    b188:	0000b198 	muleq	r0, r8, r1
    b18c:	0000b2fc 	streqd	fp, [r0], -ip
    b190:	0000b550 	andeq	fp, r0, r0, asr r5
    b194:	0000b634 	andeq	fp, r0, r4, lsr r6
    b198:	e59fc604 	ldr	ip, [pc, #1540]	; b7a4 <.text+0x77a4>
    b19c:	e5dc1000 	ldrb	r1, [ip]
    b1a0:	e3a02000 	mov	r2, #0	; 0x0
    b1a4:	e3510000 	cmp	r1, #0	; 0x0
    b1a8:	e5c02000 	strb	r2, [r0]
    b1ac:	0a000005 	beq	b1c8 <.text+0x71c8>
    b1b0:	e3a03003 	mov	r3, #3	; 0x3
    b1b4:	e5c03000 	strb	r3, [r0]
    b1b8:	e59f3640 	ldr	r3, [pc, #1600]	; b800 <.text+0x7800>
    b1bc:	e5cc2000 	strb	r2, [ip]
    b1c0:	e1c320b0 	strh	r2, [r3]
    b1c4:	ea00006d 	b	b380 <.text+0x7380>
    b1c8:	e59fc5d8 	ldr	ip, [pc, #1496]	; b7a8 <.text+0x77a8>
    b1cc:	e5dc3000 	ldrb	r3, [ip]
    b1d0:	e3530000 	cmp	r3, #0	; 0x0
    b1d4:	e59fe5d0 	ldr	lr, [pc, #1488]	; b7ac <.text+0x77ac>
    b1d8:	0a000007 	beq	b1fc <.text+0x71fc>
    b1dc:	e59f25b8 	ldr	r2, [pc, #1464]	; b79c <.text+0x779c>
    b1e0:	e3a03001 	mov	r3, #1	; 0x1
    b1e4:	e5c23000 	strb	r3, [r2]
    b1e8:	e59f3610 	ldr	r3, [pc, #1552]	; b800 <.text+0x7800>
    b1ec:	e5ce1000 	strb	r1, [lr]
    b1f0:	e1c310b0 	strh	r1, [r3]
    b1f4:	e5cc1000 	strb	r1, [ip]
    b1f8:	ea0001c9 	b	b924 <.text+0x7924>
    b1fc:	e5de3000 	ldrb	r3, [lr]
    b200:	e1a0100e 	mov	r1, lr
    b204:	e3530004 	cmp	r3, #4	; 0x4
    b208:	979ff103 	ldrls	pc, [pc, r3, lsl #2]
    b20c:	ea00003a 	b	b2fc <.text+0x72fc>
    b210:	0000b224 	andeq	fp, r0, r4, lsr #4
    b214:	0000b248 	andeq	fp, r0, r8, asr #4
    b218:	0000b254 	andeq	fp, r0, r4, asr r2
    b21c:	0000b2c0 	andeq	fp, r0, r0, asr #5
    b220:	0000b2dc 	ldreqd	fp, [r0], -ip
    b224:	e59f3584 	ldr	r3, [pc, #1412]	; b7b0 <.text+0x77b0>
    b228:	e5d32000 	ldrb	r2, [r3]
    b22c:	e59f1578 	ldr	r1, [pc, #1400]	; b7ac <.text+0x77ac>
    b230:	e3a03000 	mov	r3, #0	; 0x0
    b234:	e3520000 	cmp	r2, #0	; 0x0
    b238:	e5c13000 	strb	r3, [r1]
    b23c:	02823001 	addeq	r3, r2, #1	; 0x1
    b240:	0a000023 	beq	b2d4 <.text+0x72d4>
    b244:	ea000002 	b	b254 <.text+0x7254>
    b248:	e3a03001 	mov	r3, #1	; 0x1
    b24c:	e5ce3000 	strb	r3, [lr]
    b250:	eafffff3 	b	b224 <.text+0x7224>
    b254:	e59f3558 	ldr	r3, [pc, #1368]	; b7b4 <.text+0x77b4>
    b258:	e59f454c 	ldr	r4, [pc, #1356]	; b7ac <.text+0x77ac>
    b25c:	e3a05002 	mov	r5, #2	; 0x2
    b260:	e5930000 	ldr	r0, [r3]
    b264:	e59f154c 	ldr	r1, [pc, #1356]	; b7b8 <.text+0x77b8>
    b268:	e5c45000 	strb	r5, [r4]
    b26c:	eb001d34 	bl	12744 <__gesf2>
    b270:	e3500000 	cmp	r0, #0	; 0x0
    b274:	c3a03003 	movgt	r3, #3	; 0x3
    b278:	ca000051 	bgt	b3c4 <.text+0x73c4>
    b27c:	e59f3538 	ldr	r3, [pc, #1336]	; b7bc <.text+0x77bc>
    b280:	e5c35000 	strb	r5, [r3]
    b284:	e59f3534 	ldr	r3, [pc, #1332]	; b7c0 <.text+0x77c0>
    b288:	e3a02000 	mov	r2, #0	; 0x0
    b28c:	e5832000 	str	r2, [r3]
    b290:	e59f355c 	ldr	r3, [pc, #1372]	; b7f4 <.text+0x77f4>
    b294:	e3a02000 	mov	r2, #0	; 0x0
    b298:	e5c32000 	strb	r2, [r3]
    b29c:	e59f2520 	ldr	r2, [pc, #1312]	; b7c4 <.text+0x77c4>
    b2a0:	e59f3550 	ldr	r3, [pc, #1360]	; b7f8 <.text+0x77f8>
    b2a4:	e5832000 	str	r2, [r3]
    b2a8:	e59f355c 	ldr	r3, [pc, #1372]	; b80c <.text+0x780c>
    b2ac:	e3a02001 	mov	r2, #1	; 0x1
    b2b0:	e5c32000 	strb	r2, [r3]
    b2b4:	e59f3540 	ldr	r3, [pc, #1344]	; b7fc <.text+0x77fc>
    b2b8:	e3a02d96 	mov	r2, #9600	; 0x2580
    b2bc:	ea000191 	b	b908 <.text+0x7908>
    b2c0:	e3a02001 	mov	r2, #1	; 0x1
    b2c4:	e5c02000 	strb	r2, [r0]
    b2c8:	e59f2530 	ldr	r2, [pc, #1328]	; b800 <.text+0x7800>
    b2cc:	e3a03000 	mov	r3, #0	; 0x0
    b2d0:	e1c230b0 	strh	r3, [r2]
    b2d4:	e5c13000 	strb	r3, [r1]
    b2d8:	ea000191 	b	b924 <.text+0x7924>
    b2dc:	e5d03000 	ldrb	r3, [r0]
    b2e0:	e2833001 	add	r3, r3, #1	; 0x1
    b2e4:	e5c03000 	strb	r3, [r0]
    b2e8:	e59f3510 	ldr	r3, [pc, #1296]	; b800 <.text+0x7800>
    b2ec:	e3a02000 	mov	r2, #0	; 0x0
    b2f0:	e1c320b0 	strh	r2, [r3]
    b2f4:	e5ce2000 	strb	r2, [lr]
    b2f8:	ea000189 	b	b924 <.text+0x7924>
    b2fc:	e59f04a0 	ldr	r0, [pc, #1184]	; b7a4 <.text+0x77a4>
    b300:	e5d02000 	ldrb	r2, [r0]
    b304:	e59f1490 	ldr	r1, [pc, #1168]	; b79c <.text+0x779c>
    b308:	e3a03001 	mov	r3, #1	; 0x1
    b30c:	e3520000 	cmp	r2, #0	; 0x0
    b310:	e5c13000 	strb	r3, [r1]
    b314:	0a000007 	beq	b338 <.text+0x7338>
    b318:	e59f24e0 	ldr	r2, [pc, #1248]	; b800 <.text+0x7800>
    b31c:	e2433001 	sub	r3, r3, #1	; 0x1
    b320:	e1c230b0 	strh	r3, [r2]
    b324:	e59f2480 	ldr	r2, [pc, #1152]	; b7ac <.text+0x77ac>
    b328:	e5c03000 	strb	r3, [r0]
    b32c:	e5c13000 	strb	r3, [r1]
    b330:	e5c23000 	strb	r3, [r2]
    b334:	ea00017a 	b	b924 <.text+0x7924>
    b338:	e59f0468 	ldr	r0, [pc, #1128]	; b7a8 <.text+0x77a8>
    b33c:	e5d03000 	ldrb	r3, [r0]
    b340:	e59fe464 	ldr	lr, [pc, #1124]	; b7ac <.text+0x77ac>
    b344:	e3530000 	cmp	r3, #0	; 0x0
    b348:	15ce2000 	strneb	r2, [lr]
    b34c:	13a03002 	movne	r3, #2	; 0x2
    b350:	1a000093 	bne	b5a4 <.text+0x75a4>
    b354:	e5de3000 	ldrb	r3, [lr]
    b358:	e1a0400e 	mov	r4, lr
    b35c:	e3530004 	cmp	r3, #4	; 0x4
    b360:	979ff103 	ldrls	pc, [pc, r3, lsl #2]
    b364:	ea000079 	b	b550 <.text+0x7550>
    b368:	0000b37c 	andeq	fp, r0, ip, ror r3
    b36c:	0000b38c 	andeq	fp, r0, ip, lsl #7
    b370:	0000b44c 	andeq	fp, r0, ip, asr #8
    b374:	0000b524 	andeq	fp, r0, r4, lsr #10
    b378:	0000b530 	andeq	fp, r0, r0, lsr r5
    b37c:	e3a02001 	mov	r2, #1	; 0x1
    b380:	e59f3424 	ldr	r3, [pc, #1060]	; b7ac <.text+0x77ac>
    b384:	e5c32000 	strb	r2, [r3]
    b388:	ea000165 	b	b924 <.text+0x7924>
    b38c:	e3a03001 	mov	r3, #1	; 0x1
    b390:	e596101c 	ldr	r1, [r6, #28]
    b394:	e5960018 	ldr	r0, [r6, #24]
    b398:	e3a025fe 	mov	r2, #1065353216	; 0x3f800000
    b39c:	e5ce3000 	strb	r3, [lr]
    b3a0:	ebfffe11 	bl	abec <nav_approaching_xy>
    b3a4:	e21080ff 	ands	r8, r0, #255	; 0xff
    b3a8:	e59f7428 	ldr	r7, [pc, #1064]	; b7d8 <.text+0x77d8>
    b3ac:	0a000006 	beq	b3cc <.text+0x73cc>
    b3b0:	e5d43000 	ldrb	r3, [r4]
    b3b4:	e3a01002 	mov	r1, #2	; 0x2
    b3b8:	e2833001 	add	r3, r3, #1	; 0x1
    b3bc:	e59f2418 	ldr	r2, [pc, #1048]	; b7dc <.text+0x77dc>
    b3c0:	e5c21000 	strb	r1, [r2]
    b3c4:	e5c43000 	strb	r3, [r4]
    b3c8:	ea000155 	b	b924 <.text+0x7924>
    b3cc:	e59f340c 	ldr	r3, [pc, #1036]	; b7e0 <.text+0x77e0>
    b3d0:	e597201c 	ldr	r2, [r7, #28]
    b3d4:	e5976018 	ldr	r6, [r7, #24]
    b3d8:	e5c38000 	strb	r8, [r3]
    b3dc:	e59f3400 	ldr	r3, [pc, #1024]	; b7e4 <.text+0x77e4>
    b3e0:	e5836000 	str	r6, [r3]
    b3e4:	e59f33fc 	ldr	r3, [pc, #1020]	; b7e8 <.text+0x77e8>
    b3e8:	e1a00002 	mov	r0, r2
    b3ec:	e5832000 	str	r2, [r3]
    b3f0:	e5991000 	ldr	r1, [r9]
    b3f4:	eb001b80 	bl	121fc <__subsf3>
    b3f8:	eb001989 	bl	11a24 <__extendsfdf2>
    b3fc:	e59f33e8 	ldr	r3, [pc, #1000]	; b7ec <.text+0x77ec>
    b400:	e1a05001 	mov	r5, r1
    b404:	e1a04000 	mov	r4, r0
    b408:	e5931000 	ldr	r1, [r3]
    b40c:	e1a00006 	mov	r0, r6
    b410:	eb001b79 	bl	121fc <__subsf3>
    b414:	eb001982 	bl	11a24 <__extendsfdf2>
    b418:	e1a03001 	mov	r3, r1
    b41c:	e1a02000 	mov	r2, r0
    b420:	e1a01005 	mov	r1, r5
    b424:	e1a00004 	mov	r0, r4
    b428:	eb001d20 	bl	128b0 <__atan2_from_arm>
    b42c:	e1a03001 	mov	r3, r1
    b430:	e1a02000 	mov	r2, r0
    b434:	e28f0e3f 	add	r0, pc, #1008	; 0x3f0
    b438:	e8900003 	ldmia	r0, {r0, r1}
    b43c:	eb0018a1 	bl	116c8 <__subdf3>
    b440:	eb001b2f 	bl	12104 <__truncdfsf2>
    b444:	e597c020 	ldr	ip, [r7, #32]
    b448:	ea00002a 	b	b4f8 <.text+0x74f8>
    b44c:	e3a03002 	mov	r3, #2	; 0x2
    b450:	e5961010 	ldr	r1, [r6, #16]
    b454:	e596000c 	ldr	r0, [r6, #12]
    b458:	e3a025fe 	mov	r2, #1065353216	; 0x3f800000
    b45c:	e5ce3000 	strb	r3, [lr]
    b460:	ebfffde1 	bl	abec <nav_approaching_xy>
    b464:	e21080ff 	ands	r8, r0, #255	; 0xff
    b468:	15d43000 	ldrneb	r3, [r4]
    b46c:	e59f7364 	ldr	r7, [pc, #868]	; b7d8 <.text+0x77d8>
    b470:	12833001 	addne	r3, r3, #1	; 0x1
    b474:	13a01001 	movne	r1, #1	; 0x1
    b478:	1affffcf 	bne	b3bc <.text+0x73bc>
    b47c:	e59f335c 	ldr	r3, [pc, #860]	; b7e0 <.text+0x77e0>
    b480:	e5972010 	ldr	r2, [r7, #16]
    b484:	e597600c 	ldr	r6, [r7, #12]
    b488:	e5c38000 	strb	r8, [r3]
    b48c:	e59f3350 	ldr	r3, [pc, #848]	; b7e4 <.text+0x77e4>
    b490:	e5836000 	str	r6, [r3]
    b494:	e59f334c 	ldr	r3, [pc, #844]	; b7e8 <.text+0x77e8>
    b498:	e5991000 	ldr	r1, [r9]
    b49c:	e5832000 	str	r2, [r3]
    b4a0:	e1a00002 	mov	r0, r2
    b4a4:	eb001b54 	bl	121fc <__subsf3>
    b4a8:	eb00195d 	bl	11a24 <__extendsfdf2>
    b4ac:	e59f2338 	ldr	r2, [pc, #824]	; b7ec <.text+0x77ec>
    b4b0:	e1a05001 	mov	r5, r1
    b4b4:	e1a04000 	mov	r4, r0
    b4b8:	e5921000 	ldr	r1, [r2]
    b4bc:	e1a00006 	mov	r0, r6
    b4c0:	eb001b4d 	bl	121fc <__subsf3>
    b4c4:	eb001956 	bl	11a24 <__extendsfdf2>
    b4c8:	e1a03001 	mov	r3, r1
    b4cc:	e1a02000 	mov	r2, r0
    b4d0:	e1a01005 	mov	r1, r5
    b4d4:	e1a00004 	mov	r0, r4
    b4d8:	eb001cf4 	bl	128b0 <__atan2_from_arm>
    b4dc:	e1a03001 	mov	r3, r1
    b4e0:	e1a02000 	mov	r2, r0
    b4e4:	e28f0d0d 	add	r0, pc, #832	; 0x340
    b4e8:	e8900003 	ldmia	r0, {r0, r1}
    b4ec:	eb001875 	bl	116c8 <__subdf3>
    b4f0:	eb001b03 	bl	12104 <__truncdfsf2>
    b4f4:	e597c014 	ldr	ip, [r7, #20]
    b4f8:	e59f32f0 	ldr	r3, [pc, #752]	; b7f0 <.text+0x77f0>
    b4fc:	e5830000 	str	r0, [r3]
    b500:	e59f32ec 	ldr	r3, [pc, #748]	; b7f4 <.text+0x77f4>
    b504:	e5c38000 	strb	r8, [r3]
    b508:	e59f32fc 	ldr	r3, [pc, #764]	; b80c <.text+0x780c>
    b50c:	e3a02003 	mov	r2, #3	; 0x3
    b510:	e5c32000 	strb	r2, [r3]
    b514:	e59f32fc 	ldr	r3, [pc, #764]	; b818 <.text+0x7818>
    b518:	e3a01000 	mov	r1, #0	; 0x0
    b51c:	e583c000 	str	ip, [r3]
    b520:	ea000095 	b	b77c <.text+0x777c>
    b524:	e3a03003 	mov	r3, #3	; 0x3
    b528:	e5ce3000 	strb	r3, [lr]
    b52c:	eaffff92 	b	b37c <.text+0x737c>
    b530:	e5d13000 	ldrb	r3, [r1]
    b534:	e2833001 	add	r3, r3, #1	; 0x1
    b538:	e5c13000 	strb	r3, [r1]
    b53c:	e59f32bc 	ldr	r3, [pc, #700]	; b800 <.text+0x7800>
    b540:	e3a02000 	mov	r2, #0	; 0x0
    b544:	e1c320b0 	strh	r2, [r3]
    b548:	e5ce2000 	strb	r2, [lr]
    b54c:	ea0000f4 	b	b924 <.text+0x7924>
    b550:	e59f0250 	ldr	r0, [pc, #592]	; b7a8 <.text+0x77a8>
    b554:	e5d02000 	ldrb	r2, [r0]
    b558:	e59f123c 	ldr	r1, [pc, #572]	; b79c <.text+0x779c>
    b55c:	e3a03002 	mov	r3, #2	; 0x2
    b560:	e3520000 	cmp	r2, #0	; 0x0
    b564:	e5c13000 	strb	r3, [r1]
    b568:	0a000006 	beq	b588 <.text+0x7588>
    b56c:	e2433001 	sub	r3, r3, #1	; 0x1
    b570:	e5c13000 	strb	r3, [r1]
    b574:	e59f3284 	ldr	r3, [pc, #644]	; b800 <.text+0x7800>
    b578:	e3a02000 	mov	r2, #0	; 0x0
    b57c:	e1c320b0 	strh	r2, [r3]
    b580:	e5c02000 	strb	r2, [r0]
    b584:	eaffff7d 	b	b380 <.text+0x7380>
    b588:	e59f0214 	ldr	r0, [pc, #532]	; b7a4 <.text+0x77a4>
    b58c:	e5d0c000 	ldrb	ip, [r0]
    b590:	e35c0000 	cmp	ip, #0	; 0x0
    b594:	e59fe210 	ldr	lr, [pc, #528]	; b7ac <.text+0x77ac>
    b598:	0a000006 	beq	b5b8 <.text+0x75b8>
    b59c:	e5ce2000 	strb	r2, [lr]
    b5a0:	e3a03003 	mov	r3, #3	; 0x3
    b5a4:	e5c13000 	strb	r3, [r1]
    b5a8:	e59f3250 	ldr	r3, [pc, #592]	; b800 <.text+0x7800>
    b5ac:	e1c320b0 	strh	r2, [r3]
    b5b0:	e5c02000 	strb	r2, [r0]
    b5b4:	ea0000da 	b	b924 <.text+0x7924>
    b5b8:	e5de2000 	ldrb	r2, [lr]
    b5bc:	e3520000 	cmp	r2, #0	; 0x0
    b5c0:	0a000002 	beq	b5d0 <.text+0x75d0>
    b5c4:	e3520001 	cmp	r2, #1	; 0x1
    b5c8:	0a000013 	beq	b61c <.text+0x761c>
    b5cc:	ea000018 	b	b634 <.text+0x7634>
    b5d0:	e5cec000 	strb	ip, [lr]
    b5d4:	e59f3218 	ldr	r3, [pc, #536]	; b7f4 <.text+0x77f4>
    b5d8:	e5961010 	ldr	r1, [r6, #16]
    b5dc:	e596000c 	ldr	r0, [r6, #12]
    b5e0:	e5c3c000 	strb	ip, [r3]
    b5e4:	e59f3220 	ldr	r3, [pc, #544]	; b80c <.text+0x780c>
    b5e8:	e3a0c003 	mov	ip, #3	; 0x3
    b5ec:	e5c3c000 	strb	ip, [r3]
    b5f0:	e59fc1d0 	ldr	ip, [pc, #464]	; b7c8 <.text+0x77c8>
    b5f4:	e59f321c 	ldr	r3, [pc, #540]	; b818 <.text+0x7818>
    b5f8:	e583c000 	str	ip, [r3]
    b5fc:	e59f31c8 	ldr	r3, [pc, #456]	; b7cc <.text+0x77cc>
    b600:	e3a0e000 	mov	lr, #0	; 0x0
    b604:	e583e000 	str	lr, [r3]
    b608:	e59f31e8 	ldr	r3, [pc, #488]	; b7f8 <.text+0x77f8>
    b60c:	e59f21bc 	ldr	r2, [pc, #444]	; b7d0 <.text+0x77d0>
    b610:	e583e000 	str	lr, [r3]
    b614:	ebfffc0d 	bl	a650 <nav_circle_XY>
    b618:	ea0000c2 	b	b928 <.text+0x7928>
    b61c:	e2833001 	add	r3, r3, #1	; 0x1
    b620:	e5c13000 	strb	r3, [r1]
    b624:	e59f31d4 	ldr	r3, [pc, #468]	; b800 <.text+0x7800>
    b628:	e5cec000 	strb	ip, [lr]
    b62c:	e1c3c0b0 	strh	ip, [r3]
    b630:	ea0000bb 	b	b924 <.text+0x7924>
    b634:	e59f116c 	ldr	r1, [pc, #364]	; b7a8 <.text+0x77a8>
    b638:	e5d12000 	ldrb	r2, [r1]
    b63c:	e59f0158 	ldr	r0, [pc, #344]	; b79c <.text+0x779c>
    b640:	e3a0a003 	mov	sl, #3	; 0x3
    b644:	e3520000 	cmp	r2, #0	; 0x0
    b648:	e5c0a000 	strb	sl, [r0]
    b64c:	0a000006 	beq	b66c <.text+0x766c>
    b650:	e3a03002 	mov	r3, #2	; 0x2
    b654:	e5c03000 	strb	r3, [r0]
    b658:	e59f31a0 	ldr	r3, [pc, #416]	; b800 <.text+0x7800>
    b65c:	e3a02000 	mov	r2, #0	; 0x0
    b660:	e1c320b0 	strh	r2, [r3]
    b664:	e5c12000 	strb	r2, [r1]
    b668:	eaffff44 	b	b380 <.text+0x7380>
    b66c:	e59f1130 	ldr	r1, [pc, #304]	; b7a4 <.text+0x77a4>
    b670:	e5d17000 	ldrb	r7, [r1]
    b674:	e3570000 	cmp	r7, #0	; 0x0
    b678:	e59fe12c 	ldr	lr, [pc, #300]	; b7ac <.text+0x77ac>
    b67c:	159f317c 	ldrne	r3, [pc, #380]	; b800 <.text+0x7800>
    b680:	15ce2000 	strneb	r2, [lr]
    b684:	11c320b0 	strneh	r2, [r3]
    b688:	15c12000 	strneb	r2, [r1]
    b68c:	1affffc7 	bne	b5b0 <.text+0x75b0>
    b690:	e5de8000 	ldrb	r8, [lr]
    b694:	e3580001 	cmp	r8, #1	; 0x1
    b698:	e1a0400e 	mov	r4, lr
    b69c:	0a000064 	beq	b834 <.text+0x7834>
    b6a0:	ca000002 	bgt	b6b0 <.text+0x76b0>
    b6a4:	e3580000 	cmp	r8, #0	; 0x0
    b6a8:	0a000003 	beq	b6bc <.text+0x76bc>
    b6ac:	ea00009d 	b	b928 <.text+0x7928>
    b6b0:	e3580002 	cmp	r8, #2	; 0x2
    b6b4:	0a000095 	beq	b910 <.text+0x7910>
    b6b8:	ea00009a 	b	b928 <.text+0x7928>
    b6bc:	e596101c 	ldr	r1, [r6, #28]
    b6c0:	e5960018 	ldr	r0, [r6, #24]
    b6c4:	e59f2108 	ldr	r2, [pc, #264]	; b7d4 <.text+0x77d4>
    b6c8:	e5ce7000 	strb	r7, [lr]
    b6cc:	ebfffd46 	bl	abec <nav_approaching_xy>
    b6d0:	e31000ff 	tst	r0, #255	; 0xff
    b6d4:	e59f30fc 	ldr	r3, [pc, #252]	; b7d8 <.text+0x77d8>
    b6d8:	1affff34 	bne	b3b0 <.text+0x73b0>
    b6dc:	e593201c 	ldr	r2, [r3, #28]
    b6e0:	e5936018 	ldr	r6, [r3, #24]
    b6e4:	e59f30f4 	ldr	r3, [pc, #244]	; b7e0 <.text+0x77e0>
    b6e8:	e5c37000 	strb	r7, [r3]
    b6ec:	e59f30f0 	ldr	r3, [pc, #240]	; b7e4 <.text+0x77e4>
    b6f0:	e5836000 	str	r6, [r3]
    b6f4:	e59f30ec 	ldr	r3, [pc, #236]	; b7e8 <.text+0x77e8>
    b6f8:	e1a00002 	mov	r0, r2
    b6fc:	e5832000 	str	r2, [r3]
    b700:	e5991000 	ldr	r1, [r9]
    b704:	eb001abc 	bl	121fc <__subsf3>
    b708:	eb0018c5 	bl	11a24 <__extendsfdf2>
    b70c:	e59f30d8 	ldr	r3, [pc, #216]	; b7ec <.text+0x77ec>
    b710:	e1a05001 	mov	r5, r1
    b714:	e1a04000 	mov	r4, r0
    b718:	e5931000 	ldr	r1, [r3]
    b71c:	e1a00006 	mov	r0, r6
    b720:	eb001ab5 	bl	121fc <__subsf3>
    b724:	eb0018be 	bl	11a24 <__extendsfdf2>
    b728:	e1a03001 	mov	r3, r1
    b72c:	e1a02000 	mov	r2, r0
    b730:	e1a01005 	mov	r1, r5
    b734:	e1a00004 	mov	r0, r4
    b738:	eb001c5c 	bl	128b0 <__atan2_from_arm>
    b73c:	e1a03001 	mov	r3, r1
    b740:	e1a02000 	mov	r2, r0
    b744:	e28f00e0 	add	r0, pc, #224	; 0xe0
    b748:	e8900003 	ldmia	r0, {r0, r1}
    b74c:	eb0017dd 	bl	116c8 <__subdf3>
    b750:	eb001a6b 	bl	12104 <__truncdfsf2>
    b754:	e59f3094 	ldr	r3, [pc, #148]	; b7f0 <.text+0x77f0>
    b758:	e5830000 	str	r0, [r3]
    b75c:	e59f3090 	ldr	r3, [pc, #144]	; b7f4 <.text+0x77f4>
    b760:	e5c37000 	strb	r7, [r3]
    b764:	e59f30a0 	ldr	r3, [pc, #160]	; b80c <.text+0x780c>
    b768:	e59f2048 	ldr	r2, [pc, #72]	; b7b8 <.text+0x77b8>
    b76c:	e5c3a000 	strb	sl, [r3]
    b770:	e59f30a0 	ldr	r3, [pc, #160]	; b818 <.text+0x7818>
    b774:	e5832000 	str	r2, [r3]
    b778:	e3a01000 	mov	r1, #0	; 0x0
    b77c:	e59f3048 	ldr	r3, [pc, #72]	; b7cc <.text+0x77cc>
    b780:	e5831000 	str	r1, [r3]
    b784:	e59f306c 	ldr	r3, [pc, #108]	; b7f8 <.text+0x77f8>
    b788:	e5831000 	str	r1, [r3]
    b78c:	ea000065 	b	b928 <.text+0x7928>
    b790:	40000e64 	andmi	r0, r0, r4, ror #28
    b794:	40000ea0 	andmi	r0, r0, r0, lsr #29
    b798:	48742400 	ldmmida	r4!, {sl, sp}^
    b79c:	40000e91 	mulmi	r0, r1, lr
    b7a0:	40000e94 	mulmi	r0, r4, lr
    b7a4:	400008e4 	andmi	r0, r0, r4, ror #17
    b7a8:	40000ae8 	andmi	r0, r0, r8, ror #21
    b7ac:	40000ea8 	andmi	r0, r0, r8, lsr #29
    b7b0:	400004f1 	strmid	r0, [r0], -r1
    b7b4:	40000e28 	andmi	r0, r0, r8, lsr #28
    b7b8:	44458000 	strmib	r8, [r5]
    b7bc:	400004f4 	strmid	r0, [r0], -r4
    b7c0:	40000f20 	andmi	r0, r0, r0, lsr #30
    b7c4:	3e99999a 	mrccc	9, 4, r9, cr9, cr10, {4}
    b7c8:	44480000 	strmib	r0, [r8]
    b7cc:	40000f68 	andmi	r0, r0, r8, ror #30
    b7d0:	41c80000 	bicmi	r0, r8, r0
    b7d4:	40a00000 	adcmi	r0, r0, r0
    b7d8:	40000034 	andmi	r0, r0, r4, lsr r0
    b7dc:	400005c4 	andmi	r0, r0, r4, asr #11
    b7e0:	40000e90 	mulmi	r0, r0, lr
    b7e4:	40000e74 	andmi	r0, r0, r4, ror lr
    b7e8:	40000e88 	andmi	r0, r0, r8, lsl #29
    b7ec:	40000e4c 	andmi	r0, r0, ip, asr #28
    b7f0:	40000ed0 	ldrmid	r0, [r0], -r0
    b7f4:	40000f30 	andmi	r0, r0, r0, lsr pc
    b7f8:	400005a0 	andmi	r0, r0, r0, lsr #11
    b7fc:	40000e80 	andmi	r0, r0, r0, lsl #29
    b800:	40000ec2 	andmi	r0, r0, r2, asr #29
    b804:	400005ad 	andmi	r0, r0, sp, lsr #11
    b808:	400005a8 	andmi	r0, r0, r8, lsr #11
    b80c:	40000f44 	andmi	r0, r0, r4, asr #30
    b810:	40000f0c 	andmi	r0, r0, ip, lsl #30
    b814:	40000f38 	andmi	r0, r0, r8, lsr pc
    b818:	40000064 	andmi	r0, r0, r4, rrx
    b81c:	400005b0 	strmih	r0, [r0], -r0
    b820:	40000ec8 	andmi	r0, r0, r8, asr #29
    b824:	400005a4 	andmi	r0, r0, r4, lsr #11
    b828:	40000f40 	andmi	r0, r0, r0, asr #30
    b82c:	3ff921fb 	swicc	0x00f921fb
    b830:	54442d18 	strplb	r2, [r4], #-3352
    b834:	e51f2068 	ldr	r2, [pc, #-104]	; b7d4 <.text+0x77d4>
    b838:	e5961010 	ldr	r1, [r6, #16]
    b83c:	e596000c 	ldr	r0, [r6, #12]
    b840:	e5ce8000 	strb	r8, [lr]
    b844:	ebfffce8 	bl	abec <nav_approaching_xy>
    b848:	e31000ff 	tst	r0, #255	; 0xff
    b84c:	e51f307c 	ldr	r3, [pc, #-124]	; b7d8 <.text+0x77d8>
    b850:	151f207c 	ldrne	r2, [pc, #-124]	; b7dc <.text+0x77dc>
    b854:	15d43000 	ldrneb	r3, [r4]
    b858:	15c28000 	strneb	r8, [r2]
    b85c:	12833001 	addne	r3, r3, #1	; 0x1
    b860:	1afffed7 	bne	b3c4 <.text+0x73c4>
    b864:	e5932010 	ldr	r2, [r3, #16]
    b868:	e593600c 	ldr	r6, [r3, #12]
    b86c:	e51f3094 	ldr	r3, [pc, #-148]	; b7e0 <.text+0x77e0>
    b870:	e5c37000 	strb	r7, [r3]
    b874:	e51f3098 	ldr	r3, [pc, #-152]	; b7e4 <.text+0x77e4>
    b878:	e5836000 	str	r6, [r3]
    b87c:	e51f309c 	ldr	r3, [pc, #-156]	; b7e8 <.text+0x77e8>
    b880:	e5991000 	ldr	r1, [r9]
    b884:	e5832000 	str	r2, [r3]
    b888:	e1a00002 	mov	r0, r2
    b88c:	eb001a5a 	bl	121fc <__subsf3>
    b890:	eb001863 	bl	11a24 <__extendsfdf2>
    b894:	e51f20b0 	ldr	r2, [pc, #-176]	; b7ec <.text+0x77ec>
    b898:	e1a05001 	mov	r5, r1
    b89c:	e1a04000 	mov	r4, r0
    b8a0:	e5921000 	ldr	r1, [r2]
    b8a4:	e1a00006 	mov	r0, r6
    b8a8:	eb001a53 	bl	121fc <__subsf3>
    b8ac:	eb00185c 	bl	11a24 <__extendsfdf2>
    b8b0:	e1a03001 	mov	r3, r1
    b8b4:	e1a02000 	mov	r2, r0
    b8b8:	e1a01005 	mov	r1, r5
    b8bc:	e1a00004 	mov	r0, r4
    b8c0:	eb001bfa 	bl	128b0 <__atan2_from_arm>
    b8c4:	e1a03001 	mov	r3, r1
    b8c8:	e1a02000 	mov	r2, r0
    b8cc:	e24f00a8 	sub	r0, pc, #168	; 0xa8
    b8d0:	e8900003 	ldmia	r0, {r0, r1}
    b8d4:	eb00177b 	bl	116c8 <__subdf3>
    b8d8:	eb001a09 	bl	12104 <__truncdfsf2>
    b8dc:	e51f30f4 	ldr	r3, [pc, #-244]	; b7f0 <.text+0x77f0>
    b8e0:	e5830000 	str	r0, [r3]
    b8e4:	e51f30f8 	ldr	r3, [pc, #-248]	; b7f4 <.text+0x77f4>
    b8e8:	e5c37000 	strb	r7, [r3]
    b8ec:	e51f30fc 	ldr	r3, [pc, #-252]	; b7f8 <.text+0x77f8>
    b8f0:	e3a02000 	mov	r2, #0	; 0x0
    b8f4:	e5832000 	str	r2, [r3]
    b8f8:	e51f30f4 	ldr	r3, [pc, #-244]	; b80c <.text+0x780c>
    b8fc:	e5c38000 	strb	r8, [r3]
    b900:	e51f310c 	ldr	r3, [pc, #-268]	; b7fc <.text+0x77fc>
    b904:	e3a02d1e 	mov	r2, #1920	; 0x780
    b908:	e1c320b0 	strh	r2, [r3]
    b90c:	ea000005 	b	b928 <.text+0x7928>
    b910:	e28a3001 	add	r3, sl, #1	; 0x1
    b914:	e5c03000 	strb	r3, [r0]
    b918:	e51f3120 	ldr	r3, [pc, #-288]	; b800 <.text+0x7800>
    b91c:	e5ce7000 	strb	r7, [lr]
    b920:	e1c370b0 	strh	r7, [r3]
    b924:	ebfffb29 	bl	a5d0 <nav_init_stage>
    b928:	e51f312c 	ldr	r3, [pc, #-300]	; b804 <.text+0x7804>
    b92c:	e5d33000 	ldrb	r3, [r3]
    b930:	e3530000 	cmp	r3, #0	; 0x0
    b934:	151f3134 	ldrne	r3, [pc, #-308]	; b808 <.text+0x7808>
    b938:	15932000 	ldrne	r2, [r3]
    b93c:	e51f3138 	ldr	r3, [pc, #-312]	; b80c <.text+0x780c>
    b940:	e5d33000 	ldrb	r3, [r3]
    b944:	03a02000 	moveq	r2, #0	; 0x0
    b948:	e3530002 	cmp	r3, #2	; 0x2
    b94c:	e51f3144 	ldr	r3, [pc, #-324]	; b810 <.text+0x7810>
    b950:	e5832000 	str	r2, [r3]
    b954:	051f3148 	ldreq	r3, [pc, #-328]	; b814 <.text+0x7814>
    b958:	03a02000 	moveq	r2, #0	; 0x0
    b95c:	05c32000 	streqb	r2, [r3]
    b960:	e51f3150 	ldr	r3, [pc, #-336]	; b818 <.text+0x7818>
    b964:	e51f5150 	ldr	r5, [pc, #-336]	; b81c <.text+0x781c>
    b968:	e5934000 	ldr	r4, [r3]
    b96c:	e5951000 	ldr	r1, [r5]
    b970:	e1a00004 	mov	r0, r4
    b974:	eb001a20 	bl	121fc <__subsf3>
    b978:	e3a015fe 	mov	r1, #1065353216	; 0x3f800000
    b97c:	e3c00102 	bic	r0, r0, #-2147483648	; 0x80000000
    b980:	eb001b6f 	bl	12744 <__gesf2>
    b984:	e3500000 	cmp	r0, #0	; 0x0
    b988:	c51f3170 	ldrgt	r3, [pc, #-368]	; b820 <.text+0x7820>
    b98c:	c5834000 	strgt	r4, [r3]
    b990:	e51f3178 	ldr	r3, [pc, #-376]	; b820 <.text+0x7820>
    b994:	e5930000 	ldr	r0, [r3]
    b998:	e51f317c 	ldr	r3, [pc, #-380]	; b824 <.text+0x7824>
    b99c:	c5854000 	strgt	r4, [r5]
    b9a0:	e5931000 	ldr	r1, [r3]
    b9a4:	eb001a15 	bl	12200 <__addsf3>
    b9a8:	e51f3188 	ldr	r3, [pc, #-392]	; b828 <.text+0x7828>
    b9ac:	e5830000 	str	r0, [r3]
    b9b0:	e89d6ff0 	ldmia	sp, {r4, r5, r6, r7, r8, r9, sl, fp, sp, lr}
    b9b4:	e12fff1e 	bx	lr

0000b9b8 <nav_init>:
    b9b8:	e59f3028 	ldr	r3, [pc, #40]	; b9e8 <.text+0x79e8>
    b9bc:	e3a01000 	mov	r1, #0	; 0x0
    b9c0:	e59f2024 	ldr	r2, [pc, #36]	; b9ec <.text+0x79ec>
    b9c4:	e5c31000 	strb	r1, [r3]
    b9c8:	e59f3020 	ldr	r3, [pc, #32]	; b9f0 <.text+0x79f0>
    b9cc:	e5832000 	str	r2, [r3]
    b9d0:	e59f301c 	ldr	r3, [pc, #28]	; b9f4 <.text+0x79f4>
    b9d4:	e3a02000 	mov	r2, #0	; 0x0
    b9d8:	e5832000 	str	r2, [r3]
    b9dc:	e59f3014 	ldr	r3, [pc, #20]	; b9f8 <.text+0x79f8>
    b9e0:	e5c31000 	strb	r1, [r3]
    b9e4:	e12fff1e 	bx	lr
    b9e8:	40000ea8 	andmi	r0, r0, r8, lsr #29
    b9ec:	443b8000 	ldrmit	r8, [fp]
    b9f0:	40000eb8 	strmih	r0, [r0], -r8
    b9f4:	40000e68 	andmi	r0, r0, r8, ror #28
    b9f8:	40000e91 	mulmi	r0, r1, lr

0000b9fc <nav_without_gps>:
    b9fc:	e59f3038 	ldr	r3, [pc, #56]	; ba3c <.text+0x7a3c>
    ba00:	e3a02002 	mov	r2, #2	; 0x2
    ba04:	e5c32000 	strb	r2, [r3]
    ba08:	e59f2030 	ldr	r2, [pc, #48]	; ba40 <.text+0x7a40>
    ba0c:	e59f3030 	ldr	r3, [pc, #48]	; ba44 <.text+0x7a44>
    ba10:	e5832000 	str	r2, [r3]
    ba14:	e59f302c 	ldr	r3, [pc, #44]	; ba48 <.text+0x7a48>
    ba18:	e3a0243f 	mov	r2, #1056964608	; 0x3f000000
    ba1c:	e5832000 	str	r2, [r3]
    ba20:	e59f3024 	ldr	r3, [pc, #36]	; ba4c <.text+0x7a4c>
    ba24:	e3a02001 	mov	r2, #1	; 0x1
    ba28:	e5c32000 	strb	r2, [r3]
    ba2c:	e59f301c 	ldr	r3, [pc, #28]	; ba50 <.text+0x7a50>
    ba30:	e3a02000 	mov	r2, #0	; 0x0
    ba34:	e1c320b0 	strh	r2, [r3]
    ba38:	e12fff1e 	bx	lr
    ba3c:	400004f4 	strmid	r0, [r0], -r4
    ba40:	3f19999a 	swicc	0x0019999a
    ba44:	40000f20 	andmi	r0, r0, r0, lsr #30
    ba48:	400005a0 	andmi	r0, r0, r0, lsr #11
    ba4c:	40000f44 	andmi	r0, r0, r4, asr #30
    ba50:	40000e80 	andmi	r0, r0, r0, lsl #29

0000ba54 <nav_eight_init>:
    ba54:	e59f3008 	ldr	r3, [pc, #8]	; ba64 <.text+0x7a64>
    ba58:	e3a02003 	mov	r2, #3	; 0x3
    ba5c:	e5832000 	str	r2, [r3]
    ba60:	e12fff1e 	bx	lr
    ba64:	400005f8 	strmid	r0, [r0], -r8

0000ba68 <nav_eight>:
    ba68:	e1a0c00d 	mov	ip, sp
    ba6c:	e92ddff0 	stmdb	sp!, {r4, r5, r6, r7, r8, r9, sl, fp, ip, lr, pc}
    ba70:	e20000ff 	and	r0, r0, #255	; 0xff
    ba74:	e24cb004 	sub	fp, ip, #4	; 0x4
    ba78:	e24dd058 	sub	sp, sp, #88	; 0x58
    ba7c:	e20110ff 	and	r1, r1, #255	; 0xff
    ba80:	e0800080 	add	r0, r0, r0, lsl #1
    ba84:	e1a07100 	mov	r7, r0, lsl #2
    ba88:	e50b1068 	str	r1, [fp, #-104]
    ba8c:	e1a00081 	mov	r0, r1, lsl #1
    ba90:	e59f1650 	ldr	r1, [pc, #1616]	; c0e8 <.text+0x80e8>
    ba94:	e0878001 	add	r8, r7, r1
    ba98:	e51b1068 	ldr	r1, [fp, #-104]
    ba9c:	e0803001 	add	r3, r0, r1
    baa0:	e1a09103 	mov	r9, r3, lsl #2
    baa4:	e5983008 	ldr	r3, [r8, #8]
    baa8:	e50b0074 	str	r0, [fp, #-116]
    baac:	e50b3070 	str	r3, [fp, #-112]
    bab0:	e59f0630 	ldr	r0, [pc, #1584]	; c0e8 <.text+0x80e8>
    bab4:	e50b206c 	str	r2, [fp, #-108]
    bab8:	e51b2070 	ldr	r2, [fp, #-112]
    babc:	e0893000 	add	r3, r9, r0
    bac0:	e5832008 	str	r2, [r3, #8]
    bac4:	e7971000 	ldr	r1, [r7, r0]
    bac8:	e7990000 	ldr	r0, [r9, r0]
    bacc:	e50b3078 	str	r3, [fp, #-120]
    bad0:	eb0019c9 	bl	121fc <__subsf3>
    bad4:	e51b3078 	ldr	r3, [fp, #-120]
    bad8:	e1a04000 	mov	r4, r0
    badc:	e5981004 	ldr	r1, [r8, #4]
    bae0:	e5930004 	ldr	r0, [r3, #4]
    bae4:	eb0019c4 	bl	121fc <__subsf3>
    bae8:	e1a01004 	mov	r1, r4
    baec:	e1a05000 	mov	r5, r0
    baf0:	e1a00004 	mov	r0, r4
    baf4:	eb001a46 	bl	12414 <__mulsf3>
    baf8:	e1a01005 	mov	r1, r5
    bafc:	e1a06000 	mov	r6, r0
    bb00:	e1a00005 	mov	r0, r5
    bb04:	eb001a42 	bl	12414 <__mulsf3>
    bb08:	e1a01000 	mov	r1, r0
    bb0c:	e1a00006 	mov	r0, r6
    bb10:	eb0019ba 	bl	12200 <__addsf3>
    bb14:	eb0017c2 	bl	11a24 <__extendsfdf2>
    bb18:	eb001b73 	bl	128ec <__sqrt_from_arm>
    bb1c:	eb001978 	bl	12104 <__truncdfsf2>
    bb20:	e1a06000 	mov	r6, r0
    bb24:	e1a01006 	mov	r1, r6
    bb28:	e1a00004 	mov	r0, r4
    bb2c:	eb001a9c 	bl	125a4 <__divsf3>
    bb30:	e1a01006 	mov	r1, r6
    bb34:	e50b007c 	str	r0, [fp, #-124]
    bb38:	e1a00005 	mov	r0, r5
    bb3c:	eb001a98 	bl	125a4 <__divsf3>
    bb40:	e50b0080 	str	r0, [fp, #-128]
    bb44:	e51b006c 	ldr	r0, [fp, #-108]
    bb48:	e1a01000 	mov	r1, r0
    bb4c:	eb0019ab 	bl	12200 <__addsf3>
    bb50:	e1a04000 	mov	r4, r0
    bb54:	e1a01004 	mov	r1, r4
    bb58:	e1a00006 	mov	r0, r6
    bb5c:	eb001af8 	bl	12744 <__gesf2>
    bb60:	e3500000 	cmp	r0, #0	; 0x0
    bb64:	da000011 	ble	bbb0 <nav_eight+0x148>
    bb68:	e51b107c 	ldr	r1, [fp, #-124]
    bb6c:	e1a00004 	mov	r0, r4
    bb70:	eb001a27 	bl	12414 <__mulsf3>
    bb74:	e59f256c 	ldr	r2, [pc, #1388]	; c0e8 <.text+0x80e8>
    bb78:	e1a01000 	mov	r1, r0
    bb7c:	e7970002 	ldr	r0, [r7, r2]
    bb80:	eb00199e 	bl	12200 <__addsf3>
    bb84:	e59f355c 	ldr	r3, [pc, #1372]	; c0e8 <.text+0x80e8>
    bb88:	e51b1080 	ldr	r1, [fp, #-128]
    bb8c:	e7890003 	str	r0, [r9, r3]
    bb90:	e1a00004 	mov	r0, r4
    bb94:	eb001a1e 	bl	12414 <__mulsf3>
    bb98:	e1a01000 	mov	r1, r0
    bb9c:	e5980004 	ldr	r0, [r8, #4]
    bba0:	eb001996 	bl	12200 <__addsf3>
    bba4:	e51b1078 	ldr	r1, [fp, #-120]
    bba8:	e5810004 	str	r0, [r1, #4]
    bbac:	e1a06004 	mov	r6, r4
    bbb0:	e51b107c 	ldr	r1, [fp, #-124]
    bbb4:	e1a00006 	mov	r0, r6
    bbb8:	eb001a15 	bl	12414 <__mulsf3>
    bbbc:	e59f2524 	ldr	r2, [pc, #1316]	; c0e8 <.text+0x80e8>
    bbc0:	e1a01000 	mov	r1, r0
    bbc4:	e7970002 	ldr	r0, [r7, r2]
    bbc8:	eb00198b 	bl	121fc <__subsf3>
    bbcc:	e51b1080 	ldr	r1, [fp, #-128]
    bbd0:	e1a0a000 	mov	sl, r0
    bbd4:	e1a00006 	mov	r0, r6
    bbd8:	e50ba034 	str	sl, [fp, #-52]
    bbdc:	eb001a0c 	bl	12414 <__mulsf3>
    bbe0:	e1a01000 	mov	r1, r0
    bbe4:	e5980004 	ldr	r0, [r8, #4]
    bbe8:	eb001983 	bl	121fc <__subsf3>
    bbec:	e51b3080 	ldr	r3, [fp, #-128]
    bbf0:	e51b2070 	ldr	r2, [fp, #-112]
    bbf4:	e1a08000 	mov	r8, r0
    bbf8:	e2231102 	eor	r1, r3, #-2147483648	; 0x80000000
    bbfc:	e51b006c 	ldr	r0, [fp, #-108]
    bc00:	e50b202c 	str	r2, [fp, #-44]
    bc04:	e50b8030 	str	r8, [fp, #-48]
    bc08:	eb001a01 	bl	12414 <__mulsf3>
    bc0c:	e59f34d4 	ldr	r3, [pc, #1236]	; c0e8 <.text+0x80e8>
    bc10:	e7997003 	ldr	r7, [r9, r3]
    bc14:	e1a05000 	mov	r5, r0
    bc18:	e1a01000 	mov	r1, r0
    bc1c:	e1a00007 	mov	r0, r7
    bc20:	eb001976 	bl	12200 <__addsf3>
    bc24:	e51b107c 	ldr	r1, [fp, #-124]
    bc28:	e50b0040 	str	r0, [fp, #-64]
    bc2c:	e51b006c 	ldr	r0, [fp, #-108]
    bc30:	eb0019f7 	bl	12414 <__mulsf3>
    bc34:	e1a04000 	mov	r4, r0
    bc38:	e51b0078 	ldr	r0, [fp, #-120]
    bc3c:	e5906004 	ldr	r6, [r0, #4]
    bc40:	e1a01004 	mov	r1, r4
    bc44:	e1a00006 	mov	r0, r6
    bc48:	eb00196c 	bl	12200 <__addsf3>
    bc4c:	e51b2070 	ldr	r2, [fp, #-112]
    bc50:	e1a01005 	mov	r1, r5
    bc54:	e50b003c 	str	r0, [fp, #-60]
    bc58:	e1a00007 	mov	r0, r7
    bc5c:	e50b2038 	str	r2, [fp, #-56]
    bc60:	eb001965 	bl	121fc <__subsf3>
    bc64:	e1a01004 	mov	r1, r4
    bc68:	e50b004c 	str	r0, [fp, #-76]
    bc6c:	e1a00006 	mov	r0, r6
    bc70:	eb001961 	bl	121fc <__subsf3>
    bc74:	e51b3070 	ldr	r3, [fp, #-112]
    bc78:	e1a01005 	mov	r1, r5
    bc7c:	e50b0048 	str	r0, [fp, #-72]
    bc80:	e1a0000a 	mov	r0, sl
    bc84:	e50b3044 	str	r3, [fp, #-68]
    bc88:	eb00195c 	bl	12200 <__addsf3>
    bc8c:	e1a01004 	mov	r1, r4
    bc90:	e50b0058 	str	r0, [fp, #-88]
    bc94:	e1a00008 	mov	r0, r8
    bc98:	eb001958 	bl	12200 <__addsf3>
    bc9c:	e51b2070 	ldr	r2, [fp, #-112]
    bca0:	e1a01005 	mov	r1, r5
    bca4:	e50b0054 	str	r0, [fp, #-84]
    bca8:	e1a0000a 	mov	r0, sl
    bcac:	e50b2050 	str	r2, [fp, #-80]
    bcb0:	eb001951 	bl	121fc <__subsf3>
    bcb4:	e1a01004 	mov	r1, r4
    bcb8:	e50b0064 	str	r0, [fp, #-100]
    bcbc:	e1a00008 	mov	r0, r8
    bcc0:	eb00194d 	bl	121fc <__subsf3>
    bcc4:	e51b3070 	ldr	r3, [fp, #-112]
    bcc8:	e50b0060 	str	r0, [fp, #-96]
    bccc:	e51b0080 	ldr	r0, [fp, #-128]
    bcd0:	e50b305c 	str	r3, [fp, #-92]
    bcd4:	eb001752 	bl	11a24 <__extendsfdf2>
    bcd8:	e1a05001 	mov	r5, r1
    bcdc:	e1a04000 	mov	r4, r0
    bce0:	e51b007c 	ldr	r0, [fp, #-124]
    bce4:	eb00174e 	bl	11a24 <__extendsfdf2>
    bce8:	e1a03001 	mov	r3, r1
    bcec:	e1a02000 	mov	r2, r0
    bcf0:	e1a01005 	mov	r1, r5
    bcf4:	e1a00004 	mov	r0, r4
    bcf8:	eb001aec 	bl	128b0 <__atan2_from_arm>
    bcfc:	e1a03001 	mov	r3, r1
    bd00:	e1a02000 	mov	r2, r0
    bd04:	e28f0fef 	add	r0, pc, #956	; 0x3bc
    bd08:	e8900003 	ldmia	r0, {r0, r1}
    bd0c:	eb00166d 	bl	116c8 <__subdf3>
    bd10:	eb0018fb 	bl	12104 <__truncdfsf2>
    bd14:	e59f63d0 	ldr	r6, [pc, #976]	; c0ec <.text+0x80ec>
    bd18:	e5963000 	ldr	r3, [r6]
    bd1c:	e1a04000 	mov	r4, r0
    bd20:	e3530003 	cmp	r3, #3	; 0x3
    bd24:	979ff103 	ldrls	pc, [pc, r3, lsl #2]
    bd28:	ea0000e3 	b	c0bc <.text+0x80bc>
    bd2c:	0000bed0 	ldreqd	fp, [r0], -r0
    bd30:	0000bf04 	andeq	fp, r0, r4, lsl #30
    bd34:	0000c084 	andeq	ip, r0, r4, lsl #1
    bd38:	0000bd3c 	andeq	fp, r0, ip, lsr sp
    bd3c:	e51b0074 	ldr	r0, [fp, #-116]
    bd40:	e51b1068 	ldr	r1, [fp, #-104]
    bd44:	e59f239c 	ldr	r2, [pc, #924]	; c0e8 <.text+0x80e8>
    bd48:	e0803001 	add	r3, r0, r1
    bd4c:	e1a03103 	mov	r3, r3, lsl #2
    bd50:	e0831002 	add	r1, r3, r2
    bd54:	e7930002 	ldr	r0, [r3, r2]
    bd58:	e5911004 	ldr	r1, [r1, #4]
    bd5c:	e51b206c 	ldr	r2, [fp, #-108]
    bd60:	ebfffa3a 	bl	a650 <nav_circle_XY>
    bd64:	e1a00004 	mov	r0, r4
    bd68:	eb00172d 	bl	11a24 <__extendsfdf2>
    bd6c:	e28f2fd5 	add	r2, pc, #852	; 0x354
    bd70:	e892000c 	ldmia	r2, {r2, r3}
    bd74:	eb0017db 	bl	11ce8 <__divdf3>
    bd78:	e28f2e35 	add	r2, pc, #848	; 0x350
    bd7c:	e892000c 	ldmia	r2, {r2, r3}
    bd80:	eb00173a 	bl	11a70 <__muldf3>
    bd84:	e28f2fd3 	add	r2, pc, #844	; 0x34c
    bd88:	e892000c 	ldmia	r2, {r2, r3}
    bd8c:	eb00164d 	bl	116c8 <__subdf3>
    bd90:	eb0018db 	bl	12104 <__truncdfsf2>
    bd94:	ea000000 	b	bd9c <.text+0x7d9c>
    bd98:	eb001918 	bl	12200 <__addsf3>
    bd9c:	e3a01000 	mov	r1, #0	; 0x0
    bda0:	e1a05000 	mov	r5, r0
    bda4:	eb001a68 	bl	1274c <__lesf2>
    bda8:	e3500000 	cmp	r0, #0	; 0x0
    bdac:	e59f133c 	ldr	r1, [pc, #828]	; c0f0 <.text+0x80f0>
    bdb0:	e1a00005 	mov	r0, r5
    bdb4:	bafffff7 	blt	bd98 <.text+0x7d98>
    bdb8:	ea000001 	b	bdc4 <.text+0x7dc4>
    bdbc:	eb00190e 	bl	121fc <__subsf3>
    bdc0:	e1a05000 	mov	r5, r0
    bdc4:	e59f1324 	ldr	r1, [pc, #804]	; c0f0 <.text+0x80f0>
    bdc8:	e1a00005 	mov	r0, r5
    bdcc:	eb001a5c 	bl	12744 <__gesf2>
    bdd0:	e3500000 	cmp	r0, #0	; 0x0
    bdd4:	e59f1314 	ldr	r1, [pc, #788]	; c0f0 <.text+0x80f0>
    bdd8:	e1a00005 	mov	r0, r5
    bddc:	aafffff6 	bge	bdbc <.text+0x7dbc>
    bde0:	e59f330c 	ldr	r3, [pc, #780]	; c0f4 <.text+0x80f4>
    bde4:	e5930000 	ldr	r0, [r3]
    bde8:	eb00170d 	bl	11a24 <__extendsfdf2>
    bdec:	e1a03001 	mov	r3, r1
    bdf0:	e1a02000 	mov	r2, r0
    bdf4:	e28f0fb9 	add	r0, pc, #740	; 0x2e4
    bdf8:	e8900003 	ldmia	r0, {r0, r1}
    bdfc:	eb001631 	bl	116c8 <__subdf3>
    be00:	e28f2d0b 	add	r2, pc, #704	; 0x2c0
    be04:	e892000c 	ldmia	r2, {r2, r3}
    be08:	eb0017b6 	bl	11ce8 <__divdf3>
    be0c:	e28f2faf 	add	r2, pc, #700	; 0x2bc
    be10:	e892000c 	ldmia	r2, {r2, r3}
    be14:	eb001715 	bl	11a70 <__muldf3>
    be18:	eb0018b9 	bl	12104 <__truncdfsf2>
    be1c:	ea000000 	b	be24 <.text+0x7e24>
    be20:	eb0018f6 	bl	12200 <__addsf3>
    be24:	e3a01000 	mov	r1, #0	; 0x0
    be28:	e1a04000 	mov	r4, r0
    be2c:	eb001a46 	bl	1274c <__lesf2>
    be30:	e3500000 	cmp	r0, #0	; 0x0
    be34:	e59f12b4 	ldr	r1, [pc, #692]	; c0f0 <.text+0x80f0>
    be38:	e1a00004 	mov	r0, r4
    be3c:	bafffff7 	blt	be20 <.text+0x7e20>
    be40:	ea000001 	b	be4c <.text+0x7e4c>
    be44:	eb0018ec 	bl	121fc <__subsf3>
    be48:	e1a04000 	mov	r4, r0
    be4c:	e59f129c 	ldr	r1, [pc, #668]	; c0f0 <.text+0x80f0>
    be50:	e1a00004 	mov	r0, r4
    be54:	eb001a3a 	bl	12744 <__gesf2>
    be58:	e3500000 	cmp	r0, #0	; 0x0
    be5c:	e59f128c 	ldr	r1, [pc, #652]	; c0f0 <.text+0x80f0>
    be60:	e1a00004 	mov	r0, r4
    be64:	aafffff6 	bge	be44 <.text+0x7e44>
    be68:	e1a00005 	mov	r0, r5
    be6c:	e59f1284 	ldr	r1, [pc, #644]	; c0f8 <.text+0x80f8>
    be70:	eb001a35 	bl	1274c <__lesf2>
    be74:	e3500000 	cmp	r0, #0	; 0x0
    be78:	aa000005 	bge	be94 <.text+0x7e94>
    be7c:	e1a00005 	mov	r0, r5
    be80:	e1a01004 	mov	r1, r4
    be84:	eb001a30 	bl	1274c <__lesf2>
    be88:	e3500000 	cmp	r0, #0	; 0x0
    be8c:	ba000005 	blt	bea8 <.text+0x7ea8>
    be90:	ea000089 	b	c0bc <.text+0x80bc>
    be94:	e1a00004 	mov	r0, r4
    be98:	e59f1258 	ldr	r1, [pc, #600]	; c0f8 <.text+0x80f8>
    be9c:	eb001a28 	bl	12744 <__gesf2>
    bea0:	e3500000 	cmp	r0, #0	; 0x0
    bea4:	da000084 	ble	c0bc <.text+0x80bc>
    bea8:	e59f124c 	ldr	r1, [pc, #588]	; c0fc <.text+0x80fc>
    beac:	e1a00005 	mov	r0, r5
    beb0:	eb0018d2 	bl	12200 <__addsf3>
    beb4:	e1a01000 	mov	r1, r0
    beb8:	e1a00004 	mov	r0, r4
    bebc:	eb001a22 	bl	1274c <__lesf2>
    bec0:	e3500000 	cmp	r0, #0	; 0x0
    bec4:	b3a03000 	movlt	r3, #0	; 0x0
    bec8:	ba000079 	blt	c0b4 <.text+0x80b4>
    becc:	ea00007a 	b	c0bc <.text+0x80bc>
    bed0:	e51b3054 	ldr	r3, [fp, #-84]
    bed4:	e51b004c 	ldr	r0, [fp, #-76]
    bed8:	e51b1048 	ldr	r1, [fp, #-72]
    bedc:	e51b2058 	ldr	r2, [fp, #-88]
    bee0:	ebfffb85 	bl	acfc <nav_route_xy>
    bee4:	e51b0058 	ldr	r0, [fp, #-88]
    bee8:	e51b1054 	ldr	r1, [fp, #-84]
    beec:	e59f220c 	ldr	r2, [pc, #524]	; c100 <.text+0x8100>
    bef0:	ebfffb3d 	bl	abec <nav_approaching_xy>
    bef4:	e31000ff 	tst	r0, #255	; 0xff
    bef8:	13a03001 	movne	r3, #1	; 0x1
    befc:	1a00006c 	bne	c0b4 <.text+0x80b4>
    bf00:	ea00006d 	b	c0bc <.text+0x80bc>
    bf04:	e51b306c 	ldr	r3, [fp, #-108]
    bf08:	e51b0034 	ldr	r0, [fp, #-52]
    bf0c:	e2232102 	eor	r2, r3, #-2147483648	; 0x80000000
    bf10:	e51b1030 	ldr	r1, [fp, #-48]
    bf14:	ebfff9cd 	bl	a650 <nav_circle_XY>
    bf18:	e1a00004 	mov	r0, r4
    bf1c:	eb0016c0 	bl	11a24 <__extendsfdf2>
    bf20:	e28f2e1a 	add	r2, pc, #416	; 0x1a0
    bf24:	e892000c 	ldmia	r2, {r2, r3}
    bf28:	eb00176e 	bl	11ce8 <__divdf3>
    bf2c:	e28f2f67 	add	r2, pc, #412	; 0x19c
    bf30:	e892000c 	ldmia	r2, {r2, r3}
    bf34:	eb0016cd 	bl	11a70 <__muldf3>
    bf38:	e28f2f66 	add	r2, pc, #408	; 0x198
    bf3c:	e892000c 	ldmia	r2, {r2, r3}
    bf40:	eb0015e1 	bl	116cc <__adddf3>
    bf44:	eb00186e 	bl	12104 <__truncdfsf2>
    bf48:	ea000000 	b	bf50 <.text+0x7f50>
    bf4c:	eb0018ab 	bl	12200 <__addsf3>
    bf50:	e3a01000 	mov	r1, #0	; 0x0
    bf54:	e1a05000 	mov	r5, r0
    bf58:	eb0019fb 	bl	1274c <__lesf2>
    bf5c:	e3500000 	cmp	r0, #0	; 0x0
    bf60:	e59f1188 	ldr	r1, [pc, #392]	; c0f0 <.text+0x80f0>
    bf64:	e1a00005 	mov	r0, r5
    bf68:	bafffff7 	blt	bf4c <.text+0x7f4c>
    bf6c:	ea000001 	b	bf78 <.text+0x7f78>
    bf70:	eb0018a1 	bl	121fc <__subsf3>
    bf74:	e1a05000 	mov	r5, r0
    bf78:	e59f1170 	ldr	r1, [pc, #368]	; c0f0 <.text+0x80f0>
    bf7c:	e1a00005 	mov	r0, r5
    bf80:	eb0019ef 	bl	12744 <__gesf2>
    bf84:	e3500000 	cmp	r0, #0	; 0x0
    bf88:	e59f1160 	ldr	r1, [pc, #352]	; c0f0 <.text+0x80f0>
    bf8c:	e1a00005 	mov	r0, r5
    bf90:	aafffff6 	bge	bf70 <.text+0x7f70>
    bf94:	e59f3158 	ldr	r3, [pc, #344]	; c0f4 <.text+0x80f4>
    bf98:	e5930000 	ldr	r0, [r3]
    bf9c:	eb0016a0 	bl	11a24 <__extendsfdf2>
    bfa0:	e1a03001 	mov	r3, r1
    bfa4:	e1a02000 	mov	r2, r0
    bfa8:	e28f0e13 	add	r0, pc, #304	; 0x130
    bfac:	e8900003 	ldmia	r0, {r0, r1}
    bfb0:	eb0015c4 	bl	116c8 <__subdf3>
    bfb4:	e28f2f43 	add	r2, pc, #268	; 0x10c
    bfb8:	e892000c 	ldmia	r2, {r2, r3}
    bfbc:	eb001749 	bl	11ce8 <__divdf3>
    bfc0:	e28f2f42 	add	r2, pc, #264	; 0x108
    bfc4:	e892000c 	ldmia	r2, {r2, r3}
    bfc8:	eb0016a8 	bl	11a70 <__muldf3>
    bfcc:	eb00184c 	bl	12104 <__truncdfsf2>
    bfd0:	ea000000 	b	bfd8 <.text+0x7fd8>
    bfd4:	eb001889 	bl	12200 <__addsf3>
    bfd8:	e3a01000 	mov	r1, #0	; 0x0
    bfdc:	e1a04000 	mov	r4, r0
    bfe0:	eb0019d9 	bl	1274c <__lesf2>
    bfe4:	e3500000 	cmp	r0, #0	; 0x0
    bfe8:	e59f1100 	ldr	r1, [pc, #256]	; c0f0 <.text+0x80f0>
    bfec:	e1a00004 	mov	r0, r4
    bff0:	bafffff7 	blt	bfd4 <.text+0x7fd4>
    bff4:	ea000001 	b	c000 <.text+0x8000>
    bff8:	eb00187f 	bl	121fc <__subsf3>
    bffc:	e1a04000 	mov	r4, r0
    c000:	e59f10e8 	ldr	r1, [pc, #232]	; c0f0 <.text+0x80f0>
    c004:	e1a00004 	mov	r0, r4
    c008:	eb0019cd 	bl	12744 <__gesf2>
    c00c:	e3500000 	cmp	r0, #0	; 0x0
    c010:	e59f10d8 	ldr	r1, [pc, #216]	; c0f0 <.text+0x80f0>
    c014:	e1a00004 	mov	r0, r4
    c018:	aafffff6 	bge	bff8 <.text+0x7ff8>
    c01c:	e1a00005 	mov	r0, r5
    c020:	e59f10d0 	ldr	r1, [pc, #208]	; c0f8 <.text+0x80f8>
    c024:	eb0019c8 	bl	1274c <__lesf2>
    c028:	e3500000 	cmp	r0, #0	; 0x0
    c02c:	aa000005 	bge	c048 <.text+0x8048>
    c030:	e1a00005 	mov	r0, r5
    c034:	e1a01004 	mov	r1, r4
    c038:	eb0019c3 	bl	1274c <__lesf2>
    c03c:	e3500000 	cmp	r0, #0	; 0x0
    c040:	ba000005 	blt	c05c <.text+0x805c>
    c044:	ea00001c 	b	c0bc <.text+0x80bc>
    c048:	e1a00004 	mov	r0, r4
    c04c:	e59f10a4 	ldr	r1, [pc, #164]	; c0f8 <.text+0x80f8>
    c050:	eb0019bb 	bl	12744 <__gesf2>
    c054:	e3500000 	cmp	r0, #0	; 0x0
    c058:	da000017 	ble	c0bc <.text+0x80bc>
    c05c:	e59f1098 	ldr	r1, [pc, #152]	; c0fc <.text+0x80fc>
    c060:	e1a00005 	mov	r0, r5
    c064:	eb001865 	bl	12200 <__addsf3>
    c068:	e1a01000 	mov	r1, r0
    c06c:	e1a00004 	mov	r0, r4
    c070:	eb0019b5 	bl	1274c <__lesf2>
    c074:	e3500000 	cmp	r0, #0	; 0x0
    c078:	b3a03002 	movlt	r3, #2	; 0x2
    c07c:	ba00000c 	blt	c0b4 <.text+0x80b4>
    c080:	ea00000d 	b	c0bc <.text+0x80bc>
    c084:	e51b0064 	ldr	r0, [fp, #-100]
    c088:	e51b1060 	ldr	r1, [fp, #-96]
    c08c:	e51b2040 	ldr	r2, [fp, #-64]
    c090:	e51b303c 	ldr	r3, [fp, #-60]
    c094:	ebfffb18 	bl	acfc <nav_route_xy>
    c098:	e51b0040 	ldr	r0, [fp, #-64]
    c09c:	e51b103c 	ldr	r1, [fp, #-60]
    c0a0:	e59f2058 	ldr	r2, [pc, #88]	; c100 <.text+0x8100>
    c0a4:	ebfffad0 	bl	abec <nav_approaching_xy>
    c0a8:	e31000ff 	tst	r0, #255	; 0xff
    c0ac:	0a000002 	beq	c0bc <.text+0x80bc>
    c0b0:	e3a03003 	mov	r3, #3	; 0x3
    c0b4:	e5863000 	str	r3, [r6]
    c0b8:	ebfff944 	bl	a5d0 <nav_init_stage>
    c0bc:	e24bd028 	sub	sp, fp, #40	; 0x28
    c0c0:	e89d6ff0 	ldmia	sp, {r4, r5, r6, r7, r8, r9, sl, fp, sp, lr}
    c0c4:	e12fff1e 	bx	lr
    c0c8:	400921fb 	strmid	r2, [r9], -fp
    c0cc:	54442d18 	strplb	r2, [r4], #-3352
    c0d0:	40668000 	rsbmi	r8, r6, r0
    c0d4:	00000000 	andeq	r0, r0, r0
    c0d8:	40240000 	eormi	r0, r4, r0
    c0dc:	00000000 	andeq	r0, r0, r0
    c0e0:	3ff921fb 	swicc	0x00f921fb
    c0e4:	54442d18 	strplb	r2, [r4], #-3352
    c0e8:	40000034 	andmi	r0, r0, r4, lsr r0
    c0ec:	400005f8 	strmid	r0, [r0], -r8
    c0f0:	43b40000 	movmis	r0, #0	; 0x0
    c0f4:	40000ec4 	andmi	r0, r0, r4, asr #29
    c0f8:	43af0000 	movmi	r0, #0	; 0x0
    c0fc:	41200000 	teqmi	r0, r0
    c100:	40a00000 	adcmi	r0, r0, r0

0000c104 <nav_oval_init>:
    c104:	e59f3008 	ldr	r3, [pc, #8]	; c114 <.text+0x8114>
    c108:	e3a02001 	mov	r2, #1	; 0x1
    c10c:	e5832000 	str	r2, [r3]
    c110:	e12fff1e 	bx	lr
    c114:	400005fc 	strmid	r0, [r0], -ip

0000c118 <nav_oval>:
    c118:	e1a0c00d 	mov	ip, sp
    c11c:	e92ddff0 	stmdb	sp!, {r4, r5, r6, r7, r8, r9, sl, fp, ip, lr, pc}
    c120:	e20000ff 	and	r0, r0, #255	; 0xff
    c124:	e24cb004 	sub	fp, ip, #4	; 0x4
    c128:	e24dd054 	sub	sp, sp, #84	; 0x54
    c12c:	e1a03080 	mov	r3, r0, lsl #1
    c130:	e0837000 	add	r7, r3, r0
    c134:	e50b3068 	str	r3, [fp, #-104]
    c138:	e20110ff 	and	r1, r1, #255	; 0xff
    c13c:	e59f35b8 	ldr	r3, [pc, #1464]	; c6fc <.text+0x86fc>
    c140:	e1a07107 	mov	r7, r7, lsl #2
    c144:	e50b1060 	str	r1, [fp, #-96]
    c148:	e087a003 	add	sl, r7, r3
    c14c:	e51b3060 	ldr	r3, [fp, #-96]
    c150:	e1a01081 	mov	r1, r1, lsl #1
    c154:	e0818003 	add	r8, r1, r3
    c158:	e59f359c 	ldr	r3, [pc, #1436]	; c6fc <.text+0x86fc>
    c15c:	e1a08108 	mov	r8, r8, lsl #2
    c160:	e50b106c 	str	r1, [fp, #-108]
    c164:	e0883003 	add	r3, r8, r3
    c168:	e59a1008 	ldr	r1, [sl, #8]
    c16c:	e50b3070 	str	r3, [fp, #-112]
    c170:	e59f3584 	ldr	r3, [pc, #1412]	; c6fc <.text+0x86fc>
    c174:	e50b1064 	str	r1, [fp, #-100]
    c178:	e1a09002 	mov	r9, r2
    c17c:	e7981003 	ldr	r1, [r8, r3]
    c180:	e51b2070 	ldr	r2, [fp, #-112]
    c184:	e50b005c 	str	r0, [fp, #-92]
    c188:	e7970003 	ldr	r0, [r7, r3]
    c18c:	e51b3064 	ldr	r3, [fp, #-100]
    c190:	e5823008 	str	r3, [r2, #8]
    c194:	eb001818 	bl	121fc <__subsf3>
    c198:	e51b2070 	ldr	r2, [fp, #-112]
    c19c:	e1a05000 	mov	r5, r0
    c1a0:	e5921004 	ldr	r1, [r2, #4]
    c1a4:	e59a0004 	ldr	r0, [sl, #4]
    c1a8:	eb001813 	bl	121fc <__subsf3>
    c1ac:	e1a01005 	mov	r1, r5
    c1b0:	e1a06000 	mov	r6, r0
    c1b4:	e1a00005 	mov	r0, r5
    c1b8:	eb001895 	bl	12414 <__mulsf3>
    c1bc:	e1a01006 	mov	r1, r6
    c1c0:	e1a04000 	mov	r4, r0
    c1c4:	e1a00006 	mov	r0, r6
    c1c8:	eb001891 	bl	12414 <__mulsf3>
    c1cc:	e1a01000 	mov	r1, r0
    c1d0:	e1a00004 	mov	r0, r4
    c1d4:	eb001809 	bl	12200 <__addsf3>
    c1d8:	eb001611 	bl	11a24 <__extendsfdf2>
    c1dc:	eb0019c2 	bl	128ec <__sqrt_from_arm>
    c1e0:	eb0017c7 	bl	12104 <__truncdfsf2>
    c1e4:	e1a04000 	mov	r4, r0
    c1e8:	e1a01004 	mov	r1, r4
    c1ec:	e1a00005 	mov	r0, r5
    c1f0:	eb0018eb 	bl	125a4 <__divsf3>
    c1f4:	e1a01004 	mov	r1, r4
    c1f8:	e50b0074 	str	r0, [fp, #-116]
    c1fc:	e1a00006 	mov	r0, r6
    c200:	eb0018e7 	bl	125a4 <__divsf3>
    c204:	e50b0078 	str	r0, [fp, #-120]
    c208:	e51b3078 	ldr	r3, [fp, #-120]
    c20c:	e1a00009 	mov	r0, r9
    c210:	e2231102 	eor	r1, r3, #-2147483648	; 0x80000000
    c214:	eb00187e 	bl	12414 <__mulsf3>
    c218:	e59f14dc 	ldr	r1, [pc, #1244]	; c6fc <.text+0x86fc>
    c21c:	e7974001 	ldr	r4, [r7, r1]
    c220:	e50b007c 	str	r0, [fp, #-124]
    c224:	e1a01000 	mov	r1, r0
    c228:	e1a00004 	mov	r0, r4
    c22c:	eb0017f3 	bl	12200 <__addsf3>
    c230:	e51b1074 	ldr	r1, [fp, #-116]
    c234:	e50b0034 	str	r0, [fp, #-52]
    c238:	e1a00009 	mov	r0, r9
    c23c:	eb001874 	bl	12414 <__mulsf3>
    c240:	e59a6004 	ldr	r6, [sl, #4]
    c244:	e1a01000 	mov	r1, r0
    c248:	e1a07000 	mov	r7, r0
    c24c:	e1a00006 	mov	r0, r6
    c250:	eb0017ea 	bl	12200 <__addsf3>
    c254:	e51b2064 	ldr	r2, [fp, #-100]
    c258:	e50b0030 	str	r0, [fp, #-48]
    c25c:	e3a01103 	mov	r1, #-1073741824	; 0xc0000000
    c260:	e1a00009 	mov	r0, r9
    c264:	e50b202c 	str	r2, [fp, #-44]
    c268:	eb001869 	bl	12414 <__mulsf3>
    c26c:	e51b1078 	ldr	r1, [fp, #-120]
    c270:	eb001867 	bl	12414 <__mulsf3>
    c274:	e1a05000 	mov	r5, r0
    c278:	e1a01005 	mov	r1, r5
    c27c:	e1a00004 	mov	r0, r4
    c280:	eb0017de 	bl	12200 <__addsf3>
    c284:	e1a01009 	mov	r1, r9
    c288:	e50b0040 	str	r0, [fp, #-64]
    c28c:	e1a00009 	mov	r0, r9
    c290:	eb0017da 	bl	12200 <__addsf3>
    c294:	e51b1074 	ldr	r1, [fp, #-116]
    c298:	eb00185d 	bl	12414 <__mulsf3>
    c29c:	e1a04000 	mov	r4, r0
    c2a0:	e1a01004 	mov	r1, r4
    c2a4:	e1a00006 	mov	r0, r6
    c2a8:	eb0017d4 	bl	12200 <__addsf3>
    c2ac:	e59f3448 	ldr	r3, [pc, #1096]	; c6fc <.text+0x86fc>
    c2b0:	e7986003 	ldr	r6, [r8, r3]
    c2b4:	e51b2064 	ldr	r2, [fp, #-100]
    c2b8:	e1a01005 	mov	r1, r5
    c2bc:	e50b003c 	str	r0, [fp, #-60]
    c2c0:	e1a00006 	mov	r0, r6
    c2c4:	e50b2038 	str	r2, [fp, #-56]
    c2c8:	eb0017cc 	bl	12200 <__addsf3>
    c2cc:	e51b3070 	ldr	r3, [fp, #-112]
    c2d0:	e5935004 	ldr	r5, [r3, #4]
    c2d4:	e1a01004 	mov	r1, r4
    c2d8:	e50b004c 	str	r0, [fp, #-76]
    c2dc:	e1a00005 	mov	r0, r5
    c2e0:	eb0017c6 	bl	12200 <__addsf3>
    c2e4:	e51b2064 	ldr	r2, [fp, #-100]
    c2e8:	e51b107c 	ldr	r1, [fp, #-124]
    c2ec:	e50b0048 	str	r0, [fp, #-72]
    c2f0:	e1a00006 	mov	r0, r6
    c2f4:	e50b2044 	str	r2, [fp, #-68]
    c2f8:	eb0017c0 	bl	12200 <__addsf3>
    c2fc:	e1a01007 	mov	r1, r7
    c300:	e50b0058 	str	r0, [fp, #-88]
    c304:	e1a00005 	mov	r0, r5
    c308:	eb0017bc 	bl	12200 <__addsf3>
    c30c:	e51b3064 	ldr	r3, [fp, #-100]
    c310:	e50b0054 	str	r0, [fp, #-84]
    c314:	e51b0078 	ldr	r0, [fp, #-120]
    c318:	e50b3050 	str	r3, [fp, #-80]
    c31c:	eb0015c0 	bl	11a24 <__extendsfdf2>
    c320:	e1a05001 	mov	r5, r1
    c324:	e1a04000 	mov	r4, r0
    c328:	e51b0074 	ldr	r0, [fp, #-116]
    c32c:	eb0015bc 	bl	11a24 <__extendsfdf2>
    c330:	e1a03001 	mov	r3, r1
    c334:	e1a02000 	mov	r2, r0
    c338:	e1a01005 	mov	r1, r5
    c33c:	e1a00004 	mov	r0, r4
    c340:	eb00195a 	bl	128b0 <__atan2_from_arm>
    c344:	e1a03001 	mov	r3, r1
    c348:	e1a02000 	mov	r2, r0
    c34c:	e28f0fdd 	add	r0, pc, #884	; 0x374
    c350:	e8900003 	ldmia	r0, {r0, r1}
    c354:	eb0014db 	bl	116c8 <__subdf3>
    c358:	eb001769 	bl	12104 <__truncdfsf2>
    c35c:	e1a05000 	mov	r5, r0
    c360:	eb0015af 	bl	11a24 <__extendsfdf2>
    c364:	e28f2fd7 	add	r2, pc, #860	; 0x35c
    c368:	e892000c 	ldmia	r2, {r2, r3}
    c36c:	eb0014d6 	bl	116cc <__adddf3>
    c370:	eb001763 	bl	12104 <__truncdfsf2>
    c374:	e59f636c 	ldr	r6, [pc, #876]	; c6e8 <.text+0x86e8>
    c378:	e5963000 	ldr	r3, [r6]
    c37c:	e1a04000 	mov	r4, r0
    c380:	e3530003 	cmp	r3, #3	; 0x3
    c384:	979ff103 	ldrls	pc, [pc, r3, lsl #2]
    c388:	ea0000f8 	b	c770 <.text+0x8770>
    c38c:	0000c518 	andeq	ip, r0, r8, lsl r5
    c390:	0000c54c 	andeq	ip, r0, ip, asr #10
    c394:	0000c704 	andeq	ip, r0, r4, lsl #14
    c398:	0000c39c 	muleq	r0, ip, r3
    c39c:	e2292102 	eor	r2, r9, #-2147483648	; 0x80000000
    c3a0:	e51b0034 	ldr	r0, [fp, #-52]
    c3a4:	e51b1030 	ldr	r1, [fp, #-48]
    c3a8:	ebfff8a8 	bl	a650 <nav_circle_XY>
    c3ac:	e1a00004 	mov	r0, r4
    c3b0:	eb00159b 	bl	11a24 <__extendsfdf2>
    c3b4:	e28f2fc3 	add	r2, pc, #780	; 0x30c
    c3b8:	e892000c 	ldmia	r2, {r2, r3}
    c3bc:	eb001649 	bl	11ce8 <__divdf3>
    c3c0:	e28f2fc2 	add	r2, pc, #776	; 0x308
    c3c4:	e892000c 	ldmia	r2, {r2, r3}
    c3c8:	eb0015a8 	bl	11a70 <__muldf3>
    c3cc:	e28f2fc1 	add	r2, pc, #772	; 0x304
    c3d0:	e892000c 	ldmia	r2, {r2, r3}
    c3d4:	eb0014bb 	bl	116c8 <__subdf3>
    c3d8:	eb001749 	bl	12104 <__truncdfsf2>
    c3dc:	ea000000 	b	c3e4 <.text+0x83e4>
    c3e0:	eb001786 	bl	12200 <__addsf3>
    c3e4:	e3a01000 	mov	r1, #0	; 0x0
    c3e8:	e1a05000 	mov	r5, r0
    c3ec:	eb0018d6 	bl	1274c <__lesf2>
    c3f0:	e3500000 	cmp	r0, #0	; 0x0
    c3f4:	e59f12f0 	ldr	r1, [pc, #752]	; c6ec <.text+0x86ec>
    c3f8:	e1a00005 	mov	r0, r5
    c3fc:	bafffff7 	blt	c3e0 <.text+0x83e0>
    c400:	ea000001 	b	c40c <.text+0x840c>
    c404:	eb00177c 	bl	121fc <__subsf3>
    c408:	e1a05000 	mov	r5, r0
    c40c:	e59f12d8 	ldr	r1, [pc, #728]	; c6ec <.text+0x86ec>
    c410:	e1a00005 	mov	r0, r5
    c414:	eb0018ca 	bl	12744 <__gesf2>
    c418:	e3500000 	cmp	r0, #0	; 0x0
    c41c:	e59f12c8 	ldr	r1, [pc, #712]	; c6ec <.text+0x86ec>
    c420:	e1a00005 	mov	r0, r5
    c424:	aafffff6 	bge	c404 <.text+0x8404>
    c428:	e59f32c0 	ldr	r3, [pc, #704]	; c6f0 <.text+0x86f0>
    c42c:	e5930000 	ldr	r0, [r3]
    c430:	eb00157b 	bl	11a24 <__extendsfdf2>
    c434:	e1a03001 	mov	r3, r1
    c438:	e1a02000 	mov	r2, r0
    c43c:	e28f0fa7 	add	r0, pc, #668	; 0x29c
    c440:	e8900003 	ldmia	r0, {r0, r1}
    c444:	eb00149f 	bl	116c8 <__subdf3>
    c448:	e28f2f9e 	add	r2, pc, #632	; 0x278
    c44c:	e892000c 	ldmia	r2, {r2, r3}
    c450:	eb001624 	bl	11ce8 <__divdf3>
    c454:	e28f2f9d 	add	r2, pc, #628	; 0x274
    c458:	e892000c 	ldmia	r2, {r2, r3}
    c45c:	eb001583 	bl	11a70 <__muldf3>
    c460:	eb001727 	bl	12104 <__truncdfsf2>
    c464:	ea000000 	b	c46c <.text+0x846c>
    c468:	eb001764 	bl	12200 <__addsf3>
    c46c:	e3a01000 	mov	r1, #0	; 0x0
    c470:	e1a04000 	mov	r4, r0
    c474:	eb0018b4 	bl	1274c <__lesf2>
    c478:	e3500000 	cmp	r0, #0	; 0x0
    c47c:	e59f1268 	ldr	r1, [pc, #616]	; c6ec <.text+0x86ec>
    c480:	e1a00004 	mov	r0, r4
    c484:	bafffff7 	blt	c468 <.text+0x8468>
    c488:	ea000001 	b	c494 <.text+0x8494>
    c48c:	eb00175a 	bl	121fc <__subsf3>
    c490:	e1a04000 	mov	r4, r0
    c494:	e59f1250 	ldr	r1, [pc, #592]	; c6ec <.text+0x86ec>
    c498:	e1a00004 	mov	r0, r4
    c49c:	eb0018a8 	bl	12744 <__gesf2>
    c4a0:	e3500000 	cmp	r0, #0	; 0x0
    c4a4:	e59f1240 	ldr	r1, [pc, #576]	; c6ec <.text+0x86ec>
    c4a8:	e1a00004 	mov	r0, r4
    c4ac:	aafffff6 	bge	c48c <.text+0x848c>
    c4b0:	e1a00005 	mov	r0, r5
    c4b4:	e59f1238 	ldr	r1, [pc, #568]	; c6f4 <.text+0x86f4>
    c4b8:	eb0018a3 	bl	1274c <__lesf2>
    c4bc:	e3500000 	cmp	r0, #0	; 0x0
    c4c0:	aa000005 	bge	c4dc <.text+0x84dc>
    c4c4:	e1a00005 	mov	r0, r5
    c4c8:	e1a01004 	mov	r1, r4
    c4cc:	eb00189e 	bl	1274c <__lesf2>
    c4d0:	e3500000 	cmp	r0, #0	; 0x0
    c4d4:	ba000005 	blt	c4f0 <.text+0x84f0>
    c4d8:	ea0000a4 	b	c770 <.text+0x8770>
    c4dc:	e1a00004 	mov	r0, r4
    c4e0:	e59f120c 	ldr	r1, [pc, #524]	; c6f4 <.text+0x86f4>
    c4e4:	eb001896 	bl	12744 <__gesf2>
    c4e8:	e3500000 	cmp	r0, #0	; 0x0
    c4ec:	da00009f 	ble	c770 <.text+0x8770>
    c4f0:	e59f1200 	ldr	r1, [pc, #512]	; c6f8 <.text+0x86f8>
    c4f4:	e1a00005 	mov	r0, r5
    c4f8:	eb001740 	bl	12200 <__addsf3>
    c4fc:	e1a01000 	mov	r1, r0
    c500:	e1a00004 	mov	r0, r4
    c504:	eb001890 	bl	1274c <__lesf2>
    c508:	e3500000 	cmp	r0, #0	; 0x0
    c50c:	b3a03000 	movlt	r3, #0	; 0x0
    c510:	ba000094 	blt	c768 <.text+0x8768>
    c514:	ea000095 	b	c770 <.text+0x8770>
    c518:	e51b3048 	ldr	r3, [fp, #-72]
    c51c:	e51b0040 	ldr	r0, [fp, #-64]
    c520:	e51b103c 	ldr	r1, [fp, #-60]
    c524:	e51b204c 	ldr	r2, [fp, #-76]
    c528:	ebfff9f3 	bl	acfc <nav_route_xy>
    c52c:	e51b004c 	ldr	r0, [fp, #-76]
    c530:	e51b1048 	ldr	r1, [fp, #-72]
    c534:	e59f21c4 	ldr	r2, [pc, #452]	; c700 <.text+0x8700>
    c538:	ebfff9ab 	bl	abec <nav_approaching_xy>
    c53c:	e31000ff 	tst	r0, #255	; 0xff
    c540:	13a03001 	movne	r3, #1	; 0x1
    c544:	1a000087 	bne	c768 <.text+0x8768>
    c548:	ea000088 	b	c770 <.text+0x8770>
    c54c:	e2292102 	eor	r2, r9, #-2147483648	; 0x80000000
    c550:	e51b0058 	ldr	r0, [fp, #-88]
    c554:	e51b1054 	ldr	r1, [fp, #-84]
    c558:	ebfff83c 	bl	a650 <nav_circle_XY>
    c55c:	e1a00005 	mov	r0, r5
    c560:	eb00152f 	bl	11a24 <__extendsfdf2>
    c564:	e28f2f57 	add	r2, pc, #348	; 0x15c
    c568:	e892000c 	ldmia	r2, {r2, r3}
    c56c:	eb0015dd 	bl	11ce8 <__divdf3>
    c570:	e28f2f56 	add	r2, pc, #344	; 0x158
    c574:	e892000c 	ldmia	r2, {r2, r3}
    c578:	eb00153c 	bl	11a70 <__muldf3>
    c57c:	e28f2f55 	add	r2, pc, #340	; 0x154
    c580:	e892000c 	ldmia	r2, {r2, r3}
    c584:	eb00144f 	bl	116c8 <__subdf3>
    c588:	eb0016dd 	bl	12104 <__truncdfsf2>
    c58c:	ea000000 	b	c594 <.text+0x8594>
    c590:	eb00171a 	bl	12200 <__addsf3>
    c594:	e3a01000 	mov	r1, #0	; 0x0
    c598:	e1a05000 	mov	r5, r0
    c59c:	eb00186a 	bl	1274c <__lesf2>
    c5a0:	e3500000 	cmp	r0, #0	; 0x0
    c5a4:	e59f1140 	ldr	r1, [pc, #320]	; c6ec <.text+0x86ec>
    c5a8:	e1a00005 	mov	r0, r5
    c5ac:	bafffff7 	blt	c590 <.text+0x8590>
    c5b0:	ea000001 	b	c5bc <.text+0x85bc>
    c5b4:	eb001710 	bl	121fc <__subsf3>
    c5b8:	e1a05000 	mov	r5, r0
    c5bc:	e59f1128 	ldr	r1, [pc, #296]	; c6ec <.text+0x86ec>
    c5c0:	e1a00005 	mov	r0, r5
    c5c4:	eb00185e 	bl	12744 <__gesf2>
    c5c8:	e3500000 	cmp	r0, #0	; 0x0
    c5cc:	e59f1118 	ldr	r1, [pc, #280]	; c6ec <.text+0x86ec>
    c5d0:	e1a00005 	mov	r0, r5
    c5d4:	aafffff6 	bge	c5b4 <.text+0x85b4>
    c5d8:	e59f3110 	ldr	r3, [pc, #272]	; c6f0 <.text+0x86f0>
    c5dc:	e5930000 	ldr	r0, [r3]
    c5e0:	eb00150f 	bl	11a24 <__extendsfdf2>
    c5e4:	e1a03001 	mov	r3, r1
    c5e8:	e1a02000 	mov	r2, r0
    c5ec:	e28f00ec 	add	r0, pc, #236	; 0xec
    c5f0:	e8900003 	ldmia	r0, {r0, r1}
    c5f4:	eb001433 	bl	116c8 <__subdf3>
    c5f8:	e28f20c8 	add	r2, pc, #200	; 0xc8
    c5fc:	e892000c 	ldmia	r2, {r2, r3}
    c600:	eb0015b8 	bl	11ce8 <__divdf3>
    c604:	e28f20c4 	add	r2, pc, #196	; 0xc4
    c608:	e892000c 	ldmia	r2, {r2, r3}
    c60c:	eb001517 	bl	11a70 <__muldf3>
    c610:	eb0016bb 	bl	12104 <__truncdfsf2>
    c614:	ea000000 	b	c61c <.text+0x861c>
    c618:	eb0016f8 	bl	12200 <__addsf3>
    c61c:	e3a01000 	mov	r1, #0	; 0x0
    c620:	e1a04000 	mov	r4, r0
    c624:	eb001848 	bl	1274c <__lesf2>
    c628:	e3500000 	cmp	r0, #0	; 0x0
    c62c:	e59f10b8 	ldr	r1, [pc, #184]	; c6ec <.text+0x86ec>
    c630:	e1a00004 	mov	r0, r4
    c634:	bafffff7 	blt	c618 <.text+0x8618>
    c638:	ea000001 	b	c644 <.text+0x8644>
    c63c:	eb0016ee 	bl	121fc <__subsf3>
    c640:	e1a04000 	mov	r4, r0
    c644:	e59f10a0 	ldr	r1, [pc, #160]	; c6ec <.text+0x86ec>
    c648:	e1a00004 	mov	r0, r4
    c64c:	eb00183c 	bl	12744 <__gesf2>
    c650:	e3500000 	cmp	r0, #0	; 0x0
    c654:	e59f1090 	ldr	r1, [pc, #144]	; c6ec <.text+0x86ec>
    c658:	e1a00004 	mov	r0, r4
    c65c:	aafffff6 	bge	c63c <.text+0x863c>
    c660:	e1a00005 	mov	r0, r5
    c664:	e59f1088 	ldr	r1, [pc, #136]	; c6f4 <.text+0x86f4>
    c668:	eb001837 	bl	1274c <__lesf2>
    c66c:	e3500000 	cmp	r0, #0	; 0x0
    c670:	aa000005 	bge	c68c <.text+0x868c>
    c674:	e1a00005 	mov	r0, r5
    c678:	e1a01004 	mov	r1, r4
    c67c:	eb001832 	bl	1274c <__lesf2>
    c680:	e3500000 	cmp	r0, #0	; 0x0
    c684:	ba000005 	blt	c6a0 <.text+0x86a0>
    c688:	ea000038 	b	c770 <.text+0x8770>
    c68c:	e1a00004 	mov	r0, r4
    c690:	e59f105c 	ldr	r1, [pc, #92]	; c6f4 <.text+0x86f4>
    c694:	eb00182a 	bl	12744 <__gesf2>
    c698:	e3500000 	cmp	r0, #0	; 0x0
    c69c:	da000033 	ble	c770 <.text+0x8770>
    c6a0:	e59f1050 	ldr	r1, [pc, #80]	; c6f8 <.text+0x86f8>
    c6a4:	e1a00005 	mov	r0, r5
    c6a8:	eb0016d4 	bl	12200 <__addsf3>
    c6ac:	e1a01000 	mov	r1, r0
    c6b0:	e1a00004 	mov	r0, r4
    c6b4:	eb001824 	bl	1274c <__lesf2>
    c6b8:	e3500000 	cmp	r0, #0	; 0x0
    c6bc:	b3a03002 	movlt	r3, #2	; 0x2
    c6c0:	ba000028 	blt	c768 <.text+0x8768>
    c6c4:	ea000029 	b	c770 <.text+0x8770>
    c6c8:	400921fb 	strmid	r2, [r9], -fp
    c6cc:	54442d18 	strplb	r2, [r4], #-3352
    c6d0:	40668000 	rsbmi	r8, r6, r0
    c6d4:	00000000 	andeq	r0, r0, r0
    c6d8:	40240000 	eormi	r0, r4, r0
    c6dc:	00000000 	andeq	r0, r0, r0
    c6e0:	3ff921fb 	swicc	0x00f921fb
    c6e4:	54442d18 	strplb	r2, [r4], #-3352
    c6e8:	400005fc 	strmid	r0, [r0], -ip
    c6ec:	43b40000 	movmis	r0, #0	; 0x0
    c6f0:	40000ec4 	andmi	r0, r0, r4, asr #29
    c6f4:	43af0000 	movmi	r0, #0	; 0x0
    c6f8:	41200000 	teqmi	r0, r0
    c6fc:	40000034 	andmi	r0, r0, r4, lsr r0
    c700:	40a00000 	adcmi	r0, r0, r0
    c704:	e51b106c 	ldr	r1, [fp, #-108]
    c708:	e51b2060 	ldr	r2, [fp, #-96]
    c70c:	e0813002 	add	r3, r1, r2
    c710:	e51b1068 	ldr	r1, [fp, #-104]
    c714:	e51b205c 	ldr	r2, [fp, #-92]
    c718:	e0814002 	add	r4, r1, r2
    c71c:	e51f1028 	ldr	r1, [pc, #-40]	; c6fc <.text+0x86fc>
    c720:	e1a03103 	mov	r3, r3, lsl #2
    c724:	e7930001 	ldr	r0, [r3, r1]
    c728:	e1a04104 	mov	r4, r4, lsl #2
    c72c:	e0832001 	add	r2, r3, r1
    c730:	e51f303c 	ldr	r3, [pc, #-60]	; c6fc <.text+0x86fc>
    c734:	e0845001 	add	r5, r4, r1
    c738:	e5921004 	ldr	r1, [r2, #4]
    c73c:	e7942003 	ldr	r2, [r4, r3]
    c740:	e5953004 	ldr	r3, [r5, #4]
    c744:	ebfff96c 	bl	acfc <nav_route_xy>
    c748:	e51f1054 	ldr	r1, [pc, #-84]	; c6fc <.text+0x86fc>
    c74c:	e51f2054 	ldr	r2, [pc, #-84]	; c700 <.text+0x8700>
    c750:	e7940001 	ldr	r0, [r4, r1]
    c754:	e5951004 	ldr	r1, [r5, #4]
    c758:	ebfff923 	bl	abec <nav_approaching_xy>
    c75c:	e31000ff 	tst	r0, #255	; 0xff
    c760:	0a000002 	beq	c770 <.text+0x8770>
    c764:	e3a03003 	mov	r3, #3	; 0x3
    c768:	e5863000 	str	r3, [r6]
    c76c:	ebfff797 	bl	a5d0 <nav_init_stage>
    c770:	e24bd028 	sub	sp, fp, #40	; 0x28
    c774:	e89d6ff0 	ldmia	sp, {r4, r5, r6, r7, r8, r9, sl, fp, sp, lr}
    c778:	e12fff1e 	bx	lr

0000c77c <h_ctl_init>:
    c77c:	e59f30d0 	ldr	r3, [pc, #208]	; c854 <.text+0x8854>
    c780:	e3a0243f 	mov	r2, #1056964608	; 0x3f000000
    c784:	e5832000 	str	r2, [r3]
    c788:	e59f20c8 	ldr	r2, [pc, #200]	; c858 <.text+0x8858>
    c78c:	e59f30c8 	ldr	r3, [pc, #200]	; c85c <.text+0x885c>
    c790:	e5832000 	str	r2, [r3]
    c794:	e59f20c4 	ldr	r2, [pc, #196]	; c860 <.text+0x8860>
    c798:	e59f30c4 	ldr	r3, [pc, #196]	; c864 <.text+0x8864>
    c79c:	e5832000 	str	r2, [r3]
    c7a0:	e59f20c0 	ldr	r2, [pc, #192]	; c868 <.text+0x8868>
    c7a4:	e59f30c0 	ldr	r3, [pc, #192]	; c86c <.text+0x886c>
    c7a8:	e5832000 	str	r2, [r3]
    c7ac:	e59f30bc 	ldr	r3, [pc, #188]	; c870 <.text+0x8870>
    c7b0:	e3a00000 	mov	r0, #0	; 0x0
    c7b4:	e59f20b8 	ldr	r2, [pc, #184]	; c874 <.text+0x8874>
    c7b8:	e1c300b0 	strh	r0, [r3]
    c7bc:	e59f30b4 	ldr	r3, [pc, #180]	; c878 <.text+0x8878>
    c7c0:	e5832000 	str	r2, [r3]
    c7c4:	e59f30b0 	ldr	r3, [pc, #176]	; c87c <.text+0x887c>
    c7c8:	e3a0c5fe 	mov	ip, #1065353216	; 0x3f800000
    c7cc:	e59f20ac 	ldr	r2, [pc, #172]	; c880 <.text+0x8880>
    c7d0:	e583c000 	str	ip, [r3]
    c7d4:	e59f30a8 	ldr	r3, [pc, #168]	; c884 <.text+0x8884>
    c7d8:	e5832000 	str	r2, [r3]
    c7dc:	e59f20a4 	ldr	r2, [pc, #164]	; c888 <.text+0x8888>
    c7e0:	e59f30a4 	ldr	r3, [pc, #164]	; c88c <.text+0x888c>
    c7e4:	e5832000 	str	r2, [r3]
    c7e8:	e59f30a0 	ldr	r3, [pc, #160]	; c890 <.text+0x8890>
    c7ec:	e59f20a0 	ldr	r2, [pc, #160]	; c894 <.text+0x8894>
    c7f0:	e5832000 	str	r2, [r3]
    c7f4:	e59f309c 	ldr	r3, [pc, #156]	; c898 <.text+0x8898>
    c7f8:	e3a01000 	mov	r1, #0	; 0x0
    c7fc:	e5831000 	str	r1, [r3]
    c800:	e59f3094 	ldr	r3, [pc, #148]	; c89c <.text+0x889c>
    c804:	e5831000 	str	r1, [r3]
    c808:	e59f3090 	ldr	r3, [pc, #144]	; c8a0 <.text+0x88a0>
    c80c:	e5831000 	str	r1, [r3]
    c810:	e59f308c 	ldr	r3, [pc, #140]	; c8a4 <.text+0x88a4>
    c814:	e583c000 	str	ip, [r3]
    c818:	e59f3088 	ldr	r3, [pc, #136]	; c8a8 <.text+0x88a8>
    c81c:	e5c30000 	strb	r0, [r3]
    c820:	e59f3084 	ldr	r3, [pc, #132]	; c8ac <.text+0x88ac>
    c824:	e5831000 	str	r1, [r3]
    c828:	e59f3080 	ldr	r3, [pc, #128]	; c8b0 <.text+0x88b0>
    c82c:	e1c300b0 	strh	r0, [r3]
    c830:	e59f307c 	ldr	r3, [pc, #124]	; c8b4 <.text+0x88b4>
    c834:	e5831000 	str	r1, [r3]
    c838:	e59f3078 	ldr	r3, [pc, #120]	; c8b8 <.text+0x88b8>
    c83c:	e5831000 	str	r1, [r3]
    c840:	e59f3074 	ldr	r3, [pc, #116]	; c8bc <.text+0x88bc>
    c844:	e5831000 	str	r1, [r3]
    c848:	e59f3070 	ldr	r3, [pc, #112]	; c8c0 <.text+0x88c0>
    c84c:	e5831000 	str	r1, [r3]
    c850:	e12fff1e 	bx	lr
    c854:	40000f04 	andmi	r0, r0, r4, lsl #30
    c858:	3f19999a 	swicc	0x0019999a
    c85c:	40000edc 	ldrmid	r0, [r0], -ip
    c860:	c63b8000 	ldrgtt	r8, [fp], -r0
    c864:	40000f1c 	andmi	r0, r0, ip, lsl pc
    c868:	c5fa0000 	ldrgtb	r0, [sl]!
    c86c:	40000f08 	andmi	r0, r0, r8, lsl #30
    c870:	40000ee4 	andmi	r0, r0, r4, ror #29
    c874:	449c4000 	ldrmi	r4, [ip]
    c878:	40000f24 	andmi	r0, r0, r4, lsr #30
    c87c:	40000f00 	andmi	r0, r0, r0, lsl #30
    c880:	40c00000 	sbcmi	r0, r0, r0
    c884:	40000eec 	andmi	r0, r0, ip, ror #29
    c888:	44548000 	ldrmib	r8, [r4]
    c88c:	40000ef0 	strmid	r0, [r0], -r0
    c890:	40000f14 	andmi	r0, r0, r4, lsl pc
    c894:	43a50000 	movmi	r0, #0	; 0x0
    c898:	40000ed4 	ldrmid	r0, [r0], -r4
    c89c:	40000ed0 	ldrmid	r0, [r0], -r0
    c8a0:	40000f0c 	andmi	r0, r0, ip, lsl #30
    c8a4:	40000ee0 	andmi	r0, r0, r0, ror #29
    c8a8:	40000f18 	andmi	r0, r0, r8, lsl pc
    c8ac:	40000f20 	andmi	r0, r0, r0, lsr #30
    c8b0:	40000ef8 	strmid	r0, [r0], -r8
    c8b4:	40000ef4 	strmid	r0, [r0], -r4
    c8b8:	40000efc 	strmid	r0, [r0], -ip
    c8bc:	40000f10 	andmi	r0, r0, r0, lsl pc
    c8c0:	40000ee8 	andmi	r0, r0, r8, ror #29

0000c8c4 <h_ctl_course_loop>:
    c8c4:	e1a0c00d 	mov	ip, sp
    c8c8:	e92dd870 	stmdb	sp!, {r4, r5, r6, fp, ip, lr, pc}
    c8cc:	e59f3200 	ldr	r3, [pc, #512]	; cad4 <.text+0x8ad4>
    c8d0:	e5930000 	ldr	r0, [r3]
    c8d4:	e59f31fc 	ldr	r3, [pc, #508]	; cad8 <.text+0x8ad8>
    c8d8:	e24cb004 	sub	fp, ip, #4	; 0x4
    c8dc:	e5931000 	ldr	r1, [r3]
    c8e0:	eb001645 	bl	121fc <__subsf3>
    c8e4:	ea000001 	b	c8f0 <h_ctl_course_loop+0x2c>
    c8e8:	eb001376 	bl	116c8 <__subdf3>
    c8ec:	eb001604 	bl	12104 <__truncdfsf2>
    c8f0:	e1a06000 	mov	r6, r0
    c8f4:	eb00144a 	bl	11a24 <__extendsfdf2>
    c8f8:	e28f2f6b 	add	r2, pc, #428	; 0x1ac
    c8fc:	e892000c 	ldmia	r2, {r2, r3}
    c900:	e1a05001 	mov	r5, r1
    c904:	e1a04000 	mov	r4, r0
    c908:	eb001593 	bl	11f5c <__gedf2>
    c90c:	e3500000 	cmp	r0, #0	; 0x0
    c910:	e28f2f67 	add	r2, pc, #412	; 0x19c
    c914:	e892000c 	ldmia	r2, {r2, r3}
    c918:	e1a01005 	mov	r1, r5
    c91c:	e1a00004 	mov	r0, r4
    c920:	cafffff0 	bgt	c8e8 <h_ctl_course_loop+0x24>
    c924:	ea000002 	b	c934 <h_ctl_course_loop+0x70>
    c928:	eb001367 	bl	116cc <__adddf3>
    c92c:	eb0015f4 	bl	12104 <__truncdfsf2>
    c930:	e1a06000 	mov	r6, r0
    c934:	e1a00006 	mov	r0, r6
    c938:	eb001439 	bl	11a24 <__extendsfdf2>
    c93c:	e28f2f5e 	add	r2, pc, #376	; 0x178
    c940:	e892000c 	ldmia	r2, {r2, r3}
    c944:	e1a05001 	mov	r5, r1
    c948:	e1a04000 	mov	r4, r0
    c94c:	eb001584 	bl	11f64 <__ledf2>
    c950:	e3500000 	cmp	r0, #0	; 0x0
    c954:	e28f2f56 	add	r2, pc, #344	; 0x158
    c958:	e892000c 	ldmia	r2, {r2, r3}
    c95c:	e1a01005 	mov	r1, r5
    c960:	e1a00004 	mov	r0, r4
    c964:	baffffef 	blt	c928 <h_ctl_course_loop+0x64>
    c968:	e59f316c 	ldr	r3, [pc, #364]	; cadc <.text+0x8adc>
    c96c:	e59f116c 	ldr	r1, [pc, #364]	; cae0 <.text+0x8ae0>
    c970:	e5930000 	ldr	r0, [r3]
    c974:	eb00170a 	bl	125a4 <__divsf3>
    c978:	e3a015ff 	mov	r1, #1069547520	; 0x3fc00000
    c97c:	e1a04000 	mov	r4, r0
    c980:	eb00176f 	bl	12744 <__gesf2>
    c984:	e3500000 	cmp	r0, #0	; 0x0
    c988:	c3a045ff 	movgt	r4, #1069547520	; 0x3fc00000
    c98c:	ca000007 	bgt	c9b0 <h_ctl_course_loop+0xec>
    c990:	e1a00004 	mov	r0, r4
    c994:	eb001422 	bl	11a24 <__extendsfdf2>
    c998:	e28f2f49 	add	r2, pc, #292	; 0x124
    c99c:	e892000c 	ldmia	r2, {r2, r3}
    c9a0:	eb00156f 	bl	11f64 <__ledf2>
    c9a4:	e59f3138 	ldr	r3, [pc, #312]	; cae4 <.text+0x8ae4>
    c9a8:	e3500000 	cmp	r0, #0	; 0x0
    c9ac:	b1a04003 	movlt	r4, r3
    c9b0:	e59f3130 	ldr	r3, [pc, #304]	; cae8 <.text+0x8ae8>
    c9b4:	e1a01006 	mov	r1, r6
    c9b8:	e5930000 	ldr	r0, [r3]
    c9bc:	eb001694 	bl	12414 <__mulsf3>
    c9c0:	e1a01004 	mov	r1, r4
    c9c4:	eb001692 	bl	12414 <__mulsf3>
    c9c8:	e59f311c 	ldr	r3, [pc, #284]	; caec <.text+0x8aec>
    c9cc:	e5d33000 	ldrb	r3, [r3]
    c9d0:	e3530001 	cmp	r3, #1	; 0x1
    c9d4:	e1a05000 	mov	r5, r0
    c9d8:	1a000019 	bne	ca44 <h_ctl_course_loop+0x180>
    c9dc:	e59f310c 	ldr	r3, [pc, #268]	; caf0 <.text+0x8af0>
    c9e0:	e5930000 	ldr	r0, [r3]
    c9e4:	e59f3108 	ldr	r3, [pc, #264]	; caf4 <.text+0x8af4>
    c9e8:	e5931000 	ldr	r1, [r3]
    c9ec:	eb001602 	bl	121fc <__subsf3>
    c9f0:	e1a04000 	mov	r4, r0
    c9f4:	e1a00005 	mov	r0, r5
    c9f8:	eb001409 	bl	11a24 <__extendsfdf2>
    c9fc:	e1a06001 	mov	r6, r1
    ca00:	e1a05000 	mov	r5, r0
    ca04:	e1a00004 	mov	r0, r4
    ca08:	e3a01000 	mov	r1, #0	; 0x0
    ca0c:	eb00174e 	bl	1274c <__lesf2>
    ca10:	e3500000 	cmp	r0, #0	; 0x0
    ca14:	aa000006 	bge	ca34 <h_ctl_course_loop+0x170>
    ca18:	e1a01006 	mov	r1, r6
    ca1c:	e1a00005 	mov	r0, r5
    ca20:	e28f20a4 	add	r2, pc, #164	; 0xa4
    ca24:	e892000c 	ldmia	r2, {r2, r3}
    ca28:	eb001410 	bl	11a70 <__muldf3>
    ca2c:	e1a06001 	mov	r6, r1
    ca30:	e1a05000 	mov	r5, r0
    ca34:	e1a01006 	mov	r1, r6
    ca38:	e1a00005 	mov	r0, r5
    ca3c:	eb0015b0 	bl	12104 <__truncdfsf2>
    ca40:	e1a05000 	mov	r5, r0
    ca44:	e59f30ac 	ldr	r3, [pc, #172]	; caf8 <.text+0x8af8>
    ca48:	e5930000 	ldr	r0, [r3]
    ca4c:	e59f30a8 	ldr	r3, [pc, #168]	; cafc <.text+0x8afc>
    ca50:	e5931000 	ldr	r1, [r3]
    ca54:	eb00166e 	bl	12414 <__mulsf3>
    ca58:	e1a01000 	mov	r1, r0
    ca5c:	e1a00005 	mov	r0, r5
    ca60:	eb0015e6 	bl	12200 <__addsf3>
    ca64:	e59f3094 	ldr	r3, [pc, #148]	; cb00 <.text+0x8b00>
    ca68:	e59f6094 	ldr	r6, [pc, #148]	; cb04 <.text+0x8b04>
    ca6c:	e5934000 	ldr	r4, [r3]
    ca70:	e1a05000 	mov	r5, r0
    ca74:	e1a01004 	mov	r1, r4
    ca78:	e5865000 	str	r5, [r6]
    ca7c:	eb001730 	bl	12744 <__gesf2>
    ca80:	e3500000 	cmp	r0, #0	; 0x0
    ca84:	ca000005 	bgt	caa0 <h_ctl_course_loop+0x1dc>
    ca88:	e2244102 	eor	r4, r4, #-2147483648	; 0x80000000
    ca8c:	e1a00005 	mov	r0, r5
    ca90:	e1a01004 	mov	r1, r4
    ca94:	eb00172c 	bl	1274c <__lesf2>
    ca98:	e3500000 	cmp	r0, #0	; 0x0
    ca9c:	aa000000 	bge	caa4 <h_ctl_course_loop+0x1e0>
    caa0:	e5864000 	str	r4, [r6]
    caa4:	e89d6870 	ldmia	sp, {r4, r5, r6, fp, sp, lr}
    caa8:	e12fff1e 	bx	lr
    caac:	400921fb 	strmid	r2, [r9], -fp
    cab0:	54442d18 	strplb	r2, [r4], #-3352
    cab4:	401921fb 	ldrmish	r2, [r9], -fp
    cab8:	54442d18 	strplb	r2, [r4], #-3352
    cabc:	c00921fb 	strgtd	r2, [r9], -fp
    cac0:	54442d18 	strplb	r2, [r4], #-3352
    cac4:	3fe51eb8 	swicc	0x00e51eb8
    cac8:	51eb851f 	mvnpl	r8, pc, lsl r5
    cacc:	3fe99999 	swicc	0x00e99999
    cad0:	9999999a 	ldmlsib	r9, {r1, r3, r4, r7, r8, fp, ip, pc}
    cad4:	40000e54 	andmi	r0, r0, r4, asr lr
    cad8:	40000ed0 	ldrmid	r0, [r0], -r0
    cadc:	40000e44 	andmi	r0, r0, r4, asr #28
    cae0:	41200000 	teqmi	r0, r0
    cae4:	3f28f5c3 	swicc	0x0028f5c3
    cae8:	40000f04 	andmi	r0, r0, r4, lsl #30
    caec:	40000f38 	andmi	r0, r0, r8, lsr pc
    caf0:	40000e28 	andmi	r0, r0, r8, lsr #28
    caf4:	40000f40 	andmi	r0, r0, r0, asr #30
    caf8:	40000ee0 	andmi	r0, r0, r0, ror #29
    cafc:	40000f0c 	andmi	r0, r0, ip, lsl #30
    cb00:	40000edc 	ldrmid	r0, [r0], -ip
    cb04:	40000f20 	andmi	r0, r0, r0, lsr #30

0000cb08 <h_ctl_attitude_loop>:
    cb08:	e1a0c00d 	mov	ip, sp
    cb0c:	e92ddff0 	stmdb	sp!, {r4, r5, r6, r7, r8, r9, sl, fp, ip, lr, pc}
    cb10:	e59f36d0 	ldr	r3, [pc, #1744]	; d1e8 <.text+0x91e8>
    cb14:	e24cb004 	sub	fp, ip, #4	; 0x4
    cb18:	e24dd004 	sub	sp, sp, #4	; 0x4
    cb1c:	e5d33000 	ldrb	r3, [r3]
    cb20:	e3530000 	cmp	r3, #0	; 0x0
    cb24:	1a0001a8 	bne	d1cc <h_ctl_attitude_loop+0x6c4>
    cb28:	e59f26bc 	ldr	r2, [pc, #1724]	; d1ec <.text+0x91ec>
    cb2c:	e59f36bc 	ldr	r3, [pc, #1724]	; d1f0 <.text+0x91f0>
    cb30:	e5920000 	ldr	r0, [r2]
    cb34:	e5931000 	ldr	r1, [r3]
    cb38:	eb0015af 	bl	121fc <__subsf3>
    cb3c:	e59f36b0 	ldr	r3, [pc, #1712]	; d1f4 <.text+0x91f4>
    cb40:	e1a06000 	mov	r6, r0
    cb44:	e1d300f0 	ldrsh	r0, [r3]
    cb48:	eb00161e 	bl	123c8 <__floatsisf>
    cb4c:	e59f16a4 	ldr	r1, [pc, #1700]	; d1f8 <.text+0x91f8>
    cb50:	eb001693 	bl	125a4 <__divsf3>
    cb54:	e59f26a0 	ldr	r2, [pc, #1696]	; d1fc <.text+0x91fc>
    cb58:	e5921000 	ldr	r1, [r2]
    cb5c:	e1a04000 	mov	r4, r0
    cb60:	eb00162b 	bl	12414 <__mulsf3>
    cb64:	e1a01004 	mov	r1, r4
    cb68:	e1a05000 	mov	r5, r0
    cb6c:	e3a005fe 	mov	r0, #1065353216	; 0x3f800000
    cb70:	eb0015a1 	bl	121fc <__subsf3>
    cb74:	e59f3684 	ldr	r3, [pc, #1668]	; d200 <.text+0x9200>
    cb78:	e5931000 	ldr	r1, [r3]
    cb7c:	eb001624 	bl	12414 <__mulsf3>
    cb80:	e1a01000 	mov	r1, r0
    cb84:	e1a00005 	mov	r0, r5
    cb88:	eb00159c 	bl	12200 <__addsf3>
    cb8c:	e1a01006 	mov	r1, r6
    cb90:	eb00161f 	bl	12414 <__mulsf3>
    cb94:	e59f1668 	ldr	r1, [pc, #1640]	; d204 <.text+0x9204>
    cb98:	e1a04000 	mov	r4, r0
    cb9c:	eb0016ea 	bl	1274c <__lesf2>
    cba0:	e3500000 	cmp	r0, #0	; 0x0
    cba4:	b59f365c 	ldrlt	r3, [pc, #1628]	; d208 <.text+0x9208>
    cba8:	b1a00003 	movlt	r0, r3
    cbac:	ba000006 	blt	cbcc <h_ctl_attitude_loop+0xc4>
    cbb0:	e1a00004 	mov	r0, r4
    cbb4:	e59f163c 	ldr	r1, [pc, #1596]	; d1f8 <.text+0x91f8>
    cbb8:	eb0016e1 	bl	12744 <__gesf2>
    cbbc:	e3500000 	cmp	r0, #0	; 0x0
    cbc0:	c3a00d96 	movgt	r0, #9600	; 0x2580
    cbc4:	d1a00004 	movle	r0, r4
    cbc8:	db001704 	blle	127e0 <__fixsfsi>
    cbcc:	e59f3638 	ldr	r3, [pc, #1592]	; d20c <.text+0x920c>
    cbd0:	e5d33000 	ldrb	r3, [r3]
    cbd4:	e59f2634 	ldr	r2, [pc, #1588]	; d210 <.text+0x9210>
    cbd8:	e3530000 	cmp	r3, #0	; 0x0
    cbdc:	e1c200b0 	strh	r0, [r2]
    cbe0:	e59f562c 	ldr	r5, [pc, #1580]	; d214 <.text+0x9214>
    cbe4:	e59f062c 	ldr	r0, [pc, #1580]	; d218 <.text+0x9218>
    cbe8:	e59fa62c 	ldr	sl, [pc, #1580]	; d21c <.text+0x921c>
    cbec:	e59f862c 	ldr	r8, [pc, #1580]	; d220 <.text+0x9220>
    cbf0:	0a000059 	beq	cd5c <h_ctl_attitude_loop+0x254>
    cbf4:	e1a01006 	mov	r1, r6
    cbf8:	e5900000 	ldr	r0, [r0]
    cbfc:	eb001604 	bl	12414 <__mulsf3>
    cc00:	e59f361c 	ldr	r3, [pc, #1564]	; d224 <.text+0x9224>
    cc04:	e1a02000 	mov	r2, r0
    cc08:	e5852000 	str	r2, [r5]
    cc0c:	e1a01000 	mov	r1, r0
    cc10:	e5930000 	ldr	r0, [r3]
    cc14:	eb001578 	bl	121fc <__subsf3>
    cc18:	e5d84000 	ldrb	r4, [r8]
    cc1c:	e59f6604 	ldr	r6, [pc, #1540]	; d228 <.text+0x9228>
    cc20:	e20450ff 	and	r5, r4, #255	; 0xff
    cc24:	e1a07000 	mov	r7, r0
    cc28:	e79a1105 	ldr	r1, [sl, r5, lsl #2]
    cc2c:	e5960000 	ldr	r0, [r6]
    cc30:	eb001571 	bl	121fc <__subsf3>
    cc34:	e78a7105 	str	r7, [sl, r5, lsl #2]
    cc38:	e1a01007 	mov	r1, r7
    cc3c:	eb00156f 	bl	12200 <__addsf3>
    cc40:	e2844001 	add	r4, r4, #1	; 0x1
    cc44:	e5c84000 	strb	r4, [r8]
    cc48:	e5d83000 	ldrb	r3, [r8]
    cc4c:	e59f45d8 	ldr	r4, [pc, #1496]	; d22c <.text+0x922c>
    cc50:	e353003f 	cmp	r3, #63	; 0x3f
    cc54:	83a03000 	movhi	r3, #0	; 0x0
    cc58:	85c83000 	strhib	r3, [r8]
    cc5c:	e5941000 	ldr	r1, [r4]
    cc60:	e5860000 	str	r0, [r6]
    cc64:	e1a0a000 	mov	sl, r0
    cc68:	e1a00007 	mov	r0, r7
    cc6c:	eb001562 	bl	121fc <__subsf3>
    cc70:	e59f357c 	ldr	r3, [pc, #1404]	; d1f4 <.text+0x91f4>
    cc74:	e1a06000 	mov	r6, r0
    cc78:	e5847000 	str	r7, [r4]
    cc7c:	e1d300f0 	ldrsh	r0, [r3]
    cc80:	eb0015d0 	bl	123c8 <__floatsisf>
    cc84:	e59f156c 	ldr	r1, [pc, #1388]	; d1f8 <.text+0x91f8>
    cc88:	eb001645 	bl	125a4 <__divsf3>
    cc8c:	e59f2568 	ldr	r2, [pc, #1384]	; d1fc <.text+0x91fc>
    cc90:	e5921000 	ldr	r1, [r2]
    cc94:	e1a04000 	mov	r4, r0
    cc98:	eb0015dd 	bl	12414 <__mulsf3>
    cc9c:	e1a01004 	mov	r1, r4
    cca0:	e1a05000 	mov	r5, r0
    cca4:	e3a005fe 	mov	r0, #1065353216	; 0x3f800000
    cca8:	eb001553 	bl	121fc <__subsf3>
    ccac:	e59f354c 	ldr	r3, [pc, #1356]	; d200 <.text+0x9200>
    ccb0:	e5931000 	ldr	r1, [r3]
    ccb4:	eb0015d6 	bl	12414 <__mulsf3>
    ccb8:	e1a01000 	mov	r1, r0
    ccbc:	e1a00005 	mov	r0, r5
    ccc0:	eb00154e 	bl	12200 <__addsf3>
    ccc4:	e59f3564 	ldr	r3, [pc, #1380]	; d230 <.text+0x9230>
    ccc8:	e1a05000 	mov	r5, r0
    cccc:	e1a0100a 	mov	r1, sl
    ccd0:	e5930000 	ldr	r0, [r3]
    ccd4:	eb0015ce 	bl	12414 <__mulsf3>
    ccd8:	e3a015f2 	mov	r1, #1015021568	; 0x3c800000
    ccdc:	eb0015cc 	bl	12414 <__mulsf3>
    cce0:	e1a01000 	mov	r1, r0
    cce4:	e1a00007 	mov	r0, r7
    cce8:	eb001544 	bl	12200 <__addsf3>
    ccec:	e59f3540 	ldr	r3, [pc, #1344]	; d234 <.text+0x9234>
    ccf0:	e1a04000 	mov	r4, r0
    ccf4:	e1a01006 	mov	r1, r6
    ccf8:	e5930000 	ldr	r0, [r3]
    ccfc:	eb0015c4 	bl	12414 <__mulsf3>
    cd00:	e1a01000 	mov	r1, r0
    cd04:	e1a00004 	mov	r0, r4
    cd08:	eb00153c 	bl	12200 <__addsf3>
    cd0c:	e1a01000 	mov	r1, r0
    cd10:	e1a00005 	mov	r0, r5
    cd14:	eb0015be 	bl	12414 <__mulsf3>
    cd18:	e59f14e4 	ldr	r1, [pc, #1252]	; d204 <.text+0x9204>
    cd1c:	e1a04000 	mov	r4, r0
    cd20:	eb001689 	bl	1274c <__lesf2>
    cd24:	e3500000 	cmp	r0, #0	; 0x0
    cd28:	b59f34d8 	ldrlt	r3, [pc, #1240]	; d208 <.text+0x9208>
    cd2c:	b1a00003 	movlt	r0, r3
    cd30:	ba000006 	blt	cd50 <h_ctl_attitude_loop+0x248>
    cd34:	e1a00004 	mov	r0, r4
    cd38:	e59f14b8 	ldr	r1, [pc, #1208]	; d1f8 <.text+0x91f8>
    cd3c:	eb001680 	bl	12744 <__gesf2>
    cd40:	e3500000 	cmp	r0, #0	; 0x0
    cd44:	c3a00d96 	movgt	r0, #9600	; 0x2580
    cd48:	d1a00004 	movle	r0, r4
    cd4c:	db0016a3 	blle	127e0 <__fixsfsi>
    cd50:	e59f34b8 	ldr	r3, [pc, #1208]	; d210 <.text+0x9210>
    cd54:	e1c300b0 	strh	r0, [r3]
    cd58:	ea00007d 	b	cf54 <h_ctl_attitude_loop+0x44c>
    cd5c:	e1a01006 	mov	r1, r6
    cd60:	e5900000 	ldr	r0, [r0]
    cd64:	eb0015aa 	bl	12414 <__mulsf3>
    cd68:	e1a04000 	mov	r4, r0
    cd6c:	e59f14c4 	ldr	r1, [pc, #1220]	; d238 <.text+0x9238>
    cd70:	e5854000 	str	r4, [r5]
    cd74:	eb001672 	bl	12744 <__gesf2>
    cd78:	e3500000 	cmp	r0, #0	; 0x0
    cd7c:	c59f34b4 	ldrgt	r3, [pc, #1204]	; d238 <.text+0x9238>
    cd80:	ca000005 	bgt	cd9c <h_ctl_attitude_loop+0x294>
    cd84:	e1a00004 	mov	r0, r4
    cd88:	e59f14ac 	ldr	r1, [pc, #1196]	; d23c <.text+0x923c>
    cd8c:	eb00166e 	bl	1274c <__lesf2>
    cd90:	e3500000 	cmp	r0, #0	; 0x0
    cd94:	aa000001 	bge	cda0 <h_ctl_attitude_loop+0x298>
    cd98:	e59f349c 	ldr	r3, [pc, #1180]	; d23c <.text+0x923c>
    cd9c:	e5853000 	str	r3, [r5]
    cda0:	e59f2468 	ldr	r2, [pc, #1128]	; d210 <.text+0x9210>
    cda4:	e1d200f0 	ldrsh	r0, [r2]
    cda8:	eb001586 	bl	123c8 <__floatsisf>
    cdac:	e59f3470 	ldr	r3, [pc, #1136]	; d224 <.text+0x9224>
    cdb0:	e5951000 	ldr	r1, [r5]
    cdb4:	e50b002c 	str	r0, [fp, #-44]
    cdb8:	e5930000 	ldr	r0, [r3]
    cdbc:	eb00150e 	bl	121fc <__subsf3>
    cdc0:	e59f8458 	ldr	r8, [pc, #1112]	; d220 <.text+0x9220>
    cdc4:	e5d84000 	ldrb	r4, [r8]
    cdc8:	e59f644c 	ldr	r6, [pc, #1100]	; d21c <.text+0x921c>
    cdcc:	e59f7454 	ldr	r7, [pc, #1108]	; d228 <.text+0x9228>
    cdd0:	e20450ff 	and	r5, r4, #255	; 0xff
    cdd4:	e1a0a000 	mov	sl, r0
    cdd8:	e7961105 	ldr	r1, [r6, r5, lsl #2]
    cddc:	e5970000 	ldr	r0, [r7]
    cde0:	eb001505 	bl	121fc <__subsf3>
    cde4:	e786a105 	str	sl, [r6, r5, lsl #2]
    cde8:	e1a0100a 	mov	r1, sl
    cdec:	eb001503 	bl	12200 <__addsf3>
    cdf0:	e2844001 	add	r4, r4, #1	; 0x1
    cdf4:	e5c84000 	strb	r4, [r8]
    cdf8:	e5d83000 	ldrb	r3, [r8]
    cdfc:	e59f4428 	ldr	r4, [pc, #1064]	; d22c <.text+0x922c>
    ce00:	e353003f 	cmp	r3, #63	; 0x3f
    ce04:	83a03000 	movhi	r3, #0	; 0x0
    ce08:	85c83000 	strhib	r3, [r8]
    ce0c:	e5941000 	ldr	r1, [r4]
    ce10:	e1a09000 	mov	r9, r0
    ce14:	e5870000 	str	r0, [r7]
    ce18:	e1a0000a 	mov	r0, sl
    ce1c:	eb0014f6 	bl	121fc <__subsf3>
    ce20:	e59f33cc 	ldr	r3, [pc, #972]	; d1f4 <.text+0x91f4>
    ce24:	e1a06000 	mov	r6, r0
    ce28:	e584a000 	str	sl, [r4]
    ce2c:	e1d300f0 	ldrsh	r0, [r3]
    ce30:	eb001564 	bl	123c8 <__floatsisf>
    ce34:	e59f13bc 	ldr	r1, [pc, #956]	; d1f8 <.text+0x91f8>
    ce38:	eb0015d9 	bl	125a4 <__divsf3>
    ce3c:	e59f23b8 	ldr	r2, [pc, #952]	; d1fc <.text+0x91fc>
    ce40:	e5921000 	ldr	r1, [r2]
    ce44:	e1a04000 	mov	r4, r0
    ce48:	eb001571 	bl	12414 <__mulsf3>
    ce4c:	e1a01004 	mov	r1, r4
    ce50:	e1a05000 	mov	r5, r0
    ce54:	e3a005fe 	mov	r0, #1065353216	; 0x3f800000
    ce58:	eb0014e7 	bl	121fc <__subsf3>
    ce5c:	e59f339c 	ldr	r3, [pc, #924]	; d200 <.text+0x9200>
    ce60:	e5931000 	ldr	r1, [r3]
    ce64:	eb00156a 	bl	12414 <__mulsf3>
    ce68:	e1a01000 	mov	r1, r0
    ce6c:	e1a00005 	mov	r0, r5
    ce70:	eb0014e2 	bl	12200 <__addsf3>
    ce74:	e59f33b4 	ldr	r3, [pc, #948]	; d230 <.text+0x9230>
    ce78:	e1a05000 	mov	r5, r0
    ce7c:	e1a01009 	mov	r1, r9
    ce80:	e5930000 	ldr	r0, [r3]
    ce84:	eb001562 	bl	12414 <__mulsf3>
    ce88:	e3a015f2 	mov	r1, #1015021568	; 0x3c800000
    ce8c:	eb001560 	bl	12414 <__mulsf3>
    ce90:	e1a01000 	mov	r1, r0
    ce94:	e1a0000a 	mov	r0, sl
    ce98:	eb0014d8 	bl	12200 <__addsf3>
    ce9c:	e59f3390 	ldr	r3, [pc, #912]	; d234 <.text+0x9234>
    cea0:	e1a04000 	mov	r4, r0
    cea4:	e1a01006 	mov	r1, r6
    cea8:	e5930000 	ldr	r0, [r3]
    ceac:	eb001558 	bl	12414 <__mulsf3>
    ceb0:	e1a01000 	mov	r1, r0
    ceb4:	e1a00004 	mov	r0, r4
    ceb8:	eb0014d0 	bl	12200 <__addsf3>
    cebc:	e1a01000 	mov	r1, r0
    cec0:	e1a00005 	mov	r0, r5
    cec4:	eb001552 	bl	12414 <__mulsf3>
    cec8:	e59f1334 	ldr	r1, [pc, #820]	; d204 <.text+0x9204>
    cecc:	e1a04000 	mov	r4, r0
    ced0:	eb00161d 	bl	1274c <__lesf2>
    ced4:	e3500000 	cmp	r0, #0	; 0x0
    ced8:	b59f3328 	ldrlt	r3, [pc, #808]	; d208 <.text+0x9208>
    cedc:	b1a00003 	movlt	r0, r3
    cee0:	ba000006 	blt	cf00 <h_ctl_attitude_loop+0x3f8>
    cee4:	e1a00004 	mov	r0, r4
    cee8:	e59f1308 	ldr	r1, [pc, #776]	; d1f8 <.text+0x91f8>
    ceec:	eb001614 	bl	12744 <__gesf2>
    cef0:	e3500000 	cmp	r0, #0	; 0x0
    cef4:	c3a00d96 	movgt	r0, #9600	; 0x2580
    cef8:	d1a00004 	movle	r0, r4
    cefc:	db001637 	blle	127e0 <__fixsfsi>
    cf00:	e59f3308 	ldr	r3, [pc, #776]	; d210 <.text+0x9210>
    cf04:	e1c300b0 	strh	r0, [r3]
    cf08:	e1d300f0 	ldrsh	r0, [r3]
    cf0c:	eb00152d 	bl	123c8 <__floatsisf>
    cf10:	e59f3328 	ldr	r3, [pc, #808]	; d240 <.text+0x9240>
    cf14:	e5934000 	ldr	r4, [r3]
    cf18:	e1a01000 	mov	r1, r0
    cf1c:	e1a00004 	mov	r0, r4
    cf20:	eb00153b 	bl	12414 <__mulsf3>
    cf24:	e1a01004 	mov	r1, r4
    cf28:	e1a05000 	mov	r5, r0
    cf2c:	e3a005fe 	mov	r0, #1065353216	; 0x3f800000
    cf30:	eb0014b1 	bl	121fc <__subsf3>
    cf34:	e51b102c 	ldr	r1, [fp, #-44]
    cf38:	eb001535 	bl	12414 <__mulsf3>
    cf3c:	e1a01000 	mov	r1, r0
    cf40:	e1a00005 	mov	r0, r5
    cf44:	eb0014ad 	bl	12200 <__addsf3>
    cf48:	eb001624 	bl	127e0 <__fixsfsi>
    cf4c:	e59f22bc 	ldr	r2, [pc, #700]	; d210 <.text+0x9210>
    cf50:	e1c200b0 	strh	r0, [r2]
    cf54:	e59f32e8 	ldr	r3, [pc, #744]	; d244 <.text+0x9244>
    cf58:	e3a01000 	mov	r1, #0	; 0x0
    cf5c:	e5930000 	ldr	r0, [r3]
    cf60:	eb0015f9 	bl	1274c <__lesf2>
    cf64:	e3500000 	cmp	r0, #0	; 0x0
    cf68:	b59f22d4 	ldrlt	r2, [pc, #724]	; d244 <.text+0x9244>
    cf6c:	b3a03000 	movlt	r3, #0	; 0x0
    cf70:	b5823000 	strlt	r3, [r2]
    cf74:	e59f32cc 	ldr	r3, [pc, #716]	; d248 <.text+0x9248>
    cf78:	e5930000 	ldr	r0, [r3]
    cf7c:	e59f32c8 	ldr	r3, [pc, #712]	; d24c <.text+0x924c>
    cf80:	e5931000 	ldr	r1, [r3]
    cf84:	eb00149c 	bl	121fc <__subsf3>
    cf88:	e59f52c0 	ldr	r5, [pc, #704]	; d250 <.text+0x9250>
    cf8c:	e5951000 	ldr	r1, [r5]
    cf90:	e1a04000 	mov	r4, r0
    cf94:	eb001498 	bl	121fc <__subsf3>
    cf98:	e59f32b4 	ldr	r3, [pc, #692]	; d254 <.text+0x9254>
    cf9c:	e1a01000 	mov	r1, r0
    cfa0:	e5854000 	str	r4, [r5]
    cfa4:	e5930000 	ldr	r0, [r3]
    cfa8:	eb001519 	bl	12414 <__mulsf3>
    cfac:	e1a01000 	mov	r1, r0
    cfb0:	e1a00004 	mov	r0, r4
    cfb4:	eb001491 	bl	12200 <__addsf3>
    cfb8:	e59f3298 	ldr	r3, [pc, #664]	; d258 <.text+0x9258>
    cfbc:	e1a01000 	mov	r1, r0
    cfc0:	e5930000 	ldr	r0, [r3]
    cfc4:	eb001512 	bl	12414 <__mulsf3>
    cfc8:	eb001295 	bl	11a24 <__extendsfdf2>
    cfcc:	e59f3270 	ldr	r3, [pc, #624]	; d244 <.text+0x9244>
    cfd0:	e1a07001 	mov	r7, r1
    cfd4:	e1a06000 	mov	r6, r0
    cfd8:	e5930000 	ldr	r0, [r3]
    cfdc:	eb001290 	bl	11a24 <__extendsfdf2>
    cfe0:	e59f2204 	ldr	r2, [pc, #516]	; d1ec <.text+0x91ec>
    cfe4:	e5923000 	ldr	r3, [r2]
    cfe8:	e1a05001 	mov	r5, r1
    cfec:	e1a04000 	mov	r4, r0
    cff0:	e3c30102 	bic	r0, r3, #-2147483648	; 0x80000000
    cff4:	eb00128a 	bl	11a24 <__extendsfdf2>
    cff8:	e1a03001 	mov	r3, r1
    cffc:	e1a02000 	mov	r2, r0
    d000:	e1a01005 	mov	r1, r5
    d004:	e1a00004 	mov	r0, r4
    d008:	eb001298 	bl	11a70 <__muldf3>
    d00c:	e1a03001 	mov	r3, r1
    d010:	e1a02000 	mov	r2, r0
    d014:	e1a01007 	mov	r1, r7
    d018:	e1a00006 	mov	r0, r6
    d01c:	eb0011aa 	bl	116cc <__adddf3>
    d020:	eb001437 	bl	12104 <__truncdfsf2>
    d024:	e59f3230 	ldr	r3, [pc, #560]	; d25c <.text+0x925c>
    d028:	e5934000 	ldr	r4, [r3]
    d02c:	e59f322c 	ldr	r3, [pc, #556]	; d260 <.text+0x9260>
    d030:	e1a01004 	mov	r1, r4
    d034:	e1a08000 	mov	r8, r0
    d038:	e5930000 	ldr	r0, [r3]
    d03c:	eb00146e 	bl	121fc <__subsf3>
    d040:	e3a01000 	mov	r1, #0	; 0x0
    d044:	e1a06000 	mov	r6, r0
    d048:	eb0015bd 	bl	12744 <__gesf2>
    d04c:	e3500000 	cmp	r0, #0	; 0x0
    d050:	da000015 	ble	d0ac <h_ctl_attitude_loop+0x5a4>
    d054:	e1a00004 	mov	r0, r4
    d058:	eb001271 	bl	11a24 <__extendsfdf2>
    d05c:	e1a03001 	mov	r3, r1
    d060:	e1a02000 	mov	r2, r0
    d064:	e28f0f5b 	add	r0, pc, #364	; 0x16c
    d068:	e8900003 	ldmia	r0, {r0, r1}
    d06c:	eb001195 	bl	116c8 <__subdf3>
    d070:	e28f2f5a 	add	r2, pc, #360	; 0x168
    d074:	e892000c 	ldmia	r2, {r2, r3}
    d078:	e1a05001 	mov	r5, r1
    d07c:	e1a04000 	mov	r4, r0
    d080:	eb0013b5 	bl	11f5c <__gedf2>
    d084:	e3500000 	cmp	r0, #0	; 0x0
    d088:	d59f01d4 	ldrle	r0, [pc, #468]	; d264 <.text+0x9264>
    d08c:	c1a01005 	movgt	r1, r5
    d090:	c1a00004 	movgt	r0, r4
    d094:	cb00141a 	blgt	12104 <__truncdfsf2>
    d098:	e1a01000 	mov	r1, r0
    d09c:	e1a00006 	mov	r0, r6
    d0a0:	eb00153f 	bl	125a4 <__divsf3>
    d0a4:	e59f31bc 	ldr	r3, [pc, #444]	; d268 <.text+0x9268>
    d0a8:	ea000013 	b	d0fc <h_ctl_attitude_loop+0x5f4>
    d0ac:	e1a00004 	mov	r0, r4
    d0b0:	eb00125b 	bl	11a24 <__extendsfdf2>
    d0b4:	e28f2f49 	add	r2, pc, #292	; 0x124
    d0b8:	e892000c 	ldmia	r2, {r2, r3}
    d0bc:	eb001181 	bl	116c8 <__subdf3>
    d0c0:	e28f2f46 	add	r2, pc, #280	; 0x118
    d0c4:	e892000c 	ldmia	r2, {r2, r3}
    d0c8:	e1a05001 	mov	r5, r1
    d0cc:	e1a04000 	mov	r4, r0
    d0d0:	eb0013a1 	bl	11f5c <__gedf2>
    d0d4:	e3500000 	cmp	r0, #0	; 0x0
    d0d8:	d59f1184 	ldrle	r1, [pc, #388]	; d264 <.text+0x9264>
    d0dc:	da000003 	ble	d0f0 <h_ctl_attitude_loop+0x5e8>
    d0e0:	e1a01005 	mov	r1, r5
    d0e4:	e1a00004 	mov	r0, r4
    d0e8:	eb001405 	bl	12104 <__truncdfsf2>
    d0ec:	e1a01000 	mov	r1, r0
    d0f0:	e2260102 	eor	r0, r6, #-2147483648	; 0x80000000
    d0f4:	eb00152a 	bl	125a4 <__divsf3>
    d0f8:	e59f316c 	ldr	r3, [pc, #364]	; d26c <.text+0x926c>
    d0fc:	e5931000 	ldr	r1, [r3]
    d100:	eb0014c3 	bl	12414 <__mulsf3>
    d104:	e59f3160 	ldr	r3, [pc, #352]	; d26c <.text+0x926c>
    d108:	e1a05000 	mov	r5, r0
    d10c:	e5930000 	ldr	r0, [r3]
    d110:	e59f3150 	ldr	r3, [pc, #336]	; d268 <.text+0x9268>
    d114:	e5931000 	ldr	r1, [r3]
    d118:	eb001437 	bl	121fc <__subsf3>
    d11c:	e59f114c 	ldr	r1, [pc, #332]	; d270 <.text+0x9270>
    d120:	eb00151f 	bl	125a4 <__divsf3>
    d124:	e59fa148 	ldr	sl, [pc, #328]	; d274 <.text+0x9274>
    d128:	e59a6000 	ldr	r6, [sl]
    d12c:	e1a01000 	mov	r1, r0
    d130:	e1a07000 	mov	r7, r0
    d134:	e1a00006 	mov	r0, r6
    d138:	eb001430 	bl	12200 <__addsf3>
    d13c:	e1a04000 	mov	r4, r0
    d140:	e1a01004 	mov	r1, r4
    d144:	e1a00005 	mov	r0, r5
    d148:	eb00157d 	bl	12744 <__gesf2>
    d14c:	e3500000 	cmp	r0, #0	; 0x0
    d150:	c1a05004 	movgt	r5, r4
    d154:	ca000008 	bgt	d17c <h_ctl_attitude_loop+0x674>
    d158:	e1a01007 	mov	r1, r7
    d15c:	e1a00006 	mov	r0, r6
    d160:	eb001425 	bl	121fc <__subsf3>
    d164:	e1a04000 	mov	r4, r0
    d168:	e1a01004 	mov	r1, r4
    d16c:	e1a00005 	mov	r0, r5
    d170:	eb001575 	bl	1274c <__lesf2>
    d174:	e3500000 	cmp	r0, #0	; 0x0
    d178:	b1a05004 	movlt	r5, r4
    d17c:	e1a00008 	mov	r0, r8
    d180:	e1a01005 	mov	r1, r5
    d184:	e58a5000 	str	r5, [sl]
    d188:	eb00141c 	bl	12200 <__addsf3>
    d18c:	e59f1070 	ldr	r1, [pc, #112]	; d204 <.text+0x9204>
    d190:	e1a08000 	mov	r8, r0
    d194:	eb00156c 	bl	1274c <__lesf2>
    d198:	e3500000 	cmp	r0, #0	; 0x0
    d19c:	b59f3064 	ldrlt	r3, [pc, #100]	; d208 <.text+0x9208>
    d1a0:	b1a00003 	movlt	r0, r3
    d1a4:	ba000006 	blt	d1c4 <h_ctl_attitude_loop+0x6bc>
    d1a8:	e1a00008 	mov	r0, r8
    d1ac:	e59f1044 	ldr	r1, [pc, #68]	; d1f8 <.text+0x91f8>
    d1b0:	eb001563 	bl	12744 <__gesf2>
    d1b4:	e3500000 	cmp	r0, #0	; 0x0
    d1b8:	c3a00d96 	movgt	r0, #9600	; 0x2580
    d1bc:	d1a00008 	movle	r0, r8
    d1c0:	db001586 	blle	127e0 <__fixsfsi>
    d1c4:	e59f30ac 	ldr	r3, [pc, #172]	; d278 <.text+0x9278>
    d1c8:	e1c300b0 	strh	r0, [r3]
    d1cc:	e24bd028 	sub	sp, fp, #40	; 0x28
    d1d0:	e89d6ff0 	ldmia	sp, {r4, r5, r6, r7, r8, r9, sl, fp, sp, lr}
    d1d4:	e12fff1e 	bx	lr
    d1d8:	3fe00000 	swicc	0x00e00000
    d1dc:	00000000 	andeq	r0, r0, r0
    d1e0:	3fb99999 	swicc	0x00b99999
    d1e4:	9999999a 	ldmlsib	r9, {r1, r3, r4, r7, r8, fp, ip, pc}
    d1e8:	40000f18 	andmi	r0, r0, r8, lsl pc
    d1ec:	40000e48 	andmi	r0, r0, r8, asr #28
    d1f0:	40000f20 	andmi	r0, r0, r0, lsr #30
    d1f4:	40000f5c 	andmi	r0, r0, ip, asr pc
    d1f8:	46160000 	ldrmi	r0, [r6], -r0
    d1fc:	40000ef0 	strmid	r0, [r0], -r0
    d200:	40000f14 	andmi	r0, r0, r4, lsl pc
    d204:	c6160000 	ldrgt	r0, [r6], -r0
    d208:	ffffda80 	swinv	0x00ffda80
    d20c:	40000ecc 	andmi	r0, r0, ip, asr #29
    d210:	40000ef8 	strmid	r0, [r0], -r8
    d214:	40000ed8 	ldrmid	r0, [r0], -r8
    d218:	40000eec 	andmi	r0, r0, ip, ror #29
    d21c:	40000608 	andmi	r0, r0, r8, lsl #12
    d220:	40000604 	andmi	r0, r0, r4, lsl #12
    d224:	40000e3c 	andmi	r0, r0, ip, lsr lr
    d228:	40000600 	andmi	r0, r0, r0, lsl #12
    d22c:	40000708 	andmi	r0, r0, r8, lsl #14
    d230:	40000ee8 	andmi	r0, r0, r8, ror #29
    d234:	40000ed4 	ldrmid	r0, [r0], -r4
    d238:	41200000 	teqmi	r0, r0
    d23c:	c1200000 	teqgt	r0, r0
    d240:	40000f00 	andmi	r0, r0, r0, lsl #30
    d244:	40000f24 	andmi	r0, r0, r4, lsr #30
    d248:	40000e40 	andmi	r0, r0, r0, asr #28
    d24c:	40000efc 	strmid	r0, [r0], -ip
    d250:	4000070c 	andmi	r0, r0, ip, lsl #14
    d254:	40000f10 	andmi	r0, r0, r0, lsl pc
    d258:	40000f08 	andmi	r0, r0, r8, lsl #30
    d25c:	40000f28 	andmi	r0, r0, r8, lsr #30
    d260:	40000f48 	andmi	r0, r0, r8, asr #30
    d264:	3dcccccd 	stcccl	12, cr12, [ip, #820]
    d268:	40000074 	andmi	r0, r0, r4, ror r0
    d26c:	40000078 	andmi	r0, r0, r8, ror r0
    d270:	42a00000 	adcmi	r0, r0, #0	; 0x0
    d274:	40000710 	andmi	r0, r0, r0, lsl r7
    d278:	40000ee4 	andmi	r0, r0, r4, ror #29

0000d27c <v_ctl_init>:
    d27c:	e59f20b8 	ldr	r2, [pc, #184]	; d33c <.text+0x933c>
    d280:	e59f30b8 	ldr	r3, [pc, #184]	; d340 <.text+0x9340>
    d284:	e59fc0b8 	ldr	ip, [pc, #184]	; d344 <.text+0x9344>
    d288:	e5832000 	str	r2, [r3]
    d28c:	e59f30b4 	ldr	r3, [pc, #180]	; d348 <.text+0x9348>
    d290:	e59f20b4 	ldr	r2, [pc, #180]	; d34c <.text+0x934c>
    d294:	e583c000 	str	ip, [r3]
    d298:	e59f30b0 	ldr	r3, [pc, #176]	; d350 <.text+0x9350>
    d29c:	e5832000 	str	r2, [r3]
    d2a0:	e59f20ac 	ldr	r2, [pc, #172]	; d354 <.text+0x9354>
    d2a4:	e59f30ac 	ldr	r3, [pc, #172]	; d358 <.text+0x9358>
    d2a8:	e5832000 	str	r2, [r3]
    d2ac:	e59f20a8 	ldr	r2, [pc, #168]	; d35c <.text+0x935c>
    d2b0:	e59f30a8 	ldr	r3, [pc, #168]	; d360 <.text+0x9360>
    d2b4:	e5832000 	str	r2, [r3]
    d2b8:	e59f20a4 	ldr	r2, [pc, #164]	; d364 <.text+0x9364>
    d2bc:	e59f30a4 	ldr	r3, [pc, #164]	; d368 <.text+0x9368>
    d2c0:	e5832000 	str	r2, [r3]
    d2c4:	e59f30a0 	ldr	r3, [pc, #160]	; d36c <.text+0x936c>
    d2c8:	e59f20a0 	ldr	r2, [pc, #160]	; d370 <.text+0x9370>
    d2cc:	e5832000 	str	r2, [r3]
    d2d0:	e59f309c 	ldr	r3, [pc, #156]	; d374 <.text+0x9374>
    d2d4:	e3a01000 	mov	r1, #0	; 0x0
    d2d8:	e5831000 	str	r1, [r3]
    d2dc:	e59f3094 	ldr	r3, [pc, #148]	; d378 <.text+0x9378>
    d2e0:	e3a00000 	mov	r0, #0	; 0x0
    d2e4:	e1c300b0 	strh	r0, [r3]
    d2e8:	e59f308c 	ldr	r3, [pc, #140]	; d37c <.text+0x937c>
    d2ec:	e5c30000 	strb	r0, [r3]
    d2f0:	e59f3088 	ldr	r3, [pc, #136]	; d380 <.text+0x9380>
    d2f4:	e5831000 	str	r1, [r3]
    d2f8:	e59f3084 	ldr	r3, [pc, #132]	; d384 <.text+0x9384>
    d2fc:	e5831000 	str	r1, [r3]
    d300:	e59f3080 	ldr	r3, [pc, #128]	; d388 <.text+0x9388>
    d304:	e5831000 	str	r1, [r3]
    d308:	e59f307c 	ldr	r3, [pc, #124]	; d38c <.text+0x938c>
    d30c:	e5831000 	str	r1, [r3]
    d310:	e59f3078 	ldr	r3, [pc, #120]	; d390 <.text+0x9390>
    d314:	e5c30000 	strb	r0, [r3]
    d318:	e59f3074 	ldr	r3, [pc, #116]	; d394 <.text+0x9394>
    d31c:	e5c30000 	strb	r0, [r3]
    d320:	e59f3070 	ldr	r3, [pc, #112]	; d398 <.text+0x9398>
    d324:	e583c000 	str	ip, [r3]
    d328:	e59f306c 	ldr	r3, [pc, #108]	; d39c <.text+0x939c>
    d32c:	e5831000 	str	r1, [r3]
    d330:	e59f3068 	ldr	r3, [pc, #104]	; d3a0 <.text+0x93a0>
    d334:	e5831000 	str	r1, [r3]
    d338:	e12fff1e 	bx	lr
    d33c:	bd851eb8 	stclt	14, cr1, [r5, #736]
    d340:	40000f4c 	andmi	r0, r0, ip, asr #30
    d344:	3eb33333 	mrccc	3, 5, r3, cr3, cr3, {1}
    d348:	40000f48 	andmi	r0, r0, r8, asr #30
    d34c:	3e19999a 	mrccc	9, 0, r9, cr9, cr10, {4}
    d350:	40000f54 	andmi	r0, r0, r4, asr pc
    d354:	bc23d70a 	stclt	7, cr13, [r3], #-40
    d358:	40000f70 	andmi	r0, r0, r0, ror pc
    d35c:	3dcccccd 	stcccl	12, cr12, [ip, #820]
    d360:	40000f58 	andmi	r0, r0, r8, asr pc
    d364:	3d4ccccd 	stcccl	12, cr12, [ip, #-820]
    d368:	40000f3c 	andmi	r0, r0, ip, lsr pc
    d36c:	40000f50 	andmi	r0, r0, r0, asr pc
    d370:	bdcccccd 	stcltl	12, cr12, [ip, #820]
    d374:	40000f74 	andmi	r0, r0, r4, ror pc
    d378:	40000f5c 	andmi	r0, r0, ip, asr pc
    d37c:	40000f44 	andmi	r0, r0, r4, asr #30
    d380:	40000f40 	andmi	r0, r0, r0, asr #30
    d384:	40000f68 	andmi	r0, r0, r8, ror #30
    d388:	40000f2c 	andmi	r0, r0, ip, lsr #30
    d38c:	40000f60 	andmi	r0, r0, r0, ror #30
    d390:	40000f30 	andmi	r0, r0, r0, lsr pc
    d394:	40000f38 	andmi	r0, r0, r8, lsr pc
    d398:	40000f28 	andmi	r0, r0, r8, lsr #30
    d39c:	40000f34 	andmi	r0, r0, r4, lsr pc
    d3a0:	40000f64 	andmi	r0, r0, r4, ror #30

0000d3a4 <v_ctl_altitude_loop>:
    d3a4:	e1a0c00d 	mov	ip, sp
    d3a8:	e92dd870 	stmdb	sp!, {r4, r5, r6, fp, ip, lr, pc}
    d3ac:	e59f30d0 	ldr	r3, [pc, #208]	; d484 <.text+0x9484>
    d3b0:	e5930000 	ldr	r0, [r3]
    d3b4:	e59f30cc 	ldr	r3, [pc, #204]	; d488 <.text+0x9488>
    d3b8:	e24cb004 	sub	fp, ip, #4	; 0x4
    d3bc:	e5931000 	ldr	r1, [r3]
    d3c0:	eb00138d 	bl	121fc <__subsf3>
    d3c4:	e59f30c0 	ldr	r3, [pc, #192]	; d48c <.text+0x948c>
    d3c8:	e59f60c0 	ldr	r6, [pc, #192]	; d490 <.text+0x9490>
    d3cc:	e1a02000 	mov	r2, r0
    d3d0:	e1a01000 	mov	r1, r0
    d3d4:	e5930000 	ldr	r0, [r3]
    d3d8:	e5862000 	str	r2, [r6]
    d3dc:	eb00140c 	bl	12414 <__mulsf3>
    d3e0:	e59f30ac 	ldr	r3, [pc, #172]	; d494 <.text+0x9494>
    d3e4:	e5931000 	ldr	r1, [r3]
    d3e8:	eb001384 	bl	12200 <__addsf3>
    d3ec:	e59f50a4 	ldr	r5, [pc, #164]	; d498 <.text+0x9498>
    d3f0:	e1a04000 	mov	r4, r0
    d3f4:	e3a01101 	mov	r1, #1073741824	; 0x40000000
    d3f8:	e5854000 	str	r4, [r5]
    d3fc:	eb0014d0 	bl	12744 <__gesf2>
    d400:	e3500000 	cmp	r0, #0	; 0x0
    d404:	c3a03101 	movgt	r3, #1073741824	; 0x40000000
    d408:	ca000005 	bgt	d424 <v_ctl_altitude_loop+0x80>
    d40c:	e1a00004 	mov	r0, r4
    d410:	e3a01103 	mov	r1, #-1073741824	; 0xc0000000
    d414:	eb0014cc 	bl	1274c <__lesf2>
    d418:	e3500000 	cmp	r0, #0	; 0x0
    d41c:	aa000001 	bge	d428 <v_ctl_altitude_loop+0x84>
    d420:	e3a03103 	mov	r3, #-1073741824	; 0xc0000000
    d424:	e5853000 	str	r3, [r5]
    d428:	e59f306c 	ldr	r3, [pc, #108]	; d49c <.text+0x949c>
    d42c:	e5d35000 	ldrb	r5, [r3]
    d430:	e3550000 	cmp	r5, #0	; 0x0
    d434:	1a000010 	bne	d47c <v_ctl_altitude_loop+0xd8>
    d438:	e5963000 	ldr	r3, [r6]
    d43c:	e3c34102 	bic	r4, r3, #-2147483648	; 0x80000000
    d440:	e1a00004 	mov	r0, r4
    d444:	e59f1054 	ldr	r1, [pc, #84]	; d4a0 <.text+0x94a0>
    d448:	eb0014bf 	bl	1274c <__lesf2>
    d44c:	e3500000 	cmp	r0, #0	; 0x0
    d450:	b59f304c 	ldrlt	r3, [pc, #76]	; d4a4 <.text+0x94a4>
    d454:	b5c35000 	strltb	r5, [r3]
    d458:	ba000007 	blt	d47c <v_ctl_altitude_loop+0xd8>
    d45c:	e1a00004 	mov	r0, r4
    d460:	e59f1040 	ldr	r1, [pc, #64]	; d4a8 <.text+0x94a8>
    d464:	eb0014b6 	bl	12744 <__gesf2>
    d468:	e59f2034 	ldr	r2, [pc, #52]	; d4a4 <.text+0x94a4>
    d46c:	e3500000 	cmp	r0, #0	; 0x0
    d470:	c3a03001 	movgt	r3, #1	; 0x1
    d474:	d3a03002 	movle	r3, #2	; 0x2
    d478:	e5c23000 	strb	r3, [r2]
    d47c:	e89d6870 	ldmia	sp, {r4, r5, r6, fp, sp, lr}
    d480:	e12fff1e 	bx	lr
    d484:	40000e28 	andmi	r0, r0, r8, lsr #28
    d488:	40000f40 	andmi	r0, r0, r0, asr #30
    d48c:	40000f4c 	andmi	r0, r0, ip, asr #30
    d490:	40000f2c 	andmi	r0, r0, ip, lsr #30
    d494:	40000f68 	andmi	r0, r0, r8, ror #30
    d498:	40000f60 	andmi	r0, r0, r0, ror #30
    d49c:	40000f30 	andmi	r0, r0, r0, lsr pc
    d4a0:	41200000 	teqmi	r0, r0
    d4a4:	40000f38 	andmi	r0, r0, r8, lsr pc
    d4a8:	41a00000 	movmi	r0, r0

0000d4ac <v_ctl_climb_loop>:
    d4ac:	e1a0c00d 	mov	ip, sp
    d4b0:	e92ddff0 	stmdb	sp!, {r4, r5, r6, r7, r8, r9, sl, fp, ip, lr, pc}
    d4b4:	e59f3488 	ldr	r3, [pc, #1160]	; d944 <.text+0x9944>
    d4b8:	e24cb004 	sub	fp, ip, #4	; 0x4
    d4bc:	e24dd004 	sub	sp, sp, #4	; 0x4
    d4c0:	e5d33000 	ldrb	r3, [r3]
    d4c4:	e3530000 	cmp	r3, #0	; 0x0
    d4c8:	0a000002 	beq	d4d8 <v_ctl_climb_loop+0x2c>
    d4cc:	e3530001 	cmp	r3, #1	; 0x1
    d4d0:	0a0000ce 	beq	d810 <v_ctl_climb_loop+0x364>
    d4d4:	ea000109 	b	d900 <v_ctl_climb_loop+0x454>
    d4d8:	e59f3468 	ldr	r3, [pc, #1128]	; d948 <.text+0x9948>
    d4dc:	e5935000 	ldr	r5, [r3]
    d4e0:	e59f3464 	ldr	r3, [pc, #1124]	; d94c <.text+0x994c>
    d4e4:	e1a01005 	mov	r1, r5
    d4e8:	e5930000 	ldr	r0, [r3]
    d4ec:	eb001342 	bl	121fc <__subsf3>
    d4f0:	e59f3458 	ldr	r3, [pc, #1112]	; d950 <.text+0x9950>
    d4f4:	e1a09000 	mov	r9, r0
    d4f8:	e1a01005 	mov	r1, r5
    d4fc:	e5930000 	ldr	r0, [r3]
    d500:	eb0013c3 	bl	12414 <__mulsf3>
    d504:	e59f3448 	ldr	r3, [pc, #1096]	; d954 <.text+0x9954>
    d508:	e1a01000 	mov	r1, r0
    d50c:	e5930000 	ldr	r0, [r3]
    d510:	eb00133a 	bl	12200 <__addsf3>
    d514:	e59f343c 	ldr	r3, [pc, #1084]	; d958 <.text+0x9958>
    d518:	e5937000 	ldr	r7, [r3]
    d51c:	e59f3438 	ldr	r3, [pc, #1080]	; d95c <.text+0x995c>
    d520:	e1a04000 	mov	r4, r0
    d524:	e1a01007 	mov	r1, r7
    d528:	e5930000 	ldr	r0, [r3]
    d52c:	eb0013b8 	bl	12414 <__mulsf3>
    d530:	e1a01000 	mov	r1, r0
    d534:	e1a00009 	mov	r0, r9
    d538:	eb001330 	bl	12200 <__addsf3>
    d53c:	e59f341c 	ldr	r3, [pc, #1052]	; d960 <.text+0x9960>
    d540:	e1a01000 	mov	r1, r0
    d544:	e5930000 	ldr	r0, [r3]
    d548:	eb0013b1 	bl	12414 <__mulsf3>
    d54c:	e1a01000 	mov	r1, r0
    d550:	e1a00004 	mov	r0, r4
    d554:	eb001329 	bl	12200 <__addsf3>
    d558:	e59f3404 	ldr	r3, [pc, #1028]	; d964 <.text+0x9964>
    d55c:	e1a0a000 	mov	sl, r0
    d560:	e5931000 	ldr	r1, [r3]
    d564:	e1a00005 	mov	r0, r5
    d568:	eb0013a9 	bl	12414 <__mulsf3>
    d56c:	e59f33f4 	ldr	r3, [pc, #1012]	; d968 <.text+0x9968>
    d570:	e5d33000 	ldrb	r3, [r3]
    d574:	e3530001 	cmp	r3, #1	; 0x1
    d578:	e50b002c 	str	r0, [fp, #-44]
    d57c:	e3a08000 	mov	r8, #0	; 0x0
    d580:	0a000006 	beq	d5a0 <v_ctl_climb_loop+0xf4>
    d584:	ca000002 	bgt	d594 <v_ctl_climb_loop+0xe8>
    d588:	e3530000 	cmp	r3, #0	; 0x0
    d58c:	0a000073 	beq	d760 <v_ctl_climb_loop+0x2b4>
    d590:	ea00008b 	b	d7c4 <v_ctl_climb_loop+0x318>
    d594:	e3530002 	cmp	r3, #2	; 0x2
    d598:	0a00000b 	beq	d5cc <v_ctl_climb_loop+0x120>
    d59c:	ea000088 	b	d7c4 <v_ctl_climb_loop+0x318>
    d5a0:	e1a01008 	mov	r1, r8
    d5a4:	e1a00005 	mov	r0, r5
    d5a8:	eb001465 	bl	12744 <__gesf2>
    d5ac:	e3500000 	cmp	r0, #0	; 0x0
    d5b0:	e59f23b4 	ldr	r2, [pc, #948]	; d96c <.text+0x996c>
    d5b4:	c59f33b4 	ldrgt	r3, [pc, #948]	; d970 <.text+0x9970>
    d5b8:	d59f33b4 	ldrle	r3, [pc, #948]	; d974 <.text+0x9974>
    d5bc:	c59f83b4 	ldrgt	r8, [pc, #948]	; d978 <.text+0x9978>
    d5c0:	d59f83b4 	ldrle	r8, [pc, #948]	; d97c <.text+0x997c>
    d5c4:	e5823000 	str	r3, [r2]
    d5c8:	ea00007d 	b	d7c4 <v_ctl_climb_loop+0x318>
    d5cc:	e59f53ac 	ldr	r5, [pc, #940]	; d980 <.text+0x9980>
    d5d0:	e5953000 	ldr	r3, [r5]
    d5d4:	e3c30102 	bic	r0, r3, #-2147483648	; 0x80000000
    d5d8:	eb001111 	bl	11a24 <__extendsfdf2>
    d5dc:	e28f2fca 	add	r2, pc, #808	; 0x328
    d5e0:	e892000c 	ldmia	r2, {r2, r3}
    d5e4:	eb001037 	bl	116c8 <__subdf3>
    d5e8:	e28f2fc7 	add	r2, pc, #796	; 0x31c
    d5ec:	e892000c 	ldmia	r2, {r2, r3}
    d5f0:	eb0011bc 	bl	11ce8 <__divdf3>
    d5f4:	eb0012c2 	bl	12104 <__truncdfsf2>
    d5f8:	e1a01000 	mov	r1, r0
    d5fc:	e1a06000 	mov	r6, r0
    d600:	e3a005fe 	mov	r0, #1065353216	; 0x3f800000
    d604:	eb0012fc 	bl	121fc <__subsf3>
    d608:	e1a0100a 	mov	r1, sl
    d60c:	e1a04000 	mov	r4, r0
    d610:	eb00137f 	bl	12414 <__mulsf3>
    d614:	e51b102c 	ldr	r1, [fp, #-44]
    d618:	e1a08000 	mov	r8, r0
    d61c:	e1a00004 	mov	r0, r4
    d620:	eb00137b 	bl	12414 <__mulsf3>
    d624:	e59f3340 	ldr	r3, [pc, #832]	; d96c <.text+0x996c>
    d628:	e1a0a000 	mov	sl, r0
    d62c:	e583a000 	str	sl, [r3]
    d630:	e1a01009 	mov	r1, r9
    d634:	e1a00004 	mov	r0, r4
    d638:	eb001375 	bl	12414 <__mulsf3>
    d63c:	e1a01000 	mov	r1, r0
    d640:	e1a00007 	mov	r0, r7
    d644:	eb0012ed 	bl	12200 <__addsf3>
    d648:	e59f3308 	ldr	r3, [pc, #776]	; d958 <.text+0x9958>
    d64c:	e3a01000 	mov	r1, #0	; 0x0
    d650:	e5830000 	str	r0, [r3]
    d654:	e5950000 	ldr	r0, [r5]
    d658:	eb00143b 	bl	1274c <__lesf2>
    d65c:	e3500000 	cmp	r0, #0	; 0x0
    d660:	aa00001a 	bge	d6d0 <v_ctl_climb_loop+0x224>
    d664:	e1a00008 	mov	r0, r8
    d668:	eb0010ed 	bl	11a24 <__extendsfdf2>
    d66c:	e1a05001 	mov	r5, r1
    d670:	e1a04000 	mov	r4, r0
    d674:	e1a00006 	mov	r0, r6
    d678:	eb0010e9 	bl	11a24 <__extendsfdf2>
    d67c:	e28f2e29 	add	r2, pc, #656	; 0x290
    d680:	e892000c 	ldmia	r2, {r2, r3}
    d684:	e1a07001 	mov	r7, r1
    d688:	e1a06000 	mov	r6, r0
    d68c:	eb0010f7 	bl	11a70 <__muldf3>
    d690:	e1a03001 	mov	r3, r1
    d694:	e1a02000 	mov	r2, r0
    d698:	e1a01005 	mov	r1, r5
    d69c:	e1a00004 	mov	r0, r4
    d6a0:	eb001009 	bl	116cc <__adddf3>
    d6a4:	eb001296 	bl	12104 <__truncdfsf2>
    d6a8:	e1a08000 	mov	r8, r0
    d6ac:	e1a0000a 	mov	r0, sl
    d6b0:	eb0010db 	bl	11a24 <__extendsfdf2>
    d6b4:	e28f2e26 	add	r2, pc, #608	; 0x260
    d6b8:	e892000c 	ldmia	r2, {r2, r3}
    d6bc:	e1a05001 	mov	r5, r1
    d6c0:	e1a04000 	mov	r4, r0
    d6c4:	e1a01007 	mov	r1, r7
    d6c8:	e1a00006 	mov	r0, r6
    d6cc:	ea000019 	b	d738 <v_ctl_climb_loop+0x28c>
    d6d0:	e1a00008 	mov	r0, r8
    d6d4:	eb0010d2 	bl	11a24 <__extendsfdf2>
    d6d8:	e1a05001 	mov	r5, r1
    d6dc:	e1a04000 	mov	r4, r0
    d6e0:	e1a00006 	mov	r0, r6
    d6e4:	eb0010ce 	bl	11a24 <__extendsfdf2>
    d6e8:	e28f2f8d 	add	r2, pc, #564	; 0x234
    d6ec:	e892000c 	ldmia	r2, {r2, r3}
    d6f0:	e1a07001 	mov	r7, r1
    d6f4:	e1a06000 	mov	r6, r0
    d6f8:	eb0010dc 	bl	11a70 <__muldf3>
    d6fc:	e1a03001 	mov	r3, r1
    d700:	e1a02000 	mov	r2, r0
    d704:	e1a01005 	mov	r1, r5
    d708:	e1a00004 	mov	r0, r4
    d70c:	eb000fee 	bl	116cc <__adddf3>
    d710:	eb00127b 	bl	12104 <__truncdfsf2>
    d714:	e1a08000 	mov	r8, r0
    d718:	e1a0000a 	mov	r0, sl
    d71c:	eb0010c0 	bl	11a24 <__extendsfdf2>
    d720:	e28f2f81 	add	r2, pc, #516	; 0x204
    d724:	e892000c 	ldmia	r2, {r2, r3}
    d728:	e1a05001 	mov	r5, r1
    d72c:	e1a04000 	mov	r4, r0
    d730:	e1a01007 	mov	r1, r7
    d734:	e1a00006 	mov	r0, r6
    d738:	eb0010cc 	bl	11a70 <__muldf3>
    d73c:	e1a03001 	mov	r3, r1
    d740:	e1a02000 	mov	r2, r0
    d744:	e1a01005 	mov	r1, r5
    d748:	e1a00004 	mov	r0, r4
    d74c:	eb000fde 	bl	116cc <__adddf3>
    d750:	eb00126b 	bl	12104 <__truncdfsf2>
    d754:	e59f3210 	ldr	r3, [pc, #528]	; d96c <.text+0x996c>
    d758:	e5830000 	str	r0, [r3]
    d75c:	ea000018 	b	d7c4 <v_ctl_climb_loop+0x318>
    d760:	e1a01009 	mov	r1, r9
    d764:	e1a00007 	mov	r0, r7
    d768:	eb0012a4 	bl	12200 <__addsf3>
    d76c:	e59f5210 	ldr	r5, [pc, #528]	; d984 <.text+0x9984>
    d770:	e59f31e0 	ldr	r3, [pc, #480]	; d958 <.text+0x9958>
    d774:	e1a04000 	mov	r4, r0
    d778:	e1a01005 	mov	r1, r5
    d77c:	e5834000 	str	r4, [r3]
    d780:	eb0013ef 	bl	12744 <__gesf2>
    d784:	e3500000 	cmp	r0, #0	; 0x0
    d788:	e1a0800a 	mov	r8, sl
    d78c:	ca000005 	bgt	d7a8 <v_ctl_climb_loop+0x2fc>
    d790:	e59f51f0 	ldr	r5, [pc, #496]	; d988 <.text+0x9988>
    d794:	e1a00004 	mov	r0, r4
    d798:	e1a01005 	mov	r1, r5
    d79c:	eb0013ea 	bl	1274c <__lesf2>
    d7a0:	e3500000 	cmp	r0, #0	; 0x0
    d7a4:	aa000001 	bge	d7b0 <v_ctl_climb_loop+0x304>
    d7a8:	e59f31a8 	ldr	r3, [pc, #424]	; d958 <.text+0x9958>
    d7ac:	e5835000 	str	r5, [r3]
    d7b0:	e59f41b4 	ldr	r4, [pc, #436]	; d96c <.text+0x996c>
    d7b4:	e51b102c 	ldr	r1, [fp, #-44]
    d7b8:	e5940000 	ldr	r0, [r4]
    d7bc:	eb00128f 	bl	12200 <__addsf3>
    d7c0:	e5840000 	str	r0, [r4]
    d7c4:	e59f11c0 	ldr	r1, [pc, #448]	; d98c <.text+0x998c>
    d7c8:	e1a00008 	mov	r0, r8
    d7cc:	eb001310 	bl	12414 <__mulsf3>
    d7d0:	e3a01000 	mov	r1, #0	; 0x0
    d7d4:	e1a04000 	mov	r4, r0
    d7d8:	eb0013db 	bl	1274c <__lesf2>
    d7dc:	e3500000 	cmp	r0, #0	; 0x0
    d7e0:	b3a00000 	movlt	r0, #0	; 0x0
    d7e4:	ba000006 	blt	d804 <v_ctl_climb_loop+0x358>
    d7e8:	e1a00004 	mov	r0, r4
    d7ec:	e59f1198 	ldr	r1, [pc, #408]	; d98c <.text+0x998c>
    d7f0:	eb0013d3 	bl	12744 <__gesf2>
    d7f4:	e3500000 	cmp	r0, #0	; 0x0
    d7f8:	c3a00d96 	movgt	r0, #9600	; 0x2580
    d7fc:	d1a00004 	movle	r0, r4
    d800:	db0013f6 	blle	127e0 <__fixsfsi>
    d804:	e59f3184 	ldr	r3, [pc, #388]	; d990 <.text+0x9990>
    d808:	e1c300b0 	strh	r0, [r3]
    d80c:	ea00003b 	b	d900 <v_ctl_climb_loop+0x454>
    d810:	e59f3134 	ldr	r3, [pc, #308]	; d94c <.text+0x994c>
    d814:	e5930000 	ldr	r0, [r3]
    d818:	e59f3128 	ldr	r3, [pc, #296]	; d948 <.text+0x9948>
    d81c:	e5931000 	ldr	r1, [r3]
    d820:	eb001275 	bl	121fc <__subsf3>
    d824:	e59f2168 	ldr	r2, [pc, #360]	; d994 <.text+0x9994>
    d828:	e59f3160 	ldr	r3, [pc, #352]	; d990 <.text+0x9990>
    d82c:	e1d220b0 	ldrh	r2, [r2]
    d830:	e59f5160 	ldr	r5, [pc, #352]	; d998 <.text+0x9998>
    d834:	e1a07000 	mov	r7, r0
    d838:	e1a01007 	mov	r1, r7
    d83c:	e5950000 	ldr	r0, [r5]
    d840:	e1c320b0 	strh	r2, [r3]
    d844:	eb00126d 	bl	12200 <__addsf3>
    d848:	e59f614c 	ldr	r6, [pc, #332]	; d99c <.text+0x999c>
    d84c:	e1a04000 	mov	r4, r0
    d850:	e1a01006 	mov	r1, r6
    d854:	e5854000 	str	r4, [r5]
    d858:	eb0013b9 	bl	12744 <__gesf2>
    d85c:	e3500000 	cmp	r0, #0	; 0x0
    d860:	ca000005 	bgt	d87c <v_ctl_climb_loop+0x3d0>
    d864:	e59f6134 	ldr	r6, [pc, #308]	; d9a0 <.text+0x99a0>
    d868:	e1a00004 	mov	r0, r4
    d86c:	e1a01006 	mov	r1, r6
    d870:	eb0013b5 	bl	1274c <__lesf2>
    d874:	e3500000 	cmp	r0, #0	; 0x0
    d878:	aa000000 	bge	d880 <v_ctl_climb_loop+0x3d4>
    d87c:	e5856000 	str	r6, [r5]
    d880:	e59f311c 	ldr	r3, [pc, #284]	; d9a4 <.text+0x99a4>
    d884:	e5951000 	ldr	r1, [r5]
    d888:	e5930000 	ldr	r0, [r3]
    d88c:	eb0012e0 	bl	12414 <__mulsf3>
    d890:	e1a01000 	mov	r1, r0
    d894:	e1a00007 	mov	r0, r7
    d898:	eb001258 	bl	12200 <__addsf3>
    d89c:	e59f3104 	ldr	r3, [pc, #260]	; d9a8 <.text+0x99a8>
    d8a0:	e1a01000 	mov	r1, r0
    d8a4:	e5930000 	ldr	r0, [r3]
    d8a8:	eb0012d9 	bl	12414 <__mulsf3>
    d8ac:	e59f60b8 	ldr	r6, [pc, #184]	; d96c <.text+0x996c>
    d8b0:	e1a03000 	mov	r3, r0
    d8b4:	e5863000 	str	r3, [r6]
    d8b8:	eb001059 	bl	11a24 <__extendsfdf2>
    d8bc:	e28f2070 	add	r2, pc, #112	; 0x70
    d8c0:	e892000c 	ldmia	r2, {r2, r3}
    d8c4:	e1a05001 	mov	r5, r1
    d8c8:	e1a04000 	mov	r4, r0
    d8cc:	eb0011a2 	bl	11f5c <__gedf2>
    d8d0:	e3500000 	cmp	r0, #0	; 0x0
    d8d4:	c59f30d0 	ldrgt	r3, [pc, #208]	; d9ac <.text+0x99ac>
    d8d8:	ca000007 	bgt	d8fc <v_ctl_climb_loop+0x450>
    d8dc:	e1a01005 	mov	r1, r5
    d8e0:	e1a00004 	mov	r0, r4
    d8e4:	e28f2050 	add	r2, pc, #80	; 0x50
    d8e8:	e892000c 	ldmia	r2, {r2, r3}
    d8ec:	eb00119c 	bl	11f64 <__ledf2>
    d8f0:	e3500000 	cmp	r0, #0	; 0x0
    d8f4:	aa000001 	bge	d900 <v_ctl_climb_loop+0x454>
    d8f8:	e59f30b0 	ldr	r3, [pc, #176]	; d9b0 <.text+0x99b0>
    d8fc:	e5863000 	str	r3, [r6]
    d900:	e24bd028 	sub	sp, fp, #40	; 0x28
    d904:	e89d6ff0 	ldmia	sp, {r4, r5, r6, r7, r8, r9, sl, fp, sp, lr}
    d908:	e12fff1e 	bx	lr
    d90c:	40240000 	eormi	r0, r4, r0
    d910:	00000000 	andeq	r0, r0, r0
    d914:	3fdccccc 	swicc	0x00dccccc
    d918:	cccccccd 	stcgtl	12, cr12, [ip], {205}
    d91c:	bfb99999 	swilt	0x00b99999
    d920:	9999999a 	ldmlsib	r9, {r1, r3, r4, r7, r8, fp, ip, pc}
    d924:	3faeb851 	swicc	0x00aeb851
    d928:	eb851eb8 	bl	fe155410 <_end+0xbe153210>
    d92c:	3fb99999 	swicc	0x00b99999
    d930:	9999999a 	ldmlsib	r9, {r1, r3, r4, r7, r8, fp, ip, pc}
    d934:	3fd66666 	swicc	0x00d66666
    d938:	66666666 	strvsbt	r6, [r6], -r6, ror #12
    d93c:	bfd66666 	swilt	0x00d66666
    d940:	66666666 	strvsbt	r6, [r6], -r6, ror #12
    d944:	40000f30 	andmi	r0, r0, r0, lsr pc
    d948:	40000f60 	andmi	r0, r0, r0, ror #30
    d94c:	40000e1c 	andmi	r0, r0, ip, lsl lr
    d950:	40000f54 	andmi	r0, r0, r4, asr pc
    d954:	40000f48 	andmi	r0, r0, r8, asr #30
    d958:	40000f34 	andmi	r0, r0, r4, lsr pc
    d95c:	40000f58 	andmi	r0, r0, r8, asr pc
    d960:	40000f70 	andmi	r0, r0, r0, ror pc
    d964:	40000f3c 	andmi	r0, r0, ip, lsr pc
    d968:	40000f38 	andmi	r0, r0, r8, lsr pc
    d96c:	400005a0 	andmi	r0, r0, r0, lsr #11
    d970:	bdcccccd 	stcltl	12, cr12, [ip, #820]
    d974:	3dcccccd 	stcccl	12, cr12, [ip, #820]
    d978:	3ee66666 	cdpcc	6, 14, cr6, cr6, cr6, {3}
    d97c:	3d75c28f 	lfmcc	f4, 3, [r5, #-572]!
    d980:	40000f2c 	andmi	r0, r0, ip, lsr #30
    d984:	43160000 	tstmi	r6, #0	; 0x0
    d988:	c3160000 	tstgt	r6, #0	; 0x0
    d98c:	46160000 	ldrmi	r0, [r6], -r0
    d990:	40000f5c 	andmi	r0, r0, ip, asr pc
    d994:	40000e80 	andmi	r0, r0, r0, lsl #29
    d998:	40000f74 	andmi	r0, r0, r4, ror pc
    d99c:	42c80000 	sbcmi	r0, r8, #0	; 0x0
    d9a0:	c2c80000 	sbcgt	r0, r8, #0	; 0x0
    d9a4:	40000f64 	andmi	r0, r0, r4, ror #30
    d9a8:	40000f50 	andmi	r0, r0, r0, asr pc
    d9ac:	3eb33333 	mrccc	3, 5, r3, cr3, cr3, {1}
    d9b0:	beb33333 	mrclt	3, 5, r3, cr3, cr3, {1}

0000d9b4 <v_ctl_throttle_slew>:
    d9b4:	e1a0c00d 	mov	ip, sp
    d9b8:	e92dd8f0 	stmdb	sp!, {r4, r5, r6, r7, fp, ip, lr, pc}
    d9bc:	e59f3084 	ldr	r3, [pc, #132]	; da48 <.text+0x9a48>
    d9c0:	e59f7084 	ldr	r7, [pc, #132]	; da4c <.text+0x9a4c>
    d9c4:	e1d330b0 	ldrh	r3, [r3]
    d9c8:	e1d720b0 	ldrh	r2, [r7]
    d9cc:	e0623003 	rsb	r3, r2, r3
    d9d0:	e1a03803 	mov	r3, r3, lsl #16
    d9d4:	e24cb004 	sub	fp, ip, #4	; 0x4
    d9d8:	e1a00843 	mov	r0, r3, asr #16
    d9dc:	e1a06823 	mov	r6, r3, lsr #16
    d9e0:	eb001004 	bl	119f8 <__floatsidf>
    d9e4:	e28f204c 	add	r2, pc, #76	; 0x4c
    d9e8:	e892000c 	ldmia	r2, {r2, r3}
    d9ec:	e1a05001 	mov	r5, r1
    d9f0:	e1a04000 	mov	r4, r0
    d9f4:	eb001158 	bl	11f5c <__gedf2>
    d9f8:	e3500000 	cmp	r0, #0	; 0x0
    d9fc:	e28f203c 	add	r2, pc, #60	; 0x3c
    da00:	e892000c 	ldmia	r2, {r2, r3}
    da04:	e1a01005 	mov	r1, r5
    da08:	e1a00004 	mov	r0, r4
    da0c:	c3a06e1e 	movgt	r6, #480	; 0x1e0
    da10:	ca000003 	bgt	da24 <v_ctl_throttle_slew+0x70>
    da14:	eb001152 	bl	11f64 <__ledf2>
    da18:	e59f3030 	ldr	r3, [pc, #48]	; da50 <.text+0x9a50>
    da1c:	e3500000 	cmp	r0, #0	; 0x0
    da20:	b1a06003 	movlt	r6, r3
    da24:	e1d730b0 	ldrh	r3, [r7]
    da28:	e0833006 	add	r3, r3, r6
    da2c:	e1c730b0 	strh	r3, [r7]
    da30:	e89d68f0 	ldmia	sp, {r4, r5, r6, r7, fp, sp, lr}
    da34:	e12fff1e 	bx	lr
    da38:	407e0000 	rsbmis	r0, lr, r0
    da3c:	00000000 	andeq	r0, r0, r0
    da40:	c07e0000 	rsbgts	r0, lr, r0
    da44:	00000000 	andeq	r0, r0, r0
    da48:	40000f5c 	andmi	r0, r0, ip, asr pc
    da4c:	40000f6c 	andmi	r0, r0, ip, ror #30
    da50:	0000fe20 	andeq	pc, r0, r0, lsr #28

0000da54 <gyro_init>:
    da54:	e1a0c00d 	mov	ip, sp
    da58:	e92dd800 	stmdb	sp!, {fp, ip, lr, pc}
    da5c:	e3a00003 	mov	r0, #3	; 0x3
    da60:	e24cb004 	sub	fp, ip, #4	; 0x4
    da64:	e59f1048 	ldr	r1, [pc, #72]	; dab4 <.text+0x9ab4>
    da68:	e3a02010 	mov	r2, #16	; 0x10
    da6c:	ebfff21f 	bl	a2f0 <adc_buf_channel>
    da70:	e59f1040 	ldr	r1, [pc, #64]	; dab8 <.text+0x9ab8>
    da74:	e3a02010 	mov	r2, #16	; 0x10
    da78:	e3a00002 	mov	r0, #2	; 0x2
    da7c:	ebfff21b 	bl	a2f0 <adc_buf_channel>
    da80:	e59f3034 	ldr	r3, [pc, #52]	; dabc <.text+0x9abc>
    da84:	e3a0143f 	mov	r1, #1056964608	; 0x3f000000
    da88:	e59f2030 	ldr	r2, [pc, #48]	; dac0 <.text+0x9ac0>
    da8c:	e5831000 	str	r1, [r3]
    da90:	e59f302c 	ldr	r3, [pc, #44]	; dac4 <.text+0x9ac4>
    da94:	e5832000 	str	r2, [r3]
    da98:	e59f3028 	ldr	r3, [pc, #40]	; dac8 <.text+0x9ac8>
    da9c:	e59f2028 	ldr	r2, [pc, #40]	; dacc <.text+0x9acc>
    daa0:	e5832000 	str	r2, [r3]
    daa4:	e59f3024 	ldr	r3, [pc, #36]	; dad0 <.text+0x9ad0>
    daa8:	e5831000 	str	r1, [r3]
    daac:	e89d6800 	ldmia	sp, {fp, sp, lr}
    dab0:	e12fff1e 	bx	lr
    dab4:	40000714 	andmi	r0, r0, r4, lsl r7
    dab8:	40000758 	andmi	r0, r0, r8, asr r7
    dabc:	40000b04 	andmi	r0, r0, r4, lsl #22
    dac0:	43d50000 	bicmis	r0, r5, #0	; 0x0
    dac4:	40000af0 	strmid	r0, [r0], -r0
    dac8:	40000aec 	andmi	r0, r0, ip, ror #21
    dacc:	4405c000 	strmi	ip, [r5]
    dad0:	40000ad0 	ldrmid	r0, [r0], -r0

0000dad4 <gyro_update>:
    dad4:	e1a0c00d 	mov	ip, sp
    dad8:	e92dd8f0 	stmdb	sp!, {r4, r5, r6, r7, fp, ip, lr, pc}
    dadc:	e59f30f8 	ldr	r3, [pc, #248]	; dbdc <.text+0x9bdc>
    dae0:	e24cb004 	sub	fp, ip, #4	; 0x4
    dae4:	e5d31043 	ldrb	r1, [r3, #67]
    dae8:	e1d300b0 	ldrh	r0, [r3]
    daec:	eb00136c 	bl	128a4 <____divsi3_from_arm>
    daf0:	eb001234 	bl	123c8 <__floatsisf>
    daf4:	e59f30e4 	ldr	r3, [pc, #228]	; dbe0 <.text+0x9be0>
    daf8:	e5931000 	ldr	r1, [r3]
    dafc:	eb0011be 	bl	121fc <__subsf3>
    db00:	eb001336 	bl	127e0 <__fixsfsi>
    db04:	e59f70d8 	ldr	r7, [pc, #216]	; dbe4 <.text+0x9be4>
    db08:	e59f30d8 	ldr	r3, [pc, #216]	; dbe8 <.text+0x9be8>
    db0c:	e1c700b0 	strh	r0, [r7]
    db10:	e5d31043 	ldrb	r1, [r3, #67]
    db14:	e1d300b0 	ldrh	r0, [r3]
    db18:	eb001361 	bl	128a4 <____divsi3_from_arm>
    db1c:	eb001229 	bl	123c8 <__floatsisf>
    db20:	e59f30c4 	ldr	r3, [pc, #196]	; dbec <.text+0x9bec>
    db24:	e5931000 	ldr	r1, [r3]
    db28:	eb0011b3 	bl	121fc <__subsf3>
    db2c:	eb00132b 	bl	127e0 <__fixsfsi>
    db30:	e59f30b8 	ldr	r3, [pc, #184]	; dbf0 <.text+0x9bf0>
    db34:	e1c300b0 	strh	r0, [r3]
    db38:	e1d300f0 	ldrsh	r0, [r3]
    db3c:	eb001221 	bl	123c8 <__floatsisf>
    db40:	e59f30ac 	ldr	r3, [pc, #172]	; dbf4 <.text+0x9bf4>
    db44:	e28f4078 	add	r4, pc, #120	; 0x78
    db48:	e8940030 	ldmia	r4, {r4, r5}
    db4c:	e5931000 	ldr	r1, [r3]
    db50:	eb00122f 	bl	12414 <__mulsf3>
    db54:	eb000fb2 	bl	11a24 <__extendsfdf2>
    db58:	e1a03005 	mov	r3, r5
    db5c:	e1a02004 	mov	r2, r4
    db60:	eb001060 	bl	11ce8 <__divdf3>
    db64:	e28f2060 	add	r2, pc, #96	; 0x60
    db68:	e892000c 	ldmia	r2, {r2, r3}
    db6c:	eb000fbf 	bl	11a70 <__muldf3>
    db70:	eb001163 	bl	12104 <__truncdfsf2>
    db74:	e1a06000 	mov	r6, r0
    db78:	e1d700f0 	ldrsh	r0, [r7]
    db7c:	eb001211 	bl	123c8 <__floatsisf>
    db80:	e59f3070 	ldr	r3, [pc, #112]	; dbf8 <.text+0x9bf8>
    db84:	e5931000 	ldr	r1, [r3]
    db88:	eb001221 	bl	12414 <__mulsf3>
    db8c:	eb000fa4 	bl	11a24 <__extendsfdf2>
    db90:	e1a03005 	mov	r3, r5
    db94:	e1a02004 	mov	r2, r4
    db98:	eb001052 	bl	11ce8 <__divdf3>
    db9c:	e28f2030 	add	r2, pc, #48	; 0x30
    dba0:	e892000c 	ldmia	r2, {r2, r3}
    dba4:	eb000fb1 	bl	11a70 <__muldf3>
    dba8:	eb001155 	bl	12104 <__truncdfsf2>
    dbac:	e59f3048 	ldr	r3, [pc, #72]	; dbfc <.text+0x9bfc>
    dbb0:	e5830000 	str	r0, [r3]
    dbb4:	e59f3044 	ldr	r3, [pc, #68]	; dc00 <.text+0x9c00>
    dbb8:	e5836000 	str	r6, [r3]
    dbbc:	e89d68f0 	ldmia	sp, {r4, r5, r6, r7, fp, sp, lr}
    dbc0:	e12fff1e 	bx	lr
    dbc4:	40668000 	rsbmi	r8, r6, r0
    dbc8:	00000000 	andeq	r0, r0, r0
    dbcc:	400921fb 	strmid	r2, [r9], -fp
    dbd0:	54442d18 	strplb	r2, [r4], #-3352
    dbd4:	c00921fb 	strgtd	r2, [r9], -fp
    dbd8:	54442d18 	strplb	r2, [r4], #-3352
    dbdc:	40000714 	andmi	r0, r0, r4, lsl r7
    dbe0:	40000af0 	strmid	r0, [r0], -r0
    dbe4:	40000f78 	andmi	r0, r0, r8, ror pc
    dbe8:	40000758 	andmi	r0, r0, r8, asr r7
    dbec:	40000aec 	andmi	r0, r0, ip, ror #21
    dbf0:	40000b0c 	andmi	r0, r0, ip, lsl #22
    dbf4:	40000b04 	andmi	r0, r0, r4, lsl #22
    dbf8:	40000ad0 	ldrmid	r0, [r0], -r0
    dbfc:	40000e3c 	andmi	r0, r0, ip, lsr lr
    dc00:	40000e50 	andmi	r0, r0, r0, asr lr

0000dc04 <accel_init>:
    dc04:	e1a0c00d 	mov	ip, sp
    dc08:	e92dd800 	stmdb	sp!, {fp, ip, lr, pc}
    dc0c:	e3a0000b 	mov	r0, #11	; 0xb
    dc10:	e24cb004 	sub	fp, ip, #4	; 0x4
    dc14:	e59f106c 	ldr	r1, [pc, #108]	; dc88 <.text+0x9c88>
    dc18:	e3a02010 	mov	r2, #16	; 0x10
    dc1c:	ebfff1b3 	bl	a2f0 <adc_buf_channel>
    dc20:	e3a0000f 	mov	r0, #15	; 0xf
    dc24:	e59f1060 	ldr	r1, [pc, #96]	; dc8c <.text+0x9c8c>
    dc28:	e3a02010 	mov	r2, #16	; 0x10
    dc2c:	ebfff1af 	bl	a2f0 <adc_buf_channel>
    dc30:	e59f1058 	ldr	r1, [pc, #88]	; dc90 <.text+0x9c90>
    dc34:	e3a02010 	mov	r2, #16	; 0x10
    dc38:	e3a00001 	mov	r0, #1	; 0x1
    dc3c:	ebfff1ab 	bl	a2f0 <adc_buf_channel>
    dc40:	e59f104c 	ldr	r1, [pc, #76]	; dc94 <.text+0x9c94>
    dc44:	e59f304c 	ldr	r3, [pc, #76]	; dc98 <.text+0x9c98>
    dc48:	e59f204c 	ldr	r2, [pc, #76]	; dc9c <.text+0x9c9c>
    dc4c:	e5831000 	str	r1, [r3]
    dc50:	e59f3048 	ldr	r3, [pc, #72]	; dca0 <.text+0x9ca0>
    dc54:	e5832000 	str	r2, [r3]
    dc58:	e59f2044 	ldr	r2, [pc, #68]	; dca4 <.text+0x9ca4>
    dc5c:	e59f3044 	ldr	r3, [pc, #68]	; dca8 <.text+0x9ca8>
    dc60:	e5832000 	str	r2, [r3]
    dc64:	e59f3040 	ldr	r3, [pc, #64]	; dcac <.text+0x9cac>
    dc68:	e59f2040 	ldr	r2, [pc, #64]	; dcb0 <.text+0x9cb0>
    dc6c:	e5832000 	str	r2, [r3]
    dc70:	e59f303c 	ldr	r3, [pc, #60]	; dcb4 <.text+0x9cb4>
    dc74:	e5831000 	str	r1, [r3]
    dc78:	e59f3038 	ldr	r3, [pc, #56]	; dcb8 <.text+0x9cb8>
    dc7c:	e5831000 	str	r1, [r3]
    dc80:	e89d6800 	ldmia	sp, {fp, sp, lr}
    dc84:	e12fff1e 	bx	lr
    dc88:	4000079c 	mulmi	r0, ip, r7
    dc8c:	400007e0 	andmi	r0, r0, r0, ror #15
    dc90:	40000824 	andmi	r0, r0, r4, lsr #16
    dc94:	3c23d70a 	stccc	7, cr13, [r3], #-40
    dc98:	40000ae4 	andmi	r0, r0, r4, ror #21
    dc9c:	44040000 	strmi	r0, [r4]
    dca0:	40000b10 	andmi	r0, r0, r0, lsl fp
    dca4:	44010000 	strmi	r0, [r1]
    dca8:	40000afc 	strmid	r0, [r0], -ip
    dcac:	400008e0 	andmi	r0, r0, r0, ror #17
    dcb0:	43fe8000 	mvnmis	r8, #0	; 0x0
    dcb4:	40000b00 	andmi	r0, r0, r0, lsl #22
    dcb8:	400008e8 	andmi	r0, r0, r8, ror #17

0000dcbc <accel_update>:
    dcbc:	e1a0c00d 	mov	ip, sp
    dcc0:	e92dd830 	stmdb	sp!, {r4, r5, fp, ip, lr, pc}
    dcc4:	e59f30f0 	ldr	r3, [pc, #240]	; ddbc <.text+0x9dbc>
    dcc8:	e24cb004 	sub	fp, ip, #4	; 0x4
    dccc:	e5d31043 	ldrb	r1, [r3, #67]
    dcd0:	e1d300b0 	ldrh	r0, [r3]
    dcd4:	eb0012f2 	bl	128a4 <____divsi3_from_arm>
    dcd8:	eb0011ba 	bl	123c8 <__floatsisf>
    dcdc:	e59f30dc 	ldr	r3, [pc, #220]	; ddc0 <.text+0x9dc0>
    dce0:	e5931000 	ldr	r1, [r3]
    dce4:	eb001144 	bl	121fc <__subsf3>
    dce8:	eb0012bc 	bl	127e0 <__fixsfsi>
    dcec:	e59f30d0 	ldr	r3, [pc, #208]	; ddc4 <.text+0x9dc4>
    dcf0:	e1c300b0 	strh	r0, [r3]
    dcf4:	e1d300f0 	ldrsh	r0, [r3]
    dcf8:	eb0011b2 	bl	123c8 <__floatsisf>
    dcfc:	e59f30c4 	ldr	r3, [pc, #196]	; ddc8 <.text+0x9dc8>
    dd00:	e1a01000 	mov	r1, r0
    dd04:	e5930000 	ldr	r0, [r3]
    dd08:	eb0011c1 	bl	12414 <__mulsf3>
    dd0c:	e59f30b8 	ldr	r3, [pc, #184]	; ddcc <.text+0x9dcc>
    dd10:	e1a05000 	mov	r5, r0
    dd14:	e5d31043 	ldrb	r1, [r3, #67]
    dd18:	e1d300b0 	ldrh	r0, [r3]
    dd1c:	eb0012e0 	bl	128a4 <____divsi3_from_arm>
    dd20:	eb0011a8 	bl	123c8 <__floatsisf>
    dd24:	e59f30a4 	ldr	r3, [pc, #164]	; ddd0 <.text+0x9dd0>
    dd28:	e5931000 	ldr	r1, [r3]
    dd2c:	eb001132 	bl	121fc <__subsf3>
    dd30:	eb0012aa 	bl	127e0 <__fixsfsi>
    dd34:	e59f3098 	ldr	r3, [pc, #152]	; ddd4 <.text+0x9dd4>
    dd38:	e1c300b0 	strh	r0, [r3]
    dd3c:	e1d300f0 	ldrsh	r0, [r3]
    dd40:	eb0011a0 	bl	123c8 <__floatsisf>
    dd44:	e59f308c 	ldr	r3, [pc, #140]	; ddd8 <.text+0x9dd8>
    dd48:	e1a01000 	mov	r1, r0
    dd4c:	e5930000 	ldr	r0, [r3]
    dd50:	eb0011af 	bl	12414 <__mulsf3>
    dd54:	e59f3080 	ldr	r3, [pc, #128]	; dddc <.text+0x9ddc>
    dd58:	e1a04000 	mov	r4, r0
    dd5c:	e5d31043 	ldrb	r1, [r3, #67]
    dd60:	e1d300b0 	ldrh	r0, [r3]
    dd64:	eb0012ce 	bl	128a4 <____divsi3_from_arm>
    dd68:	eb001196 	bl	123c8 <__floatsisf>
    dd6c:	e59f306c 	ldr	r3, [pc, #108]	; dde0 <.text+0x9de0>
    dd70:	e5931000 	ldr	r1, [r3]
    dd74:	eb001120 	bl	121fc <__subsf3>
    dd78:	eb001298 	bl	127e0 <__fixsfsi>
    dd7c:	e59f3060 	ldr	r3, [pc, #96]	; dde4 <.text+0x9de4>
    dd80:	e1c300b0 	strh	r0, [r3]
    dd84:	e1d300f0 	ldrsh	r0, [r3]
    dd88:	eb00118e 	bl	123c8 <__floatsisf>
    dd8c:	e59f3054 	ldr	r3, [pc, #84]	; dde8 <.text+0x9de8>
    dd90:	e1a01000 	mov	r1, r0
    dd94:	e5930000 	ldr	r0, [r3]
    dd98:	eb00119d 	bl	12414 <__mulsf3>
    dd9c:	e59f3048 	ldr	r3, [pc, #72]	; ddec <.text+0x9dec>
    dda0:	e5835000 	str	r5, [r3]
    dda4:	e59f3044 	ldr	r3, [pc, #68]	; ddf0 <.text+0x9df0>
    dda8:	e5834000 	str	r4, [r3]
    ddac:	e59f3040 	ldr	r3, [pc, #64]	; ddf4 <.text+0x9df4>
    ddb0:	e5830000 	str	r0, [r3]
    ddb4:	e89d6830 	ldmia	sp, {r4, r5, fp, sp, lr}
    ddb8:	e12fff1e 	bx	lr
    ddbc:	4000079c 	mulmi	r0, ip, r7
    ddc0:	40000b10 	andmi	r0, r0, r0, lsl fp
    ddc4:	40000f86 	andmi	r0, r0, r6, lsl #31
    ddc8:	40000b00 	andmi	r0, r0, r0, lsl #22
    ddcc:	400007e0 	andmi	r0, r0, r0, ror #15
    ddd0:	40000afc 	strmid	r0, [r0], -ip
    ddd4:	40000f8c 	andmi	r0, r0, ip, lsl #31
    ddd8:	400008e8 	andmi	r0, r0, r8, ror #17
    dddc:	40000824 	andmi	r0, r0, r4, lsr #16
    dde0:	400008e0 	andmi	r0, r0, r0, ror #17
    dde4:	40000f84 	andmi	r0, r0, r4, lsl #31
    dde8:	40000ae4 	andmi	r0, r0, r4, ror #21
    ddec:	40000e5c 	andmi	r0, r0, ip, asr lr
    ddf0:	40000e38 	andmi	r0, r0, r8, lsr lr
    ddf4:	40000e2c 	andmi	r0, r0, ip, lsr #28

0000ddf8 <kalman_Q_R_init>:
    ddf8:	e59f304c 	ldr	r3, [pc, #76]	; de4c <.text+0x9e4c>
    ddfc:	e593c000 	ldr	ip, [r3]
    de00:	e59f3048 	ldr	r3, [pc, #72]	; de50 <.text+0x9e50>
    de04:	e59f1048 	ldr	r1, [pc, #72]	; de54 <.text+0x9e54>
    de08:	e5930000 	ldr	r0, [r3]
    de0c:	e59f3044 	ldr	r3, [pc, #68]	; de58 <.text+0x9e58>
    de10:	e3a02000 	mov	r2, #0	; 0x0
    de14:	e581000c 	str	r0, [r1, #12]
    de18:	e583c010 	str	ip, [r3, #16]
    de1c:	e5832020 	str	r2, [r3, #32]
    de20:	e5812008 	str	r2, [r1, #8]
    de24:	e5832004 	str	r2, [r3, #4]
    de28:	e5832008 	str	r2, [r3, #8]
    de2c:	e583200c 	str	r2, [r3, #12]
    de30:	e5832014 	str	r2, [r3, #20]
    de34:	e5832018 	str	r2, [r3, #24]
    de38:	e583201c 	str	r2, [r3, #28]
    de3c:	e583c000 	str	ip, [r3]
    de40:	e5810000 	str	r0, [r1]
    de44:	e5812004 	str	r2, [r1, #4]
    de48:	e12fff1e 	bx	lr
    de4c:	40000ae0 	andmi	r0, r0, r0, ror #21
    de50:	40000af8 	strmid	r0, [r0], -r8
    de54:	40001094 	mulmi	r0, r4, r0
    de58:	4000101c 	andmi	r1, r0, ip, lsl r0

0000de5c <kalman_roll_pitch_init>:
    de5c:	e92d47f0 	stmdb	sp!, {r4, r5, r6, r7, r8, r9, sl, lr}
    de60:	e59f30c0 	ldr	r3, [pc, #192]	; df28 <.text+0x9f28>
    de64:	e5939000 	ldr	r9, [r3]
    de68:	e59f30bc 	ldr	r3, [pc, #188]	; df2c <.text+0x9f2c>
    de6c:	e5937000 	ldr	r7, [r3]
    de70:	e59f30b8 	ldr	r3, [pc, #184]	; df30 <.text+0x9f30>
    de74:	e593a000 	ldr	sl, [r3]
    de78:	e59f30b4 	ldr	r3, [pc, #180]	; df34 <.text+0x9f34>
    de7c:	e5938000 	ldr	r8, [r3]
    de80:	e59f30b0 	ldr	r3, [pc, #176]	; df38 <.text+0x9f38>
    de84:	e3a0c000 	mov	ip, #0	; 0x0
    de88:	e59f50ac 	ldr	r5, [pc, #172]	; df3c <.text+0x9f3c>
    de8c:	e583a000 	str	sl, [r3]
    de90:	e5838004 	str	r8, [r3, #4]
    de94:	e583c008 	str	ip, [r3, #8]
    de98:	e59f30a0 	ldr	r3, [pc, #160]	; df40 <.text+0x9f40>
    de9c:	e59f10a0 	ldr	r1, [pc, #160]	; df44 <.text+0x9f44>
    dea0:	e59f00a0 	ldr	r0, [pc, #160]	; df48 <.text+0x9f48>
    dea4:	e59f40a0 	ldr	r4, [pc, #160]	; df4c <.text+0x9f4c>
    dea8:	e59f60a0 	ldr	r6, [pc, #160]	; df50 <.text+0x9f50>
    deac:	e59fe0a0 	ldr	lr, [pc, #160]	; df54 <.text+0x9f54>
    deb0:	e5835000 	str	r5, [r3]
    deb4:	e59f309c 	ldr	r3, [pc, #156]	; df58 <.text+0x9f58>
    deb8:	e3a025fe 	mov	r2, #1065353216	; 0x3f800000
    debc:	e58e7004 	str	r7, [lr, #4]
    dec0:	e5812020 	str	r2, [r1, #32]
    dec4:	e584600c 	str	r6, [r4, #12]
    dec8:	e58e9000 	str	r9, [lr]
    decc:	e5836000 	str	r6, [r3]
    ded0:	e5805010 	str	r5, [r0, #16]
    ded4:	e580c020 	str	ip, [r0, #32]
    ded8:	e584c008 	str	ip, [r4, #8]
    dedc:	e5812000 	str	r2, [r1]
    dee0:	e5812004 	str	r2, [r1, #4]
    dee4:	e5812008 	str	r2, [r1, #8]
    dee8:	e581200c 	str	r2, [r1, #12]
    deec:	e5812010 	str	r2, [r1, #16]
    def0:	e5812014 	str	r2, [r1, #20]
    def4:	e5812018 	str	r2, [r1, #24]
    def8:	e581201c 	str	r2, [r1, #28]
    defc:	e580c004 	str	ip, [r0, #4]
    df00:	e580c008 	str	ip, [r0, #8]
    df04:	e580c00c 	str	ip, [r0, #12]
    df08:	e580c014 	str	ip, [r0, #20]
    df0c:	e580c018 	str	ip, [r0, #24]
    df10:	e580c01c 	str	ip, [r0, #28]
    df14:	e5805000 	str	r5, [r0]
    df18:	e5846000 	str	r6, [r4]
    df1c:	e584c004 	str	ip, [r4, #4]
    df20:	e8bd47f0 	ldmia	sp!, {r4, r5, r6, r7, r8, r9, sl, lr}
    df24:	e12fff1e 	bx	lr
    df28:	40000e50 	andmi	r0, r0, r0, asr lr
    df2c:	40000e3c 	andmi	r0, r0, ip, lsr lr
    df30:	40000ad8 	ldrmid	r0, [r0], -r8
    df34:	400008ec 	andmi	r0, r0, ip, ror #17
    df38:	40000884 	andmi	r0, r0, r4, lsl #17
    df3c:	370637bd 	undefined
    df40:	40000ae0 	andmi	r0, r0, r0, ror #21
    df44:	40000fd4 	ldrmid	r0, [r0], -r4
    df48:	4000101c 	andmi	r1, r0, ip, lsl r0
    df4c:	40001094 	mulmi	r0, r4, r0
    df50:	37a7c5ac 	strcc	ip, [r7, ip, lsr #11]!
    df54:	40000870 	andmi	r0, r0, r0, ror r8
    df58:	40000af8 	strmid	r0, [r0], -r8

0000df5c <kalman_roll_pitch_update>:
    df5c:	e1a0c00d 	mov	ip, sp
    df60:	e92ddff0 	stmdb	sp!, {r4, r5, r6, r7, r8, r9, sl, fp, ip, lr, pc}
    df64:	e59f3ff8 	ldr	r3, [pc, #4088]	; ef64 <.text+0xaf64>
    df68:	e24cb004 	sub	fp, ip, #4	; 0x4
    df6c:	e24ddf87 	sub	sp, sp, #540	; 0x21c
    df70:	e5933000 	ldr	r3, [r3]
    df74:	e50b302c 	str	r3, [fp, #-44]
    df78:	e59f3fe8 	ldr	r3, [pc, #4072]	; ef68 <.text+0xaf68>
    df7c:	e5933000 	ldr	r3, [r3]
    df80:	e50b3030 	str	r3, [fp, #-48]
    df84:	e59f3fe0 	ldr	r3, [pc, #4064]	; ef6c <.text+0xaf6c>
    df88:	e5934000 	ldr	r4, [r3]
    df8c:	e59f3fdc 	ldr	r3, [pc, #4060]	; ef70 <.text+0xaf70>
    df90:	e59fcfdc 	ldr	ip, [pc, #4060]	; ef74 <.text+0xaf74>
    df94:	e593e000 	ldr	lr, [r3]
    df98:	e59f3fd8 	ldr	r3, [pc, #4056]	; ef78 <.text+0xaf78>
    df9c:	e58ce004 	str	lr, [ip, #4]
    dfa0:	e3a0e000 	mov	lr, #0	; 0x0
    dfa4:	e59f2fd0 	ldr	r2, [pc, #4048]	; ef7c <.text+0xaf7c>
    dfa8:	e583e020 	str	lr, [r3, #32]
    dfac:	e51be030 	ldr	lr, [fp, #-48]
    dfb0:	e59fafc8 	ldr	sl, [pc, #4040]	; ef80 <.text+0xaf80>
    dfb4:	e582e00c 	str	lr, [r2, #12]
    dfb8:	e51be02c 	ldr	lr, [fp, #-44]
    dfbc:	e58c4000 	str	r4, [ip]
    dfc0:	e59f0fbc 	ldr	r0, [pc, #4028]	; ef84 <.text+0xaf84>
    dfc4:	e3a0c000 	mov	ip, #0	; 0x0
    dfc8:	e59a8000 	ldr	r8, [sl]
    dfcc:	e583c004 	str	ip, [r3, #4]
    dfd0:	e583c008 	str	ip, [r3, #8]
    dfd4:	e583c00c 	str	ip, [r3, #12]
    dfd8:	e583c014 	str	ip, [r3, #20]
    dfdc:	e583c018 	str	ip, [r3, #24]
    dfe0:	e583c01c 	str	ip, [r3, #28]
    dfe4:	e583e000 	str	lr, [r3]
    dfe8:	e583e010 	str	lr, [r3, #16]
    dfec:	e51b3030 	ldr	r3, [fp, #-48]
    dff0:	e5900000 	ldr	r0, [r0]
    dff4:	e5823000 	str	r3, [r2]
    dff8:	e582c004 	str	ip, [r2, #4]
    dffc:	e582c008 	str	ip, [r2, #8]
    e000:	e1a01008 	mov	r1, r8
    e004:	e50b0034 	str	r0, [fp, #-52]
    e008:	eb001101 	bl	12414 <__mulsf3>
    e00c:	e59fcf70 	ldr	ip, [pc, #3952]	; ef84 <.text+0xaf84>
    e010:	e59ae004 	ldr	lr, [sl, #4]
    e014:	e59cc004 	ldr	ip, [ip, #4]
    e018:	e1a0100e 	mov	r1, lr
    e01c:	e1a04000 	mov	r4, r0
    e020:	e1a0000c 	mov	r0, ip
    e024:	e50be03c 	str	lr, [fp, #-60]
    e028:	e50bc038 	str	ip, [fp, #-56]
    e02c:	eb0010f8 	bl	12414 <__mulsf3>
    e030:	e1a01000 	mov	r1, r0
    e034:	e1a00004 	mov	r0, r4
    e038:	eb001070 	bl	12200 <__addsf3>
    e03c:	e1a04000 	mov	r4, r0
    e040:	e59f0f3c 	ldr	r0, [pc, #3900]	; ef84 <.text+0xaf84>
    e044:	e59aa008 	ldr	sl, [sl, #8]
    e048:	e5900008 	ldr	r0, [r0, #8]
    e04c:	e1a0100a 	mov	r1, sl
    e050:	e50ba044 	str	sl, [fp, #-68]
    e054:	e50b0040 	str	r0, [fp, #-64]
    e058:	eb0010ed 	bl	12414 <__mulsf3>
    e05c:	e1a01000 	mov	r1, r0
    e060:	e1a00004 	mov	r0, r4
    e064:	eb001065 	bl	12200 <__addsf3>
    e068:	e59f1f14 	ldr	r1, [pc, #3860]	; ef84 <.text+0xaf84>
    e06c:	e591100c 	ldr	r1, [r1, #12]
    e070:	e50b104c 	str	r1, [fp, #-76]
    e074:	e50b0048 	str	r0, [fp, #-72]
    e078:	e1a01008 	mov	r1, r8
    e07c:	e51b004c 	ldr	r0, [fp, #-76]
    e080:	eb0010e3 	bl	12414 <__mulsf3>
    e084:	e59f2ef8 	ldr	r2, [pc, #3832]	; ef84 <.text+0xaf84>
    e088:	e5922010 	ldr	r2, [r2, #16]
    e08c:	e1a04000 	mov	r4, r0
    e090:	e51b103c 	ldr	r1, [fp, #-60]
    e094:	e1a00002 	mov	r0, r2
    e098:	e50b2050 	str	r2, [fp, #-80]
    e09c:	eb0010dc 	bl	12414 <__mulsf3>
    e0a0:	e1a01000 	mov	r1, r0
    e0a4:	e1a00004 	mov	r0, r4
    e0a8:	eb001054 	bl	12200 <__addsf3>
    e0ac:	e59f3ed0 	ldr	r3, [pc, #3792]	; ef84 <.text+0xaf84>
    e0b0:	e5933014 	ldr	r3, [r3, #20]
    e0b4:	e1a04000 	mov	r4, r0
    e0b8:	e51b1044 	ldr	r1, [fp, #-68]
    e0bc:	e1a00003 	mov	r0, r3
    e0c0:	e50b3054 	str	r3, [fp, #-84]
    e0c4:	eb0010d2 	bl	12414 <__mulsf3>
    e0c8:	e1a01000 	mov	r1, r0
    e0cc:	e1a00004 	mov	r0, r4
    e0d0:	eb00104a 	bl	12200 <__addsf3>
    e0d4:	e59fcea8 	ldr	ip, [pc, #3752]	; ef84 <.text+0xaf84>
    e0d8:	e59cc018 	ldr	ip, [ip, #24]
    e0dc:	e1a01008 	mov	r1, r8
    e0e0:	e50b0058 	str	r0, [fp, #-88]
    e0e4:	e1a0000c 	mov	r0, ip
    e0e8:	e50bc05c 	str	ip, [fp, #-92]
    e0ec:	eb0010c8 	bl	12414 <__mulsf3>
    e0f0:	e59fee8c 	ldr	lr, [pc, #3724]	; ef84 <.text+0xaf84>
    e0f4:	e59ee01c 	ldr	lr, [lr, #28]
    e0f8:	e1a04000 	mov	r4, r0
    e0fc:	e51b103c 	ldr	r1, [fp, #-60]
    e100:	e1a0000e 	mov	r0, lr
    e104:	e50be060 	str	lr, [fp, #-96]
    e108:	eb0010c1 	bl	12414 <__mulsf3>
    e10c:	e1a01000 	mov	r1, r0
    e110:	e1a00004 	mov	r0, r4
    e114:	eb001039 	bl	12200 <__addsf3>
    e118:	e1a04000 	mov	r4, r0
    e11c:	e59f0e60 	ldr	r0, [pc, #3680]	; ef84 <.text+0xaf84>
    e120:	e5900020 	ldr	r0, [r0, #32]
    e124:	e51b1044 	ldr	r1, [fp, #-68]
    e128:	e50b0064 	str	r0, [fp, #-100]
    e12c:	eb0010b8 	bl	12414 <__mulsf3>
    e130:	e1a01000 	mov	r1, r0
    e134:	e1a00004 	mov	r0, r4
    e138:	eb001030 	bl	12200 <__addsf3>
    e13c:	e59f4e9c 	ldr	r4, [pc, #3740]	; efe0 <.text+0xafe0>
    e140:	e59f2e40 	ldr	r2, [pc, #3648]	; ef88 <.text+0xaf88>
    e144:	e5941000 	ldr	r1, [r4]
    e148:	e50b0068 	str	r0, [fp, #-104]
    e14c:	e5920000 	ldr	r0, [r2]
    e150:	e50b106c 	str	r1, [fp, #-108]
    e154:	eb0010ae 	bl	12414 <__mulsf3>
    e158:	e59f3e28 	ldr	r3, [pc, #3624]	; ef88 <.text+0xaf88>
    e15c:	e5948004 	ldr	r8, [r4, #4]
    e160:	e50b0070 	str	r0, [fp, #-112]
    e164:	e1a01008 	mov	r1, r8
    e168:	e5930004 	ldr	r0, [r3, #4]
    e16c:	eb0010a8 	bl	12414 <__mulsf3>
    e170:	e1a01000 	mov	r1, r0
    e174:	e51b0070 	ldr	r0, [fp, #-112]
    e178:	eb001020 	bl	12200 <__addsf3>
    e17c:	e59fce04 	ldr	ip, [pc, #3588]	; ef88 <.text+0xaf88>
    e180:	e59fee04 	ldr	lr, [pc, #3588]	; ef8c <.text+0xaf8c>
    e184:	e1a09000 	mov	r9, r0
    e188:	e58e9000 	str	r9, [lr]
    e18c:	e59c0008 	ldr	r0, [ip, #8]
    e190:	e51b106c 	ldr	r1, [fp, #-108]
    e194:	eb00109e 	bl	12414 <__mulsf3>
    e198:	e59f2de8 	ldr	r2, [pc, #3560]	; ef88 <.text+0xaf88>
    e19c:	e1a04000 	mov	r4, r0
    e1a0:	e1a01008 	mov	r1, r8
    e1a4:	e592000c 	ldr	r0, [r2, #12]
    e1a8:	eb001099 	bl	12414 <__mulsf3>
    e1ac:	e1a01000 	mov	r1, r0
    e1b0:	e1a00004 	mov	r0, r4
    e1b4:	eb001011 	bl	12200 <__addsf3>
    e1b8:	e50b0074 	str	r0, [fp, #-116]
    e1bc:	e51be074 	ldr	lr, [fp, #-116]
    e1c0:	e59f3dc0 	ldr	r3, [pc, #3520]	; ef88 <.text+0xaf88>
    e1c4:	e59fcdc0 	ldr	ip, [pc, #3520]	; ef8c <.text+0xaf8c>
    e1c8:	e5930010 	ldr	r0, [r3, #16]
    e1cc:	e58ce004 	str	lr, [ip, #4]
    e1d0:	e51b106c 	ldr	r1, [fp, #-108]
    e1d4:	eb00108e 	bl	12414 <__mulsf3>
    e1d8:	e59f2da8 	ldr	r2, [pc, #3496]	; ef88 <.text+0xaf88>
    e1dc:	e1a04000 	mov	r4, r0
    e1e0:	e1a01008 	mov	r1, r8
    e1e4:	e5920014 	ldr	r0, [r2, #20]
    e1e8:	eb001089 	bl	12414 <__mulsf3>
    e1ec:	e1a01000 	mov	r1, r0
    e1f0:	e1a00004 	mov	r0, r4
    e1f4:	eb001001 	bl	12200 <__addsf3>
    e1f8:	e50b0078 	str	r0, [fp, #-120]
    e1fc:	e51bc078 	ldr	ip, [fp, #-120]
    e200:	e59f3d84 	ldr	r3, [pc, #3460]	; ef8c <.text+0xaf8c>
    e204:	e1a01009 	mov	r1, r9
    e208:	e583c008 	str	ip, [r3, #8]
    e20c:	e51b0048 	ldr	r0, [fp, #-72]
    e210:	eb000ffa 	bl	12200 <__addsf3>
    e214:	e59f4d84 	ldr	r4, [pc, #3460]	; efa0 <.text+0xafa0>
    e218:	e51b1074 	ldr	r1, [fp, #-116]
    e21c:	e5840000 	str	r0, [r4]
    e220:	e51b0058 	ldr	r0, [fp, #-88]
    e224:	eb000ff5 	bl	12200 <__addsf3>
    e228:	e51b1078 	ldr	r1, [fp, #-120]
    e22c:	e5840004 	str	r0, [r4, #4]
    e230:	e51b0068 	ldr	r0, [fp, #-104]
    e234:	eb000ff1 	bl	12200 <__addsf3>
    e238:	e59fed98 	ldr	lr, [pc, #3480]	; efd8 <.text+0xafd8>
    e23c:	e59ee000 	ldr	lr, [lr]
    e240:	e5840008 	str	r0, [r4, #8]
    e244:	e1a0100e 	mov	r1, lr
    e248:	e51b0034 	ldr	r0, [fp, #-52]
    e24c:	e50be07c 	str	lr, [fp, #-124]
    e250:	eb00106f 	bl	12414 <__mulsf3>
    e254:	e1a04000 	mov	r4, r0
    e258:	e59f0d78 	ldr	r0, [pc, #3448]	; efd8 <.text+0xafd8>
    e25c:	e590000c 	ldr	r0, [r0, #12]
    e260:	e50b0080 	str	r0, [fp, #-128]
    e264:	e51b1080 	ldr	r1, [fp, #-128]
    e268:	e51b0038 	ldr	r0, [fp, #-56]
    e26c:	eb001068 	bl	12414 <__mulsf3>
    e270:	e1a01000 	mov	r1, r0
    e274:	e1a00004 	mov	r0, r4
    e278:	eb000fe0 	bl	12200 <__addsf3>
    e27c:	e59f1d54 	ldr	r1, [pc, #3412]	; efd8 <.text+0xafd8>
    e280:	e5911018 	ldr	r1, [r1, #24]
    e284:	e1a04000 	mov	r4, r0
    e288:	e51b0040 	ldr	r0, [fp, #-64]
    e28c:	e50b1084 	str	r1, [fp, #-132]
    e290:	eb00105f 	bl	12414 <__mulsf3>
    e294:	e1a01000 	mov	r1, r0
    e298:	e1a00004 	mov	r0, r4
    e29c:	eb000fd7 	bl	12200 <__addsf3>
    e2a0:	e59f2d30 	ldr	r2, [pc, #3376]	; efd8 <.text+0xafd8>
    e2a4:	e5929004 	ldr	r9, [r2, #4]
    e2a8:	e50b0088 	str	r0, [fp, #-136]
    e2ac:	e1a01009 	mov	r1, r9
    e2b0:	e51b0034 	ldr	r0, [fp, #-52]
    e2b4:	eb001056 	bl	12414 <__mulsf3>
    e2b8:	e59f3d18 	ldr	r3, [pc, #3352]	; efd8 <.text+0xafd8>
    e2bc:	e5933010 	ldr	r3, [r3, #16]
    e2c0:	e1a04000 	mov	r4, r0
    e2c4:	e1a01003 	mov	r1, r3
    e2c8:	e51b0038 	ldr	r0, [fp, #-56]
    e2cc:	e50b308c 	str	r3, [fp, #-140]
    e2d0:	eb00104f 	bl	12414 <__mulsf3>
    e2d4:	e1a01000 	mov	r1, r0
    e2d8:	e1a00004 	mov	r0, r4
    e2dc:	eb000fc7 	bl	12200 <__addsf3>
    e2e0:	e59fccf0 	ldr	ip, [pc, #3312]	; efd8 <.text+0xafd8>
    e2e4:	e59c801c 	ldr	r8, [ip, #28]
    e2e8:	e1a04000 	mov	r4, r0
    e2ec:	e1a01008 	mov	r1, r8
    e2f0:	e51b0040 	ldr	r0, [fp, #-64]
    e2f4:	eb001046 	bl	12414 <__mulsf3>
    e2f8:	e1a01000 	mov	r1, r0
    e2fc:	e1a00004 	mov	r0, r4
    e300:	eb000fbe 	bl	12200 <__addsf3>
    e304:	e59feccc 	ldr	lr, [pc, #3276]	; efd8 <.text+0xafd8>
    e308:	e59ee008 	ldr	lr, [lr, #8]
    e30c:	e50b0090 	str	r0, [fp, #-144]
    e310:	e1a0100e 	mov	r1, lr
    e314:	e51b0034 	ldr	r0, [fp, #-52]
    e318:	e50be094 	str	lr, [fp, #-148]
    e31c:	eb00103c 	bl	12414 <__mulsf3>
    e320:	e1a04000 	mov	r4, r0
    e324:	e59f0cac 	ldr	r0, [pc, #3244]	; efd8 <.text+0xafd8>
    e328:	e5900014 	ldr	r0, [r0, #20]
    e32c:	e50b0098 	str	r0, [fp, #-152]
    e330:	e51b1098 	ldr	r1, [fp, #-152]
    e334:	e51b0038 	ldr	r0, [fp, #-56]
    e338:	eb001035 	bl	12414 <__mulsf3>
    e33c:	e1a01000 	mov	r1, r0
    e340:	e1a00004 	mov	r0, r4
    e344:	eb000fad 	bl	12200 <__addsf3>
    e348:	e59f1c88 	ldr	r1, [pc, #3208]	; efd8 <.text+0xafd8>
    e34c:	e5911020 	ldr	r1, [r1, #32]
    e350:	e1a04000 	mov	r4, r0
    e354:	e51b0040 	ldr	r0, [fp, #-64]
    e358:	e50b109c 	str	r1, [fp, #-156]
    e35c:	eb00102c 	bl	12414 <__mulsf3>
    e360:	e1a01000 	mov	r1, r0
    e364:	e1a00004 	mov	r0, r4
    e368:	eb000fa4 	bl	12200 <__addsf3>
    e36c:	e51b107c 	ldr	r1, [fp, #-124]
    e370:	e50b00a0 	str	r0, [fp, #-160]
    e374:	e51b004c 	ldr	r0, [fp, #-76]
    e378:	eb001025 	bl	12414 <__mulsf3>
    e37c:	e51b1080 	ldr	r1, [fp, #-128]
    e380:	e1a04000 	mov	r4, r0
    e384:	e51b0050 	ldr	r0, [fp, #-80]
    e388:	eb001021 	bl	12414 <__mulsf3>
    e38c:	e1a01000 	mov	r1, r0
    e390:	e1a00004 	mov	r0, r4
    e394:	eb000f99 	bl	12200 <__addsf3>
    e398:	e51b1084 	ldr	r1, [fp, #-132]
    e39c:	e1a04000 	mov	r4, r0
    e3a0:	e51b0054 	ldr	r0, [fp, #-84]
    e3a4:	eb00101a 	bl	12414 <__mulsf3>
    e3a8:	e1a01000 	mov	r1, r0
    e3ac:	e1a00004 	mov	r0, r4
    e3b0:	eb000f92 	bl	12200 <__addsf3>
    e3b4:	e1a01009 	mov	r1, r9
    e3b8:	e50b00a4 	str	r0, [fp, #-164]
    e3bc:	e51b004c 	ldr	r0, [fp, #-76]
    e3c0:	eb001013 	bl	12414 <__mulsf3>
    e3c4:	e51b108c 	ldr	r1, [fp, #-140]
    e3c8:	e1a04000 	mov	r4, r0
    e3cc:	e51b0050 	ldr	r0, [fp, #-80]
    e3d0:	eb00100f 	bl	12414 <__mulsf3>
    e3d4:	e1a01000 	mov	r1, r0
    e3d8:	e1a00004 	mov	r0, r4
    e3dc:	eb000f87 	bl	12200 <__addsf3>
    e3e0:	e1a01008 	mov	r1, r8
    e3e4:	e1a04000 	mov	r4, r0
    e3e8:	e51b0054 	ldr	r0, [fp, #-84]
    e3ec:	eb001008 	bl	12414 <__mulsf3>
    e3f0:	e1a01000 	mov	r1, r0
    e3f4:	e1a00004 	mov	r0, r4
    e3f8:	eb000f80 	bl	12200 <__addsf3>
    e3fc:	e51b1094 	ldr	r1, [fp, #-148]
    e400:	e50b00a8 	str	r0, [fp, #-168]
    e404:	e51b004c 	ldr	r0, [fp, #-76]
    e408:	eb001001 	bl	12414 <__mulsf3>
    e40c:	e51b1098 	ldr	r1, [fp, #-152]
    e410:	e1a04000 	mov	r4, r0
    e414:	e51b0050 	ldr	r0, [fp, #-80]
    e418:	eb000ffd 	bl	12414 <__mulsf3>
    e41c:	e1a01000 	mov	r1, r0
    e420:	e1a00004 	mov	r0, r4
    e424:	eb000f75 	bl	12200 <__addsf3>
    e428:	e51b109c 	ldr	r1, [fp, #-156]
    e42c:	e1a04000 	mov	r4, r0
    e430:	e51b0054 	ldr	r0, [fp, #-84]
    e434:	eb000ff6 	bl	12414 <__mulsf3>
    e438:	e1a01000 	mov	r1, r0
    e43c:	e1a00004 	mov	r0, r4
    e440:	eb000f6e 	bl	12200 <__addsf3>
    e444:	e51b107c 	ldr	r1, [fp, #-124]
    e448:	e50b00ac 	str	r0, [fp, #-172]
    e44c:	e51b005c 	ldr	r0, [fp, #-92]
    e450:	eb000fef 	bl	12414 <__mulsf3>
    e454:	e51b1080 	ldr	r1, [fp, #-128]
    e458:	e1a04000 	mov	r4, r0
    e45c:	e51b0060 	ldr	r0, [fp, #-96]
    e460:	eb000feb 	bl	12414 <__mulsf3>
    e464:	e1a01000 	mov	r1, r0
    e468:	e1a00004 	mov	r0, r4
    e46c:	eb000f63 	bl	12200 <__addsf3>
    e470:	e51b1084 	ldr	r1, [fp, #-132]
    e474:	e1a04000 	mov	r4, r0
    e478:	e51b0064 	ldr	r0, [fp, #-100]
    e47c:	eb000fe4 	bl	12414 <__mulsf3>
    e480:	e1a01000 	mov	r1, r0
    e484:	e1a00004 	mov	r0, r4
    e488:	eb000f5c 	bl	12200 <__addsf3>
    e48c:	e1a01009 	mov	r1, r9
    e490:	e50b00b0 	str	r0, [fp, #-176]
    e494:	e51b005c 	ldr	r0, [fp, #-92]
    e498:	eb000fdd 	bl	12414 <__mulsf3>
    e49c:	e51b108c 	ldr	r1, [fp, #-140]
    e4a0:	e1a04000 	mov	r4, r0
    e4a4:	e51b0060 	ldr	r0, [fp, #-96]
    e4a8:	eb000fd9 	bl	12414 <__mulsf3>
    e4ac:	e1a01000 	mov	r1, r0
    e4b0:	e1a00004 	mov	r0, r4
    e4b4:	eb000f51 	bl	12200 <__addsf3>
    e4b8:	e1a01008 	mov	r1, r8
    e4bc:	e1a04000 	mov	r4, r0
    e4c0:	e51b0064 	ldr	r0, [fp, #-100]
    e4c4:	eb000fd2 	bl	12414 <__mulsf3>
    e4c8:	e1a01000 	mov	r1, r0
    e4cc:	e1a00004 	mov	r0, r4
    e4d0:	eb000f4a 	bl	12200 <__addsf3>
    e4d4:	e51b1094 	ldr	r1, [fp, #-148]
    e4d8:	e1a08000 	mov	r8, r0
    e4dc:	e51b005c 	ldr	r0, [fp, #-92]
    e4e0:	eb000fcb 	bl	12414 <__mulsf3>
    e4e4:	e51b1098 	ldr	r1, [fp, #-152]
    e4e8:	e1a04000 	mov	r4, r0
    e4ec:	e51b0060 	ldr	r0, [fp, #-96]
    e4f0:	eb000fc7 	bl	12414 <__mulsf3>
    e4f4:	e1a01000 	mov	r1, r0
    e4f8:	e1a00004 	mov	r0, r4
    e4fc:	eb000f3f 	bl	12200 <__addsf3>
    e500:	e51b109c 	ldr	r1, [fp, #-156]
    e504:	e1a04000 	mov	r4, r0
    e508:	e51b0064 	ldr	r0, [fp, #-100]
    e50c:	eb000fc0 	bl	12414 <__mulsf3>
    e510:	e1a01000 	mov	r1, r0
    e514:	e1a00004 	mov	r0, r4
    e518:	eb000f38 	bl	12200 <__addsf3>
    e51c:	e51b1034 	ldr	r1, [fp, #-52]
    e520:	e1a07000 	mov	r7, r0
    e524:	e51b0088 	ldr	r0, [fp, #-136]
    e528:	eb000fb9 	bl	12414 <__mulsf3>
    e52c:	e51b1038 	ldr	r1, [fp, #-56]
    e530:	e1a04000 	mov	r4, r0
    e534:	e51b0090 	ldr	r0, [fp, #-144]
    e538:	eb000fb5 	bl	12414 <__mulsf3>
    e53c:	e1a01000 	mov	r1, r0
    e540:	e1a00004 	mov	r0, r4
    e544:	eb000f2d 	bl	12200 <__addsf3>
    e548:	e51b1040 	ldr	r1, [fp, #-64]
    e54c:	e1a04000 	mov	r4, r0
    e550:	e51b00a0 	ldr	r0, [fp, #-160]
    e554:	eb000fae 	bl	12414 <__mulsf3>
    e558:	e1a01000 	mov	r1, r0
    e55c:	e1a00004 	mov	r0, r4
    e560:	eb000f26 	bl	12200 <__addsf3>
    e564:	e51b104c 	ldr	r1, [fp, #-76]
    e568:	e50b00b4 	str	r0, [fp, #-180]
    e56c:	e51b0088 	ldr	r0, [fp, #-136]
    e570:	eb000fa7 	bl	12414 <__mulsf3>
    e574:	e51b1050 	ldr	r1, [fp, #-80]
    e578:	e1a04000 	mov	r4, r0
    e57c:	e51b0090 	ldr	r0, [fp, #-144]
    e580:	eb000fa3 	bl	12414 <__mulsf3>
    e584:	e1a01000 	mov	r1, r0
    e588:	e1a00004 	mov	r0, r4
    e58c:	eb000f1b 	bl	12200 <__addsf3>
    e590:	e51b1054 	ldr	r1, [fp, #-84]
    e594:	e1a04000 	mov	r4, r0
    e598:	e51b00a0 	ldr	r0, [fp, #-160]
    e59c:	eb000f9c 	bl	12414 <__mulsf3>
    e5a0:	e1a01000 	mov	r1, r0
    e5a4:	e1a00004 	mov	r0, r4
    e5a8:	eb000f14 	bl	12200 <__addsf3>
    e5ac:	e51b105c 	ldr	r1, [fp, #-92]
    e5b0:	e50b00b8 	str	r0, [fp, #-184]
    e5b4:	e51b0088 	ldr	r0, [fp, #-136]
    e5b8:	eb000f95 	bl	12414 <__mulsf3>
    e5bc:	e51b1060 	ldr	r1, [fp, #-96]
    e5c0:	e1a04000 	mov	r4, r0
    e5c4:	e51b0090 	ldr	r0, [fp, #-144]
    e5c8:	eb000f91 	bl	12414 <__mulsf3>
    e5cc:	e1a01000 	mov	r1, r0
    e5d0:	e1a00004 	mov	r0, r4
    e5d4:	eb000f09 	bl	12200 <__addsf3>
    e5d8:	e51b1064 	ldr	r1, [fp, #-100]
    e5dc:	e1a04000 	mov	r4, r0
    e5e0:	e51b00a0 	ldr	r0, [fp, #-160]
    e5e4:	eb000f8a 	bl	12414 <__mulsf3>
    e5e8:	e1a01000 	mov	r1, r0
    e5ec:	e1a00004 	mov	r0, r4
    e5f0:	eb000f02 	bl	12200 <__addsf3>
    e5f4:	e51b1034 	ldr	r1, [fp, #-52]
    e5f8:	e50b00bc 	str	r0, [fp, #-188]
    e5fc:	e51b00a4 	ldr	r0, [fp, #-164]
    e600:	eb000f83 	bl	12414 <__mulsf3>
    e604:	e51b1038 	ldr	r1, [fp, #-56]
    e608:	e1a04000 	mov	r4, r0
    e60c:	e51b00a8 	ldr	r0, [fp, #-168]
    e610:	eb000f7f 	bl	12414 <__mulsf3>
    e614:	e1a01000 	mov	r1, r0
    e618:	e1a00004 	mov	r0, r4
    e61c:	eb000ef7 	bl	12200 <__addsf3>
    e620:	e51b1040 	ldr	r1, [fp, #-64]
    e624:	e1a04000 	mov	r4, r0
    e628:	e51b00ac 	ldr	r0, [fp, #-172]
    e62c:	eb000f78 	bl	12414 <__mulsf3>
    e630:	e1a01000 	mov	r1, r0
    e634:	e1a00004 	mov	r0, r4
    e638:	eb000ef0 	bl	12200 <__addsf3>
    e63c:	e51b104c 	ldr	r1, [fp, #-76]
    e640:	e50b00c0 	str	r0, [fp, #-192]
    e644:	e51b00a4 	ldr	r0, [fp, #-164]
    e648:	eb000f71 	bl	12414 <__mulsf3>
    e64c:	e51b1050 	ldr	r1, [fp, #-80]
    e650:	e1a04000 	mov	r4, r0
    e654:	e51b00a8 	ldr	r0, [fp, #-168]
    e658:	eb000f6d 	bl	12414 <__mulsf3>
    e65c:	e1a01000 	mov	r1, r0
    e660:	e1a00004 	mov	r0, r4
    e664:	eb000ee5 	bl	12200 <__addsf3>
    e668:	e51b1054 	ldr	r1, [fp, #-84]
    e66c:	e1a04000 	mov	r4, r0
    e670:	e51b00ac 	ldr	r0, [fp, #-172]
    e674:	eb000f66 	bl	12414 <__mulsf3>
    e678:	e1a01000 	mov	r1, r0
    e67c:	e1a00004 	mov	r0, r4
    e680:	eb000ede 	bl	12200 <__addsf3>
    e684:	e51b105c 	ldr	r1, [fp, #-92]
    e688:	e50b00c4 	str	r0, [fp, #-196]
    e68c:	e51b00a4 	ldr	r0, [fp, #-164]
    e690:	eb000f5f 	bl	12414 <__mulsf3>
    e694:	e51b1060 	ldr	r1, [fp, #-96]
    e698:	e1a04000 	mov	r4, r0
    e69c:	e51b00a8 	ldr	r0, [fp, #-168]
    e6a0:	eb000f5b 	bl	12414 <__mulsf3>
    e6a4:	e1a01000 	mov	r1, r0
    e6a8:	e1a00004 	mov	r0, r4
    e6ac:	eb000ed3 	bl	12200 <__addsf3>
    e6b0:	e51b1064 	ldr	r1, [fp, #-100]
    e6b4:	e1a04000 	mov	r4, r0
    e6b8:	e51b00ac 	ldr	r0, [fp, #-172]
    e6bc:	eb000f54 	bl	12414 <__mulsf3>
    e6c0:	e1a01000 	mov	r1, r0
    e6c4:	e1a00004 	mov	r0, r4
    e6c8:	eb000ecc 	bl	12200 <__addsf3>
    e6cc:	e51b1034 	ldr	r1, [fp, #-52]
    e6d0:	e50b00c8 	str	r0, [fp, #-200]
    e6d4:	e51b00b0 	ldr	r0, [fp, #-176]
    e6d8:	eb000f4d 	bl	12414 <__mulsf3>
    e6dc:	e51b1038 	ldr	r1, [fp, #-56]
    e6e0:	e1a04000 	mov	r4, r0
    e6e4:	e1a00008 	mov	r0, r8
    e6e8:	eb000f49 	bl	12414 <__mulsf3>
    e6ec:	e1a01000 	mov	r1, r0
    e6f0:	e1a00004 	mov	r0, r4
    e6f4:	eb000ec1 	bl	12200 <__addsf3>
    e6f8:	e51b1040 	ldr	r1, [fp, #-64]
    e6fc:	e1a04000 	mov	r4, r0
    e700:	e1a00007 	mov	r0, r7
    e704:	eb000f42 	bl	12414 <__mulsf3>
    e708:	e1a01000 	mov	r1, r0
    e70c:	e1a00004 	mov	r0, r4
    e710:	eb000eba 	bl	12200 <__addsf3>
    e714:	e51b104c 	ldr	r1, [fp, #-76]
    e718:	e50b00cc 	str	r0, [fp, #-204]
    e71c:	e51b00b0 	ldr	r0, [fp, #-176]
    e720:	eb000f3b 	bl	12414 <__mulsf3>
    e724:	e51b1050 	ldr	r1, [fp, #-80]
    e728:	e1a04000 	mov	r4, r0
    e72c:	e1a00008 	mov	r0, r8
    e730:	eb000f37 	bl	12414 <__mulsf3>
    e734:	e1a01000 	mov	r1, r0
    e738:	e1a00004 	mov	r0, r4
    e73c:	eb000eaf 	bl	12200 <__addsf3>
    e740:	e51b1054 	ldr	r1, [fp, #-84]
    e744:	e1a04000 	mov	r4, r0
    e748:	e1a00007 	mov	r0, r7
    e74c:	eb000f30 	bl	12414 <__mulsf3>
    e750:	e1a01000 	mov	r1, r0
    e754:	e1a00004 	mov	r0, r4
    e758:	eb000ea8 	bl	12200 <__addsf3>
    e75c:	e51b105c 	ldr	r1, [fp, #-92]
    e760:	e1a09000 	mov	r9, r0
    e764:	e51b00b0 	ldr	r0, [fp, #-176]
    e768:	eb000f29 	bl	12414 <__mulsf3>
    e76c:	e51b1060 	ldr	r1, [fp, #-96]
    e770:	e1a04000 	mov	r4, r0
    e774:	e1a00008 	mov	r0, r8
    e778:	eb000f25 	bl	12414 <__mulsf3>
    e77c:	e1a01000 	mov	r1, r0
    e780:	e1a00004 	mov	r0, r4
    e784:	eb000e9d 	bl	12200 <__addsf3>
    e788:	e51b1064 	ldr	r1, [fp, #-100]
    e78c:	e1a04000 	mov	r4, r0
    e790:	e1a00007 	mov	r0, r7
    e794:	eb000f1e 	bl	12414 <__mulsf3>
    e798:	e1a01000 	mov	r1, r0
    e79c:	e1a00004 	mov	r0, r4
    e7a0:	eb000e96 	bl	12200 <__addsf3>
    e7a4:	e51b102c 	ldr	r1, [fp, #-44]
    e7a8:	e1a08000 	mov	r8, r0
    e7ac:	e51b00b4 	ldr	r0, [fp, #-180]
    e7b0:	eb000e92 	bl	12200 <__addsf3>
    e7b4:	e50b00d0 	str	r0, [fp, #-208]
    e7b8:	e59f480c 	ldr	r4, [pc, #2060]	; efcc <.text+0xafcc>
    e7bc:	e51b20d0 	ldr	r2, [fp, #-208]
    e7c0:	e3a01000 	mov	r1, #0	; 0x0
    e7c4:	e5842000 	str	r2, [r4]
    e7c8:	e51b00b8 	ldr	r0, [fp, #-184]
    e7cc:	eb000e8b 	bl	12200 <__addsf3>
    e7d0:	e50b00d4 	str	r0, [fp, #-212]
    e7d4:	e51b30d4 	ldr	r3, [fp, #-212]
    e7d8:	e3a01000 	mov	r1, #0	; 0x0
    e7dc:	e5843004 	str	r3, [r4, #4]
    e7e0:	e51b00bc 	ldr	r0, [fp, #-188]
    e7e4:	eb000e85 	bl	12200 <__addsf3>
    e7e8:	e50b00d8 	str	r0, [fp, #-216]
    e7ec:	e51bc0d8 	ldr	ip, [fp, #-216]
    e7f0:	e3a01000 	mov	r1, #0	; 0x0
    e7f4:	e584c008 	str	ip, [r4, #8]
    e7f8:	e51b00c0 	ldr	r0, [fp, #-192]
    e7fc:	eb000e7f 	bl	12200 <__addsf3>
    e800:	e50b00dc 	str	r0, [fp, #-220]
    e804:	e51be0dc 	ldr	lr, [fp, #-220]
    e808:	e51b102c 	ldr	r1, [fp, #-44]
    e80c:	e584e00c 	str	lr, [r4, #12]
    e810:	e51b00c4 	ldr	r0, [fp, #-196]
    e814:	eb000e79 	bl	12200 <__addsf3>
    e818:	e50b00e0 	str	r0, [fp, #-224]
    e81c:	e51b20e0 	ldr	r2, [fp, #-224]
    e820:	e3a01000 	mov	r1, #0	; 0x0
    e824:	e5842010 	str	r2, [r4, #16]
    e828:	e51b00c8 	ldr	r0, [fp, #-200]
    e82c:	eb000e73 	bl	12200 <__addsf3>
    e830:	e50b00e4 	str	r0, [fp, #-228]
    e834:	e51b30e4 	ldr	r3, [fp, #-228]
    e838:	e3a01000 	mov	r1, #0	; 0x0
    e83c:	e5843014 	str	r3, [r4, #20]
    e840:	e51b00cc 	ldr	r0, [fp, #-204]
    e844:	eb000e6d 	bl	12200 <__addsf3>
    e848:	e50b00e8 	str	r0, [fp, #-232]
    e84c:	e51bc0e8 	ldr	ip, [fp, #-232]
    e850:	e1a00009 	mov	r0, r9
    e854:	e584c018 	str	ip, [r4, #24]
    e858:	e3a01000 	mov	r1, #0	; 0x0
    e85c:	eb000e67 	bl	12200 <__addsf3>
    e860:	e50b00ec 	str	r0, [fp, #-236]
    e864:	e51be0ec 	ldr	lr, [fp, #-236]
    e868:	e1a00008 	mov	r0, r8
    e86c:	e584e01c 	str	lr, [r4, #28]
    e870:	e3a01000 	mov	r1, #0	; 0x0
    e874:	eb000e61 	bl	12200 <__addsf3>
    e878:	e59f3740 	ldr	r3, [pc, #1856]	; efc0 <.text+0xafc0>
    e87c:	e50b00f0 	str	r0, [fp, #-240]
    e880:	e5930014 	ldr	r0, [r3, #20]
    e884:	e5938004 	ldr	r8, [r3, #4]
    e888:	e593c000 	ldr	ip, [r3]
    e88c:	e5931008 	ldr	r1, [r3, #8]
    e890:	e593e00c 	ldr	lr, [r3, #12]
    e894:	e5933010 	ldr	r3, [r3, #16]
    e898:	e50b0100 	str	r0, [fp, #-256]
    e89c:	e59f26ec 	ldr	r2, [pc, #1772]	; ef90 <.text+0xaf90>
    e8a0:	e50be0f4 	str	lr, [fp, #-244]
    e8a4:	e50b30f8 	str	r3, [fp, #-248]
    e8a8:	e51be100 	ldr	lr, [fp, #-256]
    e8ac:	e51b30f0 	ldr	r3, [fp, #-240]
    e8b0:	e50b10fc 	str	r1, [fp, #-252]
    e8b4:	e582e014 	str	lr, [r2, #20]
    e8b8:	e582c000 	str	ip, [r2]
    e8bc:	e51be0fc 	ldr	lr, [fp, #-252]
    e8c0:	e5843020 	str	r3, [r4, #32]
    e8c4:	e50bc104 	str	ip, [fp, #-260]
    e8c8:	e51b30f4 	ldr	r3, [fp, #-244]
    e8cc:	e1a0000c 	mov	r0, ip
    e8d0:	e51bc0f8 	ldr	ip, [fp, #-248]
    e8d4:	e5828008 	str	r8, [r2, #8]
    e8d8:	e5823004 	str	r3, [r2, #4]
    e8dc:	e582c00c 	str	ip, [r2, #12]
    e8e0:	e582e010 	str	lr, [r2, #16]
    e8e4:	e51b10d0 	ldr	r1, [fp, #-208]
    e8e8:	eb000ec9 	bl	12414 <__mulsf3>
    e8ec:	e51b10dc 	ldr	r1, [fp, #-220]
    e8f0:	e50b0108 	str	r0, [fp, #-264]
    e8f4:	e1a00008 	mov	r0, r8
    e8f8:	eb000ec5 	bl	12414 <__mulsf3>
    e8fc:	e1a01000 	mov	r1, r0
    e900:	e51b0108 	ldr	r0, [fp, #-264]
    e904:	eb000e3d 	bl	12200 <__addsf3>
    e908:	e1a04000 	mov	r4, r0
    e90c:	e51b00e8 	ldr	r0, [fp, #-232]
    e910:	e1a01000 	mov	r1, r0
    e914:	e50b010c 	str	r0, [fp, #-268]
    e918:	e51b00fc 	ldr	r0, [fp, #-252]
    e91c:	eb000ebc 	bl	12414 <__mulsf3>
    e920:	e1a01000 	mov	r1, r0
    e924:	e1a00004 	mov	r0, r4
    e928:	eb000e34 	bl	12200 <__addsf3>
    e92c:	e51b10d4 	ldr	r1, [fp, #-212]
    e930:	e50b0110 	str	r0, [fp, #-272]
    e934:	e51b0104 	ldr	r0, [fp, #-260]
    e938:	eb000eb5 	bl	12414 <__mulsf3>
    e93c:	e51b10e0 	ldr	r1, [fp, #-224]
    e940:	e1a04000 	mov	r4, r0
    e944:	e1a00008 	mov	r0, r8
    e948:	eb000eb1 	bl	12414 <__mulsf3>
    e94c:	e50b0114 	str	r0, [fp, #-276]
    e950:	e51b1114 	ldr	r1, [fp, #-276]
    e954:	e1a00004 	mov	r0, r4
    e958:	eb000e28 	bl	12200 <__addsf3>
    e95c:	e51b10ec 	ldr	r1, [fp, #-236]
    e960:	e1a04000 	mov	r4, r0
    e964:	e51b00fc 	ldr	r0, [fp, #-252]
    e968:	e50b1118 	str	r1, [fp, #-280]
    e96c:	eb000ea8 	bl	12414 <__mulsf3>
    e970:	e1a01000 	mov	r1, r0
    e974:	e1a00004 	mov	r0, r4
    e978:	eb000e20 	bl	12200 <__addsf3>
    e97c:	e51b10d8 	ldr	r1, [fp, #-216]
    e980:	e50b011c 	str	r0, [fp, #-284]
    e984:	e51b0104 	ldr	r0, [fp, #-260]
    e988:	eb000ea1 	bl	12414 <__mulsf3>
    e98c:	e51b10e4 	ldr	r1, [fp, #-228]
    e990:	e1a04000 	mov	r4, r0
    e994:	e1a00008 	mov	r0, r8
    e998:	eb000e9d 	bl	12414 <__mulsf3>
    e99c:	e1a01000 	mov	r1, r0
    e9a0:	e1a00004 	mov	r0, r4
    e9a4:	eb000e15 	bl	12200 <__addsf3>
    e9a8:	e51b10f0 	ldr	r1, [fp, #-240]
    e9ac:	e1a04000 	mov	r4, r0
    e9b0:	e51b00fc 	ldr	r0, [fp, #-252]
    e9b4:	eb000e96 	bl	12414 <__mulsf3>
    e9b8:	e50b0120 	str	r0, [fp, #-288]
    e9bc:	e51b1120 	ldr	r1, [fp, #-288]
    e9c0:	e1a00004 	mov	r0, r4
    e9c4:	eb000e0d 	bl	12200 <__addsf3>
    e9c8:	e51ba0f4 	ldr	sl, [fp, #-244]
    e9cc:	e50b0124 	str	r0, [fp, #-292]
    e9d0:	e51b10d0 	ldr	r1, [fp, #-208]
    e9d4:	e1a0000a 	mov	r0, sl
    e9d8:	eb000e8d 	bl	12414 <__mulsf3>
    e9dc:	e51b70f8 	ldr	r7, [fp, #-248]
    e9e0:	e50b0128 	str	r0, [fp, #-296]
    e9e4:	e51b10dc 	ldr	r1, [fp, #-220]
    e9e8:	e1a00007 	mov	r0, r7
    e9ec:	eb000e88 	bl	12414 <__mulsf3>
    e9f0:	e1a01000 	mov	r1, r0
    e9f4:	e51b0128 	ldr	r0, [fp, #-296]
    e9f8:	eb000e00 	bl	12200 <__addsf3>
    e9fc:	e51b110c 	ldr	r1, [fp, #-268]
    ea00:	e1a04000 	mov	r4, r0
    ea04:	e51b0100 	ldr	r0, [fp, #-256]
    ea08:	eb000e81 	bl	12414 <__mulsf3>
    ea0c:	e1a01000 	mov	r1, r0
    ea10:	e1a00004 	mov	r0, r4
    ea14:	eb000df9 	bl	12200 <__addsf3>
    ea18:	e51b10d4 	ldr	r1, [fp, #-212]
    ea1c:	e50b012c 	str	r0, [fp, #-300]
    ea20:	e1a0000a 	mov	r0, sl
    ea24:	eb000e7a 	bl	12414 <__mulsf3>
    ea28:	e51b10e0 	ldr	r1, [fp, #-224]
    ea2c:	e1a04000 	mov	r4, r0
    ea30:	e1a00007 	mov	r0, r7
    ea34:	eb000e76 	bl	12414 <__mulsf3>
    ea38:	e50b0130 	str	r0, [fp, #-304]
    ea3c:	e51b1130 	ldr	r1, [fp, #-304]
    ea40:	e1a00004 	mov	r0, r4
    ea44:	eb000ded 	bl	12200 <__addsf3>
    ea48:	e51b1118 	ldr	r1, [fp, #-280]
    ea4c:	e1a04000 	mov	r4, r0
    ea50:	e51b0100 	ldr	r0, [fp, #-256]
    ea54:	eb000e6e 	bl	12414 <__mulsf3>
    ea58:	e1a01000 	mov	r1, r0
    ea5c:	e1a00004 	mov	r0, r4
    ea60:	eb000de6 	bl	12200 <__addsf3>
    ea64:	e1a09008 	mov	r9, r8
    ea68:	e51b10d8 	ldr	r1, [fp, #-216]
    ea6c:	e1a08000 	mov	r8, r0
    ea70:	e1a0000a 	mov	r0, sl
    ea74:	eb000e66 	bl	12414 <__mulsf3>
    ea78:	e51b10e4 	ldr	r1, [fp, #-228]
    ea7c:	e1a04000 	mov	r4, r0
    ea80:	e1a00007 	mov	r0, r7
    ea84:	eb000e62 	bl	12414 <__mulsf3>
    ea88:	e1a01000 	mov	r1, r0
    ea8c:	e1a00004 	mov	r0, r4
    ea90:	eb000dda 	bl	12200 <__addsf3>
    ea94:	e51b10f0 	ldr	r1, [fp, #-240]
    ea98:	e1a04000 	mov	r4, r0
    ea9c:	e51b0100 	ldr	r0, [fp, #-256]
    eaa0:	eb000e5b 	bl	12414 <__mulsf3>
    eaa4:	e50b0134 	str	r0, [fp, #-308]
    eaa8:	e51b1134 	ldr	r1, [fp, #-308]
    eaac:	e1a00004 	mov	r0, r4
    eab0:	eb000dd2 	bl	12200 <__addsf3>
    eab4:	e51b1104 	ldr	r1, [fp, #-260]
    eab8:	e50b0138 	str	r0, [fp, #-312]
    eabc:	e51b0110 	ldr	r0, [fp, #-272]
    eac0:	eb000e53 	bl	12414 <__mulsf3>
    eac4:	e1a01009 	mov	r1, r9
    eac8:	e1a04000 	mov	r4, r0
    eacc:	e51b011c 	ldr	r0, [fp, #-284]
    ead0:	e50b913c 	str	r9, [fp, #-316]
    ead4:	eb000e4e 	bl	12414 <__mulsf3>
    ead8:	e1a01000 	mov	r1, r0
    eadc:	e1a00004 	mov	r0, r4
    eae0:	eb000dc6 	bl	12200 <__addsf3>
    eae4:	e51b10fc 	ldr	r1, [fp, #-252]
    eae8:	e1a04000 	mov	r4, r0
    eaec:	e51b0124 	ldr	r0, [fp, #-292]
    eaf0:	eb000e47 	bl	12414 <__mulsf3>
    eaf4:	e1a01000 	mov	r1, r0
    eaf8:	e1a00004 	mov	r0, r4
    eafc:	eb000dbf 	bl	12200 <__addsf3>
    eb00:	e1a0100a 	mov	r1, sl
    eb04:	e1a09000 	mov	r9, r0
    eb08:	e51b0110 	ldr	r0, [fp, #-272]
    eb0c:	e50ba140 	str	sl, [fp, #-320]
    eb10:	eb000e3f 	bl	12414 <__mulsf3>
    eb14:	e1a01007 	mov	r1, r7
    eb18:	e1a04000 	mov	r4, r0
    eb1c:	e51b011c 	ldr	r0, [fp, #-284]
    eb20:	e50b7144 	str	r7, [fp, #-324]
    eb24:	eb000e3a 	bl	12414 <__mulsf3>
    eb28:	e1a01000 	mov	r1, r0
    eb2c:	e1a00004 	mov	r0, r4
    eb30:	eb000db2 	bl	12200 <__addsf3>
    eb34:	e51b1100 	ldr	r1, [fp, #-256]
    eb38:	e1a04000 	mov	r4, r0
    eb3c:	e51b0124 	ldr	r0, [fp, #-292]
    eb40:	eb000e33 	bl	12414 <__mulsf3>
    eb44:	e1a01000 	mov	r1, r0
    eb48:	e1a00004 	mov	r0, r4
    eb4c:	eb000dab 	bl	12200 <__addsf3>
    eb50:	e51b1104 	ldr	r1, [fp, #-260]
    eb54:	e50b0148 	str	r0, [fp, #-328]
    eb58:	e51b012c 	ldr	r0, [fp, #-300]
    eb5c:	eb000e2c 	bl	12414 <__mulsf3>
    eb60:	e51b113c 	ldr	r1, [fp, #-316]
    eb64:	e1a04000 	mov	r4, r0
    eb68:	e1a00008 	mov	r0, r8
    eb6c:	eb000e28 	bl	12414 <__mulsf3>
    eb70:	e1a01000 	mov	r1, r0
    eb74:	e1a00004 	mov	r0, r4
    eb78:	eb000da0 	bl	12200 <__addsf3>
    eb7c:	e51b10fc 	ldr	r1, [fp, #-252]
    eb80:	e1a04000 	mov	r4, r0
    eb84:	e51b0138 	ldr	r0, [fp, #-312]
    eb88:	eb000e21 	bl	12414 <__mulsf3>
    eb8c:	e1a01000 	mov	r1, r0
    eb90:	e1a00004 	mov	r0, r4
    eb94:	eb000d99 	bl	12200 <__addsf3>
    eb98:	e51b1140 	ldr	r1, [fp, #-320]
    eb9c:	e50b014c 	str	r0, [fp, #-332]
    eba0:	e51b012c 	ldr	r0, [fp, #-300]
    eba4:	eb000e1a 	bl	12414 <__mulsf3>
    eba8:	e51b1144 	ldr	r1, [fp, #-324]
    ebac:	e1a04000 	mov	r4, r0
    ebb0:	e1a00008 	mov	r0, r8
    ebb4:	eb000e16 	bl	12414 <__mulsf3>
    ebb8:	e1a01000 	mov	r1, r0
    ebbc:	e1a00004 	mov	r0, r4
    ebc0:	eb000d8e 	bl	12200 <__addsf3>
    ebc4:	e51b1100 	ldr	r1, [fp, #-256]
    ebc8:	e1a04000 	mov	r4, r0
    ebcc:	e51b0138 	ldr	r0, [fp, #-312]
    ebd0:	eb000e0f 	bl	12414 <__mulsf3>
    ebd4:	e1a01000 	mov	r1, r0
    ebd8:	e1a00004 	mov	r0, r4
    ebdc:	eb000d87 	bl	12200 <__addsf3>
    ebe0:	e51b1030 	ldr	r1, [fp, #-48]
    ebe4:	e1a04000 	mov	r4, r0
    ebe8:	e1a00009 	mov	r0, r9
    ebec:	eb000d83 	bl	12200 <__addsf3>
    ebf0:	e59f239c 	ldr	r2, [pc, #924]	; ef94 <.text+0xaf94>
    ebf4:	e1a08000 	mov	r8, r0
    ebf8:	e5828000 	str	r8, [r2]
    ebfc:	e3a01000 	mov	r1, #0	; 0x0
    ec00:	e51b0148 	ldr	r0, [fp, #-328]
    ec04:	eb000d7d 	bl	12200 <__addsf3>
    ec08:	e50b0150 	str	r0, [fp, #-336]
    ec0c:	e51bc150 	ldr	ip, [fp, #-336]
    ec10:	e59f337c 	ldr	r3, [pc, #892]	; ef94 <.text+0xaf94>
    ec14:	e3a01000 	mov	r1, #0	; 0x0
    ec18:	e583c004 	str	ip, [r3, #4]
    ec1c:	e51b014c 	ldr	r0, [fp, #-332]
    ec20:	eb000d76 	bl	12200 <__addsf3>
    ec24:	e50b0154 	str	r0, [fp, #-340]
    ec28:	e51b2154 	ldr	r2, [fp, #-340]
    ec2c:	e59fe360 	ldr	lr, [pc, #864]	; ef94 <.text+0xaf94>
    ec30:	e51b1030 	ldr	r1, [fp, #-48]
    ec34:	e58e2008 	str	r2, [lr, #8]
    ec38:	e1a00004 	mov	r0, r4
    ec3c:	eb000d6f 	bl	12200 <__addsf3>
    ec40:	e59f334c 	ldr	r3, [pc, #844]	; ef94 <.text+0xaf94>
    ec44:	e1a04000 	mov	r4, r0
    ec48:	e583400c 	str	r4, [r3, #12]
    ec4c:	e1a01000 	mov	r1, r0
    ec50:	e1a00008 	mov	r0, r8
    ec54:	eb000dee 	bl	12414 <__mulsf3>
    ec58:	e51b1154 	ldr	r1, [fp, #-340]
    ec5c:	e50b0158 	str	r0, [fp, #-344]
    ec60:	e51b0150 	ldr	r0, [fp, #-336]
    ec64:	eb000dea 	bl	12414 <__mulsf3>
    ec68:	e1a01000 	mov	r1, r0
    ec6c:	e51b0158 	ldr	r0, [fp, #-344]
    ec70:	eb000d61 	bl	121fc <__subsf3>
    ec74:	e50b015c 	str	r0, [fp, #-348]
    ec78:	e51b115c 	ldr	r1, [fp, #-348]
    ec7c:	e1a00004 	mov	r0, r4
    ec80:	eb000e47 	bl	125a4 <__divsf3>
    ec84:	e51bc150 	ldr	ip, [fp, #-336]
    ec88:	e50b0160 	str	r0, [fp, #-352]
    ec8c:	e51be160 	ldr	lr, [fp, #-352]
    ec90:	e22cc102 	eor	ip, ip, #-2147483648	; 0x80000000
    ec94:	e59f42fc 	ldr	r4, [pc, #764]	; ef98 <.text+0xaf98>
    ec98:	e50bc164 	str	ip, [fp, #-356]
    ec9c:	e584e000 	str	lr, [r4]
    eca0:	e51b115c 	ldr	r1, [fp, #-348]
    eca4:	e51b0164 	ldr	r0, [fp, #-356]
    eca8:	eb000e3d 	bl	125a4 <__divsf3>
    ecac:	e50b0168 	str	r0, [fp, #-360]
    ecb0:	e51b0154 	ldr	r0, [fp, #-340]
    ecb4:	e51b2168 	ldr	r2, [fp, #-360]
    ecb8:	e2200102 	eor	r0, r0, #-2147483648	; 0x80000000
    ecbc:	e50b016c 	str	r0, [fp, #-364]
    ecc0:	e5842004 	str	r2, [r4, #4]
    ecc4:	e51b115c 	ldr	r1, [fp, #-348]
    ecc8:	e51b016c 	ldr	r0, [fp, #-364]
    eccc:	eb000e34 	bl	125a4 <__divsf3>
    ecd0:	e50b0170 	str	r0, [fp, #-368]
    ecd4:	e51b3170 	ldr	r3, [fp, #-368]
    ecd8:	e51b115c 	ldr	r1, [fp, #-348]
    ecdc:	e5843008 	str	r3, [r4, #8]
    ece0:	e1a00008 	mov	r0, r8
    ece4:	eb000e2e 	bl	125a4 <__divsf3>
    ece8:	e50b0174 	str	r0, [fp, #-372]
    ecec:	e51bc174 	ldr	ip, [fp, #-372]
    ecf0:	e51b113c 	ldr	r1, [fp, #-316]
    ecf4:	e584c00c 	str	ip, [r4, #12]
    ecf8:	e51b00d4 	ldr	r0, [fp, #-212]
    ecfc:	eb000dc4 	bl	12414 <__mulsf3>
    ed00:	e1a01000 	mov	r1, r0
    ed04:	e51b0108 	ldr	r0, [fp, #-264]
    ed08:	eb000d3c 	bl	12200 <__addsf3>
    ed0c:	e51b10fc 	ldr	r1, [fp, #-252]
    ed10:	e1a04000 	mov	r4, r0
    ed14:	e51b00d8 	ldr	r0, [fp, #-216]
    ed18:	eb000dbd 	bl	12414 <__mulsf3>
    ed1c:	e1a01000 	mov	r1, r0
    ed20:	e1a00004 	mov	r0, r4
    ed24:	eb000d35 	bl	12200 <__addsf3>
    ed28:	e50b0178 	str	r0, [fp, #-376]
    ed2c:	e51b2178 	ldr	r2, [fp, #-376]
    ed30:	e59fe264 	ldr	lr, [pc, #612]	; ef9c <.text+0xaf9c>
    ed34:	e51b1144 	ldr	r1, [fp, #-324]
    ed38:	e58e2000 	str	r2, [lr]
    ed3c:	e51b00d4 	ldr	r0, [fp, #-212]
    ed40:	eb000db3 	bl	12414 <__mulsf3>
    ed44:	e1a01000 	mov	r1, r0
    ed48:	e51b0128 	ldr	r0, [fp, #-296]
    ed4c:	eb000d2b 	bl	12200 <__addsf3>
    ed50:	e51b1100 	ldr	r1, [fp, #-256]
    ed54:	e1a04000 	mov	r4, r0
    ed58:	e51b00d8 	ldr	r0, [fp, #-216]
    ed5c:	eb000dac 	bl	12414 <__mulsf3>
    ed60:	e1a01000 	mov	r1, r0
    ed64:	e1a00004 	mov	r0, r4
    ed68:	eb000d24 	bl	12200 <__addsf3>
    ed6c:	e59f3228 	ldr	r3, [pc, #552]	; ef9c <.text+0xaf9c>
    ed70:	e1a08000 	mov	r8, r0
    ed74:	e5838004 	str	r8, [r3, #4]
    ed78:	e51b1104 	ldr	r1, [fp, #-260]
    ed7c:	e51b00dc 	ldr	r0, [fp, #-220]
    ed80:	eb000da3 	bl	12414 <__mulsf3>
    ed84:	e51b1114 	ldr	r1, [fp, #-276]
    ed88:	eb000d1c 	bl	12200 <__addsf3>
    ed8c:	e51b10fc 	ldr	r1, [fp, #-252]
    ed90:	e1a04000 	mov	r4, r0
    ed94:	e51b00e4 	ldr	r0, [fp, #-228]
    ed98:	eb000d9d 	bl	12414 <__mulsf3>
    ed9c:	e1a01000 	mov	r1, r0
    eda0:	e1a00004 	mov	r0, r4
    eda4:	eb000d15 	bl	12200 <__addsf3>
    eda8:	e59fc1ec 	ldr	ip, [pc, #492]	; ef9c <.text+0xaf9c>
    edac:	e1a09000 	mov	r9, r0
    edb0:	e58c9008 	str	r9, [ip, #8]
    edb4:	e51b1140 	ldr	r1, [fp, #-320]
    edb8:	e51b00dc 	ldr	r0, [fp, #-220]
    edbc:	eb000d94 	bl	12414 <__mulsf3>
    edc0:	e51b1130 	ldr	r1, [fp, #-304]
    edc4:	eb000d0d 	bl	12200 <__addsf3>
    edc8:	e51b1100 	ldr	r1, [fp, #-256]
    edcc:	e1a04000 	mov	r4, r0
    edd0:	e51b00e4 	ldr	r0, [fp, #-228]
    edd4:	eb000d8e 	bl	12414 <__mulsf3>
    edd8:	e1a01000 	mov	r1, r0
    eddc:	e1a00004 	mov	r0, r4
    ede0:	eb000d06 	bl	12200 <__addsf3>
    ede4:	e50b017c 	str	r0, [fp, #-380]
    ede8:	e51b217c 	ldr	r2, [fp, #-380]
    edec:	e59fe1a8 	ldr	lr, [pc, #424]	; ef9c <.text+0xaf9c>
    edf0:	e51b1104 	ldr	r1, [fp, #-260]
    edf4:	e58e200c 	str	r2, [lr, #12]
    edf8:	e51b010c 	ldr	r0, [fp, #-268]
    edfc:	eb000d84 	bl	12414 <__mulsf3>
    ee00:	e51b113c 	ldr	r1, [fp, #-316]
    ee04:	e1a04000 	mov	r4, r0
    ee08:	e51b0118 	ldr	r0, [fp, #-280]
    ee0c:	eb000d80 	bl	12414 <__mulsf3>
    ee10:	e1a01000 	mov	r1, r0
    ee14:	e1a00004 	mov	r0, r4
    ee18:	eb000cf8 	bl	12200 <__addsf3>
    ee1c:	e51b1120 	ldr	r1, [fp, #-288]
    ee20:	eb000cf6 	bl	12200 <__addsf3>
    ee24:	e50b0180 	str	r0, [fp, #-384]
    ee28:	e51bc180 	ldr	ip, [fp, #-384]
    ee2c:	e59f3168 	ldr	r3, [pc, #360]	; ef9c <.text+0xaf9c>
    ee30:	e51b1140 	ldr	r1, [fp, #-320]
    ee34:	e583c010 	str	ip, [r3, #16]
    ee38:	e51b010c 	ldr	r0, [fp, #-268]
    ee3c:	eb000d74 	bl	12414 <__mulsf3>
    ee40:	e51b1144 	ldr	r1, [fp, #-324]
    ee44:	e1a04000 	mov	r4, r0
    ee48:	e51b0118 	ldr	r0, [fp, #-280]
    ee4c:	eb000d70 	bl	12414 <__mulsf3>
    ee50:	e1a01000 	mov	r1, r0
    ee54:	e1a00004 	mov	r0, r4
    ee58:	eb000ce8 	bl	12200 <__addsf3>
    ee5c:	e51b1134 	ldr	r1, [fp, #-308]
    ee60:	eb000ce6 	bl	12200 <__addsf3>
    ee64:	e50b0184 	str	r0, [fp, #-388]
    ee68:	e51b2184 	ldr	r2, [fp, #-388]
    ee6c:	e59fe128 	ldr	lr, [pc, #296]	; ef9c <.text+0xaf9c>
    ee70:	e51b1160 	ldr	r1, [fp, #-352]
    ee74:	e58e2014 	str	r2, [lr, #20]
    ee78:	e51b0178 	ldr	r0, [fp, #-376]
    ee7c:	eb000d64 	bl	12414 <__mulsf3>
    ee80:	e51b1170 	ldr	r1, [fp, #-368]
    ee84:	e1a04000 	mov	r4, r0
    ee88:	e1a00008 	mov	r0, r8
    ee8c:	eb000d60 	bl	12414 <__mulsf3>
    ee90:	e1a01000 	mov	r1, r0
    ee94:	e1a00004 	mov	r0, r4
    ee98:	eb000cd8 	bl	12200 <__addsf3>
    ee9c:	e50b0188 	str	r0, [fp, #-392]
    eea0:	e51bc188 	ldr	ip, [fp, #-392]
    eea4:	e59f30f8 	ldr	r3, [pc, #248]	; efa4 <.text+0xafa4>
    eea8:	e51b1168 	ldr	r1, [fp, #-360]
    eeac:	e583c000 	str	ip, [r3]
    eeb0:	e51b0178 	ldr	r0, [fp, #-376]
    eeb4:	eb000d56 	bl	12414 <__mulsf3>
    eeb8:	e51b1174 	ldr	r1, [fp, #-372]
    eebc:	e1a04000 	mov	r4, r0
    eec0:	e1a00008 	mov	r0, r8
    eec4:	eb000d52 	bl	12414 <__mulsf3>
    eec8:	e1a01000 	mov	r1, r0
    eecc:	e1a00004 	mov	r0, r4
    eed0:	eb000cca 	bl	12200 <__addsf3>
    eed4:	e50b018c 	str	r0, [fp, #-396]
    eed8:	e51b218c 	ldr	r2, [fp, #-396]
    eedc:	e59fe0c0 	ldr	lr, [pc, #192]	; efa4 <.text+0xafa4>
    eee0:	e51b1160 	ldr	r1, [fp, #-352]
    eee4:	e58e2004 	str	r2, [lr, #4]
    eee8:	e1a00009 	mov	r0, r9
    eeec:	eb000d48 	bl	12414 <__mulsf3>
    eef0:	e51b1170 	ldr	r1, [fp, #-368]
    eef4:	e1a04000 	mov	r4, r0
    eef8:	e51b017c 	ldr	r0, [fp, #-380]
    eefc:	eb000d44 	bl	12414 <__mulsf3>
    ef00:	e1a01000 	mov	r1, r0
    ef04:	e1a00004 	mov	r0, r4
    ef08:	eb000cbc 	bl	12200 <__addsf3>
    ef0c:	e50b0190 	str	r0, [fp, #-400]
    ef10:	e51bc190 	ldr	ip, [fp, #-400]
    ef14:	e59f3088 	ldr	r3, [pc, #136]	; efa4 <.text+0xafa4>
    ef18:	e1a00009 	mov	r0, r9
    ef1c:	e583c008 	str	ip, [r3, #8]
    ef20:	e51b1168 	ldr	r1, [fp, #-360]
    ef24:	eb000d3a 	bl	12414 <__mulsf3>
    ef28:	e51b1174 	ldr	r1, [fp, #-372]
    ef2c:	e1a04000 	mov	r4, r0
    ef30:	e51b017c 	ldr	r0, [fp, #-380]
    ef34:	eb000d36 	bl	12414 <__mulsf3>
    ef38:	e1a01000 	mov	r1, r0
    ef3c:	e1a00004 	mov	r0, r4
    ef40:	eb000cae 	bl	12200 <__addsf3>
    ef44:	e50b0194 	str	r0, [fp, #-404]
    ef48:	e51b2194 	ldr	r2, [fp, #-404]
    ef4c:	e59fe050 	ldr	lr, [pc, #80]	; efa4 <.text+0xafa4>
    ef50:	e51b1160 	ldr	r1, [fp, #-352]
    ef54:	e58e200c 	str	r2, [lr, #12]
    ef58:	e51b0180 	ldr	r0, [fp, #-384]
    ef5c:	eb000d2c 	bl	12414 <__mulsf3>
    ef60:	ea000020 	b	efe8 <.text+0xafe8>
    ef64:	40000ae0 	andmi	r0, r0, r0, ror #21
    ef68:	40000af8 	strmid	r0, [r0], -r8
    ef6c:	40000ad8 	ldrmid	r0, [r0], -r8
    ef70:	400008ec 	andmi	r0, r0, ip, ror #17
    ef74:	40000868 	andmi	r0, r0, r8, ror #16
    ef78:	4000101c 	andmi	r1, r0, ip, lsl r0
    ef7c:	40001094 	mulmi	r0, r4, r0
    ef80:	40000884 	andmi	r0, r0, r4, lsl #17
    ef84:	400000ac 	andmi	r0, r0, ip, lsr #1
    ef88:	40000094 	mulmi	r0, r4, r0
    ef8c:	40001070 	andmi	r1, r0, r0, ror r0
    ef90:	40001040 	andmi	r1, r0, r0, asr #32
    ef94:	40001058 	andmi	r1, r0, r8, asr r0
    ef98:	400010a4 	andmi	r1, r0, r4, lsr #1
    ef9c:	4000107c 	andmi	r1, r0, ip, ror r0
    efa0:	40000878 	andmi	r0, r0, r8, ror r8
    efa4:	40000fbc 	strmih	r0, [r0], -ip
    efa8:	40000f90 	mulmi	r0, r0, pc
    efac:	40000868 	andmi	r0, r0, r8, ror #16
    efb0:	40001068 	andmi	r1, r0, r8, rrx
    efb4:	400010d8 	ldrmid	r1, [r0], -r8
    efb8:	40000884 	andmi	r0, r0, r4, lsl #17
    efbc:	40000f98 	mulmi	r0, r8, pc
    efc0:	4000007c 	andmi	r0, r0, ip, ror r0
    efc4:	400010b4 	strmih	r1, [r0], -r4
    efc8:	40000ff8 	strmid	r0, [r0], -r8
    efcc:	400010e4 	andmi	r1, r0, r4, ror #1
    efd0:	40000e50 	andmi	r0, r0, r0, asr lr
    efd4:	40000e3c 	andmi	r0, r0, ip, lsr lr
    efd8:	40000fd4 	ldrmid	r0, [r0], -r4
    efdc:	40000ad8 	ldrmid	r0, [r0], -r8
    efe0:	40000870 	andmi	r0, r0, r0, ror r8
    efe4:	400008ec 	andmi	r0, r0, ip, ror #17
    efe8:	e51b1170 	ldr	r1, [fp, #-368]
    efec:	e1a04000 	mov	r4, r0
    eff0:	e51b0184 	ldr	r0, [fp, #-388]
    eff4:	eb000d06 	bl	12414 <__mulsf3>
    eff8:	e1a01000 	mov	r1, r0
    effc:	e1a00004 	mov	r0, r4
    f000:	eb000c7e 	bl	12200 <__addsf3>
    f004:	e50b0198 	str	r0, [fp, #-408]
    f008:	e51bc198 	ldr	ip, [fp, #-408]
    f00c:	e51f3070 	ldr	r3, [pc, #-112]	; efa4 <.text+0xafa4>
    f010:	e51b1168 	ldr	r1, [fp, #-360]
    f014:	e583c010 	str	ip, [r3, #16]
    f018:	e51b0180 	ldr	r0, [fp, #-384]
    f01c:	eb000cfc 	bl	12414 <__mulsf3>
    f020:	e51b1174 	ldr	r1, [fp, #-372]
    f024:	e1a04000 	mov	r4, r0
    f028:	e51b0184 	ldr	r0, [fp, #-388]
    f02c:	eb000cf8 	bl	12414 <__mulsf3>
    f030:	e1a01000 	mov	r1, r0
    f034:	e1a00004 	mov	r0, r4
    f038:	eb000c70 	bl	12200 <__addsf3>
    f03c:	e51f40a4 	ldr	r4, [pc, #-164]	; efa0 <.text+0xafa0>
    f040:	e50b019c 	str	r0, [fp, #-412]
    f044:	e594e000 	ldr	lr, [r4]
    f048:	e51f20ac 	ldr	r2, [pc, #-172]	; efa4 <.text+0xafa4>
    f04c:	e51b319c 	ldr	r3, [fp, #-412]
    f050:	e1a0100e 	mov	r1, lr
    f054:	e5823014 	str	r3, [r2, #20]
    f058:	e51b0104 	ldr	r0, [fp, #-260]
    f05c:	e50be1a0 	str	lr, [fp, #-416]
    f060:	eb000ceb 	bl	12414 <__mulsf3>
    f064:	e594c004 	ldr	ip, [r4, #4]
    f068:	e50b01a4 	str	r0, [fp, #-420]
    f06c:	e1a0100c 	mov	r1, ip
    f070:	e51b013c 	ldr	r0, [fp, #-316]
    f074:	e50bc1a8 	str	ip, [fp, #-424]
    f078:	eb000ce5 	bl	12414 <__mulsf3>
    f07c:	e1a01000 	mov	r1, r0
    f080:	e51b01a4 	ldr	r0, [fp, #-420]
    f084:	eb000c5d 	bl	12200 <__addsf3>
    f088:	e5949008 	ldr	r9, [r4, #8]
    f08c:	e50b01ac 	str	r0, [fp, #-428]
    f090:	e1a01009 	mov	r1, r9
    f094:	e51b00fc 	ldr	r0, [fp, #-252]
    f098:	eb000cdd 	bl	12414 <__mulsf3>
    f09c:	e1a01000 	mov	r1, r0
    f0a0:	e51b01ac 	ldr	r0, [fp, #-428]
    f0a4:	eb000c55 	bl	12200 <__addsf3>
    f0a8:	e51b11a0 	ldr	r1, [fp, #-416]
    f0ac:	e1a06000 	mov	r6, r0
    f0b0:	e51b0140 	ldr	r0, [fp, #-320]
    f0b4:	eb000cd6 	bl	12414 <__mulsf3>
    f0b8:	e51b11a8 	ldr	r1, [fp, #-424]
    f0bc:	e1a04000 	mov	r4, r0
    f0c0:	e51b0144 	ldr	r0, [fp, #-324]
    f0c4:	eb000cd2 	bl	12414 <__mulsf3>
    f0c8:	e1a01000 	mov	r1, r0
    f0cc:	e1a00004 	mov	r0, r4
    f0d0:	eb000c4a 	bl	12200 <__addsf3>
    f0d4:	e1a01009 	mov	r1, r9
    f0d8:	e1a04000 	mov	r4, r0
    f0dc:	e51b0100 	ldr	r0, [fp, #-256]
    f0e0:	eb000ccb 	bl	12414 <__mulsf3>
    f0e4:	e1a01000 	mov	r1, r0
    f0e8:	e1a00004 	mov	r0, r4
    f0ec:	eb000c43 	bl	12200 <__addsf3>
    f0f0:	e2266102 	eor	r6, r6, #-2147483648	; 0x80000000
    f0f4:	e50b61b0 	str	r6, [fp, #-432]
    f0f8:	e51f3158 	ldr	r3, [pc, #-344]	; efa8 <.text+0xafa8>
    f0fc:	e51f8158 	ldr	r8, [pc, #-344]	; efac <.text+0xafac>
    f100:	e51b11b0 	ldr	r1, [fp, #-432]
    f104:	e2204102 	eor	r4, r0, #-2147483648	; 0x80000000
    f108:	e5834004 	str	r4, [r3, #4]
    f10c:	e5831000 	str	r1, [r3]
    f110:	e5980000 	ldr	r0, [r8]
    f114:	eb000c39 	bl	12200 <__addsf3>
    f118:	e50b01b4 	str	r0, [fp, #-436]
    f11c:	e51b31b4 	ldr	r3, [fp, #-436]
    f120:	e51f2178 	ldr	r2, [pc, #-376]	; efb0 <.text+0xafb0>
    f124:	e1a01004 	mov	r1, r4
    f128:	e5823000 	str	r3, [r2]
    f12c:	e5980004 	ldr	r0, [r8, #4]
    f130:	eb000c32 	bl	12200 <__addsf3>
    f134:	e50b01b8 	str	r0, [fp, #-440]
    f138:	e51be1b8 	ldr	lr, [fp, #-440]
    f13c:	e51fc194 	ldr	ip, [pc, #-404]	; efb0 <.text+0xafb0>
    f140:	e51b11b4 	ldr	r1, [fp, #-436]
    f144:	e58ce004 	str	lr, [ip, #4]
    f148:	e51b0188 	ldr	r0, [fp, #-392]
    f14c:	eb000cb0 	bl	12414 <__mulsf3>
    f150:	e51b11b8 	ldr	r1, [fp, #-440]
    f154:	e1a04000 	mov	r4, r0
    f158:	e51b018c 	ldr	r0, [fp, #-396]
    f15c:	eb000cac 	bl	12414 <__mulsf3>
    f160:	e1a01000 	mov	r1, r0
    f164:	e1a00004 	mov	r0, r4
    f168:	eb000c24 	bl	12200 <__addsf3>
    f16c:	e51f21c0 	ldr	r2, [pc, #-448]	; efb4 <.text+0xafb4>
    f170:	e1a05000 	mov	r5, r0
    f174:	e5825000 	str	r5, [r2]
    f178:	e51b11b4 	ldr	r1, [fp, #-436]
    f17c:	e51b0190 	ldr	r0, [fp, #-400]
    f180:	eb000ca3 	bl	12414 <__mulsf3>
    f184:	e51b11b8 	ldr	r1, [fp, #-440]
    f188:	e1a04000 	mov	r4, r0
    f18c:	e51b0194 	ldr	r0, [fp, #-404]
    f190:	eb000c9f 	bl	12414 <__mulsf3>
    f194:	e1a01000 	mov	r1, r0
    f198:	e1a00004 	mov	r0, r4
    f19c:	eb000c17 	bl	12200 <__addsf3>
    f1a0:	e51f31f4 	ldr	r3, [pc, #-500]	; efb4 <.text+0xafb4>
    f1a4:	e1a08000 	mov	r8, r0
    f1a8:	e5838004 	str	r8, [r3, #4]
    f1ac:	e51b11b4 	ldr	r1, [fp, #-436]
    f1b0:	e51b0198 	ldr	r0, [fp, #-408]
    f1b4:	eb000c96 	bl	12414 <__mulsf3>
    f1b8:	e51b11b8 	ldr	r1, [fp, #-440]
    f1bc:	e1a04000 	mov	r4, r0
    f1c0:	e51b019c 	ldr	r0, [fp, #-412]
    f1c4:	eb000c92 	bl	12414 <__mulsf3>
    f1c8:	e1a01000 	mov	r1, r0
    f1cc:	e1a00004 	mov	r0, r4
    f1d0:	eb000c0a 	bl	12200 <__addsf3>
    f1d4:	e50b01bc 	str	r0, [fp, #-444]
    f1d8:	e51be1bc 	ldr	lr, [fp, #-444]
    f1dc:	e51fc230 	ldr	ip, [pc, #-560]	; efb4 <.text+0xafb4>
    f1e0:	e1a01005 	mov	r1, r5
    f1e4:	e58ce008 	str	lr, [ip, #8]
    f1e8:	e51b01a0 	ldr	r0, [fp, #-416]
    f1ec:	eb000c03 	bl	12200 <__addsf3>
    f1f0:	e50b01c0 	str	r0, [fp, #-448]
    f1f4:	e51f4244 	ldr	r4, [pc, #-580]	; efb8 <.text+0xafb8>
    f1f8:	e51b21c0 	ldr	r2, [fp, #-448]
    f1fc:	e1a01008 	mov	r1, r8
    f200:	e5842000 	str	r2, [r4]
    f204:	e51b01a8 	ldr	r0, [fp, #-424]
    f208:	eb000bfc 	bl	12200 <__addsf3>
    f20c:	e50b01c4 	str	r0, [fp, #-452]
    f210:	e51b31c4 	ldr	r3, [fp, #-452]
    f214:	e51b11bc 	ldr	r1, [fp, #-444]
    f218:	e5843004 	str	r3, [r4, #4]
    f21c:	e1a00009 	mov	r0, r9
    f220:	eb000bf6 	bl	12200 <__addsf3>
    f224:	e51fc26c 	ldr	ip, [pc, #-620]	; efc0 <.text+0xafc0>
    f228:	e51f3274 	ldr	r3, [pc, #-628]	; efbc <.text+0xafbc>
    f22c:	e59cc000 	ldr	ip, [ip]
    f230:	e3a02000 	mov	r2, #0	; 0x0
    f234:	e3a0e5fe 	mov	lr, #1065353216	; 0x3f800000
    f238:	e5832004 	str	r2, [r3, #4]
    f23c:	e5832008 	str	r2, [r3, #8]
    f240:	e583200c 	str	r2, [r3, #12]
    f244:	e5832014 	str	r2, [r3, #20]
    f248:	e5832018 	str	r2, [r3, #24]
    f24c:	e583201c 	str	r2, [r3, #28]
    f250:	e583e020 	str	lr, [r3, #32]
    f254:	e583e000 	str	lr, [r3]
    f258:	e583e010 	str	lr, [r3, #16]
    f25c:	e1a0100c 	mov	r1, ip
    f260:	e5840008 	str	r0, [r4, #8]
    f264:	e51b0188 	ldr	r0, [fp, #-392]
    f268:	e50bc1c8 	str	ip, [fp, #-456]
    f26c:	eb000c68 	bl	12414 <__mulsf3>
    f270:	e51f32b8 	ldr	r3, [pc, #-696]	; efc0 <.text+0xafc0>
    f274:	e593300c 	ldr	r3, [r3, #12]
    f278:	e1a04000 	mov	r4, r0
    f27c:	e1a01003 	mov	r1, r3
    f280:	e51b018c 	ldr	r0, [fp, #-396]
    f284:	e50b31cc 	str	r3, [fp, #-460]
    f288:	eb000c61 	bl	12414 <__mulsf3>
    f28c:	e1a01000 	mov	r1, r0
    f290:	e1a00004 	mov	r0, r4
    f294:	eb000bd9 	bl	12200 <__addsf3>
    f298:	e51fc2e0 	ldr	ip, [pc, #-736]	; efc0 <.text+0xafc0>
    f29c:	e59cc004 	ldr	ip, [ip, #4]
    f2a0:	e50b01d0 	str	r0, [fp, #-464]
    f2a4:	e1a0100c 	mov	r1, ip
    f2a8:	e51b0188 	ldr	r0, [fp, #-392]
    f2ac:	e50bc1d4 	str	ip, [fp, #-468]
    f2b0:	eb000c57 	bl	12414 <__mulsf3>
    f2b4:	e51fe2fc 	ldr	lr, [pc, #-764]	; efc0 <.text+0xafc0>
    f2b8:	e59ee010 	ldr	lr, [lr, #16]
    f2bc:	e1a04000 	mov	r4, r0
    f2c0:	e1a0100e 	mov	r1, lr
    f2c4:	e51b018c 	ldr	r0, [fp, #-396]
    f2c8:	e50be1d8 	str	lr, [fp, #-472]
    f2cc:	eb000c50 	bl	12414 <__mulsf3>
    f2d0:	e1a01000 	mov	r1, r0
    f2d4:	e1a00004 	mov	r0, r4
    f2d8:	eb000bc8 	bl	12200 <__addsf3>
    f2dc:	e50b01dc 	str	r0, [fp, #-476]
    f2e0:	e51f0328 	ldr	r0, [pc, #-808]	; efc0 <.text+0xafc0>
    f2e4:	e5900008 	ldr	r0, [r0, #8]
    f2e8:	e50b01e0 	str	r0, [fp, #-480]
    f2ec:	e51b11e0 	ldr	r1, [fp, #-480]
    f2f0:	e51b0188 	ldr	r0, [fp, #-392]
    f2f4:	eb000c46 	bl	12414 <__mulsf3>
    f2f8:	e51f1340 	ldr	r1, [pc, #-832]	; efc0 <.text+0xafc0>
    f2fc:	e5919014 	ldr	r9, [r1, #20]
    f300:	e1a04000 	mov	r4, r0
    f304:	e1a01009 	mov	r1, r9
    f308:	e51b018c 	ldr	r0, [fp, #-396]
    f30c:	eb000c40 	bl	12414 <__mulsf3>
    f310:	e1a01000 	mov	r1, r0
    f314:	e1a00004 	mov	r0, r4
    f318:	eb000bb8 	bl	12200 <__addsf3>
    f31c:	e51b11c8 	ldr	r1, [fp, #-456]
    f320:	e50b01e4 	str	r0, [fp, #-484]
    f324:	e51b0190 	ldr	r0, [fp, #-400]
    f328:	eb000c39 	bl	12414 <__mulsf3>
    f32c:	e51b11cc 	ldr	r1, [fp, #-460]
    f330:	e1a04000 	mov	r4, r0
    f334:	e51b0194 	ldr	r0, [fp, #-404]
    f338:	eb000c35 	bl	12414 <__mulsf3>
    f33c:	e1a01000 	mov	r1, r0
    f340:	e1a00004 	mov	r0, r4
    f344:	eb000bad 	bl	12200 <__addsf3>
    f348:	e51b11d4 	ldr	r1, [fp, #-468]
    f34c:	e50b01e8 	str	r0, [fp, #-488]
    f350:	e51b0190 	ldr	r0, [fp, #-400]
    f354:	eb000c2e 	bl	12414 <__mulsf3>
    f358:	e51b11d8 	ldr	r1, [fp, #-472]
    f35c:	e1a04000 	mov	r4, r0
    f360:	e51b0194 	ldr	r0, [fp, #-404]
    f364:	eb000c2a 	bl	12414 <__mulsf3>
    f368:	e1a01000 	mov	r1, r0
    f36c:	e1a00004 	mov	r0, r4
    f370:	eb000ba2 	bl	12200 <__addsf3>
    f374:	e51b11e0 	ldr	r1, [fp, #-480]
    f378:	e50b01ec 	str	r0, [fp, #-492]
    f37c:	e51b0190 	ldr	r0, [fp, #-400]
    f380:	eb000c23 	bl	12414 <__mulsf3>
    f384:	e1a01009 	mov	r1, r9
    f388:	e1a04000 	mov	r4, r0
    f38c:	e51b0194 	ldr	r0, [fp, #-404]
    f390:	eb000c1f 	bl	12414 <__mulsf3>
    f394:	e1a01000 	mov	r1, r0
    f398:	e1a00004 	mov	r0, r4
    f39c:	eb000b97 	bl	12200 <__addsf3>
    f3a0:	e51b11c8 	ldr	r1, [fp, #-456]
    f3a4:	e1a08000 	mov	r8, r0
    f3a8:	e51b0198 	ldr	r0, [fp, #-408]
    f3ac:	eb000c18 	bl	12414 <__mulsf3>
    f3b0:	e51b11cc 	ldr	r1, [fp, #-460]
    f3b4:	e1a04000 	mov	r4, r0
    f3b8:	e51b019c 	ldr	r0, [fp, #-412]
    f3bc:	eb000c14 	bl	12414 <__mulsf3>
    f3c0:	e1a01000 	mov	r1, r0
    f3c4:	e1a00004 	mov	r0, r4
    f3c8:	eb000b8c 	bl	12200 <__addsf3>
    f3cc:	e51b11d4 	ldr	r1, [fp, #-468]
    f3d0:	e50b01f0 	str	r0, [fp, #-496]
    f3d4:	e51b0198 	ldr	r0, [fp, #-408]
    f3d8:	eb000c0d 	bl	12414 <__mulsf3>
    f3dc:	e51b11d8 	ldr	r1, [fp, #-472]
    f3e0:	e1a04000 	mov	r4, r0
    f3e4:	e51b019c 	ldr	r0, [fp, #-412]
    f3e8:	eb000c09 	bl	12414 <__mulsf3>
    f3ec:	e1a01000 	mov	r1, r0
    f3f0:	e1a00004 	mov	r0, r4
    f3f4:	eb000b81 	bl	12200 <__addsf3>
    f3f8:	e51b11e0 	ldr	r1, [fp, #-480]
    f3fc:	e50b01f4 	str	r0, [fp, #-500]
    f400:	e51b0198 	ldr	r0, [fp, #-408]
    f404:	eb000c02 	bl	12414 <__mulsf3>
    f408:	e1a01009 	mov	r1, r9
    f40c:	e1a04000 	mov	r4, r0
    f410:	e51b019c 	ldr	r0, [fp, #-412]
    f414:	eb000bfe 	bl	12414 <__mulsf3>
    f418:	e1a01000 	mov	r1, r0
    f41c:	e1a00004 	mov	r0, r4
    f420:	eb000b76 	bl	12200 <__addsf3>
    f424:	e51bc1dc 	ldr	ip, [fp, #-476]
    f428:	e2200102 	eor	r0, r0, #-2147483648	; 0x80000000
    f42c:	e51be1e4 	ldr	lr, [fp, #-484]
    f430:	e50b0208 	str	r0, [fp, #-520]
    f434:	e51b01e8 	ldr	r0, [fp, #-488]
    f438:	e22c9102 	eor	r9, ip, #-2147483648	; 0x80000000
    f43c:	e22e6102 	eor	r6, lr, #-2147483648	; 0x80000000
    f440:	e51bc1f0 	ldr	ip, [fp, #-496]
    f444:	e51be1f4 	ldr	lr, [fp, #-500]
    f448:	e51b31d0 	ldr	r3, [fp, #-464]
    f44c:	e2200102 	eor	r0, r0, #-2147483648	; 0x80000000
    f450:	e51b11ec 	ldr	r1, [fp, #-492]
    f454:	e50b01f8 	str	r0, [fp, #-504]
    f458:	e22cc102 	eor	ip, ip, #-2147483648	; 0x80000000
    f45c:	e22ee102 	eor	lr, lr, #-2147483648	; 0x80000000
    f460:	e2232102 	eor	r2, r3, #-2147483648	; 0x80000000
    f464:	e50bc200 	str	ip, [fp, #-512]
    f468:	e51f34ac 	ldr	r3, [pc, #-1196]	; efc4 <.text+0xafc4>
    f46c:	e50be204 	str	lr, [fp, #-516]
    f470:	e2211102 	eor	r1, r1, #-2147483648	; 0x80000000
    f474:	e51bc208 	ldr	ip, [fp, #-520]
    f478:	e51be1f8 	ldr	lr, [fp, #-504]
    f47c:	e50b11fc 	str	r1, [fp, #-508]
    f480:	e583c020 	str	ip, [r3, #32]
    f484:	e5832000 	str	r2, [r3]
    f488:	e51bc200 	ldr	ip, [fp, #-512]
    f48c:	e583e00c 	str	lr, [r3, #12]
    f490:	e1a01002 	mov	r1, r2
    f494:	e51be204 	ldr	lr, [fp, #-516]
    f498:	e51b21fc 	ldr	r2, [fp, #-508]
    f49c:	e2288102 	eor	r8, r8, #-2147483648	; 0x80000000
    f4a0:	e583e01c 	str	lr, [r3, #28]
    f4a4:	e583c018 	str	ip, [r3, #24]
    f4a8:	e5839004 	str	r9, [r3, #4]
    f4ac:	e5832010 	str	r2, [r3, #16]
    f4b0:	e5838014 	str	r8, [r3, #20]
    f4b4:	e5836008 	str	r6, [r3, #8]
    f4b8:	e3a005fe 	mov	r0, #1065353216	; 0x3f800000
    f4bc:	eb000b4f 	bl	12200 <__addsf3>
    f4c0:	e50b020c 	str	r0, [fp, #-524]
    f4c4:	e51f4504 	ldr	r4, [pc, #-1284]	; efc8 <.text+0xafc8>
    f4c8:	e51b220c 	ldr	r2, [fp, #-524]
    f4cc:	e1a01009 	mov	r1, r9
    f4d0:	e5842000 	str	r2, [r4]
    f4d4:	e3a00000 	mov	r0, #0	; 0x0
    f4d8:	eb000b48 	bl	12200 <__addsf3>
    f4dc:	e1a09000 	mov	r9, r0
    f4e0:	e5849004 	str	r9, [r4, #4]
    f4e4:	e1a01006 	mov	r1, r6
    f4e8:	e3a00000 	mov	r0, #0	; 0x0
    f4ec:	eb000b43 	bl	12200 <__addsf3>
    f4f0:	e50b0210 	str	r0, [fp, #-528]
    f4f4:	e51b3210 	ldr	r3, [fp, #-528]
    f4f8:	e51b11f8 	ldr	r1, [fp, #-504]
    f4fc:	e5843008 	str	r3, [r4, #8]
    f500:	e3a00000 	mov	r0, #0	; 0x0
    f504:	eb000b3d 	bl	12200 <__addsf3>
    f508:	e50b0214 	str	r0, [fp, #-532]
    f50c:	e51bc214 	ldr	ip, [fp, #-532]
    f510:	e51b11fc 	ldr	r1, [fp, #-508]
    f514:	e584c00c 	str	ip, [r4, #12]
    f518:	e3a005fe 	mov	r0, #1065353216	; 0x3f800000
    f51c:	eb000b37 	bl	12200 <__addsf3>
    f520:	e50b0218 	str	r0, [fp, #-536]
    f524:	e51be218 	ldr	lr, [fp, #-536]
    f528:	e1a01008 	mov	r1, r8
    f52c:	e584e010 	str	lr, [r4, #16]
    f530:	e3a00000 	mov	r0, #0	; 0x0
    f534:	eb000b31 	bl	12200 <__addsf3>
    f538:	e1a08000 	mov	r8, r0
    f53c:	e51b1200 	ldr	r1, [fp, #-512]
    f540:	e5848014 	str	r8, [r4, #20]
    f544:	e3a00000 	mov	r0, #0	; 0x0
    f548:	eb000b2c 	bl	12200 <__addsf3>
    f54c:	e50b021c 	str	r0, [fp, #-540]
    f550:	e51b221c 	ldr	r2, [fp, #-540]
    f554:	e51b1204 	ldr	r1, [fp, #-516]
    f558:	e5842018 	str	r2, [r4, #24]
    f55c:	e3a00000 	mov	r0, #0	; 0x0
    f560:	eb000b26 	bl	12200 <__addsf3>
    f564:	e50b0220 	str	r0, [fp, #-544]
    f568:	e51b3220 	ldr	r3, [fp, #-544]
    f56c:	e51b1208 	ldr	r1, [fp, #-520]
    f570:	e584301c 	str	r3, [r4, #28]
    f574:	e3a005fe 	mov	r0, #1065353216	; 0x3f800000
    f578:	eb000b20 	bl	12200 <__addsf3>
    f57c:	e51fc5b8 	ldr	ip, [pc, #-1464]	; efcc <.text+0xafcc>
    f580:	e50b0224 	str	r0, [fp, #-548]
    f584:	e51be224 	ldr	lr, [fp, #-548]
    f588:	e59cc000 	ldr	ip, [ip]
    f58c:	e584e020 	str	lr, [r4, #32]
    f590:	e1a0100c 	mov	r1, ip
    f594:	e51b020c 	ldr	r0, [fp, #-524]
    f598:	e50bc228 	str	ip, [fp, #-552]
    f59c:	eb000b9c 	bl	12414 <__mulsf3>
    f5a0:	e1a04000 	mov	r4, r0
    f5a4:	e51f05e0 	ldr	r0, [pc, #-1504]	; efcc <.text+0xafcc>
    f5a8:	e590000c 	ldr	r0, [r0, #12]
    f5ac:	e50b022c 	str	r0, [fp, #-556]
    f5b0:	e51b122c 	ldr	r1, [fp, #-556]
    f5b4:	e1a00009 	mov	r0, r9
    f5b8:	eb000b95 	bl	12414 <__mulsf3>
    f5bc:	e1a01000 	mov	r1, r0
    f5c0:	e1a00004 	mov	r0, r4
    f5c4:	eb000b0d 	bl	12200 <__addsf3>
    f5c8:	e51f1604 	ldr	r1, [pc, #-1540]	; efcc <.text+0xafcc>
    f5cc:	e5911018 	ldr	r1, [r1, #24]
    f5d0:	e1a04000 	mov	r4, r0
    f5d4:	e51b0210 	ldr	r0, [fp, #-528]
    f5d8:	e50b1230 	str	r1, [fp, #-560]
    f5dc:	eb000b8c 	bl	12414 <__mulsf3>
    f5e0:	e1a01000 	mov	r1, r0
    f5e4:	e1a00004 	mov	r0, r4
    f5e8:	eb000b04 	bl	12200 <__addsf3>
    f5ec:	e51f2628 	ldr	r2, [pc, #-1576]	; efcc <.text+0xafcc>
    f5f0:	e51f3620 	ldr	r3, [pc, #-1568]	; efd8 <.text+0xafd8>
    f5f4:	e5922004 	ldr	r2, [r2, #4]
    f5f8:	e5830000 	str	r0, [r3]
    f5fc:	e1a01002 	mov	r1, r2
    f600:	e51b020c 	ldr	r0, [fp, #-524]
    f604:	e50b2234 	str	r2, [fp, #-564]
    f608:	eb000b81 	bl	12414 <__mulsf3>
    f60c:	e51fc648 	ldr	ip, [pc, #-1608]	; efcc <.text+0xafcc>
    f610:	e59cc010 	ldr	ip, [ip, #16]
    f614:	e1a04000 	mov	r4, r0
    f618:	e1a0100c 	mov	r1, ip
    f61c:	e1a00009 	mov	r0, r9
    f620:	e50bc238 	str	ip, [fp, #-568]
    f624:	eb000b7a 	bl	12414 <__mulsf3>
    f628:	e1a01000 	mov	r1, r0
    f62c:	e1a00004 	mov	r0, r4
    f630:	eb000af2 	bl	12200 <__addsf3>
    f634:	e51fe670 	ldr	lr, [pc, #-1648]	; efcc <.text+0xafcc>
    f638:	e59ee01c 	ldr	lr, [lr, #28]
    f63c:	e1a04000 	mov	r4, r0
    f640:	e1a0100e 	mov	r1, lr
    f644:	e51b0210 	ldr	r0, [fp, #-528]
    f648:	e50be23c 	str	lr, [fp, #-572]
    f64c:	eb000b70 	bl	12414 <__mulsf3>
    f650:	e1a01000 	mov	r1, r0
    f654:	e1a00004 	mov	r0, r4
    f658:	eb000ae8 	bl	12200 <__addsf3>
    f65c:	e51f1698 	ldr	r1, [pc, #-1688]	; efcc <.text+0xafcc>
    f660:	e51f2690 	ldr	r2, [pc, #-1680]	; efd8 <.text+0xafd8>
    f664:	e5911008 	ldr	r1, [r1, #8]
    f668:	e5820004 	str	r0, [r2, #4]
    f66c:	e51b020c 	ldr	r0, [fp, #-524]
    f670:	e50b1240 	str	r1, [fp, #-576]
    f674:	eb000b66 	bl	12414 <__mulsf3>
    f678:	e51f36b4 	ldr	r3, [pc, #-1716]	; efcc <.text+0xafcc>
    f67c:	e5933014 	ldr	r3, [r3, #20]
    f680:	e1a04000 	mov	r4, r0
    f684:	e1a01003 	mov	r1, r3
    f688:	e1a00009 	mov	r0, r9
    f68c:	e50b3244 	str	r3, [fp, #-580]
    f690:	eb000b5f 	bl	12414 <__mulsf3>
    f694:	e1a01000 	mov	r1, r0
    f698:	e1a00004 	mov	r0, r4
    f69c:	eb000ad7 	bl	12200 <__addsf3>
    f6a0:	e51fc6dc 	ldr	ip, [pc, #-1756]	; efcc <.text+0xafcc>
    f6a4:	e59c9020 	ldr	r9, [ip, #32]
    f6a8:	e1a04000 	mov	r4, r0
    f6ac:	e1a01009 	mov	r1, r9
    f6b0:	e51b0210 	ldr	r0, [fp, #-528]
    f6b4:	eb000b56 	bl	12414 <__mulsf3>
    f6b8:	e1a01000 	mov	r1, r0
    f6bc:	e1a00004 	mov	r0, r4
    f6c0:	eb000ace 	bl	12200 <__addsf3>
    f6c4:	e51fe6f4 	ldr	lr, [pc, #-1780]	; efd8 <.text+0xafd8>
    f6c8:	e51b1228 	ldr	r1, [fp, #-552]
    f6cc:	e58e0008 	str	r0, [lr, #8]
    f6d0:	e51b0214 	ldr	r0, [fp, #-532]
    f6d4:	eb000b4e 	bl	12414 <__mulsf3>
    f6d8:	e51b122c 	ldr	r1, [fp, #-556]
    f6dc:	e1a04000 	mov	r4, r0
    f6e0:	e51b0218 	ldr	r0, [fp, #-536]
    f6e4:	eb000b4a 	bl	12414 <__mulsf3>
    f6e8:	e1a01000 	mov	r1, r0
    f6ec:	e1a00004 	mov	r0, r4
    f6f0:	eb000ac2 	bl	12200 <__addsf3>
    f6f4:	e51b1230 	ldr	r1, [fp, #-560]
    f6f8:	e1a04000 	mov	r4, r0
    f6fc:	e1a00008 	mov	r0, r8
    f700:	eb000b43 	bl	12414 <__mulsf3>
    f704:	e1a01000 	mov	r1, r0
    f708:	e1a00004 	mov	r0, r4
    f70c:	eb000abb 	bl	12200 <__addsf3>
    f710:	e51f1740 	ldr	r1, [pc, #-1856]	; efd8 <.text+0xafd8>
    f714:	e581000c 	str	r0, [r1, #12]
    f718:	e51b1234 	ldr	r1, [fp, #-564]
    f71c:	e51b0214 	ldr	r0, [fp, #-532]
    f720:	eb000b3b 	bl	12414 <__mulsf3>
    f724:	e51b1238 	ldr	r1, [fp, #-568]
    f728:	e1a04000 	mov	r4, r0
    f72c:	e51b0218 	ldr	r0, [fp, #-536]
    f730:	eb000b37 	bl	12414 <__mulsf3>
    f734:	e1a01000 	mov	r1, r0
    f738:	e1a00004 	mov	r0, r4
    f73c:	eb000aaf 	bl	12200 <__addsf3>
    f740:	e51b123c 	ldr	r1, [fp, #-572]
    f744:	e1a04000 	mov	r4, r0
    f748:	e1a00008 	mov	r0, r8
    f74c:	eb000b30 	bl	12414 <__mulsf3>
    f750:	e1a01000 	mov	r1, r0
    f754:	e1a00004 	mov	r0, r4
    f758:	eb000aa8 	bl	12200 <__addsf3>
    f75c:	e51f278c 	ldr	r2, [pc, #-1932]	; efd8 <.text+0xafd8>
    f760:	e51b1240 	ldr	r1, [fp, #-576]
    f764:	e5820010 	str	r0, [r2, #16]
    f768:	e51b0214 	ldr	r0, [fp, #-532]
    f76c:	eb000b28 	bl	12414 <__mulsf3>
    f770:	e51b1244 	ldr	r1, [fp, #-580]
    f774:	e1a04000 	mov	r4, r0
    f778:	e51b0218 	ldr	r0, [fp, #-536]
    f77c:	eb000b24 	bl	12414 <__mulsf3>
    f780:	e1a01000 	mov	r1, r0
    f784:	e1a00004 	mov	r0, r4
    f788:	eb000a9c 	bl	12200 <__addsf3>
    f78c:	e1a01009 	mov	r1, r9
    f790:	e1a04000 	mov	r4, r0
    f794:	e1a00008 	mov	r0, r8
    f798:	eb000b1d 	bl	12414 <__mulsf3>
    f79c:	e1a01000 	mov	r1, r0
    f7a0:	e1a00004 	mov	r0, r4
    f7a4:	eb000a95 	bl	12200 <__addsf3>
    f7a8:	e51f37d8 	ldr	r3, [pc, #-2008]	; efd8 <.text+0xafd8>
    f7ac:	e51b1228 	ldr	r1, [fp, #-552]
    f7b0:	e5830014 	str	r0, [r3, #20]
    f7b4:	e51b021c 	ldr	r0, [fp, #-540]
    f7b8:	eb000b15 	bl	12414 <__mulsf3>
    f7bc:	e51b122c 	ldr	r1, [fp, #-556]
    f7c0:	e1a04000 	mov	r4, r0
    f7c4:	e51b0220 	ldr	r0, [fp, #-544]
    f7c8:	eb000b11 	bl	12414 <__mulsf3>
    f7cc:	e1a01000 	mov	r1, r0
    f7d0:	e1a00004 	mov	r0, r4
    f7d4:	eb000a89 	bl	12200 <__addsf3>
    f7d8:	e51b1230 	ldr	r1, [fp, #-560]
    f7dc:	e1a04000 	mov	r4, r0
    f7e0:	e51b0224 	ldr	r0, [fp, #-548]
    f7e4:	eb000b0a 	bl	12414 <__mulsf3>
    f7e8:	e1a01000 	mov	r1, r0
    f7ec:	e1a00004 	mov	r0, r4
    f7f0:	eb000a82 	bl	12200 <__addsf3>
    f7f4:	e51fc824 	ldr	ip, [pc, #-2084]	; efd8 <.text+0xafd8>
    f7f8:	e51b1234 	ldr	r1, [fp, #-564]
    f7fc:	e58c0018 	str	r0, [ip, #24]
    f800:	e51b021c 	ldr	r0, [fp, #-540]
    f804:	eb000b02 	bl	12414 <__mulsf3>
    f808:	e51b1238 	ldr	r1, [fp, #-568]
    f80c:	e1a04000 	mov	r4, r0
    f810:	e51b0220 	ldr	r0, [fp, #-544]
    f814:	eb000afe 	bl	12414 <__mulsf3>
    f818:	e1a01000 	mov	r1, r0
    f81c:	e1a00004 	mov	r0, r4
    f820:	eb000a76 	bl	12200 <__addsf3>
    f824:	e51b123c 	ldr	r1, [fp, #-572]
    f828:	e1a04000 	mov	r4, r0
    f82c:	e51b0224 	ldr	r0, [fp, #-548]
    f830:	eb000af7 	bl	12414 <__mulsf3>
    f834:	e1a01000 	mov	r1, r0
    f838:	e1a00004 	mov	r0, r4
    f83c:	eb000a6f 	bl	12200 <__addsf3>
    f840:	e51fe870 	ldr	lr, [pc, #-2160]	; efd8 <.text+0xafd8>
    f844:	e51b1240 	ldr	r1, [fp, #-576]
    f848:	e58e001c 	str	r0, [lr, #28]
    f84c:	e51b021c 	ldr	r0, [fp, #-540]
    f850:	eb000aef 	bl	12414 <__mulsf3>
    f854:	e51b1244 	ldr	r1, [fp, #-580]
    f858:	e1a04000 	mov	r4, r0
    f85c:	e51b0220 	ldr	r0, [fp, #-544]
    f860:	eb000aeb 	bl	12414 <__mulsf3>
    f864:	e1a01000 	mov	r1, r0
    f868:	e1a00004 	mov	r0, r4
    f86c:	eb000a63 	bl	12200 <__addsf3>
    f870:	e1a01009 	mov	r1, r9
    f874:	e1a04000 	mov	r4, r0
    f878:	e51b0224 	ldr	r0, [fp, #-548]
    f87c:	eb000ae4 	bl	12414 <__mulsf3>
    f880:	e1a01000 	mov	r1, r0
    f884:	e1a00004 	mov	r0, r4
    f888:	eb000a5c 	bl	12200 <__addsf3>
    f88c:	e51f38c4 	ldr	r3, [pc, #-2244]	; efd0 <.text+0xafd0>
    f890:	e593c000 	ldr	ip, [r3]
    f894:	e51f38c8 	ldr	r3, [pc, #-2248]	; efd4 <.text+0xafd4>
    f898:	e5931000 	ldr	r1, [r3]
    f89c:	e51f38cc 	ldr	r3, [pc, #-2252]	; efd8 <.text+0xafd8>
    f8a0:	e51be1c0 	ldr	lr, [fp, #-448]
    f8a4:	e5830020 	str	r0, [r3, #32]
    f8a8:	e51f38d4 	ldr	r3, [pc, #-2260]	; efdc <.text+0xafdc>
    f8ac:	e51f28d4 	ldr	r2, [pc, #-2260]	; efe0 <.text+0xafe0>
    f8b0:	e583e000 	str	lr, [r3]
    f8b4:	e51b01c4 	ldr	r0, [fp, #-452]
    f8b8:	e51f38dc 	ldr	r3, [pc, #-2268]	; efe4 <.text+0xafe4>
    f8bc:	e5821004 	str	r1, [r2, #4]
    f8c0:	e5830000 	str	r0, [r3]
    f8c4:	e582c000 	str	ip, [r2]
    f8c8:	e24bd028 	sub	sp, fp, #40	; 0x28
    f8cc:	e89d6ff0 	ldmia	sp, {r4, r5, r6, r7, r8, r9, sl, fp, sp, lr}
    f8d0:	e12fff1e 	bx	lr

0000f8d4 <memcpy>:
    f8d4:	b530      	push	{r4, r5, lr}
    f8d6:	1c05      	mov	r5, r0		(add r5, r0, #0)
    f8d8:	1c04      	mov	r4, r0		(add r4, r0, #0)
    f8da:	1c08      	mov	r0, r1		(add r0, r1, #0)
    f8dc:	1c11      	mov	r1, r2		(add r1, r2, #0)
    f8de:	2a0f      	cmp	r2, #15
    f8e0:	d918      	bls	f914 <memcpy+0x40>
    f8e2:	1c02      	mov	r2, r0		(add r2, r0, #0)
    f8e4:	432a      	orr	r2, r5
    f8e6:	2303      	mov	r3, #3
    f8e8:	421a      	tst	r2, r3
    f8ea:	d113      	bne	f914 <memcpy+0x40>
    f8ec:	1c02      	mov	r2, r0		(add r2, r0, #0)
    f8ee:	ca08      	ldmia	r2!,{r3}
    f8f0:	c408      	stmia	r4!,{r3}
    f8f2:	ca08      	ldmia	r2!,{r3}
    f8f4:	c408      	stmia	r4!,{r3}
    f8f6:	ca08      	ldmia	r2!,{r3}
    f8f8:	c408      	stmia	r4!,{r3}
    f8fa:	ca08      	ldmia	r2!,{r3}
    f8fc:	3910      	sub	r1, #16
    f8fe:	c408      	stmia	r4!,{r3}
    f900:	290f      	cmp	r1, #15
    f902:	d8f4      	bhi	f8ee <memcpy+0x1a>
    f904:	2903      	cmp	r1, #3
    f906:	d904      	bls	f912 <memcpy+0x3e>
    f908:	ca08      	ldmia	r2!,{r3}
    f90a:	3904      	sub	r1, #4
    f90c:	c408      	stmia	r4!,{r3}
    f90e:	2903      	cmp	r1, #3
    f910:	d8fa      	bhi	f908 <memcpy+0x34>
    f912:	1c10      	mov	r0, r2		(add r0, r2, #0)
    f914:	3901      	sub	r1, #1
    f916:	d305      	bcc	f924 <memcpy+0x50>
    f918:	7803      	ldrb	r3, [r0, #0]
    f91a:	3001      	add	r0, #1
    f91c:	7023      	strb	r3, [r4, #0]
    f91e:	3401      	add	r4, #1
    f920:	3901      	sub	r1, #1
    f922:	d2f9      	bcs	f918 <memcpy+0x44>
    f924:	1c28      	mov	r0, r5		(add r0, r5, #0)
    f926:	bc30      	pop	{r4, r5}
    f928:	bc02      	pop	{r1}
    f92a:	4708      	bx	r1

0000f92c <atan>:
    f92c:	b5f0      	push	{r4, r5, r6, r7, lr}
    f92e:	4657      	mov	r7, sl
    f930:	4646      	mov	r6, r8
    f932:	b4c0      	push	{r6, r7}
    f934:	4da3      	ldr	r5, [pc, #652]	(fbc4 <.text+0xbbc4>)
    f936:	4ba4      	ldr	r3, [pc, #656]	(fbc8 <.text+0xbbc8>)
    f938:	4005      	and	r5, r0
    f93a:	b084      	sub	sp, #16
    f93c:	1c0f      	mov	r7, r1		(add r7, r1, #0)
    f93e:	1c06      	mov	r6, r0		(add r6, r0, #0)
    f940:	4680      	mov	r8, r0
    f942:	429d      	cmp	r5, r3
    f944:	dd12      	ble	f96c <atan+0x40>
    f946:	4aa1      	ldr	r2, [pc, #644]	(fbcc <.text+0xbbcc>)
    f948:	1c0c      	mov	r4, r1		(add r4, r1, #0)
    f94a:	1c03      	mov	r3, r0		(add r3, r0, #0)
    f94c:	4295      	cmp	r5, r2
    f94e:	dc00      	bgt	f952 <atan+0x26>
    f950:	e0b4      	b	fabc <atan+0x190>
    f952:	1c39      	mov	r1, r7		(add r1, r7, #0)
    f954:	1c30      	mov	r0, r6		(add r0, r6, #0)
    f956:	1c3b      	mov	r3, r7		(add r3, r7, #0)
    f958:	1c32      	mov	r2, r6		(add r2, r6, #0)
    f95a:	ffcdf002 	bl	128f8 <____adddf3_from_thumb>
    f95e:	b004      	add	sp, #16
    f960:	bc18      	pop	{r3, r4}
    f962:	4698      	mov	r8, r3
    f964:	46a2      	mov	sl, r4
    f966:	bcf0      	pop	{r4, r5, r6, r7}
    f968:	bc04      	pop	{r2}
    f96a:	4710      	bx	r2
    f96c:	4b98      	ldr	r3, [pc, #608]	(fbd0 <.text+0xbbd0>)
    f96e:	429d      	cmp	r5, r3
    f970:	dd00      	ble	f974 <atan+0x48>
    f972:	e0ba      	b	faea <atan+0x1be>
    f974:	4b97      	ldr	r3, [pc, #604]	(fbd4 <.text+0xbbd4>)
    f976:	429d      	cmp	r5, r3
    f978:	dc00      	bgt	f97c <atan+0x50>
    f97a:	e0a8      	b	face <atan+0x1a2>
    f97c:	2301      	mov	r3, #1
    f97e:	4259      	neg	r1, r3
    f980:	468a      	mov	sl, r1
    f982:	1c3b      	mov	r3, r7		(add r3, r7, #0)
    f984:	1c32      	mov	r2, r6		(add r2, r6, #0)
    f986:	1c39      	mov	r1, r7		(add r1, r7, #0)
    f988:	1c30      	mov	r0, r6		(add r0, r6, #0)
    f98a:	ffb9f002 	bl	12900 <____muldf3_from_thumb>
    f98e:	1c0b      	mov	r3, r1		(add r3, r1, #0)
    f990:	1c02      	mov	r2, r0		(add r2, r0, #0)
    f992:	9000      	str	r0, [sp, #0]
    f994:	9101      	str	r1, [sp, #4]
    f996:	ffb3f002 	bl	12900 <____muldf3_from_thumb>
    f99a:	4a8f      	ldr	r2, [pc, #572]	(fbd8 <.text+0xbbd8>)
    f99c:	4b8f      	ldr	r3, [pc, #572]	(fbdc <.text+0xbbdc>)
    f99e:	1c0d      	mov	r5, r1		(add r5, r1, #0)
    f9a0:	1c04      	mov	r4, r0		(add r4, r0, #0)
    f9a2:	ffadf002 	bl	12900 <____muldf3_from_thumb>
    f9a6:	1c0b      	mov	r3, r1		(add r3, r1, #0)
    f9a8:	1c02      	mov	r2, r0		(add r2, r0, #0)
    f9aa:	488d      	ldr	r0, [pc, #564]	(fbe0 <.text+0xbbe0>)
    f9ac:	498d      	ldr	r1, [pc, #564]	(fbe4 <.text+0xbbe4>)
    f9ae:	ffa3f002 	bl	128f8 <____adddf3_from_thumb>
    f9b2:	1c2b      	mov	r3, r5		(add r3, r5, #0)
    f9b4:	1c22      	mov	r2, r4		(add r2, r4, #0)
    f9b6:	ffa3f002 	bl	12900 <____muldf3_from_thumb>
    f9ba:	1c0b      	mov	r3, r1		(add r3, r1, #0)
    f9bc:	1c02      	mov	r2, r0		(add r2, r0, #0)
    f9be:	488a      	ldr	r0, [pc, #552]	(fbe8 <.text+0xbbe8>)
    f9c0:	498a      	ldr	r1, [pc, #552]	(fbec <.text+0xbbec>)
    f9c2:	ff99f002 	bl	128f8 <____adddf3_from_thumb>
    f9c6:	1c2b      	mov	r3, r5		(add r3, r5, #0)
    f9c8:	1c22      	mov	r2, r4		(add r2, r4, #0)
    f9ca:	ff99f002 	bl	12900 <____muldf3_from_thumb>
    f9ce:	1c0b      	mov	r3, r1		(add r3, r1, #0)
    f9d0:	1c02      	mov	r2, r0		(add r2, r0, #0)
    f9d2:	4887      	ldr	r0, [pc, #540]	(fbf0 <.text+0xbbf0>)
    f9d4:	4987      	ldr	r1, [pc, #540]	(fbf4 <.text+0xbbf4>)
    f9d6:	ff8ff002 	bl	128f8 <____adddf3_from_thumb>
    f9da:	1c2b      	mov	r3, r5		(add r3, r5, #0)
    f9dc:	1c22      	mov	r2, r4		(add r2, r4, #0)
    f9de:	ff8ff002 	bl	12900 <____muldf3_from_thumb>
    f9e2:	1c0b      	mov	r3, r1		(add r3, r1, #0)
    f9e4:	1c02      	mov	r2, r0		(add r2, r0, #0)
    f9e6:	4884      	ldr	r0, [pc, #528]	(fbf8 <.text+0xbbf8>)
    f9e8:	4984      	ldr	r1, [pc, #528]	(fbfc <.text+0xbbfc>)
    f9ea:	ff85f002 	bl	128f8 <____adddf3_from_thumb>
    f9ee:	1c2b      	mov	r3, r5		(add r3, r5, #0)
    f9f0:	1c22      	mov	r2, r4		(add r2, r4, #0)
    f9f2:	ff85f002 	bl	12900 <____muldf3_from_thumb>
    f9f6:	1c0b      	mov	r3, r1		(add r3, r1, #0)
    f9f8:	1c02      	mov	r2, r0		(add r2, r0, #0)
    f9fa:	4881      	ldr	r0, [pc, #516]	(fc00 <.text+0xbc00>)
    f9fc:	4981      	ldr	r1, [pc, #516]	(fc04 <.text+0xbc04>)
    f9fe:	ff7bf002 	bl	128f8 <____adddf3_from_thumb>
    fa02:	9a00      	ldr	r2, [sp, #0]
    fa04:	9b01      	ldr	r3, [sp, #4]
    fa06:	ff7bf002 	bl	12900 <____muldf3_from_thumb>
    fa0a:	4a7f      	ldr	r2, [pc, #508]	(fc08 <.text+0xbc08>)
    fa0c:	4b7f      	ldr	r3, [pc, #508]	(fc0c <.text+0xbc0c>)
    fa0e:	9002      	str	r0, [sp, #8]
    fa10:	9103      	str	r1, [sp, #12]
    fa12:	1c29      	mov	r1, r5		(add r1, r5, #0)
    fa14:	1c20      	mov	r0, r4		(add r0, r4, #0)
    fa16:	ff73f002 	bl	12900 <____muldf3_from_thumb>
    fa1a:	1c0b      	mov	r3, r1		(add r3, r1, #0)
    fa1c:	1c02      	mov	r2, r0		(add r2, r0, #0)
    fa1e:	487c      	ldr	r0, [pc, #496]	(fc10 <.text+0xbc10>)
    fa20:	497c      	ldr	r1, [pc, #496]	(fc14 <.text+0xbc14>)
    fa22:	ff69f002 	bl	128f8 <____adddf3_from_thumb>
    fa26:	1c2b      	mov	r3, r5		(add r3, r5, #0)
    fa28:	1c22      	mov	r2, r4		(add r2, r4, #0)
    fa2a:	ff69f002 	bl	12900 <____muldf3_from_thumb>
    fa2e:	1c0b      	mov	r3, r1		(add r3, r1, #0)
    fa30:	1c02      	mov	r2, r0		(add r2, r0, #0)
    fa32:	4879      	ldr	r0, [pc, #484]	(fc18 <.text+0xbc18>)
    fa34:	4979      	ldr	r1, [pc, #484]	(fc1c <.text+0xbc1c>)
    fa36:	ff5ff002 	bl	128f8 <____adddf3_from_thumb>
    fa3a:	1c2b      	mov	r3, r5		(add r3, r5, #0)
    fa3c:	1c22      	mov	r2, r4		(add r2, r4, #0)
    fa3e:	ff5ff002 	bl	12900 <____muldf3_from_thumb>
    fa42:	1c0b      	mov	r3, r1		(add r3, r1, #0)
    fa44:	1c02      	mov	r2, r0		(add r2, r0, #0)
    fa46:	4876      	ldr	r0, [pc, #472]	(fc20 <.text+0xbc20>)
    fa48:	4976      	ldr	r1, [pc, #472]	(fc24 <.text+0xbc24>)
    fa4a:	ff55f002 	bl	128f8 <____adddf3_from_thumb>
    fa4e:	1c2b      	mov	r3, r5		(add r3, r5, #0)
    fa50:	1c22      	mov	r2, r4		(add r2, r4, #0)
    fa52:	ff55f002 	bl	12900 <____muldf3_from_thumb>
    fa56:	1c0b      	mov	r3, r1		(add r3, r1, #0)
    fa58:	1c02      	mov	r2, r0		(add r2, r0, #0)
    fa5a:	4873      	ldr	r0, [pc, #460]	(fc28 <.text+0xbc28>)
    fa5c:	4973      	ldr	r1, [pc, #460]	(fc2c <.text+0xbc2c>)
    fa5e:	ff4bf002 	bl	128f8 <____adddf3_from_thumb>
    fa62:	1c2b      	mov	r3, r5		(add r3, r5, #0)
    fa64:	1c22      	mov	r2, r4		(add r2, r4, #0)
    fa66:	ff4bf002 	bl	12900 <____muldf3_from_thumb>
    fa6a:	1c0b      	mov	r3, r1		(add r3, r1, #0)
    fa6c:	1c02      	mov	r2, r0		(add r2, r0, #0)
    fa6e:	4651      	mov	r1, sl
    fa70:	2900      	cmp	r1, #0
    fa72:	db62      	blt	fb3a <atan+0x20e>
    fa74:	4651      	mov	r1, sl
    fa76:	00cc      	lsl	r4, r1, #3
    fa78:	9802      	ldr	r0, [sp, #8]
    fa7a:	9903      	ldr	r1, [sp, #12]
    fa7c:	ff3cf002 	bl	128f8 <____adddf3_from_thumb>
    fa80:	1c3b      	mov	r3, r7		(add r3, r7, #0)
    fa82:	1c32      	mov	r2, r6		(add r2, r6, #0)
    fa84:	ff3cf002 	bl	12900 <____muldf3_from_thumb>
    fa88:	4d69      	ldr	r5, [pc, #420]	(fc30 <.text+0xbc30>)
    fa8a:	4b6a      	ldr	r3, [pc, #424]	(fc34 <.text+0xbc34>)
    fa8c:	1965      	add	r5, r4, r5
    fa8e:	18e4      	add	r4, r4, r3
    fa90:	6822      	ldr	r2, [r4, #0]
    fa92:	6863      	ldr	r3, [r4, #4]
    fa94:	ff38f002 	bl	12908 <____subdf3_from_thumb>
    fa98:	1c3b      	mov	r3, r7		(add r3, r7, #0)
    fa9a:	1c32      	mov	r2, r6		(add r2, r6, #0)
    fa9c:	ff34f002 	bl	12908 <____subdf3_from_thumb>
    faa0:	1c0b      	mov	r3, r1		(add r3, r1, #0)
    faa2:	1c02      	mov	r2, r0		(add r2, r0, #0)
    faa4:	6828      	ldr	r0, [r5, #0]
    faa6:	6869      	ldr	r1, [r5, #4]
    faa8:	ff2ef002 	bl	12908 <____subdf3_from_thumb>
    faac:	4643      	mov	r3, r8
    faae:	1c0e      	mov	r6, r1		(add r6, r1, #0)
    fab0:	1c05      	mov	r5, r0		(add r5, r0, #0)
    fab2:	2b00      	cmp	r3, #0
    fab4:	db37      	blt	fb26 <atan+0x1fa>
    fab6:	1c31      	mov	r1, r6		(add r1, r6, #0)
    fab8:	1c28      	mov	r0, r5		(add r0, r5, #0)
    faba:	e750      	b	f95e <atan+0x32>
    fabc:	4295      	cmp	r5, r2
    fabe:	d02f      	beq	fb20 <atan+0x1f4>
    fac0:	4641      	mov	r1, r8
    fac2:	2900      	cmp	r1, #0
    fac4:	dc00      	bgt	fac8 <atan+0x19c>
    fac6:	e079      	b	fbbc <atan+0x290>
    fac8:	485b      	ldr	r0, [pc, #364]	(fc38 <.text+0xbc38>)
    faca:	495c      	ldr	r1, [pc, #368]	(fc3c <.text+0xbc3c>)
    facc:	e747      	b	f95e <atan+0x32>
    face:	4a5c      	ldr	r2, [pc, #368]	(fc40 <.text+0xbc40>)
    fad0:	4b5c      	ldr	r3, [pc, #368]	(fc44 <.text+0xbc44>)
    fad2:	ff11f002 	bl	128f8 <____adddf3_from_thumb>
    fad6:	4a5c      	ldr	r2, [pc, #368]	(fc48 <.text+0xbc48>)
    fad8:	4b5c      	ldr	r3, [pc, #368]	(fc4c <.text+0xbc4c>)
    fada:	ff19f002 	bl	12910 <____gtdf2_from_thumb>
    fade:	2800      	cmp	r0, #0
    fae0:	dc00      	bgt	fae4 <atan+0x1b8>
    fae2:	e74b      	b	f97c <atan+0x50>
    fae4:	1c39      	mov	r1, r7		(add r1, r7, #0)
    fae6:	1c30      	mov	r0, r6		(add r0, r6, #0)
    fae8:	e739      	b	f95e <atan+0x32>
    faea:	f925f000 	bl	fd38 <fabs>
    faee:	4b58      	ldr	r3, [pc, #352]	(fc50 <.text+0xbc50>)
    faf0:	1c0f      	mov	r7, r1		(add r7, r1, #0)
    faf2:	1c06      	mov	r6, r0		(add r6, r0, #0)
    faf4:	429d      	cmp	r5, r3
    faf6:	dc2f      	bgt	fb58 <atan+0x22c>
    faf8:	4b56      	ldr	r3, [pc, #344]	(fc54 <.text+0xbc54>)
    fafa:	429d      	cmp	r5, r3
    fafc:	dc51      	bgt	fba2 <atan+0x276>
    fafe:	2300      	mov	r3, #0
    fb00:	469a      	mov	sl, r3
    fb02:	1c3b      	mov	r3, r7		(add r3, r7, #0)
    fb04:	1c32      	mov	r2, r6		(add r2, r6, #0)
    fb06:	fef7f002 	bl	128f8 <____adddf3_from_thumb>
    fb0a:	4a4f      	ldr	r2, [pc, #316]	(fc48 <.text+0xbc48>)
    fb0c:	4b4f      	ldr	r3, [pc, #316]	(fc4c <.text+0xbc4c>)
    fb0e:	fefbf002 	bl	12908 <____subdf3_from_thumb>
    fb12:	4a51      	ldr	r2, [pc, #324]	(fc58 <.text+0xbc58>)
    fb14:	4b51      	ldr	r3, [pc, #324]	(fc5c <.text+0xbc5c>)
    fb16:	1c0d      	mov	r5, r1		(add r5, r1, #0)
    fb18:	1c04      	mov	r4, r0		(add r4, r0, #0)
    fb1a:	1c39      	mov	r1, r7		(add r1, r7, #0)
    fb1c:	1c30      	mov	r0, r6		(add r0, r6, #0)
    fb1e:	e02e      	b	fb7e <atan+0x252>
    fb20:	2c00      	cmp	r4, #0
    fb22:	d0cd      	beq	fac0 <atan+0x194>
    fb24:	e715      	b	f952 <atan+0x26>
    fb26:	494e      	ldr	r1, [pc, #312]	(fc60 <.text+0xbc60>)
    fb28:	4a4e      	ldr	r2, [pc, #312]	(fc64 <.text+0xbc64>)
    fb2a:	1c2b      	mov	r3, r5		(add r3, r5, #0)
    fb2c:	404b      	eor	r3, r1
    fb2e:	1c34      	mov	r4, r6		(add r4, r6, #0)
    fb30:	1c26      	mov	r6, r4		(add r6, r4, #0)
    fb32:	1c1d      	mov	r5, r3		(add r5, r3, #0)
    fb34:	1c31      	mov	r1, r6		(add r1, r6, #0)
    fb36:	1c28      	mov	r0, r5		(add r0, r5, #0)
    fb38:	e711      	b	f95e <atan+0x32>
    fb3a:	9802      	ldr	r0, [sp, #8]
    fb3c:	9903      	ldr	r1, [sp, #12]
    fb3e:	fedbf002 	bl	128f8 <____adddf3_from_thumb>
    fb42:	1c3b      	mov	r3, r7		(add r3, r7, #0)
    fb44:	1c32      	mov	r2, r6		(add r2, r6, #0)
    fb46:	fedbf002 	bl	12900 <____muldf3_from_thumb>
    fb4a:	1c0b      	mov	r3, r1		(add r3, r1, #0)
    fb4c:	1c02      	mov	r2, r0		(add r2, r0, #0)
    fb4e:	1c39      	mov	r1, r7		(add r1, r7, #0)
    fb50:	1c30      	mov	r0, r6		(add r0, r6, #0)
    fb52:	fed9f002 	bl	12908 <____subdf3_from_thumb>
    fb56:	e702      	b	f95e <atan+0x32>
    fb58:	4b43      	ldr	r3, [pc, #268]	(fc68 <.text+0xbc68>)
    fb5a:	429d      	cmp	r5, r3
    fb5c:	dc16      	bgt	fb8c <atan+0x260>
    fb5e:	2302      	mov	r3, #2
    fb60:	469a      	mov	sl, r3
    fb62:	4a42      	ldr	r2, [pc, #264]	(fc6c <.text+0xbc6c>)
    fb64:	4b42      	ldr	r3, [pc, #264]	(fc70 <.text+0xbc70>)
    fb66:	fecff002 	bl	12908 <____subdf3_from_thumb>
    fb6a:	4a40      	ldr	r2, [pc, #256]	(fc6c <.text+0xbc6c>)
    fb6c:	4b40      	ldr	r3, [pc, #256]	(fc70 <.text+0xbc70>)
    fb6e:	1c0d      	mov	r5, r1		(add r5, r1, #0)
    fb70:	1c04      	mov	r4, r0		(add r4, r0, #0)
    fb72:	1c39      	mov	r1, r7		(add r1, r7, #0)
    fb74:	1c30      	mov	r0, r6		(add r0, r6, #0)
    fb76:	fec3f002 	bl	12900 <____muldf3_from_thumb>
    fb7a:	4a33      	ldr	r2, [pc, #204]	(fc48 <.text+0xbc48>)
    fb7c:	4b33      	ldr	r3, [pc, #204]	(fc4c <.text+0xbc4c>)
    fb7e:	febbf002 	bl	128f8 <____adddf3_from_thumb>
    fb82:	1c0b      	mov	r3, r1		(add r3, r1, #0)
    fb84:	1c02      	mov	r2, r0		(add r2, r0, #0)
    fb86:	1c29      	mov	r1, r5		(add r1, r5, #0)
    fb88:	1c20      	mov	r0, r4		(add r0, r4, #0)
    fb8a:	e005      	b	fb98 <atan+0x26c>
    fb8c:	2103      	mov	r1, #3
    fb8e:	468a      	mov	sl, r1
    fb90:	4838      	ldr	r0, [pc, #224]	(fc74 <.text+0xbc74>)
    fb92:	4939      	ldr	r1, [pc, #228]	(fc78 <.text+0xbc78>)
    fb94:	1c3b      	mov	r3, r7		(add r3, r7, #0)
    fb96:	1c32      	mov	r2, r6		(add r2, r6, #0)
    fb98:	febef002 	bl	12918 <____divdf3_from_thumb>
    fb9c:	1c0f      	mov	r7, r1		(add r7, r1, #0)
    fb9e:	1c06      	mov	r6, r0		(add r6, r0, #0)
    fba0:	e6ef      	b	f982 <atan+0x56>
    fba2:	2101      	mov	r1, #1
    fba4:	468a      	mov	sl, r1
    fba6:	4a28      	ldr	r2, [pc, #160]	(fc48 <.text+0xbc48>)
    fba8:	4b28      	ldr	r3, [pc, #160]	(fc4c <.text+0xbc4c>)
    fbaa:	1c39      	mov	r1, r7		(add r1, r7, #0)
    fbac:	1c30      	mov	r0, r6		(add r0, r6, #0)
    fbae:	feabf002 	bl	12908 <____subdf3_from_thumb>
    fbb2:	1c0d      	mov	r5, r1		(add r5, r1, #0)
    fbb4:	1c04      	mov	r4, r0		(add r4, r0, #0)
    fbb6:	1c39      	mov	r1, r7		(add r1, r7, #0)
    fbb8:	1c30      	mov	r0, r6		(add r0, r6, #0)
    fbba:	e7de      	b	fb7a <atan+0x24e>
    fbbc:	482f      	ldr	r0, [pc, #188]	(fc7c <.text+0xbc7c>)
    fbbe:	4930      	ldr	r1, [pc, #192]	(fc80 <.text+0xbc80>)
    fbc0:	e6cd      	b	f95e <atan+0x32>
    fbc2:	0000      	lsl	r0, r0, #0
    fbc4:	ffff      	second half of BL instruction 0xffff
    fbc6:	7fff      	ldrb	r7, [r7, #31]
    fbc8:	ffff      	second half of BL instruction 0xffff
    fbca:	440f      	add	r7, r1
    fbcc:	0000      	lsl	r0, r0, #0
    fbce:	7ff0      	ldrb	r0, [r6, #31]
    fbd0:	ffff      	second half of BL instruction 0xffff
    fbd2:	3fdb      	sub	r7, #219
    fbd4:	ffff      	second half of BL instruction 0xffff
    fbd6:	3e1f      	sub	r6, #31
    fbd8:	ad3a      	add	r5, sp, #232
    fbda:	3f90      	sub	r7, #144
    fbdc:	da11      	bge	fc02 <.text+0xbc02>
    fbde:	e322      	b	10226 <__ieee754_rem_pio2+0x62>
    fbe0:	7b4b      	ldrb	r3, [r1, #13]
    fbe2:	3fa9      	sub	r7, #169
    fbe4:	0deb      	lsr	r3, r5, #23
    fbe6:	2476      	mov	r4, #118
    fbe8:	0d66      	lsr	r6, r4, #21
    fbea:	3fb1      	sub	r7, #177
    fbec:	3d51      	sub	r5, #81
    fbee:	a0d0      	add	r0, pc, #832	(adr r0,ff30 <sqrt+0x50>)
    fbf0:	45cd      	cmp	sp, r9
    fbf2:	3fb7      	sub	r7, #183
    fbf4:	206e      	mov	r0, #110
    fbf6:	c54c      	stmia	r5!,{r2, r3, r6}
    fbf8:	4924      	ldr	r1, [pc, #144]	(fc8c <cos+0x8>)
    fbfa:	3fc2      	sub	r7, #194
    fbfc:	83ff      	strh	r7, [r7, #30]
    fbfe:	9200      	str	r2, [sp, #0]
    fc00:	5555      	strb	r5, [r2, r5]
    fc02:	3fd5      	sub	r7, #213
    fc04:	550d      	strb	r5, [r1, r4]
    fc06:	5555      	strb	r5, [r2, r5]
    fc08:	b444      	push	{r2, r6}
    fc0a:	bfa2      	undefined instruction 0xbfa2
    fc0c:	6c2f      	ldr	r7, [r5, #64]
    fc0e:	2c6a      	cmp	r4, #106
    fc10:	de2d      	bal	fc6e <.text+0xbc6e>
    fc12:	bfad      	undefined instruction 0xbfad
    fc14:	fd9a      	second half of BL instruction 0xfd9a
    fc16:	52de      	strh	r6, [r3, r3]
    fc18:	b0f2      	sub	sp, #456
    fc1a:	bfb3      	undefined instruction 0xbfb3
    fc1c:	9a6d      	ldr	r2, [sp, #436]
    fc1e:	af74      	add	r7, sp, #464
    fc20:	71c6      	strb	r6, [r0, #7]
    fc22:	bfbc      	undefined instruction 0xbfbc
    fc24:	1671      	asr	r1, r6, #25
    fc26:	fe23      	second half of BL instruction 0xfe23
    fc28:	9999      	ldr	r1, [sp, #612]
    fc2a:	bfc9      	undefined instruction 0xbfc9
    fc2c:	ebc4      	undefined
    fc2e:	9998      	ldr	r1, [sp, #608]
    fc30:	29dc      	cmp	r1, #220
    fc32:	0001      	lsl	r1, r0, #0
    fc34:	29bc      	cmp	r1, #188
    fc36:	0001      	lsl	r1, r0, #0
    fc38:	21fb      	mov	r1, #251
    fc3a:	3ff9      	sub	r7, #249
    fc3c:	2d18      	cmp	r5, #24
    fc3e:	5444      	strb	r4, [r0, r1]
    fc40:	e43c      	b	f4bc <.text+0xb4bc>
    fc42:	7e37      	ldrb	r7, [r6, #24]
    fc44:	759c      	strb	r4, [r3, #22]
    fc46:	8800      	ldrh	r0, [r0, #0]
    fc48:	0000      	lsl	r0, r0, #0
    fc4a:	3ff0      	sub	r7, #240
    fc4c:	0000      	lsl	r0, r0, #0
    fc4e:	0000      	lsl	r0, r0, #0
    fc50:	ffff      	second half of BL instruction 0xffff
    fc52:	3ff2      	sub	r7, #242
    fc54:	ffff      	second half of BL instruction 0xffff
    fc56:	3fe5      	sub	r7, #229
    fc58:	0000      	lsl	r0, r0, #0
    fc5a:	4000      	and	r0, r0
    fc5c:	0000      	lsl	r0, r0, #0
    fc5e:	0000      	lsl	r0, r0, #0
    fc60:	0000      	lsl	r0, r0, #0
    fc62:	8000      	strh	r0, [r0, #0]
    fc64:	0000      	lsl	r0, r0, #0
    fc66:	0000      	lsl	r0, r0, #0
    fc68:	7fff      	ldrb	r7, [r7, #31]
    fc6a:	4003      	and	r3, r0
    fc6c:	0000      	lsl	r0, r0, #0
    fc6e:	3ff8      	sub	r7, #248
    fc70:	0000      	lsl	r0, r0, #0
    fc72:	0000      	lsl	r0, r0, #0
    fc74:	0000      	lsl	r0, r0, #0
    fc76:	bff0      	undefined instruction 0xbff0
    fc78:	0000      	lsl	r0, r0, #0
    fc7a:	0000      	lsl	r0, r0, #0
    fc7c:	21fb      	mov	r1, #251
    fc7e:	bff9      	undefined instruction 0xbff9
    fc80:	2d18      	cmp	r5, #24
    fc82:	5444      	strb	r4, [r0, r1]

0000fc84 <cos>:
    fc84:	b570      	push	{r4, r5, r6, lr}
    fc86:	4a25      	ldr	r2, [pc, #148]	(fd1c <.text+0xbd1c>)
    fc88:	4b25      	ldr	r3, [pc, #148]	(fd20 <.text+0xbd20>)
    fc8a:	4002      	and	r2, r0
    fc8c:	b085      	sub	sp, #20
    fc8e:	1c0e      	mov	r6, r1		(add r6, r1, #0)
    fc90:	1c05      	mov	r5, r0		(add r5, r0, #0)
    fc92:	429a      	cmp	r2, r3
    fc94:	dd1e      	ble	fcd4 <cos+0x50>
    fc96:	4b23      	ldr	r3, [pc, #140]	(fd24 <.text+0xbd24>)
    fc98:	429a      	cmp	r2, r3
    fc9a:	dd07      	ble	fcac <cos+0x28>
    fc9c:	1c33      	mov	r3, r6		(add r3, r6, #0)
    fc9e:	1c2a      	mov	r2, r5		(add r2, r5, #0)
    fca0:	fe32f002 	bl	12908 <____subdf3_from_thumb>
    fca4:	b005      	add	sp, #20
    fca6:	bc70      	pop	{r4, r5, r6}
    fca8:	bc04      	pop	{r2}
    fcaa:	4710      	bx	r2
    fcac:	aa01      	add	r2, sp, #4
    fcae:	fa89f000 	bl	101c4 <__ieee754_rem_pio2>
    fcb2:	2303      	mov	r3, #3
    fcb4:	4003      	and	r3, r0
    fcb6:	2b01      	cmp	r3, #1
    fcb8:	d011      	beq	fcde <cos+0x5a>
    fcba:	2b01      	cmp	r3, #1
    fcbc:	dd1e      	ble	fcfc <cos+0x78>
    fcbe:	2b02      	cmp	r3, #2
    fcc0:	d025      	beq	fd0e <cos+0x8a>
    fcc2:	2301      	mov	r3, #1
    fcc4:	9300      	str	r3, [sp, #0]
    fcc6:	9801      	ldr	r0, [sp, #4]
    fcc8:	9902      	ldr	r1, [sp, #8]
    fcca:	9a03      	ldr	r2, [sp, #12]
    fccc:	9b04      	ldr	r3, [sp, #16]
    fcce:	faa5f001 	bl	1121c <__kernel_sin>
    fcd2:	e7e7      	b	fca4 <cos+0x20>
    fcd4:	4a14      	ldr	r2, [pc, #80]	(fd28 <.text+0xbd28>)
    fcd6:	4b15      	ldr	r3, [pc, #84]	(fd2c <.text+0xbd2c>)
    fcd8:	fdb6f000 	bl	10848 <__kernel_cos>
    fcdc:	e7e2      	b	fca4 <cos+0x20>
    fcde:	9300      	str	r3, [sp, #0]
    fce0:	9801      	ldr	r0, [sp, #4]
    fce2:	9902      	ldr	r1, [sp, #8]
    fce4:	9a03      	ldr	r2, [sp, #12]
    fce6:	9b04      	ldr	r3, [sp, #16]
    fce8:	fa98f001 	bl	1121c <__kernel_sin>
    fcec:	4d10      	ldr	r5, [pc, #64]	(fd30 <.text+0xbd30>)
    fcee:	4e11      	ldr	r6, [pc, #68]	(fd34 <.text+0xbd34>)
    fcf0:	1c03      	mov	r3, r0		(add r3, r0, #0)
    fcf2:	406b      	eor	r3, r5
    fcf4:	1c0c      	mov	r4, r1		(add r4, r1, #0)
    fcf6:	1c21      	mov	r1, r4		(add r1, r4, #0)
    fcf8:	1c18      	mov	r0, r3		(add r0, r3, #0)
    fcfa:	e7d3      	b	fca4 <cos+0x20>
    fcfc:	2b00      	cmp	r3, #0
    fcfe:	d1e0      	bne	fcc2 <cos+0x3e>
    fd00:	9801      	ldr	r0, [sp, #4]
    fd02:	9902      	ldr	r1, [sp, #8]
    fd04:	9a03      	ldr	r2, [sp, #12]
    fd06:	9b04      	ldr	r3, [sp, #16]
    fd08:	fd9ef000 	bl	10848 <__kernel_cos>
    fd0c:	e7ca      	b	fca4 <cos+0x20>
    fd0e:	9801      	ldr	r0, [sp, #4]
    fd10:	9902      	ldr	r1, [sp, #8]
    fd12:	9a03      	ldr	r2, [sp, #12]
    fd14:	9b04      	ldr	r3, [sp, #16]
    fd16:	fd97f000 	bl	10848 <__kernel_cos>
    fd1a:	e7e7      	b	fcec <cos+0x68>
    fd1c:	ffff      	second half of BL instruction 0xffff
    fd1e:	7fff      	ldrb	r7, [r7, #31]
    fd20:	21fb      	mov	r1, #251
    fd22:	3fe9      	sub	r7, #233
    fd24:	ffff      	second half of BL instruction 0xffff
    fd26:	7fef      	ldrb	r7, [r5, #31]
	...
    fd30:	0000      	lsl	r0, r0, #0
    fd32:	8000      	strh	r0, [r0, #0]
    fd34:	0000      	lsl	r0, r0, #0
	...

0000fd38 <fabs>:
    fd38:	b510      	push	{r4, lr}
    fd3a:	1c0c      	mov	r4, r1		(add r4, r1, #0)
    fd3c:	1c03      	mov	r3, r0		(add r3, r0, #0)
    fd3e:	1c0a      	mov	r2, r1		(add r2, r1, #0)
    fd40:	1c01      	mov	r1, r0		(add r1, r0, #0)
    fd42:	4804      	ldr	r0, [pc, #16]	(fd54 <.text+0xbd54>)
    fd44:	1c01      	mov	r1, r0		(add r1, r0, #0)
    fd46:	4019      	and	r1, r3
    fd48:	1c08      	mov	r0, r1		(add r0, r1, #0)
    fd4a:	1c11      	mov	r1, r2		(add r1, r2, #0)
    fd4c:	bc10      	pop	{r4}
    fd4e:	bc04      	pop	{r2}
    fd50:	4710      	bx	r2
    fd52:	0000      	lsl	r0, r0, #0
    fd54:	ffff      	second half of BL instruction 0xffff
    fd56:	7fff      	ldrb	r7, [r7, #31]

0000fd58 <sin>:
    fd58:	b570      	push	{r4, r5, r6, lr}
    fd5a:	4a27      	ldr	r2, [pc, #156]	(fdf8 <.text+0xbdf8>)
    fd5c:	4b27      	ldr	r3, [pc, #156]	(fdfc <.text+0xbdfc>)
    fd5e:	4002      	and	r2, r0
    fd60:	b085      	sub	sp, #20
    fd62:	1c0e      	mov	r6, r1		(add r6, r1, #0)
    fd64:	1c05      	mov	r5, r0		(add r5, r0, #0)
    fd66:	429a      	cmp	r2, r3
    fd68:	dd23      	ble	fdb2 <sin+0x5a>
    fd6a:	4b25      	ldr	r3, [pc, #148]	(fe00 <.text+0xbe00>)
    fd6c:	429a      	cmp	r2, r3
    fd6e:	dd07      	ble	fd80 <sin+0x28>
    fd70:	1c33      	mov	r3, r6		(add r3, r6, #0)
    fd72:	1c2a      	mov	r2, r5		(add r2, r5, #0)
    fd74:	fdc8f002 	bl	12908 <____subdf3_from_thumb>
    fd78:	b005      	add	sp, #20
    fd7a:	bc70      	pop	{r4, r5, r6}
    fd7c:	bc04      	pop	{r2}
    fd7e:	4710      	bx	r2
    fd80:	aa01      	add	r2, sp, #4
    fd82:	fa1ff000 	bl	101c4 <__ieee754_rem_pio2>
    fd86:	2303      	mov	r3, #3
    fd88:	4003      	and	r3, r0
    fd8a:	2b01      	cmp	r3, #1
    fd8c:	d018      	beq	fdc0 <sin+0x68>
    fd8e:	2b01      	cmp	r3, #1
    fd90:	dd1d      	ble	fdce <sin+0x76>
    fd92:	2b02      	cmp	r3, #2
    fd94:	d026      	beq	fde4 <sin+0x8c>
    fd96:	9801      	ldr	r0, [sp, #4]
    fd98:	9902      	ldr	r1, [sp, #8]
    fd9a:	9a03      	ldr	r2, [sp, #12]
    fd9c:	9b04      	ldr	r3, [sp, #16]
    fd9e:	fd53f000 	bl	10848 <__kernel_cos>
    fda2:	4d18      	ldr	r5, [pc, #96]	(fe04 <.text+0xbe04>)
    fda4:	4e18      	ldr	r6, [pc, #96]	(fe08 <.text+0xbe08>)
    fda6:	1c03      	mov	r3, r0		(add r3, r0, #0)
    fda8:	406b      	eor	r3, r5
    fdaa:	1c0c      	mov	r4, r1		(add r4, r1, #0)
    fdac:	1c21      	mov	r1, r4		(add r1, r4, #0)
    fdae:	1c18      	mov	r0, r3		(add r0, r3, #0)
    fdb0:	e7e2      	b	fd78 <sin+0x20>
    fdb2:	2300      	mov	r3, #0
    fdb4:	9300      	str	r3, [sp, #0]
    fdb6:	4a15      	ldr	r2, [pc, #84]	(fe0c <.text+0xbe0c>)
    fdb8:	4b15      	ldr	r3, [pc, #84]	(fe10 <.text+0xbe10>)
    fdba:	fa2ff001 	bl	1121c <__kernel_sin>
    fdbe:	e7db      	b	fd78 <sin+0x20>
    fdc0:	9801      	ldr	r0, [sp, #4]
    fdc2:	9902      	ldr	r1, [sp, #8]
    fdc4:	9a03      	ldr	r2, [sp, #12]
    fdc6:	9b04      	ldr	r3, [sp, #16]
    fdc8:	fd3ef000 	bl	10848 <__kernel_cos>
    fdcc:	e7d4      	b	fd78 <sin+0x20>
    fdce:	2b00      	cmp	r3, #0
    fdd0:	d1e1      	bne	fd96 <sin+0x3e>
    fdd2:	2301      	mov	r3, #1
    fdd4:	9300      	str	r3, [sp, #0]
    fdd6:	9801      	ldr	r0, [sp, #4]
    fdd8:	9902      	ldr	r1, [sp, #8]
    fdda:	9a03      	ldr	r2, [sp, #12]
    fddc:	9b04      	ldr	r3, [sp, #16]
    fdde:	fa1df001 	bl	1121c <__kernel_sin>
    fde2:	e7c9      	b	fd78 <sin+0x20>
    fde4:	2301      	mov	r3, #1
    fde6:	9300      	str	r3, [sp, #0]
    fde8:	9801      	ldr	r0, [sp, #4]
    fdea:	9902      	ldr	r1, [sp, #8]
    fdec:	9a03      	ldr	r2, [sp, #12]
    fdee:	9b04      	ldr	r3, [sp, #16]
    fdf0:	fa14f001 	bl	1121c <__kernel_sin>
    fdf4:	e7d5      	b	fda2 <sin+0x4a>
    fdf6:	0000      	lsl	r0, r0, #0
    fdf8:	ffff      	second half of BL instruction 0xffff
    fdfa:	7fff      	ldrb	r7, [r7, #31]
    fdfc:	21fb      	mov	r1, #251
    fdfe:	3fe9      	sub	r7, #233
    fe00:	ffff      	second half of BL instruction 0xffff
    fe02:	7fef      	ldrb	r7, [r5, #31]
    fe04:	0000      	lsl	r0, r0, #0
    fe06:	8000      	strh	r0, [r0, #0]
	...

0000fe14 <atan2>:
    fe14:	b5f0      	push	{r4, r5, r6, r7, lr}
    fe16:	4657      	mov	r7, sl
    fe18:	4646      	mov	r6, r8
    fe1a:	b4c0      	push	{r6, r7}
    fe1c:	b08b      	sub	sp, #44
    fe1e:	1c1d      	mov	r5, r3		(add r5, r3, #0)
    fe20:	1c14      	mov	r4, r2		(add r4, r2, #0)
    fe22:	1c0f      	mov	r7, r1		(add r7, r1, #0)
    fe24:	1c06      	mov	r6, r0		(add r6, r0, #0)
    fe26:	f8bff000 	bl	ffa8 <__ieee754_atan2>
    fe2a:	4b29      	ldr	r3, [pc, #164]	(fed0 <.text+0xbed0>)
    fe2c:	681b      	ldr	r3, [r3, #0]
    fe2e:	9000      	str	r0, [sp, #0]
    fe30:	9101      	str	r1, [sp, #4]
    fe32:	4698      	mov	r8, r3
    fe34:	3301      	add	r3, #1
    fe36:	d005      	beq	fe44 <atan2+0x30>
    fe38:	1c29      	mov	r1, r5		(add r1, r5, #0)
    fe3a:	1c20      	mov	r0, r4		(add r0, r4, #0)
    fe3c:	fb3ef001 	bl	114bc <isnan>
    fe40:	2800      	cmp	r0, #0
    fe42:	d008      	beq	fe56 <atan2+0x42>
    fe44:	9800      	ldr	r0, [sp, #0]
    fe46:	9901      	ldr	r1, [sp, #4]
    fe48:	b00b      	add	sp, #44
    fe4a:	bc18      	pop	{r3, r4}
    fe4c:	4698      	mov	r8, r3
    fe4e:	46a2      	mov	sl, r4
    fe50:	bcf0      	pop	{r4, r5, r6, r7}
    fe52:	bc04      	pop	{r2}
    fe54:	4710      	bx	r2
    fe56:	1c39      	mov	r1, r7		(add r1, r7, #0)
    fe58:	1c30      	mov	r0, r6		(add r0, r6, #0)
    fe5a:	fb2ff001 	bl	114bc <isnan>
    fe5e:	2800      	cmp	r0, #0
    fe60:	4682      	mov	sl, r0
    fe62:	d1ef      	bne	fe44 <atan2+0x30>
    fe64:	1c29      	mov	r1, r5		(add r1, r5, #0)
    fe66:	1c20      	mov	r0, r4		(add r0, r4, #0)
    fe68:	4a1a      	ldr	r2, [pc, #104]	(fed4 <.text+0xbed4>)
    fe6a:	4b1b      	ldr	r3, [pc, #108]	(fed8 <.text+0xbed8>)
    fe6c:	fd58f002 	bl	12920 <____eqdf2_from_thumb>
    fe70:	2800      	cmp	r0, #0
    fe72:	d1e7      	bne	fe44 <atan2+0x30>
    fe74:	1c39      	mov	r1, r7		(add r1, r7, #0)
    fe76:	1c30      	mov	r0, r6		(add r0, r6, #0)
    fe78:	4a16      	ldr	r2, [pc, #88]	(fed4 <.text+0xbed4>)
    fe7a:	4b17      	ldr	r3, [pc, #92]	(fed8 <.text+0xbed8>)
    fe7c:	fd50f002 	bl	12920 <____eqdf2_from_thumb>
    fe80:	2800      	cmp	r0, #0
    fe82:	d1df      	bne	fe44 <atan2+0x30>
    fe84:	2301      	mov	r3, #1
    fe86:	9302      	str	r3, [sp, #8]
    fe88:	4b14      	ldr	r3, [pc, #80]	(fedc <.text+0xbedc>)
    fe8a:	9406      	str	r4, [sp, #24]
    fe8c:	9507      	str	r5, [sp, #28]
    fe8e:	4654      	mov	r4, sl
    fe90:	9303      	str	r3, [sp, #12]
    fe92:	940a      	str	r4, [sp, #40]
    fe94:	4b0f      	ldr	r3, [pc, #60]	(fed4 <.text+0xbed4>)
    fe96:	4c10      	ldr	r4, [pc, #64]	(fed8 <.text+0xbed8>)
    fe98:	9308      	str	r3, [sp, #32]
    fe9a:	9409      	str	r4, [sp, #36]
    fe9c:	4644      	mov	r4, r8
    fe9e:	9604      	str	r6, [sp, #16]
    fea0:	9705      	str	r7, [sp, #20]
    fea2:	2c02      	cmp	r4, #2
    fea4:	d00a      	beq	febc <atan2+0xa8>
    fea6:	a802      	add	r0, sp, #8
    fea8:	fb1cf001 	bl	114e4 <matherr>
    feac:	2800      	cmp	r0, #0
    feae:	d005      	beq	febc <atan2+0xa8>
    feb0:	9b0a      	ldr	r3, [sp, #40]
    feb2:	2b00      	cmp	r3, #0
    feb4:	d107      	bne	fec6 <atan2+0xb2>
    feb6:	9808      	ldr	r0, [sp, #32]
    feb8:	9909      	ldr	r1, [sp, #36]
    feba:	e7c5      	b	fe48 <atan2+0x34>
    febc:	fbb2f001 	bl	11624 <__errno>
    fec0:	2321      	mov	r3, #33
    fec2:	6003      	str	r3, [r0, #0]
    fec4:	e7f4      	b	feb0 <atan2+0x9c>
    fec6:	fbadf001 	bl	11624 <__errno>
    feca:	9b0a      	ldr	r3, [sp, #40]
    fecc:	6003      	str	r3, [r0, #0]
    fece:	e7f2      	b	feb6 <atan2+0xa2>
    fed0:	2bd4      	cmp	r3, #212
    fed2:	0001      	lsl	r1, r0, #0
	...
    fedc:	2c18      	cmp	r4, #24
    fede:	0001      	lsl	r1, r0, #0

0000fee0 <sqrt>:
    fee0:	b5f0      	push	{r4, r5, r6, r7, lr}
    fee2:	4657      	mov	r7, sl
    fee4:	4646      	mov	r6, r8
    fee6:	b4c0      	push	{r6, r7}
    fee8:	b089      	sub	sp, #36
    feea:	1c0d      	mov	r5, r1		(add r5, r1, #0)
    feec:	1c04      	mov	r4, r0		(add r4, r0, #0)
    feee:	fbb9f000 	bl	10664 <__ieee754_sqrt>
    fef2:	4b29      	ldr	r3, [pc, #164]	(ff98 <.text+0xbf98>)
    fef4:	681b      	ldr	r3, [r3, #0]
    fef6:	1c0f      	mov	r7, r1		(add r7, r1, #0)
    fef8:	1c06      	mov	r6, r0		(add r6, r0, #0)
    fefa:	4698      	mov	r8, r3
    fefc:	3301      	add	r3, #1
    fefe:	d006      	beq	ff0e <sqrt+0x2e>
    ff00:	1c29      	mov	r1, r5		(add r1, r5, #0)
    ff02:	1c20      	mov	r0, r4		(add r0, r4, #0)
    ff04:	fadaf001 	bl	114bc <isnan>
    ff08:	2800      	cmp	r0, #0
    ff0a:	4682      	mov	sl, r0
    ff0c:	d008      	beq	ff20 <sqrt+0x40>
    ff0e:	1c39      	mov	r1, r7		(add r1, r7, #0)
    ff10:	1c30      	mov	r0, r6		(add r0, r6, #0)
    ff12:	b009      	add	sp, #36
    ff14:	bc18      	pop	{r3, r4}
    ff16:	4698      	mov	r8, r3
    ff18:	46a2      	mov	sl, r4
    ff1a:	bcf0      	pop	{r4, r5, r6, r7}
    ff1c:	bc04      	pop	{r2}
    ff1e:	4710      	bx	r2
    ff20:	1c29      	mov	r1, r5		(add r1, r5, #0)
    ff22:	1c20      	mov	r0, r4		(add r0, r4, #0)
    ff24:	4a1d      	ldr	r2, [pc, #116]	(ff9c <.text+0xbf9c>)
    ff26:	4b1e      	ldr	r3, [pc, #120]	(ffa0 <.text+0xbfa0>)
    ff28:	fcfef002 	bl	12928 <____ltdf2_from_thumb>
    ff2c:	2800      	cmp	r0, #0
    ff2e:	daee      	bge	ff0e <sqrt+0x2e>
    ff30:	2301      	mov	r3, #1
    ff32:	9300      	str	r3, [sp, #0]
    ff34:	4b1b      	ldr	r3, [pc, #108]	(ffa4 <.text+0xbfa4>)
    ff36:	9404      	str	r4, [sp, #16]
    ff38:	9505      	str	r5, [sp, #20]
    ff3a:	9301      	str	r3, [sp, #4]
    ff3c:	9402      	str	r4, [sp, #8]
    ff3e:	9503      	str	r5, [sp, #12]
    ff40:	4653      	mov	r3, sl
    ff42:	4644      	mov	r4, r8
    ff44:	9308      	str	r3, [sp, #32]
    ff46:	2c00      	cmp	r4, #0
    ff48:	d016      	beq	ff78 <sqrt+0x98>
    ff4a:	4814      	ldr	r0, [pc, #80]	(ff9c <.text+0xbf9c>)
    ff4c:	4914      	ldr	r1, [pc, #80]	(ffa0 <.text+0xbfa0>)
    ff4e:	1c0b      	mov	r3, r1		(add r3, r1, #0)
    ff50:	1c02      	mov	r2, r0		(add r2, r0, #0)
    ff52:	fce1f002 	bl	12918 <____divdf3_from_thumb>
    ff56:	9006      	str	r0, [sp, #24]
    ff58:	9107      	str	r1, [sp, #28]
    ff5a:	4b0f      	ldr	r3, [pc, #60]	(ff98 <.text+0xbf98>)
    ff5c:	681b      	ldr	r3, [r3, #0]
    ff5e:	2b02      	cmp	r3, #2
    ff60:	d00f      	beq	ff82 <sqrt+0xa2>
    ff62:	4668      	mov	r0, sp
    ff64:	fabef001 	bl	114e4 <matherr>
    ff68:	2800      	cmp	r0, #0
    ff6a:	d00a      	beq	ff82 <sqrt+0xa2>
    ff6c:	9b08      	ldr	r3, [sp, #32]
    ff6e:	2b00      	cmp	r3, #0
    ff70:	d10c      	bne	ff8c <sqrt+0xac>
    ff72:	9806      	ldr	r0, [sp, #24]
    ff74:	9907      	ldr	r1, [sp, #28]
    ff76:	e7cc      	b	ff12 <sqrt+0x32>
    ff78:	4b08      	ldr	r3, [pc, #32]	(ff9c <.text+0xbf9c>)
    ff7a:	4c09      	ldr	r4, [pc, #36]	(ffa0 <.text+0xbfa0>)
    ff7c:	9306      	str	r3, [sp, #24]
    ff7e:	9407      	str	r4, [sp, #28]
    ff80:	e7eb      	b	ff5a <sqrt+0x7a>
    ff82:	fb4ff001 	bl	11624 <__errno>
    ff86:	2321      	mov	r3, #33
    ff88:	6003      	str	r3, [r0, #0]
    ff8a:	e7ef      	b	ff6c <sqrt+0x8c>
    ff8c:	fb4af001 	bl	11624 <__errno>
    ff90:	9b08      	ldr	r3, [sp, #32]
    ff92:	6003      	str	r3, [r0, #0]
    ff94:	e7ed      	b	ff72 <sqrt+0x92>
    ff96:	0000      	lsl	r0, r0, #0
    ff98:	2bd4      	cmp	r3, #212
    ff9a:	0001      	lsl	r1, r0, #0
	...
    ffa4:	2c20      	cmp	r4, #32
    ffa6:	0001      	lsl	r1, r0, #0

0000ffa8 <__ieee754_atan2>:
    ffa8:	b5f0      	push	{r4, r5, r6, r7, lr}
    ffaa:	4657      	mov	r7, sl
    ffac:	4646      	mov	r6, r8
    ffae:	b4c0      	push	{r6, r7}
    ffb0:	1c1e      	mov	r6, r3		(add r6, r3, #0)
    ffb2:	1c15      	mov	r5, r2		(add r5, r2, #0)
    ffb4:	1c1c      	mov	r4, r3		(add r4, r3, #0)
    ffb6:	1c13      	mov	r3, r2		(add r3, r2, #0)
    ffb8:	4a69      	ldr	r2, [pc, #420]	(10160 <.text+0xc160>)
    ffba:	b082      	sub	sp, #8
    ffbc:	9000      	str	r0, [sp, #0]
    ffbe:	9101      	str	r1, [sp, #4]
    ffc0:	4698      	mov	r8, r3
    ffc2:	4013      	and	r3, r2
    ffc4:	1c21      	mov	r1, r4		(add r1, r4, #0)
    ffc6:	469c      	mov	ip, r3
    ffc8:	9b00      	ldr	r3, [sp, #0]
    ffca:	9c01      	ldr	r4, [sp, #4]
    ffcc:	1c1f      	mov	r7, r3		(add r7, r3, #0)
    ffce:	1c20      	mov	r0, r4		(add r0, r4, #0)
    ffd0:	1c1c      	mov	r4, r3		(add r4, r3, #0)
    ffd2:	424b      	neg	r3, r1
    ffd4:	430b      	orr	r3, r1
    ffd6:	4014      	and	r4, r2
    ffd8:	0fdb      	lsr	r3, r3, #31
    ffda:	4662      	mov	r2, ip
    ffdc:	4313      	orr	r3, r2
    ffde:	4a61      	ldr	r2, [pc, #388]	(10164 <.text+0xc164>)
    ffe0:	4293      	cmp	r3, r2
    ffe2:	d805      	bhi	fff0 <__ieee754_atan2+0x48>
    ffe4:	4243      	neg	r3, r0
    ffe6:	4303      	orr	r3, r0
    ffe8:	0fdb      	lsr	r3, r3, #31
    ffea:	4323      	orr	r3, r4
    ffec:	4293      	cmp	r3, r2
    ffee:	d90c      	bls	1000a <__ieee754_atan2+0x62>
    fff0:	1c31      	mov	r1, r6		(add r1, r6, #0)
    fff2:	1c28      	mov	r0, r5		(add r0, r5, #0)
    fff4:	9a00      	ldr	r2, [sp, #0]
    fff6:	9b01      	ldr	r3, [sp, #4]
    fff8:	fc7ef002 	bl	128f8 <____adddf3_from_thumb>
    fffc:	b002      	add	sp, #8
    fffe:	bc18      	pop	{r3, r4}
   10000:	4698      	mov	r8, r3
   10002:	46a2      	mov	sl, r4
   10004:	bcf0      	pop	{r4, r5, r6, r7}
   10006:	bc04      	pop	{r2}
   10008:	4710      	bx	r2
   1000a:	4b57      	ldr	r3, [pc, #348]	(10168 <.text+0xc168>)
   1000c:	4443      	add	r3, r8
   1000e:	430b      	orr	r3, r1
   10010:	d014      	beq	1003c <__ieee754_atan2+0x94>
   10012:	0ffb      	lsr	r3, r7, #31
   10014:	4642      	mov	r2, r8
   10016:	469a      	mov	sl, r3
   10018:	1793      	asr	r3, r2, #30
   1001a:	2202      	mov	r2, #2
   1001c:	4013      	and	r3, r2
   1001e:	4652      	mov	r2, sl
   10020:	431a      	orr	r2, r3
   10022:	4692      	mov	sl, r2
   10024:	4320      	orr	r0, r4
   10026:	d10e      	bne	10046 <__ieee754_atan2+0x9e>
   10028:	2a02      	cmp	r2, #2
   1002a:	d100      	bne	1002e <__ieee754_atan2+0x86>
   1002c:	e085      	b	1013a <__ieee754_atan2+0x192>
   1002e:	2a02      	cmp	r2, #2
   10030:	dc2f      	bgt	10092 <__ieee754_atan2+0xea>
   10032:	2a00      	cmp	r2, #0
   10034:	db07      	blt	10046 <__ieee754_atan2+0x9e>
   10036:	9800      	ldr	r0, [sp, #0]
   10038:	9901      	ldr	r1, [sp, #4]
   1003a:	e7df      	b	fffc <__ieee754_atan2+0x54>
   1003c:	9800      	ldr	r0, [sp, #0]
   1003e:	9901      	ldr	r1, [sp, #4]
   10040:	fc74f7ff 	bl	f92c <atan>
   10044:	e7da      	b	fffc <__ieee754_atan2+0x54>
   10046:	4662      	mov	r2, ip
   10048:	430a      	orr	r2, r1
   1004a:	d01d      	beq	10088 <__ieee754_atan2+0xe0>
   1004c:	4b45      	ldr	r3, [pc, #276]	(10164 <.text+0xc164>)
   1004e:	459c      	cmp	ip, r3
   10050:	d024      	beq	1009c <__ieee754_atan2+0xf4>
   10052:	4b44      	ldr	r3, [pc, #272]	(10164 <.text+0xc164>)
   10054:	429c      	cmp	r4, r3
   10056:	d017      	beq	10088 <__ieee754_atan2+0xe0>
   10058:	4662      	mov	r2, ip
   1005a:	1aa3      	sub	r3, r4, r2
   1005c:	151b      	asr	r3, r3, #20
   1005e:	2b3c      	cmp	r3, #60
   10060:	dd29      	ble	100b6 <__ieee754_atan2+0x10e>
   10062:	4842      	ldr	r0, [pc, #264]	(1016c <.text+0xc16c>)
   10064:	4942      	ldr	r1, [pc, #264]	(10170 <.text+0xc170>)
   10066:	4653      	mov	r3, sl
   10068:	2b01      	cmp	r3, #1
   1006a:	d035      	beq	100d8 <__ieee754_atan2+0x130>
   1006c:	2b01      	cmp	r3, #1
   1006e:	dd4e      	ble	1010e <__ieee754_atan2+0x166>
   10070:	4652      	mov	r2, sl
   10072:	2a02      	cmp	r2, #2
   10074:	d040      	beq	100f8 <__ieee754_atan2+0x150>
   10076:	4a3f      	ldr	r2, [pc, #252]	(10174 <.text+0xc174>)
   10078:	4b3f      	ldr	r3, [pc, #252]	(10178 <.text+0xc178>)
   1007a:	fc45f002 	bl	12908 <____subdf3_from_thumb>
   1007e:	4a3f      	ldr	r2, [pc, #252]	(1017c <.text+0xc17c>)
   10080:	4b3f      	ldr	r3, [pc, #252]	(10180 <.text+0xc180>)
   10082:	fc41f002 	bl	12908 <____subdf3_from_thumb>
   10086:	e7b9      	b	fffc <__ieee754_atan2+0x54>
   10088:	2f00      	cmp	r7, #0
   1008a:	db22      	blt	100d2 <__ieee754_atan2+0x12a>
   1008c:	4837      	ldr	r0, [pc, #220]	(1016c <.text+0xc16c>)
   1008e:	4938      	ldr	r1, [pc, #224]	(10170 <.text+0xc170>)
   10090:	e7b4      	b	fffc <__ieee754_atan2+0x54>
   10092:	2a03      	cmp	r2, #3
   10094:	d1d7      	bne	10046 <__ieee754_atan2+0x9e>
   10096:	483b      	ldr	r0, [pc, #236]	(10184 <.text+0xc184>)
   10098:	493b      	ldr	r1, [pc, #236]	(10188 <.text+0xc188>)
   1009a:	e7af      	b	fffc <__ieee754_atan2+0x54>
   1009c:	4564      	cmp	r4, ip
   1009e:	d03a      	beq	10116 <__ieee754_atan2+0x16e>
   100a0:	4653      	mov	r3, sl
   100a2:	2b01      	cmp	r3, #1
   100a4:	d052      	beq	1014c <__ieee754_atan2+0x1a4>
   100a6:	2b01      	cmp	r3, #1
   100a8:	dd42      	ble	10130 <__ieee754_atan2+0x188>
   100aa:	4652      	mov	r2, sl
   100ac:	2a02      	cmp	r2, #2
   100ae:	d044      	beq	1013a <__ieee754_atan2+0x192>
   100b0:	2a03      	cmp	r2, #3
   100b2:	d1ce      	bne	10052 <__ieee754_atan2+0xaa>
   100b4:	e7ef      	b	10096 <__ieee754_atan2+0xee>
   100b6:	4642      	mov	r2, r8
   100b8:	2a00      	cmp	r2, #0
   100ba:	db18      	blt	100ee <__ieee754_atan2+0x146>
   100bc:	1c33      	mov	r3, r6		(add r3, r6, #0)
   100be:	1c2a      	mov	r2, r5		(add r2, r5, #0)
   100c0:	9800      	ldr	r0, [sp, #0]
   100c2:	9901      	ldr	r1, [sp, #4]
   100c4:	fc28f002 	bl	12918 <____divdf3_from_thumb>
   100c8:	fe36f7ff 	bl	fd38 <fabs>
   100cc:	fc2ef7ff 	bl	f92c <atan>
   100d0:	e7c9      	b	10066 <__ieee754_atan2+0xbe>
   100d2:	482e      	ldr	r0, [pc, #184]	(1018c <.text+0xc18c>)
   100d4:	492e      	ldr	r1, [pc, #184]	(10190 <.text+0xc190>)
   100d6:	e791      	b	fffc <__ieee754_atan2+0x54>
   100d8:	1c0c      	mov	r4, r1		(add r4, r1, #0)
   100da:	1c03      	mov	r3, r0		(add r3, r0, #0)
   100dc:	1c0a      	mov	r2, r1		(add r2, r1, #0)
   100de:	1c01      	mov	r1, r0		(add r1, r0, #0)
   100e0:	2080      	mov	r0, #128
   100e2:	0600      	lsl	r0, r0, #24
   100e4:	1c01      	mov	r1, r0		(add r1, r0, #0)
   100e6:	4059      	eor	r1, r3
   100e8:	1c08      	mov	r0, r1		(add r0, r1, #0)
   100ea:	1c11      	mov	r1, r2		(add r1, r2, #0)
   100ec:	e786      	b	fffc <__ieee754_atan2+0x54>
   100ee:	333c      	add	r3, #60
   100f0:	dae4      	bge	100bc <__ieee754_atan2+0x114>
   100f2:	4828      	ldr	r0, [pc, #160]	(10194 <.text+0xc194>)
   100f4:	4928      	ldr	r1, [pc, #160]	(10198 <.text+0xc198>)
   100f6:	e7b6      	b	10066 <__ieee754_atan2+0xbe>
   100f8:	4a1e      	ldr	r2, [pc, #120]	(10174 <.text+0xc174>)
   100fa:	4b1f      	ldr	r3, [pc, #124]	(10178 <.text+0xc178>)
   100fc:	fc04f002 	bl	12908 <____subdf3_from_thumb>
   10100:	1c0b      	mov	r3, r1		(add r3, r1, #0)
   10102:	1c02      	mov	r2, r0		(add r2, r0, #0)
   10104:	481d      	ldr	r0, [pc, #116]	(1017c <.text+0xc17c>)
   10106:	491e      	ldr	r1, [pc, #120]	(10180 <.text+0xc180>)
   10108:	fbfef002 	bl	12908 <____subdf3_from_thumb>
   1010c:	e776      	b	fffc <__ieee754_atan2+0x54>
   1010e:	2b00      	cmp	r3, #0
   10110:	d100      	bne	10114 <__ieee754_atan2+0x16c>
   10112:	e773      	b	fffc <__ieee754_atan2+0x54>
   10114:	e7af      	b	10076 <__ieee754_atan2+0xce>
   10116:	4653      	mov	r3, sl
   10118:	2b01      	cmp	r3, #1
   1011a:	d01a      	beq	10152 <__ieee754_atan2+0x1aa>
   1011c:	2b01      	cmp	r3, #1
   1011e:	dd0f      	ble	10140 <__ieee754_atan2+0x198>
   10120:	4652      	mov	r2, sl
   10122:	2a02      	cmp	r2, #2
   10124:	d018      	beq	10158 <__ieee754_atan2+0x1b0>
   10126:	2a03      	cmp	r2, #3
   10128:	d193      	bne	10052 <__ieee754_atan2+0xaa>
   1012a:	481c      	ldr	r0, [pc, #112]	(1019c <.text+0xc19c>)
   1012c:	491c      	ldr	r1, [pc, #112]	(101a0 <.text+0xc1a0>)
   1012e:	e765      	b	fffc <__ieee754_atan2+0x54>
   10130:	2b00      	cmp	r3, #0
   10132:	d18e      	bne	10052 <__ieee754_atan2+0xaa>
   10134:	4817      	ldr	r0, [pc, #92]	(10194 <.text+0xc194>)
   10136:	4918      	ldr	r1, [pc, #96]	(10198 <.text+0xc198>)
   10138:	e760      	b	fffc <__ieee754_atan2+0x54>
   1013a:	4810      	ldr	r0, [pc, #64]	(1017c <.text+0xc17c>)
   1013c:	4910      	ldr	r1, [pc, #64]	(10180 <.text+0xc180>)
   1013e:	e75d      	b	fffc <__ieee754_atan2+0x54>
   10140:	2b00      	cmp	r3, #0
   10142:	d000      	beq	10146 <__ieee754_atan2+0x19e>
   10144:	e785      	b	10052 <__ieee754_atan2+0xaa>
   10146:	4817      	ldr	r0, [pc, #92]	(101a4 <.text+0xc1a4>)
   10148:	4917      	ldr	r1, [pc, #92]	(101a8 <.text+0xc1a8>)
   1014a:	e757      	b	fffc <__ieee754_atan2+0x54>
   1014c:	4817      	ldr	r0, [pc, #92]	(101ac <.text+0xc1ac>)
   1014e:	4918      	ldr	r1, [pc, #96]	(101b0 <.text+0xc1b0>)
   10150:	e754      	b	fffc <__ieee754_atan2+0x54>
   10152:	4818      	ldr	r0, [pc, #96]	(101b4 <.text+0xc1b4>)
   10154:	4918      	ldr	r1, [pc, #96]	(101b8 <.text+0xc1b8>)
   10156:	e751      	b	fffc <__ieee754_atan2+0x54>
   10158:	4818      	ldr	r0, [pc, #96]	(101bc <.text+0xc1bc>)
   1015a:	4919      	ldr	r1, [pc, #100]	(101c0 <.text+0xc1c0>)
   1015c:	e74e      	b	fffc <__ieee754_atan2+0x54>
   1015e:	0000      	lsl	r0, r0, #0
   10160:	ffff      	second half of BL instruction 0xffff
   10162:	7fff      	ldrb	r7, [r7, #31]
   10164:	0000      	lsl	r0, r0, #0
   10166:	7ff0      	ldrb	r0, [r6, #31]
   10168:	0000      	lsl	r0, r0, #0
   1016a:	c010      	stmia	r0!,{r4}
   1016c:	21fb      	mov	r1, #251
   1016e:	3ff9      	sub	r7, #249
   10170:	2d18      	cmp	r5, #24
   10172:	5444      	strb	r4, [r0, r1]
   10174:	a626      	add	r6, pc, #152	(adr r6,10210 <__ieee754_rem_pio2+0x4c>)
   10176:	3ca1      	sub	r4, #161
   10178:	5c07      	ldrb	r7, [r0, r0]
   1017a:	3314      	add	r3, #20
   1017c:	21fb      	mov	r1, #251
   1017e:	4009      	and	r1, r1
   10180:	2d18      	cmp	r5, #24
   10182:	5444      	strb	r4, [r0, r1]
   10184:	21fb      	mov	r1, #251
   10186:	c009      	stmia	r0!,{r0, r3}
   10188:	2d18      	cmp	r5, #24
   1018a:	5444      	strb	r4, [r0, r1]
   1018c:	21fb      	mov	r1, #251
   1018e:	bff9      	undefined instruction 0xbff9
   10190:	2d18      	cmp	r5, #24
   10192:	5444      	strb	r4, [r0, r1]
	...
   1019c:	d97c      	bls	10298 <__ieee754_rem_pio2+0xd4>
   1019e:	c002      	stmia	r0!,{r1}
   101a0:	21d2      	mov	r1, #210
   101a2:	7f33      	ldrb	r3, [r6, #28]
   101a4:	21fb      	mov	r1, #251
   101a6:	3fe9      	sub	r7, #233
   101a8:	2d18      	cmp	r5, #24
   101aa:	5444      	strb	r4, [r0, r1]
   101ac:	0000      	lsl	r0, r0, #0
   101ae:	8000      	strh	r0, [r0, #0]
   101b0:	0000      	lsl	r0, r0, #0
   101b2:	0000      	lsl	r0, r0, #0
   101b4:	21fb      	mov	r1, #251
   101b6:	bfe9      	undefined instruction 0xbfe9
   101b8:	2d18      	cmp	r5, #24
   101ba:	5444      	strb	r4, [r0, r1]
   101bc:	d97c      	bls	102b8 <__ieee754_rem_pio2+0xf4>
   101be:	4002      	and	r2, r0
   101c0:	21d2      	mov	r1, #210
   101c2:	7f33      	ldrb	r3, [r6, #28]

000101c4 <__ieee754_rem_pio2>:
   101c4:	b5f0      	push	{r4, r5, r6, r7, lr}
   101c6:	465f      	mov	r7, fp
   101c8:	4656      	mov	r6, sl
   101ca:	464d      	mov	r5, r9
   101cc:	4644      	mov	r4, r8
   101ce:	b4f0      	push	{r4, r5, r6, r7}
   101d0:	4fca      	ldr	r7, [pc, #808]	(104fc <.text+0xc4fc>)
   101d2:	4bcb      	ldr	r3, [pc, #812]	(10500 <.text+0xc500>)
   101d4:	4007      	and	r7, r0
   101d6:	b096      	sub	sp, #88
   101d8:	1c0e      	mov	r6, r1		(add r6, r1, #0)
   101da:	1c05      	mov	r5, r0		(add r5, r0, #0)
   101dc:	4690      	mov	r8, r2
   101de:	4682      	mov	sl, r0
   101e0:	429f      	cmp	r7, r3
   101e2:	dc0f      	bgt	10204 <__ieee754_rem_pio2+0x40>
   101e4:	4bc7      	ldr	r3, [pc, #796]	(10504 <.text+0xc504>)
   101e6:	4cc8      	ldr	r4, [pc, #800]	(10508 <.text+0xc508>)
   101e8:	6015      	str	r5, [r2, #0]
   101ea:	6056      	str	r6, [r2, #4]
   101ec:	6093      	str	r3, [r2, #8]
   101ee:	60d4      	str	r4, [r2, #12]
   101f0:	2000      	mov	r0, #0
   101f2:	b016      	add	sp, #88
   101f4:	bc78      	pop	{r3, r4, r5, r6}
   101f6:	4698      	mov	r8, r3
   101f8:	46a1      	mov	r9, r4
   101fa:	46aa      	mov	sl, r5
   101fc:	46b3      	mov	fp, r6
   101fe:	bcf0      	pop	{r4, r5, r6, r7}
   10200:	bc02      	pop	{r1}
   10202:	4708      	bx	r1
   10204:	4bc1      	ldr	r3, [pc, #772]	(1050c <.text+0xc50c>)
   10206:	429f      	cmp	r7, r3
   10208:	dc24      	bgt	10254 <__ieee754_rem_pio2+0x90>
   1020a:	2800      	cmp	r0, #0
   1020c:	dc00      	bgt	10210 <__ieee754_rem_pio2+0x4c>
   1020e:	e1cf      	b	105b0 <.text+0xc5b0>
   10210:	4abf      	ldr	r2, [pc, #764]	(10510 <.text+0xc510>)
   10212:	4bc0      	ldr	r3, [pc, #768]	(10514 <.text+0xc514>)
   10214:	fb78f002 	bl	12908 <____subdf3_from_thumb>
   10218:	4bbf      	ldr	r3, [pc, #764]	(10518 <.text+0xc518>)
   1021a:	900e      	str	r0, [sp, #56]
   1021c:	910f      	str	r1, [sp, #60]
   1021e:	429f      	cmp	r7, r3
   10220:	d100      	bne	10224 <__ieee754_rem_pio2+0x60>
   10222:	e0ee      	b	10402 <__ieee754_rem_pio2+0x23e>
   10224:	4abd      	ldr	r2, [pc, #756]	(1051c <.text+0xc51c>)
   10226:	4bbe      	ldr	r3, [pc, #760]	(10520 <.text+0xc520>)
   10228:	fb6ef002 	bl	12908 <____subdf3_from_thumb>
   1022c:	4644      	mov	r4, r8
   1022e:	1c0e      	mov	r6, r1		(add r6, r1, #0)
   10230:	1c05      	mov	r5, r0		(add r5, r0, #0)
   10232:	6020      	str	r0, [r4, #0]
   10234:	6061      	str	r1, [r4, #4]
   10236:	1c33      	mov	r3, r6		(add r3, r6, #0)
   10238:	1c2a      	mov	r2, r5		(add r2, r5, #0)
   1023a:	980e      	ldr	r0, [sp, #56]
   1023c:	990f      	ldr	r1, [sp, #60]
   1023e:	fb63f002 	bl	12908 <____subdf3_from_thumb>
   10242:	4ab6      	ldr	r2, [pc, #728]	(1051c <.text+0xc51c>)
   10244:	4bb6      	ldr	r3, [pc, #728]	(10520 <.text+0xc520>)
   10246:	fb5ff002 	bl	12908 <____subdf3_from_thumb>
   1024a:	4642      	mov	r2, r8
   1024c:	6090      	str	r0, [r2, #8]
   1024e:	60d1      	str	r1, [r2, #12]
   10250:	2001      	mov	r0, #1
   10252:	e7ce      	b	101f2 <__ieee754_rem_pio2+0x2e>
   10254:	4bb3      	ldr	r3, [pc, #716]	(10524 <.text+0xc524>)
   10256:	429f      	cmp	r7, r3
   10258:	dd0e      	ble	10278 <__ieee754_rem_pio2+0xb4>
   1025a:	4bb3      	ldr	r3, [pc, #716]	(10528 <.text+0xc528>)
   1025c:	429f      	cmp	r7, r3
   1025e:	dc00      	bgt	10262 <__ieee754_rem_pio2+0x9e>
   10260:	e0ef      	b	10442 <__ieee754_rem_pio2+0x27e>
   10262:	1c33      	mov	r3, r6		(add r3, r6, #0)
   10264:	1c2a      	mov	r2, r5		(add r2, r5, #0)
   10266:	fb4ff002 	bl	12908 <____subdf3_from_thumb>
   1026a:	4644      	mov	r4, r8
   1026c:	4642      	mov	r2, r8
   1026e:	60a0      	str	r0, [r4, #8]
   10270:	60e1      	str	r1, [r4, #12]
   10272:	6010      	str	r0, [r2, #0]
   10274:	6051      	str	r1, [r2, #4]
   10276:	e7bb      	b	101f0 <__ieee754_rem_pio2+0x2c>
   10278:	fd5ef7ff 	bl	fd38 <fabs>
   1027c:	4aab      	ldr	r2, [pc, #684]	(1052c <.text+0xc52c>)
   1027e:	4bac      	ldr	r3, [pc, #688]	(10530 <.text+0xc530>)
   10280:	900a      	str	r0, [sp, #40]
   10282:	910b      	str	r1, [sp, #44]
   10284:	fb3cf002 	bl	12900 <____muldf3_from_thumb>
   10288:	4aaa      	ldr	r2, [pc, #680]	(10534 <.text+0xc534>)
   1028a:	4bab      	ldr	r3, [pc, #684]	(10538 <.text+0xc538>)
   1028c:	fb34f002 	bl	128f8 <____adddf3_from_thumb>
   10290:	fb4ef002 	bl	12930 <____fixdfsi_from_thumb>
   10294:	4681      	mov	r9, r0
   10296:	fb4ff002 	bl	12938 <____floatsidf_from_thumb>
   1029a:	4a9d      	ldr	r2, [pc, #628]	(10510 <.text+0xc510>)
   1029c:	4b9d      	ldr	r3, [pc, #628]	(10514 <.text+0xc514>)
   1029e:	9006      	str	r0, [sp, #24]
   102a0:	9107      	str	r1, [sp, #28]
   102a2:	fb2df002 	bl	12900 <____muldf3_from_thumb>
   102a6:	1c0b      	mov	r3, r1		(add r3, r1, #0)
   102a8:	1c02      	mov	r2, r0		(add r2, r0, #0)
   102aa:	980a      	ldr	r0, [sp, #40]
   102ac:	990b      	ldr	r1, [sp, #44]
   102ae:	fb2bf002 	bl	12908 <____subdf3_from_thumb>
   102b2:	4a9a      	ldr	r2, [pc, #616]	(1051c <.text+0xc51c>)
   102b4:	4b9a      	ldr	r3, [pc, #616]	(10520 <.text+0xc520>)
   102b6:	9008      	str	r0, [sp, #32]
   102b8:	9109      	str	r1, [sp, #36]
   102ba:	9806      	ldr	r0, [sp, #24]
   102bc:	9907      	ldr	r1, [sp, #28]
   102be:	fb1ff002 	bl	12900 <____muldf3_from_thumb>
   102c2:	900c      	str	r0, [sp, #48]
   102c4:	910d      	str	r1, [sp, #52]
   102c6:	4649      	mov	r1, r9
   102c8:	291f      	cmp	r1, #31
   102ca:	dc00      	bgt	102ce <__ieee754_rem_pio2+0x10a>
   102cc:	e154      	b	10578 <.text+0xc578>
   102ce:	9a0c      	ldr	r2, [sp, #48]
   102d0:	9b0d      	ldr	r3, [sp, #52]
   102d2:	9808      	ldr	r0, [sp, #32]
   102d4:	9909      	ldr	r1, [sp, #36]
   102d6:	fb17f002 	bl	12908 <____subdf3_from_thumb>
   102da:	4a98      	ldr	r2, [pc, #608]	(1053c <.text+0xc53c>)
   102dc:	0d03      	lsr	r3, r0, #20
   102de:	153f      	asr	r7, r7, #20
   102e0:	4013      	and	r3, r2
   102e2:	1afc      	sub	r4, r7, r3
   102e4:	1c0e      	mov	r6, r1		(add r6, r1, #0)
   102e6:	1c05      	mov	r5, r0		(add r5, r0, #0)
   102e8:	4693      	mov	fp, r2
   102ea:	2c10      	cmp	r4, #16
   102ec:	dc00      	bgt	102f0 <__ieee754_rem_pio2+0x12c>
   102ee:	e06f      	b	103d0 <__ieee754_rem_pio2+0x20c>
   102f0:	9b08      	ldr	r3, [sp, #32]
   102f2:	9c09      	ldr	r4, [sp, #36]
   102f4:	9806      	ldr	r0, [sp, #24]
   102f6:	9907      	ldr	r1, [sp, #28]
   102f8:	930a      	str	r3, [sp, #40]
   102fa:	940b      	str	r4, [sp, #44]
   102fc:	4a90      	ldr	r2, [pc, #576]	(10540 <.text+0xc540>)
   102fe:	4b91      	ldr	r3, [pc, #580]	(10544 <.text+0xc544>)
   10300:	fafef002 	bl	12900 <____muldf3_from_thumb>
   10304:	900c      	str	r0, [sp, #48]
   10306:	910d      	str	r1, [sp, #52]
   10308:	9a0c      	ldr	r2, [sp, #48]
   1030a:	9b0d      	ldr	r3, [sp, #52]
   1030c:	980a      	ldr	r0, [sp, #40]
   1030e:	990b      	ldr	r1, [sp, #44]
   10310:	fafaf002 	bl	12908 <____subdf3_from_thumb>
   10314:	4a8c      	ldr	r2, [pc, #560]	(10548 <.text+0xc548>)
   10316:	4b8d      	ldr	r3, [pc, #564]	(1054c <.text+0xc54c>)
   10318:	9008      	str	r0, [sp, #32]
   1031a:	9109      	str	r1, [sp, #36]
   1031c:	9004      	str	r0, [sp, #16]
   1031e:	9105      	str	r1, [sp, #20]
   10320:	9806      	ldr	r0, [sp, #24]
   10322:	9907      	ldr	r1, [sp, #28]
   10324:	faecf002 	bl	12900 <____muldf3_from_thumb>
   10328:	9a08      	ldr	r2, [sp, #32]
   1032a:	9b09      	ldr	r3, [sp, #36]
   1032c:	1c0d      	mov	r5, r1		(add r5, r1, #0)
   1032e:	1c04      	mov	r4, r0		(add r4, r0, #0)
   10330:	980a      	ldr	r0, [sp, #40]
   10332:	990b      	ldr	r1, [sp, #44]
   10334:	fae8f002 	bl	12908 <____subdf3_from_thumb>
   10338:	9a0c      	ldr	r2, [sp, #48]
   1033a:	9b0d      	ldr	r3, [sp, #52]
   1033c:	fae4f002 	bl	12908 <____subdf3_from_thumb>
   10340:	1c0b      	mov	r3, r1		(add r3, r1, #0)
   10342:	1c02      	mov	r2, r0		(add r2, r0, #0)
   10344:	1c29      	mov	r1, r5		(add r1, r5, #0)
   10346:	1c20      	mov	r0, r4		(add r0, r4, #0)
   10348:	fadef002 	bl	12908 <____subdf3_from_thumb>
   1034c:	900c      	str	r0, [sp, #48]
   1034e:	910d      	str	r1, [sp, #52]
   10350:	9a0c      	ldr	r2, [sp, #48]
   10352:	9b0d      	ldr	r3, [sp, #52]
   10354:	9808      	ldr	r0, [sp, #32]
   10356:	9909      	ldr	r1, [sp, #36]
   10358:	fad6f002 	bl	12908 <____subdf3_from_thumb>
   1035c:	465c      	mov	r4, fp
   1035e:	0d03      	lsr	r3, r0, #20
   10360:	4023      	and	r3, r4
   10362:	1afc      	sub	r4, r7, r3
   10364:	1c0e      	mov	r6, r1		(add r6, r1, #0)
   10366:	1c05      	mov	r5, r0		(add r5, r0, #0)
   10368:	2c31      	cmp	r4, #49
   1036a:	dd31      	ble	103d0 <__ieee754_rem_pio2+0x20c>
   1036c:	4a78      	ldr	r2, [pc, #480]	(10550 <.text+0xc550>)
   1036e:	4b79      	ldr	r3, [pc, #484]	(10554 <.text+0xc554>)
   10370:	9806      	ldr	r0, [sp, #24]
   10372:	9907      	ldr	r1, [sp, #28]
   10374:	fac4f002 	bl	12900 <____muldf3_from_thumb>
   10378:	900c      	str	r0, [sp, #48]
   1037a:	910d      	str	r1, [sp, #52]
   1037c:	9a0c      	ldr	r2, [sp, #48]
   1037e:	9b0d      	ldr	r3, [sp, #52]
   10380:	9808      	ldr	r0, [sp, #32]
   10382:	9909      	ldr	r1, [sp, #36]
   10384:	fac0f002 	bl	12908 <____subdf3_from_thumb>
   10388:	4a73      	ldr	r2, [pc, #460]	(10558 <.text+0xc558>)
   1038a:	4b74      	ldr	r3, [pc, #464]	(1055c <.text+0xc55c>)
   1038c:	9008      	str	r0, [sp, #32]
   1038e:	9109      	str	r1, [sp, #36]
   10390:	9806      	ldr	r0, [sp, #24]
   10392:	9907      	ldr	r1, [sp, #28]
   10394:	fab4f002 	bl	12900 <____muldf3_from_thumb>
   10398:	9a08      	ldr	r2, [sp, #32]
   1039a:	9b09      	ldr	r3, [sp, #36]
   1039c:	1c0d      	mov	r5, r1		(add r5, r1, #0)
   1039e:	1c04      	mov	r4, r0		(add r4, r0, #0)
   103a0:	9804      	ldr	r0, [sp, #16]
   103a2:	9905      	ldr	r1, [sp, #20]
   103a4:	fab0f002 	bl	12908 <____subdf3_from_thumb>
   103a8:	9a0c      	ldr	r2, [sp, #48]
   103aa:	9b0d      	ldr	r3, [sp, #52]
   103ac:	faacf002 	bl	12908 <____subdf3_from_thumb>
   103b0:	1c0b      	mov	r3, r1		(add r3, r1, #0)
   103b2:	1c02      	mov	r2, r0		(add r2, r0, #0)
   103b4:	1c29      	mov	r1, r5		(add r1, r5, #0)
   103b6:	1c20      	mov	r0, r4		(add r0, r4, #0)
   103b8:	faa6f002 	bl	12908 <____subdf3_from_thumb>
   103bc:	900c      	str	r0, [sp, #48]
   103be:	910d      	str	r1, [sp, #52]
   103c0:	9808      	ldr	r0, [sp, #32]
   103c2:	9909      	ldr	r1, [sp, #36]
   103c4:	9a0c      	ldr	r2, [sp, #48]
   103c6:	9b0d      	ldr	r3, [sp, #52]
   103c8:	fa9ef002 	bl	12908 <____subdf3_from_thumb>
   103cc:	1c0e      	mov	r6, r1		(add r6, r1, #0)
   103ce:	1c05      	mov	r5, r0		(add r5, r0, #0)
   103d0:	1c33      	mov	r3, r6		(add r3, r6, #0)
   103d2:	1c2a      	mov	r2, r5		(add r2, r5, #0)
   103d4:	9808      	ldr	r0, [sp, #32]
   103d6:	9909      	ldr	r1, [sp, #36]
   103d8:	fa96f002 	bl	12908 <____subdf3_from_thumb>
   103dc:	9a0c      	ldr	r2, [sp, #48]
   103de:	9b0d      	ldr	r3, [sp, #52]
   103e0:	fa92f002 	bl	12908 <____subdf3_from_thumb>
   103e4:	9002      	str	r0, [sp, #8]
   103e6:	9103      	str	r1, [sp, #12]
   103e8:	4651      	mov	r1, sl
   103ea:	2900      	cmp	r1, #0
   103ec:	da00      	bge	103f0 <__ieee754_rem_pio2+0x22c>
   103ee:	e0cc      	b	1058a <.text+0xc58a>
   103f0:	9902      	ldr	r1, [sp, #8]
   103f2:	9a03      	ldr	r2, [sp, #12]
   103f4:	4643      	mov	r3, r8
   103f6:	601d      	str	r5, [r3, #0]
   103f8:	605e      	str	r6, [r3, #4]
   103fa:	6099      	str	r1, [r3, #8]
   103fc:	60da      	str	r2, [r3, #12]
   103fe:	4648      	mov	r0, r9
   10400:	e6f7      	b	101f2 <__ieee754_rem_pio2+0x2e>
   10402:	980e      	ldr	r0, [sp, #56]
   10404:	990f      	ldr	r1, [sp, #60]
   10406:	4a4e      	ldr	r2, [pc, #312]	(10540 <.text+0xc540>)
   10408:	4b4e      	ldr	r3, [pc, #312]	(10544 <.text+0xc544>)
   1040a:	fa7df002 	bl	12908 <____subdf3_from_thumb>
   1040e:	4a4e      	ldr	r2, [pc, #312]	(10548 <.text+0xc548>)
   10410:	4b4e      	ldr	r3, [pc, #312]	(1054c <.text+0xc54c>)
   10412:	900e      	str	r0, [sp, #56]
   10414:	910f      	str	r1, [sp, #60]
   10416:	fa77f002 	bl	12908 <____subdf3_from_thumb>
   1041a:	4643      	mov	r3, r8
   1041c:	1c0e      	mov	r6, r1		(add r6, r1, #0)
   1041e:	1c05      	mov	r5, r0		(add r5, r0, #0)
   10420:	6018      	str	r0, [r3, #0]
   10422:	6059      	str	r1, [r3, #4]
   10424:	1c33      	mov	r3, r6		(add r3, r6, #0)
   10426:	1c2a      	mov	r2, r5		(add r2, r5, #0)
   10428:	980e      	ldr	r0, [sp, #56]
   1042a:	990f      	ldr	r1, [sp, #60]
   1042c:	fa6cf002 	bl	12908 <____subdf3_from_thumb>
   10430:	4a45      	ldr	r2, [pc, #276]	(10548 <.text+0xc548>)
   10432:	4b46      	ldr	r3, [pc, #280]	(1054c <.text+0xc54c>)
   10434:	fa68f002 	bl	12908 <____subdf3_from_thumb>
   10438:	4644      	mov	r4, r8
   1043a:	60a0      	str	r0, [r4, #8]
   1043c:	60e1      	str	r1, [r4, #12]
   1043e:	2001      	mov	r0, #1
   10440:	e6d7      	b	101f2 <__ieee754_rem_pio2+0x2e>
   10442:	9b0e      	ldr	r3, [sp, #56]
   10444:	9c0f      	ldr	r4, [sp, #60]
   10446:	1c0a      	mov	r2, r1		(add r2, r1, #0)
   10448:	1c01      	mov	r1, r0		(add r1, r0, #0)
   1044a:	1c14      	mov	r4, r2		(add r4, r2, #0)
   1044c:	930e      	str	r3, [sp, #56]
   1044e:	940f      	str	r4, [sp, #60]
   10450:	4c43      	ldr	r4, [pc, #268]	(10560 <.text+0xc560>)
   10452:	153b      	asr	r3, r7, #20
   10454:	18e4      	add	r4, r4, r3
   10456:	46a1      	mov	r9, r4
   10458:	4649      	mov	r1, r9
   1045a:	9b0e      	ldr	r3, [sp, #56]
   1045c:	9c0f      	ldr	r4, [sp, #60]
   1045e:	050a      	lsl	r2, r1, #20
   10460:	1abb      	sub	r3, r7, r2
   10462:	ae10      	add	r6, sp, #64
   10464:	930e      	str	r3, [sp, #56]
   10466:	940f      	str	r4, [sp, #60]
   10468:	1c35      	mov	r5, r6		(add r5, r6, #0)
   1046a:	2401      	mov	r4, #1
   1046c:	980e      	ldr	r0, [sp, #56]
   1046e:	990f      	ldr	r1, [sp, #60]
   10470:	fa5ef002 	bl	12930 <____fixdfsi_from_thumb>
   10474:	fa60f002 	bl	12938 <____floatsidf_from_thumb>
   10478:	1c0b      	mov	r3, r1		(add r3, r1, #0)
   1047a:	1c02      	mov	r2, r0		(add r2, r0, #0)
   1047c:	c503      	stmia	r5!,{r0, r1}
   1047e:	980e      	ldr	r0, [sp, #56]
   10480:	990f      	ldr	r1, [sp, #60]
   10482:	fa41f002 	bl	12908 <____subdf3_from_thumb>
   10486:	4a37      	ldr	r2, [pc, #220]	(10564 <.text+0xc564>)
   10488:	4b37      	ldr	r3, [pc, #220]	(10568 <.text+0xc568>)
   1048a:	fa39f002 	bl	12900 <____muldf3_from_thumb>
   1048e:	900e      	str	r0, [sp, #56]
   10490:	910f      	str	r1, [sp, #60]
   10492:	3c01      	sub	r4, #1
   10494:	d5ea      	bpl	1046c <__ieee754_rem_pio2+0x2a8>
   10496:	1c34      	mov	r4, r6		(add r4, r6, #0)
   10498:	9014      	str	r0, [sp, #80]
   1049a:	9115      	str	r1, [sp, #84]
   1049c:	2503      	mov	r5, #3
   1049e:	3410      	add	r4, #16
   104a0:	e000      	b	104a4 <__ieee754_rem_pio2+0x2e0>
   104a2:	3d01      	sub	r5, #1
   104a4:	6820      	ldr	r0, [r4, #0]
   104a6:	6861      	ldr	r1, [r4, #4]
   104a8:	4a16      	ldr	r2, [pc, #88]	(10504 <.text+0xc504>)
   104aa:	4b17      	ldr	r3, [pc, #92]	(10508 <.text+0xc508>)
   104ac:	3c08      	sub	r4, #8
   104ae:	fa37f002 	bl	12920 <____eqdf2_from_thumb>
   104b2:	2800      	cmp	r0, #0
   104b4:	d0f5      	beq	104a2 <__ieee754_rem_pio2+0x2de>
   104b6:	2302      	mov	r3, #2
   104b8:	9300      	str	r3, [sp, #0]
   104ba:	4b2c      	ldr	r3, [pc, #176]	(1056c <.text+0xc56c>)
   104bc:	464a      	mov	r2, r9
   104be:	9301      	str	r3, [sp, #4]
   104c0:	1c30      	mov	r0, r6		(add r0, r6, #0)
   104c2:	4641      	mov	r1, r8
   104c4:	1c2b      	mov	r3, r5		(add r3, r5, #0)
   104c6:	fab3f000 	bl	10a30 <__kernel_rem_pio2>
   104ca:	4652      	mov	r2, sl
   104cc:	4681      	mov	r9, r0
   104ce:	2a00      	cmp	r2, #0
   104d0:	da95      	bge	103fe <__ieee754_rem_pio2+0x23a>
   104d2:	4643      	mov	r3, r8
   104d4:	6819      	ldr	r1, [r3, #0]
   104d6:	685a      	ldr	r2, [r3, #4]
   104d8:	4d25      	ldr	r5, [pc, #148]	(10570 <.text+0xc570>)
   104da:	4e26      	ldr	r6, [pc, #152]	(10574 <.text+0xc574>)
   104dc:	1c0b      	mov	r3, r1		(add r3, r1, #0)
   104de:	1c14      	mov	r4, r2		(add r4, r2, #0)
   104e0:	406b      	eor	r3, r5
   104e2:	4641      	mov	r1, r8
   104e4:	600b      	str	r3, [r1, #0]
   104e6:	604c      	str	r4, [r1, #4]
   104e8:	68ca      	ldr	r2, [r1, #12]
   104ea:	6889      	ldr	r1, [r1, #8]
   104ec:	1c0b      	mov	r3, r1		(add r3, r1, #0)
   104ee:	1c14      	mov	r4, r2		(add r4, r2, #0)
   104f0:	406b      	eor	r3, r5
   104f2:	4642      	mov	r2, r8
   104f4:	4240      	neg	r0, r0
   104f6:	6093      	str	r3, [r2, #8]
   104f8:	60d4      	str	r4, [r2, #12]
   104fa:	e67a      	b	101f2 <__ieee754_rem_pio2+0x2e>
   104fc:	ffff      	second half of BL instruction 0xffff
   104fe:	7fff      	ldrb	r7, [r7, #31]
   10500:	21fb      	mov	r1, #251
   10502:	3fe9      	sub	r7, #233
	...
   1050c:	d97b      	bls	10606 <.text+0xc606>
   1050e:	4002      	and	r2, r0
   10510:	21fb      	mov	r1, #251
   10512:	3ff9      	sub	r7, #249
   10514:	0000      	lsl	r0, r0, #0
   10516:	5440      	strb	r0, [r0, r1]
   10518:	21fb      	mov	r1, #251
   1051a:	3ff9      	sub	r7, #249
   1051c:	b461      	push	{r0, r5, r6}
   1051e:	3dd0      	sub	r5, #208
   10520:	6331      	str	r1, [r6, #48]
   10522:	1a62      	sub	r2, r4, r1
   10524:	21fb      	mov	r1, #251
   10526:	4139      	asr	r1, r7
   10528:	ffff      	second half of BL instruction 0xffff
   1052a:	7fef      	ldrb	r7, [r5, #31]
   1052c:	5f30      	ldrsh	r0, [r6, r4]
   1052e:	3fe4      	sub	r7, #228
   10530:	c883      	ldmia	r0!,{r0, r1, r7}
   10532:	6dc9      	ldr	r1, [r1, #92]
   10534:	0000      	lsl	r0, r0, #0
   10536:	3fe0      	sub	r7, #224
   10538:	0000      	lsl	r0, r0, #0
   1053a:	0000      	lsl	r0, r0, #0
   1053c:	07ff      	lsl	r7, r7, #31
   1053e:	0000      	lsl	r0, r0, #0
   10540:	b461      	push	{r0, r5, r6}
   10542:	3dd0      	sub	r5, #208
   10544:	0000      	lsl	r0, r0, #0
   10546:	1a60      	sub	r0, r4, r1
   10548:	198a      	add	r2, r1, r6
   1054a:	3ba3      	sub	r3, #163
   1054c:	7073      	strb	r3, [r6, #1]
   1054e:	2e03      	cmp	r6, #3
   10550:	198a      	add	r2, r1, r6
   10552:	3ba3      	sub	r3, #163
   10554:	0000      	lsl	r0, r0, #0
   10556:	2e00      	cmp	r6, #0
   10558:	839a      	strh	r2, [r3, #28]
   1055a:	397b      	sub	r1, #123
   1055c:	49c1      	ldr	r1, [pc, #772]	(10864 <__kernel_cos+0x1c>)
   1055e:	2520      	mov	r5, #32
   10560:	fbea      	second half of BL instruction 0xfbea
   10562:	ffff      	second half of BL instruction 0xffff
   10564:	0000      	lsl	r0, r0, #0
   10566:	4170      	adc	r0, r6
   10568:	0000      	lsl	r0, r0, #0
   1056a:	0000      	lsl	r0, r0, #0
   1056c:	29fc      	cmp	r1, #252
   1056e:	0001      	lsl	r1, r0, #0
   10570:	0000      	lsl	r0, r0, #0
   10572:	8000      	strh	r0, [r0, #0]
   10574:	0000      	lsl	r0, r0, #0
   10576:	0000      	lsl	r0, r0, #0
   10578:	4a2e      	ldr	r2, [pc, #184]	(10634 <.text+0xc634>)
   1057a:	008b      	lsl	r3, r1, #2
   1057c:	189b      	add	r3, r3, r2
   1057e:	3b04      	sub	r3, #4
   10580:	681b      	ldr	r3, [r3, #0]
   10582:	42bb      	cmp	r3, r7
   10584:	d000      	beq	10588 <.text+0xc588>
   10586:	e71b      	b	103c0 <__ieee754_rem_pio2+0x1fc>
   10588:	e6a1      	b	102ce <__ieee754_rem_pio2+0x10a>
   1058a:	492b      	ldr	r1, [pc, #172]	(10638 <.text+0xc638>)
   1058c:	4a2b      	ldr	r2, [pc, #172]	(1063c <.text+0xc63c>)
   1058e:	1c2b      	mov	r3, r5		(add r3, r5, #0)
   10590:	404b      	eor	r3, r1
   10592:	1c34      	mov	r4, r6		(add r4, r6, #0)
   10594:	1c26      	mov	r6, r4		(add r6, r4, #0)
   10596:	1c1d      	mov	r5, r3		(add r5, r3, #0)
   10598:	4643      	mov	r3, r8
   1059a:	601d      	str	r5, [r3, #0]
   1059c:	605e      	str	r6, [r3, #4]
   1059e:	9b02      	ldr	r3, [sp, #8]
   105a0:	9c03      	ldr	r4, [sp, #12]
   105a2:	464a      	mov	r2, r9
   105a4:	404b      	eor	r3, r1
   105a6:	4250      	neg	r0, r2
   105a8:	4641      	mov	r1, r8
   105aa:	608b      	str	r3, [r1, #8]
   105ac:	60cc      	str	r4, [r1, #12]
   105ae:	e620      	b	101f2 <__ieee754_rem_pio2+0x2e>
   105b0:	4a23      	ldr	r2, [pc, #140]	(10640 <.text+0xc640>)
   105b2:	4b24      	ldr	r3, [pc, #144]	(10644 <.text+0xc644>)
   105b4:	f9a0f002 	bl	128f8 <____adddf3_from_thumb>
   105b8:	4b23      	ldr	r3, [pc, #140]	(10648 <.text+0xc648>)
   105ba:	900e      	str	r0, [sp, #56]
   105bc:	910f      	str	r1, [sp, #60]
   105be:	429f      	cmp	r7, r3
   105c0:	d018      	beq	105f4 <.text+0xc5f4>
   105c2:	4a22      	ldr	r2, [pc, #136]	(1064c <.text+0xc64c>)
   105c4:	4b22      	ldr	r3, [pc, #136]	(10650 <.text+0xc650>)
   105c6:	f997f002 	bl	128f8 <____adddf3_from_thumb>
   105ca:	1c0e      	mov	r6, r1		(add r6, r1, #0)
   105cc:	1c05      	mov	r5, r0		(add r5, r0, #0)
   105ce:	4641      	mov	r1, r8
   105d0:	600d      	str	r5, [r1, #0]
   105d2:	604e      	str	r6, [r1, #4]
   105d4:	1c33      	mov	r3, r6		(add r3, r6, #0)
   105d6:	1c2a      	mov	r2, r5		(add r2, r5, #0)
   105d8:	980e      	ldr	r0, [sp, #56]
   105da:	990f      	ldr	r1, [sp, #60]
   105dc:	f994f002 	bl	12908 <____subdf3_from_thumb>
   105e0:	4a1a      	ldr	r2, [pc, #104]	(1064c <.text+0xc64c>)
   105e2:	4b1b      	ldr	r3, [pc, #108]	(10650 <.text+0xc650>)
   105e4:	f988f002 	bl	128f8 <____adddf3_from_thumb>
   105e8:	4642      	mov	r2, r8
   105ea:	6090      	str	r0, [r2, #8]
   105ec:	60d1      	str	r1, [r2, #12]
   105ee:	2001      	mov	r0, #1
   105f0:	4240      	neg	r0, r0
   105f2:	e5fe      	b	101f2 <__ieee754_rem_pio2+0x2e>
   105f4:	980e      	ldr	r0, [sp, #56]
   105f6:	990f      	ldr	r1, [sp, #60]
   105f8:	4a16      	ldr	r2, [pc, #88]	(10654 <.text+0xc654>)
   105fa:	4b17      	ldr	r3, [pc, #92]	(10658 <.text+0xc658>)
   105fc:	f97cf002 	bl	128f8 <____adddf3_from_thumb>
   10600:	4a16      	ldr	r2, [pc, #88]	(1065c <.text+0xc65c>)
   10602:	4b17      	ldr	r3, [pc, #92]	(10660 <.text+0xc660>)
   10604:	900e      	str	r0, [sp, #56]
   10606:	910f      	str	r1, [sp, #60]
   10608:	f976f002 	bl	128f8 <____adddf3_from_thumb>
   1060c:	4643      	mov	r3, r8
   1060e:	1c0e      	mov	r6, r1		(add r6, r1, #0)
   10610:	1c05      	mov	r5, r0		(add r5, r0, #0)
   10612:	6018      	str	r0, [r3, #0]
   10614:	6059      	str	r1, [r3, #4]
   10616:	1c33      	mov	r3, r6		(add r3, r6, #0)
   10618:	1c2a      	mov	r2, r5		(add r2, r5, #0)
   1061a:	980e      	ldr	r0, [sp, #56]
   1061c:	990f      	ldr	r1, [sp, #60]
   1061e:	f973f002 	bl	12908 <____subdf3_from_thumb>
   10622:	4a0e      	ldr	r2, [pc, #56]	(1065c <.text+0xc65c>)
   10624:	4b0e      	ldr	r3, [pc, #56]	(10660 <.text+0xc660>)
   10626:	f967f002 	bl	128f8 <____adddf3_from_thumb>
   1062a:	4644      	mov	r4, r8
   1062c:	60a0      	str	r0, [r4, #8]
   1062e:	60e1      	str	r1, [r4, #12]
   10630:	2001      	mov	r0, #1
   10632:	e7dd      	b	105f0 <.text+0xc5f0>
   10634:	2b04      	cmp	r3, #4
   10636:	0001      	lsl	r1, r0, #0
   10638:	0000      	lsl	r0, r0, #0
   1063a:	8000      	strh	r0, [r0, #0]
   1063c:	0000      	lsl	r0, r0, #0
   1063e:	0000      	lsl	r0, r0, #0
   10640:	21fb      	mov	r1, #251
   10642:	3ff9      	sub	r7, #249
   10644:	0000      	lsl	r0, r0, #0
   10646:	5440      	strb	r0, [r0, r1]
   10648:	21fb      	mov	r1, #251
   1064a:	3ff9      	sub	r7, #249
   1064c:	b461      	push	{r0, r5, r6}
   1064e:	3dd0      	sub	r5, #208
   10650:	6331      	str	r1, [r6, #48]
   10652:	1a62      	sub	r2, r4, r1
   10654:	b461      	push	{r0, r5, r6}
   10656:	3dd0      	sub	r5, #208
   10658:	0000      	lsl	r0, r0, #0
   1065a:	1a60      	sub	r0, r4, r1
   1065c:	198a      	add	r2, r1, r6
   1065e:	3ba3      	sub	r3, #163
   10660:	7073      	strb	r3, [r6, #1]
   10662:	2e03      	cmp	r6, #3

00010664 <__ieee754_sqrt>:
   10664:	b5f0      	push	{r4, r5, r6, r7, lr}
   10666:	465f      	mov	r7, fp
   10668:	4656      	mov	r6, sl
   1066a:	464d      	mov	r5, r9
   1066c:	4644      	mov	r4, r8
   1066e:	b4f0      	push	{r4, r5, r6, r7}
   10670:	2200      	mov	r2, #0
   10672:	2300      	mov	r3, #0
   10674:	b082      	sub	sp, #8
   10676:	9200      	str	r2, [sp, #0]
   10678:	9301      	str	r3, [sp, #4]
   1067a:	2380      	mov	r3, #128
   1067c:	061c      	lsl	r4, r3, #24
   1067e:	4a6d      	ldr	r2, [pc, #436]	(10834 <.text+0xc834>)
   10680:	46a4      	mov	ip, r4
   10682:	1c0c      	mov	r4, r1		(add r4, r1, #0)
   10684:	1c03      	mov	r3, r0		(add r3, r0, #0)
   10686:	1c03      	mov	r3, r0		(add r3, r0, #0)
   10688:	4013      	and	r3, r2
   1068a:	1c0f      	mov	r7, r1		(add r7, r1, #0)
   1068c:	1c06      	mov	r6, r0		(add r6, r0, #0)
   1068e:	1c25      	mov	r5, r4		(add r5, r4, #0)
   10690:	1c01      	mov	r1, r0		(add r1, r0, #0)
   10692:	4293      	cmp	r3, r2
   10694:	d100      	bne	10698 <__ieee754_sqrt+0x34>
   10696:	e095      	b	107c4 <__ieee754_sqrt+0x160>
   10698:	2800      	cmp	r0, #0
   1069a:	dc00      	bgt	1069e <__ieee754_sqrt+0x3a>
   1069c:	e0af      	b	107fe <__ieee754_sqrt+0x19a>
   1069e:	150f      	asr	r7, r1, #20
   106a0:	46bb      	mov	fp, r7
   106a2:	2f00      	cmp	r7, #0
   106a4:	d072      	beq	1078c <__ieee754_sqrt+0x128>
   106a6:	4b64      	ldr	r3, [pc, #400]	(10838 <.text+0xc838>)
   106a8:	4864      	ldr	r0, [pc, #400]	(1083c <.text+0xc83c>)
   106aa:	4019      	and	r1, r3
   106ac:	4483      	add	fp, r0
   106ae:	2380      	mov	r3, #128
   106b0:	035b      	lsl	r3, r3, #13
   106b2:	465a      	mov	r2, fp
   106b4:	4319      	orr	r1, r3
   106b6:	07d2      	lsl	r2, r2, #31
   106b8:	d505      	bpl	106c6 <__ieee754_sqrt+0x62>
   106ba:	4663      	mov	r3, ip
   106bc:	402b      	and	r3, r5
   106be:	0fdb      	lsr	r3, r3, #31
   106c0:	185b      	add	r3, r3, r1
   106c2:	18c9      	add	r1, r1, r3
   106c4:	006d      	lsl	r5, r5, #1
   106c6:	465b      	mov	r3, fp
   106c8:	105b      	asr	r3, r3, #1
   106ca:	469b      	mov	fp, r3
   106cc:	4663      	mov	r3, ip
   106ce:	402b      	and	r3, r5
   106d0:	0fdb      	lsr	r3, r3, #31
   106d2:	2600      	mov	r6, #0
   106d4:	185b      	add	r3, r3, r1
   106d6:	2400      	mov	r4, #0
   106d8:	2080      	mov	r0, #128
   106da:	18c9      	add	r1, r1, r3
   106dc:	006d      	lsl	r5, r5, #1
   106de:	46a0      	mov	r8, r4
   106e0:	46b2      	mov	sl, r6
   106e2:	46b1      	mov	r9, r6
   106e4:	0380      	lsl	r0, r0, #14
   106e6:	1832      	add	r2, r6, r0
   106e8:	428a      	cmp	r2, r1
   106ea:	dc02      	bgt	106f2 <__ieee754_sqrt+0x8e>
   106ec:	1816      	add	r6, r2, r0
   106ee:	1a89      	sub	r1, r1, r2
   106f0:	4481      	add	r9, r0
   106f2:	4663      	mov	r3, ip
   106f4:	402b      	and	r3, r5
   106f6:	0fdb      	lsr	r3, r3, #31
   106f8:	185b      	add	r3, r3, r1
   106fa:	0840      	lsr	r0, r0, #1
   106fc:	18c9      	add	r1, r1, r3
   106fe:	006d      	lsl	r5, r5, #1
   10700:	2800      	cmp	r0, #0
   10702:	d1f0      	bne	106e6 <__ieee754_sqrt+0x82>
   10704:	2080      	mov	r0, #128
   10706:	0600      	lsl	r0, r0, #24
   10708:	e00b      	b	10722 <__ieee754_sqrt+0xbe>
   1070a:	428e      	cmp	r6, r1
   1070c:	d100      	bne	10710 <__ieee754_sqrt+0xac>
   1070e:	e072      	b	107f6 <__ieee754_sqrt+0x192>
   10710:	4663      	mov	r3, ip
   10712:	402b      	and	r3, r5
   10714:	0fdb      	lsr	r3, r3, #31
   10716:	185b      	add	r3, r3, r1
   10718:	0840      	lsr	r0, r0, #1
   1071a:	18c9      	add	r1, r1, r3
   1071c:	006d      	lsl	r5, r5, #1
   1071e:	2800      	cmp	r0, #0
   10720:	d019      	beq	10756 <__ieee754_sqrt+0xf2>
   10722:	4647      	mov	r7, r8
   10724:	183c      	add	r4, r7, r0
   10726:	1c32      	mov	r2, r6		(add r2, r6, #0)
   10728:	428e      	cmp	r6, r1
   1072a:	daee      	bge	1070a <__ieee754_sqrt+0xa6>
   1072c:	1823      	add	r3, r4, r0
   1072e:	4698      	mov	r8, r3
   10730:	4663      	mov	r3, ip
   10732:	4023      	and	r3, r4
   10734:	4563      	cmp	r3, ip
   10736:	d058      	beq	107ea <__ieee754_sqrt+0x186>
   10738:	1a89      	sub	r1, r1, r2
   1073a:	42a5      	cmp	r5, r4
   1073c:	d200      	bcs	10740 <__ieee754_sqrt+0xdc>
   1073e:	3901      	sub	r1, #1
   10740:	1b2d      	sub	r5, r5, r4
   10742:	4663      	mov	r3, ip
   10744:	402b      	and	r3, r5
   10746:	0fdb      	lsr	r3, r3, #31
   10748:	4482      	add	sl, r0
   1074a:	185b      	add	r3, r3, r1
   1074c:	0840      	lsr	r0, r0, #1
   1074e:	18c9      	add	r1, r1, r3
   10750:	006d      	lsl	r5, r5, #1
   10752:	2800      	cmp	r0, #0
   10754:	d1e5      	bne	10722 <__ieee754_sqrt+0xbe>
   10756:	4329      	orr	r1, r5
   10758:	d006      	beq	10768 <__ieee754_sqrt+0x104>
   1075a:	4654      	mov	r4, sl
   1075c:	3401      	add	r4, #1
   1075e:	d055      	beq	1080c <__ieee754_sqrt+0x1a8>
   10760:	4652      	mov	r2, sl
   10762:	2301      	mov	r3, #1
   10764:	4013      	and	r3, r2
   10766:	449a      	add	sl, r3
   10768:	464c      	mov	r4, r9
   1076a:	4f35      	ldr	r7, [pc, #212]	(10840 <.text+0xc840>)
   1076c:	1063      	asr	r3, r4, #1
   1076e:	4650      	mov	r0, sl
   10770:	19d9      	add	r1, r3, r7
   10772:	0845      	lsr	r5, r0, #1
   10774:	07e4      	lsl	r4, r4, #31
   10776:	d501      	bpl	1077c <__ieee754_sqrt+0x118>
   10778:	4662      	mov	r2, ip
   1077a:	4315      	orr	r5, r2
   1077c:	465c      	mov	r4, fp
   1077e:	0523      	lsl	r3, r4, #20
   10780:	18c9      	add	r1, r1, r3
   10782:	9100      	str	r1, [sp, #0]
   10784:	9501      	str	r5, [sp, #4]
   10786:	9800      	ldr	r0, [sp, #0]
   10788:	9901      	ldr	r1, [sp, #4]
   1078a:	e025      	b	107d8 <__ieee754_sqrt+0x174>
   1078c:	2900      	cmp	r1, #0
   1078e:	d106      	bne	1079e <__ieee754_sqrt+0x13a>
   10790:	2015      	mov	r0, #21
   10792:	4240      	neg	r0, r0
   10794:	0aeb      	lsr	r3, r5, #11
   10796:	4483      	add	fp, r0
   10798:	056d      	lsl	r5, r5, #21
   1079a:	4319      	orr	r1, r3
   1079c:	d0f8      	beq	10790 <__ieee754_sqrt+0x12c>
   1079e:	2380      	mov	r3, #128
   107a0:	2200      	mov	r2, #0
   107a2:	035b      	lsl	r3, r3, #13
   107a4:	e001      	b	107aa <__ieee754_sqrt+0x146>
   107a6:	0049      	lsl	r1, r1, #1
   107a8:	3201      	add	r2, #1
   107aa:	4219      	tst	r1, r3
   107ac:	d0fb      	beq	107a6 <__ieee754_sqrt+0x142>
   107ae:	465c      	mov	r4, fp
   107b0:	1aa3      	sub	r3, r4, r2
   107b2:	3301      	add	r3, #1
   107b4:	469b      	mov	fp, r3
   107b6:	2320      	mov	r3, #32
   107b8:	1c2f      	mov	r7, r5		(add r7, r5, #0)
   107ba:	1a9b      	sub	r3, r3, r2
   107bc:	40df      	lsr	r7, r3
   107be:	4339      	orr	r1, r7
   107c0:	4095      	lsl	r5, r2
   107c2:	e770      	b	106a6 <__ieee754_sqrt+0x42>
   107c4:	1c3b      	mov	r3, r7		(add r3, r7, #0)
   107c6:	1c32      	mov	r2, r6		(add r2, r6, #0)
   107c8:	1c39      	mov	r1, r7		(add r1, r7, #0)
   107ca:	1c30      	mov	r0, r6		(add r0, r6, #0)
   107cc:	f898f002 	bl	12900 <____muldf3_from_thumb>
   107d0:	1c3b      	mov	r3, r7		(add r3, r7, #0)
   107d2:	1c32      	mov	r2, r6		(add r2, r6, #0)
   107d4:	f890f002 	bl	128f8 <____adddf3_from_thumb>
   107d8:	b002      	add	sp, #8
   107da:	bc78      	pop	{r3, r4, r5, r6}
   107dc:	4698      	mov	r8, r3
   107de:	46a1      	mov	r9, r4
   107e0:	46aa      	mov	sl, r5
   107e2:	46b3      	mov	fp, r6
   107e4:	bcf0      	pop	{r4, r5, r6, r7}
   107e6:	bc04      	pop	{r2}
   107e8:	4710      	bx	r2
   107ea:	4647      	mov	r7, r8
   107ec:	4663      	mov	r3, ip
   107ee:	421f      	tst	r7, r3
   107f0:	d1a2      	bne	10738 <__ieee754_sqrt+0xd4>
   107f2:	1c56      	add	r6, r2, #1
   107f4:	e7a0      	b	10738 <__ieee754_sqrt+0xd4>
   107f6:	42ac      	cmp	r4, r5
   107f8:	d900      	bls	107fc <__ieee754_sqrt+0x198>
   107fa:	e789      	b	10710 <__ieee754_sqrt+0xac>
   107fc:	e796      	b	1072c <__ieee754_sqrt+0xc8>
   107fe:	4b11      	ldr	r3, [pc, #68]	(10844 <.text+0xc844>)
   10800:	4003      	and	r3, r0
   10802:	4323      	orr	r3, r4
   10804:	d107      	bne	10816 <__ieee754_sqrt+0x1b2>
   10806:	1c39      	mov	r1, r7		(add r1, r7, #0)
   10808:	1c30      	mov	r0, r6		(add r0, r6, #0)
   1080a:	e7e5      	b	107d8 <__ieee754_sqrt+0x174>
   1080c:	2700      	mov	r7, #0
   1080e:	2001      	mov	r0, #1
   10810:	46ba      	mov	sl, r7
   10812:	4481      	add	r9, r0
   10814:	e7a8      	b	10768 <__ieee754_sqrt+0x104>
   10816:	2800      	cmp	r0, #0
   10818:	db00      	blt	1081c <__ieee754_sqrt+0x1b8>
   1081a:	e740      	b	1069e <__ieee754_sqrt+0x3a>
   1081c:	1c3b      	mov	r3, r7		(add r3, r7, #0)
   1081e:	1c32      	mov	r2, r6		(add r2, r6, #0)
   10820:	1c39      	mov	r1, r7		(add r1, r7, #0)
   10822:	1c30      	mov	r0, r6		(add r0, r6, #0)
   10824:	f870f002 	bl	12908 <____subdf3_from_thumb>
   10828:	1c0b      	mov	r3, r1		(add r3, r1, #0)
   1082a:	1c02      	mov	r2, r0		(add r2, r0, #0)
   1082c:	f874f002 	bl	12918 <____divdf3_from_thumb>
   10830:	e7d2      	b	107d8 <__ieee754_sqrt+0x174>
   10832:	0000      	lsl	r0, r0, #0
   10834:	0000      	lsl	r0, r0, #0
   10836:	7ff0      	ldrb	r0, [r6, #31]
   10838:	ffff      	second half of BL instruction 0xffff
   1083a:	000f      	lsl	r7, r1, #0
   1083c:	fc01      	second half of BL instruction 0xfc01
   1083e:	ffff      	second half of BL instruction 0xffff
   10840:	0000      	lsl	r0, r0, #0
   10842:	3fe0      	sub	r7, #224
   10844:	ffff      	second half of BL instruction 0xffff
   10846:	7fff      	ldrb	r7, [r7, #31]

00010848 <__kernel_cos>:
   10848:	b5f0      	push	{r4, r5, r6, r7, lr}
   1084a:	4647      	mov	r7, r8
   1084c:	b480      	push	{r7}
   1084e:	b08e      	sub	sp, #56
   10850:	2400      	mov	r4, #0
   10852:	2500      	mov	r5, #0
   10854:	9404      	str	r4, [sp, #16]
   10856:	9505      	str	r5, [sp, #20]
   10858:	4d5e      	ldr	r5, [pc, #376]	(109d4 <.text+0xc9d4>)
   1085a:	920c      	str	r2, [sp, #48]
   1085c:	930d      	str	r3, [sp, #52]
   1085e:	1c2a      	mov	r2, r5		(add r2, r5, #0)
   10860:	4002      	and	r2, r0
   10862:	4b5d      	ldr	r3, [pc, #372]	(109d8 <.text+0xc9d8>)
   10864:	4690      	mov	r8, r2
   10866:	1c0f      	mov	r7, r1		(add r7, r1, #0)
   10868:	1c06      	mov	r6, r0		(add r6, r0, #0)
   1086a:	4598      	cmp	r8, r3
   1086c:	dc04      	bgt	10878 <__kernel_cos+0x30>
   1086e:	f85ff002 	bl	12930 <____fixdfsi_from_thumb>
   10872:	2800      	cmp	r0, #0
   10874:	d100      	bne	10878 <__kernel_cos+0x30>
   10876:	e0a9      	b	109cc <__kernel_cos+0x184>
   10878:	1c3b      	mov	r3, r7		(add r3, r7, #0)
   1087a:	1c32      	mov	r2, r6		(add r2, r6, #0)
   1087c:	1c39      	mov	r1, r7		(add r1, r7, #0)
   1087e:	1c30      	mov	r0, r6		(add r0, r6, #0)
   10880:	f83ef002 	bl	12900 <____muldf3_from_thumb>
   10884:	4a55      	ldr	r2, [pc, #340]	(109dc <.text+0xc9dc>)
   10886:	4b56      	ldr	r3, [pc, #344]	(109e0 <.text+0xc9e0>)
   10888:	1c0d      	mov	r5, r1		(add r5, r1, #0)
   1088a:	1c04      	mov	r4, r0		(add r4, r0, #0)
   1088c:	f838f002 	bl	12900 <____muldf3_from_thumb>
   10890:	4a54      	ldr	r2, [pc, #336]	(109e4 <.text+0xc9e4>)
   10892:	4b55      	ldr	r3, [pc, #340]	(109e8 <.text+0xc9e8>)
   10894:	f830f002 	bl	128f8 <____adddf3_from_thumb>
   10898:	1c2b      	mov	r3, r5		(add r3, r5, #0)
   1089a:	1c22      	mov	r2, r4		(add r2, r4, #0)
   1089c:	f830f002 	bl	12900 <____muldf3_from_thumb>
   108a0:	4a52      	ldr	r2, [pc, #328]	(109ec <.text+0xc9ec>)
   108a2:	4b53      	ldr	r3, [pc, #332]	(109f0 <.text+0xc9f0>)
   108a4:	f828f002 	bl	128f8 <____adddf3_from_thumb>
   108a8:	1c2b      	mov	r3, r5		(add r3, r5, #0)
   108aa:	1c22      	mov	r2, r4		(add r2, r4, #0)
   108ac:	f828f002 	bl	12900 <____muldf3_from_thumb>
   108b0:	4a50      	ldr	r2, [pc, #320]	(109f4 <.text+0xc9f4>)
   108b2:	4b51      	ldr	r3, [pc, #324]	(109f8 <.text+0xc9f8>)
   108b4:	f820f002 	bl	128f8 <____adddf3_from_thumb>
   108b8:	1c2b      	mov	r3, r5		(add r3, r5, #0)
   108ba:	1c22      	mov	r2, r4		(add r2, r4, #0)
   108bc:	f820f002 	bl	12900 <____muldf3_from_thumb>
   108c0:	4a4e      	ldr	r2, [pc, #312]	(109fc <.text+0xc9fc>)
   108c2:	4b4f      	ldr	r3, [pc, #316]	(10a00 <.text+0xca00>)
   108c4:	f818f002 	bl	128f8 <____adddf3_from_thumb>
   108c8:	1c2b      	mov	r3, r5		(add r3, r5, #0)
   108ca:	1c22      	mov	r2, r4		(add r2, r4, #0)
   108cc:	f818f002 	bl	12900 <____muldf3_from_thumb>
   108d0:	4a4c      	ldr	r2, [pc, #304]	(10a04 <.text+0xca04>)
   108d2:	4b4d      	ldr	r3, [pc, #308]	(10a08 <.text+0xca08>)
   108d4:	f810f002 	bl	128f8 <____adddf3_from_thumb>
   108d8:	1c2b      	mov	r3, r5		(add r3, r5, #0)
   108da:	1c22      	mov	r2, r4		(add r2, r4, #0)
   108dc:	f810f002 	bl	12900 <____muldf3_from_thumb>
   108e0:	4b4a      	ldr	r3, [pc, #296]	(10a0c <.text+0xca0c>)
   108e2:	900a      	str	r0, [sp, #40]
   108e4:	910b      	str	r1, [sp, #44]
   108e6:	4598      	cmp	r8, r3
   108e8:	dd41      	ble	1096e <__kernel_cos+0x126>
   108ea:	4b49      	ldr	r3, [pc, #292]	(10a10 <.text+0xca10>)
   108ec:	4598      	cmp	r8, r3
   108ee:	dc00      	bgt	108f2 <__kernel_cos+0xaa>
   108f0:	e064      	b	109bc <__kernel_cos+0x174>
   108f2:	4a48      	ldr	r2, [pc, #288]	(10a14 <.text+0xca14>)
   108f4:	4b48      	ldr	r3, [pc, #288]	(10a18 <.text+0xca18>)
   108f6:	9208      	str	r2, [sp, #32]
   108f8:	9309      	str	r3, [sp, #36]
   108fa:	1c29      	mov	r1, r5		(add r1, r5, #0)
   108fc:	1c20      	mov	r0, r4		(add r0, r4, #0)
   108fe:	4a47      	ldr	r2, [pc, #284]	(10a1c <.text+0xca1c>)
   10900:	4b47      	ldr	r3, [pc, #284]	(10a20 <.text+0xca20>)
   10902:	fffdf001 	bl	12900 <____muldf3_from_thumb>
   10906:	9a08      	ldr	r2, [sp, #32]
   10908:	9b09      	ldr	r3, [sp, #36]
   1090a:	fffdf001 	bl	12908 <____subdf3_from_thumb>
   1090e:	9a08      	ldr	r2, [sp, #32]
   10910:	9b09      	ldr	r3, [sp, #36]
   10912:	9002      	str	r0, [sp, #8]
   10914:	9103      	str	r1, [sp, #12]
   10916:	4843      	ldr	r0, [pc, #268]	(10a24 <.text+0xca24>)
   10918:	4943      	ldr	r1, [pc, #268]	(10a28 <.text+0xca28>)
   1091a:	fff5f001 	bl	12908 <____subdf3_from_thumb>
   1091e:	9a0a      	ldr	r2, [sp, #40]
   10920:	9b0b      	ldr	r3, [sp, #44]
   10922:	9000      	str	r0, [sp, #0]
   10924:	9101      	str	r1, [sp, #4]
   10926:	1c29      	mov	r1, r5		(add r1, r5, #0)
   10928:	1c20      	mov	r0, r4		(add r0, r4, #0)
   1092a:	ffe9f001 	bl	12900 <____muldf3_from_thumb>
   1092e:	9a0c      	ldr	r2, [sp, #48]
   10930:	9b0d      	ldr	r3, [sp, #52]
   10932:	1c0d      	mov	r5, r1		(add r5, r1, #0)
   10934:	1c04      	mov	r4, r0		(add r4, r0, #0)
   10936:	1c39      	mov	r1, r7		(add r1, r7, #0)
   10938:	1c30      	mov	r0, r6		(add r0, r6, #0)
   1093a:	ffe1f001 	bl	12900 <____muldf3_from_thumb>
   1093e:	1c0b      	mov	r3, r1		(add r3, r1, #0)
   10940:	1c02      	mov	r2, r0		(add r2, r0, #0)
   10942:	1c29      	mov	r1, r5		(add r1, r5, #0)
   10944:	1c20      	mov	r0, r4		(add r0, r4, #0)
   10946:	ffdff001 	bl	12908 <____subdf3_from_thumb>
   1094a:	1c0b      	mov	r3, r1		(add r3, r1, #0)
   1094c:	1c02      	mov	r2, r0		(add r2, r0, #0)
   1094e:	9802      	ldr	r0, [sp, #8]
   10950:	9903      	ldr	r1, [sp, #12]
   10952:	ffd9f001 	bl	12908 <____subdf3_from_thumb>
   10956:	1c0b      	mov	r3, r1		(add r3, r1, #0)
   10958:	1c02      	mov	r2, r0		(add r2, r0, #0)
   1095a:	9800      	ldr	r0, [sp, #0]
   1095c:	9901      	ldr	r1, [sp, #4]
   1095e:	ffd3f001 	bl	12908 <____subdf3_from_thumb>
   10962:	b00e      	add	sp, #56
   10964:	bc08      	pop	{r3}
   10966:	4698      	mov	r8, r3
   10968:	bcf0      	pop	{r4, r5, r6, r7}
   1096a:	bc04      	pop	{r2}
   1096c:	4710      	bx	r2
   1096e:	1c29      	mov	r1, r5		(add r1, r5, #0)
   10970:	1c20      	mov	r0, r4		(add r0, r4, #0)
   10972:	4a2a      	ldr	r2, [pc, #168]	(10a1c <.text+0xca1c>)
   10974:	4b2a      	ldr	r3, [pc, #168]	(10a20 <.text+0xca20>)
   10976:	ffc3f001 	bl	12900 <____muldf3_from_thumb>
   1097a:	9a0a      	ldr	r2, [sp, #40]
   1097c:	9b0b      	ldr	r3, [sp, #44]
   1097e:	9006      	str	r0, [sp, #24]
   10980:	9107      	str	r1, [sp, #28]
   10982:	1c29      	mov	r1, r5		(add r1, r5, #0)
   10984:	1c20      	mov	r0, r4		(add r0, r4, #0)
   10986:	ffbbf001 	bl	12900 <____muldf3_from_thumb>
   1098a:	9a0c      	ldr	r2, [sp, #48]
   1098c:	9b0d      	ldr	r3, [sp, #52]
   1098e:	1c0d      	mov	r5, r1		(add r5, r1, #0)
   10990:	1c04      	mov	r4, r0		(add r4, r0, #0)
   10992:	1c39      	mov	r1, r7		(add r1, r7, #0)
   10994:	1c30      	mov	r0, r6		(add r0, r6, #0)
   10996:	ffb3f001 	bl	12900 <____muldf3_from_thumb>
   1099a:	1c0b      	mov	r3, r1		(add r3, r1, #0)
   1099c:	1c02      	mov	r2, r0		(add r2, r0, #0)
   1099e:	1c29      	mov	r1, r5		(add r1, r5, #0)
   109a0:	1c20      	mov	r0, r4		(add r0, r4, #0)
   109a2:	ffb1f001 	bl	12908 <____subdf3_from_thumb>
   109a6:	1c0b      	mov	r3, r1		(add r3, r1, #0)
   109a8:	1c02      	mov	r2, r0		(add r2, r0, #0)
   109aa:	9806      	ldr	r0, [sp, #24]
   109ac:	9907      	ldr	r1, [sp, #28]
   109ae:	ffabf001 	bl	12908 <____subdf3_from_thumb>
   109b2:	1c0b      	mov	r3, r1		(add r3, r1, #0)
   109b4:	1c02      	mov	r2, r0		(add r2, r0, #0)
   109b6:	481b      	ldr	r0, [pc, #108]	(10a24 <.text+0xca24>)
   109b8:	491b      	ldr	r1, [pc, #108]	(10a28 <.text+0xca28>)
   109ba:	e7d0      	b	1095e <__kernel_cos+0x116>
   109bc:	4b1b      	ldr	r3, [pc, #108]	(10a2c <.text+0xca2c>)
   109be:	2200      	mov	r2, #0
   109c0:	4443      	add	r3, r8
   109c2:	9304      	str	r3, [sp, #16]
   109c4:	9205      	str	r2, [sp, #20]
   109c6:	9a04      	ldr	r2, [sp, #16]
   109c8:	9b05      	ldr	r3, [sp, #20]
   109ca:	e794      	b	108f6 <__kernel_cos+0xae>
   109cc:	4815      	ldr	r0, [pc, #84]	(10a24 <.text+0xca24>)
   109ce:	4916      	ldr	r1, [pc, #88]	(10a28 <.text+0xca28>)
   109d0:	e7c7      	b	10962 <__kernel_cos+0x11a>
   109d2:	0000      	lsl	r0, r0, #0
   109d4:	ffff      	second half of BL instruction 0xffff
   109d6:	7fff      	ldrb	r7, [r7, #31]
   109d8:	ffff      	second half of BL instruction 0xffff
   109da:	3e3f      	sub	r6, #63
   109dc:	fae9      	second half of BL instruction 0xfae9
   109de:	bda8      	pop	{r3, r5, r7, pc}
   109e0:	38d4      	sub	r0, #212
   109e2:	be88      	bkpt	0x0088
   109e4:	ee9e      	undefined
   109e6:	3e21      	sub	r6, #33
   109e8:	b1c4      	undefined instruction 0xb1c4
   109ea:	bdb4      	pop	{r2, r4, r5, r7, pc}
   109ec:	7e4f      	ldrb	r7, [r1, #25]
   109ee:	be92      	bkpt	0x0092
   109f0:	52ad      	strh	r5, [r5, r2]
   109f2:	809c      	strh	r4, [r3, #4]
   109f4:	01a0      	lsl	r0, r4, #6
   109f6:	3efa      	sub	r6, #250
   109f8:	1590      	asr	r0, r2, #22
   109fa:	19cb      	add	r3, r1, r7
   109fc:	c16c      	stmia	r1!,{r2, r3, r5, r6}
   109fe:	bf56      	undefined instruction 0xbf56
   10a00:	5177      	str	r7, [r6, r5]
   10a02:	16c1      	asr	r1, r0, #27
   10a04:	5555      	strb	r5, [r2, r5]
   10a06:	3fa5      	sub	r7, #165
   10a08:	554c      	strb	r4, [r1, r5]
   10a0a:	5555      	strb	r5, [r2, r5]
   10a0c:	3332      	add	r3, #50
   10a0e:	3fd3      	sub	r7, #211
   10a10:	0000      	lsl	r0, r0, #0
   10a12:	3fe9      	sub	r7, #233
   10a14:	0000      	lsl	r0, r0, #0
   10a16:	3fd2      	sub	r7, #210
   10a18:	0000      	lsl	r0, r0, #0
   10a1a:	0000      	lsl	r0, r0, #0
   10a1c:	0000      	lsl	r0, r0, #0
   10a1e:	3fe0      	sub	r7, #224
   10a20:	0000      	lsl	r0, r0, #0
   10a22:	0000      	lsl	r0, r0, #0
   10a24:	0000      	lsl	r0, r0, #0
   10a26:	3ff0      	sub	r7, #240
   10a28:	0000      	lsl	r0, r0, #0
   10a2a:	0000      	lsl	r0, r0, #0
   10a2c:	0000      	lsl	r0, r0, #0
   10a2e:	ffe0      	second half of BL instruction 0xffe0

00010a30 <__kernel_rem_pio2>:
   10a30:	b5f0      	push	{r4, r5, r6, r7, lr}
   10a32:	465f      	mov	r7, fp
   10a34:	4656      	mov	r6, sl
   10a36:	464d      	mov	r5, r9
   10a38:	4644      	mov	r4, r8
   10a3a:	b4f0      	push	{r4, r5, r6, r7}
   10a3c:	4cc5      	ldr	r4, [pc, #788]	(10d54 <.text+0xcd54>)
   10a3e:	44a5      	add	sp, r4
   10a40:	1c14      	mov	r4, r2		(add r4, r2, #0)
   10a42:	9a9f      	ldr	r2, [sp, #636]
   10a44:	9108      	str	r1, [sp, #32]
   10a46:	0091      	lsl	r1, r2, #2
   10a48:	4ac3      	ldr	r2, [pc, #780]	(10d58 <.text+0xcd58>)
   10a4a:	5889      	ldr	r1, [r1, r2]
   10a4c:	9009      	str	r0, [sp, #36]
   10a4e:	9105      	str	r1, [sp, #20]
   10a50:	3b01      	sub	r3, #1
   10a52:	1ee0      	sub	r0, r4, #3
   10a54:	2118      	mov	r1, #24
   10a56:	9307      	str	r3, [sp, #28]
   10a58:	fdeaf000 	bl	11630 <__divsi3>
   10a5c:	2800      	cmp	r0, #0
   10a5e:	9006      	str	r0, [sp, #24]
   10a60:	da00      	bge	10a64 <__kernel_rem_pio2+0x34>
   10a62:	e172      	b	10d4a <__kernel_rem_pio2+0x31a>
   10a64:	9906      	ldr	r1, [sp, #24]
   10a66:	004b      	lsl	r3, r1, #1
   10a68:	185b      	add	r3, r3, r1
   10a6a:	00db      	lsl	r3, r3, #3
   10a6c:	1ae3      	sub	r3, r4, r3
   10a6e:	3b18      	sub	r3, #24
   10a70:	9304      	str	r3, [sp, #16]
   10a72:	9a07      	ldr	r2, [sp, #28]
   10a74:	9b05      	ldr	r3, [sp, #20]
   10a76:	1a8e      	sub	r6, r1, r2
   10a78:	18d2      	add	r2, r2, r3
   10a7a:	d418      	bmi	10aae <__kernel_rem_pio2+0x7e>
   10a7c:	99a0      	ldr	r1, [sp, #640]
   10a7e:	00b3      	lsl	r3, r6, #2
   10a80:	185c      	add	r4, r3, r1
   10a82:	ad5a      	add	r5, sp, #360
   10a84:	1c57      	add	r7, r2, #1
   10a86:	e008      	b	10a9a <__kernel_rem_pio2+0x6a>
   10a88:	6820      	ldr	r0, [r4, #0]
   10a8a:	ff55f001 	bl	12938 <____floatsidf_from_thumb>
   10a8e:	3f01      	sub	r7, #1
   10a90:	c503      	stmia	r5!,{r0, r1}
   10a92:	3601      	add	r6, #1
   10a94:	3404      	add	r4, #4
   10a96:	2f00      	cmp	r7, #0
   10a98:	d009      	beq	10aae <__kernel_rem_pio2+0x7e>
   10a9a:	2e00      	cmp	r6, #0
   10a9c:	daf4      	bge	10a88 <__kernel_rem_pio2+0x58>
   10a9e:	48af      	ldr	r0, [pc, #700]	(10d5c <.text+0xcd5c>)
   10aa0:	49af      	ldr	r1, [pc, #700]	(10d60 <.text+0xcd60>)
   10aa2:	3f01      	sub	r7, #1
   10aa4:	c503      	stmia	r5!,{r0, r1}
   10aa6:	3601      	add	r6, #1
   10aa8:	3404      	add	r4, #4
   10aaa:	2f00      	cmp	r7, #0
   10aac:	d1f5      	bne	10a9a <__kernel_rem_pio2+0x6a>
   10aae:	9a05      	ldr	r2, [sp, #20]
   10ab0:	2700      	mov	r7, #0
   10ab2:	2a00      	cmp	r2, #0
   10ab4:	db2f      	blt	10b16 <__kernel_rem_pio2+0xe6>
   10ab6:	23b4      	mov	r3, #180
   10ab8:	005b      	lsl	r3, r3, #1
   10aba:	446b      	add	r3, sp
   10abc:	ac0a      	add	r4, sp, #40
   10abe:	469a      	mov	sl, r3
   10ac0:	46a0      	mov	r8, r4
   10ac2:	49a6      	ldr	r1, [pc, #664]	(10d5c <.text+0xcd5c>)
   10ac4:	4aa6      	ldr	r2, [pc, #664]	(10d60 <.text+0xcd60>)
   10ac6:	9100      	str	r1, [sp, #0]
   10ac8:	9201      	str	r2, [sp, #4]
   10aca:	9a07      	ldr	r2, [sp, #28]
   10acc:	2a00      	cmp	r2, #0
   10ace:	db17      	blt	10b00 <__kernel_rem_pio2+0xd0>
   10ad0:	19d5      	add	r5, r2, r7
   10ad2:	00eb      	lsl	r3, r5, #3
   10ad4:	4651      	mov	r1, sl
   10ad6:	1c16      	mov	r6, r2		(add r6, r2, #0)
   10ad8:	9d09      	ldr	r5, [sp, #36]
   10ada:	185c      	add	r4, r3, r1
   10adc:	3601      	add	r6, #1
   10ade:	6822      	ldr	r2, [r4, #0]
   10ae0:	6863      	ldr	r3, [r4, #4]
   10ae2:	cd03      	ldmia	r5!,{r0, r1}
   10ae4:	ff0cf001 	bl	12900 <____muldf3_from_thumb>
   10ae8:	1c0b      	mov	r3, r1		(add r3, r1, #0)
   10aea:	1c02      	mov	r2, r0		(add r2, r0, #0)
   10aec:	9800      	ldr	r0, [sp, #0]
   10aee:	9901      	ldr	r1, [sp, #4]
   10af0:	ff02f001 	bl	128f8 <____adddf3_from_thumb>
   10af4:	3e01      	sub	r6, #1
   10af6:	3c08      	sub	r4, #8
   10af8:	9000      	str	r0, [sp, #0]
   10afa:	9101      	str	r1, [sp, #4]
   10afc:	2e00      	cmp	r6, #0
   10afe:	d1ee      	bne	10ade <__kernel_rem_pio2+0xae>
   10b00:	4644      	mov	r4, r8
   10b02:	3408      	add	r4, #8
   10b04:	9a00      	ldr	r2, [sp, #0]
   10b06:	9b01      	ldr	r3, [sp, #4]
   10b08:	9905      	ldr	r1, [sp, #20]
   10b0a:	46a0      	mov	r8, r4
   10b0c:	3701      	add	r7, #1
   10b0e:	3c08      	sub	r4, #8
   10b10:	c40c      	stmia	r4!,{r2, r3}
   10b12:	428f      	cmp	r7, r1
   10b14:	ddd5      	ble	10ac2 <__kernel_rem_pio2+0x92>
   10b16:	9a05      	ldr	r2, [sp, #20]
   10b18:	4692      	mov	sl, r2
   10b1a:	4656      	mov	r6, sl
   10b1c:	00f3      	lsl	r3, r6, #3
   10b1e:	ac0a      	add	r4, sp, #40
   10b20:	1918      	add	r0, r3, r4
   10b22:	6801      	ldr	r1, [r0, #0]
   10b24:	6842      	ldr	r2, [r0, #4]
   10b26:	9102      	str	r1, [sp, #8]
   10b28:	9203      	str	r2, [sp, #12]
   10b2a:	2e00      	cmp	r6, #0
   10b2c:	dd27      	ble	10b7e <__kernel_rem_pio2+0x14e>
   10b2e:	1c04      	mov	r4, r0		(add r4, r0, #0)
   10b30:	3c08      	sub	r4, #8
   10b32:	ad82      	add	r5, sp, #520
   10b34:	4a8b      	ldr	r2, [pc, #556]	(10d64 <.text+0xcd64>)
   10b36:	4b8c      	ldr	r3, [pc, #560]	(10d68 <.text+0xcd68>)
   10b38:	9802      	ldr	r0, [sp, #8]
   10b3a:	9903      	ldr	r1, [sp, #12]
   10b3c:	fee0f001 	bl	12900 <____muldf3_from_thumb>
   10b40:	fef6f001 	bl	12930 <____fixdfsi_from_thumb>
   10b44:	fef8f001 	bl	12938 <____floatsidf_from_thumb>
   10b48:	4a88      	ldr	r2, [pc, #544]	(10d6c <.text+0xcd6c>)
   10b4a:	4b89      	ldr	r3, [pc, #548]	(10d70 <.text+0xcd70>)
   10b4c:	9000      	str	r0, [sp, #0]
   10b4e:	9101      	str	r1, [sp, #4]
   10b50:	fed6f001 	bl	12900 <____muldf3_from_thumb>
   10b54:	1c0b      	mov	r3, r1		(add r3, r1, #0)
   10b56:	1c02      	mov	r2, r0		(add r2, r0, #0)
   10b58:	9802      	ldr	r0, [sp, #8]
   10b5a:	9903      	ldr	r1, [sp, #12]
   10b5c:	fed4f001 	bl	12908 <____subdf3_from_thumb>
   10b60:	fee6f001 	bl	12930 <____fixdfsi_from_thumb>
   10b64:	9a00      	ldr	r2, [sp, #0]
   10b66:	9b01      	ldr	r3, [sp, #4]
   10b68:	c501      	stmia	r5!,{r0}
   10b6a:	6820      	ldr	r0, [r4, #0]
   10b6c:	6861      	ldr	r1, [r4, #4]
   10b6e:	fec3f001 	bl	128f8 <____adddf3_from_thumb>
   10b72:	3e01      	sub	r6, #1
   10b74:	3c08      	sub	r4, #8
   10b76:	9002      	str	r0, [sp, #8]
   10b78:	9103      	str	r1, [sp, #12]
   10b7a:	2e00      	cmp	r6, #0
   10b7c:	dcda      	bgt	10b34 <__kernel_rem_pio2+0x104>
   10b7e:	9a04      	ldr	r2, [sp, #16]
   10b80:	9802      	ldr	r0, [sp, #8]
   10b82:	9903      	ldr	r1, [sp, #12]
   10b84:	fcb0f000 	bl	114e8 <scalbn>
   10b88:	4a7a      	ldr	r2, [pc, #488]	(10d74 <.text+0xcd74>)
   10b8a:	4b7b      	ldr	r3, [pc, #492]	(10d78 <.text+0xcd78>)
   10b8c:	9002      	str	r0, [sp, #8]
   10b8e:	9103      	str	r1, [sp, #12]
   10b90:	feb6f001 	bl	12900 <____muldf3_from_thumb>
   10b94:	fbf0f000 	bl	11378 <floor>
   10b98:	4a78      	ldr	r2, [pc, #480]	(10d7c <.text+0xcd7c>)
   10b9a:	4b79      	ldr	r3, [pc, #484]	(10d80 <.text+0xcd80>)
   10b9c:	feb0f001 	bl	12900 <____muldf3_from_thumb>
   10ba0:	1c0b      	mov	r3, r1		(add r3, r1, #0)
   10ba2:	1c02      	mov	r2, r0		(add r2, r0, #0)
   10ba4:	9802      	ldr	r0, [sp, #8]
   10ba6:	9903      	ldr	r1, [sp, #12]
   10ba8:	feaef001 	bl	12908 <____subdf3_from_thumb>
   10bac:	9002      	str	r0, [sp, #8]
   10bae:	9103      	str	r1, [sp, #12]
   10bb0:	febef001 	bl	12930 <____fixdfsi_from_thumb>
   10bb4:	4681      	mov	r9, r0
   10bb6:	febff001 	bl	12938 <____floatsidf_from_thumb>
   10bba:	1c0b      	mov	r3, r1		(add r3, r1, #0)
   10bbc:	1c02      	mov	r2, r0		(add r2, r0, #0)
   10bbe:	9802      	ldr	r0, [sp, #8]
   10bc0:	9903      	ldr	r1, [sp, #12]
   10bc2:	fea1f001 	bl	12908 <____subdf3_from_thumb>
   10bc6:	9b04      	ldr	r3, [sp, #16]
   10bc8:	2200      	mov	r2, #0
   10bca:	9002      	str	r0, [sp, #8]
   10bcc:	9103      	str	r1, [sp, #12]
   10bce:	4693      	mov	fp, r2
   10bd0:	2b00      	cmp	r3, #0
   10bd2:	dc00      	bgt	10bd6 <__kernel_rem_pio2+0x1a6>
   10bd4:	e1cb      	b	10f6e <.text+0xcf6e>
   10bd6:	4654      	mov	r4, sl
   10bd8:	00a1      	lsl	r1, r4, #2
   10bda:	aa82      	add	r2, sp, #520
   10bdc:	1889      	add	r1, r1, r2
   10bde:	3904      	sub	r1, #4
   10be0:	680a      	ldr	r2, [r1, #0]
   10be2:	9c04      	ldr	r4, [sp, #16]
   10be4:	2318      	mov	r3, #24
   10be6:	1b1b      	sub	r3, r3, r4
   10be8:	1c17      	mov	r7, r2		(add r7, r2, #0)
   10bea:	411f      	asr	r7, r3
   10bec:	44b9      	add	r9, r7
   10bee:	409f      	lsl	r7, r3
   10bf0:	2317      	mov	r3, #23
   10bf2:	1bd2      	sub	r2, r2, r7
   10bf4:	1b1b      	sub	r3, r3, r4
   10bf6:	600a      	str	r2, [r1, #0]
   10bf8:	411a      	asr	r2, r3
   10bfa:	4693      	mov	fp, r2
   10bfc:	465a      	mov	r2, fp
   10bfe:	2a00      	cmp	r2, #0
   10c00:	dd24      	ble	10c4c <__kernel_rem_pio2+0x21c>
   10c02:	2301      	mov	r3, #1
   10c04:	4651      	mov	r1, sl
   10c06:	4499      	add	r9, r3
   10c08:	2400      	mov	r4, #0
   10c0a:	2900      	cmp	r1, #0
   10c0c:	dd11      	ble	10c32 <__kernel_rem_pio2+0x202>
   10c0e:	2180      	mov	r1, #128
   10c10:	485c      	ldr	r0, [pc, #368]	(10d84 <.text+0xcd84>)
   10c12:	0449      	lsl	r1, r1, #17
   10c14:	aa82      	add	r2, sp, #520
   10c16:	4657      	mov	r7, sl
   10c18:	6816      	ldr	r6, [r2, #0]
   10c1a:	2c00      	cmp	r4, #0
   10c1c:	d000      	beq	10c20 <__kernel_rem_pio2+0x1f0>
   10c1e:	e097      	b	10d50 <__kernel_rem_pio2+0x320>
   10c20:	2e00      	cmp	r6, #0
   10c22:	d002      	beq	10c2a <__kernel_rem_pio2+0x1fa>
   10c24:	2401      	mov	r4, #1
   10c26:	1b8b      	sub	r3, r1, r6
   10c28:	6013      	str	r3, [r2, #0]
   10c2a:	3f01      	sub	r7, #1
   10c2c:	3204      	add	r2, #4
   10c2e:	2f00      	cmp	r7, #0
   10c30:	d1f2      	bne	10c18 <__kernel_rem_pio2+0x1e8>
   10c32:	9a04      	ldr	r2, [sp, #16]
   10c34:	2a00      	cmp	r2, #0
   10c36:	dd05      	ble	10c44 <__kernel_rem_pio2+0x214>
   10c38:	2a01      	cmp	r2, #1
   10c3a:	d100      	bne	10c3e <__kernel_rem_pio2+0x20e>
   10c3c:	e1a3      	b	10f86 <.text+0xcf86>
   10c3e:	2a02      	cmp	r2, #2
   10c40:	d100      	bne	10c44 <__kernel_rem_pio2+0x214>
   10c42:	e1aa      	b	10f9a <.text+0xcf9a>
   10c44:	465b      	mov	r3, fp
   10c46:	2b02      	cmp	r3, #2
   10c48:	d100      	bne	10c4c <__kernel_rem_pio2+0x21c>
   10c4a:	e09d      	b	10d88 <.text+0xcd88>
   10c4c:	9802      	ldr	r0, [sp, #8]
   10c4e:	9903      	ldr	r1, [sp, #12]
   10c50:	4a42      	ldr	r2, [pc, #264]	(10d5c <.text+0xcd5c>)
   10c52:	4b43      	ldr	r3, [pc, #268]	(10d60 <.text+0xcd60>)
   10c54:	fe64f001 	bl	12920 <____eqdf2_from_thumb>
   10c58:	2800      	cmp	r0, #0
   10c5a:	d000      	beq	10c5e <__kernel_rem_pio2+0x22e>
   10c5c:	e0b5      	b	10dca <.text+0xcdca>
   10c5e:	4657      	mov	r7, sl
   10c60:	9c05      	ldr	r4, [sp, #20]
   10c62:	3f01      	sub	r7, #1
   10c64:	2600      	mov	r6, #0
   10c66:	42a7      	cmp	r7, r4
   10c68:	db0c      	blt	10c84 <__kernel_rem_pio2+0x254>
   10c6a:	00bb      	lsl	r3, r7, #2
   10c6c:	a982      	add	r1, sp, #520
   10c6e:	185a      	add	r2, r3, r1
   10c70:	6813      	ldr	r3, [r2, #0]
   10c72:	431e      	orr	r6, r3
   10c74:	9b05      	ldr	r3, [sp, #20]
   10c76:	3f01      	sub	r7, #1
   10c78:	3a04      	sub	r2, #4
   10c7a:	429f      	cmp	r7, r3
   10c7c:	daf8      	bge	10c70 <__kernel_rem_pio2+0x240>
   10c7e:	2e00      	cmp	r6, #0
   10c80:	d000      	beq	10c84 <__kernel_rem_pio2+0x254>
   10c82:	e0a2      	b	10dca <.text+0xcdca>
   10c84:	9b05      	ldr	r3, [sp, #20]
   10c86:	2282      	mov	r2, #130
   10c88:	3b01      	sub	r3, #1
   10c8a:	009b      	lsl	r3, r3, #2
   10c8c:	0092      	lsl	r2, r2, #2
   10c8e:	18d2      	add	r2, r2, r3
   10c90:	4669      	mov	r1, sp
   10c92:	5853      	ldr	r3, [r2, r1]
   10c94:	2401      	mov	r4, #1
   10c96:	2b00      	cmp	r3, #0
   10c98:	d109      	bne	10cae <__kernel_rem_pio2+0x27e>
   10c9a:	9905      	ldr	r1, [sp, #20]
   10c9c:	aa82      	add	r2, sp, #520
   10c9e:	008b      	lsl	r3, r1, #2
   10ca0:	189b      	add	r3, r3, r2
   10ca2:	1f1a      	sub	r2, r3, #4
   10ca4:	3a04      	sub	r2, #4
   10ca6:	6813      	ldr	r3, [r2, #0]
   10ca8:	3401      	add	r4, #1
   10caa:	2b00      	cmp	r3, #0
   10cac:	d0fa      	beq	10ca4 <__kernel_rem_pio2+0x274>
   10cae:	4657      	mov	r7, sl
   10cb0:	4454      	add	r4, sl
   10cb2:	3701      	add	r7, #1
   10cb4:	46a0      	mov	r8, r4
   10cb6:	45b8      	cmp	r8, r7
   10cb8:	db45      	blt	10d46 <__kernel_rem_pio2+0x316>
   10cba:	00fb      	lsl	r3, r7, #3
   10cbc:	9907      	ldr	r1, [sp, #28]
   10cbe:	ac0a      	add	r4, sp, #40
   10cc0:	18e4      	add	r4, r4, r3
   10cc2:	46a3      	mov	fp, r4
   10cc4:	19cb      	add	r3, r1, r7
   10cc6:	9c06      	ldr	r4, [sp, #24]
   10cc8:	00db      	lsl	r3, r3, #3
   10cca:	aa5a      	add	r2, sp, #360
   10ccc:	18d2      	add	r2, r2, r3
   10cce:	99a0      	ldr	r1, [sp, #640]
   10cd0:	19e3      	add	r3, r4, r7
   10cd2:	009b      	lsl	r3, r3, #2
   10cd4:	185b      	add	r3, r3, r1
   10cd6:	4691      	mov	r9, r2
   10cd8:	469a      	mov	sl, r3
   10cda:	4653      	mov	r3, sl
   10cdc:	3304      	add	r3, #4
   10cde:	9a07      	ldr	r2, [sp, #28]
   10ce0:	469a      	mov	sl, r3
   10ce2:	3b04      	sub	r3, #4
   10ce4:	cb01      	ldmia	r3!,{r0}
   10ce6:	19d5      	add	r5, r2, r7
   10ce8:	fe26f001 	bl	12938 <____floatsidf_from_thumb>
   10cec:	464c      	mov	r4, r9
   10cee:	3408      	add	r4, #8
   10cf0:	46a1      	mov	r9, r4
   10cf2:	3c08      	sub	r4, #8
   10cf4:	c403      	stmia	r4!,{r0, r1}
   10cf6:	4919      	ldr	r1, [pc, #100]	(10d5c <.text+0xcd5c>)
   10cf8:	4a19      	ldr	r2, [pc, #100]	(10d60 <.text+0xcd60>)
   10cfa:	9100      	str	r1, [sp, #0]
   10cfc:	9201      	str	r2, [sp, #4]
   10cfe:	9a07      	ldr	r2, [sp, #28]
   10d00:	2a00      	cmp	r2, #0
   10d02:	db16      	blt	10d32 <__kernel_rem_pio2+0x302>
   10d04:	ac5a      	add	r4, sp, #360
   10d06:	00eb      	lsl	r3, r5, #3
   10d08:	191d      	add	r5, r3, r4
   10d0a:	1c16      	mov	r6, r2		(add r6, r2, #0)
   10d0c:	9c09      	ldr	r4, [sp, #36]
   10d0e:	3601      	add	r6, #1
   10d10:	682a      	ldr	r2, [r5, #0]
   10d12:	686b      	ldr	r3, [r5, #4]
   10d14:	cc03      	ldmia	r4!,{r0, r1}
   10d16:	fdf3f001 	bl	12900 <____muldf3_from_thumb>
   10d1a:	1c0b      	mov	r3, r1		(add r3, r1, #0)
   10d1c:	1c02      	mov	r2, r0		(add r2, r0, #0)
   10d1e:	9800      	ldr	r0, [sp, #0]
   10d20:	9901      	ldr	r1, [sp, #4]
   10d22:	fde9f001 	bl	128f8 <____adddf3_from_thumb>
   10d26:	3e01      	sub	r6, #1
   10d28:	3d08      	sub	r5, #8
   10d2a:	9000      	str	r0, [sp, #0]
   10d2c:	9101      	str	r1, [sp, #4]
   10d2e:	2e00      	cmp	r6, #0
   10d30:	d1ee      	bne	10d10 <__kernel_rem_pio2+0x2e0>
   10d32:	465b      	mov	r3, fp
   10d34:	3308      	add	r3, #8
   10d36:	9900      	ldr	r1, [sp, #0]
   10d38:	9a01      	ldr	r2, [sp, #4]
   10d3a:	469b      	mov	fp, r3
   10d3c:	3701      	add	r7, #1
   10d3e:	3b08      	sub	r3, #8
   10d40:	c306      	stmia	r3!,{r1, r2}
   10d42:	45b8      	cmp	r8, r7
   10d44:	dac9      	bge	10cda <__kernel_rem_pio2+0x2aa>
   10d46:	46c2      	mov	sl, r8
   10d48:	e6e7      	b	10b1a <__kernel_rem_pio2+0xea>
   10d4a:	2300      	mov	r3, #0
   10d4c:	9306      	str	r3, [sp, #24]
   10d4e:	e689      	b	10a64 <__kernel_rem_pio2+0x34>
   10d50:	1b83      	sub	r3, r0, r6
   10d52:	e769      	b	10c28 <__kernel_rem_pio2+0x1f8>
   10d54:	fda8      	second half of BL instruction 0xfda8
   10d56:	ffff      	second half of BL instruction 0xffff
   10d58:	2bc4      	cmp	r3, #196
   10d5a:	0001      	lsl	r1, r0, #0
	...
   10d64:	0000      	lsl	r0, r0, #0
   10d66:	3e70      	sub	r6, #112
   10d68:	0000      	lsl	r0, r0, #0
   10d6a:	0000      	lsl	r0, r0, #0
   10d6c:	0000      	lsl	r0, r0, #0
   10d6e:	4170      	adc	r0, r6
   10d70:	0000      	lsl	r0, r0, #0
   10d72:	0000      	lsl	r0, r0, #0
   10d74:	0000      	lsl	r0, r0, #0
   10d76:	3fc0      	sub	r7, #192
   10d78:	0000      	lsl	r0, r0, #0
   10d7a:	0000      	lsl	r0, r0, #0
   10d7c:	0000      	lsl	r0, r0, #0
   10d7e:	4020      	and	r0, r4
   10d80:	0000      	lsl	r0, r0, #0
   10d82:	0000      	lsl	r0, r0, #0
   10d84:	ffff      	second half of BL instruction 0xffff
   10d86:	00ff      	lsl	r7, r7, #3
   10d88:	9a02      	ldr	r2, [sp, #8]
   10d8a:	9b03      	ldr	r3, [sp, #12]
   10d8c:	4990      	ldr	r1, [pc, #576]	(10fd0 <.text+0xcfd0>)
   10d8e:	488f      	ldr	r0, [pc, #572]	(10fcc <.text+0xcfcc>)
   10d90:	fdbaf001 	bl	12908 <____subdf3_from_thumb>
   10d94:	9002      	str	r0, [sp, #8]
   10d96:	9103      	str	r1, [sp, #12]
   10d98:	2c00      	cmp	r4, #0
   10d9a:	d100      	bne	10d9e <.text+0xcd9e>
   10d9c:	e756      	b	10c4c <__kernel_rem_pio2+0x21c>
   10d9e:	9a04      	ldr	r2, [sp, #16]
   10da0:	498b      	ldr	r1, [pc, #556]	(10fd0 <.text+0xcfd0>)
   10da2:	488a      	ldr	r0, [pc, #552]	(10fcc <.text+0xcfcc>)
   10da4:	fba0f000 	bl	114e8 <scalbn>
   10da8:	1c0b      	mov	r3, r1		(add r3, r1, #0)
   10daa:	1c02      	mov	r2, r0		(add r2, r0, #0)
   10dac:	9802      	ldr	r0, [sp, #8]
   10dae:	9903      	ldr	r1, [sp, #12]
   10db0:	fdaaf001 	bl	12908 <____subdf3_from_thumb>
   10db4:	9002      	str	r0, [sp, #8]
   10db6:	9103      	str	r1, [sp, #12]
   10db8:	9802      	ldr	r0, [sp, #8]
   10dba:	9903      	ldr	r1, [sp, #12]
   10dbc:	4a85      	ldr	r2, [pc, #532]	(10fd4 <.text+0xcfd4>)
   10dbe:	4b86      	ldr	r3, [pc, #536]	(10fd8 <.text+0xcfd8>)
   10dc0:	fdaef001 	bl	12920 <____eqdf2_from_thumb>
   10dc4:	2800      	cmp	r0, #0
   10dc6:	d100      	bne	10dca <.text+0xcdca>
   10dc8:	e749      	b	10c5e <__kernel_rem_pio2+0x22e>
   10dca:	9802      	ldr	r0, [sp, #8]
   10dcc:	9903      	ldr	r1, [sp, #12]
   10dce:	4a81      	ldr	r2, [pc, #516]	(10fd4 <.text+0xcfd4>)
   10dd0:	4b81      	ldr	r3, [pc, #516]	(10fd8 <.text+0xcfd8>)
   10dd2:	fda5f001 	bl	12920 <____eqdf2_from_thumb>
   10dd6:	2800      	cmp	r0, #0
   10dd8:	d000      	beq	10ddc <.text+0xcddc>
   10dda:	e18d      	b	110f8 <.text+0xd0f8>
   10ddc:	2401      	mov	r4, #1
   10dde:	4264      	neg	r4, r4
   10de0:	44a2      	add	sl, r4
   10de2:	9904      	ldr	r1, [sp, #16]
   10de4:	4652      	mov	r2, sl
   10de6:	0093      	lsl	r3, r2, #2
   10de8:	ac82      	add	r4, sp, #520
   10dea:	3918      	sub	r1, #24
   10dec:	191a      	add	r2, r3, r4
   10dee:	9104      	str	r1, [sp, #16]
   10df0:	e006      	b	10e00 <.text+0xce00>
   10df2:	9b04      	ldr	r3, [sp, #16]
   10df4:	2101      	mov	r1, #1
   10df6:	3b18      	sub	r3, #24
   10df8:	4249      	neg	r1, r1
   10dfa:	9304      	str	r3, [sp, #16]
   10dfc:	448a      	add	sl, r1
   10dfe:	3a04      	sub	r2, #4
   10e00:	6813      	ldr	r3, [r2, #0]
   10e02:	2b00      	cmp	r3, #0
   10e04:	d0f5      	beq	10df2 <.text+0xcdf2>
   10e06:	4972      	ldr	r1, [pc, #456]	(10fd0 <.text+0xcfd0>)
   10e08:	4870      	ldr	r0, [pc, #448]	(10fcc <.text+0xcfcc>)
   10e0a:	9a04      	ldr	r2, [sp, #16]
   10e0c:	fb6cf000 	bl	114e8 <scalbn>
   10e10:	4657      	mov	r7, sl
   10e12:	9000      	str	r0, [sp, #0]
   10e14:	9101      	str	r1, [sp, #4]
   10e16:	2f00      	cmp	r7, #0
   10e18:	db4d      	blt	10eb6 <.text+0xceb6>
   10e1a:	00fb      	lsl	r3, r7, #3
   10e1c:	aa0a      	add	r2, sp, #40
   10e1e:	189d      	add	r5, r3, r2
   10e20:	a982      	add	r1, sp, #520
   10e22:	00bb      	lsl	r3, r7, #2
   10e24:	185c      	add	r4, r3, r1
   10e26:	6820      	ldr	r0, [r4, #0]
   10e28:	fd86f001 	bl	12938 <____floatsidf_from_thumb>
   10e2c:	9a00      	ldr	r2, [sp, #0]
   10e2e:	9b01      	ldr	r3, [sp, #4]
   10e30:	fd66f001 	bl	12900 <____muldf3_from_thumb>
   10e34:	4a69      	ldr	r2, [pc, #420]	(10fdc <.text+0xcfdc>)
   10e36:	4b6a      	ldr	r3, [pc, #424]	(10fe0 <.text+0xcfe0>)
   10e38:	6028      	str	r0, [r5, #0]
   10e3a:	6069      	str	r1, [r5, #4]
   10e3c:	9800      	ldr	r0, [sp, #0]
   10e3e:	9901      	ldr	r1, [sp, #4]
   10e40:	fd5ef001 	bl	12900 <____muldf3_from_thumb>
   10e44:	3c04      	sub	r4, #4
   10e46:	3d08      	sub	r5, #8
   10e48:	9000      	str	r0, [sp, #0]
   10e4a:	9101      	str	r1, [sp, #4]
   10e4c:	3f01      	sub	r7, #1
   10e4e:	d5ea      	bpl	10e26 <.text+0xce26>
   10e50:	4657      	mov	r7, sl
   10e52:	2f00      	cmp	r7, #0
   10e54:	db2f      	blt	10eb6 <.text+0xceb6>
   10e56:	4a5f      	ldr	r2, [pc, #380]	(10fd4 <.text+0xcfd4>)
   10e58:	4b5f      	ldr	r3, [pc, #380]	(10fd8 <.text+0xcfd8>)
   10e5a:	9200      	str	r2, [sp, #0]
   10e5c:	9301      	str	r3, [sp, #4]
   10e5e:	9b05      	ldr	r3, [sp, #20]
   10e60:	2400      	mov	r4, #0
   10e62:	2b00      	cmp	r3, #0
   10e64:	da00      	bge	10e68 <.text+0xce68>
   10e66:	e0ae      	b	10fc6 <.text+0xcfc6>
   10e68:	4651      	mov	r1, sl
   10e6a:	1bce      	sub	r6, r1, r7
   10e6c:	d41a      	bmi	10ea4 <.text+0xcea4>
   10e6e:	00fb      	lsl	r3, r7, #3
   10e70:	aa0a      	add	r2, sp, #40
   10e72:	189d      	add	r5, r3, r2
   10e74:	4b5b      	ldr	r3, [pc, #364]	(10fe4 <.text+0xcfe4>)
   10e76:	4698      	mov	r8, r3
   10e78:	4642      	mov	r2, r8
   10e7a:	3208      	add	r2, #8
   10e7c:	4690      	mov	r8, r2
   10e7e:	3a08      	sub	r2, #8
   10e80:	ca03      	ldmia	r2!,{r0, r1}
   10e82:	cd0c      	ldmia	r5!,{r2, r3}
   10e84:	fd3cf001 	bl	12900 <____muldf3_from_thumb>
   10e88:	1c0b      	mov	r3, r1		(add r3, r1, #0)
   10e8a:	1c02      	mov	r2, r0		(add r2, r0, #0)
   10e8c:	9800      	ldr	r0, [sp, #0]
   10e8e:	9901      	ldr	r1, [sp, #4]
   10e90:	fd32f001 	bl	128f8 <____adddf3_from_thumb>
   10e94:	9b05      	ldr	r3, [sp, #20]
   10e96:	3401      	add	r4, #1
   10e98:	9000      	str	r0, [sp, #0]
   10e9a:	9101      	str	r1, [sp, #4]
   10e9c:	429c      	cmp	r4, r3
   10e9e:	dc01      	bgt	10ea4 <.text+0xcea4>
   10ea0:	42a6      	cmp	r6, r4
   10ea2:	dae9      	bge	10e78 <.text+0xce78>
   10ea4:	a932      	add	r1, sp, #200
   10ea6:	00f3      	lsl	r3, r6, #3
   10ea8:	185b      	add	r3, r3, r1
   10eaa:	9900      	ldr	r1, [sp, #0]
   10eac:	9a01      	ldr	r2, [sp, #4]
   10eae:	6019      	str	r1, [r3, #0]
   10eb0:	605a      	str	r2, [r3, #4]
   10eb2:	3f01      	sub	r7, #1
   10eb4:	d5cf      	bpl	10e56 <.text+0xce56>
   10eb6:	9a9f      	ldr	r2, [sp, #636]
   10eb8:	2a02      	cmp	r2, #2
   10eba:	dd00      	ble	10ebe <.text+0xcebe>
   10ebc:	e0a0      	b	11000 <.text+0xd000>
   10ebe:	2a01      	cmp	r2, #1
   10ec0:	da00      	bge	10ec4 <.text+0xcec4>
   10ec2:	e155      	b	11170 <.text+0xd170>
   10ec4:	4b43      	ldr	r3, [pc, #268]	(10fd4 <.text+0xcfd4>)
   10ec6:	4c44      	ldr	r4, [pc, #272]	(10fd8 <.text+0xcfd8>)
   10ec8:	4657      	mov	r7, sl
   10eca:	9300      	str	r3, [sp, #0]
   10ecc:	9401      	str	r4, [sp, #4]
   10ece:	2f00      	cmp	r7, #0
   10ed0:	db0d      	blt	10eee <.text+0xceee>
   10ed2:	00fb      	lsl	r3, r7, #3
   10ed4:	a932      	add	r1, sp, #200
   10ed6:	185c      	add	r4, r3, r1
   10ed8:	6822      	ldr	r2, [r4, #0]
   10eda:	6863      	ldr	r3, [r4, #4]
   10edc:	9800      	ldr	r0, [sp, #0]
   10ede:	9901      	ldr	r1, [sp, #4]
   10ee0:	fd0af001 	bl	128f8 <____adddf3_from_thumb>
   10ee4:	3c08      	sub	r4, #8
   10ee6:	9000      	str	r0, [sp, #0]
   10ee8:	9101      	str	r1, [sp, #4]
   10eea:	3f01      	sub	r7, #1
   10eec:	d5f4      	bpl	10ed8 <.text+0xced8>
   10eee:	465a      	mov	r2, fp
   10ef0:	9b00      	ldr	r3, [sp, #0]
   10ef2:	9c01      	ldr	r4, [sp, #4]
   10ef4:	2a00      	cmp	r2, #0
   10ef6:	d004      	beq	10f02 <.text+0xcf02>
   10ef8:	493b      	ldr	r1, [pc, #236]	(10fe8 <.text+0xcfe8>)
   10efa:	4a3c      	ldr	r2, [pc, #240]	(10fec <.text+0xcfec>)
   10efc:	9b00      	ldr	r3, [sp, #0]
   10efe:	9c01      	ldr	r4, [sp, #4]
   10f00:	404b      	eor	r3, r1
   10f02:	9908      	ldr	r1, [sp, #32]
   10f04:	600b      	str	r3, [r1, #0]
   10f06:	604c      	str	r4, [r1, #4]
   10f08:	9832      	ldr	r0, [sp, #200]
   10f0a:	9933      	ldr	r1, [sp, #204]
   10f0c:	9a00      	ldr	r2, [sp, #0]
   10f0e:	9b01      	ldr	r3, [sp, #4]
   10f10:	fcfaf001 	bl	12908 <____subdf3_from_thumb>
   10f14:	4652      	mov	r2, sl
   10f16:	9000      	str	r0, [sp, #0]
   10f18:	9101      	str	r1, [sp, #4]
   10f1a:	2a01      	cmp	r2, #1
   10f1c:	db0c      	blt	10f38 <.text+0xcf38>
   10f1e:	ac32      	add	r4, sp, #200
   10f20:	3408      	add	r4, #8
   10f22:	4657      	mov	r7, sl
   10f24:	9800      	ldr	r0, [sp, #0]
   10f26:	9901      	ldr	r1, [sp, #4]
   10f28:	cc0c      	ldmia	r4!,{r2, r3}
   10f2a:	fce5f001 	bl	128f8 <____adddf3_from_thumb>
   10f2e:	3f01      	sub	r7, #1
   10f30:	9000      	str	r0, [sp, #0]
   10f32:	9101      	str	r1, [sp, #4]
   10f34:	2f00      	cmp	r7, #0
   10f36:	d1f5      	bne	10f24 <.text+0xcf24>
   10f38:	4659      	mov	r1, fp
   10f3a:	9b00      	ldr	r3, [sp, #0]
   10f3c:	9c01      	ldr	r4, [sp, #4]
   10f3e:	2900      	cmp	r1, #0
   10f40:	d004      	beq	10f4c <.text+0xcf4c>
   10f42:	4929      	ldr	r1, [pc, #164]	(10fe8 <.text+0xcfe8>)
   10f44:	4a29      	ldr	r2, [pc, #164]	(10fec <.text+0xcfec>)
   10f46:	9b00      	ldr	r3, [sp, #0]
   10f48:	9c01      	ldr	r4, [sp, #4]
   10f4a:	404b      	eor	r3, r1
   10f4c:	9a08      	ldr	r2, [sp, #32]
   10f4e:	6093      	str	r3, [r2, #8]
   10f50:	60d4      	str	r4, [r2, #12]
   10f52:	4648      	mov	r0, r9
   10f54:	2307      	mov	r3, #7
   10f56:	4018      	and	r0, r3
   10f58:	2396      	mov	r3, #150
   10f5a:	009b      	lsl	r3, r3, #2
   10f5c:	449d      	add	sp, r3
   10f5e:	bc78      	pop	{r3, r4, r5, r6}
   10f60:	4698      	mov	r8, r3
   10f62:	46a1      	mov	r9, r4
   10f64:	46aa      	mov	sl, r5
   10f66:	46b3      	mov	fp, r6
   10f68:	bcf0      	pop	{r4, r5, r6, r7}
   10f6a:	bc02      	pop	{r1}
   10f6c:	4708      	bx	r1
   10f6e:	9904      	ldr	r1, [sp, #16]
   10f70:	2900      	cmp	r1, #0
   10f72:	d11c      	bne	10fae <.text+0xcfae>
   10f74:	4652      	mov	r2, sl
   10f76:	0093      	lsl	r3, r2, #2
   10f78:	ac82      	add	r4, sp, #520
   10f7a:	191b      	add	r3, r3, r4
   10f7c:	3b04      	sub	r3, #4
   10f7e:	681b      	ldr	r3, [r3, #0]
   10f80:	15db      	asr	r3, r3, #23
   10f82:	469b      	mov	fp, r3
   10f84:	e63a      	b	10bfc <__kernel_rem_pio2+0x1cc>
   10f86:	4651      	mov	r1, sl
   10f88:	008b      	lsl	r3, r1, #2
   10f8a:	aa82      	add	r2, sp, #520
   10f8c:	189b      	add	r3, r3, r2
   10f8e:	3b04      	sub	r3, #4
   10f90:	681a      	ldr	r2, [r3, #0]
   10f92:	4917      	ldr	r1, [pc, #92]	(10ff0 <.text+0xcff0>)
   10f94:	400a      	and	r2, r1
   10f96:	601a      	str	r2, [r3, #0]
   10f98:	e654      	b	10c44 <__kernel_rem_pio2+0x214>
   10f9a:	4651      	mov	r1, sl
   10f9c:	008b      	lsl	r3, r1, #2
   10f9e:	aa82      	add	r2, sp, #520
   10fa0:	189b      	add	r3, r3, r2
   10fa2:	3b04      	sub	r3, #4
   10fa4:	681a      	ldr	r2, [r3, #0]
   10fa6:	4913      	ldr	r1, [pc, #76]	(10ff4 <.text+0xcff4>)
   10fa8:	400a      	and	r2, r1
   10faa:	601a      	str	r2, [r3, #0]
   10fac:	e64a      	b	10c44 <__kernel_rem_pio2+0x214>
   10fae:	9802      	ldr	r0, [sp, #8]
   10fb0:	9903      	ldr	r1, [sp, #12]
   10fb2:	4a11      	ldr	r2, [pc, #68]	(10ff8 <.text+0xcff8>)
   10fb4:	4b11      	ldr	r3, [pc, #68]	(10ffc <.text+0xcffc>)
   10fb6:	fcc3f001 	bl	12940 <____gedf2_from_thumb>
   10fba:	2800      	cmp	r0, #0
   10fbc:	da00      	bge	10fc0 <.text+0xcfc0>
   10fbe:	e645      	b	10c4c <__kernel_rem_pio2+0x21c>
   10fc0:	2102      	mov	r1, #2
   10fc2:	468b      	mov	fp, r1
   10fc4:	e61d      	b	10c02 <__kernel_rem_pio2+0x1d2>
   10fc6:	4654      	mov	r4, sl
   10fc8:	1be6      	sub	r6, r4, r7
   10fca:	e76b      	b	10ea4 <.text+0xcea4>
   10fcc:	0000      	lsl	r0, r0, #0
   10fce:	3ff0      	sub	r7, #240
	...
   10fdc:	0000      	lsl	r0, r0, #0
   10fde:	3e70      	sub	r6, #112
   10fe0:	0000      	lsl	r0, r0, #0
   10fe2:	0000      	lsl	r0, r0, #0
   10fe4:	2b84      	cmp	r3, #132
   10fe6:	0001      	lsl	r1, r0, #0
   10fe8:	0000      	lsl	r0, r0, #0
   10fea:	8000      	strh	r0, [r0, #0]
   10fec:	0000      	lsl	r0, r0, #0
   10fee:	0000      	lsl	r0, r0, #0
   10ff0:	ffff      	second half of BL instruction 0xffff
   10ff2:	007f      	lsl	r7, r7, #1
   10ff4:	ffff      	second half of BL instruction 0xffff
   10ff6:	003f      	lsl	r7, r7, #0
   10ff8:	0000      	lsl	r0, r0, #0
   10ffa:	3fe0      	sub	r7, #224
   10ffc:	0000      	lsl	r0, r0, #0
   10ffe:	0000      	lsl	r0, r0, #0
   11000:	9b9f      	ldr	r3, [sp, #636]
   11002:	2b03      	cmp	r3, #3
   11004:	d1a5      	bne	10f52 <.text+0xcf52>
   11006:	4657      	mov	r7, sl
   11008:	2f00      	cmp	r7, #0
   1100a:	dd25      	ble	11058 <.text+0xd058>
   1100c:	00fb      	lsl	r3, r7, #3
   1100e:	ac32      	add	r4, sp, #200
   11010:	18e4      	add	r4, r4, r3
   11012:	46a0      	mov	r8, r4
   11014:	4646      	mov	r6, r8
   11016:	3e08      	sub	r6, #8
   11018:	4644      	mov	r4, r8
   1101a:	6822      	ldr	r2, [r4, #0]
   1101c:	6863      	ldr	r3, [r4, #4]
   1101e:	6830      	ldr	r0, [r6, #0]
   11020:	6871      	ldr	r1, [r6, #4]
   11022:	fc69f001 	bl	128f8 <____adddf3_from_thumb>
   11026:	9000      	str	r0, [sp, #0]
   11028:	9101      	str	r1, [sp, #4]
   1102a:	9a00      	ldr	r2, [sp, #0]
   1102c:	9b01      	ldr	r3, [sp, #4]
   1102e:	6830      	ldr	r0, [r6, #0]
   11030:	6871      	ldr	r1, [r6, #4]
   11032:	fc69f001 	bl	12908 <____subdf3_from_thumb>
   11036:	1c0b      	mov	r3, r1		(add r3, r1, #0)
   11038:	1c02      	mov	r2, r0		(add r2, r0, #0)
   1103a:	6820      	ldr	r0, [r4, #0]
   1103c:	6861      	ldr	r1, [r4, #4]
   1103e:	fc5bf001 	bl	128f8 <____adddf3_from_thumb>
   11042:	9b00      	ldr	r3, [sp, #0]
   11044:	9c01      	ldr	r4, [sp, #4]
   11046:	4642      	mov	r2, r8
   11048:	3f01      	sub	r7, #1
   1104a:	6010      	str	r0, [r2, #0]
   1104c:	6051      	str	r1, [r2, #4]
   1104e:	46b0      	mov	r8, r6
   11050:	6033      	str	r3, [r6, #0]
   11052:	6074      	str	r4, [r6, #4]
   11054:	2f00      	cmp	r7, #0
   11056:	dcdd      	bgt	11014 <.text+0xd014>
   11058:	4657      	mov	r7, sl
   1105a:	2f01      	cmp	r7, #1
   1105c:	dd25      	ble	110aa <.text+0xd0aa>
   1105e:	00fb      	lsl	r3, r7, #3
   11060:	ac32      	add	r4, sp, #200
   11062:	18e4      	add	r4, r4, r3
   11064:	46a0      	mov	r8, r4
   11066:	4646      	mov	r6, r8
   11068:	3e08      	sub	r6, #8
   1106a:	4644      	mov	r4, r8
   1106c:	6822      	ldr	r2, [r4, #0]
   1106e:	6863      	ldr	r3, [r4, #4]
   11070:	6830      	ldr	r0, [r6, #0]
   11072:	6871      	ldr	r1, [r6, #4]
   11074:	fc40f001 	bl	128f8 <____adddf3_from_thumb>
   11078:	9000      	str	r0, [sp, #0]
   1107a:	9101      	str	r1, [sp, #4]
   1107c:	9a00      	ldr	r2, [sp, #0]
   1107e:	9b01      	ldr	r3, [sp, #4]
   11080:	6830      	ldr	r0, [r6, #0]
   11082:	6871      	ldr	r1, [r6, #4]
   11084:	fc40f001 	bl	12908 <____subdf3_from_thumb>
   11088:	1c0b      	mov	r3, r1		(add r3, r1, #0)
   1108a:	1c02      	mov	r2, r0		(add r2, r0, #0)
   1108c:	6820      	ldr	r0, [r4, #0]
   1108e:	6861      	ldr	r1, [r4, #4]
   11090:	fc32f001 	bl	128f8 <____adddf3_from_thumb>
   11094:	9b00      	ldr	r3, [sp, #0]
   11096:	9c01      	ldr	r4, [sp, #4]
   11098:	4642      	mov	r2, r8
   1109a:	3f01      	sub	r7, #1
   1109c:	6010      	str	r0, [r2, #0]
   1109e:	6051      	str	r1, [r2, #4]
   110a0:	46b0      	mov	r8, r6
   110a2:	6033      	str	r3, [r6, #0]
   110a4:	6074      	str	r4, [r6, #4]
   110a6:	2f01      	cmp	r7, #1
   110a8:	dcdd      	bgt	11066 <.text+0xd066>
   110aa:	4a55      	ldr	r2, [pc, #340]	(11200 <.text+0xd200>)
   110ac:	4953      	ldr	r1, [pc, #332]	(111fc <.text+0xd1fc>)
   110ae:	4657      	mov	r7, sl
   110b0:	9100      	str	r1, [sp, #0]
   110b2:	9201      	str	r2, [sp, #4]
   110b4:	2f01      	cmp	r7, #1
   110b6:	dd0e      	ble	110d6 <.text+0xd0d6>
   110b8:	00fb      	lsl	r3, r7, #3
   110ba:	aa32      	add	r2, sp, #200
   110bc:	189c      	add	r4, r3, r2
   110be:	6822      	ldr	r2, [r4, #0]
   110c0:	6863      	ldr	r3, [r4, #4]
   110c2:	9800      	ldr	r0, [sp, #0]
   110c4:	9901      	ldr	r1, [sp, #4]
   110c6:	fc17f001 	bl	128f8 <____adddf3_from_thumb>
   110ca:	3f01      	sub	r7, #1
   110cc:	3c08      	sub	r4, #8
   110ce:	9000      	str	r0, [sp, #0]
   110d0:	9101      	str	r1, [sp, #4]
   110d2:	2f01      	cmp	r7, #1
   110d4:	dcf3      	bgt	110be <.text+0xd0be>
   110d6:	465b      	mov	r3, fp
   110d8:	2b00      	cmp	r3, #0
   110da:	d16f      	bne	111bc <.text+0xd1bc>
   110dc:	9b32      	ldr	r3, [sp, #200]
   110de:	9c33      	ldr	r4, [sp, #204]
   110e0:	9908      	ldr	r1, [sp, #32]
   110e2:	600b      	str	r3, [r1, #0]
   110e4:	604c      	str	r4, [r1, #4]
   110e6:	9b34      	ldr	r3, [sp, #208]
   110e8:	9c35      	ldr	r4, [sp, #212]
   110ea:	608b      	str	r3, [r1, #8]
   110ec:	60cc      	str	r4, [r1, #12]
   110ee:	9b00      	ldr	r3, [sp, #0]
   110f0:	9c01      	ldr	r4, [sp, #4]
   110f2:	610b      	str	r3, [r1, #16]
   110f4:	614c      	str	r4, [r1, #20]
   110f6:	e72c      	b	10f52 <.text+0xcf52>
   110f8:	9c04      	ldr	r4, [sp, #16]
   110fa:	9802      	ldr	r0, [sp, #8]
   110fc:	9903      	ldr	r1, [sp, #12]
   110fe:	4262      	neg	r2, r4
   11100:	f9f2f000 	bl	114e8 <scalbn>
   11104:	4a3f      	ldr	r2, [pc, #252]	(11204 <.text+0xd204>)
   11106:	4b40      	ldr	r3, [pc, #256]	(11208 <.text+0xd208>)
   11108:	9002      	str	r0, [sp, #8]
   1110a:	9103      	str	r1, [sp, #12]
   1110c:	fc18f001 	bl	12940 <____gedf2_from_thumb>
   11110:	2800      	cmp	r0, #0
   11112:	db6b      	blt	111ec <.text+0xd1ec>
   11114:	4a3d      	ldr	r2, [pc, #244]	(1120c <.text+0xd20c>)
   11116:	4b3e      	ldr	r3, [pc, #248]	(11210 <.text+0xd210>)
   11118:	9802      	ldr	r0, [sp, #8]
   1111a:	9903      	ldr	r1, [sp, #12]
   1111c:	fbf0f001 	bl	12900 <____muldf3_from_thumb>
   11120:	fc06f001 	bl	12930 <____fixdfsi_from_thumb>
   11124:	fc08f001 	bl	12938 <____floatsidf_from_thumb>
   11128:	9000      	str	r0, [sp, #0]
   1112a:	9101      	str	r1, [sp, #4]
   1112c:	4651      	mov	r1, sl
   1112e:	008c      	lsl	r4, r1, #2
   11130:	aa82      	add	r2, sp, #520
   11132:	18a4      	add	r4, r4, r2
   11134:	9800      	ldr	r0, [sp, #0]
   11136:	9901      	ldr	r1, [sp, #4]
   11138:	4a32      	ldr	r2, [pc, #200]	(11204 <.text+0xd204>)
   1113a:	4b33      	ldr	r3, [pc, #204]	(11208 <.text+0xd208>)
   1113c:	fbe0f001 	bl	12900 <____muldf3_from_thumb>
   11140:	1c0b      	mov	r3, r1		(add r3, r1, #0)
   11142:	1c02      	mov	r2, r0		(add r2, r0, #0)
   11144:	9802      	ldr	r0, [sp, #8]
   11146:	9903      	ldr	r1, [sp, #12]
   11148:	fbdef001 	bl	12908 <____subdf3_from_thumb>
   1114c:	fbf0f001 	bl	12930 <____fixdfsi_from_thumb>
   11150:	2301      	mov	r3, #1
   11152:	6020      	str	r0, [r4, #0]
   11154:	9c04      	ldr	r4, [sp, #16]
   11156:	449a      	add	sl, r3
   11158:	3418      	add	r4, #24
   1115a:	4651      	mov	r1, sl
   1115c:	9404      	str	r4, [sp, #16]
   1115e:	aa82      	add	r2, sp, #520
   11160:	008c      	lsl	r4, r1, #2
   11162:	9800      	ldr	r0, [sp, #0]
   11164:	9901      	ldr	r1, [sp, #4]
   11166:	18a4      	add	r4, r4, r2
   11168:	fbe2f001 	bl	12930 <____fixdfsi_from_thumb>
   1116c:	6020      	str	r0, [r4, #0]
   1116e:	e64a      	b	10e06 <.text+0xce06>
   11170:	2a00      	cmp	r2, #0
   11172:	d000      	beq	11176 <.text+0xd176>
   11174:	e6ed      	b	10f52 <.text+0xcf52>
   11176:	4a22      	ldr	r2, [pc, #136]	(11200 <.text+0xd200>)
   11178:	4920      	ldr	r1, [pc, #128]	(111fc <.text+0xd1fc>)
   1117a:	4657      	mov	r7, sl
   1117c:	9100      	str	r1, [sp, #0]
   1117e:	9201      	str	r2, [sp, #4]
   11180:	2f00      	cmp	r7, #0
   11182:	db0d      	blt	111a0 <.text+0xd1a0>
   11184:	00fb      	lsl	r3, r7, #3
   11186:	aa32      	add	r2, sp, #200
   11188:	189c      	add	r4, r3, r2
   1118a:	6822      	ldr	r2, [r4, #0]
   1118c:	6863      	ldr	r3, [r4, #4]
   1118e:	9800      	ldr	r0, [sp, #0]
   11190:	9901      	ldr	r1, [sp, #4]
   11192:	fbb1f001 	bl	128f8 <____adddf3_from_thumb>
   11196:	3c08      	sub	r4, #8
   11198:	9000      	str	r0, [sp, #0]
   1119a:	9101      	str	r1, [sp, #4]
   1119c:	3f01      	sub	r7, #1
   1119e:	d5f4      	bpl	1118a <.text+0xd18a>
   111a0:	4659      	mov	r1, fp
   111a2:	9b00      	ldr	r3, [sp, #0]
   111a4:	9c01      	ldr	r4, [sp, #4]
   111a6:	2900      	cmp	r1, #0
   111a8:	d004      	beq	111b4 <.text+0xd1b4>
   111aa:	491a      	ldr	r1, [pc, #104]	(11214 <.text+0xd214>)
   111ac:	4a1a      	ldr	r2, [pc, #104]	(11218 <.text+0xd218>)
   111ae:	9b00      	ldr	r3, [sp, #0]
   111b0:	9c01      	ldr	r4, [sp, #4]
   111b2:	404b      	eor	r3, r1
   111b4:	9a08      	ldr	r2, [sp, #32]
   111b6:	6013      	str	r3, [r2, #0]
   111b8:	6054      	str	r4, [r2, #4]
   111ba:	e6ca      	b	10f52 <.text+0xcf52>
   111bc:	9932      	ldr	r1, [sp, #200]
   111be:	9a33      	ldr	r2, [sp, #204]
   111c0:	4d14      	ldr	r5, [pc, #80]	(11214 <.text+0xd214>)
   111c2:	4e15      	ldr	r6, [pc, #84]	(11218 <.text+0xd218>)
   111c4:	1c14      	mov	r4, r2		(add r4, r2, #0)
   111c6:	1c0b      	mov	r3, r1		(add r3, r1, #0)
   111c8:	9a08      	ldr	r2, [sp, #32]
   111ca:	406b      	eor	r3, r5
   111cc:	6013      	str	r3, [r2, #0]
   111ce:	6054      	str	r4, [r2, #4]
   111d0:	9934      	ldr	r1, [sp, #208]
   111d2:	9a35      	ldr	r2, [sp, #212]
   111d4:	1c0b      	mov	r3, r1		(add r3, r1, #0)
   111d6:	9908      	ldr	r1, [sp, #32]
   111d8:	406b      	eor	r3, r5
   111da:	1c14      	mov	r4, r2		(add r4, r2, #0)
   111dc:	608b      	str	r3, [r1, #8]
   111de:	60cc      	str	r4, [r1, #12]
   111e0:	9b00      	ldr	r3, [sp, #0]
   111e2:	9c01      	ldr	r4, [sp, #4]
   111e4:	406b      	eor	r3, r5
   111e6:	610b      	str	r3, [r1, #16]
   111e8:	614c      	str	r4, [r1, #20]
   111ea:	e6b2      	b	10f52 <.text+0xcf52>
   111ec:	4653      	mov	r3, sl
   111ee:	a982      	add	r1, sp, #520
   111f0:	009c      	lsl	r4, r3, #2
   111f2:	1864      	add	r4, r4, r1
   111f4:	9802      	ldr	r0, [sp, #8]
   111f6:	9903      	ldr	r1, [sp, #12]
   111f8:	e7b6      	b	11168 <.text+0xd168>
	...
   11206:	4170      	adc	r0, r6
   11208:	0000      	lsl	r0, r0, #0
   1120a:	0000      	lsl	r0, r0, #0
   1120c:	0000      	lsl	r0, r0, #0
   1120e:	3e70      	sub	r6, #112
   11210:	0000      	lsl	r0, r0, #0
   11212:	0000      	lsl	r0, r0, #0
   11214:	0000      	lsl	r0, r0, #0
   11216:	8000      	strh	r0, [r0, #0]
   11218:	0000      	lsl	r0, r0, #0
	...

0001121c <__kernel_sin>:
   1121c:	b5f0      	push	{r4, r5, r6, r7, lr}
   1121e:	b088      	sub	sp, #32
   11220:	9204      	str	r2, [sp, #16]
   11222:	9305      	str	r3, [sp, #20]
   11224:	4a44      	ldr	r2, [pc, #272]	(11338 <.text+0xd338>)
   11226:	4b45      	ldr	r3, [pc, #276]	(1133c <.text+0xd33c>)
   11228:	4002      	and	r2, r0
   1122a:	9006      	str	r0, [sp, #24]
   1122c:	9107      	str	r1, [sp, #28]
   1122e:	429a      	c