   1              		.file	"main_fbw.c"
   2              		.text
   3              		.align	2
   4              		.global	init_fbw
   6              	init_fbw:
   7              		@ Function supports interworking.
   8              		@ args = 0, pretend = 0, frame = 0
   9              		@ frame_needed = 1, uses_anonymous_args = 0
  10 0000 8C219FE5 		ldr	r2, .L16
  11 0004 0DC0A0E1 		mov	ip, sp
  12 0008 2430A0E3 		mov	r3, #36
  13 000c 30D82DE9 		stmfd	sp!, {r4, r5, fp, ip, lr, pc}
  14 0010 8430C2E5 		strb	r3, [r2, #132]
  15 0014 233043E2 		sub	r3, r3, #35
  16 0018 8030C2E5 		strb	r3, [r2, #128]
  17 001c 573043E2 		sub	r3, r3, #87
  18 0020 8C30C2E5 		strb	r3, [r2, #140]
  19 0024 AB3083E2 		add	r3, r3, #171
  20 0028 8C30C2E5 		strb	r3, [r2, #140]
  21 002c 04B04CE2 		sub	fp, ip, #4
  22              	.L2:
  23 0030 5C519FE5 		ldr	r5, .L16
  24 0034 B838D5E1 		ldrh	r3, [r5, #136]
  25 0038 010B13E3 		tst	r3, #1024
  26 003c 0A00000A 		beq	.L2
  27 0040 0320A0E3 		mov	r2, #3
  28 0044 5530E0E3 		mvn	r3, #85
  29 0048 8020C5E5 		strb	r2, [r5, #128]
  30 004c 8C30C5E5 		strb	r3, [r5, #140]
  31 0050 AB3083E2 		add	r3, r3, #171
  32 0054 8C30C5E5 		strb	r3, [r5, #140]
  33 0058 38119FE5 		ldr	r1, .L16+4
  34 005c 0040A0E3 		mov	r4, #0
  35 0060 02C0A0E3 		mov	ip, #2
  36 0064 AB3083E2 		add	r3, r3, #171
  37 0068 0420C5E5 		strb	r2, [r5, #4]
  38 006c 01E0A0E3 		mov	lr, #1
  39 0070 00C0C5E5 		strb	ip, [r5, #0]
  40 0074 0420C5E5 		strb	r2, [r5, #4]
  41 0078 00C0C5E5 		strb	ip, [r5, #0]
  42 007c 0340C5E7 		strb	r4, [r5, r3]
  43 0080 0030E0E3 		mvn	r3, #0
  44 0084 40E0C5E5 		strb	lr, [r5, #64]
  45 0088 0C019FE5 		ldr	r0, .L16+8
  46 008c 143081E5 		str	r3, [r1, #20]
  47 0090 08319FE5 		ldr	r3, .L16+12
  48 0094 0C4081E5 		str	r4, [r1, #12]
  49 0098 343081E5 		str	r3, [r1, #52]
  50 009c 04C080E5 		str	ip, [r0, #4]
  51 00a0 0C4080E5 		str	r4, [r0, #12]
  52 00a4 144080E5 		str	r4, [r0, #20]
  53 00a8 284080E5 		str	r4, [r0, #40]
  54 00ac 3C4080E5 		str	r4, [r0, #60]
  55 00b0 04E080E5 		str	lr, [r0, #4]
  56 00b4 0C3091E5 		ldr	r3, [r1, #12]
  57 00b8 1030C3E3 		bic	r3, r3, #16
  58 00bc 0C3081E5 		str	r3, [r1, #12]
  59 00c0 1030A0E3 		mov	r3, #16
  60 00c4 103081E5 		str	r3, [r1, #16]
  61 00c8 143083E2 		add	r3, r3, #20
  62 00cc 043281E5 		str	r3, [r1, #516]
  63 00d0 CC309FE5 		ldr	r3, .L16+16
  64 00d4 CC209FE5 		ldr	r2, .L16+20
  65 00d8 043181E5 		str	r3, [r1, #260]
  66 00dc 183092E5 		ldr	r3, [r2, #24]
  67 00e0 013283E3 		orr	r3, r3, #268435456
  68 00e4 183082E5 		str	r3, [r2, #24]
  69 00e8 0132A0E3 		mov	r3, #268435456
  70 00ec 143082E5 		str	r3, [r2, #20]
  71 00f0 183092E5 		ldr	r3, [r2, #24]
  72 00f4 023783E3 		orr	r3, r3, #524288
  73 00f8 183082E5 		str	r3, [r2, #24]
  74 00fc 0237A0E3 		mov	r3, #524288
  75 0100 143082E5 		str	r3, [r2, #20]
  76 0104 A0309FE5 		ldr	r3, .L16+24
  77 0108 B040C3E1 		strh	r4, [r3, #0]	@ movhi 
  78 010c 9C309FE5 		ldr	r3, .L16+28
  79 0110 004083E5 		str	r4, [r3, #0]
  80 0114 FEFFFFEB 		bl	uart1_init_tx
  81 0118 FEFFFFEB 		bl	adc_init
  82 011c 0E00A0E3 		mov	r0, #14
  83 0120 8C109FE5 		ldr	r1, .L16+32
  84 0124 2020A0E3 		mov	r2, #32
  85 0128 FEFFFFEB 		bl	adc_buf_channel
  86 012c FEFFFFEB 		bl	actuators_init
  87              	.L11:
  88 0130 80209FE5 		ldr	r2, .L16+36
  89 0134 8410A0E1 		mov	r1, r4, asl #1
  90 0138 7C309FE5 		ldr	r3, .L16+40
  91 013c 014084E2 		add	r4, r4, #1
  92 0140 B22091E1 		ldrh	r2, [r1, r2]
  93 0144 030054E3 		cmp	r4, #3
  94 0148 B32081E1 		strh	r2, [r1, r3]	@ movhi 
  95 014c 4A0000DA 		ble	.L11
  96 0150 68209FE5 		ldr	r2, .L16+44
  97 0154 003092E5 		ldr	r3, [r2, #0]
  98 0158 023A83E3 		orr	r3, r3, #8192
  99 015c 003082E5 		str	r3, [r2, #0]
 100 0160 5C009FE5 		ldr	r0, .L16+48
 101 0164 30309FE5 		ldr	r3, .L16+8
 102 0168 062DA0E3 		mov	r2, #384
 103 016c 282083E5 		str	r2, [r3, #40]
 104 0170 00C090E5 		ldr	ip, [r0, #0]
 105 0174 4C309FE5 		ldr	r3, .L16+52
 106 0178 0010A0E3 		mov	r1, #0
 107 017c 0010C3E5 		strb	r1, [r3, #0]
 108 0180 1110CCE5 		strb	r1, [ip, #17]
 109 0184 003090E5 		ldr	r3, [r0, #0]
 110 0188 1210C3E5 		strb	r1, [r3, #18]
 111 018c 30689DE8 		ldmfd	sp, {r4, r5, fp, sp, lr}
 112 0190 1EFF2FE1 		bx	lr
 113              	.L17:
 114              		.align	2
 115              	.L16:
 116 0194 00C01FE0 		.word	-534790144
 117 0198 00F0FFFF 		.word	-4096
 118 019c 004000E0 		.word	-536854528
 119 01a0 00000000 		.word	reset
 120 01a4 00000000 		.word	TIMER0_ISR
 121 01a8 008002E0 		.word	-536707072
 122 01ac 00000000 		.word	cpu_time_sec
 123 01b0 00000000 		.word	cpu_time_ticks
 124 01b4 00000000 		.word	vsupply_adc_buf
 125 01b8 00000000 		.word	commands_failsafe
 126 01bc 00000000 		.word	commands
 127 01c0 00C002E0 		.word	-536690688
 128 01c4 00000000 		.word	fbw_state
 129 01c8 00000000 		.word	ppm_valid
 131              		.bss
 132              	avg_cpt.7:
 133 0000 00       		.space	1
 134              		.global	__floatsisf
 135              		.global	__mulsf3
 136              		.global	__fixsfsi
 137              		.text
 138              		.align	2
 139              		.global	event_task_fbw
 141              	event_task_fbw:
 142              		@ Function supports interworking.
 143              		@ args = 0, pretend = 0, frame = 0
 144              		@ frame_needed = 1, uses_anonymous_args = 0
 145 01cc 0DC0A0E1 		mov	ip, sp
 146 01d0 F0DF2DE9 		stmfd	sp!, {r4, r5, r6, r7, r8, r9, sl, fp, ip, lr, pc}
 147 01d4 04B04CE2 		sub	fp, ip, #4
 148 01d8 60C59FE5 		ldr	ip, .L91
 149 01dc 0030DCE5 		ldrb	r3, [ip, #0]	@ zero_extendqisi2
 150 01e0 000053E3 		cmp	r3, #0
 151 01e4 8001000A 		beq	.L19
 152 01e8 54159FE5 		ldr	r1, .L91+4
 153 01ec 54959FE5 		ldr	r9, .L91+8
 154 01f0 0030D1E5 		ldrb	r3, [r1, #0]	@ zero_extendqisi2
 155 01f4 B040D9E1 		ldrh	r4, [r9, #0]
 156 01f8 013083E2 		add	r3, r3, #1
 157 01fc 0030C1E5 		strb	r3, [r1, #0]
 158 0200 594C44E2 		sub	r4, r4, #22784
 159 0204 40359FE5 		ldr	r3, .L91+12
 160 0208 0020A0E3 		mov	r2, #0
 161 020c 5B4044E2 		sub	r4, r4, #91
 162 0210 0020C3E5 		strb	r2, [r3, #0]
 163 0214 0448A0E1 		mov	r4, r4, asl #16
 164 0218 30359FE5 		ldr	r3, .L91+16
 165 021c 4448A0E1 		mov	r4, r4, asr #16
 166 0220 0020C3E5 		strb	r2, [r3, #0]
 167 0224 0020CCE5 		strb	r2, [ip, #0]
 168 0228 0400A0E1 		mov	r0, r4
 169 022c FEFFFFEB 		bl	__floatsisf
 170 0230 000054E3 		cmp	r4, #0
 171 0234 18159FA5 		ldrge	r1, .L91+20
 172 0238 18159FB5 		ldrlt	r1, .L91+24
 173 023c FEFFFFEB 		bl	__mulsf3
 174 0240 FEFFFFEB 		bl	__fixsfsi
 175 0244 10A59FE5 		ldr	sl, .L91+28
 176 0248 B000CAE1 		strh	r0, [sl, #0]	@ movhi 
 177 024c F030DAE1 		ldrsh	r3, [sl, #0]
 178 0250 960D53E3 		cmp	r3, #9600
 179 0254 961DA0C3 		movgt	r1, #9600	@ movhi
 180 0258 B010CAC1 		strgth	r1, [sl, #0]	@ movhi 
 181 025c 9A0000CA 		bgt	.L23
 182 0260 960D73E3 		cmn	r3, #9600
 183 0264 F4249FB5 		ldrlt	r2, .L91+32
 184 0268 EC349FB5 		ldrlt	r3, .L91+28
 185 026c B020C3B1 		strlth	r2, [r3, #0]	@ movhi 
 186              	.L23:
 187 0270 B240D9E1 		ldrh	r4, [r9, #2]
 188 0274 164B44E2 		sub	r4, r4, #22528
 189 0278 F24044E2 		sub	r4, r4, #242
 190 027c 0448A0E1 		mov	r4, r4, asl #16
 191 0280 4448A0E1 		mov	r4, r4, asr #16
 192 0284 0400A0E1 		mov	r0, r4
 193 0288 FEFFFFEB 		bl	__floatsisf
 194 028c 000054E3 		cmp	r4, #0
 195 0290 CC149FA5 		ldrge	r1, .L91+36
 196 0294 CC149FB5 		ldrlt	r1, .L91+40
 197 0298 FEFFFFEB 		bl	__mulsf3
 198 029c FEFFFFEB 		bl	__fixsfsi
 199 02a0 B4349FE5 		ldr	r3, .L91+28
 200 02a4 B200C3E1 		strh	r0, [r3, #2]	@ movhi 
 201 02a8 F230DAE1 		ldrsh	r3, [sl, #2]
 202 02ac 960D53E3 		cmp	r3, #9600
 203 02b0 962DA0C3 		movgt	r2, #9600	@ movhi
 204 02b4 B220CAC1 		strgth	r2, [sl, #2]	@ movhi 
 205 02b8 B10000CA 		bgt	.L28
 206 02bc 960D73E3 		cmn	r3, #9600
 207 02c0 98249FB5 		ldrlt	r2, .L91+32
 208 02c4 90349FB5 		ldrlt	r3, .L91+28
 209 02c8 B220C3B1 		strlth	r2, [r3, #2]	@ movhi 
 210              	.L28:
 211 02cc B400D9E1 		ldrh	r0, [r9, #4]
 212 02d0 710C40E2 		sub	r0, r0, #28928
 213 02d4 AC0040E2 		sub	r0, r0, #172
 214 02d8 0008A0E1 		mov	r0, r0, asl #16
 215 02dc 4008A0E1 		mov	r0, r0, asr #16
 216 02e0 FEFFFFEB 		bl	__floatsisf
 217 02e4 80149FE5 		ldr	r1, .L91+44
 218 02e8 FEFFFFEB 		bl	__mulsf3
 219 02ec FEFFFFEB 		bl	__fixsfsi
 220 02f0 B400CAE1 		strh	r0, [sl, #4]	@ movhi 
 221 02f4 F430DAE1 		ldrsh	r3, [sl, #4]
 222 02f8 960D53E3 		cmp	r3, #9600
 223 02fc 963DA0C3 		movgt	r3, #9600	@ movhi
 224 0300 B430CAC1 		strgth	r3, [sl, #4]	@ movhi 
 225 0304 C40000CA 		bgt	.L31
 226 0308 000053E3 		cmp	r3, #0
 227 030c 48349FB5 		ldrlt	r3, .L91+28
 228 0310 0010A0B3 		movlt	r1, #0	@ movhi
 229 0314 B410C3B1 		strlth	r1, [r3, #4]	@ movhi 
 230              	.L31:
 231 0318 B640D9E1 		ldrh	r4, [r9, #6]
 232 031c 574C44E2 		sub	r4, r4, #22272
 233 0320 C64044E2 		sub	r4, r4, #198
 234 0324 0448A0E1 		mov	r4, r4, asl #16
 235 0328 4448A0E1 		mov	r4, r4, asr #16
 236 032c 0400A0E1 		mov	r0, r4
 237 0330 FEFFFFEB 		bl	__floatsisf
 238 0334 000054E3 		cmp	r4, #0
 239 0338 30149FA5 		ldrge	r1, .L91+48
 240 033c 30149FB5 		ldrlt	r1, .L91+52
 241 0340 FEFFFFEB 		bl	__mulsf3
 242 0344 FEFFFFEB 		bl	__fixsfsi
 243 0348 0C349FE5 		ldr	r3, .L91+28
 244 034c B600C3E1 		strh	r0, [r3, #6]	@ movhi 
 245 0350 F630DAE1 		ldrsh	r3, [sl, #6]
 246 0354 960D53E3 		cmp	r3, #9600
 247 0358 962DA0C3 		movgt	r2, #9600	@ movhi
 248 035c B620CAC1 		strgth	r2, [sl, #6]	@ movhi 
 249 0360 DB0000CA 		bgt	.L36
 250 0364 960D73E3 		cmn	r3, #9600
 251 0368 F0239FB5 		ldrlt	r2, .L91+32
 252 036c E8339FB5 		ldrlt	r3, .L91+28
 253 0370 B620C3B1 		strlth	r2, [r3, #6]	@ movhi 
 254              	.L36:
 255 0374 FC839FE5 		ldr	r8, .L91+56
 256 0378 0030D8E5 		ldrb	r3, [r8, #0]	@ zero_extendqisi2
 257 037c 013083E2 		add	r3, r3, #1
 258 0380 F4739FE5 		ldr	r7, .L91+60
 259 0384 0030C8E5 		strb	r3, [r8, #0]
 260 0388 105097E5 		ldr	r5, [r7, #16]
 261 038c 143097E5 		ldr	r3, [r7, #20]
 262 0390 182097E5 		ldr	r2, [r7, #24]
 263 0394 1C1097E5 		ldr	r1, [r7, #28]
 264 0398 BE60D9E1 		ldrh	r6, [r9, #14]
 265 039c B800D9E1 		ldrh	r0, [r9, #8]
 266 03a0 BAC0D9E1 		ldrh	ip, [r9, #10]
 267 03a4 BCE0D9E1 		ldrh	lr, [r9, #12]
 268 03a8 0040D8E5 		ldrb	r4, [r8, #0]	@ zero_extendqisi2
 269 03ac 005085E0 		add	r5, r5, r0
 270 03b0 0C3083E0 		add	r3, r3, ip
 271 03b4 0E2082E0 		add	r2, r2, lr
 272 03b8 061081E0 		add	r1, r1, r6
 273 03bc 080054E3 		cmp	r4, #8
 274 03c0 143087E5 		str	r3, [r7, #20]
 275 03c4 182087E5 		str	r2, [r7, #24]
 276 03c8 1C1087E5 		str	r1, [r7, #28]
 277 03cc 105087E5 		str	r5, [r7, #16]
 278 03d0 6701001A 		bne	.L59
 279 03d4 C54FA0E1 		mov	r4, r5, asr #31
 280 03d8 A44E85E0 		add	r4, r5, r4, lsr #29
 281 03dc C441A0E1 		mov	r4, r4, asr #3
 282 03e0 594C44E2 		sub	r4, r4, #22784
 283 03e4 5B4044E2 		sub	r4, r4, #91
 284 03e8 0448A0E1 		mov	r4, r4, asl #16
 285 03ec 4448A0E1 		mov	r4, r4, asr #16
 286 03f0 0030A0E3 		mov	r3, #0
 287 03f4 0400A0E1 		mov	r0, r4
 288 03f8 0030C8E5 		strb	r3, [r8, #0]
 289 03fc FEFFFFEB 		bl	__floatsisf
 290 0400 000054E3 		cmp	r4, #0
 291 0404 74139FA5 		ldrge	r1, .L91+64
 292 0408 74139FB5 		ldrlt	r1, .L91+68
 293 040c FEFFFFEB 		bl	__mulsf3
 294 0410 FEFFFFEB 		bl	__fixsfsi
 295 0414 40339FE5 		ldr	r3, .L91+28
 296 0418 B800C3E1 		strh	r0, [r3, #8]	@ movhi 
 297 041c F820DAE1 		ldrsh	r2, [sl, #8]
 298 0420 0030A0E3 		mov	r3, #0
 299 0424 960D52E3 		cmp	r2, #9600
 300 0428 103087E5 		str	r3, [r7, #16]
 301 042c 963DA0C3 		movgt	r3, #9600	@ movhi
 302 0430 B830CAC1 		strgth	r3, [sl, #8]	@ movhi 
 303 0434 100100CA 		bgt	.L42
 304 0438 960D72E3 		cmn	r2, #9600
 305 043c 1C239FB5 		ldrlt	r2, .L91+32
 306 0440 14339FB5 		ldrlt	r3, .L91+28
 307 0444 B820C3B1 		strlth	r2, [r3, #8]	@ movhi 
 308              	.L42:
 309 0448 144097E5 		ldr	r4, [r7, #20]
 310 044c C43FA0E1 		mov	r3, r4, asr #31
 311 0450 A34E84E0 		add	r4, r4, r3, lsr #29
 312 0454 C441A0E1 		mov	r4, r4, asr #3
 313 0458 594C44E2 		sub	r4, r4, #22784
 314 045c 104044E2 		sub	r4, r4, #16
 315 0460 0448A0E1 		mov	r4, r4, asl #16
 316 0464 4448A0E1 		mov	r4, r4, asr #16
 317 0468 0400A0E1 		mov	r0, r4
 318 046c FEFFFFEB 		bl	__floatsisf
 319 0470 000054E3 		cmp	r4, #0
 320 0474 0C139FA5 		ldrge	r1, .L91+72
 321 0478 0C139FB5 		ldrlt	r1, .L91+76
 322 047c FEFFFFEB 		bl	__mulsf3
 323 0480 FEFFFFEB 		bl	__fixsfsi
 324 0484 D0329FE5 		ldr	r3, .L91+28
 325 0488 BA00C3E1 		strh	r0, [r3, #10]	@ movhi 
 326 048c FA20DAE1 		ldrsh	r2, [sl, #10]
 327 0490 960D52E3 		cmp	r2, #9600
 328 0494 0030A0E3 		mov	r3, #0
 329 0498 961DA0C3 		movgt	r1, #9600	@ movhi
 330 049c 143087E5 		str	r3, [r7, #20]
 331 04a0 BA10CAC1 		strgth	r1, [sl, #10]	@ movhi 
 332 04a4 2C0100CA 		bgt	.L47
 333 04a8 960D72E3 		cmn	r2, #9600
 334 04ac AC229FB5 		ldrlt	r2, .L91+32
 335 04b0 A4329FB5 		ldrlt	r3, .L91+28
 336 04b4 BA20C3B1 		strlth	r2, [r3, #10]	@ movhi 
 337              	.L47:
 338 04b8 184097E5 		ldr	r4, [r7, #24]
 339 04bc C43FA0E1 		mov	r3, r4, asr #31
 340 04c0 A34E84E0 		add	r4, r4, r3, lsr #29
 341 04c4 C441A0E1 		mov	r4, r4, asr #3
 342 04c8 164B44E2 		sub	r4, r4, #22528
 343 04cc F24044E2 		sub	r4, r4, #242
 344 04d0 0448A0E1 		mov	r4, r4, asl #16
 345 04d4 4448A0E1 		mov	r4, r4, asr #16
 346 04d8 0400A0E1 		mov	r0, r4
 347 04dc FEFFFFEB 		bl	__floatsisf
 348 04e0 000054E3 		cmp	r4, #0
 349 04e4 A4129FA5 		ldrge	r1, .L91+80
 350 04e8 A4129FB5 		ldrlt	r1, .L91+84
 351 04ec FEFFFFEB 		bl	__mulsf3
 352 04f0 FEFFFFEB 		bl	__fixsfsi
 353 04f4 60329FE5 		ldr	r3, .L91+28
 354 04f8 BC00C3E1 		strh	r0, [r3, #12]	@ movhi 
 355 04fc FC20DAE1 		ldrsh	r2, [sl, #12]
 356 0500 960D52E3 		cmp	r2, #9600
 357 0504 0030A0E3 		mov	r3, #0
 358 0508 962DA0C3 		movgt	r2, #9600	@ movhi
 359 050c 183087E5 		str	r3, [r7, #24]
 360 0510 BC20CAC1 		strgth	r2, [sl, #12]	@ movhi 
 361 0514 480100CA 		bgt	.L52
 362 0518 960D72E3 		cmn	r2, #9600
 363 051c 3C229FB5 		ldrlt	r2, .L91+32
 364 0520 34329FB5 		ldrlt	r3, .L91+28
 365 0524 BC20C3B1 		strlth	r2, [r3, #12]	@ movhi 
 366              	.L52:
 367 0528 1C4097E5 		ldr	r4, [r7, #28]
 368 052c C43FA0E1 		mov	r3, r4, asr #31
 369 0530 A34E84E0 		add	r4, r4, r3, lsr #29
 370 0534 C441A0E1 		mov	r4, r4, asr #3
 371 0538 594C44E2 		sub	r4, r4, #22784
 372 053c 6A4044E2 		sub	r4, r4, #106
 373 0540 0448A0E1 		mov	r4, r4, asl #16
 374 0544 4448A0E1 		mov	r4, r4, asr #16
 375 0548 0400A0E1 		mov	r0, r4
 376 054c FEFFFFEB 		bl	__floatsisf
 377 0550 000054E3 		cmp	r4, #0
 378 0554 3C129FA5 		ldrge	r1, .L91+88
 379 0558 3C129FB5 		ldrlt	r1, .L91+92
 380 055c FEFFFFEB 		bl	__mulsf3
 381 0560 FEFFFFEB 		bl	__fixsfsi
 382 0564 F0319FE5 		ldr	r3, .L91+28
 383 0568 BE00C3E1 		strh	r0, [r3, #14]	@ movhi 
 384 056c FE20DAE1 		ldrsh	r2, [sl, #14]
 385 0570 0030A0E3 		mov	r3, #0
 386 0574 960D52E3 		cmp	r2, #9600
 387 0578 1C3087E5 		str	r3, [r7, #28]
 388 057c 963DA0C3 		movgt	r3, #9600	@ movhi
 389 0580 BE30CAC1 		strgth	r3, [sl, #14]	@ movhi 
 390 0584 640100CA 		bgt	.L57
 391 0588 960D72E3 		cmn	r2, #9600
 392 058c CC219FB5 		ldrlt	r2, .L91+32
 393 0590 C4319FB5 		ldrlt	r3, .L91+28
 394 0594 BE20C3B1 		strlth	r2, [r3, #14]	@ movhi 
 395              	.L57:
 396 0598 00329FE5 		ldr	r3, .L91+96
 397 059c 0120A0E3 		mov	r2, #1
 398 05a0 0020C3E5 		strb	r2, [r3, #0]
 399              	.L59:
 400 05a4 F4319FE5 		ldr	r3, .L91+96
 401 05a8 0030D3E5 		ldrb	r3, [r3, #0]	@ zero_extendqisi2
 402 05ac 000053E3 		cmp	r3, #0
 403 05b0 7201000A 		beq	.L60
 404 05b4 A0319FE5 		ldr	r3, .L91+28
 405 05b8 FE30D3E1 		ldrsh	r3, [r3, #14]
 406 05bc E0219FE5 		ldr	r2, .L91+100
 407 05c0 4B0D73E3 		cmn	r3, #4800
 408 05c4 0030A0B3 		movlt	r3, #0
 409 05c8 0130A0A3 		movge	r3, #1
 410 05cc 0030C2E5 		strb	r3, [r2, #0]
 411              	.L60:
 412 05d0 CC319FE5 		ldr	r3, .L91+100
 413 05d4 0030D3E5 		ldrb	r3, [r3, #0]	@ zero_extendqisi2
 414 05d8 000053E3 		cmp	r3, #0
 415 05dc 8001001A 		bne	.L19
 416 05e0 74319FE5 		ldr	r3, .L91+28
 417 05e4 BC219FE5 		ldr	r2, .L91+104
 418 05e8 BA10D3E1 		ldrh	r1, [r3, #10]
 419 05ec B610C2E1 		strh	r1, [r2, #6]	@ movhi 
 420 05f0 B410D3E1 		ldrh	r1, [r3, #4]
 421 05f4 B010C2E1 		strh	r1, [r2, #0]	@ movhi 
 422 05f8 B010D3E1 		ldrh	r1, [r3, #0]
 423 05fc B230D3E1 		ldrh	r3, [r3, #2]
 424 0600 B210C2E1 		strh	r1, [r2, #2]	@ movhi 
 425 0604 B430C2E1 		strh	r3, [r2, #4]	@ movhi 
 426              	.L19:
 427 0608 9C019FE5 		ldr	r0, .L91+108
 428 060c 0030D0E5 		ldrb	r3, [r0, #0]	@ zero_extendqisi2
 429 0610 000053E3 		cmp	r3, #0
 430 0614 CC01000A 		beq	.L18
 431 0618 84E19FE5 		ldr	lr, .L91+100
 432 061c 0030DEE5 		ldrb	r3, [lr, #0]	@ zero_extendqisi2
 433 0620 010053E3 		cmp	r3, #1
 434 0624 84319FE5 		ldr	r3, .L91+112
 435 0628 0010A0E3 		mov	r1, #0
 436 062c 0120A0E3 		mov	r2, #1
 437 0630 0010C0E5 		strb	r1, [r0, #0]
 438 0634 0020C3E5 		strb	r2, [r3, #0]
 439 0638 74319FE5 		ldr	r3, .L91+116
 440 063c 0010C3E5 		strb	r1, [r3, #0]
 441 0640 70319FE5 		ldr	r3, .L91+120
 442 0644 0020C3E5 		strb	r2, [r3, #0]
 443 0648 9B01001A 		bne	.L64
 444 064c 0100A0E1 		mov	r0, r1
 445              	.L68:
 446 0650 64319FE5 		ldr	r3, .L91+124
 447 0654 001093E5 		ldr	r1, [r3, #0]
 448 0658 8020A0E1 		mov	r2, r0, asl #1
 449 065c 44319FE5 		ldr	r3, .L91+104
 450 0660 010080E2 		add	r0, r0, #1
 451 0664 B11092E1 		ldrh	r1, [r2, r1]
 452 0668 030050E3 		cmp	r0, #3
 453 066c B31082E1 		strh	r1, [r2, r3]	@ movhi 
 454 0670 920100DA 		ble	.L68
 455              	.L64:
 456 0674 0010A0E3 		mov	r1, #0
 457              	.L72:
 458 0678 013081E2 		add	r3, r1, #1
 459 067c 8120A0E1 		mov	r2, r1, asl #1
 460 0680 38C19FE5 		ldr	ip, .L91+128
 461 0684 FF1003E2 		and	r1, r3, #255
 462 0688 CC309FE5 		ldr	r3, .L91+28
 463 068c 00009CE5 		ldr	r0, [ip, #0]
 464 0690 B33092E1 		ldrh	r3, [r2, r3]
 465 0694 070051E3 		cmp	r1, #7
 466 0698 B03082E1 		strh	r3, [r2, r0]	@ movhi 
 467 069c 9C01009A 		bls	.L72
 468 06a0 1C319FE5 		ldr	r3, .L91+132
 469 06a4 0030D3E5 		ldrb	r3, [r3, #0]	@ zero_extendqisi2
 470 06a8 1030C0E5 		strb	r3, [r0, #16]
 471 06ac 98309FE5 		ldr	r3, .L91+12
 472 06b0 0030D3E5 		ldrb	r3, [r3, #0]	@ zero_extendqisi2
 473 06b4 012073E2 		rsbs	r2, r3, #1
 474 06b8 0020A033 		movcc	r2, #0
 475 06bc 020053E3 		cmp	r3, #2
 476 06c0 FF200212 		andne	r2, r2, #255
 477 06c4 B301001A 		bne	.L74
 478 06c8 000052E3 		cmp	r2, #0
 479 06cc 0320A013 		movne	r2, #3
 480 06d0 0220A003 		moveq	r2, #2
 481              	.L74:
 482 06d4 0030DEE5 		ldrb	r3, [lr, #0]	@ zero_extendqisi2
 483 06d8 010053E3 		cmp	r3, #1
 484 06dc 0030DEE5 		ldrb	r3, [lr, #0]	@ zero_extendqisi2
 485 06e0 04208203 		orreq	r2, r2, #4
 486 06e4 FF200212 		andne	r2, r2, #255
 487 06e8 020053E3 		cmp	r3, #2
 488 06ec 00309CE5 		ldr	r3, [ip, #0]
 489 06f0 08208203 		orreq	r2, r2, #8
 490 06f4 FF200212 		andne	r2, r2, #255
 491 06f8 1120C3E5 		strb	r2, [r3, #17]
 492 06fc 9C109FE5 		ldr	r1, .L91+96
 493 0700 0030D1E5 		ldrb	r3, [r1, #0]	@ zero_extendqisi2
 494 0704 000053E3 		cmp	r3, #0
 495 0708 C701000A 		beq	.L79
 496 070c 00309CE5 		ldr	r3, [ip, #0]
 497 0710 1120D3E5 		ldrb	r2, [r3, #17]	@ zero_extendqisi2
 498 0714 102082E3 		orr	r2, r2, #16
 499 0718 1120C3E5 		strb	r2, [r3, #17]
 500 071c 0030A0E3 		mov	r3, #0
 501 0720 0030C1E5 		strb	r3, [r1, #0]
 502              	.L79:
 503 0724 94309FE5 		ldr	r3, .L91+128
 504 0728 002093E5 		ldr	r2, [r3, #0]
 505 072c 94309FE5 		ldr	r3, .L91+136
 506 0730 0030D3E5 		ldrb	r3, [r3, #0]	@ zero_extendqisi2
 507 0734 1330C2E5 		strb	r3, [r2, #19]
 508              	.L18:
 509 0738 F06F9DE8 		ldmfd	sp, {r4, r5, r6, r7, r8, r9, sl, fp, sp, lr}
 510 073c 1EFF2FE1 		bx	lr
 511              	.L92:
 512              		.align	2
 513              	.L91:
 514 0740 00000000 		.word	ppm_valid
 515 0744 00000000 		.word	ppm_cpt
 516 0748 00000000 		.word	ppm_pulses
 517 074c 00000000 		.word	rc_status
 518 0750 00000000 		.word	time_since_last_ppm
 519 0754 E059C7BF 		.word	-1077454368
 520 0758 D8DFC5BF 		.word	-1077551144
 521 075c 00000000 		.word	rc_values
 522 0760 80DAFFFF 		.word	-9600
 523 0764 5C83C33F 		.word	1069777756
 524 0768 79CEC93F 		.word	1070190201
 525 076c 289C46BF 		.word	-1085891544
 526 0770 76EDD5BF 		.word	-1076499082
 527 0774 E156B9BF 		.word	-1078372639
 528 0778 00000000 		.word	avg_cpt.7
 529 077c 00000000 		.word	avg_rc_values
 530 0780 165B93BF 		.word	-1080861930
 531 0784 869A93BF 		.word	-1080845690
 532 0788 5FCF923F 		.word	1066585951
 533 078c A9F6943F 		.word	1066727081
 534 0790 238C923F 		.word	1066568739
 535 0794 DA81953F 		.word	1066762714
 536 0798 9A4D92BF 		.word	-1080930918
 537 079c 2F2394BF 		.word	-1080810705
 538 07a0 00000000 		.word	rc_values_contains_avg_channels
 539 07a4 00000000 		.word	fbw_mode
 540 07a8 00000000 		.word	commands
 541 07ac 00000000 		.word	inter_mcu_received_ap
 542 07b0 00000000 		.word	inter_mcu_received_fbw
 543 07b4 00000000 		.word	time_since_last_ap
 544 07b8 00000000 		.word	ap_ok
 545 07bc 00000000 		.word	ap_state
 546 07c0 00000000 		.word	fbw_state
 547 07c4 00000000 		.word	last_ppm_cpt
 548 07c8 00000000 		.word	fbw_vsupply_decivolt
 550              		.bss
 551              	_10Hz.0:
 552 0001 00       		.space	1
 553              	_1Hz.1:
 554 0002 00       		.space	1
 555              	i60.2:
 556 0003 00       		.space	1
 557              		.align	1
 558              	i300.3:
 559 0004 0000     		.space	2
 560              	i30.4:
 561 0006 00       		.space	1
 562              	i60.5:
 563 0007 00       		.space	1
 564              		.align	1
 565              	i300.6:
 566 0008 0000     		.space	2
 567              		.global	__divsi3
 568              		.global	__floatsidf
 569              		.global	__muldf3
 570              		.global	__fixunsdfsi
 571              		.global	__fixdfsi
 572              		.global	__extendsfdf2
 573              		.global	__gtsf2
 574              		.global	__truncdfsf2
 575              		.global	__adddf3
 576              		.text
 577              		.align	2
 578              		.global	periodic_task_fbw
 580              	periodic_task_fbw:
 581              		@ Function supports interworking.
 582              		@ args = 0, pretend = 0, frame = 24
 583              		@ frame_needed = 1, uses_anonymous_args = 0
 584 07cc 0DC0A0E1 		mov	ip, sp
 585 07d0 F0DF2DE9 		stmfd	sp!, {r4, r5, r6, r7, r8, r9, sl, fp, ip, lr, pc}
 586 07d4 F00E9FE5 		ldr	r0, .L307+120
 587 07d8 04B04CE2 		sub	fp, ip, #4
 588 07dc 18D04DE2 		sub	sp, sp, #24
 589 07e0 0030D0E5 		ldrb	r3, [r0, #0]	@ zero_extendqisi2
 590 07e4 013083E2 		add	r3, r3, #1
 591 07e8 0030C0E5 		strb	r3, [r0, #0]
 592 07ec 0030D0E5 		ldrb	r3, [r0, #0]	@ zero_extendqisi2
 593 07f0 5CCE9FE5 		ldr	ip, .L307
 594 07f4 050053E3 		cmp	r3, #5
 595 07f8 0030A083 		movhi	r3, #0
 596 07fc 0030C085 		strhib	r3, [r0, #0]
 597 0800 0030DCE5 		ldrb	r3, [ip, #0]	@ zero_extendqisi2
 598 0804 013083E2 		add	r3, r3, #1
 599 0808 0030CCE5 		strb	r3, [ip, #0]
 600 080c 0030DCE5 		ldrb	r3, [ip, #0]	@ zero_extendqisi2
 601 0810 3B0053E3 		cmp	r3, #59
 602 0814 0B02009A 		bls	.L95
 603 0818 380E9FE5 		ldr	r0, .L307+4
 604 081c 383E9FE5 		ldr	r3, .L307+8
 605 0820 0010D0E5 		ldrb	r1, [r0, #0]	@ zero_extendqisi2
 606 0824 0020A0E3 		mov	r2, #0
 607 0828 0010C3E5 		strb	r1, [r3, #0]
 608 082c 0020C0E5 		strb	r2, [r0, #0]
 609 0830 0020CCE5 		strb	r2, [ip, #0]
 610              	.L95:
 611 0834 240E9FE5 		ldr	r0, .L307+12
 612 0838 0010D0E5 		ldrb	r1, [r0, #0]	@ zero_extendqisi2
 613 083c FF3001E2 		and	r3, r1, #255
 614 0840 3B0053E3 		cmp	r3, #59
 615 0844 503E9F85 		ldrhi	r3, .L307+72
 616 0848 0220A083 		movhi	r2, #2
 617 084c 0020C385 		strhib	r2, [r3, #0]
 618 0850 1902008A 		bhi	.L99
 619 0854 1D0053E3 		cmp	r3, #29
 620 0858 3C3E9F85 		ldrhi	r3, .L307+72
 621 085c 0120A083 		movhi	r2, #1
 622 0860 0020C385 		strhib	r2, [r3, #0]
 623 0864 013081E2 		add	r3, r1, #1
 624 0868 0030C0E5 		strb	r3, [r0, #0]
 625              	.L99:
 626 086c 2CEE9FE5 		ldr	lr, .L307+76
 627 0870 0030DEE5 		ldrb	r3, [lr, #0]	@ zero_extendqisi2
 628 0874 000053E3 		cmp	r3, #0
 629 0878 2202001A 		bne	.L100
 630 087c 183E9FE5 		ldr	r3, .L307+72
 631 0880 0030D3E5 		ldrb	r3, [r3, #0]	@ zero_extendqisi2
 632 0884 020053E3 		cmp	r3, #2
 633 0888 01304302 		subeq	r3, r3, #1
 634 088c 0030CE05 		streqb	r3, [lr, #0]
 635              	.L100:
 636 0890 CC2D9FE5 		ldr	r2, .L307+16
 637 0894 0030D2E5 		ldrb	r3, [r2, #0]	@ zero_extendqisi2
 638 0898 1D0053E3 		cmp	r3, #29
 639 089c C43D9F85 		ldrhi	r3, .L307+20
 640 08a0 01308392 		addls	r3, r3, #1
 641 08a4 0020A083 		movhi	r2, #0
 642 08a8 0020C385 		strhib	r2, [r3, #0]
 643 08ac 0030C295 		strlsb	r3, [r2, #0]
 644 08b0 0030DEE5 		ldrb	r3, [lr, #0]	@ zero_extendqisi2
 645 08b4 010053E3 		cmp	r3, #1
 646 08b8 3C02001A 		bne	.L104
 647 08bc A43D9FE5 		ldr	r3, .L307+20
 648 08c0 0010D3E5 		ldrb	r1, [r3, #0]	@ zero_extendqisi2
 649 08c4 000051E3 		cmp	r1, #0
 650 08c8 3C02001A 		bne	.L104
 651 08cc 0230A0E3 		mov	r3, #2
 652 08d0 0030CEE5 		strb	r3, [lr, #0]
 653 08d4 0100A0E1 		mov	r0, r1
 654              	.L108:
 655 08d8 8C2D9FE5 		ldr	r2, .L307+24
 656 08dc 8010A0E1 		mov	r1, r0, asl #1
 657 08e0 883D9FE5 		ldr	r3, .L307+28
 658 08e4 010080E2 		add	r0, r0, #1
 659 08e8 B22091E1 		ldrh	r2, [r1, r2]
 660 08ec 030050E3 		cmp	r0, #3
 661 08f0 B32081E1 		strh	r2, [r1, r3]	@ movhi 
 662 08f4 340200DA 		ble	.L108
 663              	.L104:
 664 08f8 741D9FE5 		ldr	r1, .L307+32
 665 08fc 0020D1E5 		ldrb	r2, [r1, #0]	@ zero_extendqisi2
 666 0900 000052E3 		cmp	r2, #0
 667 0904 F203001A 		bne	.L110
 668 0908 681D9FE5 		ldr	r1, .L307+36
 669 090c 0030D1E5 		ldrb	r3, [r1, #0]	@ zero_extendqisi2
 670 0910 013083E2 		add	r3, r3, #1
 671 0914 0030C1E5 		strb	r3, [r1, #0]
 672 0918 5CCD9FE5 		ldr	ip, .L307+40
 673 091c 0030D1E5 		ldrb	r3, [r1, #0]	@ zero_extendqisi2
 674 0920 3B0053E3 		cmp	r3, #59
 675 0924 B030DCE1 		ldrh	r3, [ip, #0]
 676 0928 013083E2 		add	r3, r3, #1
 677 092c B030CCE1 		strh	r3, [ip, #0]	@ movhi 
 678 0930 0020C185 		strhib	r2, [r1, #0]
 679 0934 B030DCE1 		ldrh	r3, [ip, #0]
 680 0938 4B0F53E3 		cmp	r3, #300
 681 093c 0030D1E5 		ldrb	r3, [r1, #0]	@ zero_extendqisi2
 682 0940 B020CC21 		strcsh	r2, [ip, #0]	@ movhi 
 683 0944 000053E3 		cmp	r3, #0
 684 0948 DD02001A 		bne	.L113
 685 094c 581D9FE5 		ldr	r1, .L307+88
 686 0950 605D9FE5 		ldr	r5, .L307+100
 687 0954 0030D1E5 		ldrb	r3, [r1, #0]	@ zero_extendqisi2
 688 0958 0020D5E5 		ldrb	r2, [r5, #0]	@ zero_extendqisi2
 689 095c 030052E1 		cmp	r2, r3
 690 0960 0030D125 		ldrcsb	r3, [r1, #0]	@ zero_extendqisi2
 691 0964 0030D135 		ldrccb	r3, [r1, #0]	@ zero_extendqisi2
 692 0968 02306320 		rsbcs	r3, r3, r2
 693 096c FF306322 		rsbcs	r3, r3, #255
 694 0970 03306230 		rsbcc	r3, r2, r3
 695 0974 0F0053E3 		cmp	r3, #15
 696 0978 5C0300DA 		ble	.L133
 697 097c 0020D5E5 		ldrb	r2, [r5, #0]	@ zero_extendqisi2
 698 0980 013082E2 		add	r3, r2, #1
 699 0984 0030C5E5 		strb	r3, [r5, #0]
 700 0988 0030D5E5 		ldrb	r3, [r5, #0]	@ zero_extendqisi2
 701 098c 348D9FE5 		ldr	r8, .L307+116
 702 0990 FF0053E3 		cmp	r3, #255
 703 0994 6630E0E3 		mvn	r3, #102
 704 0998 0230C8E7 		strb	r3, [r8, r2]
 705 099c 67308302 		addeq	r3, r3, #103
 706 09a0 0030C505 		streqb	r3, [r5, #0]
 707 09a4 0C1D9FE5 		ldr	r1, .L307+100
 708 09a8 0020D1E5 		ldrb	r2, [r1, #0]	@ zero_extendqisi2
 709 09ac 013082E2 		add	r3, r2, #1
 710 09b0 0030C1E5 		strb	r3, [r1, #0]
 711 09b4 0030D1E5 		ldrb	r3, [r1, #0]	@ zero_extendqisi2
 712 09b8 FF0053E3 		cmp	r3, #255
 713 09bc 0F30A0E3 		mov	r3, #15
 714 09c0 0230C8E7 		strb	r3, [r8, r2]
 715 09c4 0F304302 		subeq	r3, r3, #15
 716 09c8 0030C105 		streqb	r3, [r1, #0]
 717 09cc 0020D1E5 		ldrb	r2, [r1, #0]	@ zero_extendqisi2
 718 09d0 013082E2 		add	r3, r2, #1
 719 09d4 0030C1E5 		strb	r3, [r1, #0]
 720 09d8 0030D1E5 		ldrb	r3, [r1, #0]	@ zero_extendqisi2
 721 09dc DC9C9FE5 		ldr	r9, .L307+108
 722 09e0 FF0053E3 		cmp	r3, #255
 723 09e4 D80C9FE5 		ldr	r0, .L307+112
 724 09e8 1630A0E3 		mov	r3, #22
 725 09ec 0030C9E5 		strb	r3, [r9, #0]
 726 09f0 0F3083E2 		add	r3, r3, #15
 727 09f4 0030C0E5 		strb	r3, [r0, #0]
 728 09f8 1E3043E2 		sub	r3, r3, #30
 729 09fc 0230C8E7 		strb	r3, [r8, r2]
 730 0a00 07304302 		subeq	r3, r3, #7
 731 0a04 0030C105 		streqb	r3, [r1, #0]
 732 0a08 0020D1E5 		ldrb	r2, [r1, #0]	@ zero_extendqisi2
 733 0a0c 013082E2 		add	r3, r2, #1
 734 0a10 0030C1E5 		strb	r3, [r1, #0]
 735 0a14 0030D1E5 		ldrb	r3, [r1, #0]	@ zero_extendqisi2
 736 0a18 A4CC9FE5 		ldr	ip, .L307+112
 737 0a1c FF0053E3 		cmp	r3, #255
 738 0a20 7C30A0E3 		mov	r3, #124
 739 0a24 0030C9E5 		strb	r3, [r9, #0]
 740 0a28 253083E2 		add	r3, r3, #37
 741 0a2c 0030CCE5 		strb	r3, [ip, #0]
 742 0a30 3B3043E2 		sub	r3, r3, #59
 743 0a34 0230C8E7 		strb	r3, [r8, r2]
 744 0a38 66304302 		subeq	r3, r3, #102
 745 0a3c 0030C105 		streqb	r3, [r1, #0]
 746 0a40 0020D1E5 		ldrb	r2, [r1, #0]	@ zero_extendqisi2
 747 0a44 013082E2 		add	r3, r2, #1
 748 0a48 0030C1E5 		strb	r3, [r1, #0]
 749 0a4c 0030D1E5 		ldrb	r3, [r1, #0]	@ zero_extendqisi2
 750 0a50 6C0C9FE5 		ldr	r0, .L307+112
 751 0a54 FF0053E3 		cmp	r3, #255
 752 0a58 8030A0E3 		mov	r3, #128
 753 0a5c 0030C9E5 		strb	r3, [r9, #0]
 754 0a60 A13083E2 		add	r3, r3, #161
 755 0a64 0030C0E5 		strb	r3, [r0, #0]
 756 0a68 0430A0E3 		mov	r3, #4
 757 0a6c 0230C8E7 		strb	r3, [r8, r2]
 758 0a70 04304302 		subeq	r3, r3, #4
 759 0a74 0030C105 		streqb	r3, [r1, #0]
 760 0a78 0040A0E3 		mov	r4, #0
 761              	.L127:
 762 0a7c EC3B9FE5 		ldr	r3, .L307+28
 763 0a80 0000D5E5 		ldrb	r0, [r5, #0]	@ zero_extendqisi2
 764 0a84 8410D3E7 		ldrb	r1, [r3, r4, asl #1]	@ zero_extendqisi2
 765 0a88 0030D9E5 		ldrb	r3, [r9, #0]	@ zero_extendqisi2
 766 0a8c 012080E2 		add	r2, r0, #1
 767 0a90 0020C5E5 		strb	r2, [r5, #0]
 768 0a94 033081E0 		add	r3, r1, r3
 769 0a98 012084E2 		add	r2, r4, #1
 770 0a9c 0030C9E5 		strb	r3, [r9, #0]
 771 0aa0 1CCC9FE5 		ldr	ip, .L307+112
 772 0aa4 2C200BE5 		str	r2, [fp, #-44]
 773 0aa8 0020D5E5 		ldrb	r2, [r5, #0]	@ zero_extendqisi2
 774 0aac 0030DCE5 		ldrb	r3, [ip, #0]	@ zero_extendqisi2
 775 0ab0 00E0D9E5 		ldrb	lr, [r9, #0]	@ zero_extendqisi2
 776 0ab4 FF0052E3 		cmp	r2, #255
 777 0ab8 0E3083E0 		add	r3, r3, lr
 778 0abc 0030CCE5 		strb	r3, [ip, #0]
 779 0ac0 0030A003 		moveq	r3, #0
 780 0ac4 0030C505 		streqb	r3, [r5, #0]
 781 0ac8 0010C8E7 		strb	r1, [r8, r0]
 782 0acc E4CB9FE5 		ldr	ip, .L307+100
 783 0ad0 A81B9FE5 		ldr	r1, .L307+44
 784 0ad4 8400D1E7 		ldrb	r0, [r1, r4, asl #1]	@ zero_extendqisi2
 785 0ad8 0010DCE5 		ldrb	r1, [ip, #0]	@ zero_extendqisi2
 786 0adc DC7B9FE5 		ldr	r7, .L307+108
 787 0ae0 0E2080E0 		add	r2, r0, lr
 788 0ae4 013081E2 		add	r3, r1, #1
 789 0ae8 0030CCE5 		strb	r3, [ip, #0]
 790 0aec D0AB9FE5 		ldr	sl, .L307+112
 791 0af0 0020C7E5 		strb	r2, [r7, #0]
 792 0af4 0030DCE5 		ldrb	r3, [ip, #0]	@ zero_extendqisi2
 793 0af8 0060DAE5 		ldrb	r6, [sl, #0]	@ zero_extendqisi2
 794 0afc 00E0D7E5 		ldrb	lr, [r7, #0]	@ zero_extendqisi2
 795 0b00 FF0053E3 		cmp	r3, #255
 796 0b04 0E3086E0 		add	r3, r6, lr
 797 0b08 2C201BE5 		ldr	r2, [fp, #-44]
 798 0b0c 0030CAE5 		strb	r3, [sl, #0]
 799 0b10 B03B9FE5 		ldr	r3, .L307+116
 800 0b14 FF4002E2 		and	r4, r2, #255
 801 0b18 0100C3E7 		strb	r0, [r3, r1]
 802 0b1c 0030A003 		moveq	r3, #0
 803 0b20 0030CC05 		streqb	r3, [ip, #0]
 804 0b24 030054E3 		cmp	r4, #3
 805 0b28 9D02009A 		bls	.L127
 806 0b2c 0030D5E5 		ldrb	r3, [r5, #0]	@ zero_extendqisi2
 807 0b30 012083E2 		add	r2, r3, #1
 808 0b34 0020C5E5 		strb	r2, [r5, #0]
 809 0b38 0020D5E5 		ldrb	r2, [r5, #0]	@ zero_extendqisi2
 810 0b3c FF0052E3 		cmp	r2, #255
 811 0b40 03E0C8E7 		strb	lr, [r8, r3]
 812 0b44 0030A003 		moveq	r3, #0
 813 0b48 0030C505 		streqb	r3, [r5, #0]
 814 0b4c 0010DCE5 		ldrb	r1, [ip, #0]	@ zero_extendqisi2
 815 0b50 013081E2 		add	r3, r1, #1
 816 0b54 0030CCE5 		strb	r3, [ip, #0]
 817 0b58 640B9FE5 		ldr	r0, .L307+112
 818 0b5c 0030DCE5 		ldrb	r3, [ip, #0]	@ zero_extendqisi2
 819 0b60 0020D0E5 		ldrb	r2, [r0, #0]	@ zero_extendqisi2
 820 0b64 FF0053E3 		cmp	r3, #255
 821 0b68 583B9FE5 		ldr	r3, .L307+116
 822 0b6c 0120C3E7 		strb	r2, [r3, r1]
 823 0b70 0030A003 		moveq	r3, #0
 824 0b74 5A03000A 		beq	.L293
 825 0b78 600300EA 		b	.L131
 826              	.L113:
 827 0b7c 060053E3 		cmp	r3, #6
 828 0b80 6003001A 		bne	.L131
 829 0b84 201B9FE5 		ldr	r1, .L307+88
 830 0b88 280B9FE5 		ldr	r0, .L307+100
 831 0b8c 0030D1E5 		ldrb	r3, [r1, #0]	@ zero_extendqisi2
 832 0b90 0020D0E5 		ldrb	r2, [r0, #0]	@ zero_extendqisi2
 833 0b94 030052E1 		cmp	r2, r3
 834 0b98 0030D125 		ldrcsb	r3, [r1, #0]	@ zero_extendqisi2
 835 0b9c 0030D135 		ldrccb	r3, [r1, #0]	@ zero_extendqisi2
 836 0ba0 02306320 		rsbcs	r3, r3, r2
 837 0ba4 FF306322 		rsbcs	r3, r3, #255
 838 0ba8 03306230 		rsbcc	r3, r2, r3
 839 0bac 090053E3 		cmp	r3, #9
 840 0bb0 5C0300DA 		ble	.L133
 841 0bb4 0020D0E5 		ldrb	r2, [r0, #0]	@ zero_extendqisi2
 842 0bb8 013082E2 		add	r3, r2, #1
 843 0bbc 0030C0E5 		strb	r3, [r0, #0]
 844 0bc0 0030D0E5 		ldrb	r3, [r0, #0]	@ zero_extendqisi2
 845 0bc4 FC6A9FE5 		ldr	r6, .L307+116
 846 0bc8 FF0053E3 		cmp	r3, #255
 847 0bcc 6630E0E3 		mvn	r3, #102
 848 0bd0 0230C6E7 		strb	r3, [r6, r2]
 849 0bd4 67308302 		addeq	r3, r3, #103
 850 0bd8 D8CA9FE5 		ldr	ip, .L307+100
 851 0bdc 0030C005 		streqb	r3, [r0, #0]
 852 0be0 0020DCE5 		ldrb	r2, [ip, #0]	@ zero_extendqisi2
 853 0be4 013082E2 		add	r3, r2, #1
 854 0be8 0030CCE5 		strb	r3, [ip, #0]
 855 0bec 0030DCE5 		ldrb	r3, [ip, #0]	@ zero_extendqisi2
 856 0bf0 FF0053E3 		cmp	r3, #255
 857 0bf4 0930A0E3 		mov	r3, #9
 858 0bf8 0230C6E7 		strb	r3, [r6, r2]
 859 0bfc 09304302 		subeq	r3, r3, #9
 860 0c00 0030CC05 		streqb	r3, [ip, #0]
 861 0c04 0020DCE5 		ldrb	r2, [ip, #0]	@ zero_extendqisi2
 862 0c08 013082E2 		add	r3, r2, #1
 863 0c0c 0030CCE5 		strb	r3, [ip, #0]
 864 0c10 0030DCE5 		ldrb	r3, [ip, #0]	@ zero_extendqisi2
 865 0c14 A44A9FE5 		ldr	r4, .L307+108
 866 0c18 A45A9FE5 		ldr	r5, .L307+112
 867 0c1c FF0053E3 		cmp	r3, #255
 868 0c20 1030A0E3 		mov	r3, #16
 869 0c24 0030C4E5 		strb	r3, [r4, #0]
 870 0c28 093083E2 		add	r3, r3, #9
 871 0c2c 0030C5E5 		strb	r3, [r5, #0]
 872 0c30 123043E2 		sub	r3, r3, #18
 873 0c34 0230C6E7 		strb	r3, [r6, r2]
 874 0c38 07304302 		subeq	r3, r3, #7
 875 0c3c 0030CC05 		streqb	r3, [ip, #0]
 876 0c40 0020DCE5 		ldrb	r2, [ip, #0]	@ zero_extendqisi2
 877 0c44 013082E2 		add	r3, r2, #1
 878 0c48 0030CCE5 		strb	r3, [ip, #0]
 879 0c4c 0030DCE5 		ldrb	r3, [ip, #0]	@ zero_extendqisi2
 880 0c50 FF0053E3 		cmp	r3, #255
 881 0c54 7730A0E3 		mov	r3, #119
 882 0c58 0030C4E5 		strb	r3, [r4, #0]
 883 0c5c 193083E2 		add	r3, r3, #25
 884 0c60 0030C5E5 		strb	r3, [r5, #0]
 885 0c64 293043E2 		sub	r3, r3, #41
 886 0c68 0230C6E7 		strb	r3, [r6, r2]
 887 0c6c 67304302 		subeq	r3, r3, #103
 888 0c70 0030CC05 		streqb	r3, [ip, #0]
 889 0c74 203A9FE5 		ldr	r3, .L307+72
 890 0c78 0010DCE5 		ldrb	r1, [ip, #0]	@ zero_extendqisi2
 891 0c7c 0000D3E5 		ldrb	r0, [r3, #0]	@ zero_extendqisi2
 892 0c80 012081E2 		add	r2, r1, #1
 893 0c84 773080E2 		add	r3, r0, #119
 894 0c88 0020CCE5 		strb	r2, [ip, #0]
 895 0c8c 0030C4E5 		strb	r3, [r4, #0]
 896 0c90 0030DCE5 		ldrb	r3, [ip, #0]	@ zero_extendqisi2
 897 0c94 0020D4E5 		ldrb	r2, [r4, #0]	@ zero_extendqisi2
 898 0c98 FF0053E3 		cmp	r3, #255
 899 0c9c 903082E2 		add	r3, r2, #144
 900 0ca0 0030C5E5 		strb	r3, [r5, #0]
 901 0ca4 0030A003 		moveq	r3, #0
 902 0ca8 0030CC05 		streqb	r3, [ip, #0]
 903 0cac 0100C6E7 		strb	r0, [r6, r1]
 904 0cb0 0010DCE5 		ldrb	r1, [ip, #0]	@ zero_extendqisi2
 905 0cb4 0000DEE5 		ldrb	r0, [lr, #0]	@ zero_extendqisi2
 906 0cb8 023080E0 		add	r3, r0, r2
 907 0cbc 012081E2 		add	r2, r1, #1
 908 0cc0 0030C4E5 		strb	r3, [r4, #0]
 909 0cc4 0020CCE5 		strb	r2, [ip, #0]
 910 0cc8 0030DCE5 		ldrb	r3, [ip, #0]	@ zero_extendqisi2
 911 0ccc 00E0D4E5 		ldrb	lr, [r4, #0]	@ zero_extendqisi2
 912 0cd0 0020D5E5 		ldrb	r2, [r5, #0]	@ zero_extendqisi2
 913 0cd4 FF0053E3 		cmp	r3, #255
 914 0cd8 0E2082E0 		add	r2, r2, lr
 915 0cdc FF304302 		subeq	r3, r3, #255
 916 0ce0 0030CC05 		streqb	r3, [ip, #0]
 917 0ce4 0020C5E5 		strb	r2, [r5, #0]
 918 0ce8 0100C6E7 		strb	r0, [r6, r1]
 919 0cec B0399FE5 		ldr	r3, .L307+80
 920 0cf0 0010DCE5 		ldrb	r1, [ip, #0]	@ zero_extendqisi2
 921 0cf4 0000D3E5 		ldrb	r0, [r3, #0]	@ zero_extendqisi2
 922 0cf8 012081E2 		add	r2, r1, #1
 923 0cfc 0E3080E0 		add	r3, r0, lr
 924 0d00 0020CCE5 		strb	r2, [ip, #0]
 925 0d04 0030C4E5 		strb	r3, [r4, #0]
 926 0d08 0020DCE5 		ldrb	r2, [ip, #0]	@ zero_extendqisi2
 927 0d0c 00E0D4E5 		ldrb	lr, [r4, #0]	@ zero_extendqisi2
 928 0d10 0030D5E5 		ldrb	r3, [r5, #0]	@ zero_extendqisi2
 929 0d14 FF0052E3 		cmp	r2, #255
 930 0d18 0E3083E0 		add	r3, r3, lr
 931 0d1c 0030C5E5 		strb	r3, [r5, #0]
 932 0d20 0030A003 		moveq	r3, #0
 933 0d24 0030CC05 		streqb	r3, [ip, #0]
 934 0d28 0030DCE5 		ldrb	r3, [ip, #0]	@ zero_extendqisi2
 935 0d2c 012083E2 		add	r2, r3, #1
 936 0d30 0020CCE5 		strb	r2, [ip, #0]
 937 0d34 0020DCE5 		ldrb	r2, [ip, #0]	@ zero_extendqisi2
 938 0d38 FF0052E3 		cmp	r2, #255
 939 0d3c 0100C6E7 		strb	r0, [r6, r1]
 940 0d40 03E0C6E7 		strb	lr, [r6, r3]
 941 0d44 0030A003 		moveq	r3, #0
 942 0d48 0030CC05 		streqb	r3, [ip, #0]
 943 0d4c 0010DCE5 		ldrb	r1, [ip, #0]	@ zero_extendqisi2
 944 0d50 013081E2 		add	r3, r1, #1
 945 0d54 0030CCE5 		strb	r3, [ip, #0]
 946 0d58 0030DCE5 		ldrb	r3, [ip, #0]	@ zero_extendqisi2
 947 0d5c 0020D5E5 		ldrb	r2, [r5, #0]	@ zero_extendqisi2
 948 0d60 FF0053E3 		cmp	r3, #255
 949 0d64 0120C6E7 		strb	r2, [r6, r1]
 950 0d68 6003001A 		bne	.L131
 951 0d6c FF3043E2 		sub	r3, r3, #255
 952              	.L293:
 953 0d70 0030CCE5 		strb	r3, [ip, #0]
 954 0d74 600300EA 		b	.L131
 955              	.L133:
 956 0d78 30299FE5 		ldr	r2, .L307+92
 957 0d7c 0030D2E5 		ldrb	r3, [r2, #0]	@ zero_extendqisi2
 958 0d80 013083E2 		add	r3, r3, #1
 959 0d84 0030C2E5 		strb	r3, [r2, #0]
 960              	.L131:
 961 0d88 ECC89FE5 		ldr	ip, .L307+40
 962 0d8c B030DCE1 		ldrh	r3, [ip, #0]
 963 0d90 0C0053E3 		cmp	r3, #12
 964 0d94 F203001A 		bne	.L110
 965 0d98 0C199FE5 		ldr	r1, .L307+88
 966 0d9c 14499FE5 		ldr	r4, .L307+100
 967 0da0 0030D1E5 		ldrb	r3, [r1, #0]	@ zero_extendqisi2
 968 0da4 0020D4E5 		ldrb	r2, [r4, #0]	@ zero_extendqisi2
 969 0da8 030052E1 		cmp	r2, r3
 970 0dac 0030D125 		ldrcsb	r3, [r1, #0]	@ zero_extendqisi2
 971 0db0 0030D135 		ldrccb	r3, [r1, #0]	@ zero_extendqisi2
 972 0db4 02306320 		rsbcs	r3, r3, r2
 973 0db8 03306230 		rsbcc	r3, r2, r3
 974 0dbc FF306322 		rsbcs	r3, r3, #255
 975 0dc0 150053E3 		cmp	r3, #21
 976 0dc4 E4289FD5 		ldrle	r2, .L307+92
 977 0dc8 0030D2D5 		ldrleb	r3, [r2, #0]	@ zero_extendqisi2
 978 0dcc 013083D2 		addle	r3, r3, #1
 979 0dd0 0030C2D5 		strleb	r3, [r2, #0]
 980 0dd4 F20300DA 		ble	.L110
 981 0dd8 0020D4E5 		ldrb	r2, [r4, #0]	@ zero_extendqisi2
 982 0ddc 013082E2 		add	r3, r2, #1
 983 0de0 0030C4E5 		strb	r3, [r4, #0]
 984 0de4 0030D4E5 		ldrb	r3, [r4, #0]	@ zero_extendqisi2
 985 0de8 D8889FE5 		ldr	r8, .L307+116
 986 0dec FF0053E3 		cmp	r3, #255
 987 0df0 6630E0E3 		mvn	r3, #102
 988 0df4 0230C8E7 		strb	r3, [r8, r2]
 989 0df8 67308302 		addeq	r3, r3, #103
 990 0dfc 0030C405 		streqb	r3, [r4, #0]
 991 0e00 B0189FE5 		ldr	r1, .L307+100
 992 0e04 0020D1E5 		ldrb	r2, [r1, #0]	@ zero_extendqisi2
 993 0e08 013082E2 		add	r3, r2, #1
 994 0e0c 0030C1E5 		strb	r3, [r1, #0]
 995 0e10 0030D1E5 		ldrb	r3, [r1, #0]	@ zero_extendqisi2
 996 0e14 FF0053E3 		cmp	r3, #255
 997 0e18 1530A0E3 		mov	r3, #21
 998 0e1c 0230C8E7 		strb	r3, [r8, r2]
 999 0e20 15304302 		subeq	r3, r3, #21
 1000 0e24 0030C105 		streqb	r3, [r1, #0]
 1001 0e28 0020D1E5 		ldrb	r2, [r1, #0]	@ zero_extendqisi2
 1002 0e2c 013082E2 		add	r3, r2, #1
 1003 0e30 0030C1E5 		strb	r3, [r1, #0]
 1004 0e34 0030D1E5 		ldrb	r3, [r1, #0]	@ zero_extendqisi2
 1005 0e38 80989FE5 		ldr	r9, .L307+108
 1006 0e3c FF0053E3 		cmp	r3, #255
 1007 0e40 7CC89FE5 		ldr	ip, .L307+112
 1008 0e44 1C30A0E3 		mov	r3, #28
 1009 0e48 0030C9E5 		strb	r3, [r9, #0]
 1010 0e4c 153083E2 		add	r3, r3, #21
 1011 0e50 0030CCE5 		strb	r3, [ip, #0]
 1012 0e54 31304302 		subeq	r3, r3, #49
 1013 0e58 0030C105 		streqb	r3, [r1, #0]
 1014 0e5c 0700A0E3 		mov	r0, #7
 1015 0e60 0200C8E7 		strb	r0, [r8, r2]
 1016 0e64 0020D1E5 		ldrb	r2, [r1, #0]	@ zero_extendqisi2
 1017 0e68 013082E2 		add	r3, r2, #1
 1018 0e6c 0030C1E5 		strb	r3, [r1, #0]
 1019 0e70 0030D1E5 		ldrb	r3, [r1, #0]	@ zero_extendqisi2
 1020 0e74 48C89FE5 		ldr	ip, .L307+112
 1021 0e78 FF0053E3 		cmp	r3, #255
 1022 0e7c 8530A0E3 		mov	r3, #133
 1023 0e80 0030C9E5 		strb	r3, [r9, #0]
 1024 0e84 313083E2 		add	r3, r3, #49
 1025 0e88 0030CCE5 		strb	r3, [ip, #0]
 1026 0e8c 4D3043E2 		sub	r3, r3, #77
 1027 0e90 0230C8E7 		strb	r3, [r8, r2]
 1028 0e94 69304302 		subeq	r3, r3, #105
 1029 0e98 0030C105 		streqb	r3, [r1, #0]
 1030 0e9c 0020D1E5 		ldrb	r2, [r1, #0]	@ zero_extendqisi2
 1031 0ea0 013082E2 		add	r3, r2, #1
 1032 0ea4 0030C1E5 		strb	r3, [r1, #0]
 1033 0ea8 0030D1E5 		ldrb	r3, [r1, #0]	@ zero_extendqisi2
 1034 0eac 10C89FE5 		ldr	ip, .L307+112
 1035 0eb0 FF0053E3 		cmp	r3, #255
 1036 0eb4 8C30A0E3 		mov	r3, #140
 1037 0eb8 0030C9E5 		strb	r3, [r9, #0]
 1038 0ebc B63083E2 		add	r3, r3, #182
 1039 0ec0 0030CCE5 		strb	r3, [ip, #0]
 1040 0ec4 0030A003 		moveq	r3, #0
 1041 0ec8 0200C8E7 		strb	r0, [r8, r2]
 1042 0ecc 0030C105 		streqb	r3, [r1, #0]
 1043 0ed0 0050A0E3 		mov	r5, #0
 1044              	.L160:
 1045 0ed4 D8379FE5 		ldr	r3, .L307+96
 1046 0ed8 0000D4E5 		ldrb	r0, [r4, #0]	@ zero_extendqisi2
 1047 0edc 8510D3E7 		ldrb	r1, [r3, r5, asl #1]	@ zero_extendqisi2
 1048 0ee0 0030D9E5 		ldrb	r3, [r9, #0]	@ zero_extendqisi2
 1049 0ee4 012080E2 		add	r2, r0, #1
 1050 0ee8 0020C4E5 		strb	r2, [r4, #0]
 1051 0eec 033081E0 		add	r3, r1, r3
 1052 0ef0 012085E2 		add	r2, r5, #1
 1053 0ef4 0030C9E5 		strb	r3, [r9, #0]
 1054 0ef8 C4C79FE5 		ldr	ip, .L307+112
 1055 0efc 30200BE5 		str	r2, [fp, #-48]
 1056 0f00 0020D4E5 		ldrb	r2, [r4, #0]	@ zero_extendqisi2
 1057 0f04 0030DCE5 		ldrb	r3, [ip, #0]	@ zero_extendqisi2
 1058 0f08 00E0D9E5 		ldrb	lr, [r9, #0]	@ zero_extendqisi2
 1059 0f0c FF0052E3 		cmp	r2, #255
 1060 0f10 0E3083E0 		add	r3, r3, lr
 1061 0f14 0030CCE5 		strb	r3, [ip, #0]
 1062 0f18 0030A003 		moveq	r3, #0
 1063 0f1c 0030C405 		streqb	r3, [r4, #0]
 1064 0f20 0010C8E7 		strb	r1, [r8, r0]
 1065 0f24 8CC79FE5 		ldr	ip, .L307+100
 1066 0f28 8C179FE5 		ldr	r1, .L307+104
 1067 0f2c 8500D1E7 		ldrb	r0, [r1, r5, asl #1]	@ zero_extendqisi2
 1068 0f30 0010DCE5 		ldrb	r1, [ip, #0]	@ zero_extendqisi2
 1069 0f34 84779FE5 		ldr	r7, .L307+108
 1070 0f38 0E2080E0 		add	r2, r0, lr
 1071 0f3c 013081E2 		add	r3, r1, #1
 1072 0f40 0030CCE5 		strb	r3, [ip, #0]
 1073 0f44 78A79FE5 		ldr	sl, .L307+112
 1074 0f48 0020C7E5 		strb	r2, [r7, #0]
 1075 0f4c 0030DCE5 		ldrb	r3, [ip, #0]	@ zero_extendqisi2
 1076 0f50 0060DAE5 		ldrb	r6, [sl, #0]	@ zero_extendqisi2
 1077 0f54 00E0D7E5 		ldrb	lr, [r7, #0]	@ zero_extendqisi2
 1078 0f58 FF0053E3 		cmp	r3, #255
 1079 0f5c 0E3086E0 		add	r3, r6, lr
 1080 0f60 30201BE5 		ldr	r2, [fp, #-48]
 1081 0f64 0030CAE5 		strb	r3, [sl, #0]
 1082 0f68 58379FE5 		ldr	r3, .L307+116
 1083 0f6c FF5002E2 		and	r5, r2, #255
 1084 0f70 0100C3E7 		strb	r0, [r3, r1]
 1085 0f74 0030A003 		moveq	r3, #0
 1086 0f78 0030CC05 		streqb	r3, [ip, #0]
 1087 0f7c 060055E3 		cmp	r5, #6
 1088 0f80 B303009A 		bls	.L160
 1089 0f84 0030D4E5 		ldrb	r3, [r4, #0]	@ zero_extendqisi2
 1090 0f88 012083E2 		add	r2, r3, #1
 1091 0f8c 0020C4E5 		strb	r2, [r4, #0]
 1092 0f90 0020D4E5 		ldrb	r2, [r4, #0]	@ zero_extendqisi2
 1093 0f94 FF0052E3 		cmp	r2, #255
 1094 0f98 03E0C8E7 		strb	lr, [r8, r3]
 1095 0f9c 0030A003 		moveq	r3, #0
 1096 0fa0 0030C405 		streqb	r3, [r4, #0]
 1097 0fa4 0010DCE5 		ldrb	r1, [ip, #0]	@ zero_extendqisi2
 1098 0fa8 013081E2 		add	r3, r1, #1
 1099 0fac 0030CCE5 		strb	r3, [ip, #0]
 1100 0fb0 0C079FE5 		ldr	r0, .L307+112
 1101 0fb4 0030DCE5 		ldrb	r3, [ip, #0]	@ zero_extendqisi2
 1102 0fb8 0020D0E5 		ldrb	r2, [r0, #0]	@ zero_extendqisi2
 1103 0fbc FF0053E3 		cmp	r3, #255
 1104 0fc0 00379FE5 		ldr	r3, .L307+116
 1105 0fc4 0120C3E7 		strb	r2, [r3, r1]
 1106 0fc8 0030A003 		moveq	r3, #0
 1107 0fcc 0030CC05 		streqb	r3, [ip, #0]
 1108              	.L110:
 1109 0fd0 9CC69FE5 		ldr	ip, .L307+32
 1110 0fd4 0030DCE5 		ldrb	r3, [ip, #0]	@ zero_extendqisi2
 1111 0fd8 010053E3 		cmp	r3, #1
 1112 0fdc CD06001A 		bne	.L256
 1113 0fe0 9C269FE5 		ldr	r2, .L307+48
 1114 0fe4 0030D2E5 		ldrb	r3, [r2, #0]	@ zero_extendqisi2
 1115 0fe8 013083E2 		add	r3, r3, #1
 1116 0fec 0030C2E5 		strb	r3, [r2, #0]
 1117 0ff0 0030D2E5 		ldrb	r3, [r2, #0]	@ zero_extendqisi2
 1118 0ff4 9C069FE5 		ldr	r0, .L307+68
 1119 0ff8 1D0053E3 		cmp	r3, #29
 1120 0ffc 0030A083 		movhi	r3, #0
 1121 1000 0030C285 		strhib	r3, [r2, #0]
 1122 1004 0030D0E5 		ldrb	r3, [r0, #0]	@ zero_extendqisi2
 1123 1008 013083E2 		add	r3, r3, #1
 1124 100c 0030C0E5 		strb	r3, [r0, #0]
 1125 1010 0030D0E5 		ldrb	r3, [r0, #0]	@ zero_extendqisi2
 1126 1014 8C169FE5 		ldr	r1, .L307+84
 1127 1018 3B0053E3 		cmp	r3, #59
 1128 101c 0030A083 		movhi	r3, #0
 1129 1020 0030C085 		strhib	r3, [r0, #0]
 1130 1024 B030D1E1 		ldrh	r3, [r1, #0]
 1131 1028 013083E2 		add	r3, r3, #1
 1132 102c B030C1E1 		strh	r3, [r1, #0]	@ movhi 
 1133 1030 B030D1E1 		ldrh	r3, [r1, #0]
 1134 1034 4B0F53E3 		cmp	r3, #300
 1135 1038 0030A023 		movcs	r3, #0	@ movhi
 1136 103c B030C121 		strcsh	r3, [r1, #0]	@ movhi 
 1137 1040 0030D2E5 		ldrb	r3, [r2, #0]	@ zero_extendqisi2
 1138 1044 000053E3 		cmp	r3, #0
 1139 1048 8A04001A 		bne	.L168
 1140 104c 58169FE5 		ldr	r1, .L307+88
 1141 1050 60569FE5 		ldr	r5, .L307+100
 1142 1054 0030D1E5 		ldrb	r3, [r1, #0]	@ zero_extendqisi2
 1143 1058 0020D5E5 		ldrb	r2, [r5, #0]	@ zero_extendqisi2
 1144 105c 030052E1 		cmp	r2, r3
 1145 1060 0030D125 		ldrcsb	r3, [r1, #0]	@ zero_extendqisi2
 1146 1064 0030D135 		ldrccb	r3, [r1, #0]	@ zero_extendqisi2
 1147 1068 02306320 		rsbcs	r3, r3, r2
 1148 106c FF306322 		rsbcs	r3, r3, #255
 1149 1070 03306230 		rsbcc	r3, r2, r3
 1150 1074 170053E3 		cmp	r3, #23
 1151 1078 B30500DA 		ble	.L207
 1152 107c 0020D5E5 		ldrb	r2, [r5, #0]	@ zero_extendqisi2
 1153 1080 013082E2 		add	r3, r2, #1
 1154 1084 0030C5E5 		strb	r3, [r5, #0]
 1155 1088 0030D5E5 		ldrb	r3, [r5, #0]	@ zero_extendqisi2
 1156 108c 34869FE5 		ldr	r8, .L307+116
 1157 1090 FF0053E3 		cmp	r3, #255
 1158 1094 6630E0E3 		mvn	r3, #102
 1159 1098 0230C8E7 		strb	r3, [r8, r2]
 1160 109c 67308302 		addeq	r3, r3, #103
 1161 10a0 0030C505 		streqb	r3, [r5, #0]
 1162 10a4 0C169FE5 		ldr	r1, .L307+100
 1163 10a8 0020D1E5 		ldrb	r2, [r1, #0]	@ zero_extendqisi2
 1164 10ac 013082E2 		add	r3, r2, #1
 1165 10b0 0030C1E5 		strb	r3, [r1, #0]
 1166 10b4 0030D1E5 		ldrb	r3, [r1, #0]	@ zero_extendqisi2
 1167 10b8 FF0053E3 		cmp	r3, #255
 1168 10bc 1730A0E3 		mov	r3, #23
 1169 10c0 0230C8E7 		strb	r3, [r8, r2]
 1170 10c4 17304302 		subeq	r3, r3, #23
 1171 10c8 0030C105 		streqb	r3, [r1, #0]
 1172 10cc 0020D1E5 		ldrb	r2, [r1, #0]	@ zero_extendqisi2
 1173 10d0 013082E2 		add	r3, r2, #1
 1174 10d4 0030C1E5 		strb	r3, [r1, #0]
 1175 10d8 0030D1E5 		ldrb	r3, [r1, #0]	@ zero_extendqisi2
 1176 10dc DC959FE5 		ldr	r9, .L307+108
 1177 10e0 FF0053E3 		cmp	r3, #255
 1178 10e4 D8C59FE5 		ldr	ip, .L307+112
 1179 10e8 1E30A0E3 		mov	r3, #30
 1180 10ec 0030C9E5 		strb	r3, [r9, #0]
 1181 10f0 173083E2 		add	r3, r3, #23
 1182 10f4 0030CCE5 		strb	r3, [ip, #0]
 1183 10f8 2E3043E2 		sub	r3, r3, #46
 1184 10fc 0230C8E7 		strb	r3, [r8, r2]
 1185 1100 07304302 		subeq	r3, r3, #7
 1186 1104 0030C105 		streqb	r3, [r1, #0]
 1187 1108 0020D1E5 		ldrb	r2, [r1, #0]	@ zero_extendqisi2
 1188 110c 013082E2 		add	r3, r2, #1
 1189 1110 0030C1E5 		strb	r3, [r1, #0]
 1190 1114 0030D1E5 		ldrb	r3, [r1, #0]	@ zero_extendqisi2
 1191 1118 A4059FE5 		ldr	r0, .L307+112
 1192 111c FF0053E3 		cmp	r3, #255
 1193 1120 8230A0E3 		mov	r3, #130
 1194 1124 0030C9E5 		strb	r3, [r9, #0]
 1195 1128 353083E2 		add	r3, r3, #53
 1196 112c 0030C0E5 		strb	r3, [r0, #0]
 1197 1130 533043E2 		sub	r3, r3, #83
 1198 1134 0230C8E7 		strb	r3, [r8, r2]
 1199 1138 64304302 		subeq	r3, r3, #100
 1200 113c 0030C105 		streqb	r3, [r1, #0]
 1201 1140 0020D1E5 		ldrb	r2, [r1, #0]	@ zero_extendqisi2
 1202 1144 013082E2 		add	r3, r2, #1
 1203 1148 0030C1E5 		strb	r3, [r1, #0]
 1204 114c 0030D1E5 		ldrb	r3, [r1, #0]	@ zero_extendqisi2
 1205 1150 6CC59FE5 		ldr	ip, .L307+112
 1206 1154 FF0053E3 		cmp	r3, #255
 1207 1158 8A30A0E3 		mov	r3, #138
 1208 115c 0030C9E5 		strb	r3, [r9, #0]
 1209 1160 B73083E2 		add	r3, r3, #183
 1210 1164 0030CCE5 		strb	r3, [ip, #0]
 1211 1168 0830A0E3 		mov	r3, #8
 1212 116c 0230C8E7 		strb	r3, [r8, r2]
 1213 1170 08304302 		subeq	r3, r3, #8
 1214 1174 0030C105 		streqb	r3, [r1, #0]
 1215 1178 0040A0E3 		mov	r4, #0
 1216              	.L182:
 1217 117c 04359FE5 		ldr	r3, .L307+52
 1218 1180 0000D5E5 		ldrb	r0, [r5, #0]	@ zero_extendqisi2
 1219 1184 8410D3E7 		ldrb	r1, [r3, r4, asl #1]	@ zero_extendqisi2
 1220 1188 0030D9E5 		ldrb	r3, [r9, #0]	@ zero_extendqisi2
 1221 118c 012080E2 		add	r2, r0, #1
 1222 1190 0020C5E5 		strb	r2, [r5, #0]
 1223 1194 033081E0 		add	r3, r1, r3
 1224 1198 012084E2 		add	r2, r4, #1
 1225 119c 0030C9E5 		strb	r3, [r9, #0]
 1226 11a0 1CC59FE5 		ldr	ip, .L307+112
 1227 11a4 34200BE5 		str	r2, [fp, #-52]
 1228 11a8 0020D5E5 		ldrb	r2, [r5, #0]	@ zero_extendqisi2
 1229 11ac 0030DCE5 		ldrb	r3, [ip, #0]	@ zero_extendqisi2
 1230 11b0 00E0D9E5 		ldrb	lr, [r9, #0]	@ zero_extendqisi2
 1231 11b4 FF0052E3 		cmp	r2, #255
 1232 11b8 0E3083E0 		add	r3, r3, lr
 1233 11bc 0030CCE5 		strb	r3, [ip, #0]
 1234 11c0 0030A003 		moveq	r3, #0
 1235 11c4 0030C505 		streqb	r3, [r5, #0]
 1236 11c8 0010C8E7 		strb	r1, [r8, r0]
 1237 11cc E4C49FE5 		ldr	ip, .L307+100
 1238 11d0 B4149FE5 		ldr	r1, .L307+56
 1239 11d4 8400D1E7 		ldrb	r0, [r1, r4, asl #1]	@ zero_extendqisi2
 1240 11d8 0010DCE5 		ldrb	r1, [ip, #0]	@ zero_extendqisi2
 1241 11dc DC749FE5 		ldr	r7, .L307+108
 1242 11e0 0E2080E0 		add	r2, r0, lr
 1243 11e4 013081E2 		add	r3, r1, #1
 1244 11e8 0030CCE5 		strb	r3, [ip, #0]
 1245 11ec D0A49FE5 		ldr	sl, .L307+112
 1246 11f0 0020C7E5 		strb	r2, [r7, #0]
 1247 11f4 0030DCE5 		ldrb	r3, [ip, #0]	@ zero_extendqisi2
 1248 11f8 0060DAE5 		ldrb	r6, [sl, #0]	@ zero_extendqisi2
 1249 11fc 00E0D7E5 		ldrb	lr, [r7, #0]	@ zero_extendqisi2
 1250 1200 FF0053E3 		cmp	r3, #255
 1251 1204 0E3086E0 		add	r3, r6, lr
 1252 1208 34201BE5 		ldr	r2, [fp, #-52]
 1253 120c 0030CAE5 		strb	r3, [sl, #0]
 1254 1210 B0349FE5 		ldr	r3, .L307+116
 1255 1214 FF4002E2 		and	r4, r2, #255
 1256 1218 0100C3E7 		strb	r0, [r3, r1]
 1257 121c 0030A003 		moveq	r3, #0
 1258 1220 0030CC05 		streqb	r3, [ip, #0]
 1259 1224 070054E3 		cmp	r4, #7
 1260 1228 5D04009A 		bls	.L182
 1261 122c 7F0500EA 		b	.L306
 1262              	.L168:
 1263 1230 060053E3 		cmp	r3, #6
 1264 1234 0505001A 		bne	.L187
 1265 1238 6C149FE5 		ldr	r1, .L307+88
 1266 123c 74549FE5 		ldr	r5, .L307+100
 1267 1240 0030D1E5 		ldrb	r3, [r1, #0]	@ zero_extendqisi2
 1268 1244 0020D5E5 		ldrb	r2, [r5, #0]	@ zero_extendqisi2
 1269 1248 030052E1 		cmp	r2, r3
 1270 124c 0030D125 		ldrcsb	r3, [r1, #0]	@ zero_extendqisi2
 1271 1250 0030D135 		ldrccb	r3, [r1, #0]	@ zero_extendqisi2
 1272 1254 02306320 		rsbcs	r3, r3, r2
 1273 1258 FF306322 		rsbcs	r3, r3, #255
 1274 125c 03306230 		rsbcc	r3, r2, r3
 1275 1260 170053E3 		cmp	r3, #23
 1276 1264 B30500DA 		ble	.L207
 1277 1268 0020D5E5 		ldrb	r2, [r5, #0]	@ zero_extendqisi2
 1278 126c 013082E2 		add	r3, r2, #1
 1279 1270 0030C5E5 		strb	r3, [r5, #0]
 1280 1274 0030D5E5 		ldrb	r3, [r5, #0]	@ zero_extendqisi2
 1281 1278 48849FE5 		ldr	r8, .L307+116
 1282 127c FF0053E3 		cmp	r3, #255
 1283 1280 6630E0E3 		mvn	r3, #102
 1284 1284 0230C8E7 		strb	r3, [r8, r2]
 1285 1288 67308302 		addeq	r3, r3, #103
 1286 128c 0030C505 		streqb	r3, [r5, #0]
 1287 1290 20149FE5 		ldr	r1, .L307+100
 1288 1294 0020D1E5 		ldrb	r2, [r1, #0]	@ zero_extendqisi2
 1289 1298 013082E2 		add	r3, r2, #1
 1290 129c 0030C1E5 		strb	r3, [r1, #0]
 1291 12a0 0030D1E5 		ldrb	r3, [r1, #0]	@ zero_extendqisi2
 1292 12a4 FF0053E3 		cmp	r3, #255
 1293 12a8 1730A0E3 		mov	r3, #23
 1294 12ac 0230C8E7 		strb	r3, [r8, r2]
 1295 12b0 17304302 		subeq	r3, r3, #23
 1296 12b4 0030C105 		streqb	r3, [r1, #0]
 1297 12b8 0020D1E5 		ldrb	r2, [r1, #0]	@ zero_extendqisi2
 1298 12bc 013082E2 		add	r3, r2, #1
 1299 12c0 0030C1E5 		strb	r3, [r1, #0]
 1300 12c4 0030D1E5 		ldrb	r3, [r1, #0]	@ zero_extendqisi2
 1301 12c8 F0939FE5 		ldr	r9, .L307+108
 1302 12cc FF0053E3 		cmp	r3, #255
 1303 12d0 ECC39FE5 		ldr	ip, .L307+112
 1304 12d4 1E30A0E3 		mov	r3, #30
 1305 12d8 0030C9E5 		strb	r3, [r9, #0]
 1306 12dc 173083E2 		add	r3, r3, #23
 1307 12e0 0030CCE5 		strb	r3, [ip, #0]
 1308 12e4 2E3043E2 		sub	r3, r3, #46
 1309 12e8 0230C8E7 		strb	r3, [r8, r2]
 1310 12ec 07304302 		subeq	r3, r3, #7
 1311 12f0 0030C105 		streqb	r3, [r1, #0]
 1312 12f4 0020D1E5 		ldrb	r2, [r1, #0]	@ zero_extendqisi2
 1313 12f8 013082E2 		add	r3, r2, #1
 1314 12fc 0030C1E5 		strb	r3, [r1, #0]
 1315 1300 0030D1E5 		ldrb	r3, [r1, #0]	@ zero_extendqisi2
 1316 1304 B8039FE5 		ldr	r0, .L307+112
 1317 1308 FF0053E3 		cmp	r3, #255
 1318 130c 8330A0E3 		mov	r3, #131
 1319 1310 0030C9E5 		strb	r3, [r9, #0]
 1320 1314 353083E2 		add	r3, r3, #53
 1321 1318 0030C0E5 		strb	r3, [r0, #0]
 1322 131c 533043E2 		sub	r3, r3, #83
 1323 1320 0230C8E7 		strb	r3, [r8, r2]
 1324 1324 65304302 		subeq	r3, r3, #101
 1325 1328 0030C105 		streqb	r3, [r1, #0]
 1326 132c 0020D1E5 		ldrb	r2, [r1, #0]	@ zero_extendqisi2
 1327 1330 013082E2 		add	r3, r2, #1
 1328 1334 0030C1E5 		strb	r3, [r1, #0]
 1329 1338 0030D1E5 		ldrb	r3, [r1, #0]	@ zero_extendqisi2
 1330 133c 80C39FE5 		ldr	ip, .L307+112
 1331 1340 FF0053E3 		cmp	r3, #255
 1332 1344 8B30A0E3 		mov	r3, #139
 1333 1348 0030C9E5 		strb	r3, [r9, #0]
 1334 134c B83083E2 		add	r3, r3, #184
 1335 1350 0030CCE5 		strb	r3, [ip, #0]
 1336 1354 0830A0E3 		mov	r3, #8
 1337 1358 0230C8E7 		strb	r3, [r8, r2]
 1338 135c 08304302 		subeq	r3, r3, #8
 1339 1360 0030C105 		streqb	r3, [r1, #0]
 1340 1364 0040A0E3 		mov	r4, #0
 1341              	.L201:
 1342 1368 20339FE5 		ldr	r3, .L307+60
 1343 136c 0000D5E5 		ldrb	r0, [r5, #0]	@ zero_extendqisi2
 1344 1370 8410D3E7 		ldrb	r1, [r3, r4, asl #1]	@ zero_extendqisi2
 1345 1374 0030D9E5 		ldrb	r3, [r9, #0]	@ zero_extendqisi2
 1346 1378 012080E2 		add	r2, r0, #1
 1347 137c 0020C5E5 		strb	r2, [r5, #0]
 1348 1380 033081E0 		add	r3, r1, r3
 1349 1384 012084E2 		add	r2, r4, #1
 1350 1388 0030C9E5 		strb	r3, [r9, #0]
 1351 138c 30C39FE5 		ldr	ip, .L307+112
 1352 1390 38200BE5 		str	r2, [fp, #-56]
 1353 1394 0020D5E5 		ldrb	r2, [r5, #0]	@ zero_extendqisi2
 1354 1398 0030DCE5 		ldrb	r3, [ip, #0]	@ zero_extendqisi2
 1355 139c 00E0D9E5 		ldrb	lr, [r9, #0]	@ zero_extendqisi2
 1356 13a0 FF0052E3 		cmp	r2, #255
 1357 13a4 0E3083E0 		add	r3, r3, lr
 1358 13a8 0030CCE5 		strb	r3, [ip, #0]
 1359 13ac 0030A003 		moveq	r3, #0
 1360 13b0 0030C505 		streqb	r3, [r5, #0]
 1361 13b4 0010C8E7 		strb	r1, [r8, r0]
 1362 13b8 F8C29FE5 		ldr	ip, .L307+100
 1363 13bc D0129FE5 		ldr	r1, .L307+64
 1364 13c0 8400D1E7 		ldrb	r0, [r1, r4, asl #1]	@ zero_extendqisi2
 1365 13c4 0010DCE5 		ldrb	r1, [ip, #0]	@ zero_extendqisi2
 1366 13c8 F0729FE5 		ldr	r7, .L307+108
 1367 13cc 0E2080E0 		add	r2, r0, lr
 1368 13d0 013081E2 		add	r3, r1, #1
 1369 13d4 0030CCE5 		strb	r3, [ip, #0]
 1370 13d8 E4A29FE5 		ldr	sl, .L307+112
 1371 13dc 0020C7E5 		strb	r2, [r7, #0]
 1372 13e0 0030DCE5 		ldrb	r3, [ip, #0]	@ zero_extendqisi2
 1373 13e4 0060DAE5 		ldrb	r6, [sl, #0]	@ zero_extendqisi2
 1374 13e8 00E0D7E5 		ldrb	lr, [r7, #0]	@ zero_extendqisi2
 1375 13ec FF0053E3 		cmp	r3, #255
 1376 13f0 0E3086E0 		add	r3, r6, lr
 1377 13f4 38201BE5 		ldr	r2, [fp, #-56]
 1378 13f8 0030CAE5 		strb	r3, [sl, #0]
 1379 13fc C4329FE5 		ldr	r3, .L307+116
 1380 1400 FF4002E2 		and	r4, r2, #255
 1381 1404 0100C3E7 		strb	r0, [r3, r1]
 1382 1408 0030A003 		moveq	r3, #0
 1383 140c 0030CC05 		streqb	r3, [ip, #0]
 1384 1410 070054E3 		cmp	r4, #7
 1385 1414 D804009A 		bls	.L201
 1386 1418 7F0500EA 		b	.L306
 1387              	.L187:
 1388 141c 0C0053E3 		cmp	r3, #12
 1389 1420 B705001A 		bne	.L186
 1390 1424 80129FE5 		ldr	r1, .L307+88
 1391 1428 88529FE5 		ldr	r5, .L307+100
 1392 142c 0030D1E5 		ldrb	r3, [r1, #0]	@ zero_extendqisi2
 1393 1430 0020D5E5 		ldrb	r2, [r5, #0]	@ zero_extendqisi2
 1394 1434 030052E1 		cmp	r2, r3
 1395 1438 0030D125 		ldrcsb	r3, [r1, #0]	@ zero_extendqisi2
 1396 143c 0030D135 		ldrccb	r3, [r1, #0]	@ zero_extendqisi2
 1397 1440 02306320 		rsbcs	r3, r3, r2
 1398 1444 FF306322 		rsbcs	r3, r3, #255
 1399 1448 03306230 		rsbcc	r3, r2, r3
 1400 144c 0F0053E3 		cmp	r3, #15
 1401 1450 B30500DA 		ble	.L207
 1402 1454 0020D5E5 		ldrb	r2, [r5, #0]	@ zero_extendqisi2
 1403 1458 013082E2 		add	r3, r2, #1
 1404 145c 0030C5E5 		strb	r3, [r5, #0]
 1405 1460 0030D5E5 		ldrb	r3, [r5, #0]	@ zero_extendqisi2
 1406 1464 5C829FE5 		ldr	r8, .L307+116
 1407 1468 FF0053E3 		cmp	r3, #255
 1408 146c 6630E0E3 		mvn	r3, #102
 1409 1470 0230C8E7 		strb	r3, [r8, r2]
 1410 1474 67308302 		addeq	r3, r3, #103
 1411 1478 0030C505 		streqb	r3, [r5, #0]
 1412 147c 34129FE5 		ldr	r1, .L307+100
 1413 1480 0020D1E5 		ldrb	r2, [r1, #0]	@ zero_extendqisi2
 1414 1484 013082E2 		add	r3, r2, #1
 1415 1488 0030C1E5 		strb	r3, [r1, #0]
 1416 148c 0030D1E5 		ldrb	r3, [r1, #0]	@ zero_extendqisi2
 1417 1490 FF0053E3 		cmp	r3, #255
 1418 1494 0F30A0E3 		mov	r3, #15
 1419 1498 0230C8E7 		strb	r3, [r8, r2]
 1420 149c 0F304302 		subeq	r3, r3, #15
 1421 14a0 0030C105 		streqb	r3, [r1, #0]
 1422 14a4 0020D1E5 		ldrb	r2, [r1, #0]	@ zero_extendqisi2
 1423 14a8 013082E2 		add	r3, r2, #1
 1424 14ac 0030C1E5 		strb	r3, [r1, #0]
 1425 14b0 0030D1E5 		ldrb	r3, [r1, #0]	@ zero_extendqisi2
 1426 14b4 04929FE5 		ldr	r9, .L307+108
 1427 14b8 FF0053E3 		cmp	r3, #255
 1428 14bc 00C29FE5 		ldr	ip, .L307+112
 1429 14c0 1630A0E3 		mov	r3, #22
 1430 14c4 0030C9E5 		strb	r3, [r9, #0]
 1431 14c8 0F3083E2 		add	r3, r3, #15
 1432 14cc 0030CCE5 		strb	r3, [ip, #0]
 1433 14d0 1E3043E2 		sub	r3, r3, #30
 1434 14d4 0230C8E7 		strb	r3, [r8, r2]
 1435 14d8 07304302 		subeq	r3, r3, #7
 1436 14dc 0030C105 		streqb	r3, [r1, #0]
 1437 14e0 0020D1E5 		ldrb	r2, [r1, #0]	@ zero_extendqisi2
 1438 14e4 013082E2 		add	r3, r2, #1
 1439 14e8 0030C1E5 		strb	r3, [r1, #0]
 1440 14ec 0030D1E5 		ldrb	r3, [r1, #0]	@ zero_extendqisi2
 1441 14f0 CC019FE5 		ldr	r0, .L307+112
 1442 14f4 FF0053E3 		cmp	r3, #255
 1443 14f8 7C30A0E3 		mov	r3, #124
 1444 14fc 0030C9E5 		strb	r3, [r9, #0]
 1445 1500 253083E2 		add	r3, r3, #37
 1446 1504 0030C0E5 		strb	r3, [r0, #0]
 1447 1508 3B3043E2 		sub	r3, r3, #59
 1448 150c 0230C8E7 		strb	r3, [r8, r2]
 1449 1510 66304302 		subeq	r3, r3, #102
 1450 1514 0030C105 		streqb	r3, [r1, #0]
 1451 1518 0020D1E5 		ldrb	r2, [r1, #0]	@ zero_extendqisi2
 1452 151c 013082E2 		add	r3, r2, #1
 1453 1520 0030C1E5 		strb	r3, [r1, #0]
 1454 1524 0030D1E5 		ldrb	r3, [r1, #0]	@ zero_extendqisi2
 1455 1528 94C19FE5 		ldr	ip, .L307+112
 1456 152c FF0053E3 		cmp	r3, #255
 1457 1530 8030A0E3 		mov	r3, #128
 1458 1534 0030C9E5 		strb	r3, [r9, #0]
 1459 1538 A13083E2 		add	r3, r3, #161
 1460 153c 0030CCE5 		strb	r3, [ip, #0]
 1461 1540 0430A0E3 		mov	r3, #4
 1462 1544 0230C8E7 		strb	r3, [r8, r2]
 1463 1548 04304302 		subeq	r3, r3, #4
 1464 154c 0030C105 		streqb	r3, [r1, #0]
 1465 1550 0040A0E3 		mov	r4, #0
 1466              	.L220:
 1467 1554 14319FE5 		ldr	r3, .L307+28
 1468 1558 0000D5E5 		ldrb	r0, [r5, #0]	@ zero_extendqisi2
 1469 155c 8410D3E7 		ldrb	r1, [r3, r4, asl #1]	@ zero_extendqisi2
 1470 1560 0030D9E5 		ldrb	r3, [r9, #0]	@ zero_extendqisi2
 1471 1564 012080E2 		add	r2, r0, #1
 1472 1568 0020C5E5 		strb	r2, [r5, #0]
 1473 156c 033081E0 		add	r3, r1, r3
 1474 1570 012084E2 		add	r2, r4, #1
 1475 1574 0030C9E5 		strb	r3, [r9, #0]
 1476 1578 44C19FE5 		ldr	ip, .L307+112
 1477 157c 3C200BE5 		str	r2, [fp, #-60]
 1478 1580 0020D5E5 		ldrb	r2, [r5, #0]	@ zero_extendqisi2
 1479 1584 0030DCE5 		ldrb	r3, [ip, #0]	@ zero_extendqisi2
 1480 1588 00E0D9E5 		ldrb	lr, [r9, #0]	@ zero_extendqisi2
 1481 158c FF0052E3 		cmp	r2, #255
 1482 1590 0E3083E0 		add	r3, r3, lr
 1483 1594 0030CCE5 		strb	r3, [ip, #0]
 1484 1598 0030A003 		moveq	r3, #0
 1485 159c 0030C505 		streqb	r3, [r5, #0]
 1486 15a0 0010C8E7 		strb	r1, [r8, r0]
 1487 15a4 0CC19FE5 		ldr	ip, .L307+100
 1488 15a8 D0109FE5 		ldr	r1, .L307+44
 1489 15ac 8400D1E7 		ldrb	r0, [r1, r4, asl #1]	@ zero_extendqisi2
 1490 15b0 0010DCE5 		ldrb	r1, [ip, #0]	@ zero_extendqisi2
 1491 15b4 04719FE5 		ldr	r7, .L307+108
 1492 15b8 0E2080E0 		add	r2, r0, lr
 1493 15bc 013081E2 		add	r3, r1, #1
 1494 15c0 0030CCE5 		strb	r3, [ip, #0]
 1495 15c4 F8A09FE5 		ldr	sl, .L307+112
 1496 15c8 0020C7E5 		strb	r2, [r7, #0]
 1497 15cc 0030DCE5 		ldrb	r3, [ip, #0]	@ zero_extendqisi2
 1498 15d0 0060DAE5 		ldrb	r6, [sl, #0]	@ zero_extendqisi2
 1499 15d4 00E0D7E5 		ldrb	lr, [r7, #0]	@ zero_extendqisi2
 1500 15d8 FF0053E3 		cmp	r3, #255
 1501 15dc 0E3086E0 		add	r3, r6, lr
 1502 15e0 3C201BE5 		ldr	r2, [fp, #-60]
 1503 15e4 0030CAE5 		strb	r3, [sl, #0]
 1504 15e8 D8309FE5 		ldr	r3, .L307+116
 1505 15ec FF4002E2 		and	r4, r2, #255
 1506 15f0 0100C3E7 		strb	r0, [r3, r1]
 1507 15f4 0030A003 		moveq	r3, #0
 1508 15f8 0030CC05 		streqb	r3, [ip, #0]
 1509 15fc 030054E3 		cmp	r4, #3
 1510 1600 5305009A 		bls	.L220
 1511              	.L306:
 1512 1604 0030D5E5 		ldrb	r3, [r5, #0]	@ zero_extendqisi2
 1513 1608 012083E2 		add	r2, r3, #1
 1514 160c 0020C5E5 		strb	r2, [r5, #0]
 1515 1610 0020D5E5 		ldrb	r2, [r5, #0]	@ zero_extendqisi2
 1516 1614 FF0052E3 		cmp	r2, #255
 1517 1618 03E0C8E7 		strb	lr, [r8, r3]
 1518 161c 0030A003 		moveq	r3, #0
 1519 1620 0030C505 		streqb	r3, [r5, #0]
 1520 1624 0010DCE5 		ldrb	r1, [ip, #0]	@ zero_extendqisi2
 1521 1628 013081E2 		add	r3, r1, #1
 1522 162c 0030CCE5 		strb	r3, [ip, #0]
 1523 1630 8C009FE5 		ldr	r0, .L307+112
 1524 1634 0030DCE5 		ldrb	r3, [ip, #0]	@ zero_extendqisi2
 1525 1638 0020D0E5 		ldrb	r2, [r0, #0]	@ zero_extendqisi2
 1526 163c FF0053E3 		cmp	r3, #255
 1527 1640 80309FE5 		ldr	r3, .L307+116
 1528 1644 0120C3E7 		strb	r2, [r3, r1]
 1529 1648 0030A003 		moveq	r3, #0
 1530 164c 0030CC05 		streqb	r3, [ip, #0]
 1531 1650 B70500EA 		b	.L186
 1532              	.L308:
 1533              		.align	2
 1534              	.L307:
 1535 1654 02000000 		.word	_1Hz.1
 1536 1658 00000000 		.word	ppm_cpt
 1537 165c 00000000 		.word	last_ppm_cpt
 1538 1660 00000000 		.word	time_since_last_ppm
 1539 1664 00000000 		.word	time_since_last_ap
 1540 1668 00000000 		.word	ap_ok
 1541 166c 00000000 		.word	commands_failsafe
 1542 1670 00000000 		.word	commands
 1543 1674 00000000 		.word	telemetry_mode_Fbw
 1544 1678 03000000 		.word	i60.2
 1545 167c 04000000 		.word	i300.3
 1546 1680 01000000 		.word	commands+1
 1547 1684 06000000 		.word	i30.4
 1548 1688 00000000 		.word	ppm_pulses
 1549 168c 01000000 		.word	ppm_pulses+1
 1550 1690 00000000 		.word	rc_values
 1551 1694 01000000 		.word	rc_values+1
 1552 1698 07000000 		.word	i60.5
 1553 169c 00000000 		.word	rc_status
 1554 16a0 00000000 		.word	fbw_mode
 1555 16a4 00000000 		.word	fbw_vsupply_decivolt
 1556 16a8 08000000 		.word	i300.6
 1557 16ac 00000000 		.word	tx_tail
 1558 16b0 00000000 		.word	downlink_nb_ovrn
 1559 16b4 00000000 		.word	actuators
 1560 16b8 00000000 		.word	tx_head
 1561 16bc 01000000 		.word	actuators+1
 1562 16c0 00000000 		.word	ck_a
 1563 16c4 00000000 		.word	ck_b
 1564 16c8 00000000 		.word	tx_buf
 1565 16cc 01000000 		.word	_10Hz.0
 1566 16d0 00000000 		.word	vsupply_adc_buf
 1567              	.L207:
 1568 16d4 2C201FE5 		ldr	r2, .L307+92
 1569 16d8 0030D2E5 		ldrb	r3, [r2, #0]	@ zero_extendqisi2
 1570 16dc 013083E2 		add	r3, r3, #1
 1571 16e0 0030C2E5 		strb	r3, [r2, #0]
 1572              	.L186:
 1573 16e4 54C01FE5 		ldr	ip, .L307+68
 1574 16e8 0030DCE5 		ldrb	r3, [ip, #0]	@ zero_extendqisi2
 1575 16ec 120053E3 		cmp	r3, #18
 1576 16f0 3B06001A 		bne	.L224
 1577 16f4 50101FE5 		ldr	r1, .L307+88
 1578 16f8 48001FE5 		ldr	r0, .L307+100
 1579 16fc 0030D1E5 		ldrb	r3, [r1, #0]	@ zero_extendqisi2
 1580 1700 0020D0E5 		ldrb	r2, [r0, #0]	@ zero_extendqisi2
 1581 1704 030052E1 		cmp	r2, r3
 1582 1708 0030D125 		ldrcsb	r3, [r1, #0]	@ zero_extendqisi2
 1583 170c 0030D135 		ldrccb	r3, [r1, #0]	@ zero_extendqisi2
 1584 1710 02306320 		rsbcs	r3, r3, r2
 1585 1714 03306230 		rsbcc	r3, r2, r3
 1586 1718 FF306322 		rsbcs	r3, r3, #255
 1587 171c 090053E3 		cmp	r3, #9
 1588 1720 78201FD5 		ldrle	r2, .L307+92
 1589 1724 0030D2D5 		ldrleb	r3, [r2, #0]	@ zero_extendqisi2
 1590 1728 013083D2 		addle	r3, r3, #1
 1591 172c 0030C2D5 		strleb	r3, [r2, #0]
 1592 1730 3B0600DA 		ble	.L224
 1593 1734 0020D0E5 		ldrb	r2, [r0, #0]	@ zero_extendqisi2
 1594 1738 013082E2 		add	r3, r2, #1
 1595 173c 0030C0E5 		strb	r3, [r0, #0]
 1596 1740 0030D0E5 		ldrb	r3, [r0, #0]	@ zero_extendqisi2
 1597 1744 84601FE5 		ldr	r6, .L307+116
 1598 1748 FF0053E3 		cmp	r3, #255
 1599 174c 6630E0E3 		mvn	r3, #102
 1600 1750 0230C6E7 		strb	r3, [r6, r2]
 1601 1754 67308302 		addeq	r3, r3, #103
 1602 1758 A8C01FE5 		ldr	ip, .L307+100
 1603 175c 0030C005 		streqb	r3, [r0, #0]
 1604 1760 0020DCE5 		ldrb	r2, [ip, #0]	@ zero_extendqisi2
 1605 1764 013082E2 		add	r3, r2, #1
 1606 1768 0030CCE5 		strb	r3, [ip, #0]
 1607 176c 0030DCE5 		ldrb	r3, [ip, #0]	@ zero_extendqisi2
 1608 1770 FF0053E3 		cmp	r3, #255
 1609 1774 0930A0E3 		mov	r3, #9
 1610 1778 0230C6E7 		strb	r3, [r6, r2]
 1611 177c 09304302 		subeq	r3, r3, #9
 1612 1780 0030CC05 		streqb	r3, [ip, #0]
 1613 1784 0020DCE5 		ldrb	r2, [ip, #0]	@ zero_extendqisi2
 1614 1788 013082E2 		add	r3, r2, #1
 1615 178c 0030CCE5 		strb	r3, [ip, #0]
 1616 1790 0030DCE5 		ldrb	r3, [ip, #0]	@ zero_extendqisi2
 1617 1794 DC401FE5 		ldr	r4, .L307+108
 1618 1798 DC501FE5 		ldr	r5, .L307+112
 1619 179c FF0053E3 		cmp	r3, #255
 1620 17a0 1030A0E3 		mov	r3, #16
 1621 17a4 0030C4E5 		strb	r3, [r4, #0]
 1622 17a8 093083E2 		add	r3, r3, #9
 1623 17ac 0030C5E5 		strb	r3, [r5, #0]
 1624 17b0 123043E2 		sub	r3, r3, #18
 1625 17b4 0230C6E7 		strb	r3, [r6, r2]
 1626 17b8 07304302 		subeq	r3, r3, #7
 1627 17bc 0030CC05 		streqb	r3, [ip, #0]
 1628 17c0 0020DCE5 		ldrb	r2, [ip, #0]	@ zero_extendqisi2
 1629 17c4 013082E2 		add	r3, r2, #1
 1630 17c8 0030CCE5 		strb	r3, [ip, #0]
 1631 17cc 0030DCE5 		ldrb	r3, [ip, #0]	@ zero_extendqisi2
 1632 17d0 FF0053E3 		cmp	r3, #255
 1633 17d4 7730A0E3 		mov	r3, #119
 1634 17d8 0030C4E5 		strb	r3, [r4, #0]
 1635 17dc 193083E2 		add	r3, r3, #25
 1636 17e0 0030C5E5 		strb	r3, [r5, #0]
 1637 17e4 293043E2 		sub	r3, r3, #41
 1638 17e8 0230C6E7 		strb	r3, [r6, r2]
 1639 17ec 67304302 		subeq	r3, r3, #103
 1640 17f0 0030CC05 		streqb	r3, [ip, #0]
 1641 17f4 60311FE5 		ldr	r3, .L307+72
 1642 17f8 0010DCE5 		ldrb	r1, [ip, #0]	@ zero_extendqisi2
 1643 17fc 0000D3E5 		ldrb	r0, [r3, #0]	@ zero_extendqisi2
 1644 1800 012081E2 		add	r2, r1, #1
 1645 1804 773080E2 		add	r3, r0, #119
 1646 1808 0020CCE5 		strb	r2, [ip, #0]
 1647 180c 0030C4E5 		strb	r3, [r4, #0]
 1648 1810 0030DCE5 		ldrb	r3, [ip, #0]	@ zero_extendqisi2
 1649 1814 0020D4E5 		ldrb	r2, [r4, #0]	@ zero_extendqisi2
 1650 1818 FF0053E3 		cmp	r3, #255
 1651 181c 903082E2 		add	r3, r2, #144
 1652 1820 0030C5E5 		strb	r3, [r5, #0]
 1653 1824 0030A003 		moveq	r3, #0
 1654 1828 0030CC05 		streqb	r3, [ip, #0]
 1655 182c 0100C6E7 		strb	r0, [r6, r1]
 1656 1830 98311FE5 		ldr	r3, .L307+76
 1657 1834 0010DCE5 		ldrb	r1, [ip, #0]	@ zero_extendqisi2
 1658 1838 0000D3E5 		ldrb	r0, [r3, #0]	@ zero_extendqisi2
 1659 183c 023080E0 		add	r3, r0, r2
 1660 1840 012081E2 		add	r2, r1, #1
 1661 1844 0030C4E5 		strb	r3, [r4, #0]
 1662 1848 0020CCE5 		strb	r2, [ip, #0]
 1663 184c 0030DCE5 		ldrb	r3, [ip, #0]	@ zero_extendqisi2
 1664 1850 00E0D4E5 		ldrb	lr, [r4, #0]	@ zero_extendqisi2
 1665 1854 0020D5E5 		ldrb	r2, [r5, #0]	@ zero_extendqisi2
 1666 1858 FF0053E3 		cmp	r3, #255
 1667 185c 0E2082E0 		add	r2, r2, lr
 1668 1860 FF304302 		subeq	r3, r3, #255
 1669 1864 0030CC05 		streqb	r3, [ip, #0]
 1670 1868 0020C5E5 		strb	r2, [r5, #0]
 1671 186c 0100C6E7 		strb	r0, [r6, r1]
 1672 1870 D4311FE5 		ldr	r3, .L307+80
 1673 1874 0010DCE5 		ldrb	r1, [ip, #0]	@ zero_extendqisi2
 1674 1878 0000D3E5 		ldrb	r0, [r3, #0]	@ zero_extendqisi2
 1675 187c 012081E2 		add	r2, r1, #1
 1676 1880 0E3080E0 		add	r3, r0, lr
 1677 1884 0020CCE5 		strb	r2, [ip, #0]
 1678 1888 0030C4E5 		strb	r3, [r4, #0]
 1679 188c 0020DCE5 		ldrb	r2, [ip, #0]	@ zero_extendqisi2
 1680 1890 00E0D4E5 		ldrb	lr, [r4, #0]	@ zero_extendqisi2
 1681 1894 0030D5E5 		ldrb	r3, [r5, #0]	@ zero_extendqisi2
 1682 1898 FF0052E3 		cmp	r2, #255
 1683 189c 0E3083E0 		add	r3, r3, lr
 1684 18a0 0030C5E5 		strb	r3, [r5, #0]
 1685 18a4 0030A003 		moveq	r3, #0
 1686 18a8 0030CC05 		streqb	r3, [ip, #0]
 1687 18ac 0030DCE5 		ldrb	r3, [ip, #0]	@ zero_extendqisi2
 1688 18b0 012083E2 		add	r2, r3, #1
 1689 18b4 0020CCE5 		strb	r2, [ip, #0]
 1690 18b8 0020DCE5 		ldrb	r2, [ip, #0]	@ zero_extendqisi2
 1691 18bc FF0052E3 		cmp	r2, #255
 1692 18c0 0100C6E7 		strb	r0, [r6, r1]
 1693 18c4 03E0C6E7 		strb	lr, [r6, r3]
 1694 18c8 0030A003 		moveq	r3, #0
 1695 18cc 0030CC05 		streqb	r3, [ip, #0]
 1696 18d0 0010DCE5 		ldrb	r1, [ip, #0]	@ zero_extendqisi2
 1697 18d4 013081E2 		add	r3, r1, #1
 1698 18d8 0030CCE5 		strb	r3, [ip, #0]
 1699 18dc 0030DCE5 		ldrb	r3, [ip, #0]	@ zero_extendqisi2
 1700 18e0 0020D5E5 		ldrb	r2, [r5, #0]	@ zero_extendqisi2
 1701 18e4 FF0053E3 		cmp	r3, #255
 1702 18e8 FF304302 		subeq	r3, r3, #255
 1703 18ec 0120C6E7 		strb	r2, [r6, r1]
 1704 18f0 0030CC05 		streqb	r3, [ip, #0]
 1705              	.L224:
 1706 18f4 54021FE5 		ldr	r0, .L307+84
 1707 18f8 B030D0E1 		ldrh	r3, [r0, #0]
 1708 18fc 180053E3 		cmp	r3, #24
 1709 1900 CD06001A 		bne	.L256
 1710 1904 60121FE5 		ldr	r1, .L307+88
 1711 1908 58421FE5 		ldr	r4, .L307+100
 1712 190c 0030D1E5 		ldrb	r3, [r1, #0]	@ zero_extendqisi2
 1713 1910 0020D4E5 		ldrb	r2, [r4, #0]	@ zero_extendqisi2
 1714 1914 030052E1 		cmp	r2, r3
 1715 1918 0030D125 		ldrcsb	r3, [r1, #0]	@ zero_extendqisi2
 1716 191c 0030D135 		ldrccb	r3, [r1, #0]	@ zero_extendqisi2
 1717 1920 02306320 		rsbcs	r3, r3, r2
 1718 1924 03306230 		rsbcc	r3, r2, r3
 1719 1928 FF306322 		rsbcs	r3, r3, #255
 1720 192c 150053E3 		cmp	r3, #21
 1721 1930 88221FD5 		ldrle	r2, .L307+92
 1722 1934 0030D2D5 		ldrleb	r3, [r2, #0]	@ zero_extendqisi2
 1723 1938 013083D2 		addle	r3, r3, #1
 1724 193c 0030C2D5 		strleb	r3, [r2, #0]
 1725 1940 CD0600DA 		ble	.L256
 1726 1944 0020D4E5 		ldrb	r2, [r4, #0]	@ zero_extendqisi2
 1727 1948 013082E2 		add	r3, r2, #1
 1728 194c 0030C4E5 		strb	r3, [r4, #0]
 1729 1950 0030D4E5 		ldrb	r3, [r4, #0]	@ zero_extendqisi2
 1730 1954 94821FE5 		ldr	r8, .L307+116
 1731 1958 FF0053E3 		cmp	r3, #255
 1732 195c 6630E0E3 		mvn	r3, #102
 1733 1960 0230C8E7 		strb	r3, [r8, r2]
 1734 1964 67308302 		addeq	r3, r3, #103
 1735 1968 0030C405 		streqb	r3, [r4, #0]
 1736 196c BC121FE5 		ldr	r1, .L307+100
 1737 1970 0020D1E5 		ldrb	r2, [r1, #0]	@ zero_extendqisi2
 1738 1974 013082E2 		add	r3, r2, #1
 1739 1978 0030C1E5 		strb	r3, [r1, #0]
 1740 197c 0030D1E5 		ldrb	r3, [r1, #0]	@ zero_extendqisi2
 1741 1980 FF0053E3 		cmp	r3, #255
 1742 1984 1530A0E3 		mov	r3, #21
 1743 1988 0230C8E7 		strb	r3, [r8, r2]
 1744 198c 15304302 		subeq	r3, r3, #21
 1745 1990 0030C105 		streqb	r3, [r1, #0]
 1746 1994 0020D1E5 		ldrb	r2, [r1, #0]	@ zero_extendqisi2
 1747 1998 013082E2 		add	r3, r2, #1
 1748 199c 0030C1E5 		strb	r3, [r1, #0]
 1749 19a0 0030D1E5 		ldrb	r3, [r1, #0]	@ zero_extendqisi2
 1750 19a4 EC921FE5 		ldr	r9, .L307+108
 1751 19a8 FF0053E3 		cmp	r3, #255
 1752 19ac F0C21FE5 		ldr	ip, .L307+112
 1753 19b0 1C30A0E3 		mov	r3, #28
 1754 19b4 0030C9E5 		strb	r3, [r9, #0]
 1755 19b8 153083E2 		add	r3, r3, #21
 1756 19bc 0030CCE5 		strb	r3, [ip, #0]
 1757 19c0 31304302 		subeq	r3, r3, #49
 1758 19c4 0030C105 		streqb	r3, [r1, #0]
 1759 19c8 0700A0E3 		mov	r0, #7
 1760 19cc 0200C8E7 		strb	r0, [r8, r2]
 1761 19d0 0020D1E5 		ldrb	r2, [r1, #0]	@ zero_extendqisi2
 1762 19d4 013082E2 		add	r3, r2, #1
 1763 19d8 0030C1E5 		strb	r3, [r1, #0]
 1764 19dc 0030D1E5 		ldrb	r3, [r1, #0]	@ zero_extendqisi2
 1765 19e0 24C31FE5 		ldr	ip, .L307+112
 1766 19e4 FF0053E3 		cmp	r3, #255
 1767 19e8 8530A0E3 		mov	r3, #133
 1768 19ec 0030C9E5 		strb	r3, [r9, #0]
 1769 19f0 313083E2 		add	r3, r3, #49
 1770 19f4 0030CCE5 		strb	r3, [ip, #0]
 1771 19f8 4D3043E2 		sub	r3, r3, #77
 1772 19fc 0230C8E7 		strb	r3, [r8, r2]
 1773 1a00 69304302 		subeq	r3, r3, #105
 1774 1a04 0030C105 		streqb	r3, [r1, #0]
 1775 1a08 0020D1E5 		ldrb	r2, [r1, #0]	@ zero_extendqisi2
 1776 1a0c 013082E2 		add	r3, r2, #1
 1777 1a10 0030C1E5 		strb	r3, [r1, #0]
 1778 1a14 0030D1E5 		ldrb	r3, [r1, #0]	@ zero_extendqisi2
 1779 1a18 5CC31FE5 		ldr	ip, .L307+112
 1780 1a1c FF0053E3 		cmp	r3, #255
 1781 1a20 8C30A0E3 		mov	r3, #140
 1782 1a24 0030C9E5 		strb	r3, [r9, #0]
 1783 1a28 B63083E2 		add	r3, r3, #182
 1784 1a2c 0030CCE5 		strb	r3, [ip, #0]
 1785 1a30 0030A003 		moveq	r3, #0
 1786 1a34 0200C8E7 		strb	r0, [r8, r2]
 1787 1a38 0030C105 		streqb	r3, [r1, #0]
 1788 1a3c 0050A0E3 		mov	r5, #0
 1789              	.L252:
 1790 1a40 94331FE5 		ldr	r3, .L307+96
 1791 1a44 0000D4E5 		ldrb	r0, [r4, #0]	@ zero_extendqisi2
 1792 1a48 8510D3E7 		ldrb	r1, [r3, r5, asl #1]	@ zero_extendqisi2
 1793 1a4c 0030D9E5 		ldrb	r3, [r9, #0]	@ zero_extendqisi2
 1794 1a50 012080E2 		add	r2, r0, #1
 1795 1a54 0020C4E5 		strb	r2, [r4, #0]
 1796 1a58 033081E0 		add	r3, r1, r3
 1797 1a5c 012085E2 		add	r2, r5, #1
 1798 1a60 0030C9E5 		strb	r3, [r9, #0]
 1799 1a64 A8C31FE5 		ldr	ip, .L307+112
 1800 1a68 40200BE5 		str	r2, [fp, #-64]
 1801 1a6c 0020D4E5 		ldrb	r2, [r4, #0]	@ zero_extendqisi2
 1802 1a70 0030DCE5 		ldrb	r3, [ip, #0]	@ zero_extendqisi2
 1803 1a74 00E0D9E5 		ldrb	lr, [r9, #0]	@ zero_extendqisi2
 1804 1a78 FF0052E3 		cmp	r2, #255
 1805 1a7c 0E3083E0 		add	r3, r3, lr
 1806 1a80 0030CCE5 		strb	r3, [ip, #0]
 1807 1a84 0030A003 		moveq	r3, #0
 1808 1a88 0030C405 		streqb	r3, [r4, #0]
 1809 1a8c 0010C8E7 		strb	r1, [r8, r0]
 1810 1a90 E0C31FE5 		ldr	ip, .L307+100
 1811 1a94 E0131FE5 		ldr	r1, .L307+104
 1812 1a98 8500D1E7 		ldrb	r0, [r1, r5, asl #1]	@ zero_extendqisi2
 1813 1a9c 0010DCE5 		ldrb	r1, [ip, #0]	@ zero_extendqisi2
 1814 1aa0 E8731FE5 		ldr	r7, .L307+108
 1815 1aa4 0E2080E0 		add	r2, r0, lr
 1816 1aa8 013081E2 		add	r3, r1, #1
 1817 1aac 0030CCE5 		strb	r3, [ip, #0]
 1818 1ab0 F4A31FE5 		ldr	sl, .L307+112
 1819 1ab4 0020C7E5 		strb	r2, [r7, #0]
 1820 1ab8 0030DCE5 		ldrb	r3, [ip, #0]	@ zero_extendqisi2
 1821 1abc 0060DAE5 		ldrb	r6, [sl, #0]	@ zero_extendqisi2
 1822 1ac0 00E0D7E5 		ldrb	lr, [r7, #0]	@ zero_extendqisi2
 1823 1ac4 FF0053E3 		cmp	r3, #255
 1824 1ac8 0E3086E0 		add	r3, r6, lr
 1825 1acc 40201BE5 		ldr	r2, [fp, #-64]
 1826 1ad0 0030CAE5 		strb	r3, [sl, #0]
 1827 1ad4 14341FE5 		ldr	r3, .L307+116
 1828 1ad8 FF5002E2 		and	r5, r2, #255
 1829 1adc 0100C3E7 		strb	r0, [r3, r1]
 1830 1ae0 0030A003 		moveq	r3, #0
 1831 1ae4 0030CC05 		streqb	r3, [ip, #0]
 1832 1ae8 060055E3 		cmp	r5, #6
 1833 1aec 8E06009A 		bls	.L252
 1834 1af0 0030D4E5 		ldrb	r3, [r4, #0]	@ zero_extendqisi2
 1835 1af4 012083E2 		add	r2, r3, #1
 1836 1af8 0020C4E5 		strb	r2, [r4, #0]
 1837 1afc 0020D4E5 		ldrb	r2, [r4, #0]	@ zero_extendqisi2
 1838 1b00 FF0052E3 		cmp	r2, #255
 1839 1b04 03E0C8E7 		strb	lr, [r8, r3]
 1840 1b08 0030A003 		moveq	r3, #0
 1841 1b0c 0030C405 		streqb	r3, [r4, #0]
 1842 1b10 0010DCE5 		ldrb	r1, [ip, #0]	@ zero_extendqisi2
 1843 1b14 013081E2 		add	r3, r1, #1
 1844 1b18 0030CCE5 		strb	r3, [ip, #0]
 1845 1b1c 60041FE5 		ldr	r0, .L307+112
 1846 1b20 0030DCE5 		ldrb	r3, [ip, #0]	@ zero_extendqisi2
 1847 1b24 0020D0E5 		ldrb	r2, [r0, #0]	@ zero_extendqisi2
 1848 1b28 FF0053E3 		cmp	r3, #255
 1849 1b2c 6C341FE5 		ldr	r3, .L307+116
 1850 1b30 0120C3E7 		strb	r2, [r3, r1]
 1851 1b34 0030A003 		moveq	r3, #0
 1852 1b38 0030CC05 		streqb	r3, [ip, #0]
 1853              	.L256:
 1854 1b3c 78C41FE5 		ldr	ip, .L307+120
 1855 1b40 0030DCE5 		ldrb	r3, [ip, #0]	@ zero_extendqisi2
 1856 1b44 000053E3 		cmp	r3, #0
 1857 1b48 DE06001A 		bne	.L257
 1858 1b4c 84341FE5 		ldr	r3, .L307+124
 1859 1b50 4310D3E5 		ldrb	r1, [r3, #67]	@ zero_extendqisi2
 1860 1b54 B000D3E1 		ldrh	r0, [r3, #0]
 1861 1b58 FEFFFFEB 		bl	__divsi3
 1862 1b5c 000180E0 		add	r0, r0, r0, asl #2
 1863 1b60 8000A0E1 		mov	r0, r0, asl #1
 1864 1b64 FEFFFFEB 		bl	__floatsidf
 1865 1b68 372E8FE2 		adr	r2, .L309
 1866 1b6c 0C0092E8 		ldmia	r2, {r2-r3}
 1867 1b70 FEFFFFEB 		bl	__muldf3
 1868 1b74 FEFFFFEB 		bl	__fixunsdfsi
 1869 1b78 C0339FE5 		ldr	r3, .L309+96
 1870 1b7c 0000C3E5 		strb	r0, [r3, #0]
 1871              	.L257:
 1872 1b80 BC139FE5 		ldr	r1, .L309+100
 1873 1b84 F200D1E1 		ldrsh	r0, [r1, #2]
 1874 1b88 FEFFFFEB 		bl	__floatsidf
 1875 1b8c D52F8FE2 		adr	r2, .L309+8
 1876 1b90 0C0092E8 		ldmia	r2, {r2-r3}
 1877 1b94 FEFFFFEB 		bl	__muldf3
 1878 1b98 FEFFFFEB 		bl	__fixdfsi
 1879 1b9c A0239FE5 		ldr	r2, .L309+100
 1880 1ba0 0038A0E1 		mov	r3, r0, asl #16
 1881 1ba4 F400D2E1 		ldrsh	r0, [r2, #4]
 1882 1ba8 2388A0E1 		mov	r8, r3, lsr #16
 1883 1bac FEFFFFEB 		bl	__floatsidf
 1884 1bb0 CE2F8FE2 		adr	r2, .L309+16
 1885 1bb4 0C0092E8 		ldmia	r2, {r2-r3}
 1886 1bb8 FEFFFFEB 		bl	__muldf3
 1887 1bbc FEFFFFEB 		bl	__fixdfsi
 1888 1bc0 7CC39FE5 		ldr	ip, .L309+100
 1889 1bc4 0038A0E1 		mov	r3, r0, asl #16
 1890 1bc8 F000DCE1 		ldrsh	r0, [ip, #0]
 1891 1bcc 2378A0E1 		mov	r7, r3, lsr #16
 1892 1bd0 FEFFFFEB 		bl	__floatsisf
 1893 1bd4 0040A0E1 		mov	r4, r0
 1894 1bd8 FEFFFFEB 		bl	__extendsfdf2
 1895 1bdc 0160A0E1 		mov	r6, r1
 1896 1be0 0050A0E1 		mov	r5, r0
 1897 1be4 0400A0E1 		mov	r0, r4
 1898 1be8 0010A0E3 		mov	r1, #0
 1899 1bec FEFFFFEB 		bl	__gtsf2
 1900 1bf0 000050E3 		cmp	r0, #0
 1901 1bf4 BF2F8FC2 		adrgt	r2, .L309+24
 1902 1bf8 0C0092C8 		ldmgtia	r2, {r2-r3}
 1903 1bfc 0610A0C1 		movgt	r1, r6
 1904 1c00 0500A0C1 		movgt	r0, r5
 1905              	.L258:
 1906 1c04 BD2F8FD2 		adrle	r2, .L309+32
 1907 1c08 0C0092D8 		ldmleia	r2, {r2-r3}
 1908 1c0c 0610A0D1 		movle	r1, r6
 1909 1c10 0500A0D1 		movle	r0, r5
 1910              	.L301:
 1911 1c14 FEFFFFEB 		bl	__muldf3
 1912 1c18 FEFFFFEB 		bl	__truncdfsf2
 1913 1c1c FEFFFFEB 		bl	__fixsfsi
 1914 1c20 FA0F80E2 		add	r0, r0, #1000
 1915 1c24 0008A0E1 		mov	r0, r0, asl #16
 1916 1c28 2008A0E1 		mov	r0, r0, lsr #16
 1917 1c2c FA0F50E3 		cmp	r0, #1000
 1918 1c30 10A39FE5 		ldr	sl, .L309+104
 1919 1c34 FA3FA033 		movcc	r3, #1000	@ movhi
 1920 1c38 1007003A 		bcc	.L262
 1921 1c3c 7D0E50E3 		cmp	r0, #2000
 1922 1c40 0030A031 		movcc	r3, r0
 1923 1c44 7D3EA023 		movcs	r3, #2000
 1924              	.L262:
 1925 1c48 B030CAE1 		strh	r3, [sl, #0]	@ movhi 
 1926 1c4c B000DAE1 		ldrh	r0, [sl, #0]
 1927 1c50 FEFFFFEB 		bl	__floatsidf
 1928 1c54 AB2F8FE2 		adr	r2, .L309+40
 1929 1c58 0C0092E8 		ldmia	r2, {r2-r3}
 1930 1c5c FEFFFFEB 		bl	__muldf3
 1931 1c60 AA2F8FE2 		adr	r2, .L309+48
 1932 1c64 0C0092E8 		ldmia	r2, {r2-r3}
 1933 1c68 FEFFFFEB 		bl	__muldf3
 1934 1c6c A92F8FE2 		adr	r2, .L309+56
 1935 1c70 0C0092E8 		ldmia	r2, {r2-r3}
 1936 1c74 FEFFFFEB 		bl	__adddf3
 1937 1c78 FEFFFFEB 		bl	__fixunsdfsi
 1938 1c7c 0888A0E1 		mov	r8, r8, asl #16
 1939 1c80 C4929FE5 		ldr	r9, .L309+108
 1940 1c84 4838A0E1 		mov	r3, r8, asr #16
 1941 1c88 0778A0E1 		mov	r7, r7, asl #16
 1942 1c8c B000C9E1 		strh	r0, [r9, #0]	@ movhi 
 1943 1c90 470883E0 		add	r0, r3, r7, asr #16
 1944 1c94 FEFFFFEB 		bl	__floatsisf
 1945 1c98 0040A0E1 		mov	r4, r0
 1946 1c9c FEFFFFEB 		bl	__extendsfdf2
 1947 1ca0 0160A0E1 		mov	r6, r1
 1948 1ca4 0050A0E1 		mov	r5, r0
 1949 1ca8 0400A0E1 		mov	r0, r4
 1950 1cac 0010A0E3 		mov	r1, #0
 1951 1cb0 FEFFFFEB 		bl	__gtsf2
 1952 1cb4 000050E3 		cmp	r0, #0
 1953 1cb8 262E8FC2 		adrgt	r2, .L309+64
 1954 1cbc 0C0092C8 		ldmgtia	r2, {r2-r3}
 1955 1cc0 0610A0C1 		movgt	r1, r6
 1956 1cc4 0500A0C1 		movgt	r0, r5
 1957              	.L263:
 1958 1cc8 962F8FD2 		adrle	r2, .L309+72
 1959 1ccc 0C0092D8 		ldmleia	r2, {r2-r3}
 1960 1cd0 0610A0D1 		movle	r1, r6
 1961 1cd4 0500A0D1 		movle	r0, r5
 1962              	.L302:
 1963 1cd8 FEFFFFEB 		bl	__muldf3
 1964 1cdc FEFFFFEB 		bl	__truncdfsf2
 1965 1ce0 FEFFFFEB 		bl	__fixsfsi
 1966 1ce4 170D80E2 		add	r0, r0, #1472
 1967 1ce8 080080E2 		add	r0, r0, #8
 1968 1cec 5C329FE5 		ldr	r3, .L309+112
 1969 1cf0 0008A0E1 		mov	r0, r0, asl #16
 1970 1cf4 2008A0E1 		mov	r0, r0, lsr #16
 1971 1cf8 030050E1 		cmp	r0, r3
 1972 1cfc 50329F95 		ldrls	r3, .L309+116
 1973 1d00 0320A091 		movls	r2, r3	@ movhi
 1974 1d04 4407009A 		bls	.L267
 1975 1d08 48329FE5 		ldr	r3, .L309+120
 1976 1d0c 030050E1 		cmp	r0, r3
 1977 1d10 0020A031 		movcc	r2, r0
 1978 1d14 0320A021 		movcs	r2, r3
 1979              	.L267:
 1980 1d18 28329FE5 		ldr	r3, .L309+104
 1981 1d1c BC20C3E1 		strh	r2, [r3, #12]	@ movhi 
 1982 1d20 BC00DAE1 		ldrh	r0, [sl, #12]
 1983 1d24 FEFFFFEB 		bl	__floatsidf
 1984 1d28 762F8FE2 		adr	r2, .L309+40
 1985 1d2c 0C0092E8 		ldmia	r2, {r2-r3}
 1986 1d30 FEFFFFEB 		bl	__muldf3
 1987 1d34 752F8FE2 		adr	r2, .L309+48
 1988 1d38 0C0092E8 		ldmia	r2, {r2-r3}
 1989 1d3c FEFFFFEB 		bl	__muldf3
 1990 1d40 1D2E8FE2 		adr	r2, .L309+56
 1991 1d44 0C0092E8 		ldmia	r2, {r2-r3}
 1992 1d48 FEFFFFEB 		bl	__adddf3
 1993 1d4c FEFFFFEB 		bl	__fixunsdfsi
 1994 1d50 4838A0E1 		mov	r3, r8, asr #16
 1995 1d54 BC00C9E1 		strh	r0, [r9, #12]	@ movhi 
 1996 1d58 470863E0 		rsb	r0, r3, r7, asr #16
 1997 1d5c FEFFFFEB 		bl	__floatsisf
 1998 1d60 0040A0E1 		mov	r4, r0
 1999 1d64 FEFFFFEB 		bl	__extendsfdf2
 2000 1d68 0160A0E1 		mov	r6, r1
 2001 1d6c 0050A0E1 		mov	r5, r0
 2002 1d70 0400A0E1 		mov	r0, r4
 2003 1d74 0010A0E3 		mov	r1, #0
 2004 1d78 FEFFFFEB 		bl	__gtsf2
 2005 1d7c 000050E3 		cmp	r0, #0
 2006 1d80 6A2F8FC2 		adrgt	r2, .L309+80
 2007 1d84 0C0092C8 		ldmgtia	r2, {r2-r3}
 2008 1d88 0610A0C1 		movgt	r1, r6
 2009 1d8c 0500A0C1 		movgt	r0, r5
 2010              	.L268:
 2011 1d90 1A2E8FD2 		adrle	r2, .L309+88
 2012 1d94 0C0092D8 		ldmleia	r2, {r2-r3}
 2013 1d98 0610A0D1 		movle	r1, r6
 2014 1d9c 0500A0D1 		movle	r0, r5
 2015              	.L303:
 2016 1da0 FEFFFFEB 		bl	__muldf3
 2017 1da4 FEFFFFEB 		bl	__truncdfsf2
 2018 1da8 FEFFFFEB 		bl	__fixsfsi
 2019 1dac 5E0E80E2 		add	r0, r0, #1504
 2020 1db0 0B0080E2 		add	r0, r0, #11
 2021 1db4 A0319FE5 		ldr	r3, .L309+124
 2022 1db8 0008A0E1 		mov	r0, r0, asl #16
 2023 1dbc 2008A0E1 		mov	r0, r0, lsr #16
 2024 1dc0 030050E1 		cmp	r0, r3
 2025 1dc4 94319F95 		ldrls	r3, .L309+128
 2026 1dc8 0320A091 		movls	r2, r3	@ movhi
 2027 1dcc 7607009A 		bls	.L272
 2028 1dd0 8C319FE5 		ldr	r3, .L309+132
 2029 1dd4 030050E1 		cmp	r0, r3
 2030 1dd8 0020A031 		movcc	r2, r0
 2031 1ddc 0320A021 		movcs	r2, r3
 2032              	.L272:
 2033 1de0 60319FE5 		ldr	r3, .L309+104
 2034 1de4 B620C3E1 		strh	r2, [r3, #6]	@ movhi 
 2035 1de8 B600DAE1 		ldrh	r0, [sl, #6]
 2036 1dec FEFFFFEB 		bl	__floatsidf
 2037 1df0 112E8FE2 		adr	r2, .L309+40
 2038 1df4 0C0092E8 		ldmia	r2, {r2-r3}
 2039 1df8 FEFFFFEB 		bl	__muldf3
 2040 1dfc 432F8FE2 		adr	r2, .L309+48
 2041 1e00 0C0092E8 		ldmia	r2, {r2-r3}
 2042 1e04 FEFFFFEB 		bl	__muldf3
 2043 1e08 422F8FE2 		adr	r2, .L309+56
 2044 1e0c 0C0092E8 		ldmia	r2, {r2-r3}
 2045 1e10 FEFFFFEB 		bl	__adddf3
 2046 1e14 FEFFFFEB 		bl	__fixunsdfsi
 2047 1e18 24119FE5 		ldr	r1, .L309+100
 2048 1e1c B600C9E1 		strh	r0, [r9, #6]	@ movhi 
 2049 1e20 F600D1E1 		ldrsh	r0, [r1, #6]
 2050 1e24 FEFFFFEB 		bl	__floatsisf
 2051 1e28 0040A0E1 		mov	r4, r0
 2052 1e2c FEFFFFEB 		bl	__extendsfdf2
 2053 1e30 0160A0E1 		mov	r6, r1
 2054 1e34 0050A0E1 		mov	r5, r0
 2055 1e38 0400A0E1 		mov	r0, r4
 2056 1e3c 0010A0E3 		mov	r1, #0
 2057 1e40 FEFFFFEB 		bl	__gtsf2
 2058 1e44 000050E3 		cmp	r0, #0
 2059 1e48 A8208FC2 		adrgt	r2, .L309+24
 2060 1e4c 0C0092C8 		ldmgtia	r2, {r2-r3}
 2061 1e50 0610A0C1 		movgt	r1, r6
 2062 1e54 0500A0C1 		movgt	r0, r5
 2063              	.L273:
 2064 1e58 A0208FD2 		adrle	r2, .L309+32
 2065 1e5c 0C0092D8 		ldmleia	r2, {r2-r3}
 2066 1e60 0610A0D1 		movle	r1, r6
 2067 1e64 0500A0D1 		movle	r0, r5
 2068              	.L304:
 2069 1e68 FEFFFFEB 		bl	__muldf3
 2070 1e6c FEFFFFEB 		bl	__truncdfsf2
 2071 1e70 FEFFFFEB 		bl	__fixsfsi
 2072 1e74 FA0F80E2 		add	r0, r0, #1000
 2073 1e78 0008A0E1 		mov	r0, r0, asl #16
 2074 1e7c 2008A0E1 		mov	r0, r0, lsr #16
 2075 1e80 FA0F50E3 		cmp	r0, #1000
 2076 1e84 FA2FA033 		movcc	r2, #1000	@ movhi
 2077 1e88 A407003A 		bcc	.L277
 2078 1e8c 7D0E50E3 		cmp	r0, #2000
 2079 1e90 0020A031 		movcc	r2, r0
 2080 1e94 7D2EA023 		movcs	r2, #2000
 2081              	.L277:
 2082 1e98 A8309FE5 		ldr	r3, .L309+104
 2083 1e9c B420C3E1 		strh	r2, [r3, #4]	@ movhi 
 2084 1ea0 B400DAE1 		ldrh	r0, [sl, #4]
 2085 1ea4 FEFFFFEB 		bl	__floatsidf
 2086 1ea8 58208FE2 		adr	r2, .L309+40
 2087 1eac 0C0092E8 		ldmia	r2, {r2-r3}
 2088 1eb0 FEFFFFEB 		bl	__muldf3
 2089 1eb4 54208FE2 		adr	r2, .L309+48
 2090 1eb8 0C0092E8 		ldmia	r2, {r2-r3}
 2091 1ebc FEFFFFEB 		bl	__muldf3
 2092 1ec0 50208FE2 		adr	r2, .L309+56
 2093 1ec4 0C0092E8 		ldmia	r2, {r2-r3}
 2094 1ec8 FEFFFFEB 		bl	__adddf3
 2095 1ecc FEFFFFEB 		bl	__fixunsdfsi
 2096 1ed0 B400C9E1 		strh	r0, [r9, #4]	@ movhi 
 2097 1ed4 28D04BE2 		sub	sp, fp, #40
 2098 1ed8 F06F9DE8 		ldmfd	sp, {r4, r5, r6, r7, r8, r9, sl, fp, sp, lr}
 2099 1edc 1EFF2FE1 		bx	lr
 2100              	.L310:
 2101              		.align	2
 2102              	.L309:
 2103 1ee0 CC4C923F 		.word	1066552524
 2104 1ee4 CDCCCCCC 		.word	-858993459
 2105 1ee8 3333D33F 		.word	1070805811
 2106 1eec 33333333 		.word	858993459
 2107 1ef0 6666E63F 		.word	1072064102
 2108 1ef4 66666666 		.word	1717986918
 2109 1ef8 AAAABA3F 		.word	1069197994
 2110 1efc 7E08ABAA 		.word	-1431631746
 2111 1f00 00000000 		.word	0
 2112 1f04 00000000 		.word	0
 2113 1f08 F7C6B03E 		.word	1051772663
 2114 1f0c 8DEDB5A0 		.word	-1598689907
 2115 1f10 389C6C41 		.word	1097636920
 2116 1f14 00000000 		.word	0
 2117 1f18 0000E03F 		.word	1071644672
 2118 1f1c 00000000 		.word	0
 2119 1f20 1111AD3F 		.word	1068306705
 2120 1f24 4DFE1011 		.word	286326349
 2121 1f28 9999A53F 		.word	1067817369
 2122 1f2c 9A999999 		.word	-1717986918
 2123 1f30 CCCCACBF 		.word	-1079194420
 2124 1f34 CDCCCCCC 		.word	-858993459
 2125 1f38 8888A8BF 		.word	-1079474040
 2126 1f3c 4C9B8888 		.word	-2004313268
 2127 1f40 00000000 		.word	fbw_vsupply_decivolt
 2128 1f44 00000000 		.word	commands
 2129 1f48 00000000 		.word	actuators
 2130 1f4c 00000000 		.word	servos_values
 2131 1f50 32040000 		.word	1074
 2132 1f54 33040000 		.word	1075
 2133 1f58 E9070000 		.word	2025
 2134 1f5c CE030000 		.word	974
 2135 1f60 CF030000 		.word	975
 2136 1f64 B7070000 		.word	1975
 2138              		.comm	fbw_mode,1,1
 2139              		.comm	fbw_vsupply_decivolt,1,1
 2140              		.comm	vsupply_adc_buf,68,4
 2141              		.bss
 2142 000a 0000     		.align	2
 2143              	last_periodic_event:
 2144 000c 00000000 		.space	4
 2145              		.ident	"GCC: (GNU) 3.4.4"