   1              		.file	"infrared.c"
   2              		.global	calib_status
   3              		.bss
   6              	calib_status:
   7 0000 00       		.space	1
   8              		.text
   9              		.align	2
  10              		.global	ir_init
  12              	ir_init:
  13              		@ Function supports interworking.
  14              		@ args = 0, pretend = 0, frame = 0
  15              		@ frame_needed = 1, uses_anonymous_args = 0
  16 0000 0DC0A0E1 		mov	ip, sp
  17 0004 70D82DE9 		stmfd	sp!, {r4, r5, r6, fp, ip, lr, pc}
  18 0008 DC409FE5 		ldr	r4, .L2
  19 000c DC609FE5 		ldr	r6, .L2+4
  20 0010 04B04CE2 		sub	fp, ip, #4
  21 0014 0F00A0E3 		mov	r0, #15
  22 0018 D4109FE5 		ldr	r1, .L2+8
  23 001c 1020A0E3 		mov	r2, #16
  24 0020 006084E5 		str	r6, [r4, #0]	@ float
  25 0024 FEFFFFEB 		bl	adc_buf_channel
  26 0028 0B00A0E3 		mov	r0, #11
  27 002c C4109FE5 		ldr	r1, .L2+12
  28 0030 1020A0E3 		mov	r2, #16
  29 0034 FEFFFFEB 		bl	adc_buf_channel
  30 0038 BC309FE5 		ldr	r3, .L2+16
  31 003c 00E0A0E3 		mov	lr, #0
  32 0040 B8209FE5 		ldr	r2, .L2+20
  33 0044 00E083E5 		str	lr, [r3, #0]	@ float
  34 0048 B4309FE5 		ldr	r3, .L2+24
  35 004c 002083E5 		str	r2, [r3, #0]	@ float
  36 0050 B0309FE5 		ldr	r3, .L2+28
  37 0054 00C0A0E3 		mov	ip, #0
  38 0058 000094E5 		ldr	r0, [r4, #0]	@ float
  39 005c B0C0C3E1 		strh	ip, [r3, #0]	@ movhi 
  40 0060 A4309FE5 		ldr	r3, .L2+32
  41 0064 A4509FE5 		ldr	r5, .L2+36
  42 0068 000083E5 		str	r0, [r3, #0]	@ float
  43 006c A0309FE5 		ldr	r3, .L2+40
  44 0070 A0209FE5 		ldr	r2, .L2+44
  45 0074 005083E5 		str	r5, [r3, #0]	@ float
  46 0078 9C309FE5 		ldr	r3, .L2+48
  47 007c 002083E5 		str	r2, [r3, #0]	@ float
  48 0080 98209FE5 		ldr	r2, .L2+52
  49 0084 98309FE5 		ldr	r3, .L2+56
  50 0088 002083E5 		str	r2, [r3, #0]	@ float
  51 008c 94309FE5 		ldr	r3, .L2+60
  52 0090 0120A0E3 		mov	r2, #1
  53 0094 90109FE5 		ldr	r1, .L2+64
  54 0098 0020C3E5 		strb	r2, [r3, #0]
  55 009c 8C309FE5 		ldr	r3, .L2+68
  56 00a0 001083E5 		str	r1, [r3, #0]	@ float
  57 00a4 88309FE5 		ldr	r3, .L2+72
  58 00a8 00E083E5 		str	lr, [r3, #0]	@ float
  59 00ac 84309FE5 		ldr	r3, .L2+76
  60 00b0 B0C0C3E1 		strh	ip, [r3, #0]	@ movhi 
  61 00b4 80309FE5 		ldr	r3, .L2+80
  62 00b8 005083E5 		str	r5, [r3, #0]	@ float
  63 00bc 7C309FE5 		ldr	r3, .L2+84
  64 00c0 001083E5 		str	r1, [r3, #0]	@ float
  65 00c4 78309FE5 		ldr	r3, .L2+88
  66 00c8 001083E5 		str	r1, [r3, #0]	@ float
  67 00cc 74309FE5 		ldr	r3, .L2+92
  68 00d0 001083E5 		str	r1, [r3, #0]	@ float
  69 00d4 70309FE5 		ldr	r3, .L2+96
  70 00d8 E12FA0E3 		mov	r2, #900	@ movhi
  71 00dc 006084E5 		str	r6, [r4, #0]	@ float
  72 00e0 B020C3E1 		strh	r2, [r3, #0]	@ movhi 
  73 00e4 70689DE8 		ldmfd	sp, {r4, r5, r6, fp, sp, lr}
  74 00e8 1EFF2FE1 		bx	lr
  75              	.L3:
  76              		.align	2
  77              	.L2:
  78 00ec 00000000 		.word	ir_rad_of_ir
  79 00f0 915A0A3B 		.word	990534289
  80 00f4 1C000000 		.word	buf_ir1
  81 00f8 60000000 		.word	buf_ir2
  82 00fc 00000000 		.word	ir_roll_neutral
  83 0100 77BEBFBF 		.word	-1077952905
  84 0104 00000000 		.word	ir_pitch_neutral
  85 0108 00000000 		.word	adc_pitch_neutral
  86 010c 00000000 		.word	estimator_rad_of_ir
  87 0110 CDCC2C40 		.word	1076677837
  88 0114 00000000 		.word	ir_correction_right
  89 0118 C5209040 		.word	1083187397
  90 011c 00000000 		.word	ir_correction_up
  91 0120 19047640 		.word	1081476121
  92 0124 00000000 		.word	ir_correction_down
  93 0128 00000000 		.word	ir_360
  94 012c 3A46F13E 		.word	1055999546
  95 0130 00000000 		.word	ir_estimated_theta_minus_pi_4
  96 0134 00000000 		.word	z_contrast_mode
  97 0138 00000000 		.word	adc_roll_neutral
  98 013c 00000000 		.word	ir_correction_left
  99 0140 00000000 		.word	ir_estimated_phi_pi_4
 100 0144 00000000 		.word	ir_estimated_phi_minus_pi_4
 101 0148 00000000 		.word	ir_estimated_theta_pi_4
 102 014c 00000000 		.word	ir_contrast
 104              		.global	__divsi3
 105              		.global	__floatsidf
 106              		.global	__muldf3
 107              		.global	__adddf3
 108              		.global	__fixdfsi
 109              		.align	2
 110              		.global	ir_update
 112              	ir_update:
 113              		@ Function supports interworking.
 114              		@ args = 0, pretend = 0, frame = 8
 115              		@ frame_needed = 1, uses_anonymous_args = 0
 116 0150 0DC0A0E1 		mov	ip, sp
 117 0154 F0DB2DE9 		stmfd	sp!, {r4, r5, r6, r7, r8, r9, fp, ip, lr, pc}
 118 0158 20319FE5 		ldr	r3, .L5+16
 119 015c 04B04CE2 		sub	fp, ip, #4
 120 0160 08D04DE2 		sub	sp, sp, #8
 121 0164 4310D3E5 		ldrb	r1, [r3, #67]	@ zero_extendqisi2
 122 0168 B000D3E1 		ldrh	r0, [r3, #0]
 123 016c FEFFFFEB 		bl	__divsi3
 124 0170 0C319FE5 		ldr	r3, .L5+20
 125 0174 0048A0E1 		mov	r4, r0, asl #16
 126 0178 4310D3E5 		ldrb	r1, [r3, #67]	@ zero_extendqisi2
 127 017c B000D3E1 		ldrh	r0, [r3, #0]
 128 0180 FEFFFFEB 		bl	__divsi3
 129 0184 2448A0E1 		mov	r4, r4, lsr #16
 130 0188 0438A0E1 		mov	r3, r4, asl #16
 131 018c 0058A0E1 		mov	r5, r0, asl #16
 132 0190 4308A0E1 		mov	r0, r3, asr #16
 133 0194 EC309FE5 		ldr	r3, .L5+24
 134 0198 B040C3E1 		strh	r4, [r3, #0]	@ movhi 
 135 019c E8309FE5 		ldr	r3, .L5+28
 136 01a0 2558A0E1 		mov	r5, r5, lsr #16
 137 01a4 B050C3E1 		strh	r5, [r3, #0]	@ movhi 
 138 01a8 FEFFFFEB 		bl	__floatsidf
 139 01ac 30304BE2 		sub	r3, fp, #48
 140 01b0 030083E9 		stmib	r3, {r0-r1}
 141 01b4 B4208FE2 		adr	r2, .L5
 142 01b8 0C0092E8 		ldmia	r2, {r2-r3}
 143 01bc FEFFFFEB 		bl	__muldf3
 144 01c0 0558A0E1 		mov	r5, r5, asl #16
 145 01c4 AC808FE2 		adr	r8, .L5+8
 146 01c8 000398E8 		ldmia	r8, {r8-r9}
 147 01cc 0170A0E1 		mov	r7, r1
 148 01d0 0060A0E1 		mov	r6, r0
 149 01d4 4508A0E1 		mov	r0, r5, asr #16
 150 01d8 FEFFFFEB 		bl	__floatsidf
 151 01dc 0930A0E1 		mov	r3, r9
 152 01e0 0820A0E1 		mov	r2, r8
 153 01e4 FEFFFFEB 		bl	__muldf3
 154 01e8 0150A0E1 		mov	r5, r1
 155 01ec 0040A0E1 		mov	r4, r0
 156 01f0 0530A0E1 		mov	r3, r5
 157 01f4 0420A0E1 		mov	r2, r4
 158 01f8 0710A0E1 		mov	r1, r7
 159 01fc 0600A0E1 		mov	r0, r6
 160 0200 FEFFFFEB 		bl	__adddf3
 161 0204 FEFFFFEB 		bl	__fixdfsi
 162 0208 80609FE5 		ldr	r6, .L5+32
 163 020c 30C04BE2 		sub	ip, fp, #48
 164 0210 B000C6E1 		strh	r0, [r6, #0]	@ movhi 
 165 0214 0930A0E1 		mov	r3, r9
 166 0218 0820A0E1 		mov	r2, r8
 167 021c 03009CE9 		ldmib	ip, {r0-r1}
 168 0220 FEFFFFEB 		bl	__muldf3
 169 0224 0530A0E1 		mov	r3, r5
 170 0228 0420A0E1 		mov	r2, r4
 171 022c FEFFFFEB 		bl	__adddf3
 172 0230 FEFFFFEB 		bl	__fixdfsi
 173 0234 58109FE5 		ldr	r1, .L5+36
 174 0238 58309FE5 		ldr	r3, .L5+40
 175 023c B000C1E1 		strh	r0, [r1, #0]	@ movhi 
 176 0240 B0C0D3E1 		ldrh	ip, [r3, #0]
 177 0244 50309FE5 		ldr	r3, .L5+44
 178 0248 B020D1E1 		ldrh	r2, [r1, #0]
 179 024c B000D3E1 		ldrh	r0, [r3, #0]
 180 0250 B030D6E1 		ldrh	r3, [r6, #0]
 181 0254 022060E0 		rsb	r2, r0, r2
 182 0258 03306CE0 		rsb	r3, ip, r3
 183 025c B030C6E1 		strh	r3, [r6, #0]	@ movhi 
 184 0260 B020C1E1 		strh	r2, [r1, #0]	@ movhi 
 185 0264 24D04BE2 		sub	sp, fp, #36
 186 0268 F06B9DE8 		ldmfd	sp, {r4, r5, r6, r7, r8, r9, fp, sp, lr}
 187 026c 1EFF2FE1 		bx	lr
 188              	.L6:
 189              		.align	2
 190              	.L5:
 191 0270 6666E63F 		.word	1072064102
 192 0274 66666666 		.word	1717986918
 193 0278 6666E6BF 		.word	-1075419546
 194 027c 66666666 		.word	1717986918
 195 0280 1C000000 		.word	buf_ir1
 196 0284 60000000 		.word	buf_ir2
 197 0288 00000000 		.word	x1_dbg
 198 028c 00000000 		.word	x2_dbg
 199 0290 00000000 		.word	ir_roll
 200 0294 00000000 		.word	ir_pitch
 201 0298 00000000 		.word	adc_roll_neutral
 202 029c 00000000 		.word	adc_pitch_neutral
 204              		.global	__divdf3
 205              		.global	__truncdfsf2
 206              		.align	2
 207              		.global	ground_calibrate
 209              	ground_calibrate:
 210              		@ Function supports interworking.
 211              		@ args = 0, pretend = 0, frame = 0
 212              		@ frame_needed = 1, uses_anonymous_args = 0
 213 02a0 0DC0A0E1 		mov	ip, sp
 214 02a4 30D82DE9 		stmfd	sp!, {r4, r5, fp, ip, lr, pc}
 215 02a8 88419FE5 		ldr	r4, .L20+8
 216 02ac 0050D4E5 		ldrb	r5, [r4, #0]	@ zero_extendqisi2
 217 02b0 000055E3 		cmp	r5, #0
 218 02b4 04B04CE2 		sub	fp, ip, #4
 219 02b8 FF0000E2 		and	r0, r0, #255
 220 02bc B100000A 		beq	.L9
 221 02c0 010055E3 		cmp	r5, #1
 222 02c4 CB00000A 		beq	.L13
 223 02c8 080100EA 		b	.L7
 224              	.L9:
 225 02cc 68319FE5 		ldr	r3, .L20+12
 226 02d0 B030D3E1 		ldrh	r3, [r3, #0]
 227 02d4 090053E3 		cmp	r3, #9
 228 02d8 0801008A 		bhi	.L7
 229 02dc 5C319FE5 		ldr	r3, .L20+16
 230 02e0 0030D3E5 		ldrb	r3, [r3, #0]	@ zero_extendqisi2
 231 02e4 010053E3 		cmp	r3, #1
 232 02e8 0801001A 		bne	.L7
 233 02ec 0700A0E3 		mov	r0, #7
 234 02f0 0030C4E5 		strb	r3, [r4, #0]
 235 02f4 FEFFFFEB 		bl	uart0_check_free_space
 236 02f8 FF0010E3 		tst	r0, #255
 237 02fc 0401000A 		beq	.L16
 238 0300 3C419FE5 		ldr	r4, .L20+20
 239 0304 0200A0E3 		mov	r0, #2
 240 0308 0050C4E5 		strb	r5, [r4, #0]
 241 030c FEFFFFEB 		bl	uart0_transmit
 242 0310 0030D4E5 		ldrb	r3, [r4, #0]	@ zero_extendqisi2
 243 0314 223083E2 		add	r3, r3, #34
 244 0318 2200A0E3 		mov	r0, #34
 245 031c 0030C4E5 		strb	r3, [r4, #0]
 246 0320 FEFFFFEB 		bl	uart0_transmit
 247 0324 0030D4E5 		ldrb	r3, [r4, #0]	@ zero_extendqisi2
 248 0328 0200A0E3 		mov	r0, #2
 249 032c 023083E2 		add	r3, r3, #2
 250 0330 FF0000EA 		b	.L19
 251              	.L13:
 252 0334 000050E3 		cmp	r0, #0
 253 0338 0801000A 		beq	.L7
 254 033c 04319FE5 		ldr	r3, .L20+24
 255 0340 F030D3E1 		ldrsh	r3, [r3, #0]
 256 0344 00519FE5 		ldr	r5, .L20+28
 257 0348 000053E3 		cmp	r3, #0
 258 034c 003063B2 		rsblt	r3, r3, #0
 259 0350 B030C5E1 		strh	r3, [r5, #0]	@ movhi 
 260 0354 F000D5E1 		ldrsh	r0, [r5, #0]
 261 0358 FEFFFFEB 		bl	__floatsidf
 262 035c 0130A0E1 		mov	r3, r1
 263 0360 0020A0E1 		mov	r2, r0
 264 0364 C4008FE2 		adr	r0, .L20
 265 0368 030090E8 		ldmia	r0, {r0-r1}
 266 036c FEFFFFEB 		bl	__divdf3
 267 0370 FEFFFFEB 		bl	__truncdfsf2
 268 0374 D4309FE5 		ldr	r3, .L20+32
 269 0378 0020A0E1 		mov	r2, r0
 270 037c 002083E5 		str	r2, [r3, #0]	@ float
 271 0380 0230A0E3 		mov	r3, #2
 272 0384 0030C4E5 		strb	r3, [r4, #0]
 273 0388 C4309FE5 		ldr	r3, .L20+36
 274 038c 0900A0E3 		mov	r0, #9
 275 0390 002083E5 		str	r2, [r3, #0]	@ float
 276 0394 FEFFFFEB 		bl	uart0_check_free_space
 277 0398 FF0010E3 		tst	r0, #255
 278 039c 0401000A 		beq	.L16
 279 03a0 9C409FE5 		ldr	r4, .L20+20
 280 03a4 0030A0E3 		mov	r3, #0
 281 03a8 0400A0E3 		mov	r0, #4
 282 03ac 0030C4E5 		strb	r3, [r4, #0]
 283 03b0 FEFFFFEB 		bl	uart0_transmit
 284 03b4 0030D4E5 		ldrb	r3, [r4, #0]	@ zero_extendqisi2
 285 03b8 223083E2 		add	r3, r3, #34
 286 03bc 2200A0E3 		mov	r0, #34
 287 03c0 0030C4E5 		strb	r3, [r4, #0]
 288 03c4 FEFFFFEB 		bl	uart0_transmit
 289 03c8 0030D4E5 		ldrb	r3, [r4, #0]	@ zero_extendqisi2
 290 03cc 033083E2 		add	r3, r3, #3
 291 03d0 0300A0E3 		mov	r0, #3
 292 03d4 0030C4E5 		strb	r3, [r4, #0]
 293 03d8 FEFFFFEB 		bl	uart0_transmit
 294 03dc 0030D5E5 		ldrb	r3, [r5, #0]	@ zero_extendqisi2
 295 03e0 0020D4E5 		ldrb	r2, [r4, #0]	@ zero_extendqisi2
 296 03e4 0300A0E1 		mov	r0, r3
 297 03e8 023083E0 		add	r3, r3, r2
 298 03ec 0030C4E5 		strb	r3, [r4, #0]
 299 03f0 FEFFFFEB 		bl	uart0_transmit
 300 03f4 0130D5E5 		ldrb	r3, [r5, #1]	@ zero_extendqisi2
 301 03f8 0020D4E5 		ldrb	r2, [r4, #0]	@ zero_extendqisi2
 302 03fc 0300A0E1 		mov	r0, r3
 303 0400 023083E0 		add	r3, r3, r2
 304              	.L19:
 305 0404 0030C4E5 		strb	r3, [r4, #0]
 306 0408 FEFFFFEB 		bl	uart0_transmit
 307 040c FF00A0E3 		mov	r0, #255
 308 0410 FEFFFFEB 		bl	uart0_transmit
 309 0414 080100EA 		b	.L7
 310              	.L16:
 311 0418 38209FE5 		ldr	r2, .L20+40
 312 041c 0030D2E5 		ldrb	r3, [r2, #0]	@ zero_extendqisi2
 313 0420 013083E2 		add	r3, r3, #1
 314 0424 0030C2E5 		strb	r3, [r2, #0]
 315              	.L7:
 316 0428 30689DE8 		ldmfd	sp, {r4, r5, fp, sp, lr}
 317 042c 1EFF2FE1 		bx	lr
 318              	.L21:
 319              		.align	2
 320              	.L20:
 321 0430 6666FE3F 		.word	1073636966
 322 0434 66666666 		.word	1717986918
 323 0438 00000000 		.word	calib_status
 324 043c 00000000 		.word	cpu_time_sec
 325 0440 00000000 		.word	pprz_mode
 326 0444 00000000 		.word	aerocomm_cs
 327 0448 00000000 		.word	ir_pitch
 328 044c 00000000 		.word	ir_contrast
 329 0450 00000000 		.word	estimator_rad_of_ir
 330 0454 00000000 		.word	ir_rad_of_ir
 331 0458 00000000 		.word	downlink_nb_ovrn
 333              		.bss
 334 0001 000000   		.align	2
 335              	last_hspeed_dir.0:
 336 0004 00000000 		.space	4
 337              		.align	2
 338              	last_t.1:
 339 0008 00000000 		.space	4
 340              	initialized.2:
 341 000c 00       		.space	1
 342 000d 000000   		.align	2
 343              	sum_xy.3:
 344 0010 00000000 		.space	4
 345              		.align	2
 346              	sum_xx.4:
 347 0014 00000000 		.space	4
 348              		.global	__floatsisf
 349              		.global	__addsf3
 350              		.global	__divsf3
 351              		.global	__extendsfdf2
 352              		.global	__gtdf2
 353              		.global	__subsf3
 354              		.global	__subdf3
 355              		.global	__ltdf2
 356              		.global	__ltsf2
 357              		.global	__mulsf3
 358              		.text
 359              		.align	2
 360              		.global	estimator_update_ir_estim
 362              	estimator_update_ir_estim:
 363              		@ Function supports interworking.
 364              		@ args = 0, pretend = 0, frame = 0
 365              		@ frame_needed = 1, uses_anonymous_args = 0
 366 045c 0DC0A0E1 		mov	ip, sp
 367 0460 F0D92DE9 		stmfd	sp!, {r4, r5, r6, r7, r8, fp, ip, lr, pc}
 368 0464 48249FE5 		ldr	r2, .L55+88
 369 0468 0030D2E5 		ldrb	r3, [r2, #0]	@ zero_extendqisi2
 370 046c 000053E3 		cmp	r3, #0
 371 0470 04B04CE2 		sub	fp, ip, #4
 372 0474 EC01000A 		beq	.L23
 373 0478 38349FE5 		ldr	r3, .L55+92
 374 047c 002093E5 		ldr	r2, [r3, #0]
 375 0480 34349FE5 		ldr	r3, .L55+96
 376 0484 003093E5 		ldr	r3, [r3, #0]
 377 0488 032052E0 		subs	r2, r2, r3
 378 048c 2501004A 		bmi	.L25
 379 0490 0200A0E1 		mov	r0, r2
 380 0494 FEFFFFEB 		bl	__floatsisf
 381 0498 2A0100EA 		b	.L24
 382              	.L25:
 383 049c 010002E2 		and	r0, r2, #1
 384 04a0 A20080E1 		orr	r0, r0, r2, lsr #1
 385 04a4 FEFFFFEB 		bl	__floatsisf
 386 04a8 0010A0E1 		mov	r1, r0
 387 04ac FEFFFFEB 		bl	__addsf3
 388              	.L24:
 389 04b0 08149FE5 		ldr	r1, .L55+100
 390 04b4 FEFFFFEB 		bl	__divsf3
 391 04b8 0070A0E1 		mov	r7, r0
 392 04bc FEFFFFEB 		bl	__extendsfdf2
 393 04c0 E52F8FE2 		adr	r2, .L55
 394 04c4 0C0092E8 		ldmia	r2, {r2-r3}
 395 04c8 FEFFFFEB 		bl	__gtdf2
 396 04cc 000050E3 		cmp	r0, #0
 397 04d0 0B0200DA 		ble	.L53
 398 04d4 E8339FE5 		ldr	r3, .L55+104
 399 04d8 000093E5 		ldr	r0, [r3, #0]	@ float
 400 04dc E4339FE5 		ldr	r3, .L55+108
 401 04e0 001093E5 		ldr	r1, [r3, #0]	@ float
 402 04e4 FEFFFFEB 		bl	__subsf3
 403 04e8 3B0100EA 		b	.L54
 404              	.L31:
 405 04ec FEFFFFEB 		bl	__subdf3
 406 04f0 FEFFFFEB 		bl	__truncdfsf2
 407              	.L54:
 408 04f4 0060A0E1 		mov	r6, r0
 409 04f8 FEFFFFEB 		bl	__extendsfdf2
 410 04fc 362E8FE2 		adr	r2, .L55+8
 411 0500 0C0092E8 		ldmia	r2, {r2-r3}
 412 0504 0150A0E1 		mov	r5, r1
 413 0508 0040A0E1 		mov	r4, r0
 414 050c FEFFFFEB 		bl	__gtdf2
 415 0510 000050E3 		cmp	r0, #0
 416 0514 352E8FE2 		adr	r2, .L55+16
 417 0518 0C0092E8 		ldmia	r2, {r2-r3}
 418 051c 0510A0E1 		mov	r1, r5
 419 0520 0400A0E1 		mov	r0, r4
 420 0524 390100CA 		bgt	.L31
 421 0528 4C0100EA 		b	.L32
 422              	.L35:
 423 052c FEFFFFEB 		bl	__adddf3
 424 0530 FEFFFFEB 		bl	__truncdfsf2
 425 0534 0060A0E1 		mov	r6, r0
 426              	.L32:
 427 0538 0600A0E1 		mov	r0, r6
 428 053c FEFFFFEB 		bl	__extendsfdf2
 429 0540 CB2F8FE2 		adr	r2, .L55+24
 430 0544 0C0092E8 		ldmia	r2, {r2-r3}
 431 0548 0150A0E1 		mov	r5, r1
 432 054c 0040A0E1 		mov	r4, r0
 433 0550 FEFFFFEB 		bl	__ltdf2
 434 0554 000050E3 		cmp	r0, #0
 435 0558 C32F8FE2 		adr	r2, .L55+16
 436 055c 0C0092E8 		ldmia	r2, {r2-r3}
 437 0560 0510A0E1 		mov	r1, r5
 438 0564 0400A0E1 		mov	r0, r4
 439 0568 490100BA 		blt	.L35
 440 056c 0710A0E1 		mov	r1, r7
 441 0570 0600A0E1 		mov	r0, r6
 442 0574 FEFFFFEB 		bl	__divsf3
 443 0578 FEFFFFEB 		bl	__extendsfdf2
 444 057c BE2F8FE2 		adr	r2, .L55+32
 445 0580 0C0092E8 		ldmia	r2, {r2-r3}
 446 0584 FEFFFFEB 		bl	__muldf3
 447 0588 BD2F8FE2 		adr	r2, .L55+40
 448 058c 0C0092E8 		ldmia	r2, {r2-r3}
 449 0590 FEFFFFEB 		bl	__divdf3
 450 0594 FEFFFFEB 		bl	__truncdfsf2
 451 0598 2C739FE5 		ldr	r7, .L55+112
 452 059c 000087E5 		str	r0, [r7, #0]	@ float
 453 05a0 6B0100EA 		b	.L36
 454              	.L39:
 455 05a4 FEFFFFEB 		bl	__subdf3
 456 05a8 FEFFFFEB 		bl	__truncdfsf2
 457 05ac 18339FE5 		ldr	r3, .L55+112
 458 05b0 000083E5 		str	r0, [r3, #0]	@ float
 459              	.L36:
 460 05b4 000097E5 		ldr	r0, [r7, #0]	@ float
 461 05b8 FEFFFFEB 		bl	__extendsfdf2
 462 05bc 2A2E8FE2 		adr	r2, .L55+8
 463 05c0 0C0092E8 		ldmia	r2, {r2-r3}
 464 05c4 0150A0E1 		mov	r5, r1
 465 05c8 0040A0E1 		mov	r4, r0
 466 05cc FEFFFFEB 		bl	__gtdf2
 467 05d0 000050E3 		cmp	r0, #0
 468 05d4 292E8FE2 		adr	r2, .L55+16
 469 05d8 0C0092E8 		ldmia	r2, {r2-r3}
 470 05dc 0510A0E1 		mov	r1, r5
 471 05e0 0400A0E1 		mov	r0, r4
 472 05e4 670100CA 		bgt	.L39
 473 05e8 7C0100EA 		b	.L40
 474              	.L43:
 475 05ec FEFFFFEB 		bl	__adddf3
 476 05f0 FEFFFFEB 		bl	__truncdfsf2
 477 05f4 000085E5 		str	r0, [r5, #0]	@ float
 478              	.L40:
 479 05f8 000097E5 		ldr	r0, [r7, #0]	@ float
 480 05fc FEFFFFEB 		bl	__extendsfdf2
 481 0600 9B2F8FE2 		adr	r2, .L55+24
 482 0604 0C0092E8 		ldmia	r2, {r2-r3}
 483 0608 0150A0E1 		mov	r5, r1
 484 060c 0040A0E1 		mov	r4, r0
 485 0610 FEFFFFEB 		bl	__ltdf2
 486 0614 000050E3 		cmp	r0, #0
 487 0618 932F8FE2 		adr	r2, .L55+16
 488 061c 0C0092E8 		ldmia	r2, {r2-r3}
 489 0620 0510A0E1 		mov	r1, r5
 490 0624 0400A0E1 		mov	r0, r4
 491 0628 9C529FE5 		ldr	r5, .L55+112
 492 062c 790100BA 		blt	.L43
 493 0630 98329FE5 		ldr	r3, .L55+116
 494 0634 F060D3E1 		ldrsh	r6, [r3, #0]
 495 0638 0600A0E1 		mov	r0, r6
 496 063c FEFFFFEB 		bl	__floatsisf
 497 0640 003097E5 		ldr	r3, [r7, #0]
 498 0644 0241C3E3 		bic	r4, r3, #-2147483648
 499 0648 84329FE5 		ldr	r3, .L55+120
 500 064c 0080A0E1 		mov	r8, r0
 501 0650 FE15A0E3 		mov	r1, #1065353216
 502 0654 0400A0E1 		mov	r0, r4
 503 0658 008083E5 		str	r8, [r3, #0]	@ float
 504 065c FEFFFFEB 		bl	__ltsf2
 505 0660 000050E3 		cmp	r0, #0
 506 0664 0B0200AA 		bge	.L53
 507 0668 0400A0E1 		mov	r0, r4
 508 066c FEFFFFEB 		bl	__extendsfdf2
 509 0670 852F8FE2 		adr	r2, .L55+48
 510 0674 0C0092E8 		ldmia	r2, {r2-r3}
 511 0678 FEFFFFEB 		bl	__gtdf2
 512 067c 000050E3 		cmp	r0, #0
 513 0680 0B0200DA 		ble	.L53
 514 0684 4C329FE5 		ldr	r3, .L55+124
 515 0688 B030D3E1 		ldrh	r3, [r3, #0]
 516 068c 0318A0E1 		mov	r1, r3, asl #16
 517 0690 4128A0E1 		mov	r2, r1, asr #16
 518 0694 003062E2 		rsb	r3, r2, #0
 519 0698 A33F83E0 		add	r3, r3, r3, lsr #31
 520 069c C30056E1 		cmp	r6, r3, asr #1
 521 06a0 0B0200DA 		ble	.L53
 522 06a4 A13F82E0 		add	r3, r2, r1, lsr #31
 523 06a8 C30056E1 		cmp	r6, r3, asr #1
 524 06ac 0B0200AA 		bge	.L53
 525 06b0 000095E5 		ldr	r0, [r5, #0]	@ float
 526 06b4 0810A0E1 		mov	r1, r8
 527 06b8 FEFFFFEB 		bl	__mulsf3
 528 06bc FEFFFFEB 		bl	__extendsfdf2
 529 06c0 14629FE5 		ldr	r6, .L55+128
 530 06c4 0150A0E1 		mov	r5, r1
 531 06c8 0040A0E1 		mov	r4, r0
 532 06cc 000096E5 		ldr	r0, [r6, #0]	@ float
 533 06d0 FEFFFFEB 		bl	__extendsfdf2
 534 06d4 6E2F8FE2 		adr	r2, .L55+56
 535 06d8 0C0092E8 		ldmia	r2, {r2-r3}
 536 06dc FEFFFFEB 		bl	__muldf3
 537 06e0 0130A0E1 		mov	r3, r1
 538 06e4 0020A0E1 		mov	r2, r0
 539 06e8 0510A0E1 		mov	r1, r5
 540 06ec 0400A0E1 		mov	r0, r4
 541 06f0 FEFFFFEB 		bl	__adddf3
 542 06f4 FEFFFFEB 		bl	__truncdfsf2
 543 06f8 0070A0E1 		mov	r7, r0
 544 06fc 007086E5 		str	r7, [r6, #0]	@ float
 545 0700 0810A0E1 		mov	r1, r8
 546 0704 0800A0E1 		mov	r0, r8
 547 0708 FEFFFFEB 		bl	__mulsf3
 548 070c FEFFFFEB 		bl	__extendsfdf2
 549 0710 C8619FE5 		ldr	r6, .L55+132
 550 0714 0150A0E1 		mov	r5, r1
 551 0718 0040A0E1 		mov	r4, r0
 552 071c 000096E5 		ldr	r0, [r6, #0]	@ float
 553 0720 FEFFFFEB 		bl	__extendsfdf2
 554 0724 5A2F8FE2 		adr	r2, .L55+56
 555 0728 0C0092E8 		ldmia	r2, {r2-r3}
 556 072c FEFFFFEB 		bl	__muldf3
 557 0730 0130A0E1 		mov	r3, r1
 558 0734 0020A0E1 		mov	r2, r0
 559 0738 0510A0E1 		mov	r1, r5
 560 073c 0400A0E1 		mov	r0, r4
 561 0740 FEFFFFEB 		bl	__adddf3
 562 0744 FEFFFFEB 		bl	__truncdfsf2
 563 0748 0030A0E1 		mov	r3, r0
 564 074c 003086E5 		str	r3, [r6, #0]	@ float
 565 0750 0010A0E1 		mov	r1, r0
 566 0754 0700A0E1 		mov	r0, r7
 567 0758 FEFFFFEB 		bl	__divsf3
 568 075c 0040A0E1 		mov	r4, r0
 569 0760 FEFFFFEB 		bl	__extendsfdf2
 570 0764 132E8FE2 		adr	r2, .L55+64
 571 0768 0C0092E8 		ldmia	r2, {r2-r3}
 572 076c 0170A0E1 		mov	r7, r1
 573 0770 0060A0E1 		mov	r6, r0
 574 0774 FEFFFFEB 		bl	__ltdf2
 575 0778 000050E3 		cmp	r0, #0
 576 077c 60219FB5 		ldrlt	r2, .L55+136
 577 0780 60319FB5 		ldrlt	r3, .L55+140
 578 0784 002083B5 		strlt	r2, [r3, #0]	@ float
 579 0788 0B0200BA 		blt	.L53
 580 078c 112E8FE2 		adr	r2, .L55+72
 581 0790 0C0092E8 		ldmia	r2, {r2-r3}
 582 0794 0710A0E1 		mov	r1, r7
 583 0798 0600A0E1 		mov	r0, r6
 584 079c FEFFFFEB 		bl	__gtdf2
 585 07a0 000050E3 		cmp	r0, #0
 586 07a4 3C219FE5 		ldr	r2, .L55+140
 587 07a8 3C319FC5 		ldrgt	r3, .L55+144
 588 07ac 004082D5 		strle	r4, [r2, #0]	@ float
 589 07b0 003082C5 		strgt	r3, [r2, #0]	@ float
 590 07b4 0B0200EA 		b	.L53
 591              	.L23:
 592 07b8 18319FE5 		ldr	r3, .L55+124
 593 07bc F000D3E1 		ldrsh	r0, [r3, #0]
 594 07c0 0130A0E3 		mov	r3, #1
 595 07c4 0030C2E5 		strb	r3, [r2, #0]
 596 07c8 FEFFFFEB 		bl	__floatsisf
 597 07cc 0010A0E1 		mov	r1, r0
 598 07d0 FEFFFFEB 		bl	__mulsf3
 599 07d4 0C319FE5 		ldr	r3, .L55+140
 600 07d8 0060A0E1 		mov	r6, r0
 601 07dc 000093E5 		ldr	r0, [r3, #0]	@ float
 602 07e0 FEFFFFEB 		bl	__extendsfdf2
 603 07e4 C0208FE2 		adr	r2, .L55+80
 604 07e8 0C0092E8 		ldmia	r2, {r2-r3}
 605 07ec FEFFFFEB 		bl	__muldf3
 606 07f0 0150A0E1 		mov	r5, r1
 607 07f4 0040A0E1 		mov	r4, r0
 608 07f8 0600A0E1 		mov	r0, r6
 609 07fc FEFFFFEB 		bl	__extendsfdf2
 610 0800 0130A0E1 		mov	r3, r1
 611 0804 0020A0E1 		mov	r2, r0
 612 0808 0510A0E1 		mov	r1, r5
 613 080c 0400A0E1 		mov	r0, r4
 614 0810 FEFFFFEB 		bl	__muldf3
 615 0814 FEFFFFEB 		bl	__truncdfsf2
 616 0818 BC309FE5 		ldr	r3, .L55+128
 617 081c CC109FE5 		ldr	r1, .L55+148
 618 0820 000083E5 		str	r0, [r3, #0]	@ float
 619 0824 0600A0E1 		mov	r0, r6
 620 0828 FEFFFFEB 		bl	__mulsf3
 621 082c AC309FE5 		ldr	r3, .L55+132
 622 0830 000083E5 		str	r0, [r3, #0]	@ float
 623              	.L53:
 624 0834 88309FE5 		ldr	r3, .L55+104
 625 0838 002093E5 		ldr	r2, [r3, #0]	@ float
 626 083c 74309FE5 		ldr	r3, .L55+92
 627 0840 001093E5 		ldr	r1, [r3, #0]
 628 0844 7C309FE5 		ldr	r3, .L55+108
 629 0848 002083E5 		str	r2, [r3, #0]	@ float
 630 084c 68309FE5 		ldr	r3, .L55+96
 631 0850 001083E5 		str	r1, [r3, #0]
 632 0854 F0699DE8 		ldmfd	sp, {r4, r5, r6, r7, r8, fp, sp, lr}
 633 0858 1EFF2FE1 		bx	lr
 634              	.L56:
 635              		.align	2
 636              	.L55:
 637 085c 9999B93F 		.word	1069128089
 638 0860 9A999999 		.word	-1717986918
 639 0864 FB210940 		.word	1074340347
 640 0868 182D4454 		.word	1413754136
 641 086c FB211940 		.word	1075388923
 642 0870 182D4454 		.word	1413754136
 643 0874 FB2109C0 		.word	-1073143301
 644 0878 182D4454 		.word	1413754136
 645 087c 00000840 		.word	1074266112
 646 0880 00000000 		.word	0
 647 0884 B89E2340 		.word	1076076216
 648 0888 1F85EB51 		.word	1374389535
 649 088c 9999A93F 		.word	1068079513
 650 0890 9A999999 		.word	-1717986918
 651 0894 0AD7EF3F 		.word	1072682762
 652 0898 D7A3703D 		.word	1030792151
 653 089c 7493483F 		.word	1061720948
 654 08a0 FA7E6ABC 		.word	-1133871366
 655 08a4 976E723F 		.word	1064464023
 656 08a8 3BDF4F8D 		.word	-1924145349
 657 08ac 00005940 		.word	1079574528
 658 08b0 00000000 		.word	0
 659 08b4 0C000000 		.word	initialized.2
 660 08b8 00000000 		.word	gps_itow
 661 08bc 08000000 		.word	last_t.1
 662 08c0 00007A44 		.word	1148846080
 663 08c4 00000000 		.word	estimator_hspeed_dir
 664 08c8 04000000 		.word	last_hspeed_dir.0
 665 08cc 00000000 		.word	estimator_rad
 666 08d0 00000000 		.word	ir_roll
 667 08d4 00000000 		.word	estimator_ir
 668 08d8 00000000 		.word	ir_contrast
 669 08dc 10000000 		.word	sum_xy.3
 670 08e0 14000000 		.word	sum_xx.4
 671 08e4 A69B443A 		.word	977574822
 672 08e8 00000000 		.word	estimator_rad_of_ir
 673 08ec BC74933B 		.word	999519420
 674 08f0 0000C842 		.word	1120403456
 676              		.global	__gesf2
 677              		.align	2
 678              		.global	estimator_update_state_infrared
 680              	estimator_update_state_infrared:
 681              		@ Function supports interworking.
 682              		@ args = 0, pretend = 0, frame = 0
 683              		@ frame_needed = 1, uses_anonymous_args = 0
 684 08f4 0DC0A0E1 		mov	ip, sp
 685 08f8 F0DF2DE9 		stmfd	sp!, {r4, r5, r6, r7, r8, r9, sl, fp, ip, lr, pc}
 686 08fc A8319FE5 		ldr	r3, .L68+16
 687 0900 0030D3E5 		ldrb	r3, [r3, #0]	@ zero_extendqisi2
 688 0904 010053E3 		cmp	r3, #1
 689 0908 A0319F05 		ldreq	r3, .L68+20
 690 090c A0319F15 		ldrne	r3, .L68+24
 691 0910 A0419FE5 		ldr	r4, .L68+28
 692 0914 007093E5 		ldr	r7, [r3, #0]	@ float
 693 0918 9C319FE5 		ldr	r3, .L68+32
 694 091c 005093E5 		ldr	r5, [r3, #0]	@ float
 695 0920 F030D4E1 		ldrsh	r3, [r4, #0]
 696 0924 010053E3 		cmp	r3, #1
 697 0928 0130A0B3 		movlt	r3, #1
 698 092c 04B04CE2 		sub	fp, ip, #4
 699 0930 B030C4E1 		strh	r3, [r4, #0]	@ movhi 
 700 0934 0510A0E1 		mov	r1, r5
 701 0938 FE05A0E3 		mov	r0, #1065353216
 702 093c FEFFFFEB 		bl	__subsf3
 703 0940 0010A0E1 		mov	r1, r0
 704 0944 0700A0E1 		mov	r0, r7
 705 0948 FEFFFFEB 		bl	__mulsf3
 706 094c FEFFFFEB 		bl	__extendsfdf2
 707 0950 0180A0E1 		mov	r8, r1
 708 0954 0070A0E1 		mov	r7, r0
 709 0958 0500A0E1 		mov	r0, r5
 710 095c FEFFFFEB 		bl	__extendsfdf2
 711 0960 0160A0E1 		mov	r6, r1
 712 0964 0050A0E1 		mov	r5, r0
 713 0968 F000D4E1 		ldrsh	r0, [r4, #0]
 714 096c FEFFFFEB 		bl	__floatsidf
 715 0970 493F8FE2 		adr	r3, .L68
 716 0974 180093E8 		ldmia	r3, {r3-r4}
 717 0978 04A001E0 		and	sl, r1, r4
 718 097c 039000E0 		and	r9, r0, r3
 719 0980 0A30A0E1 		mov	r3, sl
 720 0984 0920A0E1 		mov	r2, r9
 721 0988 450F8FE2 		adr	r0, .L68+8
 722 098c 030090E8 		ldmia	r0, {r0-r1}
 723 0990 FEFFFFEB 		bl	__divdf3
 724 0994 0130A0E1 		mov	r3, r1
 725 0998 0020A0E1 		mov	r2, r0
 726 099c 0610A0E1 		mov	r1, r6
 727 09a0 0500A0E1 		mov	r0, r5
 728 09a4 FEFFFFEB 		bl	__muldf3
 729 09a8 0130A0E1 		mov	r3, r1
 730 09ac 0020A0E1 		mov	r2, r0
 731 09b0 0810A0E1 		mov	r1, r8
 732 09b4 0700A0E1 		mov	r0, r7
 733 09b8 FEFFFFEB 		bl	__adddf3
 734 09bc FEFFFFEB 		bl	__truncdfsf2
 735 09c0 F8309FE5 		ldr	r3, .L68+36
 736 09c4 0040A0E1 		mov	r4, r0
 737 09c8 F000D3E1 		ldrsh	r0, [r3, #0]
 738 09cc FEFFFFEB 		bl	__floatsisf
 739 09d0 0010A0E1 		mov	r1, r0
 740 09d4 0400A0E1 		mov	r0, r4
 741 09d8 FEFFFFEB 		bl	__mulsf3
 742 09dc E0309FE5 		ldr	r3, .L68+40
 743 09e0 001093E5 		ldr	r1, [r3, #0]	@ float
 744 09e4 FEFFFFEB 		bl	__subsf3
 745 09e8 D8709FE5 		ldr	r7, .L68+44
 746 09ec D8309FE5 		ldr	r3, .L68+48
 747 09f0 0050A0E1 		mov	r5, r0
 748 09f4 005087E5 		str	r5, [r7, #0]	@ float
 749 09f8 F000D3E1 		ldrsh	r0, [r3, #0]
 750 09fc FEFFFFEB 		bl	__floatsisf
 751 0a00 0010A0E1 		mov	r1, r0
 752 0a04 0400A0E1 		mov	r0, r4
 753 0a08 FEFFFFEB 		bl	__mulsf3
 754 0a0c BC309FE5 		ldr	r3, .L68+52
 755 0a10 001093E5 		ldr	r1, [r3, #0]	@ float
 756 0a14 FEFFFFEB 		bl	__subsf3
 757 0a18 B4609FE5 		ldr	r6, .L68+56
 758 0a1c 0010A0E3 		mov	r1, #0
 759 0a20 000086E5 		str	r0, [r6, #0]	@ float
 760 0a24 0500A0E1 		mov	r0, r5
 761 0a28 FEFFFFEB 		bl	__gesf2
 762 0a2c 000050E3 		cmp	r0, #0
 763 0a30 A0309FA5 		ldrge	r3, .L68+60
 764 0a34 A0309FB5 		ldrlt	r3, .L68+64
 765 0a38 001093A5 		ldrge	r1, [r3, #0]	@ float
 766 0a3c 001093B5 		ldrlt	r1, [r3, #0]	@ float
 767 0a40 0500A0E1 		mov	r0, r5
 768 0a44 0500A0B1 		movlt	r0, r5
 769 0a48 FEFFFFEB 		bl	__mulsf3
 770 0a4c 004096E5 		ldr	r4, [r6, #0]	@ float
 771 0a50 000087E5 		str	r0, [r7, #0]	@ float
 772 0a54 0010A0E3 		mov	r1, #0
 773 0a58 0400A0E1 		mov	r0, r4
 774 0a5c FEFFFFEB 		bl	__gesf2
 775 0a60 000050E3 		cmp	r0, #0
 776 0a64 0400A0E1 		mov	r0, r4
 777 0a68 9E0200BA 		blt	.L63
 778 0a6c 6C309FE5 		ldr	r3, .L68+68
 779 0a70 001093E5 		ldr	r1, [r3, #0]	@ float
 780 0a74 FEFFFFEB 		bl	__mulsf3
 781 0a78 000086E5 		str	r0, [r6, #0]	@ float
 782 0a7c A30200EA 		b	.L57
 783              	.L63:
 784 0a80 5C309FE5 		ldr	r3, .L68+72
 785 0a84 001093E5 		ldr	r1, [r3, #0]	@ float
 786 0a88 FEFFFFEB 		bl	__mulsf3
 787 0a8c 40309FE5 		ldr	r3, .L68+56
 788 0a90 000083E5 		str	r0, [r3, #0]	@ float
 789              	.L57:
 790 0a94 F06F9DE8 		ldmfd	sp, {r4, r5, r6, r7, r8, r9, sl, fp, sp, lr}
 791 0a98 1EFF2FE1 		bx	lr
 792              	.L69:
 793              		.align	2
 794              	.L68:
 795 0a9c FFFFFF7F 		.word	2147483647
 796 0aa0 FFFFFFFF 		.word	-1
 797 0aa4 6666FE3F 		.word	1073636966
 798 0aa8 00000060 		.word	1610612736
 799 0aac 00000000 		.word	ir_estim_mode
 800 0ab0 00000000 		.word	estimator_rad_of_ir
 801 0ab4 00000000 		.word	ir_rad_of_ir
 802 0ab8 00000000 		.word	ir_top
 803 0abc 00000000 		.word	z_contrast_mode
 804 0ac0 00000000 		.word	ir_roll
 805 0ac4 00000000 		.word	ir_roll_neutral
 806 0ac8 00000000 		.word	estimator_phi
 807 0acc 00000000 		.word	ir_pitch
 808 0ad0 00000000 		.word	ir_pitch_neutral
 809 0ad4 00000000 		.word	estimator_theta
 810 0ad8 00000000 		.word	ir_correction_right
 811 0adc 00000000 		.word	ir_correction_left
 812 0ae0 00000000 		.word	ir_correction_up
 813 0ae4 00000000 		.word	ir_correction_down
 815              		.comm	ir_roll,2,2
 816              		.comm	ir_pitch,2,2
 817              		.comm	ir_top,2,2
 818              		.comm	x1_dbg,2,2
 819              		.comm	x2_dbg,2,2
 820              		.comm	ir_rad_of_ir,4,4
 821              		.comm	ir_contrast,2,2
 822              		.comm	z_contrast_mode,4,4
 823              		.comm	ir_360,1,1
 824              		.comm	ir_estimated_phi_pi_4,4,4
 825              		.comm	ir_estimated_phi_minus_pi_4,4,4
 826              		.comm	ir_estimated_theta_pi_4,4,4
 827              		.comm	ir_estimated_theta_minus_pi_4,4,4
 828              		.comm	adc_roll_neutral,2,2
 829              		.comm	adc_pitch_neutral,2,2
 830              		.comm	ir_correction_left,4,4
 831              		.comm	ir_correction_right,4,4
 832              		.comm	ir_correction_up,4,4
 833              		.comm	ir_correction_down,4,4
 834              		.comm	estimator_rad_of_ir,4,4
 835              		.comm	estimator_ir,4,4
 836              		.comm	estimator_rad,4,4
 837              		.bss
 838              		.align	2
 839              	last_periodic_event:
 840 0018 00000000 		.space	4
 841              		.comm	ir_roll_neutral,4,4
 842              		.comm	ir_pitch_neutral,4,4
 843              		.align	2
 844              	buf_ir1:
 845 001c 00000000 		.space	68
 845      00000000 
 845      00000000 
 845      00000000 
 845      00000000 
 846              		.align	2
 847              	buf_ir2:
 848 0060 00000000 		.space	68
 848      00000000 
 848      00000000 
 848      00000000 
 848      00000000 
 849              		.ident	"GCC: (GNU) 3.4.4"