   1              		.file	"fw_h_ctl.c"
   2              		.global	h_ctl_attitude_enabled
   3              		.bss
   6              	h_ctl_attitude_enabled:
   7 0000 00       		.space	1
   8              		.text
   9              		.align	2
  10              		.global	h_ctl_init
  12              	h_ctl_init:
  13              		@ Function supports interworking.
  14              		@ args = 0, pretend = 0, frame = 0
  15              		@ frame_needed = 0, uses_anonymous_args = 0
  16 0000 7C319FE5 		ldr	r3, .L2
  17 0004 3F24A0E3 		mov	r2, #1056964608
  18 0008 70402DE9 		stmfd	sp!, {r4, r5, r6, lr}
  19 000c 002083E5 		str	r2, [r3, #0]	@ float
  20 0010 70219FE5 		ldr	r2, .L2+4
  21 0014 70319FE5 		ldr	r3, .L2+8
  22 0018 002083E5 		str	r2, [r3, #0]	@ float
  23 001c 6C219FE5 		ldr	r2, .L2+12
  24 0020 6C319FE5 		ldr	r3, .L2+16
  25 0024 002083E5 		str	r2, [r3, #0]	@ float
  26 0028 68219FE5 		ldr	r2, .L2+20
  27 002c 68319FE5 		ldr	r3, .L2+24
  28 0030 002083E5 		str	r2, [r3, #0]	@ float
  29 0034 64219FE5 		ldr	r2, .L2+28
  30 0038 64319FE5 		ldr	r3, .L2+32
  31 003c 002083E5 		str	r2, [r3, #0]	@ float
  32 0040 60219FE5 		ldr	r2, .L2+36
  33 0044 60319FE5 		ldr	r3, .L2+40
  34 0048 60519FE5 		ldr	r5, .L2+44
  35 004c 002083E5 		str	r2, [r3, #0]	@ float
  36 0050 5C319FE5 		ldr	r3, .L2+48
  37 0054 005083E5 		str	r5, [r3, #0]	@ float
  38 0058 58319FE5 		ldr	r3, .L2+52
  39 005c 0000A0E3 		mov	r0, #0
  40 0060 54C19FE5 		ldr	ip, .L2+56
  41 0064 B000C3E1 		strh	r0, [r3, #0]	@ movhi 
  42 0068 50319FE5 		ldr	r3, .L2+60
  43 006c 00C083E5 		str	ip, [r3, #0]	@ float
  44 0070 4C319FE5 		ldr	r3, .L2+64
  45 0074 0010A0E3 		mov	r1, #0
  46 0078 001083E5 		str	r1, [r3, #0]	@ float
  47 007c 44319FE5 		ldr	r3, .L2+68
  48 0080 001083E5 		str	r1, [r3, #0]	@ float
  49 0084 40319FE5 		ldr	r3, .L2+72
  50 0088 FEE5A0E3 		mov	lr, #1065353216
  51 008c 00E083E5 		str	lr, [r3, #0]	@ float
  52 0090 38319FE5 		ldr	r3, .L2+76
  53 0094 0000C3E5 		strb	r0, [r3, #0]
  54 0098 34319FE5 		ldr	r3, .L2+80
  55 009c 001083E5 		str	r1, [r3, #0]	@ float
  56 00a0 30319FE5 		ldr	r3, .L2+84
  57 00a4 B000C3E1 		strh	r0, [r3, #0]	@ movhi 
  58 00a8 2C319FE5 		ldr	r3, .L2+88
  59 00ac 001083E5 		str	r1, [r3, #0]	@ float
  60 00b0 28319FE5 		ldr	r3, .L2+92
  61 00b4 001083E5 		str	r1, [r3, #0]	@ float
  62 00b8 24319FE5 		ldr	r3, .L2+96
  63 00bc 005083E5 		str	r5, [r3, #0]	@ float
  64 00c0 20319FE5 		ldr	r3, .L2+100
  65 00c4 001083E5 		str	r1, [r3, #0]	@ float
  66 00c8 1C319FE5 		ldr	r3, .L2+104
  67 00cc B000C3E1 		strh	r0, [r3, #0]	@ movhi 
  68 00d0 18319FE5 		ldr	r3, .L2+108
  69 00d4 001083E5 		str	r1, [r3, #0]	@ float
  70 00d8 14319FE5 		ldr	r3, .L2+112
  71 00dc 001083E5 		str	r1, [r3, #0]	@ float
  72 00e0 10319FE5 		ldr	r3, .L2+116
  73 00e4 00E083E5 		str	lr, [r3, #0]	@ float
  74 00e8 0C319FE5 		ldr	r3, .L2+120
  75 00ec FD45A0E3 		mov	r4, #1061158912
  76 00f0 004083E5 		str	r4, [r3, #0]	@ float
  77 00f4 04319FE5 		ldr	r3, .L2+124
  78 00f8 001083E5 		str	r1, [r3, #0]	@ float
  79 00fc 00319FE5 		ldr	r3, .L2+128
  80 0100 001083E5 		str	r1, [r3, #0]	@ float
  81 0104 FC309FE5 		ldr	r3, .L2+132
  82 0108 00C083E5 		str	ip, [r3, #0]	@ float
  83 010c F8309FE5 		ldr	r3, .L2+136
  84 0110 00C083E5 		str	ip, [r3, #0]	@ float
  85 0114 F4309FE5 		ldr	r3, .L2+140
  86 0118 00E083E5 		str	lr, [r3, #0]	@ float
  87 011c F0309FE5 		ldr	r3, .L2+144
  88 0120 004083E5 		str	r4, [r3, #0]	@ float
  89 0124 EC309FE5 		ldr	r3, .L2+148
  90 0128 001083E5 		str	r1, [r3, #0]	@ float
  91 012c E8309FE5 		ldr	r3, .L2+152
  92 0130 001083E5 		str	r1, [r3, #0]	@ float
  93 0134 E4309FE5 		ldr	r3, .L2+156
  94 0138 00C083E5 		str	ip, [r3, #0]	@ float
  95 013c E0309FE5 		ldr	r3, .L2+160
  96 0140 00E083E5 		str	lr, [r3, #0]	@ float
  97 0144 DC309FE5 		ldr	r3, .L2+164
  98 0148 004083E5 		str	r4, [r3, #0]	@ float
  99 014c D8309FE5 		ldr	r3, .L2+168
 100 0150 D8609FE5 		ldr	r6, .L2+172
 101 0154 001083E5 		str	r1, [r3, #0]	@ float
 102 0158 D4309FE5 		ldr	r3, .L2+176
 103 015c 006083E5 		str	r6, [r3, #0]	@ float
 104 0160 D0309FE5 		ldr	r3, .L2+180
 105 0164 0120A0E3 		mov	r2, #1
 106 0168 0020C3E5 		strb	r2, [r3, #0]
 107 016c C8309FE5 		ldr	r3, .L2+184
 108 0170 001083E5 		str	r1, [r3, #0]	@ float
 109 0174 C4309FE5 		ldr	r3, .L2+188
 110 0178 006083E5 		str	r6, [r3, #0]	@ float
 111 017c 7040BDE8 		ldmfd	sp!, {r4, r5, r6, lr}
 112 0180 1EFF2FE1 		bx	lr
 113              	.L3:
 114              		.align	2
 115              	.L2:
 116 0184 00000000 		.word	h_ctl_course_pgain
 117 0188 C2B8323E 		.word	1043511490
 118 018c 00000000 		.word	h_ctl_roll_max_setpoint
 119 0190 920A063F 		.word	1057360530
 120 0194 00000000 		.word	h_ctl_pitch_max_setpoint
 121 0198 C2B832BE 		.word	-1103972158
 122 019c 00000000 		.word	h_ctl_pitch_min_setpoint
 123 01a0 C2B8B23E 		.word	1051900098
 124 01a4 00000000 		.word	h_ctl_yaw_max_setpoint
 125 01a8 00803BC6 		.word	-969179136
 126 01ac 00000000 		.word	h_ctl_roll_pgain
 127 01b0 00B83A46 		.word	1178253312
 128 01b4 00000000 		.word	h_ctl_yaw_pgain
 129 01b8 00000000 		.word	h_ctl_rudder_setpoint
 130 01bc 00409C46 		.word	1184645120
 131 01c0 00000000 		.word	h_ctl_lo_throttle_pitch_rate_pgain
 132 01c4 00000000 		.word	h_ctl_course_setpoint
 133 01c8 00000000 		.word	h_ctl_course_pre_bank
 134 01cc 00000000 		.word	h_ctl_course_pre_bank_correction
 135 01d0 00000000 		.word	h_ctl_disabled
 136 01d4 00000000 		.word	h_ctl_roll_setpoint
 137 01d8 00000000 		.word	h_ctl_aileron_setpoint
 138 01dc 00000000 		.word	h_ctl_aileron_of_throttle
 139 01e0 00000000 		.word	h_ctl_pitch_setpoint
 140 01e4 00000000 		.word	h_ctl_pitch_pgain
 141 01e8 00000000 		.word	h_ctl_pitch_dgain
 142 01ec 00000000 		.word	h_ctl_elevator_setpoint
 143 01f0 00000000 		.word	h_ctl_elevator_of_roll
 144 01f4 00000000 		.word	h_ctl_yaw_setpoint
 145 01f8 00000000 		.word	h_ctl_roll_rate_mode
 146 01fc 00000000 		.word	h_ctl_roll_rate_setpoint_pgain
 147 0200 00000000 		.word	h_ctl_roll_rate_igain
 148 0204 00000000 		.word	h_ctl_roll_rate_dgain
 149 0208 00000000 		.word	h_ctl_hi_throttle_roll_rate_pgain
 150 020c 00000000 		.word	h_ctl_lo_throttle_roll_rate_pgain
 151 0210 00000000 		.word	h_ctl_pitch_rate_mode
 152 0214 00000000 		.word	h_ctl_pitch_rate_setpoint_pgain
 153 0218 00000000 		.word	h_ctl_pitch_rate_igain
 154 021c 00000000 		.word	h_ctl_pitch_rate_dgain
 155 0220 00000000 		.word	h_ctl_hi_throttle_pitch_rate_pgain
 156 0224 00000000 		.word	h_ctl_yaw_rate_mode
 157 0228 00000000 		.word	h_ctl_yaw_rate_setpoint_pgain
 158 022c 00000000 		.word	h_ctl_yaw_rate_dgain
 159 0230 00401C46 		.word	1176256512
 160 0234 00000000 		.word	h_ctl_lo_throttle_yaw_rate_pgain
 161 0238 00000000 		.word	h_ctl_attitude_enabled
 162 023c 00000000 		.word	h_ctl_yaw_rate_igain
 163 0240 00000000 		.word	h_ctl_hi_throttle_yaw_rate_pgain
 165              		.global	__subsf3
 166              		.global	__extendsfdf2
 167              		.global	__gtdf2
 168              		.global	__subdf3
 169              		.global	__truncdfsf2
 170              		.global	__ltdf2
 171              		.global	__adddf3
 172              		.global	__divsf3
 173              		.global	__gtsf2
 174              		.global	__mulsf3
 175              		.global	__ltsf2
 176              		.global	__muldf3
 177              		.align	2
 178              		.global	h_ctl_course_loop
 180              	h_ctl_course_loop:
 181              		@ Function supports interworking.
 182              		@ args = 0, pretend = 0, frame = 0
 183              		@ frame_needed = 1, uses_anonymous_args = 0
 184 0244 0DC0A0E1 		mov	ip, sp
 185 0248 F0D92DE9 		stmfd	sp!, {r4, r5, r6, r7, r8, fp, ip, lr, pc}
 186 024c 68329FE5 		ldr	r3, .L34+40
 187 0250 000093E5 		ldr	r0, [r3, #0]	@ float
 188 0254 64329FE5 		ldr	r3, .L34+44
 189 0258 04B04CE2 		sub	fp, ip, #4
 190 025c 001093E5 		ldr	r1, [r3, #0]	@ float
 191 0260 FEFFFFEB 		bl	__subsf3
 192 0264 9A0000EA 		b	.L31
 193              	.L8:
 194 0268 FEFFFFEB 		bl	__subdf3
 195 026c FEFFFFEB 		bl	__truncdfsf2
 196              	.L31:
 197 0270 0060A0E1 		mov	r6, r0
 198 0274 FEFFFFEB 		bl	__extendsfdf2
 199 0278 852F8FE2 		adr	r2, .L34
 200 027c 0C0092E8 		ldmia	r2, {r2-r3}
 201 0280 0150A0E1 		mov	r5, r1
 202 0284 0040A0E1 		mov	r4, r0
 203 0288 FEFFFFEB 		bl	__gtdf2
 204 028c 000050E3 		cmp	r0, #0
 205 0290 812F8FE2 		adr	r2, .L34+8
 206 0294 0C0092E8 		ldmia	r2, {r2-r3}
 207 0298 0510A0E1 		mov	r1, r5
 208 029c 0400A0E1 		mov	r0, r4
 209 02a0 980000CA 		bgt	.L8
 210 02a4 AB0000EA 		b	.L9
 211              	.L12:
 212 02a8 FEFFFFEB 		bl	__adddf3
 213 02ac FEFFFFEB 		bl	__truncdfsf2
 214 02b0 0060A0E1 		mov	r6, r0
 215              	.L9:
 216 02b4 0600A0E1 		mov	r0, r6
 217 02b8 FEFFFFEB 		bl	__extendsfdf2
 218 02bc 1E2E8FE2 		adr	r2, .L34+16
 219 02c0 0C0092E8 		ldmia	r2, {r2-r3}
 220 02c4 0150A0E1 		mov	r5, r1
 221 02c8 0040A0E1 		mov	r4, r0
 222 02cc FEFFFFEB 		bl	__ltdf2
 223 02d0 000050E3 		cmp	r0, #0
 224 02d4 072D8FE2 		adr	r2, .L34+8
 225 02d8 0C0092E8 		ldmia	r2, {r2-r3}
 226 02dc 0510A0E1 		mov	r1, r5
 227 02e0 0400A0E1 		mov	r0, r4
 228 02e4 A80000BA 		blt	.L12
 229 02e8 D4319FE5 		ldr	r3, .L34+48
 230 02ec D4119FE5 		ldr	r1, .L34+52
 231 02f0 000093E5 		ldr	r0, [r3, #0]	@ float
 232 02f4 FEFFFFEB 		bl	__divsf3
 233 02f8 FF15A0E3 		mov	r1, #1069547520
 234 02fc 0070A0E1 		mov	r7, r0
 235 0300 FEFFFFEB 		bl	__gtsf2
 236 0304 000050E3 		cmp	r0, #0
 237 0308 FF75A0C3 		movgt	r7, #1069547520
 238 030c CA0000CA 		bgt	.L15
 239 0310 0700A0E1 		mov	r0, r7
 240 0314 FEFFFFEB 		bl	__extendsfdf2
 241 0318 632F8FE2 		adr	r2, .L34+24
 242 031c 0C0092E8 		ldmia	r2, {r2-r3}
 243 0320 FEFFFFEB 		bl	__ltdf2
 244 0324 A0319FE5 		ldr	r3, .L34+56
 245 0328 000050E3 		cmp	r0, #0
 246 032c 0370A0B1 		movlt	r7, r3
 247              	.L15:
 248 0330 98319FE5 		ldr	r3, .L34+60
 249 0334 0610A0E1 		mov	r1, r6
 250 0338 000093E5 		ldr	r0, [r3, #0]	@ float
 251 033c FEFFFFEB 		bl	__mulsf3
 252 0340 8C319FE5 		ldr	r3, .L34+64
 253 0344 0030D3E5 		ldrb	r3, [r3, #0]	@ zero_extendqisi2
 254 0348 010053E3 		cmp	r3, #1
 255 034c 0050A0E1 		mov	r5, r0
 256 0350 ED00001A 		bne	.L18
 257 0354 7C319FE5 		ldr	r3, .L34+68
 258 0358 000093E5 		ldr	r0, [r3, #0]	@ float
 259 035c 78319FE5 		ldr	r3, .L34+72
 260 0360 001093E5 		ldr	r1, [r3, #0]	@ float
 261 0364 FEFFFFEB 		bl	__subsf3
 262 0368 0040A0E1 		mov	r4, r0
 263 036c 0500A0E1 		mov	r0, r5
 264 0370 FEFFFFEB 		bl	__extendsfdf2
 265 0374 0160A0E1 		mov	r6, r1
 266 0378 0050A0E1 		mov	r5, r0
 267 037c 0400A0E1 		mov	r0, r4
 268 0380 0010A0E3 		mov	r1, #0
 269 0384 FEFFFFEB 		bl	__ltsf2
 270 0388 000050E3 		cmp	r0, #0
 271 038c E90000AA 		bge	.L19
 272 0390 0610A0E1 		mov	r1, r6
 273 0394 0500A0E1 		mov	r0, r5
 274 0398 452F8FE2 		adr	r2, .L34+32
 275 039c 0C0092E8 		ldmia	r2, {r2-r3}
 276 03a0 FEFFFFEB 		bl	__muldf3
 277 03a4 0160A0E1 		mov	r6, r1
 278 03a8 0050A0E1 		mov	r5, r0
 279              	.L19:
 280 03ac 0610A0E1 		mov	r1, r6
 281 03b0 0500A0E1 		mov	r0, r5
 282 03b4 FEFFFFEB 		bl	__truncdfsf2
 283 03b8 0050A0E1 		mov	r5, r0
 284              	.L18:
 285 03bc 1C319FE5 		ldr	r3, .L34+76
 286 03c0 1C819FE5 		ldr	r8, .L34+80
 287 03c4 006093E5 		ldr	r6, [r3, #0]	@ float
 288 03c8 0710A0E1 		mov	r1, r7
 289 03cc 0600A0E1 		mov	r0, r6
 290 03d0 005088E5 		str	r5, [r8, #0]	@ float
 291 03d4 FEFFFFEB 		bl	__mulsf3
 292 03d8 0040A0E1 		mov	r4, r0
 293 03dc 0410A0E1 		mov	r1, r4
 294 03e0 0500A0E1 		mov	r0, r5
 295 03e4 FEFFFFEB 		bl	__gtsf2
 296 03e8 000050E3 		cmp	r0, #0
 297 03ec 030100CA 		bgt	.L32
 298 03f0 0710A0E1 		mov	r1, r7
 299 03f4 020126E2 		eor	r0, r6, #-2147483648
 300 03f8 FEFFFFEB 		bl	__mulsf3
 301 03fc 0040A0E1 		mov	r4, r0
 302 0400 0410A0E1 		mov	r1, r4
 303 0404 0500A0E1 		mov	r0, r5
 304 0408 FEFFFFEB 		bl	__ltsf2
 305 040c 000050E3 		cmp	r0, #0
 306 0410 040100AA 		bge	.L23
 307              	.L32:
 308 0414 004088E5 		str	r4, [r8, #0]	@ float
 309              	.L23:
 310 0418 C8309FE5 		ldr	r3, .L34+84
 311 041c 000093E5 		ldr	r0, [r3, #0]	@ float
 312 0420 C4309FE5 		ldr	r3, .L34+88
 313 0424 001093E5 		ldr	r1, [r3, #0]	@ float
 314 0428 FEFFFFEB 		bl	__mulsf3
 315 042c BC309FE5 		ldr	r3, .L34+92
 316 0430 BC809FE5 		ldr	r8, .L34+96
 317 0434 006093E5 		ldr	r6, [r3, #0]	@ float
 318 0438 0050A0E1 		mov	r5, r0
 319 043c 0710A0E1 		mov	r1, r7
 320 0440 0600A0E1 		mov	r0, r6
 321 0444 005088E5 		str	r5, [r8, #0]	@ float
 322 0448 FEFFFFEB 		bl	__mulsf3
 323 044c 0040A0E1 		mov	r4, r0
 324 0450 0410A0E1 		mov	r1, r4
 325 0454 0500A0E1 		mov	r0, r5
 326 0458 FEFFFFEB 		bl	__gtsf2
 327 045c 000050E3 		cmp	r0, #0
 328 0460 200100CA 		bgt	.L33
 329 0464 0710A0E1 		mov	r1, r7
 330 0468 020126E2 		eor	r0, r6, #-2147483648
 331 046c FEFFFFEB 		bl	__mulsf3
 332 0470 0040A0E1 		mov	r4, r0
 333 0474 0410A0E1 		mov	r1, r4
 334 0478 0500A0E1 		mov	r0, r5
 335 047c FEFFFFEB 		bl	__ltsf2
 336 0480 000050E3 		cmp	r0, #0
 337 0484 210100AA 		bge	.L4
 338              	.L33:
 339 0488 004088E5 		str	r4, [r8, #0]	@ float
 340              	.L4:
 341 048c F0699DE8 		ldmfd	sp, {r4, r5, r6, r7, r8, fp, sp, lr}
 342 0490 1EFF2FE1 		bx	lr
 343              	.L35:
 344              		.align	2
 345              	.L34:
 346 0494 FB210940 		.word	1074340347
 347 0498 182D4454 		.word	1413754136
 348 049c FB211940 		.word	1075388923
 349 04a0 182D4454 		.word	1413754136
 350 04a4 FB2109C0 		.word	-1073143301
 351 04a8 182D4454 		.word	1413754136
 352 04ac B81EE53F 		.word	1071980216
 353 04b0 1F85EB51 		.word	1374389535
 354 04b4 9999E93F 		.word	1072273817
 355 04b8 9A999999 		.word	-1717986918
 356 04bc 00000000 		.word	estimator_hspeed_dir
 357 04c0 00000000 		.word	h_ctl_course_setpoint
 358 04c4 00000000 		.word	estimator_hspeed_mod
 359 04c8 0000E040 		.word	1088421888
 360 04cc C3F5283F 		.word	1059648963
 361 04d0 00000000 		.word	h_ctl_course_pgain
 362 04d4 00000000 		.word	v_ctl_auto_throttle_submode
 363 04d8 00000000 		.word	estimator_z
 364 04dc 00000000 		.word	v_ctl_altitude_setpoint
 365 04e0 00000000 		.word	h_ctl_yaw_max_setpoint
 366 04e4 00000000 		.word	h_ctl_yaw_setpoint
 367 04e8 00000000 		.word	h_ctl_course_pre_bank_correction
 368 04ec 00000000 		.word	h_ctl_course_pre_bank
 369 04f0 00000000 		.word	h_ctl_roll_max_setpoint
 370 04f4 00000000 		.word	h_ctl_roll_setpoint
 372              		.global	__floatsisf
 373              		.global	__addsf3
 374              		.global	__divdf3
 375              		.global	__fixsfsi
 376              		.bss
 377 0001 000000   		.align	2
 378              	roll_rate_sum_err.0:
 379 0004 00000000 		.space	4
 380              	roll_rate_sum_idx.1:
 381 0008 00       		.space	1
 382 0009 000000   		.align	2
 383              	roll_rate_sum_values.2:
 384 000c 00000000 		.space	64
 384      00000000 
 384      00000000 
 384      00000000 
 384      00000000 
 385              		.align	2
 386              	last_err.3:
 387 004c 00000000 		.space	4
 388              		.align	2
 389              	last_err.4:
 390 0050 00000000 		.space	4
 391              		.align	2
 392              	last_err.5:
 393 0054 00000000 		.space	4
 394              		.text
 395              		.align	2
 396              		.global	h_ctl_attitude_loop
 398              	h_ctl_attitude_loop:
 399              		@ Function supports interworking.
 400              		@ args = 0, pretend = 0, frame = 4
 401              		@ frame_needed = 1, uses_anonymous_args = 0
 402 04f8 0DC0A0E1 		mov	ip, sp
 403 04fc F0DF2DE9 		stmfd	sp!, {r4, r5, r6, r7, r8, r9, sl, fp, ip, lr, pc}
 404 0500 94349FE5 		ldr	r3, .L112+16
 405 0504 04B04CE2 		sub	fp, ip, #4
 406 0508 04D04DE2 		sub	sp, sp, #4
 407 050c 0030D3E5 		ldrb	r3, [r3, #0]	@ zero_extendqisi2
 408 0510 000053E3 		cmp	r3, #0
 409 0514 6B03001A 		bne	.L36
 410 0518 00259FE5 		ldr	r2, .L112+148
 411 051c F000D2E1 		ldrsh	r0, [r2, #0]
 412 0520 FEFFFFEB 		bl	__floatsisf
 413 0524 08159FE5 		ldr	r1, .L112+168
 414 0528 FEFFFFEB 		bl	__divsf3
 415 052c 6C349FE5 		ldr	r3, .L112+20
 416 0530 001093E5 		ldr	r1, [r3, #0]	@ float
 417 0534 0040A0E1 		mov	r4, r0
 418 0538 FEFFFFEB 		bl	__mulsf3
 419 053c 0410A0E1 		mov	r1, r4
 420 0540 0050A0E1 		mov	r5, r0
 421 0544 FE05A0E3 		mov	r0, #1065353216
 422 0548 FEFFFFEB 		bl	__subsf3
 423 054c 50249FE5 		ldr	r2, .L112+24
 424 0550 001092E5 		ldr	r1, [r2, #0]	@ float
 425 0554 FEFFFFEB 		bl	__mulsf3
 426 0558 0010A0E1 		mov	r1, r0
 427 055c 0500A0E1 		mov	r0, r5
 428 0560 FEFFFFEB 		bl	__addsf3
 429 0564 3C249FE5 		ldr	r2, .L112+28
 430 0568 0030D2E5 		ldrb	r3, [r2, #0]	@ zero_extendqisi2
 431 056c 000053E3 		cmp	r3, #0
 432 0570 0040A0E1 		mov	r4, r0
 433 0574 30049FE5 		ldr	r0, .L112+32
 434 0578 6601000A 		beq	.L38
 435 057c 2C349FE5 		ldr	r3, .L112+36
 436 0580 000090E5 		ldr	r0, [r0, #0]	@ float
 437 0584 001093E5 		ldr	r1, [r3, #0]	@ float
 438 0588 FEFFFFEB 		bl	__subsf3
 439 058c 0050A0E1 		mov	r5, r0
 440 0590 0510A0E1 		mov	r1, r5
 441 0594 0400A0E1 		mov	r0, r4
 442 0598 FEFFFFEB 		bl	__mulsf3
 443 059c 700100EA 		b	.L106
 444              	.L38:
 445 05a0 005090E5 		ldr	r5, [r0, #0]	@ float
 446 05a4 0500A0E1 		mov	r0, r5
 447 05a8 FEFFFFEB 		bl	__extendsfdf2
 448 05ac F62F8FE2 		adr	r2, .L112
 449 05b0 0C0092E8 		ldmia	r2, {r2-r3}
 450 05b4 FEFFFFEB 		bl	__divdf3
 451 05b8 F52F8FE2 		adr	r2, .L112+8
 452 05bc 0C0092E8 		ldmia	r2, {r2-r3}
 453 05c0 FEFFFFEB 		bl	__muldf3
 454 05c4 FEFFFFEB 		bl	__truncdfsf2
 455              	.L106:
 456 05c8 5C149FE5 		ldr	r1, .L112+160
 457 05cc 0040A0E1 		mov	r4, r0
 458 05d0 FEFFFFEB 		bl	__ltsf2
 459 05d4 000050E3 		cmp	r0, #0
 460 05d8 50349FB5 		ldrlt	r3, .L112+164
 461 05dc D0939FE5 		ldr	r9, .L112+40
 462 05e0 0300A0B1 		movlt	r0, r3	@ movhi
 463 05e4 7F0100BA 		blt	.L41
 464 05e8 0400A0E1 		mov	r0, r4
 465 05ec 40149FE5 		ldr	r1, .L112+168
 466 05f0 FEFFFFEB 		bl	__gtsf2
 467 05f4 000050E3 		cmp	r0, #0
 468 05f8 960DA0C3 		movgt	r0, #9600	@ movhi
 469 05fc 0400A0D1 		movle	r0, r4
 470 0600 FEFFFFDB 		blle	__fixsfsi
 471              	.L41:
 472 0604 9C239FE5 		ldr	r2, .L112+28
 473 0608 0030D2E5 		ldrb	r3, [r2, #0]	@ zero_extendqisi2
 474 060c 000053E3 		cmp	r3, #0
 475 0610 B000C9E1 		strh	r0, [r9, #0]	@ movhi 
 476 0614 9C739FE5 		ldr	r7, .L112+44
 477 0618 9C639FE5 		ldr	r6, .L112+48
 478 061c 8A01000A 		beq	.L46
 479 0620 000096E5 		ldr	r0, [r6, #0]	@ float
 480 0624 0510A0E1 		mov	r1, r5
 481 0628 FEFFFFEB 		bl	__mulsf3
 482 062c 9A0100EA 		b	.L107
 483              	.L46:
 484 0630 74339FE5 		ldr	r3, .L112+32
 485 0634 000093E5 		ldr	r0, [r3, #0]	@ float
 486 0638 FEFFFFEB 		bl	__extendsfdf2
 487 063c D22F8FE2 		adr	r2, .L112
 488 0640 0C0092E8 		ldmia	r2, {r2-r3}
 489 0644 FEFFFFEB 		bl	__divdf3
 490 0648 0150A0E1 		mov	r5, r1
 491 064c 0040A0E1 		mov	r4, r0
 492 0650 000096E5 		ldr	r0, [r6, #0]	@ float
 493 0654 FEFFFFEB 		bl	__extendsfdf2
 494 0658 0130A0E1 		mov	r3, r1
 495 065c 0020A0E1 		mov	r2, r0
 496 0660 0510A0E1 		mov	r1, r5
 497 0664 0400A0E1 		mov	r0, r4
 498 0668 FEFFFFEB 		bl	__muldf3
 499 066c FEFFFFEB 		bl	__truncdfsf2
 500              	.L107:
 501 0670 000087E5 		str	r0, [r7, #0]	@ float
 502 0674 3C539FE5 		ldr	r5, .L112+44
 503 0678 004095E5 		ldr	r4, [r5, #0]	@ float
 504 067c 90139FE5 		ldr	r1, .L112+136
 505 0680 0400A0E1 		mov	r0, r4
 506 0684 FEFFFFEB 		bl	__gtsf2
 507 0688 000050E3 		cmp	r0, #0
 508 068c 80339FC5 		ldrgt	r3, .L112+136
 509 0690 A90100CA 		bgt	.L108
 510 0694 0400A0E1 		mov	r0, r4
 511 0698 78139FE5 		ldr	r1, .L112+140
 512 069c FEFFFFEB 		bl	__ltsf2
 513 06a0 000050E3 		cmp	r0, #0
 514 06a4 AA0100AA 		bge	.L50
 515 06a8 68339FE5 		ldr	r3, .L112+140
 516              	.L108:
 517 06ac 003085E5 		str	r3, [r5, #0]	@ float
 518              	.L50:
 519 06b0 F000D9E1 		ldrsh	r0, [r9, #0]
 520 06b4 FEFFFFEB 		bl	__floatsisf
 521 06b8 00339FE5 		ldr	r3, .L112+52
 522 06bc 2C000BE5 		str	r0, [fp, #-44]	@ float
 523 06c0 001093E5 		ldr	r1, [r3, #0]	@ float
 524 06c4 000095E5 		ldr	r0, [r5, #0]	@ float
 525 06c8 FEFFFFEB 		bl	__subsf3
 526 06cc F0829FE5 		ldr	r8, .L112+56
 527 06d0 0040D8E5 		ldrb	r4, [r8, #0]	@ zero_extendqisi2
 528 06d4 EC729FE5 		ldr	r7, .L112+60
 529 06d8 EC629FE5 		ldr	r6, .L112+64
 530 06dc FF5004E2 		and	r5, r4, #255
 531 06e0 00A0A0E1 		mov	sl, r0
 532 06e4 051196E7 		ldr	r1, [r6, r5, asl #2]	@ float
 533 06e8 000097E5 		ldr	r0, [r7, #0]	@ float
 534 06ec FEFFFFEB 		bl	__subsf3
 535 06f0 0A10A0E1 		mov	r1, sl
 536 06f4 05A186E7 		str	sl, [r6, r5, asl #2]	@ float
 537 06f8 FEFFFFEB 		bl	__addsf3
 538 06fc 014084E2 		add	r4, r4, #1
 539 0700 0040C8E5 		strb	r4, [r8, #0]
 540 0704 0030D8E5 		ldrb	r3, [r8, #0]	@ zero_extendqisi2
 541 0708 0F0053E3 		cmp	r3, #15
 542 070c 0030A083 		movhi	r3, #0
 543 0710 0030C885 		strhib	r3, [r8, #0]
 544 0714 04339FE5 		ldr	r3, .L112+148
 545 0718 000087E5 		str	r0, [r7, #0]	@ float
 546 071c F000D3E1 		ldrsh	r0, [r3, #0]
 547 0720 A8329FE5 		ldr	r3, .L112+68
 548 0724 00A083E5 		str	sl, [r3, #0]	@ float
 549 0728 FEFFFFEB 		bl	__floatsisf
 550 072c 00139FE5 		ldr	r1, .L112+168
 551 0730 FEFFFFEB 		bl	__divsf3
 552 0734 64229FE5 		ldr	r2, .L112+20
 553 0738 001092E5 		ldr	r1, [r2, #0]	@ float
 554 073c 0040A0E1 		mov	r4, r0
 555 0740 FEFFFFEB 		bl	__mulsf3
 556 0744 0410A0E1 		mov	r1, r4
 557 0748 0050A0E1 		mov	r5, r0
 558 074c FE05A0E3 		mov	r0, #1065353216
 559 0750 FEFFFFEB 		bl	__subsf3
 560 0754 48329FE5 		ldr	r3, .L112+24
 561 0758 001093E5 		ldr	r1, [r3, #0]	@ float
 562 075c FEFFFFEB 		bl	__mulsf3
 563 0760 0010A0E1 		mov	r1, r0
 564 0764 0500A0E1 		mov	r0, r5
 565 0768 FEFFFFEB 		bl	__addsf3
 566 076c 0A10A0E1 		mov	r1, sl
 567 0770 FEFFFFEB 		bl	__mulsf3
 568 0774 B0129FE5 		ldr	r1, .L112+160
 569 0778 0040A0E1 		mov	r4, r0
 570 077c FEFFFFEB 		bl	__ltsf2
 571 0780 000050E3 		cmp	r0, #0
 572 0784 A4329FB5 		ldrlt	r3, .L112+164
 573 0788 0300A0B1 		movlt	r0, r3	@ movhi
 574 078c E90100BA 		blt	.L55
 575 0790 0400A0E1 		mov	r0, r4
 576 0794 98129FE5 		ldr	r1, .L112+168
 577 0798 FEFFFFEB 		bl	__gtsf2
 578 079c 000050E3 		cmp	r0, #0
 579 07a0 960DA0C3 		movgt	r0, #9600	@ movhi
 580 07a4 0400A0D1 		movle	r0, r4
 581 07a8 FEFFFFDB 		blle	__fixsfsi
 582              	.L55:
 583 07ac 00329FE5 		ldr	r3, .L112+40
 584 07b0 B000C3E1 		strh	r0, [r3, #0]	@ movhi 
 585 07b4 F000D9E1 		ldrsh	r0, [r9, #0]
 586 07b8 FEFFFFEB 		bl	__floatsisf
 587 07bc 10329FE5 		ldr	r3, .L112+72
 588 07c0 004093E5 		ldr	r4, [r3, #0]	@ float
 589 07c4 0010A0E1 		mov	r1, r0
 590 07c8 0400A0E1 		mov	r0, r4
 591 07cc FEFFFFEB 		bl	__mulsf3
 592 07d0 0410A0E1 		mov	r1, r4
 593 07d4 0050A0E1 		mov	r5, r0
 594 07d8 FE05A0E3 		mov	r0, #1065353216
 595 07dc FEFFFFEB 		bl	__subsf3
 596 07e0 2C101BE5 		ldr	r1, [fp, #-44]	@ float
 597 07e4 FEFFFFEB 		bl	__mulsf3
 598 07e8 0010A0E1 		mov	r1, r0
 599 07ec 0500A0E1 		mov	r0, r5
 600 07f0 FEFFFFEB 		bl	__addsf3
 601 07f4 FEFFFFEB 		bl	__fixsfsi
 602 07f8 D8A19FE5 		ldr	sl, .L112+76
 603 07fc B000C9E1 		strh	r0, [r9, #0]	@ movhi 
 604 0800 0010A0E3 		mov	r1, #0
 605 0804 00009AE5 		ldr	r0, [sl, #0]	@ float
 606 0808 FEFFFFEB 		bl	__ltsf2
 607 080c 0C229FE5 		ldr	r2, .L112+148
 608 0810 000050E3 		cmp	r0, #0
 609 0814 0030A0B3 		movlt	r3, #0
 610 0818 00308AB5 		strlt	r3, [sl, #0]	@ float
 611 081c F000D2E1 		ldrsh	r0, [r2, #0]
 612 0820 FEFFFFEB 		bl	__floatsisf
 613 0824 08129FE5 		ldr	r1, .L112+168
 614 0828 FEFFFFEB 		bl	__divsf3
 615 082c A8919FE5 		ldr	r9, .L112+80
 616 0830 001099E5 		ldr	r1, [r9, #0]	@ float
 617 0834 0040A0E1 		mov	r4, r0
 618 0838 FEFFFFEB 		bl	__mulsf3
 619 083c 0410A0E1 		mov	r1, r4
 620 0840 0050A0E1 		mov	r5, r0
 621 0844 FE05A0E3 		mov	r0, #1065353216
 622 0848 FEFFFFEB 		bl	__subsf3
 623 084c AC319FE5 		ldr	r3, .L112+116
 624 0850 001093E5 		ldr	r1, [r3, #0]	@ float
 625 0854 FEFFFFEB 		bl	__mulsf3
 626 0858 0010A0E1 		mov	r1, r0
 627 085c 0500A0E1 		mov	r0, r5
 628 0860 FEFFFFEB 		bl	__addsf3
 629 0864 3C219FE5 		ldr	r2, .L112+28
 630 0868 0030D2E5 		ldrb	r3, [r2, #0]	@ zero_extendqisi2
 631 086c 0050A0E1 		mov	r5, r0
 632 0870 78019FE5 		ldr	r0, .L112+100
 633 0874 000053E3 		cmp	r3, #0
 634 0878 00809005 		ldreq	r8, [r0, #0]	@ float
 635 087c 5702000A 		beq	.L71
 636 0880 58319FE5 		ldr	r3, .L112+84
 637 0884 000090E5 		ldr	r0, [r0, #0]	@ float
 638 0888 001093E5 		ldr	r1, [r3, #0]	@ float
 639 088c FEFFFFEB 		bl	__subsf3
 640 0890 4C419FE5 		ldr	r4, .L112+88
 641 0894 001094E5 		ldr	r1, [r4, #0]	@ float
 642 0898 0080A0E1 		mov	r8, r0
 643 089c FEFFFFEB 		bl	__subsf3
 644 08a0 40319FE5 		ldr	r3, .L112+92
 645 08a4 0010A0E1 		mov	r1, r0
 646 08a8 008084E5 		str	r8, [r4, #0]	@ float
 647 08ac 000093E5 		ldr	r0, [r3, #0]	@ float
 648 08b0 FEFFFFEB 		bl	__mulsf3
 649 08b4 0010A0E1 		mov	r1, r0
 650 08b8 0800A0E1 		mov	r0, r8
 651 08bc FEFFFFEB 		bl	__addsf3
 652 08c0 0010A0E1 		mov	r1, r0
 653 08c4 0500A0E1 		mov	r0, r5
 654 08c8 FEFFFFEB 		bl	__mulsf3
 655 08cc FEFFFFEB 		bl	__extendsfdf2
 656 08d0 0170A0E1 		mov	r7, r1
 657 08d4 0060A0E1 		mov	r6, r0
 658 08d8 00009AE5 		ldr	r0, [sl, #0]	@ float
 659 08dc FEFFFFEB 		bl	__extendsfdf2
 660 08e0 C8309FE5 		ldr	r3, .L112+36
 661 08e4 003093E5 		ldr	r3, [r3, #0]
 662 08e8 0150A0E1 		mov	r5, r1
 663 08ec 0040A0E1 		mov	r4, r0
 664 08f0 0201C3E3 		bic	r0, r3, #-2147483648
 665 08f4 FEFFFFEB 		bl	__extendsfdf2
 666 08f8 0130A0E1 		mov	r3, r1
 667 08fc 0020A0E1 		mov	r2, r0
 668 0900 0510A0E1 		mov	r1, r5
 669 0904 0400A0E1 		mov	r0, r4
 670 0908 FEFFFFEB 		bl	__muldf3
 671 090c 0130A0E1 		mov	r3, r1
 672 0910 0020A0E1 		mov	r2, r0
 673 0914 0710A0E1 		mov	r1, r7
 674 0918 0600A0E1 		mov	r0, r6
 675 091c FEFFFFEB 		bl	__adddf3
 676 0920 FEFFFFEB 		bl	__truncdfsf2
 677 0924 00119FE5 		ldr	r1, .L112+160
 678 0928 0040A0E1 		mov	r4, r0
 679 092c FEFFFFEB 		bl	__ltsf2
 680 0930 000050E3 		cmp	r0, #0
 681 0934 F4309FB5 		ldrlt	r3, .L112+164
 682 0938 0300A0B1 		movlt	r0, r3	@ movhi
 683 093c 550200BA 		blt	.L66
 684 0940 0400A0E1 		mov	r0, r4
 685 0944 E8109FE5 		ldr	r1, .L112+168
 686 0948 FEFFFFEB 		bl	__gtsf2
 687 094c 000050E3 		cmp	r0, #0
 688 0950 960DA0C3 		movgt	r0, #9600	@ movhi
 689 0954 0400A0D1 		movle	r0, r4
 690 0958 FEFFFFDB 		blle	__fixsfsi
 691              	.L66:
 692 095c 94309FE5 		ldr	r3, .L112+108
 693 0960 B000C3E1 		strh	r0, [r3, #0]	@ movhi 
 694              	.L71:
 695 0964 3C209FE5 		ldr	r2, .L112+28
 696 0968 0030D2E5 		ldrb	r3, [r2, #0]	@ zero_extendqisi2
 697 096c 000053E3 		cmp	r3, #0
 698 0970 7C709FE5 		ldr	r7, .L112+104
 699 0974 70609FE5 		ldr	r6, .L112+96
 700 0978 9402000A 		beq	.L72
 701 097c 000096E5 		ldr	r0, [r6, #0]	@ float
 702 0980 0810A0E1 		mov	r1, r8
 703 0984 FEFFFFEB 		bl	__mulsf3
 704 0988 A40200EA 		b	.L109
 705              	.L113:
 706              		.align	2
 707              	.L112:
 708 098c 52C1E03F 		.word	1071694162
 709 0990 65732D38 		.word	942502757
 710 0994 00C0C240 		.word	1086504960
 711 0998 00000000 		.word	0
 712 099c 00000000 		.word	h_ctl_disabled
 713 09a0 00000000 		.word	h_ctl_hi_throttle_roll_rate_pgain
 714 09a4 00000000 		.word	h_ctl_lo_throttle_roll_rate_pgain
 715 09a8 00000000 		.word	h_ctl_attitude_enabled
 716 09ac 00000000 		.word	h_ctl_roll_setpoint
 717 09b0 00000000 		.word	estimator_phi
 718 09b4 00000000 		.word	h_ctl_aileron_setpoint
 719 09b8 00000000 		.word	h_ctl_roll_rate_setpoint
 720 09bc 00000000 		.word	h_ctl_roll_rate_setpoint_pgain
 721 09c0 00000000 		.word	estimator_p
 722 09c4 08000000 		.word	roll_rate_sum_idx.1
 723 09c8 04000000 		.word	roll_rate_sum_err.0
 724 09cc 0C000000 		.word	roll_rate_sum_values.2
 725 09d0 4C000000 		.word	last_err.3
 726 09d4 00000000 		.word	h_ctl_roll_rate_mode
 727 09d8 00000000 		.word	h_ctl_elevator_of_roll
 728 09dc 00000000 		.word	h_ctl_hi_throttle_pitch_rate_pgain
 729 09e0 00000000 		.word	estimator_theta
 730 09e4 50000000 		.word	last_err.4
 731 09e8 00000000 		.word	h_ctl_pitch_dgain
 732 09ec 00000000 		.word	h_ctl_pitch_rate_setpoint_pgain
 733 09f0 00000000 		.word	h_ctl_pitch_setpoint
 734 09f4 00000000 		.word	h_ctl_pitch_rate_setpoint
 735 09f8 00000000 		.word	h_ctl_elevator_setpoint
 736 09fc 00000000 		.word	estimator_q
 737 0a00 00000000 		.word	h_ctl_lo_throttle_pitch_rate_pgain
 738 0a04 00000000 		.word	h_ctl_pitch_rate_mode
 739 0a08 00000000 		.word	h_ctl_yaw_setpoint
 740 0a0c 00000000 		.word	h_ctl_yaw_rate_setpoint_pgain
 741 0a10 00000000 		.word	h_ctl_yaw_rate_setpoint
 742 0a14 00002041 		.word	1092616192
 743 0a18 000020C1 		.word	-1054867456
 744 0a1c 00000000 		.word	estimator_r
 745 0a20 00000000 		.word	v_ctl_throttle_setpoint
 746 0a24 00000000 		.word	h_ctl_hi_throttle_yaw_rate_pgain
 747 0a28 00000000 		.word	h_ctl_lo_throttle_yaw_rate_pgain
 748 0a2c 000016C6 		.word	-971636736
 749 0a30 80DAFFFF 		.word	-9600
 750 0a34 00001646 		.word	1175846912
 751 0a38 00000000 		.word	h_ctl_rudder_setpoint
 752 0a3c 00000000 		.word	h_ctl_yaw_rate_mode
 753 0a40 FB21E93F 		.word	1072243195
 754 0a44 182D4454 		.word	1413754136
 755 0a48 00C0C240 		.word	1086504960
 756 0a4c 00000000 		.word	0
 757 0a50 52C1E03F 		.word	1071694162
 758 0a54 65732D38 		.word	942502757
 759              	.L72:
 760 0a58 70301FE5 		ldr	r3, .L112+100
 761 0a5c 000093E5 		ldr	r0, [r3, #0]	@ float
 762 0a60 FEFFFFEB 		bl	__extendsfdf2
 763 0a64 2C204FE2 		adr	r2, .L112+180
 764 0a68 0C0092E8 		ldmia	r2, {r2-r3}
 765 0a6c FEFFFFEB 		bl	__divdf3
 766 0a70 0150A0E1 		mov	r5, r1
 767 0a74 0040A0E1 		mov	r4, r0
 768 0a78 000096E5 		ldr	r0, [r6, #0]	@ float
 769 0a7c FEFFFFEB 		bl	__extendsfdf2
 770 0a80 0130A0E1 		mov	r3, r1
 771 0a84 0020A0E1 		mov	r2, r0
 772 0a88 0510A0E1 		mov	r1, r5
 773 0a8c 0400A0E1 		mov	r0, r4
 774 0a90 FEFFFFEB 		bl	__muldf3
 775 0a94 FEFFFFEB 		bl	__truncdfsf2
 776              	.L109:
 777 0a98 000087E5 		str	r0, [r7, #0]	@ float
 778 0a9c B0501FE5 		ldr	r5, .L112+104
 779 0aa0 004095E5 		ldr	r4, [r5, #0]	@ float
 780 0aa4 98101FE5 		ldr	r1, .L112+136
 781 0aa8 0400A0E1 		mov	r0, r4
 782 0aac FEFFFFEB 		bl	__gtsf2
 783 0ab0 000050E3 		cmp	r0, #0
 784 0ab4 A8301FC5 		ldrgt	r3, .L112+136
 785 0ab8 B30200CA 		bgt	.L110
 786 0abc 0400A0E1 		mov	r0, r4
 787 0ac0 B0101FE5 		ldr	r1, .L112+140
 788 0ac4 FEFFFFEB 		bl	__ltsf2
 789 0ac8 000050E3 		cmp	r0, #0
 790 0acc B40200AA 		bge	.L76
 791 0ad0 C0301FE5 		ldr	r3, .L112+140
 792              	.L110:
 793 0ad4 003085E5 		str	r3, [r5, #0]	@ float
 794              	.L76:
 795 0ad8 E8701FE5 		ldr	r7, .L112+108
 796 0adc F000D7E1 		ldrsh	r0, [r7, #0]
 797 0ae0 FEFFFFEB 		bl	__floatsisf
 798 0ae4 F0301FE5 		ldr	r3, .L112+112
 799 0ae8 0080A0E1 		mov	r8, r0
 800 0aec 001093E5 		ldr	r1, [r3, #0]	@ float
 801 0af0 000095E5 		ldr	r0, [r5, #0]	@ float
 802 0af4 FEFFFFEB 		bl	__subsf3
 803 0af8 E0301FE5 		ldr	r3, .L112+148
 804 0afc 0060A0E1 		mov	r6, r0
 805 0b00 F000D3E1 		ldrsh	r0, [r3, #0]
 806 0b04 FEFFFFEB 		bl	__floatsisf
 807 0b08 DC101FE5 		ldr	r1, .L112+168
 808 0b0c FEFFFFEB 		bl	__divsf3
 809 0b10 001099E5 		ldr	r1, [r9, #0]	@ float
 810 0b14 0040A0E1 		mov	r4, r0
 811 0b18 FEFFFFEB 		bl	__mulsf3
 812 0b1c 0410A0E1 		mov	r1, r4
 813 0b20 0050A0E1 		mov	r5, r0
 814 0b24 FE05A0E3 		mov	r0, #1065353216
 815 0b28 FEFFFFEB 		bl	__subsf3
 816 0b2c 34211FE5 		ldr	r2, .L112+116
 817 0b30 001092E5 		ldr	r1, [r2, #0]	@ float
 818 0b34 FEFFFFEB 		bl	__mulsf3
 819 0b38 0010A0E1 		mov	r1, r0
 820 0b3c 0500A0E1 		mov	r0, r5
 821 0b40 FEFFFFEB 		bl	__addsf3
 822 0b44 0610A0E1 		mov	r1, r6
 823 0b48 FEFFFFEB 		bl	__mulsf3
 824 0b4c 28111FE5 		ldr	r1, .L112+160
 825 0b50 0040A0E1 		mov	r4, r0
 826 0b54 FEFFFFEB 		bl	__ltsf2
 827 0b58 000050E3 		cmp	r0, #0
 828 0b5c 34311FB5 		ldrlt	r3, .L112+164
 829 0b60 0300A0B1 		movlt	r0, r3	@ movhi
 830 0b64 DF0200BA 		blt	.L80
 831 0b68 0400A0E1 		mov	r0, r4
 832 0b6c 40111FE5 		ldr	r1, .L112+168
 833 0b70 FEFFFFEB 		bl	__gtsf2
 834 0b74 000050E3 		cmp	r0, #0
 835 0b78 960DA0C3 		movgt	r0, #9600	@ movhi
 836 0b7c 0400A0D1 		movle	r0, r4
 837 0b80 FEFFFFDB 		blle	__fixsfsi
 838              	.L80:
 839 0b84 B000C7E1 		strh	r0, [r7, #0]	@ movhi 
 840 0b88 F000D7E1 		ldrsh	r0, [r7, #0]
 841 0b8c FEFFFFEB 		bl	__floatsisf
 842 0b90 94311FE5 		ldr	r3, .L112+120
 843 0b94 004093E5 		ldr	r4, [r3, #0]	@ float
 844 0b98 0010A0E1 		mov	r1, r0
 845 0b9c 0400A0E1 		mov	r0, r4
 846 0ba0 FEFFFFEB 		bl	__mulsf3
 847 0ba4 0410A0E1 		mov	r1, r4
 848 0ba8 0050A0E1 		mov	r5, r0
 849 0bac FE05A0E3 		mov	r0, #1065353216
 850 0bb0 FEFFFFEB 		bl	__subsf3
 851 0bb4 0810A0E1 		mov	r1, r8
 852 0bb8 FEFFFFEB 		bl	__mulsf3
 853 0bbc 0010A0E1 		mov	r1, r0
 854 0bc0 0500A0E1 		mov	r0, r5
 855 0bc4 FEFFFFEB 		bl	__addsf3
 856 0bc8 FEFFFFEB 		bl	__fixsfsi
 857 0bcc CC511FE5 		ldr	r5, .L112+124
 858 0bd0 B000C7E1 		strh	r0, [r7, #0]	@ movhi 
 859 0bd4 000095E5 		ldr	r0, [r5, #0]	@ float
 860 0bd8 FEFFFFEB 		bl	__extendsfdf2
 861 0bdc 652F4FE2 		adr	r2, .L112+196
 862 0be0 0C0092E8 		ldmia	r2, {r2-r3}
 863 0be4 FEFFFFEB 		bl	__divdf3
 864 0be8 6A2F4FE2 		adr	r2, .L112+188
 865 0bec 0C0092E8 		ldmia	r2, {r2-r3}
 866 0bf0 FEFFFFEB 		bl	__muldf3
 867 0bf4 FEFFFFEB 		bl	__truncdfsf2
 868 0bf8 D4111FE5 		ldr	r1, .L112+160
 869 0bfc 0040A0E1 		mov	r4, r0
 870 0c00 FEFFFFEB 		bl	__ltsf2
 871 0c04 000050E3 		cmp	r0, #0
 872 0c08 D8711FE5 		ldr	r7, .L112+172
 873 0c0c E4311FB5 		ldrlt	r3, .L112+164
 874 0c10 0C0300BA 		blt	.L88
 875 0c14 0400A0E1 		mov	r0, r4
 876 0c18 EC111FE5 		ldr	r1, .L112+168
 877 0c1c FEFFFFEB 		bl	__gtsf2
 878 0c20 000050E3 		cmp	r0, #0
 879 0c24 963DA0C3 		movgt	r3, #9600	@ movhi
 880 0c28 0C0300CA 		bgt	.L88
 881 0c2c 0400A0E1 		mov	r0, r4
 882 0c30 FEFFFFEB 		bl	__fixsfsi
 883 0c34 0030A0E1 		mov	r3, r0	@ movhi
 884              	.L88:
 885 0c38 000095E5 		ldr	r0, [r5, #0]	@ float
 886 0c3c B030C7E1 		strh	r3, [r7, #0]	@ movhi 
 887 0c40 FEFFFFEB 		bl	__extendsfdf2
 888 0c44 7F2F4FE2 		adr	r2, .L112+196
 889 0c48 0C0092E8 		ldmia	r2, {r2-r3}
 890 0c4c FEFFFFEB 		bl	__divdf3
 891 0c50 4C321FE5 		ldr	r3, .L112+128
 892 0c54 0150A0E1 		mov	r5, r1
 893 0c58 0040A0E1 		mov	r4, r0
 894 0c5c 000093E5 		ldr	r0, [r3, #0]	@ float
 895 0c60 FEFFFFEB 		bl	__extendsfdf2
 896 0c64 0130A0E1 		mov	r3, r1
 897 0c68 0020A0E1 		mov	r2, r0
 898 0c6c 0510A0E1 		mov	r1, r5
 899 0c70 0400A0E1 		mov	r0, r4
 900 0c74 FEFFFFEB 		bl	__muldf3
 901 0c78 FEFFFFEB 		bl	__truncdfsf2
 902 0c7c 74521FE5 		ldr	r5, .L112+132
 903 0c80 0040A0E1 		mov	r4, r0
 904 0c84 78121FE5 		ldr	r1, .L112+136
 905 0c88 004085E5 		str	r4, [r5, #0]	@ float
 906 0c8c FEFFFFEB 		bl	__gtsf2
 907 0c90 000050E3 		cmp	r0, #0
 908 0c94 88321FC5 		ldrgt	r3, .L112+136
 909 0c98 2B0300CA 		bgt	.L111
 910 0c9c 0400A0E1 		mov	r0, r4
 911 0ca0 90121FE5 		ldr	r1, .L112+140
 912 0ca4 FEFFFFEB 		bl	__ltsf2
 913 0ca8 000050E3 		cmp	r0, #0
 914 0cac 2C0300AA 		bge	.L95
 915 0cb0 A0321FE5 		ldr	r3, .L112+140
 916              	.L111:
 917 0cb4 003085E5 		str	r3, [r5, #0]	@ float
 918              	.L95:
 919 0cb8 F000D7E1 		ldrsh	r0, [r7, #0]
 920 0cbc FEFFFFEB 		bl	__floatsisf
 921 0cc0 AC321FE5 		ldr	r3, .L112+144
 922 0cc4 0080A0E1 		mov	r8, r0
 923 0cc8 001093E5 		ldr	r1, [r3, #0]	@ float
 924 0ccc 000095E5 		ldr	r0, [r5, #0]	@ float
 925 0cd0 FEFFFFEB 		bl	__subsf3
 926 0cd4 BC321FE5 		ldr	r3, .L112+148
 927 0cd8 0060A0E1 		mov	r6, r0
 928 0cdc F000D3E1 		ldrsh	r0, [r3, #0]
 929 0ce0 FEFFFFEB 		bl	__floatsisf
 930 0ce4 B8121FE5 		ldr	r1, .L112+168
 931 0ce8 FEFFFFEB 		bl	__divsf3
 932 0cec D0321FE5 		ldr	r3, .L112+152
 933 0cf0 001093E5 		ldr	r1, [r3, #0]	@ float
 934 0cf4 0040A0E1 		mov	r4, r0
 935 0cf8 FEFFFFEB 		bl	__mulsf3
 936 0cfc 0410A0E1 		mov	r1, r4
 937 0d00 0050A0E1 		mov	r5, r0
 938 0d04 FE05A0E3 		mov	r0, #1065353216
 939 0d08 FEFFFFEB 		bl	__subsf3
 940 0d0c EC321FE5 		ldr	r3, .L112+156
 941 0d10 001093E5 		ldr	r1, [r3, #0]	@ float
 942 0d14 FEFFFFEB 		bl	__mulsf3
 943 0d18 0010A0E1 		mov	r1, r0
 944 0d1c 0500A0E1 		mov	r0, r5
 945 0d20 FEFFFFEB 		bl	__addsf3
 946 0d24 0610A0E1 		mov	r1, r6
 947 0d28 FEFFFFEB 		bl	__mulsf3
 948 0d2c 08131FE5 		ldr	r1, .L112+160
 949 0d30 0040A0E1 		mov	r4, r0
 950 0d34 FEFFFFEB 		bl	__ltsf2
 951 0d38 000050E3 		cmp	r0, #0
 952 0d3c 14331FB5 		ldrlt	r3, .L112+164
 953 0d40 0300A0B1 		movlt	r0, r3	@ movhi
 954 0d44 570300BA 		blt	.L99
 955 0d48 0400A0E1 		mov	r0, r4
 956 0d4c 20131FE5 		ldr	r1, .L112+168
 957 0d50 FEFFFFEB 		bl	__gtsf2
 958 0d54 000050E3 		cmp	r0, #0
 959 0d58 960DA0C3 		movgt	r0, #9600	@ movhi
 960 0d5c 0400A0D1 		movle	r0, r4
 961 0d60 FEFFFFDB 		blle	__fixsfsi
 962              	.L99:
 963 0d64 34331FE5 		ldr	r3, .L112+172
 964 0d68 B000C3E1 		strh	r0, [r3, #0]	@ movhi 
 965 0d6c F000D7E1 		ldrsh	r0, [r7, #0]
 966 0d70 FEFFFFEB 		bl	__floatsisf
 967 0d74 40331FE5 		ldr	r3, .L112+176
 968 0d78 004093E5 		ldr	r4, [r3, #0]	@ float
 969 0d7c 0010A0E1 		mov	r1, r0
 970 0d80 0400A0E1 		mov	r0, r4
 971 0d84 FEFFFFEB 		bl	__mulsf3
 972 0d88 0410A0E1 		mov	r1, r4
 973 0d8c 0050A0E1 		mov	r5, r0
 974 0d90 FE05A0E3 		mov	r0, #1065353216
 975 0d94 FEFFFFEB 		bl	__subsf3
 976 0d98 0810A0E1 		mov	r1, r8
 977 0d9c FEFFFFEB 		bl	__mulsf3
 978 0da0 0010A0E1 		mov	r1, r0
 979 0da4 0500A0E1 		mov	r0, r5
 980 0da8 FEFFFFEB 		bl	__addsf3
 981 0dac FEFFFFEB 		bl	__fixsfsi
 982 0db0 B000C7E1 		strh	r0, [r7, #0]	@ movhi 
 983              	.L36:
 984 0db4 28D04BE2 		sub	sp, fp, #40
 985 0db8 F06F9DE8 		ldmfd	sp, {r4, r5, r6, r7, r8, r9, sl, fp, sp, lr}
 986 0dbc 1EFF2FE1 		bx	lr
 988              		.comm	h_ctl_course_setpoint,4,4
 989              		.comm	h_ctl_course_pre_bank,4,4
 990              		.comm	h_ctl_course_pre_bank_correction,4,4
 991              		.comm	h_ctl_course_pgain,4,4
 992              		.comm	h_ctl_roll_max_setpoint,4,4
 993              		.comm	h_ctl_pitch_max_setpoint,4,4
 994              		.comm	h_ctl_pitch_min_setpoint,4,4
 995              		.comm	h_ctl_yaw_max_setpoint,4,4
 996              		.comm	h_ctl_disabled,1,1
 997              		.comm	h_ctl_auto1_rate,1,1
 998              		.comm	h_ctl_roll_setpoint,4,4
 999              		.comm	h_ctl_roll_pgain,4,4
 1000              		.comm	h_ctl_aileron_setpoint,2,2
 1001              		.comm	h_ctl_pitch_setpoint,4,4
 1002              		.comm	h_ctl_pitch_pgain,4,4
 1003              		.comm	h_ctl_pitch_dgain,4,4
 1004              		.comm	h_ctl_elevator_setpoint,2,2
 1005              		.comm	h_ctl_yaw_setpoint,4,4
 1006              		.comm	h_ctl_yaw_pgain,4,4
 1007              		.comm	h_ctl_yaw_dgain,4,4
 1008              		.comm	h_ctl_rudder_setpoint,2,2
 1009              		.comm	h_ctl_aileron_of_throttle,4,4
 1010              		.comm	h_ctl_elevator_of_roll,4,4
 1011              		.comm	h_ctl_roll_rate_setpoint,4,4
 1012              		.comm	h_ctl_roll_rate_mode,4,4
 1013              		.comm	h_ctl_roll_rate_setpoint_pgain,4,4
 1014              		.comm	h_ctl_hi_throttle_roll_rate_pgain,4,4
 1015              		.comm	h_ctl_lo_throttle_roll_rate_pgain,4,4
 1016              		.comm	h_ctl_roll_rate_igain,4,4
 1017              		.comm	h_ctl_roll_rate_dgain,4,4
 1018              		.comm	h_ctl_pitch_rate_setpoint,4,4
 1019              		.comm	h_ctl_pitch_rate_mode,4,4
 1020              		.comm	h_ctl_pitch_rate_setpoint_pgain,4,4
 1021              		.comm	h_ctl_hi_throttle_pitch_rate_pgain,4,4
 1022              		.comm	h_ctl_lo_throttle_pitch_rate_pgain,4,4
 1023              		.comm	h_ctl_pitch_rate_igain,4,4
 1024              		.comm	h_ctl_pitch_rate_dgain,4,4
 1025              		.comm	h_ctl_yaw_rate_setpoint,4,4
 1026              		.comm	h_ctl_yaw_rate_mode,4,4
 1027              		.comm	h_ctl_yaw_rate_setpoint_pgain,4,4
 1028              		.comm	h_ctl_hi_throttle_yaw_rate_pgain,4,4
 1029              		.comm	h_ctl_lo_throttle_yaw_rate_pgain,4,4
 1030              		.comm	h_ctl_yaw_rate_igain,4,4
 1031              		.comm	h_ctl_yaw_rate_dgain,4,4
 1032              		.ident	"GCC: (GNU) 3.4.4"