   1              		.file	"datalink.c"
   2              		.global	__floatsisf
   3              		.global	__divsf3
   4              		.global	__extendsfdf2
   5              		.global	__divdf3
   6              		.global	__muldf3
   7              		.global	__truncdfsf2
   8              		.global	__addsf3
   9              		.global	__subsf3
  10              		.global	__fixunssfsi
  11              		.text
  12              		.align	2
  13              		.global	dl_parse_msg
  15              	dl_parse_msg:
  16              		@ Function supports interworking.
  17              		@ args = 0, pretend = 0, frame = 20
  18              		@ frame_needed = 1, uses_anonymous_args = 0
  19 0000 0DC0A0E1 		mov	ip, sp
  20 0004 F0DF2DE9 		stmfd	sp!, {r4, r5, r6, r7, r8, r9, sl, fp, ip, lr, pc}
  21 0008 04B04CE2 		sub	fp, ip, #4
  22 000c 14D04DE2 		sub	sp, sp, #20
  23 0010 B0539FE5 		ldr	r5, .L68+24
  24 0014 0130D5E5 		ldrb	r3, [r5, #1]	@ zero_extendqisi2
  25 0018 010053E3 		cmp	r3, #1
  26 001c 3F00001A 		bne	.L2
  27 0020 040095E5 		ldr	r0, [r5, #4]
  28 0024 FEFFFFEB 		bl	__floatsisf
  29 0028 9C139FE5 		ldr	r1, .L68+28
  30 002c FEFFFFEB 		bl	__divsf3
  31 0030 0080A0E1 		mov	r8, r0
  32 0034 080095E5 		ldr	r0, [r5, #8]
  33 0038 FEFFFFEB 		bl	__floatsisf
  34 003c 88139FE5 		ldr	r1, .L68+28
  35 0040 FEFFFFEB 		bl	__divsf3
  36 0044 00A0A0E1 		mov	sl, r0
  37 0048 0C0095E5 		ldr	r0, [r5, #12]
  38 004c FEFFFFEB 		bl	__floatsisf
  39 0050 74139FE5 		ldr	r1, .L68+28
  40 0054 FEFFFFEB 		bl	__divsf3
  41 0058 0090A0E1 		mov	r9, r0
  42 005c F200D5E1 		ldrsh	r0, [r5, #2]
  43 0060 FEFFFFEB 		bl	__floatsisf
  44 0064 FEFFFFEB 		bl	__extendsfdf2
  45 0068 0D2D8FE2 		adr	r2, .L68
  46 006c 0C0092E8 		ldmia	r2, {r2-r3}
  47 0070 FEFFFFEB 		bl	__divdf3
  48 0074 CF2F8FE2 		adr	r2, .L68+8
  49 0078 0C0092E8 		ldmia	r2, {r2-r3}
  50 007c FEFFFFEB 		bl	__divdf3
  51 0080 CE2F8FE2 		adr	r2, .L68+16
  52 0084 0C0092E8 		ldmia	r2, {r2-r3}
  53 0088 FEFFFFEB 		bl	__muldf3
  54 008c FEFFFFEB 		bl	__truncdfsf2
  55 0090 F441D5E1 		ldrsh	r4, [r5, #20]
  56 0094 0070A0E1 		mov	r7, r0
  57 0098 0400A0E1 		mov	r0, r4
  58 009c FEFFFFEB 		bl	__floatsisf
  59 00a0 000054E3 		cmp	r4, #0
  60 00a4 1840D5E5 		ldrb	r4, [r5, #24]	@ zero_extendqisi2
  61 00a8 20139FB5 		ldrlt	r1, .L68+32
  62 00ac FEFFFFBB 		bllt	__addsf3
  63              	.L3:
  64 00b0 14139FE5 		ldr	r1, .L68+28
  65 00b4 FEFFFFEB 		bl	__divsf3
  66 00b8 170054E3 		cmp	r4, #23
  67 00bc 0060A0E1 		mov	r6, r0
  68 00c0 3402008A 		bhi	.L1
  69 00c4 08139FE5 		ldr	r1, .L68+36
  70 00c8 0800A0E1 		mov	r0, r8
  71 00cc FEFFFFEB 		bl	__subsf3
  72 00d0 00539FE5 		ldr	r5, .L68+40
  73 00d4 044184E0 		add	r4, r4, r4, asl #2
  74 00d8 0441A0E1 		mov	r4, r4, asl #2
  75 00dc 050084E7 		str	r0, [r4, r5]	@ float
  76 00e0 F4129FE5 		ldr	r1, .L68+44
  77 00e4 0A00A0E1 		mov	r0, sl
  78 00e8 FEFFFFEB 		bl	__subsf3
  79 00ec 054084E0 		add	r4, r4, r5
  80 00f0 106084E5 		str	r6, [r4, #16]	@ float
  81 00f4 040084E5 		str	r0, [r4, #4]	@ float
  82 00f8 087084E5 		str	r7, [r4, #8]	@ float
  83 00fc 0C9084E5 		str	r9, [r4, #12]	@ float
  84 0100 340200EA 		b	.L1
  85              	.L2:
  86 0104 020053E3 		cmp	r3, #2
  87 0108 DC00001A 		bne	.L6
  88 010c 0230D5E5 		ldrb	r3, [r5, #2]	@ zero_extendqisi2
  89 0110 040095E5 		ldr	r0, [r5, #4]
  90 0114 29304BE5 		strb	r3, [fp, #-41]
  91 0118 FEFFFFEB 		bl	__floatsisf
  92 011c A8129FE5 		ldr	r1, .L68+28
  93 0120 FEFFFFEB 		bl	__divsf3
  94 0124 0060A0E1 		mov	r6, r0
  95 0128 080095E5 		ldr	r0, [r5, #8]
  96 012c 30600BE5 		str	r6, [fp, #-48]	@ float
  97 0130 FEFFFFEB 		bl	__floatsisf
  98 0134 90129FE5 		ldr	r1, .L68+28
  99 0138 FEFFFFEB 		bl	__divsf3
 100 013c 0080A0E1 		mov	r8, r0
 101 0140 0C0095E5 		ldr	r0, [r5, #12]
 102 0144 34800BE5 		str	r8, [fp, #-52]	@ float
 103 0148 FEFFFFEB 		bl	__floatsisf
 104 014c 78129FE5 		ldr	r1, .L68+28
 105 0150 FEFFFFEB 		bl	__divsf3
 106 0154 84329FE5 		ldr	r3, .L68+48
 107 0158 29205BE5 		ldrb	r2, [fp, #-41]	@ zero_extendqisi2
 108 015c 0030D3E5 		ldrb	r3, [r3, #0]	@ zero_extendqisi2
 109 0160 030052E1 		cmp	r2, r3
 110 0164 0070A0E1 		mov	r7, r0
 111 0168 38000BE5 		str	r0, [fp, #-56]	@ float
 112 016c 6D00002A 		bcs	.L7
 113 0170 6C329FE5 		ldr	r3, .L68+52
 114 0174 000093E5 		ldr	r0, [r3, #0]
 115 0178 824082E0 		add	r4, r2, r2, asl #1
 116 017c FEFFFFEB 		bl	__floatsisf
 117 0180 0010A0E1 		mov	r1, r0
 118 0184 0600A0E1 		mov	r0, r6
 119 0188 FEFFFFEB 		bl	__subsf3
 120 018c 54529FE5 		ldr	r5, .L68+56
 121 0190 54329FE5 		ldr	r3, .L68+60
 122 0194 0441A0E1 		mov	r4, r4, asl #2
 123 0198 050084E7 		str	r0, [r4, r5]	@ float
 124 019c 000093E5 		ldr	r0, [r3, #0]
 125 01a0 FEFFFFEB 		bl	__floatsisf
 126 01a4 0010A0E1 		mov	r1, r0
 127 01a8 0800A0E1 		mov	r0, r8
 128 01ac FEFFFFEB 		bl	__subsf3
 129 01b0 054084E0 		add	r4, r4, r5
 130 01b4 087084E5 		str	r7, [r4, #8]	@ float
 131 01b8 040084E5 		str	r0, [r4, #4]	@ float
 132              	.L7:
 133 01bc 1200A0E3 		mov	r0, #18
 134 01c0 FEFFFFEB 		bl	uart0_check_free_space
 135 01c4 FF0010E3 		tst	r0, #255
 136 01c8 3002000A 		beq	.L63
 137 01cc 0060A0E3 		mov	r6, #0
 138 01d0 7E00A0E3 		mov	r0, #126
 139 01d4 C0429FE5 		ldr	r4, .L68+236
 140 01d8 FEFFFFEB 		bl	uart0_transmit
 141 01dc 0600A0E1 		mov	r0, r6
 142 01e0 FEFFFFEB 		bl	uart0_transmit
 143 01e4 0150A0E3 		mov	r5, #1
 144 01e8 1400A0E3 		mov	r0, #20
 145 01ec FEFFFFEB 		bl	uart0_transmit
 146 01f0 0500A0E1 		mov	r0, r5
 147 01f4 0050C4E5 		strb	r5, [r4, #0]
 148 01f8 FEFFFFEB 		bl	uart0_transmit
 149 01fc 0600A0E1 		mov	r0, r6
 150 0200 FEFFFFEB 		bl	uart0_transmit
 151 0204 0030D4E5 		ldrb	r3, [r4, #0]	@ zero_extendqisi2
 152 0208 053083E0 		add	r3, r3, r5
 153 020c 0030C4E5 		strb	r3, [r4, #0]
 154 0210 0500A0E1 		mov	r0, r5
 155 0214 FEFFFFEB 		bl	uart0_transmit
 156 0218 0600A0E1 		mov	r0, r6
 157 021c FEFFFFEB 		bl	uart0_transmit
 158 0220 0600A0E1 		mov	r0, r6
 159 0224 FEFFFFEB 		bl	uart0_transmit
 160 0228 0030D4E5 		ldrb	r3, [r4, #0]	@ zero_extendqisi2
 161 022c 153083E2 		add	r3, r3, #21
 162 0230 1500A0E3 		mov	r0, #21
 163 0234 0030C4E5 		strb	r3, [r4, #0]
 164 0238 FEFFFFEB 		bl	uart0_transmit
 165 023c 0030D4E5 		ldrb	r3, [r4, #0]	@ zero_extendqisi2
 166 0240 233083E2 		add	r3, r3, #35
 167 0244 2300A0E3 		mov	r0, #35
 168 0248 0030C4E5 		strb	r3, [r4, #0]
 169 024c FEFFFFEB 		bl	uart0_transmit
 170 0250 29305BE5 		ldrb	r3, [fp, #-41]	@ zero_extendqisi2
 171 0254 0020D4E5 		ldrb	r2, [r4, #0]	@ zero_extendqisi2
 172 0258 0300A0E1 		mov	r0, r3
 173 025c 023083E0 		add	r3, r3, r2
 174 0260 0030C4E5 		strb	r3, [r4, #0]
 175 0264 FEFFFFEB 		bl	uart0_transmit
 176 0268 30305BE5 		ldrb	r3, [fp, #-48]	@ zero_extendqisi2
 177 026c 0020D4E5 		ldrb	r2, [r4, #0]	@ zero_extendqisi2
 178 0270 0300A0E1 		mov	r0, r3
 179 0274 023083E0 		add	r3, r3, r2
 180 0278 0030C4E5 		strb	r3, [r4, #0]
 181 027c FEFFFFEB 		bl	uart0_transmit
 182 0280 2F305BE5 		ldrb	r3, [fp, #-47]	@ zero_extendqisi2
 183 0284 0020D4E5 		ldrb	r2, [r4, #0]	@ zero_extendqisi2
 184 0288 0300A0E1 		mov	r0, r3
 185 028c 023083E0 		add	r3, r3, r2
 186 0290 0030C4E5 		strb	r3, [r4, #0]
 187 0294 FEFFFFEB 		bl	uart0_transmit
 188 0298 2E305BE5 		ldrb	r3, [fp, #-46]	@ zero_extendqisi2
 189 029c 0020D4E5 		ldrb	r2, [r4, #0]	@ zero_extendqisi2
 190 02a0 0300A0E1 		mov	r0, r3
 191 02a4 023083E0 		add	r3, r3, r2
 192 02a8 0030C4E5 		strb	r3, [r4, #0]
 193 02ac FEFFFFEB 		bl	uart0_transmit
 194 02b0 2D305BE5 		ldrb	r3, [fp, #-45]	@ zero_extendqisi2
 195 02b4 0020D4E5 		ldrb	r2, [r4, #0]	@ zero_extendqisi2
 196 02b8 0300A0E1 		mov	r0, r3
 197 02bc 023083E0 		add	r3, r3, r2
 198 02c0 0030C4E5 		strb	r3, [r4, #0]
 199 02c4 FEFFFFEB 		bl	uart0_transmit
 200 02c8 34305BE5 		ldrb	r3, [fp, #-52]	@ zero_extendqisi2
 201 02cc 0020D4E5 		ldrb	r2, [r4, #0]	@ zero_extendqisi2
 202 02d0 0300A0E1 		mov	r0, r3
 203 02d4 023083E0 		add	r3, r3, r2
 204 02d8 0030C4E5 		strb	r3, [r4, #0]
 205 02dc FEFFFFEB 		bl	uart0_transmit
 206 02e0 33305BE5 		ldrb	r3, [fp, #-51]	@ zero_extendqisi2
 207 02e4 0020D4E5 		ldrb	r2, [r4, #0]	@ zero_extendqisi2
 208 02e8 0300A0E1 		mov	r0, r3
 209 02ec 023083E0 		add	r3, r3, r2
 210 02f0 0030C4E5 		strb	r3, [r4, #0]
 211 02f4 FEFFFFEB 		bl	uart0_transmit
 212 02f8 32305BE5 		ldrb	r3, [fp, #-50]	@ zero_extendqisi2
 213 02fc 0020D4E5 		ldrb	r2, [r4, #0]	@ zero_extendqisi2
 214 0300 0300A0E1 		mov	r0, r3
 215 0304 023083E0 		add	r3, r3, r2
 216 0308 0030C4E5 		strb	r3, [r4, #0]
 217 030c FEFFFFEB 		bl	uart0_transmit
 218 0310 31305BE5 		ldrb	r3, [fp, #-49]	@ zero_extendqisi2
 219 0314 0020D4E5 		ldrb	r2, [r4, #0]	@ zero_extendqisi2
 220 0318 0300A0E1 		mov	r0, r3
 221 031c 023083E0 		add	r3, r3, r2
 222 0320 0030C4E5 		strb	r3, [r4, #0]
 223 0324 FEFFFFEB 		bl	uart0_transmit
 224 0328 38305BE5 		ldrb	r3, [fp, #-56]	@ zero_extendqisi2
 225 032c 0020D4E5 		ldrb	r2, [r4, #0]	@ zero_extendqisi2
 226 0330 0300A0E1 		mov	r0, r3
 227 0334 023083E0 		add	r3, r3, r2
 228 0338 0030C4E5 		strb	r3, [r4, #0]
 229 033c FEFFFFEB 		bl	uart0_transmit
 230 0340 37305BE5 		ldrb	r3, [fp, #-55]	@ zero_extendqisi2
 231 0344 0020D4E5 		ldrb	r2, [r4, #0]	@ zero_extendqisi2
 232 0348 0300A0E1 		mov	r0, r3
 233 034c 023083E0 		add	r3, r3, r2
 234 0350 0030C4E5 		strb	r3, [r4, #0]
 235 0354 FEFFFFEB 		bl	uart0_transmit
 236 0358 36305BE5 		ldrb	r3, [fp, #-54]	@ zero_extendqisi2
 237 035c 0020D4E5 		ldrb	r2, [r4, #0]	@ zero_extendqisi2
 238 0360 0300A0E1 		mov	r0, r3
 239 0364 023083E0 		add	r3, r3, r2
 240 0368 0030C4E5 		strb	r3, [r4, #0]
 241 036c FEFFFFEB 		bl	uart0_transmit
 242 0370 35305BE5 		ldrb	r3, [fp, #-53]	@ zero_extendqisi2
 243 0374 250200EA 		b	.L67
 244              	.L6:
 245 0378 050053E3 		cmp	r3, #5
 246 037c E100001A 		bne	.L11
 247 0380 0200D5E5 		ldrb	r0, [r5, #2]	@ zero_extendqisi2
 248 0384 FEFFFFEB 		bl	nav_goto_block
 249 0388 340200EA 		b	.L1
 250              	.L11:
 251 038c 030053E3 		cmp	r3, #3
 252 0390 2701001A 		bne	.L13
 253 0394 042095E5 		ldr	r2, [r5, #4]	@ float
 254 0398 5C309FE5 		ldr	r3, .L68+76
 255 039c 081095E5 		ldr	r1, [r5, #8]	@ float
 256 03a0 002083E5 		str	r2, [r3, #0]	@ float
 257 03a4 54309FE5 		ldr	r3, .L68+80
 258 03a8 001083E5 		str	r1, [r3, #0]	@ float
 259 03ac 340200EA 		b	.L1
 260              	.L69:
 261              		.align	2
 262              	.L68:
 263 03b0 00002440 		.word	1076101120
 264 03b4 00000000 		.word	0
 265 03b8 00806640 		.word	1080459264
 266 03bc 00000000 		.word	0
 267 03c0 FB210940 		.word	1074340347
 268 03c4 182D4454 		.word	1413754136
 269 03c8 00000000 		.word	dl_buffer
 270 03cc 0000C842 		.word	1120403456
 271 03d0 00008047 		.word	1199570944
 272 03d4 E0D6AE48 		.word	1219417824
 273 03d8 00000000 		.word	the_acs
 274 03dc 2229934A 		.word	1251158306
 275 03e0 00000000 		.word	nb_waypoint
 276 03e4 00000000 		.word	nav_utm_east0
 277 03e8 00000000 		.word	waypoints
 278 03ec 00000000 		.word	nav_utm_north0
 279 03f0 00000000 		.word	telemetry_mode_Ap
 280 03f4 00000000 		.word	flight_altitude
 281 03f8 00000000 		.word	light_mode
 282 03fc 00000000 		.word	wind_east
 283 0400 00000000 		.word	wind_north
 284 0404 00000000 		.word	pprz_mode
 285 0408 00000000 		.word	alt_kalman_enabled
 286 040c 00000000 		.word	estimator_flight_time
 287 0410 00000000 		.word	launch
 288 0414 00000000 		.word	kill_throttle
 289 0418 00000000 		.word	gyro_roll_adc
 290 041c 00000000 		.word	gyro_pitch_adc
 291 0420 00000000 		.word	gyro_yaw_adc
 292 0424 00000000 		.word	range_scale
 293 0428 00000000 		.word	range_neutral
 294 042c 00000000 		.word	cam_pitch
 295 0430 00000000 		.word	h_ctl_elevator_of_roll
 296 0434 00000000 		.word	h_ctl_roll_rate_setpoint_pgain
 297 0438 00000000 		.word	h_ctl_hi_throttle_roll_rate_pgain
 298 043c 00000000 		.word	h_ctl_lo_throttle_roll_rate_pgain
 299 0440 00000000 		.word	h_ctl_pitch_rate_setpoint_pgain
 300 0444 00000000 		.word	h_ctl_hi_throttle_pitch_rate_pgain
 301 0448 00000000 		.word	h_ctl_lo_throttle_pitch_rate_pgain
 302 044c 00000000 		.word	h_ctl_yaw_rate_setpoint_pgain
 303 0450 00000000 		.word	h_ctl_hi_throttle_yaw_rate_pgain
 304 0454 00000000 		.word	h_ctl_lo_throttle_yaw_rate_pgain
 305 0458 00000000 		.word	v_ctl_altitude_pgain
 306 045c 00000000 		.word	v_ctl_auto_throttle_cruise_throttle
 307 0460 00000000 		.word	v_ctl_auto_throttle_cruise_throttle_pgain
 308 0464 00000000 		.word	v_ctl_auto_throttle_pgain
 309 0468 00000000 		.word	v_ctl_auto_throttle_climb_throttle_increment
 310 046c 00000000 		.word	v_ctl_throttle_slew_
 311 0470 00000000 		.word	climb_throttle
 312 0474 00000000 		.word	desc_throttle
 313 0478 00000000 		.word	v_ctl_auto_throttle_pgain_plus
 314 047c 00000000 		.word	v_ctl_auto_throttle_pgain_minus
 315 0480 00000000 		.word	v_ctl_auto_throttle_igain
 316 0484 00000000 		.word	v_ctl_auto_throttle_igain_plus
 317 0488 00000000 		.word	v_ctl_auto_throttle_igain_minus
 318 048c 00000000 		.word	v_ctl_auto_throttle_climb_throttle_increment_plus
 319 0490 00000000 		.word	v_ctl_auto_throttle_climb_throttle_increment_minus
 320 0494 00000000 		.word	v_ctl_auto_pitch_pgain
 321 0498 00000000 		.word	v_ctl_auto_pitch_igain
 322 049c 00000000 		.word	xbee_cs
 323 04a0 00000000 		.word	downlink_nb_ovrn
 324              	.L13:
 325 04a4 080053E3 		cmp	r3, #8
 326 04a8 0220D505 		ldreqb	r2, [r5, #2]	@ zero_extendqisi2
 327 04ac C4301F05 		ldreq	r3, .L68+64
 328 04b0 0020C305 		streqb	r2, [r3, #0]
 329 04b4 3402000A 		beq	.L1
 330 04b8 040053E3 		cmp	r3, #4
 331 04bc 3402001A 		bne	.L1
 332 04c0 0230D5E5 		ldrb	r3, [r5, #2]	@ zero_extendqisi2
 333 04c4 2A304BE5 		strb	r3, [fp, #-42]
 334 04c8 042095E5 		ldr	r2, [r5, #4]	@ float
 335 04cc 2A305BE5 		ldrb	r3, [fp, #-42]	@ zero_extendqisi2
 336 04d0 3C200BE5 		str	r2, [fp, #-60]	@ float
 337 04d4 2A0053E3 		cmp	r3, #42
 338 04d8 03F19F97 		ldrls	pc, [pc, r3, asl #2]
 339 04dc E70100EA 		b	.L18
 340              		.p2align 2
 341              	.L62:
 342 04e0 8C050000 		.word	.L19
 343 04e4 98050000 		.word	.L20
 344 04e8 A8050000 		.word	.L21
 345 04ec B4050000 		.word	.L22
 346 04f0 C0050000 		.word	.L23
 347 04f4 D0050000 		.word	.L24
 348 04f8 E0050000 		.word	.L25
 349 04fc F4050000 		.word	.L26
 350 0500 04060000 		.word	.L27
 351 0504 18060000 		.word	.L28
 352 0508 24060000 		.word	.L29
 353 050c 30060000 		.word	.L30
 354 0510 3C060000 		.word	.L31
 355 0514 48060000 		.word	.L32
 356 0518 54060000 		.word	.L33
 357 051c 60060000 		.word	.L34
 358 0520 6C060000 		.word	.L35
 359 0524 78060000 		.word	.L36
 360 0528 84060000 		.word	.L37
 361 052c 90060000 		.word	.L38
 362 0530 9C060000 		.word	.L39
 363 0534 A8060000 		.word	.L40
 364 0538 B4060000 		.word	.L41
 365 053c C0060000 		.word	.L42
 366 0540 CC060000 		.word	.L43
 367 0544 D8060000 		.word	.L44
 368 0548 E4060000 		.word	.L45
 369 054c F0060000 		.word	.L46
 370 0550 FC060000 		.word	.L47
 371 0554 50070000 		.word	.L55
 372 0558 08070000 		.word	.L49
 373 055c 14070000 		.word	.L50
 374 0560 20070000 		.word	.L51
 375 0564 2C070000 		.word	.L52
 376 0568 38070000 		.word	.L53
 377 056c 44070000 		.word	.L54
 378 0570 50070000 		.word	.L55
 379 0574 5C070000 		.word	.L56
 380 0578 68070000 		.word	.L57
 381 057c 74070000 		.word	.L58
 382 0580 80070000 		.word	.L59
 383 0584 8C070000 		.word	.L60
 384 0588 98070000 		.word	.L61
 385              	.L19:
 386 058c 3C201BE5 		ldr	r2, [fp, #-60]	@ float
 387 0590 A4311FE5 		ldr	r3, .L68+68
 388 0594 E60100EA 		b	.L65
 389              	.L20:
 390 0598 3C001BE5 		ldr	r0, [fp, #-60]	@ float
 391 059c FEFFFFEB 		bl	__fixunssfsi
 392 05a0 B0311FE5 		ldr	r3, .L68+72
 393 05a4 820100EA 		b	.L66
 394              	.L21:
 395 05a8 3C201BE5 		ldr	r2, [fp, #-60]	@ float
 396 05ac B8311FE5 		ldr	r3, .L68+76
 397 05b0 E60100EA 		b	.L65
 398              	.L22:
 399 05b4 3C201BE5 		ldr	r2, [fp, #-60]	@ float
 400 05b8 C0311FE5 		ldr	r3, .L68+80
 401 05bc E60100EA 		b	.L65
 402              	.L23:
 403 05c0 3C001BE5 		ldr	r0, [fp, #-60]	@ float
 404 05c4 FEFFFFEB 		bl	__fixunssfsi
 405 05c8 CC311FE5 		ldr	r3, .L68+84
 406 05cc 820100EA 		b	.L66
 407              	.L24:
 408 05d0 3C001BE5 		ldr	r0, [fp, #-60]	@ float
 409 05d4 FEFFFFEB 		bl	__fixunssfsi
 410 05d8 D8311FE5 		ldr	r3, .L68+88
 411 05dc 820100EA 		b	.L66
 412              	.L25:
 413 05e0 3C001BE5 		ldr	r0, [fp, #-60]	@ float
 414 05e4 FEFFFFEB 		bl	__fixunssfsi
 415 05e8 E4311FE5 		ldr	r3, .L68+92
 416 05ec B000C3E1 		strh	r0, [r3, #0]	@ movhi 
 417 05f0 E70100EA 		b	.L18
 418              	.L26:
 419 05f4 3C001BE5 		ldr	r0, [fp, #-60]	@ float
 420 05f8 FEFFFFEB 		bl	__fixunssfsi
 421 05fc F4311FE5 		ldr	r3, .L68+96
 422 0600 820100EA 		b	.L66
 423              	.L27:
 424 0604 3C001BE5 		ldr	r0, [fp, #-60]	@ float
 425 0608 FEFFFFEB 		bl	__fixunssfsi
 426 060c 00321FE5 		ldr	r3, .L68+100
 427              	.L66:
 428 0610 0000C3E5 		strb	r0, [r3, #0]
 429 0614 E70100EA 		b	.L18
 430              	.L28:
 431 0618 3C201BE5 		ldr	r2, [fp, #-60]	@ float
 432 061c 0C321FE5 		ldr	r3, .L68+104
 433 0620 E60100EA 		b	.L65
 434              	.L29:
 435 0624 3C201BE5 		ldr	r2, [fp, #-60]	@ float
 436 0628 14321FE5 		ldr	r3, .L68+108
 437 062c E60100EA 		b	.L65
 438              	.L30:
 439 0630 3C201BE5 		ldr	r2, [fp, #-60]	@ float
 440 0634 1C321FE5 		ldr	r3, .L68+112
 441 0638 E60100EA 		b	.L65
 442              	.L31:
 443 063c 3C201BE5 		ldr	r2, [fp, #-60]	@ float
 444 0640 24321FE5 		ldr	r3, .L68+116
 445 0644 E60100EA 		b	.L65
 446              	.L32:
 447 0648 3C201BE5 		ldr	r2, [fp, #-60]	@ float
 448 064c 2C321FE5 		ldr	r3, .L68+120
 449 0650 E60100EA 		b	.L65
 450              	.L33:
 451 0654 3C201BE5 		ldr	r2, [fp, #-60]	@ float
 452 0658 34321FE5 		ldr	r3, .L68+124
 453 065c E60100EA 		b	.L65
 454              	.L34:
 455 0660 3C201BE5 		ldr	r2, [fp, #-60]	@ float
 456 0664 3C321FE5 		ldr	r3, .L68+128
 457 0668 E60100EA 		b	.L65
 458              	.L35:
 459 066c 3C201BE5 		ldr	r2, [fp, #-60]	@ float
 460 0670 44321FE5 		ldr	r3, .L68+132
 461 0674 E60100EA 		b	.L65
 462              	.L36:
 463 0678 3C201BE5 		ldr	r2, [fp, #-60]	@ float
 464 067c 4C321FE5 		ldr	r3, .L68+136
 465 0680 E60100EA 		b	.L65
 466              	.L37:
 467 0684 3C201BE5 		ldr	r2, [fp, #-60]	@ float
 468 0688 54321FE5 		ldr	r3, .L68+140
 469 068c E60100EA 		b	.L65
 470              	.L38:
 471 0690 3C201BE5 		ldr	r2, [fp, #-60]	@ float
 472 0694 5C321FE5 		ldr	r3, .L68+144
 473 0698 E60100EA 		b	.L65
 474              	.L39:
 475 069c 3C201BE5 		ldr	r2, [fp, #-60]	@ float
 476 06a0 64321FE5 		ldr	r3, .L68+148
 477 06a4 E60100EA 		b	.L65
 478              	.L40:
 479 06a8 3C201BE5 		ldr	r2, [fp, #-60]	@ float
 480 06ac 6C321FE5 		ldr	r3, .L68+152
 481 06b0 E60100EA 		b	.L65
 482              	.L41:
 483 06b4 3C201BE5 		ldr	r2, [fp, #-60]	@ float
 484 06b8 74321FE5 		ldr	r3, .L68+156
 485 06bc E60100EA 		b	.L65
 486              	.L42:
 487 06c0 3C201BE5 		ldr	r2, [fp, #-60]	@ float
 488 06c4 7C321FE5 		ldr	r3, .L68+160
 489 06c8 E60100EA 		b	.L65
 490              	.L43:
 491 06cc 3C201BE5 		ldr	r2, [fp, #-60]	@ float
 492 06d0 84321FE5 		ldr	r3, .L68+164
 493 06d4 E60100EA 		b	.L65
 494              	.L44:
 495 06d8 3C201BE5 		ldr	r2, [fp, #-60]	@ float
 496 06dc 8C321FE5 		ldr	r3, .L68+168
 497 06e0 E60100EA 		b	.L65
 498              	.L45:
 499 06e4 3C201BE5 		ldr	r2, [fp, #-60]	@ float
 500 06e8 94321FE5 		ldr	r3, .L68+172
 501 06ec E60100EA 		b	.L65
 502              	.L46:
 503 06f0 3C201BE5 		ldr	r2, [fp, #-60]	@ float
 504 06f4 9C321FE5 		ldr	r3, .L68+176
 505 06f8 E60100EA 		b	.L65
 506              	.L47:
 507 06fc 3C201BE5 		ldr	r2, [fp, #-60]	@ float
 508 0700 A4321FE5 		ldr	r3, .L68+180
 509 0704 E60100EA 		b	.L65
 510              	.L49:
 511 0708 3C201BE5 		ldr	r2, [fp, #-60]	@ float
 512 070c AC321FE5 		ldr	r3, .L68+184
 513 0710 E60100EA 		b	.L65
 514              	.L50:
 515 0714 3C201BE5 		ldr	r2, [fp, #-60]	@ float
 516 0718 B4321FE5 		ldr	r3, .L68+188
 517 071c E60100EA 		b	.L65
 518              	.L51:
 519 0720 3C201BE5 		ldr	r2, [fp, #-60]	@ float
 520 0724 BC321FE5 		ldr	r3, .L68+192
 521 0728 E60100EA 		b	.L65
 522              	.L52:
 523 072c 3C201BE5 		ldr	r2, [fp, #-60]	@ float
 524 0730 C4321FE5 		ldr	r3, .L68+196
 525 0734 E60100EA 		b	.L65
 526              	.L53:
 527 0738 3C201BE5 		ldr	r2, [fp, #-60]	@ float
 528 073c CC321FE5 		ldr	r3, .L68+200
 529 0740 E60100EA 		b	.L65
 530              	.L54:
 531 0744 3C201BE5 		ldr	r2, [fp, #-60]	@ float
 532 0748 D4321FE5 		ldr	r3, .L68+204
 533 074c E60100EA 		b	.L65
 534              	.L55:
 535 0750 3C201BE5 		ldr	r2, [fp, #-60]	@ float
 536 0754 DC321FE5 		ldr	r3, .L68+208
 537 0758 E60100EA 		b	.L65
 538              	.L56:
 539 075c 3C201BE5 		ldr	r2, [fp, #-60]	@ float
 540 0760 E4321FE5 		ldr	r3, .L68+212
 541 0764 E60100EA 		b	.L65
 542              	.L57:
 543 0768 3C201BE5 		ldr	r2, [fp, #-60]	@ float
 544 076c EC321FE5 		ldr	r3, .L68+216
 545 0770 E60100EA 		b	.L65
 546              	.L58:
 547 0774 3C201BE5 		ldr	r2, [fp, #-60]	@ float
 548 0778 F4321FE5 		ldr	r3, .L68+220
 549 077c E60100EA 		b	.L65
 550              	.L59:
 551 0780 3C201BE5 		ldr	r2, [fp, #-60]	@ float
 552 0784 FC321FE5 		ldr	r3, .L68+224
 553 0788 E60100EA 		b	.L65
 554              	.L60:
 555 078c 3C201BE5 		ldr	r2, [fp, #-60]	@ float
 556 0790 04331FE5 		ldr	r3, .L68+228
 557 0794 E60100EA 		b	.L65
 558              	.L61:
 559 0798 3C201BE5 		ldr	r2, [fp, #-60]	@ float
 560 079c 0C331FE5 		ldr	r3, .L68+232
 561              	.L65:
 562 07a0 002083E5 		str	r2, [r3, #0]	@ float
 563              	.L18:
 564 07a4 0A00A0E3 		mov	r0, #10
 565 07a8 FEFFFFEB 		bl	uart0_check_free_space
 566 07ac FF0010E3 		tst	r0, #255
 567 07b0 3002000A 		beq	.L63
 568 07b4 0060A0E3 		mov	r6, #0
 569 07b8 7E00A0E3 		mov	r0, #126
 570 07bc 28431FE5 		ldr	r4, .L68+236
 571 07c0 FEFFFFEB 		bl	uart0_transmit
 572 07c4 0600A0E1 		mov	r0, r6
 573 07c8 FEFFFFEB 		bl	uart0_transmit
 574 07cc 0150A0E3 		mov	r5, #1
 575 07d0 0C00A0E3 		mov	r0, #12
 576 07d4 FEFFFFEB 		bl	uart0_transmit
 577 07d8 0500A0E1 		mov	r0, r5
 578 07dc 0050C4E5 		strb	r5, [r4, #0]
 579 07e0 FEFFFFEB 		bl	uart0_transmit
 580 07e4 0600A0E1 		mov	r0, r6
 581 07e8 FEFFFFEB 		bl	uart0_transmit
 582 07ec 0030D4E5 		ldrb	r3, [r4, #0]	@ zero_extendqisi2
 583 07f0 053083E0 		add	r3, r3, r5
 584 07f4 0030C4E5 		strb	r3, [r4, #0]
 585 07f8 0500A0E1 		mov	r0, r5
 586 07fc FEFFFFEB 		bl	uart0_transmit
 587 0800 0600A0E1 		mov	r0, r6
 588 0804 FEFFFFEB 		bl	uart0_transmit
 589 0808 0600A0E1 		mov	r0, r6
 590 080c FEFFFFEB 		bl	uart0_transmit
 591 0810 0030D4E5 		ldrb	r3, [r4, #0]	@ zero_extendqisi2
 592 0814 153083E2 		add	r3, r3, #21
 593 0818 1500A0E3 		mov	r0, #21
 594 081c 0030C4E5 		strb	r3, [r4, #0]
 595 0820 FEFFFFEB 		bl	uart0_transmit
 596 0824 0030D4E5 		ldrb	r3, [r4, #0]	@ zero_extendqisi2
 597 0828 1F3083E2 		add	r3, r3, #31
 598 082c 1F00A0E3 		mov	r0, #31
 599 0830 0030C4E5 		strb	r3, [r4, #0]
 600 0834 FEFFFFEB 		bl	uart0_transmit
 601 0838 2A305BE5 		ldrb	r3, [fp, #-42]	@ zero_extendqisi2
 602 083c 0020D4E5 		ldrb	r2, [r4, #0]	@ zero_extendqisi2
 603 0840 0300A0E1 		mov	r0, r3
 604 0844 023083E0 		add	r3, r3, r2
 605 0848 0030C4E5 		strb	r3, [r4, #0]
 606 084c FEFFFFEB 		bl	uart0_transmit
 607 0850 3C305BE5 		ldrb	r3, [fp, #-60]	@ zero_extendqisi2
 608 0854 0020D4E5 		ldrb	r2, [r4, #0]	@ zero_extendqisi2
 609 0858 0300A0E1 		mov	r0, r3
 610 085c 023083E0 		add	r3, r3, r2
 611 0860 0030C4E5 		strb	r3, [r4, #0]
 612 0864 FEFFFFEB 		bl	uart0_transmit
 613 0868 3B305BE5 		ldrb	r3, [fp, #-59]	@ zero_extendqisi2
 614 086c 0020D4E5 		ldrb	r2, [r4, #0]	@ zero_extendqisi2
 615 0870 0300A0E1 		mov	r0, r3
 616 0874 023083E0 		add	r3, r3, r2
 617 0878 0030C4E5 		strb	r3, [r4, #0]
 618 087c FEFFFFEB 		bl	uart0_transmit
 619 0880 3A305BE5 		ldrb	r3, [fp, #-58]	@ zero_extendqisi2
 620 0884 0020D4E5 		ldrb	r2, [r4, #0]	@ zero_extendqisi2
 621 0888 0300A0E1 		mov	r0, r3
 622 088c 023083E0 		add	r3, r3, r2
 623 0890 0030C4E5 		strb	r3, [r4, #0]
 624 0894 FEFFFFEB 		bl	uart0_transmit
 625 0898 39305BE5 		ldrb	r3, [fp, #-57]	@ zero_extendqisi2
 626              	.L67:
 627 089c 0020D4E5 		ldrb	r2, [r4, #0]	@ zero_extendqisi2
 628 08a0 0300A0E1 		mov	r0, r3
 629 08a4 023083E0 		add	r3, r3, r2
 630 08a8 0030C4E5 		strb	r3, [r4, #0]
 631 08ac FEFFFFEB 		bl	uart0_transmit
 632 08b0 0030D4E5 		ldrb	r3, [r4, #0]	@ zero_extendqisi2
 633 08b4 0330E0E1 		mvn	r3, r3
 634 08b8 0030C4E5 		strb	r3, [r4, #0]
 635 08bc 0000D4E5 		ldrb	r0, [r4, #0]	@ zero_extendqisi2
 636 08c0 FEFFFFEB 		bl	uart0_transmit
 637 08c4 340200EA 		b	.L1
 638              	.L63:
 639 08c8 30241FE5 		ldr	r2, .L68+240
 640 08cc 0030D2E5 		ldrb	r3, [r2, #0]	@ zero_extendqisi2
 641 08d0 013083E2 		add	r3, r3, #1
 642 08d4 0030C2E5 		strb	r3, [r2, #0]
 643              	.L1:
 644 08d8 28D04BE2 		sub	sp, fp, #40
 645 08dc F06F9DE8 		ldmfd	sp, {r4, r5, r6, r7, r8, r9, sl, fp, sp, lr}
 646 08e0 1EFF2FE1 		bx	lr
 648              		.comm	the_acs,480,4
 649              		.comm	dl_msg_available,1,1
 650              		.comm	dl_buffer,128,4
 651              		.bss
 652              		.align	2
 653              	last_periodic_event:
 654 0000 00000000 		.space	4
 655              		.comm	accel_ax_scale,4,4
 656              		.comm	accel_ay_scale,4,4
 657              		.comm	accel_az_scale,4,4
 658              		.comm	accel_ax_neutral,4,4
 659              		.comm	accel_ay_neutral,4,4
 660              		.comm	accel_az_neutral,4,4
 661              		.comm	estimator_kalman_phi,4,4
 662              		.comm	estimator_kalman_theta,4,4
 663              		.comm	estimator_kalman_q_angle,4,4
 664              		.comm	estimator_kalman_q_gyro,4,4
 665              		.comm	estimator_kalman_r_angle,4,4
 666              		.ident	"GCC: (GNU) 3.4.4"
DEFINED SYMBOLS
                            *ABS*:00000000 datalink.c
     /tmp/ccu7ix08.s:15     .text:00000000 dl_parse_msg
     /tmp/ccu7ix08.s:19     .text:00000000 $a
     /tmp/ccu7ix08.s:263    .text:000003b0 $d
                            *COM*:00000080 dl_buffer
                            *COM*:000001e0 the_acs
     /tmp/ccu7ix08.s:325    .text:000004a4 $a
     /tmp/ccu7ix08.s:342    .text:000004e0 $d
     /tmp/ccu7ix08.s:386    .text:0000058c $a
                            *COM*:00000001 dl_msg_available
                             .bss:00000000 $d
     /tmp/ccu7ix08.s:653    .bss:00000000 last_periodic_event
                            *COM*:00000004 accel_ax_scale
                            *COM*:00000004 accel_ay_scale
                            *COM*:00000004 accel_az_scale
                            *COM*:00000004 accel_ax_neutral
                            *COM*:00000004 accel_ay_neutral
                            *COM*:00000004 accel_az_neutral
                            *COM*:00000004 estimator_kalman_phi
                            *COM*:00000004 estimator_kalman_theta
                            *COM*:00000004 estimator_kalman_q_angle
                            *COM*:00000004 estimator_kalman_q_gyro
                            *COM*:00000004 estimator_kalman_r_angle

UNDEFINED SYMBOLS
__floatsisf
__divsf3
__extendsfdf2
__divdf3
__muldf3
__truncdfsf2
__addsf3
__subsf3
__fixunssfsi
uart0_check_free_space
uart0_transmit
nav_goto_block
nb_waypoint
nav_utm_east0
waypoints
nav_utm_north0
telemetry_mode_Ap
flight_altitude
light_mode
wind_east
wind_north
pprz_mode
alt_kalman_enabled
estimator_flight_time
launch
kill_throttle
gyro_roll_adc
gyro_pitch_adc
gyro_yaw_adc
range_scale
range_neutral
cam_pitch
h_ctl_elevator_of_roll
h_ctl_roll_rate_setpoint_pgain
h_ctl_hi_throttle_roll_rate_pgain
h_ctl_lo_throttle_roll_rate_pgain
h_ctl_pitch_rate_setpoint_pgain
h_ctl_hi_throttle_pitch_rate_pgain
h_ctl_lo_throttle_pitch_rate_pgain
h_ctl_yaw_rate_setpoint_pgain
h_ctl_hi_throttle_yaw_rate_pgain
h_ctl_lo_throttle_yaw_rate_pgain
v_ctl_altitude_pgain
v_ctl_auto_throttle_cruise_throttle
v_ctl_auto_throttle_cruise_throttle_pgain
v_ctl_auto_throttle_pgain
v_ctl_auto_throttle_climb_throttle_increment
v_ctl_throttle_slew_
climb_throttle
desc_throttle
v_ctl_auto_throttle_pgain_plus
v_ctl_auto_throttle_pgain_minus
v_ctl_auto_throttle_igain
v_ctl_auto_throttle_igain_plus
v_ctl_auto_throttle_igain_minus
v_ctl_auto_throttle_climb_throttle_increment_plus
v_ctl_auto_throttle_climb_throttle_increment_minus
v_ctl_auto_pitch_pgain
v_ctl_auto_pitch_igain
xbee_cs
downlink_nb_ovrn
