
/home/paparazzi/paparazzi3new/var/v3/ap/ap.elf:     file format elf32-littlearm

Sections:
Idx Name          Size      VMA       LMA       File off  Algn
  0 .text         0000fba6  00000000  00000000  00000094  2**2
                  CONTENTS, ALLOC, LOAD, READONLY, CODE
  1 .ctors        00000000  0000fba6  0000fba6  000100c4  2**0
                  CONTENTS
  2 .dtors        00000000  0000fba6  0000fba6  000100c4  2**0
                  CONTENTS
  3 .data         00000488  40000000  0000fba8  0000fc3c  2**2
                  CONTENTS, ALLOC, LOAD, DATA
  4 .bss          00000ddc  40000488  40000488  000100c4  2**2
                  ALLOC
  5 .stack        00001000  40001300  40001300  000100c4  2**0
                  ALLOC
  6 .comment      0000034e  00000000  00000000  000100c4  2**0
                  CONTENTS, READONLY
  7 .debug_aranges 00000240  00000000  00000000  00010412  2**0
                  CONTENTS, READONLY, DEBUGGING
  8 .debug_pubnames 00000292  00000000  00000000  00010652  2**0
                  CONTENTS, READONLY, DEBUGGING
  9 .debug_info   0000314a  00000000  00000000  000108e4  2**0
                  CONTENTS, READONLY, DEBUGGING
 10 .debug_abbrev 0000113f  00000000  00000000  00013a2e  2**0
                  CONTENTS, READONLY, DEBUGGING
 11 .debug_line   000013e0  00000000  00000000  00014b6d  2**0
                  CONTENTS, READONLY, DEBUGGING
 12 .debug_frame  00000388  00000000  00000000  00015f50  2**2
                  CONTENTS, READONLY, DEBUGGING
 13 .debug_str    00000bad  00000000  00000000  000162d8  2**0
                  CONTENTS, READONLY, DEBUGGING
 14 .debug_ranges 000000c8  00000000  00000000  00016e85  2**0
                  CONTENTS, READONLY, DEBUGGING
Disassembly of section .text:

00000000 <_boot>:
       0:	ea000012 	b	50 <_mainCRTStartup>
       4:	e59ff014 	ldr	pc, [pc, #20]	; 20 <_undf>
       8:	e59ff014 	ldr	pc, [pc, #20]	; 24 <_swi>
       c:	e59ff014 	ldr	pc, [pc, #20]	; 28 <_pabt>
      10:	e59ff014 	ldr	pc, [pc, #20]	; 2c <_dabt>
      14:	e1a00000 	nop			(mov r0,r0)
      18:	e51ffff0 	ldr	pc, [pc, #-4080]	; fffff030 <_end+0xbfffcd30>
      1c:	e59ff010 	ldr	pc, [pc, #16]	; 34 <_fiq>

00000020 <_undf>:
      20:	00000038 	andeq	r0, r0, r8, lsr r0

00000024 <_swi>:
      24:	0000003c 	andeq	r0, r0, ip, lsr r0

00000028 <_pabt>:
      28:	00000040 	andeq	r0, r0, r0, asr #32

0000002c <_dabt>:
      2c:	00000044 	andeq	r0, r0, r4, asr #32

00000030 <_irq>:
      30:	00000048 	andeq	r0, r0, r8, asr #32

00000034 <_fiq>:
      34:	0000004c 	andeq	r0, r0, ip, asr #32

00000038 <__undf>:
      38:	eafffffe 	b	38 <__undf>

0000003c <__swi>:
      3c:	eafffffe 	b	3c <__swi>

00000040 <__pabt>:
      40:	eafffffe 	b	40 <F_BIT>

00000044 <__dabt>:
      44:	eafffffe 	b	44 <__dabt>

00000048 <__irq>:
      48:	eafffffe 	b	48 <__irq>

0000004c <__fiq>:
      4c:	eafffffe 	b	4c <__fiq>

00000050 <_mainCRTStartup>:
      50:	e59f00c0 	ldr	r0, [pc, #192]	; 118 <.text+0x118>
      54:	e321f0db 	msr	CPSR_c, #219	; 0xdb
      58:	e1a0d000 	mov	sp, r0
      5c:	e2400004 	sub	r0, r0, #4	; 0x4
      60:	e321f0d7 	msr	CPSR_c, #215	; 0xd7
      64:	e1a0d000 	mov	sp, r0
      68:	e2400004 	sub	r0, r0, #4	; 0x4
      6c:	e321f0d1 	msr	CPSR_c, #209	; 0xd1
      70:	e1a0d000 	mov	sp, r0
      74:	e2400004 	sub	r0, r0, #4	; 0x4
      78:	e321f0d2 	msr	CPSR_c, #210	; 0xd2
      7c:	e1a0d000 	mov	sp, r0
      80:	e2400080 	sub	r0, r0, #128	; 0x80
      84:	e321f0d3 	msr	CPSR_c, #211	; 0xd3
      88:	e1a0d000 	mov	sp, r0
      8c:	e2400004 	sub	r0, r0, #4	; 0x4
      90:	e321f0df 	msr	CPSR_c, #223	; 0xdf
      94:	e1a0d000 	mov	sp, r0
      98:	e59f107c 	ldr	r1, [pc, #124]	; 11c <.text+0x11c>
      9c:	e59f207c 	ldr	r2, [pc, #124]	; 120 <.text+0x120>
      a0:	e59f307c 	ldr	r3, [pc, #124]	; 124 <.text+0x124>
      a4:	e1520003 	cmp	r2, r3
      a8:	34910004 	ldrcc	r0, [r1], #4
      ac:	34820004 	strcc	r0, [r2], #4
      b0:	3afffffb 	bcc	a4 <IRQ_STACK_SIZE+0x24>
      b4:	e3a00000 	mov	r0, #0	; 0x0
      b8:	e59f1068 	ldr	r1, [pc, #104]	; 128 <.text+0x128>
      bc:	e59f2068 	ldr	r2, [pc, #104]	; 12c <.text+0x12c>
      c0:	e1510002 	cmp	r1, r2
      c4:	34810004 	strcc	r0, [r1], #4
      c8:	3afffffc 	bcc	c0 <IRQ_STACK_SIZE+0x40>
      cc:	e59f005c 	ldr	r0, [pc, #92]	; 130 <.text+0x130>
      d0:	e59f105c 	ldr	r1, [pc, #92]	; 134 <.text+0x134>

000000d4 <ctor_loop>:
      d4:	e1500001 	cmp	r0, r1
      d8:	0a000005 	beq	f4 <ctor_end>
      dc:	e4902004 	ldr	r2, [r0], #4
      e0:	e92d0003 	stmdb	sp!, {r0, r1}
      e4:	e1a0e00f 	mov	lr, pc
      e8:	e1a0f002 	mov	pc, r2
      ec:	e8bd0003 	ldmia	sp!, {r0, r1}
      f0:	eafffff7 	b	d4 <ctor_loop>

000000f4 <ctor_end>:
      f4:	e3a00000 	mov	r0, #0	; 0x0
      f8:	e1a01000 	mov	r1, r0
      fc:	e1a02000 	mov	r2, r0
     100:	e1a0b000 	mov	fp, r0
     104:	e1a07000 	mov	r7, r0
     108:	e59fa028 	ldr	sl, [pc, #40]	; 138 <.text+0x138>
     10c:	e1a0e00f 	mov	lr, pc
     110:	e12fff1a 	bx	sl

00000114 <_reset>:
     114:	eafffffe 	b	114 <_reset>
     118:	40002300 	andmi	r2, r0, r0, lsl #6
     11c:	0000fba8 	andeq	pc, r0, r8, lsr #23
     120:	40000000 	andmi	r0, r0, r0
     124:	40000488 	andmi	r0, r0, r8, lsl #9
     128:	40000488 	andmi	r0, r0, r8, lsl #9
     12c:	40001264 	andmi	r1, r0, r4, ror #4
     130:	0000fba6 	andeq	pc, r0, r6, lsr #23
     134:	0000fba6 	andeq	pc, r0, r6, lsr #23
     138:	00005080 	andeq	r5, r0, r0, lsl #1

0000013c <TIMER0_ISR>:
     13c:	e24ee004 	sub	lr, lr, #4	; 0x4
     140:	e92d5fff 	stmdb	sp!, {r0, r1, r2, r3, r4, r5, r6, r7, r8, r9, sl, fp, ip, lr}
     144:	e14f1000 	mrs	r1, SPSR
     148:	e92d0002 	stmdb	sp!, {r1}
     14c:	e59f21c0 	ldr	r2, [pc, #448]	; 314 <.text+0x314>
     150:	e5923000 	ldr	r3, [r2]
     154:	e3130042 	tst	r3, #66	; 0x42
     158:	0a000067 	beq	2fc <TIMER0_ISR+0x1c0>
     15c:	e5923000 	ldr	r3, [r2]
     160:	e3130040 	tst	r3, #64	; 0x40
     164:	0a000025 	beq	200 <TIMER0_ISR+0xc4>
     168:	e59f01a8 	ldr	r0, [pc, #424]	; 318 <.text+0x318>
     16c:	e59f31a8 	ldr	r3, [pc, #424]	; 31c <.text+0x31c>
     170:	e5d0c000 	ldrb	ip, [r0]
     174:	e5922034 	ldr	r2, [r2, #52]
     178:	e5931000 	ldr	r1, [r3]
     17c:	e20ce0ff 	and	lr, ip, #255	; 0xff
     180:	e35e0008 	cmp	lr, #8	; 0x8
     184:	e5832000 	str	r2, [r3]
     188:	e0611002 	rsb	r1, r1, r2
     18c:	1a000006 	bne	1ac <TIMER0_ISR+0x70>
     190:	e2413b49 	sub	r3, r1, #74752	; 0x12400
     194:	e59f2184 	ldr	r2, [pc, #388]	; 320 <.text+0x320>
     198:	e24330f9 	sub	r3, r3, #249	; 0xf9
     19c:	e1530002 	cmp	r3, r2
     1a0:	93a03000 	movls	r3, #0	; 0x0
     1a4:	9a000011 	bls	1f0 <TIMER0_ISR+0xb4>
     1a8:	ea000011 	b	1f4 <TIMER0_ISR+0xb8>
     1ac:	e2413dd2 	sub	r3, r1, #13440	; 0x3480
     1b0:	e59f216c 	ldr	r2, [pc, #364]	; 324 <.text+0x324>
     1b4:	e243303d 	sub	r3, r3, #61	; 0x3d
     1b8:	e1530002 	cmp	r3, r2
     1bc:	83a03008 	movhi	r3, #8	; 0x8
     1c0:	8a00000a 	bhi	1f0 <TIMER0_ISR+0xb4>
     1c4:	e28c3001 	add	r3, ip, #1	; 0x1
     1c8:	e5c03000 	strb	r3, [r0]
     1cc:	e5d03000 	ldrb	r3, [r0]
     1d0:	e3530008 	cmp	r3, #8	; 0x8
     1d4:	e59f314c 	ldr	r3, [pc, #332]	; 328 <.text+0x328>
     1d8:	e1a0208e 	mov	r2, lr, lsl #1
     1dc:	e18210b3 	strh	r1, [r2, r3]
     1e0:	059f3144 	ldreq	r3, [pc, #324]	; 32c <.text+0x32c>
     1e4:	03a02001 	moveq	r2, #1	; 0x1
     1e8:	05c32000 	streqb	r2, [r3]
     1ec:	ea000000 	b	1f4 <TIMER0_ISR+0xb8>
     1f0:	e5c03000 	strb	r3, [r0]
     1f4:	e59f3118 	ldr	r3, [pc, #280]	; 314 <.text+0x314>
     1f8:	e3a02040 	mov	r2, #64	; 0x40
     1fc:	e5832000 	str	r2, [r3]
     200:	e59f410c 	ldr	r4, [pc, #268]	; 314 <.text+0x314>
     204:	e5943000 	ldr	r3, [r4]
     208:	e3130002 	tst	r3, #2	; 0x2
     20c:	0affffce 	beq	14c <TIMER0_ISR+0x10>
     210:	e59f5118 	ldr	r5, [pc, #280]	; 330 <.text+0x330>
     214:	e5d5e000 	ldrb	lr, [r5]
     218:	e20ec0ff 	and	ip, lr, #255	; 0xff
     21c:	e35c0000 	cmp	ip, #0	; 0x0
     220:	1a000006 	bne	240 <TIMER0_ISR+0x104>
     224:	e59f0108 	ldr	r0, [pc, #264]	; 334 <.text+0x334>
     228:	e590201c 	ldr	r2, [r0, #28]
     22c:	e59f1104 	ldr	r1, [pc, #260]	; 338 <.text+0x338>
     230:	e59f3104 	ldr	r3, [pc, #260]	; 33c <.text+0x33c>
     234:	e3822601 	orr	r2, r2, #1048576	; 0x100000
     238:	e5831000 	str	r1, [r3]
     23c:	e580201c 	str	r2, [r0, #28]
     240:	e35c0007 	cmp	ip, #7	; 0x7
     244:	8a00000c 	bhi	27c <TIMER0_ISR+0x140>
     248:	e59f00ec 	ldr	r0, [pc, #236]	; 33c <.text+0x33c>
     24c:	e59f30ec 	ldr	r3, [pc, #236]	; 340 <.text+0x340>
     250:	e1a0208c 	mov	r2, ip, lsl #1
     254:	e19210b3 	ldrh	r1, [r2, r3]
     258:	e594301c 	ldr	r3, [r4, #28]
     25c:	e5902000 	ldr	r2, [r0]
     260:	e0833001 	add	r3, r3, r1
     264:	e0612002 	rsb	r2, r1, r2
     268:	e28e1001 	add	r1, lr, #1	; 0x1
     26c:	e584301c 	str	r3, [r4, #28]
     270:	e5802000 	str	r2, [r0]
     274:	e5c51000 	strb	r1, [r5]
     278:	ea000018 	b	2e0 <TIMER0_ISR+0x1a4>
     27c:	e35c0008 	cmp	ip, #8	; 0x8
     280:	e59f10b4 	ldr	r1, [pc, #180]	; 33c <.text+0x33c>
     284:	1a000008 	bne	2ac <TIMER0_ISR+0x170>
     288:	e59f20a4 	ldr	r2, [pc, #164]	; 334 <.text+0x334>
     28c:	e5923014 	ldr	r3, [r2, #20]
     290:	e3833202 	orr	r3, r3, #536870912	; 0x20000000
     294:	e5823014 	str	r3, [r2, #20]
     298:	e5912000 	ldr	r2, [r1]
     29c:	e594301c 	ldr	r3, [r4, #28]
     2a0:	e08330a2 	add	r3, r3, r2, lsr #1
     2a4:	e28e2001 	add	r2, lr, #1	; 0x1
     2a8:	ea00000a 	b	2d8 <TIMER0_ISR+0x19c>
     2ac:	e59f2080 	ldr	r2, [pc, #128]	; 334 <.text+0x334>
     2b0:	e5923014 	ldr	r3, [r2, #20]
     2b4:	e3833601 	orr	r3, r3, #1048576	; 0x100000
     2b8:	e5823014 	str	r3, [r2, #20]
     2bc:	e592301c 	ldr	r3, [r2, #28]
     2c0:	e3833202 	orr	r3, r3, #536870912	; 0x20000000
     2c4:	e582301c 	str	r3, [r2, #28]
     2c8:	e5912000 	ldr	r2, [r1]
     2cc:	e594301c 	ldr	r3, [r4, #28]
     2d0:	e08330a2 	add	r3, r3, r2, lsr #1
     2d4:	e3a02000 	mov	r2, #0	; 0x0
     2d8:	e5c52000 	strb	r2, [r5]
     2dc:	e584301c 	str	r3, [r4, #28]
     2e0:	e59f302c 	ldr	r3, [pc, #44]	; 314 <.text+0x314>
     2e4:	e593203c 	ldr	r2, [r3, #60]
     2e8:	e3c22002 	bic	r2, r2, #2	; 0x2
     2ec:	e583203c 	str	r2, [r3, #60]
     2f0:	e3a02002 	mov	r2, #2	; 0x2
     2f4:	e5832000 	str	r2, [r3]
     2f8:	eaffff93 	b	14c <TIMER0_ISR+0x10>
     2fc:	e59f3040 	ldr	r3, [pc, #64]	; 344 <.text+0x344>
     300:	e3a02000 	mov	r2, #0	; 0x0
     304:	e5832030 	str	r2, [r3, #48]
     308:	e8bd0002 	ldmia	sp!, {r1}
     30c:	e161f001 	msr	SPSR_c, r1
     310:	e8fd9fff 	ldmia	sp!, {r0, r1, r2, r3, r4, r5, r6, r7, r8, r9, sl, fp, ip, pc}^
     314:	e0004000 	and	r4, r0, r0
     318:	40000000 	andmi	r0, r0, r0
     31c:	4000048c 	andmi	r0, r0, ip, lsl #9
     320:	000249ee 	andeq	r4, r2, lr, ror #19
     324:	0000464e 	andeq	r4, r0, lr, asr #12
     328:	40000a7a 	andmi	r0, r0, sl, ror sl
     32c:	40000a8a 	andmi	r0, r0, sl, lsl #21
     330:	40000a26 	andmi	r0, r0, r6, lsr #20
     334:	e0028000 	and	r8, r2, r0
     338:	000493e0 	andeq	r9, r4, r0, ror #7
     33c:	40000008 	andmi	r0, r0, r8
     340:	40000a28 	andmi	r0, r0, r8, lsr #20
     344:	fffff000 	swinv	0x00fff000

00000348 <disableIRQ>:
     348:	e10f0000 	mrs	r0, CPSR
     34c:	e3803080 	orr	r3, r0, #128	; 0x80
     350:	e129f003 	msr	CPSR_fc, r3
     354:	e12fff1e 	bx	lr

00000358 <restoreIRQ>:
     358:	e1a02000 	mov	r2, r0
     35c:	e10f0000 	mrs	r0, CPSR
     360:	e2022080 	and	r2, r2, #128	; 0x80
     364:	e3c03080 	bic	r3, r0, #128	; 0x80
     368:	e1833002 	orr	r3, r3, r2
     36c:	e129f003 	msr	CPSR_fc, r3
     370:	e12fff1e 	bx	lr

00000374 <enableIRQ>:
     374:	e10f0000 	mrs	r0, CPSR
     378:	e3c03080 	bic	r3, r0, #128	; 0x80
     37c:	e129f003 	msr	CPSR_fc, r3
     380:	e12fff1e 	bx	lr

00000384 <disableFIQ>:
     384:	e10f0000 	mrs	r0, CPSR
     388:	e3803040 	orr	r3, r0, #64	; 0x40
     38c:	e129f003 	msr	CPSR_fc, r3
     390:	e12fff1e 	bx	lr

00000394 <restoreFIQ>:
     394:	e1a02000 	mov	r2, r0
     398:	e10f0000 	mrs	r0, CPSR
     39c:	e2022040 	and	r2, r2, #64	; 0x40
     3a0:	e3c03040 	bic	r3, r0, #64	; 0x40
     3a4:	e1833002 	orr	r3, r3, r2
     3a8:	e129f003 	msr	CPSR_fc, r3
     3ac:	e12fff1e 	bx	lr

000003b0 <enableFIQ>:
     3b0:	e10f0000 	mrs	r0, CPSR
     3b4:	e3c03040 	bic	r3, r0, #64	; 0x40
     3b8:	e129f003 	msr	CPSR_fc, r3
     3bc:	e12fff1e 	bx	lr

000003c0 <init_fbw>:
     3c0:	e59f2190 	ldr	r2, [pc, #400]	; 558 <.text+0x558>
     3c4:	e1a0c00d 	mov	ip, sp
     3c8:	e3a03024 	mov	r3, #36	; 0x24
     3cc:	e92dd830 	stmdb	sp!, {r4, r5, fp, ip, lr, pc}
     3d0:	e5c23084 	strb	r3, [r2, #132]
     3d4:	e2433023 	sub	r3, r3, #35	; 0x23
     3d8:	e5c23080 	strb	r3, [r2, #128]
     3dc:	e2433057 	sub	r3, r3, #87	; 0x57
     3e0:	e5c2308c 	strb	r3, [r2, #140]
     3e4:	e28330ab 	add	r3, r3, #171	; 0xab
     3e8:	e5c2308c 	strb	r3, [r2, #140]
     3ec:	e24cb004 	sub	fp, ip, #4	; 0x4
     3f0:	e59f5160 	ldr	r5, [pc, #352]	; 558 <.text+0x558>
     3f4:	e1d538b8 	ldrh	r3, [r5, #136]
     3f8:	e3130b01 	tst	r3, #1024	; 0x400
     3fc:	0afffffb 	beq	3f0 <init_fbw+0x30>
     400:	e3a02003 	mov	r2, #3	; 0x3
     404:	e3e03055 	mvn	r3, #85	; 0x55
     408:	e5c52080 	strb	r2, [r5, #128]
     40c:	e5c5308c 	strb	r3, [r5, #140]
     410:	e28330ab 	add	r3, r3, #171	; 0xab
     414:	e5c5308c 	strb	r3, [r5, #140]
     418:	e59f113c 	ldr	r1, [pc, #316]	; 55c <.text+0x55c>
     41c:	e3a04000 	mov	r4, #0	; 0x0
     420:	e3a0c002 	mov	ip, #2	; 0x2
     424:	e28330ab 	add	r3, r3, #171	; 0xab
     428:	e5c52004 	strb	r2, [r5, #4]
     42c:	e3a0e001 	mov	lr, #1	; 0x1
     430:	e5c5c000 	strb	ip, [r5]
     434:	e5c52004 	strb	r2, [r5, #4]
     438:	e5c5c000 	strb	ip, [r5]
     43c:	e7c54003 	strb	r4, [r5, r3]
     440:	e3e03000 	mvn	r3, #0	; 0x0
     444:	e5c5e040 	strb	lr, [r5, #64]
     448:	e59f0110 	ldr	r0, [pc, #272]	; 560 <.text+0x560>
     44c:	e5813014 	str	r3, [r1, #20]
     450:	e59f310c 	ldr	r3, [pc, #268]	; 564 <.text+0x564>
     454:	e581400c 	str	r4, [r1, #12]
     458:	e5813034 	str	r3, [r1, #52]
     45c:	e580c004 	str	ip, [r0, #4]
     460:	e580400c 	str	r4, [r0, #12]
     464:	e5804014 	str	r4, [r0, #20]
     468:	e5804028 	str	r4, [r0, #40]
     46c:	e580403c 	str	r4, [r0, #60]
     470:	e580e004 	str	lr, [r0, #4]
     474:	e591300c 	ldr	r3, [r1, #12]
     478:	e3c33010 	bic	r3, r3, #16	; 0x10
     47c:	e581300c 	str	r3, [r1, #12]
     480:	e3a03010 	mov	r3, #16	; 0x10
     484:	e5813010 	str	r3, [r1, #16]
     488:	e2833014 	add	r3, r3, #20	; 0x14
     48c:	e5813204 	str	r3, [r1, #516]
     490:	e59f30d0 	ldr	r3, [pc, #208]	; 568 <.text+0x568>
     494:	e59f20d0 	ldr	r2, [pc, #208]	; 56c <.text+0x56c>
     498:	e5813104 	str	r3, [r1, #260]
     49c:	e5923018 	ldr	r3, [r2, #24]
     4a0:	e3833201 	orr	r3, r3, #268435456	; 0x10000000
     4a4:	e5823018 	str	r3, [r2, #24]
     4a8:	e3a03201 	mov	r3, #268435456	; 0x10000000
     4ac:	e5823014 	str	r3, [r2, #20]
     4b0:	e5923018 	ldr	r3, [r2, #24]
     4b4:	e3833702 	orr	r3, r3, #524288	; 0x80000
     4b8:	e5823018 	str	r3, [r2, #24]
     4bc:	e3a03702 	mov	r3, #524288	; 0x80000
     4c0:	e5823014 	str	r3, [r2, #20]
     4c4:	e59f30a4 	ldr	r3, [pc, #164]	; 570 <.text+0x570>
     4c8:	e1c340b0 	strh	r4, [r3]
     4cc:	e59f30a0 	ldr	r3, [pc, #160]	; 574 <.text+0x574>
     4d0:	e5834000 	str	r4, [r3]
     4d4:	eb001352 	bl	5224 <uart0_init_tx>
     4d8:	eb00141f 	bl	555c <uart1_init_tx>
     4dc:	eb00174d 	bl	6218 <adc_init>
     4e0:	e3a0000e 	mov	r0, #14	; 0xe
     4e4:	e59f108c 	ldr	r1, [pc, #140]	; 578 <.text+0x578>
     4e8:	e3a02020 	mov	r2, #32	; 0x20
     4ec:	eb001743 	bl	6200 <adc_buf_channel>
     4f0:	eb001319 	bl	515c <actuators_init>
     4f4:	e59f2080 	ldr	r2, [pc, #128]	; 57c <.text+0x57c>
     4f8:	e1a01084 	mov	r1, r4, lsl #1
     4fc:	e59f307c 	ldr	r3, [pc, #124]	; 580 <.text+0x580>
     500:	e2844001 	add	r4, r4, #1	; 0x1
     504:	e19120b2 	ldrh	r2, [r1, r2]
     508:	e3540003 	cmp	r4, #3	; 0x3
     50c:	e18120b3 	strh	r2, [r1, r3]
     510:	dafffff7 	ble	4f4 <init_fbw+0x134>
     514:	e59f2068 	ldr	r2, [pc, #104]	; 584 <.text+0x584>
     518:	e5923000 	ldr	r3, [r2]
     51c:	e3833a02 	orr	r3, r3, #8192	; 0x2000
     520:	e5823000 	str	r3, [r2]
     524:	e59f005c 	ldr	r0, [pc, #92]	; 588 <.text+0x588>
     528:	e59f3030 	ldr	r3, [pc, #48]	; 560 <.text+0x560>
     52c:	e3a02d06 	mov	r2, #384	; 0x180
     530:	e5832028 	str	r2, [r3, #40]
     534:	e590c000 	ldr	ip, [r0]
     538:	e59f304c 	ldr	r3, [pc, #76]	; 58c <.text+0x58c>
     53c:	e3a01000 	mov	r1, #0	; 0x0
     540:	e5c31000 	strb	r1, [r3]
     544:	e5cc1011 	strb	r1, [ip, #17]
     548:	e5903000 	ldr	r3, [r0]
     54c:	e5c31012 	strb	r1, [r3, #18]
     550:	e89d6830 	ldmia	sp, {r4, r5, fp, sp, lr}
     554:	e12fff1e 	bx	lr
     558:	e01fc000 	ands	ip, pc, r0
     55c:	fffff000 	swinv	0x00fff000
     560:	e0004000 	and	r4, r0, r0
     564:	00000114 	andeq	r0, r0, r4, lsl r1
     568:	0000013c 	andeq	r0, r0, ip, lsr r1
     56c:	e0028000 	and	r8, r2, r0
     570:	400007a4 	andmi	r0, r0, r4, lsr #15
     574:	400007a8 	andmi	r0, r0, r8, lsr #15
     578:	400007ac 	andmi	r0, r0, ip, lsr #15
     57c:	0000f912 	andeq	pc, r0, r2, lsl r9
     580:	40000a1e 	andmi	r0, r0, lr, lsl sl
     584:	e002c000 	and	ip, r2, r0
     588:	40000014 	andmi	r0, r0, r4, lsl r0
     58c:	40000a8a 	andmi	r0, r0, sl, lsl #21

00000590 <event_task_fbw>:
     590:	e1a0c00d 	mov	ip, sp
     594:	e92ddff0 	stmdb	sp!, {r4, r5, r6, r7, r8, r9, sl, fp, ip, lr, pc}
     598:	e24cb004 	sub	fp, ip, #4	; 0x4
     59c:	e59fc560 	ldr	ip, [pc, #1376]	; b04 <.text+0xb04>
     5a0:	e5dc3000 	ldrb	r3, [ip]
     5a4:	e3530000 	cmp	r3, #0	; 0x0
     5a8:	0a000107 	beq	9cc <event_task_fbw+0x43c>
     5ac:	e59f1554 	ldr	r1, [pc, #1364]	; b08 <.text+0xb08>
     5b0:	e59f9554 	ldr	r9, [pc, #1364]	; b0c <.text+0xb0c>
     5b4:	e5d13000 	ldrb	r3, [r1]
     5b8:	e1d940b0 	ldrh	r4, [r9]
     5bc:	e2833001 	add	r3, r3, #1	; 0x1
     5c0:	e5c13000 	strb	r3, [r1]
     5c4:	e2444c59 	sub	r4, r4, #22784	; 0x5900
     5c8:	e59f3540 	ldr	r3, [pc, #1344]	; b10 <.text+0xb10>
     5cc:	e3a02000 	mov	r2, #0	; 0x0
     5d0:	e244405b 	sub	r4, r4, #91	; 0x5b
     5d4:	e5c32000 	strb	r2, [r3]
     5d8:	e1a04804 	mov	r4, r4, lsl #16
     5dc:	e59f3530 	ldr	r3, [pc, #1328]	; b14 <.text+0xb14>
     5e0:	e1a04844 	mov	r4, r4, asr #16
     5e4:	e5c32000 	strb	r2, [r3]
     5e8:	e5cc2000 	strb	r2, [ip]
     5ec:	e1a00004 	mov	r0, r4
     5f0:	eb003b69 	bl	f39c <__floatsisf>
     5f4:	e3540000 	cmp	r4, #0	; 0x0
     5f8:	a59f1518 	ldrge	r1, [pc, #1304]	; b18 <.text+0xb18>
     5fc:	b59f1518 	ldrlt	r1, [pc, #1304]	; b1c <.text+0xb1c>
     600:	eb003b78 	bl	f3e8 <__mulsf3>
     604:	eb003c6a 	bl	f7b4 <__fixsfsi>
     608:	e59fa510 	ldr	sl, [pc, #1296]	; b20 <.text+0xb20>
     60c:	e1ca00b0 	strh	r0, [sl]
     610:	e1da30f0 	ldrsh	r3, [sl]
     614:	e3530d96 	cmp	r3, #9600	; 0x2580
     618:	c3a01d96 	movgt	r1, #9600	; 0x2580
     61c:	c1ca10b0 	strgth	r1, [sl]
     620:	ca000003 	bgt	634 <event_task_fbw+0xa4>
     624:	e3730d96 	cmn	r3, #9600	; 0x2580
     628:	b59f24f4 	ldrlt	r2, [pc, #1268]	; b24 <.text+0xb24>
     62c:	b59f34ec 	ldrlt	r3, [pc, #1260]	; b20 <.text+0xb20>
     630:	b1c320b0 	strlth	r2, [r3]
     634:	e1d940b2 	ldrh	r4, [r9, #2]
     638:	e2444b16 	sub	r4, r4, #22528	; 0x5800
     63c:	e24440f2 	sub	r4, r4, #242	; 0xf2
     640:	e1a04804 	mov	r4, r4, lsl #16
     644:	e1a04844 	mov	r4, r4, asr #16
     648:	e1a00004 	mov	r0, r4
     64c:	eb003b52 	bl	f39c <__floatsisf>
     650:	e3540000 	cmp	r4, #0	; 0x0
     654:	a59f14cc 	ldrge	r1, [pc, #1228]	; b28 <.text+0xb28>
     658:	b59f14cc 	ldrlt	r1, [pc, #1228]	; b2c <.text+0xb2c>
     65c:	eb003b61 	bl	f3e8 <__mulsf3>
     660:	eb003c53 	bl	f7b4 <__fixsfsi>
     664:	e59f34b4 	ldr	r3, [pc, #1204]	; b20 <.text+0xb20>
     668:	e1c300b2 	strh	r0, [r3, #2]
     66c:	e1da30f2 	ldrsh	r3, [sl, #2]
     670:	e3530d96 	cmp	r3, #9600	; 0x2580
     674:	c3a02d96 	movgt	r2, #9600	; 0x2580
     678:	c1ca20b2 	strgth	r2, [sl, #2]
     67c:	ca000003 	bgt	690 <event_task_fbw+0x100>
     680:	e3730d96 	cmn	r3, #9600	; 0x2580
     684:	b59f2498 	ldrlt	r2, [pc, #1176]	; b24 <.text+0xb24>
     688:	b59f3490 	ldrlt	r3, [pc, #1168]	; b20 <.text+0xb20>
     68c:	b1c320b2 	strlth	r2, [r3, #2]
     690:	e1d900b4 	ldrh	r0, [r9, #4]
     694:	e2400c71 	sub	r0, r0, #28928	; 0x7100
     698:	e24000ac 	sub	r0, r0, #172	; 0xac
     69c:	e1a00800 	mov	r0, r0, lsl #16
     6a0:	e1a00840 	mov	r0, r0, asr #16
     6a4:	eb003b3c 	bl	f39c <__floatsisf>
     6a8:	e59f1480 	ldr	r1, [pc, #1152]	; b30 <.text+0xb30>
     6ac:	eb003b4d 	bl	f3e8 <__mulsf3>
     6b0:	eb003c3f 	bl	f7b4 <__fixsfsi>
     6b4:	e1ca00b4 	strh	r0, [sl, #4]
     6b8:	e1da30f4 	ldrsh	r3, [sl, #4]
     6bc:	e3530d96 	cmp	r3, #9600	; 0x2580
     6c0:	c3a03d96 	movgt	r3, #9600	; 0x2580
     6c4:	c1ca30b4 	strgth	r3, [sl, #4]
     6c8:	ca000003 	bgt	6dc <event_task_fbw+0x14c>
     6cc:	e3530000 	cmp	r3, #0	; 0x0
     6d0:	b59f3448 	ldrlt	r3, [pc, #1096]	; b20 <.text+0xb20>
     6d4:	b3a01000 	movlt	r1, #0	; 0x0
     6d8:	b1c310b4 	strlth	r1, [r3, #4]
     6dc:	e1d940b6 	ldrh	r4, [r9, #6]
     6e0:	e2444c57 	sub	r4, r4, #22272	; 0x5700
     6e4:	e24440c6 	sub	r4, r4, #198	; 0xc6
     6e8:	e1a04804 	mov	r4, r4, lsl #16
     6ec:	e1a04844 	mov	r4, r4, asr #16
     6f0:	e1a00004 	mov	r0, r4
     6f4:	eb003b28 	bl	f39c <__floatsisf>
     6f8:	e3540000 	cmp	r4, #0	; 0x0
     6fc:	a59f1430 	ldrge	r1, [pc, #1072]	; b34 <.text+0xb34>
     700:	b59f1430 	ldrlt	r1, [pc, #1072]	; b38 <.text+0xb38>
     704:	eb003b37 	bl	f3e8 <__mulsf3>
     708:	eb003c29 	bl	f7b4 <__fixsfsi>
     70c:	e59f340c 	ldr	r3, [pc, #1036]	; b20 <.text+0xb20>
     710:	e1c300b6 	strh	r0, [r3, #6]
     714:	e1da30f6 	ldrsh	r3, [sl, #6]
     718:	e3530d96 	cmp	r3, #9600	; 0x2580
     71c:	c3a02d96 	movgt	r2, #9600	; 0x2580
     720:	c1ca20b6 	strgth	r2, [sl, #6]
     724:	ca000003 	bgt	738 <event_task_fbw+0x1a8>
     728:	e3730d96 	cmn	r3, #9600	; 0x2580
     72c:	b59f23f0 	ldrlt	r2, [pc, #1008]	; b24 <.text+0xb24>
     730:	b59f33e8 	ldrlt	r3, [pc, #1000]	; b20 <.text+0xb20>
     734:	b1c320b6 	strlth	r2, [r3, #6]
     738:	e59f83fc 	ldr	r8, [pc, #1020]	; b3c <.text+0xb3c>
     73c:	e5d83000 	ldrb	r3, [r8]
     740:	e2833001 	add	r3, r3, #1	; 0x1
     744:	e59f73f4 	ldr	r7, [pc, #1012]	; b40 <.text+0xb40>
     748:	e5c83000 	strb	r3, [r8]
     74c:	e5975010 	ldr	r5, [r7, #16]
     750:	e5973014 	ldr	r3, [r7, #20]
     754:	e5972018 	ldr	r2, [r7, #24]
     758:	e597101c 	ldr	r1, [r7, #28]
     75c:	e1d960be 	ldrh	r6, [r9, #14]
     760:	e1d900b8 	ldrh	r0, [r9, #8]
     764:	e1d9c0ba 	ldrh	ip, [r9, #10]
     768:	e1d9e0bc 	ldrh	lr, [r9, #12]
     76c:	e5d84000 	ldrb	r4, [r8]
     770:	e0855000 	add	r5, r5, r0
     774:	e083300c 	add	r3, r3, ip
     778:	e082200e 	add	r2, r2, lr
     77c:	e0811006 	add	r1, r1, r6
     780:	e3540008 	cmp	r4, #8	; 0x8
     784:	e5873014 	str	r3, [r7, #20]
     788:	e5872018 	str	r2, [r7, #24]
     78c:	e587101c 	str	r1, [r7, #28]
     790:	e5875010 	str	r5, [r7, #16]
     794:	1a000073 	bne	968 <event_task_fbw+0x3d8>
     798:	e1a04fc5 	mov	r4, r5, asr #31
     79c:	e0854ea4 	add	r4, r5, r4, lsr #29
     7a0:	e1a041c4 	mov	r4, r4, asr #3
     7a4:	e2444c59 	sub	r4, r4, #22784	; 0x5900
     7a8:	e244405b 	sub	r4, r4, #91	; 0x5b
     7ac:	e1a04804 	mov	r4, r4, lsl #16
     7b0:	e1a04844 	mov	r4, r4, asr #16
     7b4:	e3a03000 	mov	r3, #0	; 0x0
     7b8:	e1a00004 	mov	r0, r4
     7bc:	e5c83000 	strb	r3, [r8]
     7c0:	eb003af5 	bl	f39c <__floatsisf>
     7c4:	e3540000 	cmp	r4, #0	; 0x0
     7c8:	a59f1374 	ldrge	r1, [pc, #884]	; b44 <.text+0xb44>
     7cc:	b59f1374 	ldrlt	r1, [pc, #884]	; b48 <.text+0xb48>
     7d0:	eb003b04 	bl	f3e8 <__mulsf3>
     7d4:	eb003bf6 	bl	f7b4 <__fixsfsi>
     7d8:	e59f3340 	ldr	r3, [pc, #832]	; b20 <.text+0xb20>
     7dc:	e1c300b8 	strh	r0, [r3, #8]
     7e0:	e1da20f8 	ldrsh	r2, [sl, #8]
     7e4:	e3a03000 	mov	r3, #0	; 0x0
     7e8:	e3520d96 	cmp	r2, #9600	; 0x2580
     7ec:	e5873010 	str	r3, [r7, #16]
     7f0:	c3a03d96 	movgt	r3, #9600	; 0x2580
     7f4:	c1ca30b8 	strgth	r3, [sl, #8]
     7f8:	ca000003 	bgt	80c <event_task_fbw+0x27c>
     7fc:	e3720d96 	cmn	r2, #9600	; 0x2580
     800:	b59f231c 	ldrlt	r2, [pc, #796]	; b24 <.text+0xb24>
     804:	b59f3314 	ldrlt	r3, [pc, #788]	; b20 <.text+0xb20>
     808:	b1c320b8 	strlth	r2, [r3, #8]
     80c:	e5974014 	ldr	r4, [r7, #20]
     810:	e1a03fc4 	mov	r3, r4, asr #31
     814:	e0844ea3 	add	r4, r4, r3, lsr #29
     818:	e1a041c4 	mov	r4, r4, asr #3
     81c:	e2444c59 	sub	r4, r4, #22784	; 0x5900
     820:	e2444010 	sub	r4, r4, #16	; 0x10
     824:	e1a04804 	mov	r4, r4, lsl #16
     828:	e1a04844 	mov	r4, r4, asr #16
     82c:	e1a00004 	mov	r0, r4
     830:	eb003ad9 	bl	f39c <__floatsisf>
     834:	e3540000 	cmp	r4, #0	; 0x0
     838:	a59f130c 	ldrge	r1, [pc, #780]	; b4c <.text+0xb4c>
     83c:	b59f130c 	ldrlt	r1, [pc, #780]	; b50 <.text+0xb50>
     840:	eb003ae8 	bl	f3e8 <__mulsf3>
     844:	eb003bda 	bl	f7b4 <__fixsfsi>
     848:	e59f32d0 	ldr	r3, [pc, #720]	; b20 <.text+0xb20>
     84c:	e1c300ba 	strh	r0, [r3, #10]
     850:	e1da20fa 	ldrsh	r2, [sl, #10]
     854:	e3520d96 	cmp	r2, #9600	; 0x2580
     858:	e3a03000 	mov	r3, #0	; 0x0
     85c:	c3a01d96 	movgt	r1, #9600	; 0x2580
     860:	e5873014 	str	r3, [r7, #20]
     864:	c1ca10ba 	strgth	r1, [sl, #10]
     868:	ca000003 	bgt	87c <event_task_fbw+0x2ec>
     86c:	e3720d96 	cmn	r2, #9600	; 0x2580
     870:	b59f22ac 	ldrlt	r2, [pc, #684]	; b24 <.text+0xb24>
     874:	b59f32a4 	ldrlt	r3, [pc, #676]	; b20 <.text+0xb20>
     878:	b1c320ba 	strlth	r2, [r3, #10]
     87c:	e5974018 	ldr	r4, [r7, #24]
     880:	e1a03fc4 	mov	r3, r4, asr #31
     884:	e0844ea3 	add	r4, r4, r3, lsr #29
     888:	e1a041c4 	mov	r4, r4, asr #3
     88c:	e2444b16 	sub	r4, r4, #22528	; 0x5800
     890:	e24440f2 	sub	r4, r4, #242	; 0xf2
     894:	e1a04804 	mov	r4, r4, lsl #16
     898:	e1a04844 	mov	r4, r4, asr #16
     89c:	e1a00004 	mov	r0, r4
     8a0:	eb003abd 	bl	f39c <__floatsisf>
     8a4:	e3540000 	cmp	r4, #0	; 0x0
     8a8:	a59f12a4 	ldrge	r1, [pc, #676]	; b54 <.text+0xb54>
     8ac:	b59f12a4 	ldrlt	r1, [pc, #676]	; b58 <.text+0xb58>
     8b0:	eb003acc 	bl	f3e8 <__mulsf3>
     8b4:	eb003bbe 	bl	f7b4 <__fixsfsi>
     8b8:	e59f3260 	ldr	r3, [pc, #608]	; b20 <.text+0xb20>
     8bc:	e1c300bc 	strh	r0, [r3, #12]
     8c0:	e1da20fc 	ldrsh	r2, [sl, #12]
     8c4:	e3520d96 	cmp	r2, #9600	; 0x2580
     8c8:	e3a03000 	mov	r3, #0	; 0x0
     8cc:	c3a02d96 	movgt	r2, #9600	; 0x2580
     8d0:	e5873018 	str	r3, [r7, #24]
     8d4:	c1ca20bc 	strgth	r2, [sl, #12]
     8d8:	ca000003 	bgt	8ec <event_task_fbw+0x35c>
     8dc:	e3720d96 	cmn	r2, #9600	; 0x2580
     8e0:	b59f223c 	ldrlt	r2, [pc, #572]	; b24 <.text+0xb24>
     8e4:	b59f3234 	ldrlt	r3, [pc, #564]	; b20 <.text+0xb20>
     8e8:	b1c320bc 	strlth	r2, [r3, #12]
     8ec:	e597401c 	ldr	r4, [r7, #28]
     8f0:	e1a03fc4 	mov	r3, r4, asr #31
     8f4:	e0844ea3 	add	r4, r4, r3, lsr #29
     8f8:	e1a041c4 	mov	r4, r4, asr #3
     8fc:	e2444c59 	sub	r4, r4, #22784	; 0x5900
     900:	e244406a 	sub	r4, r4, #106	; 0x6a
     904:	e1a04804 	mov	r4, r4, lsl #16
     908:	e1a04844 	mov	r4, r4, asr #16
     90c:	e1a00004 	mov	r0, r4
     910:	eb003aa1 	bl	f39c <__floatsisf>
     914:	e3540000 	cmp	r4, #0	; 0x0
     918:	a59f123c 	ldrge	r1, [pc, #572]	; b5c <.text+0xb5c>
     91c:	b59f123c 	ldrlt	r1, [pc, #572]	; b60 <.text+0xb60>
     920:	eb003ab0 	bl	f3e8 <__mulsf3>
     924:	eb003ba2 	bl	f7b4 <__fixsfsi>
     928:	e59f31f0 	ldr	r3, [pc, #496]	; b20 <.text+0xb20>
     92c:	e1c300be 	strh	r0, [r3, #14]
     930:	e1da20fe 	ldrsh	r2, [sl, #14]
     934:	e3a03000 	mov	r3, #0	; 0x0
     938:	e3520d96 	cmp	r2, #9600	; 0x2580
     93c:	e587301c 	str	r3, [r7, #28]
     940:	c3a03d96 	movgt	r3, #9600	; 0x2580
     944:	c1ca30be 	strgth	r3, [sl, #14]
     948:	ca000003 	bgt	95c <event_task_fbw+0x3cc>
     94c:	e3720d96 	cmn	r2, #9600	; 0x2580
     950:	b59f21cc 	ldrlt	r2, [pc, #460]	; b24 <.text+0xb24>
     954:	b59f31c4 	ldrlt	r3, [pc, #452]	; b20 <.text+0xb20>
     958:	b1c320be 	strlth	r2, [r3, #14]
     95c:	e59f3200 	ldr	r3, [pc, #512]	; b64 <.text+0xb64>
     960:	e3a02001 	mov	r2, #1	; 0x1
     964:	e5c32000 	strb	r2, [r3]
     968:	e59f31f4 	ldr	r3, [pc, #500]	; b64 <.text+0xb64>
     96c:	e5d33000 	ldrb	r3, [r3]
     970:	e3530000 	cmp	r3, #0	; 0x0
     974:	0a000006 	beq	994 <event_task_fbw+0x404>
     978:	e59f31a0 	ldr	r3, [pc, #416]	; b20 <.text+0xb20>
     97c:	e1d330fe 	ldrsh	r3, [r3, #14]
     980:	e59f21e0 	ldr	r2, [pc, #480]	; b68 <.text+0xb68>
     984:	e3730d4b 	cmn	r3, #4800	; 0x12c0
     988:	b3a03000 	movlt	r3, #0	; 0x0
     98c:	a3a03001 	movge	r3, #1	; 0x1
     990:	e5c23000 	strb	r3, [r2]
     994:	e59f31cc 	ldr	r3, [pc, #460]	; b68 <.text+0xb68>
     998:	e5d33000 	ldrb	r3, [r3]
     99c:	e3530000 	cmp	r3, #0	; 0x0
     9a0:	1a000009 	bne	9cc <event_task_fbw+0x43c>
     9a4:	e59f3174 	ldr	r3, [pc, #372]	; b20 <.text+0xb20>
     9a8:	e59f21bc 	ldr	r2, [pc, #444]	; b6c <.text+0xb6c>
     9ac:	e1d310b6 	ldrh	r1, [r3, #6]
     9b0:	e1c210b6 	strh	r1, [r2, #6]
     9b4:	e1d310b4 	ldrh	r1, [r3, #4]
     9b8:	e1c210b0 	strh	r1, [r2]
     9bc:	e1d310b0 	ldrh	r1, [r3]
     9c0:	e1d330b2 	ldrh	r3, [r3, #2]
     9c4:	e1c210b2 	strh	r1, [r2, #2]
     9c8:	e1c230b4 	strh	r3, [r2, #4]
     9cc:	e59f019c 	ldr	r0, [pc, #412]	; b70 <.text+0xb70>
     9d0:	e5d03000 	ldrb	r3, [r0]
     9d4:	e3530000 	cmp	r3, #0	; 0x0
     9d8:	0a000047 	beq	afc <event_task_fbw+0x56c>
     9dc:	e59fe184 	ldr	lr, [pc, #388]	; b68 <.text+0xb68>
     9e0:	e5de3000 	ldrb	r3, [lr]
     9e4:	e3530001 	cmp	r3, #1	; 0x1
     9e8:	e59f3184 	ldr	r3, [pc, #388]	; b74 <.text+0xb74>
     9ec:	e3a01000 	mov	r1, #0	; 0x0
     9f0:	e3a02001 	mov	r2, #1	; 0x1
     9f4:	e5c01000 	strb	r1, [r0]
     9f8:	e5c32000 	strb	r2, [r3]
     9fc:	e59f3174 	ldr	r3, [pc, #372]	; b78 <.text+0xb78>
     a00:	e5c31000 	strb	r1, [r3]
     a04:	e59f3170 	ldr	r3, [pc, #368]	; b7c <.text+0xb7c>
     a08:	e5c32000 	strb	r2, [r3]
     a0c:	1a000009 	bne	a38 <event_task_fbw+0x4a8>
     a10:	e1a00001 	mov	r0, r1
     a14:	e59f3164 	ldr	r3, [pc, #356]	; b80 <.text+0xb80>
     a18:	e5931000 	ldr	r1, [r3]
     a1c:	e1a02080 	mov	r2, r0, lsl #1
     a20:	e59f3144 	ldr	r3, [pc, #324]	; b6c <.text+0xb6c>
     a24:	e2800001 	add	r0, r0, #1	; 0x1
     a28:	e19210b1 	ldrh	r1, [r2, r1]
     a2c:	e3500003 	cmp	r0, #3	; 0x3
     a30:	e18210b3 	strh	r1, [r2, r3]
     a34:	dafffff6 	ble	a14 <event_task_fbw+0x484>
     a38:	e3a01000 	mov	r1, #0	; 0x0
     a3c:	e2813001 	add	r3, r1, #1	; 0x1
     a40:	e1a02081 	mov	r2, r1, lsl #1
     a44:	e59fc138 	ldr	ip, [pc, #312]	; b84 <.text+0xb84>
     a48:	e20310ff 	and	r1, r3, #255	; 0xff
     a4c:	e59f30cc 	ldr	r3, [pc, #204]	; b20 <.text+0xb20>
     a50:	e59c0000 	ldr	r0, [ip]
     a54:	e19230b3 	ldrh	r3, [r2, r3]
     a58:	e3510007 	cmp	r1, #7	; 0x7
     a5c:	e18230b0 	strh	r3, [r2, r0]
     a60:	9afffff5 	bls	a3c <event_task_fbw+0x4ac>
     a64:	e59f311c 	ldr	r3, [pc, #284]	; b88 <.text+0xb88>
     a68:	e5d33000 	ldrb	r3, [r3]
     a6c:	e5c03010 	strb	r3, [r0, #16]
     a70:	e59f3098 	ldr	r3, [pc, #152]	; b10 <.text+0xb10>
     a74:	e5d33000 	ldrb	r3, [r3]
     a78:	e2732001 	rsbs	r2, r3, #1	; 0x1
     a7c:	33a02000 	movcc	r2, #0	; 0x0
     a80:	e3530002 	cmp	r3, #2	; 0x2
     a84:	120220ff 	andne	r2, r2, #255	; 0xff
     a88:	1a000002 	bne	a98 <event_task_fbw+0x508>
     a8c:	e3520000 	cmp	r2, #0	; 0x0
     a90:	13a02003 	movne	r2, #3	; 0x3
     a94:	03a02002 	moveq	r2, #2	; 0x2
     a98:	e5de3000 	ldrb	r3, [lr]
     a9c:	e3530001 	cmp	r3, #1	; 0x1
     aa0:	e5de3000 	ldrb	r3, [lr]
     aa4:	03822004 	orreq	r2, r2, #4	; 0x4
     aa8:	120220ff 	andne	r2, r2, #255	; 0xff
     aac:	e3530002 	cmp	r3, #2	; 0x2
     ab0:	e59c3000 	ldr	r3, [ip]
     ab4:	03822008 	orreq	r2, r2, #8	; 0x8
     ab8:	120220ff 	andne	r2, r2, #255	; 0xff
     abc:	e5c32011 	strb	r2, [r3, #17]
     ac0:	e59f109c 	ldr	r1, [pc, #156]	; b64 <.text+0xb64>
     ac4:	e5d13000 	ldrb	r3, [r1]
     ac8:	e3530000 	cmp	r3, #0	; 0x0
     acc:	0a000005 	beq	ae8 <event_task_fbw+0x558>
     ad0:	e59c3000 	ldr	r3, [ip]
     ad4:	e5d32011 	ldrb	r2, [r3, #17]
     ad8:	e3822010 	orr	r2, r2, #16	; 0x10
     adc:	e5c32011 	strb	r2, [r3, #17]
     ae0:	e3a03000 	mov	r3, #0	; 0x0
     ae4:	e5c13000 	strb	r3, [r1]
     ae8:	e59f3094 	ldr	r3, [pc, #148]	; b84 <.text+0xb84>
     aec:	e5932000 	ldr	r2, [r3]
     af0:	e59f3094 	ldr	r3, [pc, #148]	; b8c <.text+0xb8c>
     af4:	e5d33000 	ldrb	r3, [r3]
     af8:	e5c23013 	strb	r3, [r2, #19]
     afc:	e89d6ff0 	ldmia	sp, {r4, r5, r6, r7, r8, r9, sl, fp, sp, lr}
     b00:	e12fff1e 	bx	lr
     b04:	40000a8a 	andmi	r0, r0, sl, lsl #21
     b08:	40000a46 	andmi	r0, r0, r6, asr #20
     b0c:	40000a7a 	andmi	r0, r0, sl, ror sl
     b10:	40000a44 	andmi	r0, r0, r4, asr #20
     b14:	40000a45 	andmi	r0, r0, r5, asr #20
     b18:	bfc759e0 	swilt	0x00c759e0
     b1c:	bfc5dfd8 	swilt	0x00c5dfd8
     b20:	40000a48 	andmi	r0, r0, r8, asr #20
     b24:	ffffda80 	swinv	0x00ffda80
     b28:	3fc3835c 	swicc	0x00c3835c
     b2c:	3fc9ce79 	swicc	0x00c9ce79
     b30:	bf469c28 	swilt	0x00469c28
     b34:	bfd5ed76 	swilt	0x00d5ed76
     b38:	bfb956e1 	swilt	0x00b956e1
     b3c:	40000494 	mulmi	r0, r4, r4
     b40:	40000a58 	andmi	r0, r0, r8, asr sl
     b44:	bf935b16 	swilt	0x00935b16
     b48:	bf939a86 	swilt	0x00939a86
     b4c:	3f92cf5f 	swicc	0x0092cf5f
     b50:	3f94f6a9 	swicc	0x0094f6a9
     b54:	3f928c23 	swicc	0x00928c23
     b58:	3f9581da 	swicc	0x009581da
     b5c:	bf924d9a 	swilt	0x00924d9a
     b60:	bf94232f 	swilt	0x0094232f
     b64:	400004dc 	ldrmid	r0, [r0], -ip
     b68:	400007f1 	strmid	r0, [r0], -r1
     b6c:	40000a1e 	andmi	r0, r0, lr, lsl sl
     b70:	400004f8 	strmid	r0, [r0], -r8
     b74:	400004f9 	strmid	r0, [r0], -r9
     b78:	40000e2a 	andmi	r0, r0, sl, lsr #28
     b7c:	40000e29 	andmi	r0, r0, r9, lsr #28
     b80:	40000010 	andmi	r0, r0, r0, lsl r0
     b84:	40000014 	andmi	r0, r0, r4, lsl r0
     b88:	40000a78 	andmi	r0, r0, r8, ror sl
     b8c:	400007f0 	strmid	r0, [r0], -r0

00000b90 <periodic_task_fbw>:
     b90:	e1a0c00d 	mov	ip, sp
     b94:	e92dddf0 	stmdb	sp!, {r4, r5, r6, r7, r8, sl, fp, ip, lr, pc}
     b98:	e59fab28 	ldr	sl, [pc, #2856]	; 16c8 <.text+0x16c8>
     b9c:	e5da3000 	ldrb	r3, [sl]
     ba0:	e2833001 	add	r3, r3, #1	; 0x1
     ba4:	e5ca3000 	strb	r3, [sl]
     ba8:	e5da3000 	ldrb	r3, [sl]
     bac:	e24cb004 	sub	fp, ip, #4	; 0x4
     bb0:	e3530005 	cmp	r3, #5	; 0x5
     bb4:	e59fcb10 	ldr	ip, [pc, #2832]	; 16cc <.text+0x16cc>
     bb8:	83a03000 	movhi	r3, #0	; 0x0
     bbc:	85ca3000 	strhib	r3, [sl]
     bc0:	e5dc3000 	ldrb	r3, [ip]
     bc4:	e2833001 	add	r3, r3, #1	; 0x1
     bc8:	e5cc3000 	strb	r3, [ip]
     bcc:	e5dc3000 	ldrb	r3, [ip]
     bd0:	e353003b 	cmp	r3, #59	; 0x3b
     bd4:	9a000006 	bls	bf4 <periodic_task_fbw+0x64>
     bd8:	e59f0af0 	ldr	r0, [pc, #2800]	; 16d0 <.text+0x16d0>
     bdc:	e59f3af0 	ldr	r3, [pc, #2800]	; 16d4 <.text+0x16d4>
     be0:	e5d01000 	ldrb	r1, [r0]
     be4:	e3a02000 	mov	r2, #0	; 0x0
     be8:	e5c31000 	strb	r1, [r3]
     bec:	e5c02000 	strb	r2, [r0]
     bf0:	e5cc2000 	strb	r2, [ip]
     bf4:	e59f0adc 	ldr	r0, [pc, #2780]	; 16d8 <.text+0x16d8>
     bf8:	e5d01000 	ldrb	r1, [r0]
     bfc:	e20130ff 	and	r3, r1, #255	; 0xff
     c00:	e353003b 	cmp	r3, #59	; 0x3b
     c04:	859f3ad0 	ldrhi	r3, [pc, #2768]	; 16dc <.text+0x16dc>
     c08:	83a02002 	movhi	r2, #2	; 0x2
     c0c:	85c32000 	strhib	r2, [r3]
     c10:	8a000005 	bhi	c2c <periodic_task_fbw+0x9c>
     c14:	e353001d 	cmp	r3, #29	; 0x1d
     c18:	859f3abc 	ldrhi	r3, [pc, #2748]	; 16dc <.text+0x16dc>
     c1c:	83a02001 	movhi	r2, #1	; 0x1
     c20:	85c32000 	strhib	r2, [r3]
     c24:	e2813001 	add	r3, r1, #1	; 0x1
     c28:	e5c03000 	strb	r3, [r0]
     c2c:	e59f5aac 	ldr	r5, [pc, #2732]	; 16e0 <.text+0x16e0>
     c30:	e5d53000 	ldrb	r3, [r5]
     c34:	e3530000 	cmp	r3, #0	; 0x0
     c38:	1a000004 	bne	c50 <periodic_task_fbw+0xc0>
     c3c:	e59f3a98 	ldr	r3, [pc, #2712]	; 16dc <.text+0x16dc>
     c40:	e5d33000 	ldrb	r3, [r3]
     c44:	e3530002 	cmp	r3, #2	; 0x2
     c48:	02433001 	subeq	r3, r3, #1	; 0x1
     c4c:	05c53000 	streqb	r3, [r5]
     c50:	e59f2a8c 	ldr	r2, [pc, #2700]	; 16e4 <.text+0x16e4>
     c54:	e5d23000 	ldrb	r3, [r2]
     c58:	e353001d 	cmp	r3, #29	; 0x1d
     c5c:	859f3a84 	ldrhi	r3, [pc, #2692]	; 16e8 <.text+0x16e8>
     c60:	92833001 	addls	r3, r3, #1	; 0x1
     c64:	83a02000 	movhi	r2, #0	; 0x0
     c68:	85c32000 	strhib	r2, [r3]
     c6c:	95c23000 	strlsb	r3, [r2]
     c70:	e5d53000 	ldrb	r3, [r5]
     c74:	e3530001 	cmp	r3, #1	; 0x1
     c78:	1a00000e 	bne	cb8 <periodic_task_fbw+0x128>
     c7c:	e59f3a64 	ldr	r3, [pc, #2660]	; 16e8 <.text+0x16e8>
     c80:	e5d31000 	ldrb	r1, [r3]
     c84:	e3510000 	cmp	r1, #0	; 0x0
     c88:	1a00000a 	bne	cb8 <periodic_task_fbw+0x128>
     c8c:	e3a03002 	mov	r3, #2	; 0x2
     c90:	e5c53000 	strb	r3, [r5]
     c94:	e1a00001 	mov	r0, r1
     c98:	e59f2a4c 	ldr	r2, [pc, #2636]	; 16ec <.text+0x16ec>
     c9c:	e1a01080 	mov	r1, r0, lsl #1
     ca0:	e59f3a48 	ldr	r3, [pc, #2632]	; 16f0 <.text+0x16f0>
     ca4:	e2800001 	add	r0, r0, #1	; 0x1
     ca8:	e19120b2 	ldrh	r2, [r1, r2]
     cac:	e3500003 	cmp	r0, #3	; 0x3
     cb0:	e18120b3 	strh	r2, [r1, r3]
     cb4:	dafffff7 	ble	c98 <periodic_task_fbw+0x108>
     cb8:	e59f8a34 	ldr	r8, [pc, #2612]	; 16f4 <.text+0x16f4>
     cbc:	e5d86000 	ldrb	r6, [r8]
     cc0:	e3560000 	cmp	r6, #0	; 0x0
     cc4:	1a00009b 	bne	f38 <periodic_task_fbw+0x3a8>
     cc8:	e59f2a28 	ldr	r2, [pc, #2600]	; 16f8 <.text+0x16f8>
     ccc:	e5d23000 	ldrb	r3, [r2]
     cd0:	e2833001 	add	r3, r3, #1	; 0x1
     cd4:	e5c23000 	strb	r3, [r2]
     cd8:	e59f7a1c 	ldr	r7, [pc, #2588]	; 16fc <.text+0x16fc>
     cdc:	e5d23000 	ldrb	r3, [r2]
     ce0:	e353003b 	cmp	r3, #59	; 0x3b
     ce4:	e1d730b0 	ldrh	r3, [r7]
     ce8:	e2833001 	add	r3, r3, #1	; 0x1
     cec:	e1c730b0 	strh	r3, [r7]
     cf0:	85c26000 	strhib	r6, [r2]
     cf4:	e1d730b0 	ldrh	r3, [r7]
     cf8:	e3530f4b 	cmp	r3, #300	; 0x12c
     cfc:	e5d23000 	ldrb	r3, [r2]
     d00:	21c760b0 	strcsh	r6, [r7]
     d04:	e3530000 	cmp	r3, #0	; 0x0
     d08:	1a000028 	bne	db0 <periodic_task_fbw+0x220>
     d0c:	e3a00010 	mov	r0, #16	; 0x10
     d10:	eb00117a 	bl	5300 <uart0_check_free_space>
     d14:	e31000ff 	tst	r0, #255	; 0xff
     d18:	0a00004f 	beq	e5c <periodic_task_fbw+0x2cc>
     d1c:	e59f59dc 	ldr	r5, [pc, #2524]	; 1700 <.text+0x1700>
     d20:	e3a0000b 	mov	r0, #11	; 0xb
     d24:	e5c56000 	strb	r6, [r5]
     d28:	eb001188 	bl	5350 <uart0_transmit>
     d2c:	e5d53000 	ldrb	r3, [r5]
     d30:	e2833005 	add	r3, r3, #5	; 0x5
     d34:	e3a00005 	mov	r0, #5	; 0x5
     d38:	e5c53000 	strb	r3, [r5]
     d3c:	eb001183 	bl	5350 <uart0_transmit>
     d40:	e5d53000 	ldrb	r3, [r5]
     d44:	e2833066 	add	r3, r3, #102	; 0x66
     d48:	e3a00066 	mov	r0, #102	; 0x66
     d4c:	e5c53000 	strb	r3, [r5]
     d50:	eb00117e 	bl	5350 <uart0_transmit>
     d54:	e5d53000 	ldrb	r3, [r5]
     d58:	e2833004 	add	r3, r3, #4	; 0x4
     d5c:	e3a00004 	mov	r0, #4	; 0x4
     d60:	e5c53000 	strb	r3, [r5]
     d64:	eb001179 	bl	5350 <uart0_transmit>
     d68:	e59f4980 	ldr	r4, [pc, #2432]	; 16f0 <.text+0x16f0>
     d6c:	e5d53000 	ldrb	r3, [r5]
     d70:	e7d40086 	ldrb	r0, [r4, r6, lsl #1]
     d74:	e0803003 	add	r3, r0, r3
     d78:	e5c53000 	strb	r3, [r5]
     d7c:	e2844001 	add	r4, r4, #1	; 0x1
     d80:	eb001172 	bl	5350 <uart0_transmit>
     d84:	e7d43086 	ldrb	r3, [r4, r6, lsl #1]
     d88:	e5d52000 	ldrb	r2, [r5]
     d8c:	e1a00003 	mov	r0, r3
     d90:	e0833002 	add	r3, r3, r2
     d94:	e5c53000 	strb	r3, [r5]
     d98:	eb00116c 	bl	5350 <uart0_transmit>
     d9c:	e2863001 	add	r3, r6, #1	; 0x1
     da0:	e20360ff 	and	r6, r3, #255	; 0xff
     da4:	e3560003 	cmp	r6, #3	; 0x3
     da8:	9affffee 	bls	d68 <periodic_task_fbw+0x1d8>
     dac:	ea000027 	b	e50 <periodic_task_fbw+0x2c0>
     db0:	e3530006 	cmp	r3, #6	; 0x6
     db4:	1a00002c 	bne	e6c <periodic_task_fbw+0x2dc>
     db8:	e3a0000a 	mov	r0, #10	; 0xa
     dbc:	eb00114f 	bl	5300 <uart0_check_free_space>
     dc0:	e31000ff 	tst	r0, #255	; 0xff
     dc4:	0a000024 	beq	e5c <periodic_task_fbw+0x2cc>
     dc8:	e59f4930 	ldr	r4, [pc, #2352]	; 1700 <.text+0x1700>
     dcc:	e3a00005 	mov	r0, #5	; 0x5
     dd0:	e5c46000 	strb	r6, [r4]
     dd4:	eb00115d 	bl	5350 <uart0_transmit>
     dd8:	e5d43000 	ldrb	r3, [r4]
     ddc:	e2833005 	add	r3, r3, #5	; 0x5
     de0:	e3a00005 	mov	r0, #5	; 0x5
     de4:	e5c43000 	strb	r3, [r4]
     de8:	eb001158 	bl	5350 <uart0_transmit>
     dec:	e5d43000 	ldrb	r3, [r4]
     df0:	e2833067 	add	r3, r3, #103	; 0x67
     df4:	e3a00067 	mov	r0, #103	; 0x67
     df8:	e5c43000 	strb	r3, [r4]
     dfc:	eb001153 	bl	5350 <uart0_transmit>
     e00:	e59f38d4 	ldr	r3, [pc, #2260]	; 16dc <.text+0x16dc>
     e04:	e5d42000 	ldrb	r2, [r4]
     e08:	e5d33000 	ldrb	r3, [r3]
     e0c:	e1a00003 	mov	r0, r3
     e10:	e0833002 	add	r3, r3, r2
     e14:	e5c43000 	strb	r3, [r4]
     e18:	eb00114c 	bl	5350 <uart0_transmit>
     e1c:	e5d53000 	ldrb	r3, [r5]
     e20:	e5d42000 	ldrb	r2, [r4]
     e24:	e1a00003 	mov	r0, r3
     e28:	e0833002 	add	r3, r3, r2
     e2c:	e5c43000 	strb	r3, [r4]
     e30:	eb001146 	bl	5350 <uart0_transmit>
     e34:	e59f38c8 	ldr	r3, [pc, #2248]	; 1704 <.text+0x1704>
     e38:	e5d42000 	ldrb	r2, [r4]
     e3c:	e5d33000 	ldrb	r3, [r3]
     e40:	e1a00003 	mov	r0, r3
     e44:	e0833002 	add	r3, r3, r2
     e48:	e5c43000 	strb	r3, [r4]
     e4c:	eb00113f 	bl	5350 <uart0_transmit>
     e50:	e3a000ff 	mov	r0, #255	; 0xff
     e54:	eb00113d 	bl	5350 <uart0_transmit>
     e58:	ea000003 	b	e6c <periodic_task_fbw+0x2dc>
     e5c:	e59f28a4 	ldr	r2, [pc, #2212]	; 1708 <.text+0x1708>
     e60:	e5d23000 	ldrb	r3, [r2]
     e64:	e2833001 	add	r3, r3, #1	; 0x1
     e68:	e5c23000 	strb	r3, [r2]
     e6c:	e1d730b0 	ldrh	r3, [r7]
     e70:	e353000c 	cmp	r3, #12	; 0xc
     e74:	1a00002f 	bne	f38 <periodic_task_fbw+0x3a8>
     e78:	e3a00012 	mov	r0, #18	; 0x12
     e7c:	eb00111f 	bl	5300 <uart0_check_free_space>
     e80:	e31000ff 	tst	r0, #255	; 0xff
     e84:	059f287c 	ldreq	r2, [pc, #2172]	; 1708 <.text+0x1708>
     e88:	05d23000 	ldreqb	r3, [r2]
     e8c:	02833001 	addeq	r3, r3, #1	; 0x1
     e90:	05c23000 	streqb	r3, [r2]
     e94:	0a000027 	beq	f38 <periodic_task_fbw+0x3a8>
     e98:	e59f5860 	ldr	r5, [pc, #2144]	; 1700 <.text+0x1700>
     e9c:	e3a04000 	mov	r4, #0	; 0x0
     ea0:	e3a0000d 	mov	r0, #13	; 0xd
     ea4:	e5c54000 	strb	r4, [r5]
     ea8:	eb001128 	bl	5350 <uart0_transmit>
     eac:	e5d53000 	ldrb	r3, [r5]
     eb0:	e2833005 	add	r3, r3, #5	; 0x5
     eb4:	e3a00005 	mov	r0, #5	; 0x5
     eb8:	e5c53000 	strb	r3, [r5]
     ebc:	eb001123 	bl	5350 <uart0_transmit>
     ec0:	e5d53000 	ldrb	r3, [r5]
     ec4:	e2833069 	add	r3, r3, #105	; 0x69
     ec8:	e3a00069 	mov	r0, #105	; 0x69
     ecc:	e5c53000 	strb	r3, [r5]
     ed0:	eb00111e 	bl	5350 <uart0_transmit>
     ed4:	e5d53000 	ldrb	r3, [r5]
     ed8:	e2833005 	add	r3, r3, #5	; 0x5
     edc:	e3a00005 	mov	r0, #5	; 0x5
     ee0:	e5c53000 	strb	r3, [r5]
     ee4:	eb001119 	bl	5350 <uart0_transmit>
     ee8:	e1a06004 	mov	r6, r4
     eec:	e59f4818 	ldr	r4, [pc, #2072]	; 170c <.text+0x170c>
     ef0:	e5d53000 	ldrb	r3, [r5]
     ef4:	e7d40086 	ldrb	r0, [r4, r6, lsl #1]
     ef8:	e0803003 	add	r3, r0, r3
     efc:	e5c53000 	strb	r3, [r5]
     f00:	e2844001 	add	r4, r4, #1	; 0x1
     f04:	eb001111 	bl	5350 <uart0_transmit>
     f08:	e7d43086 	ldrb	r3, [r4, r6, lsl #1]
     f0c:	e5d52000 	ldrb	r2, [r5]
     f10:	e1a00003 	mov	r0, r3
     f14:	e0833002 	add	r3, r3, r2
     f18:	e5c53000 	strb	r3, [r5]
     f1c:	eb00110b 	bl	5350 <uart0_transmit>
     f20:	e2863001 	add	r3, r6, #1	; 0x1
     f24:	e20360ff 	and	r6, r3, #255	; 0xff
     f28:	e3560004 	cmp	r6, #4	; 0x4
     f2c:	9affffee 	bls	eec <periodic_task_fbw+0x35c>
     f30:	e3a000ff 	mov	r0, #255	; 0xff
     f34:	eb001105 	bl	5350 <uart0_transmit>
     f38:	e5d83000 	ldrb	r3, [r8]
     f3c:	e3530001 	cmp	r3, #1	; 0x1
     f40:	1a000108 	bne	1368 <STACK_SIZE+0x368>
     f44:	e59f27c4 	ldr	r2, [pc, #1988]	; 1710 <.text+0x1710>
     f48:	e5d23000 	ldrb	r3, [r2]
     f4c:	e2833001 	add	r3, r3, #1	; 0x1
     f50:	e5c23000 	strb	r3, [r2]
     f54:	e5d23000 	ldrb	r3, [r2]
     f58:	e59f77b4 	ldr	r7, [pc, #1972]	; 1714 <.text+0x1714>
     f5c:	e353001d 	cmp	r3, #29	; 0x1d
     f60:	83a03000 	movhi	r3, #0	; 0x0
     f64:	85c23000 	strhib	r3, [r2]
     f68:	e5d73000 	ldrb	r3, [r7]
     f6c:	e2833001 	add	r3, r3, #1	; 0x1
     f70:	e5c73000 	strb	r3, [r7]
     f74:	e5d73000 	ldrb	r3, [r7]
     f78:	e59f8798 	ldr	r8, [pc, #1944]	; 1718 <.text+0x1718>
     f7c:	e353003b 	cmp	r3, #59	; 0x3b
     f80:	83a03000 	movhi	r3, #0	; 0x0
     f84:	85c73000 	strhib	r3, [r7]
     f88:	e1d830b0 	ldrh	r3, [r8]
     f8c:	e2833001 	add	r3, r3, #1	; 0x1
     f90:	e1c830b0 	strh	r3, [r8]
     f94:	e1d830b0 	ldrh	r3, [r8]
     f98:	e5d24000 	ldrb	r4, [r2]
     f9c:	e3530f4b 	cmp	r3, #300	; 0x12c
     fa0:	23a03000 	movcs	r3, #0	; 0x0
     fa4:	21c830b0 	strcsh	r3, [r8]
     fa8:	e3540000 	cmp	r4, #0	; 0x0
     fac:	1a000029 	bne	1058 <STACK_SIZE+0x58>
     fb0:	e3a00018 	mov	r0, #24	; 0x18
     fb4:	eb0010d1 	bl	5300 <uart0_check_free_space>
     fb8:	e31000ff 	tst	r0, #255	; 0xff
     fbc:	0a000081 	beq	11c8 <STACK_SIZE+0x1c8>
     fc0:	e59f5738 	ldr	r5, [pc, #1848]	; 1700 <.text+0x1700>
     fc4:	e3a00013 	mov	r0, #19	; 0x13
     fc8:	e5c54000 	strb	r4, [r5]
     fcc:	eb0010df 	bl	5350 <uart0_transmit>
     fd0:	e5d53000 	ldrb	r3, [r5]
     fd4:	e2833005 	add	r3, r3, #5	; 0x5
     fd8:	e3a00005 	mov	r0, #5	; 0x5
     fdc:	e5c53000 	strb	r3, [r5]
     fe0:	eb0010da 	bl	5350 <uart0_transmit>
     fe4:	e5d53000 	ldrb	r3, [r5]
     fe8:	e2833064 	add	r3, r3, #100	; 0x64
     fec:	e3a00064 	mov	r0, #100	; 0x64
     ff0:	e5c53000 	strb	r3, [r5]
     ff4:	eb0010d5 	bl	5350 <uart0_transmit>
     ff8:	e5d53000 	ldrb	r3, [r5]
     ffc:	e2833008 	add	r3, r3, #8	; 0x8
    1000:	e3a00008 	mov	r0, #8	; 0x8
    1004:	e5c53000 	strb	r3, [r5]
    1008:	eb0010d0 	bl	5350 <uart0_transmit>
    100c:	e1a06004 	mov	r6, r4
    1010:	e59f4704 	ldr	r4, [pc, #1796]	; 171c <.text+0x171c>
    1014:	e5d53000 	ldrb	r3, [r5]
    1018:	e7d40086 	ldrb	r0, [r4, r6, lsl #1]
    101c:	e0803003 	add	r3, r0, r3
    1020:	e5c53000 	strb	r3, [r5]
    1024:	e2844001 	add	r4, r4, #1	; 0x1
    1028:	eb0010c8 	bl	5350 <uart0_transmit>
    102c:	e7d43086 	ldrb	r3, [r4, r6, lsl #1]
    1030:	e5d52000 	ldrb	r2, [r5]
    1034:	e1a00003 	mov	r0, r3
    1038:	e0833002 	add	r3, r3, r2
    103c:	e5c53000 	strb	r3, [r5]
    1040:	eb0010c2 	bl	5350 <uart0_transmit>
    1044:	e2863001 	add	r3, r6, #1	; 0x1
    1048:	e20360ff 	and	r6, r3, #255	; 0xff
    104c:	e3560007 	cmp	r6, #7	; 0x7
    1050:	9affffee 	bls	1010 <STACK_SIZE+0x10>
    1054:	ea000058 	b	11bc <STACK_SIZE+0x1bc>
    1058:	e3540006 	cmp	r4, #6	; 0x6
    105c:	1a00002a 	bne	110c <STACK_SIZE+0x10c>
    1060:	e3a00018 	mov	r0, #24	; 0x18
    1064:	eb0010a5 	bl	5300 <uart0_check_free_space>
    1068:	e31000ff 	tst	r0, #255	; 0xff
    106c:	0a000055 	beq	11c8 <STACK_SIZE+0x1c8>
    1070:	e59f5688 	ldr	r5, [pc, #1672]	; 1700 <.text+0x1700>
    1074:	e2444006 	sub	r4, r4, #6	; 0x6
    1078:	e3a00013 	mov	r0, #19	; 0x13
    107c:	e5c54000 	strb	r4, [r5]
    1080:	eb0010b2 	bl	5350 <uart0_transmit>
    1084:	e5d53000 	ldrb	r3, [r5]
    1088:	e2833005 	add	r3, r3, #5	; 0x5
    108c:	e3a00005 	mov	r0, #5	; 0x5
    1090:	e5c53000 	strb	r3, [r5]
    1094:	eb0010ad 	bl	5350 <uart0_transmit>
    1098:	e5d53000 	ldrb	r3, [r5]
    109c:	e2833065 	add	r3, r3, #101	; 0x65
    10a0:	e3a00065 	mov	r0, #101	; 0x65
    10a4:	e5c53000 	strb	r3, [r5]
    10a8:	eb0010a8 	bl	5350 <uart0_transmit>
    10ac:	e5d53000 	ldrb	r3, [r5]
    10b0:	e2833008 	add	r3, r3, #8	; 0x8
    10b4:	e3a00008 	mov	r0, #8	; 0x8
    10b8:	e5c53000 	strb	r3, [r5]
    10bc:	eb0010a3 	bl	5350 <uart0_transmit>
    10c0:	e1a06004 	mov	r6, r4
    10c4:	e59f4654 	ldr	r4, [pc, #1620]	; 1720 <.text+0x1720>
    10c8:	e5d53000 	ldrb	r3, [r5]
    10cc:	e7d40086 	ldrb	r0, [r4, r6, lsl #1]
    10d0:	e0803003 	add	r3, r0, r3
    10d4:	e5c53000 	strb	r3, [r5]
    10d8:	e2844001 	add	r4, r4, #1	; 0x1
    10dc:	eb00109b 	bl	5350 <uart0_transmit>
    10e0:	e7d43086 	ldrb	r3, [r4, r6, lsl #1]
    10e4:	e5d52000 	ldrb	r2, [r5]
    10e8:	e1a00003 	mov	r0, r3
    10ec:	e0833002 	add	r3, r3, r2
    10f0:	e5c53000 	strb	r3, [r5]
    10f4:	eb001095 	bl	5350 <uart0_transmit>
    10f8:	e2863001 	add	r3, r6, #1	; 0x1
    10fc:	e20360ff 	and	r6, r3, #255	; 0xff
    1100:	e3560007 	cmp	r6, #7	; 0x7
    1104:	9affffee 	bls	10c4 <STACK_SIZE+0xc4>
    1108:	ea00002b 	b	11bc <STACK_SIZE+0x1bc>
    110c:	e354000c 	cmp	r4, #12	; 0xc
    1110:	1a000030 	bne	11d8 <STACK_SIZE+0x1d8>
    1114:	e3a00010 	mov	r0, #16	; 0x10
    1118:	eb001078 	bl	5300 <uart0_check_free_space>
    111c:	e31000ff 	tst	r0, #255	; 0xff
    1120:	0a000028 	beq	11c8 <STACK_SIZE+0x1c8>
    1124:	e59f55d4 	ldr	r5, [pc, #1492]	; 1700 <.text+0x1700>
    1128:	e244400c 	sub	r4, r4, #12	; 0xc
    112c:	e3a0000b 	mov	r0, #11	; 0xb
    1130:	e5c54000 	strb	r4, [r5]
    1134:	eb001085 	bl	5350 <uart0_transmit>
    1138:	e5d53000 	ldrb	r3, [r5]
    113c:	e2833005 	add	r3, r3, #5	; 0x5
    1140:	e3a00005 	mov	r0, #5	; 0x5
    1144:	e5c53000 	strb	r3, [r5]
    1148:	eb001080 	bl	5350 <uart0_transmit>
    114c:	e5d53000 	ldrb	r3, [r5]
    1150:	e2833066 	add	r3, r3, #102	; 0x66
    1154:	e3a00066 	mov	r0, #102	; 0x66
    1158:	e5c53000 	strb	r3, [r5]
    115c:	eb00107b 	bl	5350 <uart0_transmit>
    1160:	e5d53000 	ldrb	r3, [r5]
    1164:	e2833004 	add	r3, r3, #4	; 0x4
    1168:	e3a00004 	mov	r0, #4	; 0x4
    116c:	e5c53000 	strb	r3, [r5]
    1170:	eb001076 	bl	5350 <uart0_transmit>
    1174:	e1a06004 	mov	r6, r4
    1178:	e59f4570 	ldr	r4, [pc, #1392]	; 16f0 <.text+0x16f0>
    117c:	e5d53000 	ldrb	r3, [r5]
    1180:	e7d40086 	ldrb	r0, [r4, r6, lsl #1]
    1184:	e0803003 	add	r3, r0, r3
    1188:	e5c53000 	strb	r3, [r5]
    118c:	e2844001 	add	r4, r4, #1	; 0x1
    1190:	eb00106e 	bl	5350 <uart0_transmit>
    1194:	e7d43086 	ldrb	r3, [r4, r6, lsl #1]
    1198:	e5d52000 	ldrb	r2, [r5]
    119c:	e1a00003 	mov	r0, r3
    11a0:	e0833002 	add	r3, r3, r2
    11a4:	e5c53000 	strb	r3, [r5]
    11a8:	eb001068 	bl	5350 <uart0_transmit>
    11ac:	e2863001 	add	r3, r6, #1	; 0x1
    11b0:	e20360ff 	and	r6, r3, #255	; 0xff
    11b4:	e3560003 	cmp	r6, #3	; 0x3
    11b8:	9affffee 	bls	1178 <STACK_SIZE+0x178>
    11bc:	e3a000ff 	mov	r0, #255	; 0xff
    11c0:	eb001062 	bl	5350 <uart0_transmit>
    11c4:	ea000003 	b	11d8 <STACK_SIZE+0x1d8>
    11c8:	e59f2538 	ldr	r2, [pc, #1336]	; 1708 <.text+0x1708>
    11cc:	e5d23000 	ldrb	r3, [r2]
    11d0:	e2833001 	add	r3, r3, #1	; 0x1
    11d4:	e5c23000 	strb	r3, [r2]
    11d8:	e5d73000 	ldrb	r3, [r7]
    11dc:	e3530012 	cmp	r3, #18	; 0x12
    11e0:	1a00002d 	bne	129c <STACK_SIZE+0x29c>
    11e4:	e3a0000a 	mov	r0, #10	; 0xa
    11e8:	eb001044 	bl	5300 <uart0_check_free_space>
    11ec:	e31000ff 	tst	r0, #255	; 0xff
    11f0:	059f2510 	ldreq	r2, [pc, #1296]	; 1708 <.text+0x1708>
    11f4:	05d23000 	ldreqb	r3, [r2]
    11f8:	02833001 	addeq	r3, r3, #1	; 0x1
    11fc:	05c23000 	streqb	r3, [r2]
    1200:	0a000025 	beq	129c <STACK_SIZE+0x29c>
    1204:	e59f44f4 	ldr	r4, [pc, #1268]	; 1700 <.text+0x1700>
    1208:	e3a03000 	mov	r3, #0	; 0x0
    120c:	e3a00005 	mov	r0, #5	; 0x5
    1210:	e5c43000 	strb	r3, [r4]
    1214:	eb00104d 	bl	5350 <uart0_transmit>
    1218:	e5d43000 	ldrb	r3, [r4]
    121c:	e2833005 	add	r3, r3, #5	; 0x5
    1220:	e3a00005 	mov	r0, #5	; 0x5
    1224:	e5c43000 	strb	r3, [r4]
    1228:	eb001048 	bl	5350 <uart0_transmit>
    122c:	e5d43000 	ldrb	r3, [r4]
    1230:	e2833067 	add	r3, r3, #103	; 0x67
    1234:	e3a00067 	mov	r0, #103	; 0x67
    1238:	e5c43000 	strb	r3, [r4]
    123c:	eb001043 	bl	5350 <uart0_transmit>
    1240:	e59f3494 	ldr	r3, [pc, #1172]	; 16dc <.text+0x16dc>
    1244:	e5d42000 	ldrb	r2, [r4]
    1248:	e5d33000 	ldrb	r3, [r3]
    124c:	e1a00003 	mov	r0, r3
    1250:	e0833002 	add	r3, r3, r2
    1254:	e5c43000 	strb	r3, [r4]
    1258:	eb00103c 	bl	5350 <uart0_transmit>
    125c:	e59f347c 	ldr	r3, [pc, #1148]	; 16e0 <.text+0x16e0>
    1260:	e5d42000 	ldrb	r2, [r4]
    1264:	e5d33000 	ldrb	r3, [r3]
    1268:	e1a00003 	mov	r0, r3
    126c:	e0833002 	add	r3, r3, r2
    1270:	e5c43000 	strb	r3, [r4]
    1274:	eb001035 	bl	5350 <uart0_transmit>
    1278:	e59f3484 	ldr	r3, [pc, #1156]	; 1704 <.text+0x1704>
    127c:	e5d42000 	ldrb	r2, [r4]
    1280:	e5d33000 	ldrb	r3, [r3]
    1284:	e1a00003 	mov	r0, r3
    1288:	e0833002 	add	r3, r3, r2
    128c:	e5c43000 	strb	r3, [r4]
    1290:	eb00102e 	bl	5350 <uart0_transmit>
    1294:	e3a000ff 	mov	r0, #255	; 0xff
    1298:	eb00102c 	bl	5350 <uart0_transmit>
    129c:	e1d830b0 	ldrh	r3, [r8]
    12a0:	e3530018 	cmp	r3, #24	; 0x18
    12a4:	1a00002f 	bne	1368 <STACK_SIZE+0x368>
    12a8:	e3a00012 	mov	r0, #18	; 0x12
    12ac:	eb001013 	bl	5300 <uart0_check_free_space>
    12b0:	e31000ff 	tst	r0, #255	; 0xff
    12b4:	059f244c 	ldreq	r2, [pc, #1100]	; 1708 <.text+0x1708>
    12b8:	05d23000 	ldreqb	r3, [r2]
    12bc:	02833001 	addeq	r3, r3, #1	; 0x1
    12c0:	05c23000 	streqb	r3, [r2]
    12c4:	0a000027 	beq	1368 <STACK_SIZE+0x368>
    12c8:	e59f5430 	ldr	r5, [pc, #1072]	; 1700 <.text+0x1700>
    12cc:	e3a04000 	mov	r4, #0	; 0x0
    12d0:	e3a0000d 	mov	r0, #13	; 0xd
    12d4:	e5c54000 	strb	r4, [r5]
    12d8:	eb00101c 	bl	5350 <uart0_transmit>
    12dc:	e5d53000 	ldrb	r3, [r5]
    12e0:	e2833005 	add	r3, r3, #5	; 0x5
    12e4:	e3a00005 	mov	r0, #5	; 0x5
    12e8:	e5c53000 	strb	r3, [r5]
    12ec:	eb001017 	bl	5350 <uart0_transmit>
    12f0:	e5d53000 	ldrb	r3, [r5]
    12f4:	e2833069 	add	r3, r3, #105	; 0x69
    12f8:	e3a00069 	mov	r0, #105	; 0x69
    12fc:	e5c53000 	strb	r3, [r5]
    1300:	eb001012 	bl	5350 <uart0_transmit>
    1304:	e5d53000 	ldrb	r3, [r5]
    1308:	e2833005 	add	r3, r3, #5	; 0x5
    130c:	e3a00005 	mov	r0, #5	; 0x5
    1310:	e5c53000 	strb	r3, [r5]
    1314:	eb00100d 	bl	5350 <uart0_transmit>
    1318:	e1a06004 	mov	r6, r4
    131c:	e59f43e8 	ldr	r4, [pc, #1000]	; 170c <.text+0x170c>
    1320:	e5d53000 	ldrb	r3, [r5]
    1324:	e7d40086 	ldrb	r0, [r4, r6, lsl #1]
    1328:	e0803003 	add	r3, r0, r3
    132c:	e5c53000 	strb	r3, [r5]
    1330:	e2844001 	add	r4, r4, #1	; 0x1
    1334:	eb001005 	bl	5350 <uart0_transmit>
    1338:	e7d43086 	ldrb	r3, [r4, r6, lsl #1]
    133c:	e5d52000 	ldrb	r2, [r5]
    1340:	e1a00003 	mov	r0, r3
    1344:	e0833002 	add	r3, r3, r2
    1348:	e5c53000 	strb	r3, [r5]
    134c:	eb000fff 	bl	5350 <uart0_transmit>
    1350:	e2863001 	add	r3, r6, #1	; 0x1
    1354:	e20360ff 	and	r6, r3, #255	; 0xff
    1358:	e3560004 	cmp	r6, #4	; 0x4
    135c:	9affffee 	bls	131c <STACK_SIZE+0x31c>
    1360:	e3a000ff 	mov	r0, #255	; 0xff
    1364:	eb000ff9 	bl	5350 <uart0_transmit>
    1368:	e5da3000 	ldrb	r3, [sl]
    136c:	e3530000 	cmp	r3, #0	; 0x0
    1370:	1a00000c 	bne	13a8 <STACK_SIZE+0x3a8>
    1374:	e59f33a8 	ldr	r3, [pc, #936]	; 1724 <.text+0x1724>
    1378:	e5d31043 	ldrb	r1, [r3, #67]
    137c:	e1d300b0 	ldrh	r0, [r3]
    1380:	eb00393c 	bl	f878 <____divsi3_from_arm>
    1384:	e0800100 	add	r0, r0, r0, lsl #2
    1388:	e1a00080 	mov	r0, r0, lsl #1
    138c:	eb00358e 	bl	e9cc <__floatsidf>
    1390:	e28f2e2f 	add	r2, pc, #752	; 0x2f0
    1394:	e892000c 	ldmia	r2, {r2, r3}
    1398:	eb0035a9 	bl	ea44 <__muldf3>
    139c:	eb003730 	bl	f064 <__fixunsdfsi>
    13a0:	e59f335c 	ldr	r3, [pc, #860]	; 1704 <.text+0x1704>
    13a4:	e5c30000 	strb	r0, [r3]
    13a8:	e59fa340 	ldr	sl, [pc, #832]	; 16f0 <.text+0x16f0>
    13ac:	e1da00f0 	ldrsh	r0, [sl]
    13b0:	eb0037f9 	bl	f39c <__floatsisf>
    13b4:	e59f336c 	ldr	r3, [pc, #876]	; 1728 <.text+0x1728>
    13b8:	e1a05000 	mov	r5, r0
    13bc:	e5d30000 	ldrb	r0, [r3]
    13c0:	eb0037f5 	bl	f39c <__floatsisf>
    13c4:	e59f1360 	ldr	r1, [pc, #864]	; 172c <.text+0x172c>
    13c8:	eb003780 	bl	f1d0 <__subsf3>
    13cc:	e59f335c 	ldr	r3, [pc, #860]	; 1730 <.text+0x1730>
    13d0:	e1a04000 	mov	r4, r0
    13d4:	e5d30000 	ldrb	r0, [r3]
    13d8:	eb0037ef 	bl	f39c <__floatsisf>
    13dc:	e1a01000 	mov	r1, r0
    13e0:	e1a00004 	mov	r0, r4
    13e4:	eb0037ff 	bl	f3e8 <__mulsf3>
    13e8:	e1a01000 	mov	r1, r0
    13ec:	e1a00005 	mov	r0, r5
    13f0:	eb003776 	bl	f1d0 <__subsf3>
    13f4:	e1a04000 	mov	r4, r0
    13f8:	eb00357e 	bl	e9f8 <__extendsfdf2>
    13fc:	e1a06001 	mov	r6, r1
    1400:	e1a05000 	mov	r5, r0
    1404:	e1a00004 	mov	r0, r4
    1408:	e3a01000 	mov	r1, #0	; 0x0
    140c:	eb0038c1 	bl	f718 <__gesf2>
    1410:	e3500000 	cmp	r0, #0	; 0x0
    1414:	c28f2f9d 	addgt	r2, pc, #628	; 0x274
    1418:	c892000c 	ldmgtia	r2, {r2, r3}
    141c:	c1a01006 	movgt	r1, r6
    1420:	c1a00005 	movgt	r0, r5
    1424:	d28f2f9b 	addle	r2, pc, #620	; 0x26c
    1428:	d892000c 	ldmleia	r2, {r2, r3}
    142c:	d1a01006 	movle	r1, r6
    1430:	d1a00005 	movle	r0, r5
    1434:	eb003582 	bl	ea44 <__muldf3>
    1438:	eb003726 	bl	f0d8 <__truncdfsf2>
    143c:	eb0038dc 	bl	f7b4 <__fixsfsi>
    1440:	e2800e4b 	add	r0, r0, #1200	; 0x4b0
    1444:	e59f32e8 	ldr	r3, [pc, #744]	; 1734 <.text+0x1734>
    1448:	e1a00800 	mov	r0, r0, lsl #16
    144c:	e1a00820 	mov	r0, r0, lsr #16
    1450:	e1500003 	cmp	r0, r3
    1454:	e59f72b0 	ldr	r7, [pc, #688]	; 170c <.text+0x170c>
    1458:	959f32d8 	ldrls	r3, [pc, #728]	; 1738 <.text+0x1738>
    145c:	9a000002 	bls	146c <STACK_SIZE+0x46c>
    1460:	e3500e7d 	cmp	r0, #2000	; 0x7d0
    1464:	31a03000 	movcc	r3, r0
    1468:	23a03e7d 	movcs	r3, #2000	; 0x7d0
    146c:	e1c730b6 	strh	r3, [r7, #6]
    1470:	e1d700b6 	ldrh	r0, [r7, #6]
    1474:	eb003554 	bl	e9cc <__floatsidf>
    1478:	e28f2e22 	add	r2, pc, #544	; 0x220
    147c:	e892000c 	ldmia	r2, {r2, r3}
    1480:	eb00356f 	bl	ea44 <__muldf3>
    1484:	e28f2f87 	add	r2, pc, #540	; 0x21c
    1488:	e892000c 	ldmia	r2, {r2, r3}
    148c:	eb00356c 	bl	ea44 <__muldf3>
    1490:	e28f2f86 	add	r2, pc, #536	; 0x218
    1494:	e892000c 	ldmia	r2, {r2, r3}
    1498:	eb003480 	bl	e6a0 <__adddf3>
    149c:	eb0036f0 	bl	f064 <__fixunsdfsi>
    14a0:	e1da30b4 	ldrh	r3, [sl, #4]
    14a4:	e1da20b2 	ldrh	r2, [sl, #2]
    14a8:	e1a04803 	mov	r4, r3, lsl #16
    14ac:	e59f8288 	ldr	r8, [pc, #648]	; 173c <.text+0x173c>
    14b0:	e1a06802 	mov	r6, r2, lsl #16
    14b4:	e1a03844 	mov	r3, r4, asr #16
    14b8:	e1c800b6 	strh	r0, [r8, #6]
    14bc:	e0830846 	add	r0, r3, r6, asr #16
    14c0:	eb0037b5 	bl	f39c <__floatsisf>
    14c4:	eb00354b 	bl	e9f8 <__extendsfdf2>
    14c8:	e28f2f7a 	add	r2, pc, #488	; 0x1e8
    14cc:	e892000c 	ldmia	r2, {r2, r3}
    14d0:	eb00355b 	bl	ea44 <__muldf3>
    14d4:	eb0036ff 	bl	f0d8 <__truncdfsf2>
    14d8:	eb0038b5 	bl	f7b4 <__fixsfsi>
    14dc:	e2800e5d 	add	r0, r0, #1488	; 0x5d0
    14e0:	e280000c 	add	r0, r0, #12	; 0xc
    14e4:	e1a00800 	mov	r0, r0, lsl #16
    14e8:	e1a00820 	mov	r0, r0, lsr #16
    14ec:	e3500ffa 	cmp	r0, #1000	; 0x3e8
    14f0:	33a02ffa 	movcc	r2, #1000	; 0x3e8
    14f4:	3a000002 	bcc	1504 <STACK_SIZE+0x504>
    14f8:	e3500e7d 	cmp	r0, #2000	; 0x7d0
    14fc:	31a02000 	movcc	r2, r0
    1500:	23a02e7d 	movcs	r2, #2000	; 0x7d0
    1504:	e59f3200 	ldr	r3, [pc, #512]	; 170c <.text+0x170c>
    1508:	e1c320b0 	strh	r2, [r3]
    150c:	e1d700b0 	ldrh	r0, [r7]
    1510:	eb00352d 	bl	e9cc <__floatsidf>
    1514:	e28f2f61 	add	r2, pc, #388	; 0x184
    1518:	e892000c 	ldmia	r2, {r2, r3}
    151c:	eb003548 	bl	ea44 <__muldf3>
    1520:	e28f2d06 	add	r2, pc, #384	; 0x180
    1524:	e892000c 	ldmia	r2, {r2, r3}
    1528:	eb003545 	bl	ea44 <__muldf3>
    152c:	e28f2f5f 	add	r2, pc, #380	; 0x17c
    1530:	e892000c 	ldmia	r2, {r2, r3}
    1534:	eb003459 	bl	e6a0 <__adddf3>
    1538:	eb0036c9 	bl	f064 <__fixunsdfsi>
    153c:	e1a03844 	mov	r3, r4, asr #16
    1540:	e1c800b0 	strh	r0, [r8]
    1544:	e0630846 	rsb	r0, r3, r6, asr #16
    1548:	eb003793 	bl	f39c <__floatsisf>
    154c:	eb003529 	bl	e9f8 <__extendsfdf2>
    1550:	e28f2e16 	add	r2, pc, #352	; 0x160
    1554:	e892000c 	ldmia	r2, {r2, r3}
    1558:	eb003539 	bl	ea44 <__muldf3>
    155c:	eb0036dd 	bl	f0d8 <__truncdfsf2>
    1560:	eb003893 	bl	f7b4 <__fixsfsi>
    1564:	e2800e5d 	add	r0, r0, #1488	; 0x5d0
    1568:	e280000c 	add	r0, r0, #12	; 0xc
    156c:	e1a00800 	mov	r0, r0, lsl #16
    1570:	e1a00820 	mov	r0, r0, lsr #16
    1574:	e3500ffa 	cmp	r0, #1000	; 0x3e8
    1578:	33a02ffa 	movcc	r2, #1000	; 0x3e8
    157c:	3a000002 	bcc	158c <STACK_SIZE+0x58c>
    1580:	e3500e7d 	cmp	r0, #2000	; 0x7d0
    1584:	31a02000 	movcc	r2, r0
    1588:	23a02e7d 	movcs	r2, #2000	; 0x7d0
    158c:	e59f3178 	ldr	r3, [pc, #376]	; 170c <.text+0x170c>
    1590:	e1c320b2 	strh	r2, [r3, #2]
    1594:	e1d700b2 	ldrh	r0, [r7, #2]
    1598:	eb00350b 	bl	e9cc <__floatsidf>
    159c:	e28f20fc 	add	r2, pc, #252	; 0xfc
    15a0:	e892000c 	ldmia	r2, {r2, r3}
    15a4:	eb003526 	bl	ea44 <__muldf3>
    15a8:	e28f20f8 	add	r2, pc, #248	; 0xf8
    15ac:	e892000c 	ldmia	r2, {r2, r3}
    15b0:	eb003523 	bl	ea44 <__muldf3>
    15b4:	e28f20f4 	add	r2, pc, #244	; 0xf4
    15b8:	e892000c 	ldmia	r2, {r2, r3}
    15bc:	eb003437 	bl	e6a0 <__adddf3>
    15c0:	eb0036a7 	bl	f064 <__fixunsdfsi>
    15c4:	e1c800b2 	strh	r0, [r8, #2]
    15c8:	e1da00f6 	ldrsh	r0, [sl, #6]
    15cc:	eb0034fe 	bl	e9cc <__floatsidf>
    15d0:	e1a05001 	mov	r5, r1
    15d4:	e1a04000 	mov	r4, r0
    15d8:	e1a00846 	mov	r0, r6, asr #16
    15dc:	eb0034fa 	bl	e9cc <__floatsidf>
    15e0:	e28f20d8 	add	r2, pc, #216	; 0xd8
    15e4:	e892000c 	ldmia	r2, {r2, r3}
    15e8:	eb003515 	bl	ea44 <__muldf3>
    15ec:	e1a03001 	mov	r3, r1
    15f0:	e1a02000 	mov	r2, r0
    15f4:	e1a01005 	mov	r1, r5
    15f8:	e1a00004 	mov	r0, r4
    15fc:	eb003427 	bl	e6a0 <__adddf3>
    1600:	eb0036b4 	bl	f0d8 <__truncdfsf2>
    1604:	eb0034fb 	bl	e9f8 <__extendsfdf2>
    1608:	e28f20a8 	add	r2, pc, #168	; 0xa8
    160c:	e892000c 	ldmia	r2, {r2, r3}
    1610:	eb00350b 	bl	ea44 <__muldf3>
    1614:	eb0036af 	bl	f0d8 <__truncdfsf2>
    1618:	eb003865 	bl	f7b4 <__fixsfsi>
    161c:	e2800e5d 	add	r0, r0, #1488	; 0x5d0
    1620:	e280000c 	add	r0, r0, #12	; 0xc
    1624:	e1a00800 	mov	r0, r0, lsl #16
    1628:	e1a00820 	mov	r0, r0, lsr #16
    162c:	e3500ffa 	cmp	r0, #1000	; 0x3e8
    1630:	33a02ffa 	movcc	r2, #1000	; 0x3e8
    1634:	3a000002 	bcc	1644 <STACK_SIZE+0x644>
    1638:	e3500e7d 	cmp	r0, #2000	; 0x7d0
    163c:	31a02000 	movcc	r2, r0
    1640:	23a02e7d 	movcs	r2, #2000	; 0x7d0
    1644:	e59f30c0 	ldr	r3, [pc, #192]	; 170c <.text+0x170c>
    1648:	e1c320b8 	strh	r2, [r3, #8]
    164c:	e1d700b8 	ldrh	r0, [r7, #8]
    1650:	eb0034dd 	bl	e9cc <__floatsidf>
    1654:	e28f2044 	add	r2, pc, #68	; 0x44
    1658:	e892000c 	ldmia	r2, {r2, r3}
    165c:	eb0034f8 	bl	ea44 <__muldf3>
    1660:	e28f2040 	add	r2, pc, #64	; 0x40
    1664:	e892000c 	ldmia	r2, {r2, r3}
    1668:	eb0034f5 	bl	ea44 <__muldf3>
    166c:	e28f203c 	add	r2, pc, #60	; 0x3c
    1670:	e892000c 	ldmia	r2, {r2, r3}
    1674:	eb003409 	bl	e6a0 <__adddf3>
    1678:	eb003679 	bl	f064 <__fixunsdfsi>
    167c:	e1c800b8 	strh	r0, [r8, #8]
    1680:	e89d6df0 	ldmia	sp, {r4, r5, r6, r7, r8, sl, fp, sp, lr}
    1684:	e12fff1e 	bx	lr
    1688:	3f924ccc 	swicc	0x00924ccc
    168c:	cccccccd 	stcgtl	12, cr12, [ip], {205}
    1690:	3fb55555 	swicc	0x00b55555
    1694:	55554bf3 	ldrplb	r4, [r5, #-3059]
    1698:	3f855555 	swicc	0x00855555
    169c:	5555a065 	ldrplb	sl, [r5, #-101]
    16a0:	3eb0c6f7 	mrccc	6, 5, ip, cr0, cr7, {7}
    16a4:	a0b5ed8d 	adcges	lr, r5, sp, lsl #27
    16a8:	416c9c38 	cmnmi	ip, r8, lsr ip
    16ac:	00000000 	andeq	r0, r0, r0
    16b0:	3fe00000 	swicc	0x00e00000
    16b4:	00000000 	andeq	r0, r0, r0
    16b8:	3faaaaaa 	swicc	0x00aaaaaa
    16bc:	aaaa97e7 	bge	feaa7660 <_end+0xbeaa5360>
	...
    16c8:	40000495 	mulmi	r0, r5, r4
    16cc:	40000496 	mulmi	r0, r6, r4
    16d0:	40000a46 	andmi	r0, r0, r6, asr #20
    16d4:	40000a78 	andmi	r0, r0, r8, ror sl
    16d8:	40000a45 	andmi	r0, r0, r5, asr #20
    16dc:	40000a44 	andmi	r0, r0, r4, asr #20
    16e0:	400007f1 	strmid	r0, [r0], -r1
    16e4:	40000e2a 	andmi	r0, r0, sl, lsr #28
    16e8:	40000e29 	andmi	r0, r0, r9, lsr #28
    16ec:	0000f912 	andeq	pc, r0, r2, lsl r9
    16f0:	40000a1e 	andmi	r0, r0, lr, lsl sl
    16f4:	400004e9 	andmi	r0, r0, r9, ror #9
    16f8:	40000497 	mulmi	r0, r7, r4
    16fc:	40000498 	mulmi	r0, r8, r4
    1700:	40000d25 	andmi	r0, r0, r5, lsr #26
    1704:	400007f0 	strmid	r0, [r0], -r0
    1708:	40000a8b 	andmi	r0, r0, fp, lsl #21
    170c:	40000a38 	andmi	r0, r0, r8, lsr sl
    1710:	4000049a 	mulmi	r0, sl, r4
    1714:	4000049b 	mulmi	r0, fp, r4
    1718:	4000049c 	mulmi	r0, ip, r4
    171c:	40000a7a 	andmi	r0, r0, sl, ror sl
    1720:	40000a48 	andmi	r0, r0, r8, asr #20
    1724:	400007ac 	andmi	r0, r0, ip, lsr #15
    1728:	40000a1c 	andmi	r0, r0, ip, lsl sl
    172c:	42dc0000 	sbcmis	r0, ip, #0	; 0x0
    1730:	40000800 	andmi	r0, r0, r0, lsl #16
    1734:	0000044b 	andeq	r0, r0, fp, asr #8
    1738:	0000044c 	andeq	r0, r0, ip, asr #8
    173c:	40000a28 	andmi	r0, r0, r8, lsr #20

00001740 <telecommand_task>:
    1740:	e1a0c00d 	mov	ip, sp
    1744:	e92dd870 	stmdb	sp!, {r4, r5, r6, fp, ip, lr, pc}
    1748:	e59f6424 	ldr	r6, [pc, #1060]	; 1b74 <.text+0x1b74>
    174c:	e5963000 	ldr	r3, [r6]
    1750:	e5d33011 	ldrb	r3, [r3, #17]
    1754:	e3a0e000 	mov	lr, #0	; 0x0
    1758:	e3130002 	tst	r3, #2	; 0x2
    175c:	e24cb004 	sub	fp, ip, #4	; 0x4
    1760:	e1a0200e 	mov	r2, lr
    1764:	0a000004 	beq	177c <telecommand_task+0x3c>
    1768:	e59f3408 	ldr	r3, [pc, #1032]	; 1b78 <.text+0x1b78>
    176c:	e5d33000 	ldrb	r3, [r3]
    1770:	e3530001 	cmp	r3, #1	; 0x1
    1774:	83a02000 	movhi	r2, #0	; 0x0
    1778:	93a02001 	movls	r2, #1	; 0x1
    177c:	e59fc3f4 	ldr	ip, [pc, #1012]	; 1b78 <.text+0x1b78>
    1780:	e5dc3000 	ldrb	r3, [ip]
    1784:	e3530003 	cmp	r3, #3	; 0x3
    1788:	13530000 	cmpne	r3, #0	; 0x0
    178c:	0a000011 	beq	17d8 <telecommand_task+0x98>
    1790:	e3530001 	cmp	r3, #1	; 0x1
    1794:	0a00000f 	beq	17d8 <telecommand_task+0x98>
    1798:	e3530004 	cmp	r3, #4	; 0x4
    179c:	0a00000d 	beq	17d8 <telecommand_task+0x98>
    17a0:	e59f33d4 	ldr	r3, [pc, #980]	; 1b7c <.text+0x1b7c>
    17a4:	e5d33000 	ldrb	r3, [r3]
    17a8:	e3530000 	cmp	r3, #0	; 0x0
    17ac:	0a000009 	beq	17d8 <telecommand_task+0x98>
    17b0:	e59f33c8 	ldr	r3, [pc, #968]	; 1b80 <.text+0x1b80>
    17b4:	e5d33000 	ldrb	r3, [r3]
    17b8:	e3530000 	cmp	r3, #0	; 0x0
    17bc:	13a03003 	movne	r3, #3	; 0x3
    17c0:	15cc3000 	strneb	r3, [ip]
    17c4:	13a0e001 	movne	lr, #1	; 0x1
    17c8:	e3520000 	cmp	r2, #0	; 0x0
    17cc:	13a03003 	movne	r3, #3	; 0x3
    17d0:	15cc3000 	strneb	r3, [ip]
    17d4:	13a0e001 	movne	lr, #1	; 0x1
    17d8:	e5960000 	ldr	r0, [r6]
    17dc:	e5d03011 	ldrb	r3, [r0, #17]
    17e0:	e3130010 	tst	r3, #16	; 0x10
    17e4:	e3a02000 	mov	r2, #0	; 0x0
    17e8:	0a000018 	beq	1850 <telecommand_task+0x110>
    17ec:	e5dc3000 	ldrb	r3, [ip]
    17f0:	e2433003 	sub	r3, r3, #3	; 0x3
    17f4:	e3530001 	cmp	r3, #1	; 0x1
    17f8:	8a000005 	bhi	1814 <telecommand_task+0xd4>
    17fc:	e59f1380 	ldr	r1, [pc, #896]	; 1b84 <.text+0x1b84>
    1800:	e5d13000 	ldrb	r3, [r1]
    1804:	e1530002 	cmp	r3, r2
    1808:	01a03002 	moveq	r3, r2
    180c:	0a00000d 	beq	1848 <telecommand_task+0x108>
    1810:	e5c12000 	strb	r2, [r1]
    1814:	e1d030fe 	ldrsh	r3, [r0, #14]
    1818:	e3530d4b 	cmp	r3, #4800	; 0x12c0
    181c:	c3a02002 	movgt	r2, #2	; 0x2
    1820:	ca000002 	bgt	1830 <telecommand_task+0xf0>
    1824:	e3730d4b 	cmn	r3, #4800	; 0x12c0
    1828:	d3a02000 	movle	r2, #0	; 0x0
    182c:	c3a02001 	movgt	r2, #1	; 0x1
    1830:	e5dc3000 	ldrb	r3, [ip]
    1834:	e1530002 	cmp	r3, r2
    1838:	13a03001 	movne	r3, #1	; 0x1
    183c:	03a03000 	moveq	r3, #0	; 0x0
    1840:	15cc2000 	strneb	r2, [ip]
    1844:	e20330ff 	and	r3, r3, #255	; 0xff
    1848:	e20320ff 	and	r2, r3, #255	; 0xff
    184c:	e18ee002 	orr	lr, lr, r2
    1850:	e5963000 	ldr	r3, [r6]
    1854:	e59f532c 	ldr	r5, [pc, #812]	; 1b88 <.text+0x1b88>
    1858:	e5d33011 	ldrb	r3, [r3, #17]
    185c:	e5d52000 	ldrb	r2, [r5]
    1860:	e20310ff 	and	r1, r3, #255	; 0xff
    1864:	e1520001 	cmp	r2, r1
    1868:	03a02000 	moveq	r2, #0	; 0x0
    186c:	0a000004 	beq	1884 <telecommand_task+0x144>
    1870:	e202200f 	and	r2, r2, #15	; 0xf
    1874:	e203300f 	and	r3, r3, #15	; 0xf
    1878:	e5c51000 	strb	r1, [r5]
    187c:	e0522003 	subs	r2, r2, r3
    1880:	13a02001 	movne	r2, #1	; 0x1
    1884:	e19ee002 	orrs	lr, lr, r2
    1888:	0a000048 	beq	19b0 <telecommand_task+0x270>
    188c:	e3a0000e 	mov	r0, #14	; 0xe
    1890:	eb000e9a 	bl	5300 <uart0_check_free_space>
    1894:	e31000ff 	tst	r0, #255	; 0xff
    1898:	059f22ec 	ldreq	r2, [pc, #748]	; 1b8c <.text+0x1b8c>
    189c:	05d23000 	ldreqb	r3, [r2]
    18a0:	02833001 	addeq	r3, r3, #1	; 0x1
    18a4:	05c23000 	streqb	r3, [r2]
    18a8:	0a000040 	beq	19b0 <telecommand_task+0x270>
    18ac:	e59f42dc 	ldr	r4, [pc, #732]	; 1b90 <.text+0x1b90>
    18b0:	e3a03000 	mov	r3, #0	; 0x0
    18b4:	e3a00009 	mov	r0, #9	; 0x9
    18b8:	e5c43000 	strb	r3, [r4]
    18bc:	eb000ea3 	bl	5350 <uart0_transmit>
    18c0:	e5d43000 	ldrb	r3, [r4]
    18c4:	e2833005 	add	r3, r3, #5	; 0x5
    18c8:	e3a00005 	mov	r0, #5	; 0x5
    18cc:	e5c43000 	strb	r3, [r4]
    18d0:	eb000e9e 	bl	5350 <uart0_transmit>
    18d4:	e5d43000 	ldrb	r3, [r4]
    18d8:	e283300b 	add	r3, r3, #11	; 0xb
    18dc:	e3a0000b 	mov	r0, #11	; 0xb
    18e0:	e5c43000 	strb	r3, [r4]
    18e4:	eb000e99 	bl	5350 <uart0_transmit>
    18e8:	e59f3288 	ldr	r3, [pc, #648]	; 1b78 <.text+0x1b78>
    18ec:	e5d42000 	ldrb	r2, [r4]
    18f0:	e5d33000 	ldrb	r3, [r3]
    18f4:	e1a00003 	mov	r0, r3
    18f8:	e0833002 	add	r3, r3, r2
    18fc:	e5c43000 	strb	r3, [r4]
    1900:	eb000e92 	bl	5350 <uart0_transmit>
    1904:	e59f3288 	ldr	r3, [pc, #648]	; 1b94 <.text+0x1b94>
    1908:	e5d42000 	ldrb	r2, [r4]
    190c:	e5d33000 	ldrb	r3, [r3]
    1910:	e1a00003 	mov	r0, r3
    1914:	e0833002 	add	r3, r3, r2
    1918:	e5c43000 	strb	r3, [r4]
    191c:	eb000e8b 	bl	5350 <uart0_transmit>
    1920:	e59f3270 	ldr	r3, [pc, #624]	; 1b98 <.text+0x1b98>
    1924:	e5d42000 	ldrb	r2, [r4]
    1928:	e5d33000 	ldrb	r3, [r3]
    192c:	e1a00003 	mov	r0, r3
    1930:	e0833002 	add	r3, r3, r2
    1934:	e5c43000 	strb	r3, [r4]
    1938:	eb000e84 	bl	5350 <uart0_transmit>
    193c:	e59f3258 	ldr	r3, [pc, #600]	; 1b9c <.text+0x1b9c>
    1940:	e5d42000 	ldrb	r2, [r4]
    1944:	e5d33000 	ldrb	r3, [r3]
    1948:	e1a00003 	mov	r0, r3
    194c:	e0833002 	add	r3, r3, r2
    1950:	e5c43000 	strb	r3, [r4]
    1954:	eb000e7d 	bl	5350 <uart0_transmit>
    1958:	e59f3240 	ldr	r3, [pc, #576]	; 1ba0 <.text+0x1ba0>
    195c:	e5d42000 	ldrb	r2, [r4]
    1960:	e5d33000 	ldrb	r3, [r3]
    1964:	e1a00003 	mov	r0, r3
    1968:	e0833002 	add	r3, r3, r2
    196c:	e5c43000 	strb	r3, [r4]
    1970:	eb000e76 	bl	5350 <uart0_transmit>
    1974:	e5d53000 	ldrb	r3, [r5]
    1978:	e5d42000 	ldrb	r2, [r4]
    197c:	e1a00003 	mov	r0, r3
    1980:	e0833002 	add	r3, r3, r2
    1984:	e5c43000 	strb	r3, [r4]
    1988:	eb000e70 	bl	5350 <uart0_transmit>
    198c:	e59f3210 	ldr	r3, [pc, #528]	; 1ba4 <.text+0x1ba4>
    1990:	e5d42000 	ldrb	r2, [r4]
    1994:	e5d33000 	ldrb	r3, [r3]
    1998:	e1a00003 	mov	r0, r3
    199c:	e0833002 	add	r3, r3, r2
    19a0:	e5c43000 	strb	r3, [r4]
    19a4:	eb000e69 	bl	5350 <uart0_transmit>
    19a8:	e3a000ff 	mov	r0, #255	; 0xff
    19ac:	eb000e67 	bl	5350 <uart0_transmit>
    19b0:	e59f51c0 	ldr	r5, [pc, #448]	; 1b78 <.text+0x1b78>
    19b4:	e5d53000 	ldrb	r3, [r5]
    19b8:	e3530000 	cmp	r3, #0	; 0x0
    19bc:	0a000023 	beq	1a50 <telecommand_task+0x310>
    19c0:	e3530001 	cmp	r3, #1	; 0x1
    19c4:	1a000021 	bne	1a50 <telecommand_task+0x310>
    19c8:	e5964000 	ldr	r4, [r6]
    19cc:	e1d400f0 	ldrsh	r0, [r4]
    19d0:	eb003671 	bl	f39c <__floatsisf>
    19d4:	e59f11cc 	ldr	r1, [pc, #460]	; 1ba8 <.text+0x1ba8>
    19d8:	eb0036e6 	bl	f578 <__divsf3>
    19dc:	e59f31c8 	ldr	r3, [pc, #456]	; 1bac <.text+0x1bac>
    19e0:	e5931000 	ldr	r1, [r3]
    19e4:	eb00367f 	bl	f3e8 <__mulsf3>
    19e8:	e3a01000 	mov	r1, #0	; 0x0
    19ec:	eb0035f8 	bl	f1d4 <__addsf3>
    19f0:	e59f31b8 	ldr	r3, [pc, #440]	; 1bb0 <.text+0x1bb0>
    19f4:	e5830000 	str	r0, [r3]
    19f8:	e1d400f2 	ldrsh	r0, [r4, #2]
    19fc:	eb003666 	bl	f39c <__floatsisf>
    1a00:	e59f11a0 	ldr	r1, [pc, #416]	; 1ba8 <.text+0x1ba8>
    1a04:	eb0036db 	bl	f578 <__divsf3>
    1a08:	e59f31a4 	ldr	r3, [pc, #420]	; 1bb4 <.text+0x1bb4>
    1a0c:	e5931000 	ldr	r1, [r3]
    1a10:	eb003674 	bl	f3e8 <__mulsf3>
    1a14:	e3a01000 	mov	r1, #0	; 0x0
    1a18:	eb0035ed 	bl	f1d4 <__addsf3>
    1a1c:	e59f3194 	ldr	r3, [pc, #404]	; 1bb8 <.text+0x1bb8>
    1a20:	e5830000 	str	r0, [r3]
    1a24:	e1d400f6 	ldrsh	r0, [r4, #6]
    1a28:	eb00365b 	bl	f39c <__floatsisf>
    1a2c:	e59f1174 	ldr	r1, [pc, #372]	; 1ba8 <.text+0x1ba8>
    1a30:	eb0036d0 	bl	f578 <__divsf3>
    1a34:	e59f3180 	ldr	r3, [pc, #384]	; 1bbc <.text+0x1bbc>
    1a38:	e5931000 	ldr	r1, [r3]
    1a3c:	eb003669 	bl	f3e8 <__mulsf3>
    1a40:	e3a01000 	mov	r1, #0	; 0x0
    1a44:	eb0035e2 	bl	f1d4 <__addsf3>
    1a48:	e59f3170 	ldr	r3, [pc, #368]	; 1bc0 <.text+0x1bc0>
    1a4c:	e5830000 	str	r0, [r3]
    1a50:	e5d53000 	ldrb	r3, [r5]
    1a54:	e3530001 	cmp	r3, #1	; 0x1
    1a58:	959f3114 	ldrls	r3, [pc, #276]	; 1b74 <.text+0x1b74>
    1a5c:	95932000 	ldrls	r2, [r3]
    1a60:	e59f410c 	ldr	r4, [pc, #268]	; 1b74 <.text+0x1b74>
    1a64:	91d220b4 	ldrlsh	r2, [r2, #4]
    1a68:	959f3154 	ldrls	r3, [pc, #340]	; 1bc4 <.text+0x1bc4>
    1a6c:	91c320b0 	strlsh	r2, [r3]
    1a70:	e5942000 	ldr	r2, [r4]
    1a74:	e59f314c 	ldr	r3, [pc, #332]	; 1bc8 <.text+0x1bc8>
    1a78:	e5d21010 	ldrb	r1, [r2, #16]
    1a7c:	e5c31000 	strb	r1, [r3]
    1a80:	e59f3144 	ldr	r3, [pc, #324]	; 1bcc <.text+0x1bcc>
    1a84:	e5d21013 	ldrb	r1, [r2, #19]
    1a88:	e5c31000 	strb	r1, [r3]
    1a8c:	e59f313c 	ldr	r3, [pc, #316]	; 1bd0 <.text+0x1bd0>
    1a90:	e1d220fa 	ldrsh	r2, [r2, #10]
    1a94:	e1520003 	cmp	r2, r3
    1a98:	e59f2134 	ldr	r2, [pc, #308]	; 1bd4 <.text+0x1bd4>
    1a9c:	d3a03000 	movle	r3, #0	; 0x0
    1aa0:	d1c230b0 	strleh	r3, [r2]
    1aa4:	da000009 	ble	1ad0 <telecommand_task+0x390>
    1aa8:	e1d230b0 	ldrh	r3, [r2]
    1aac:	e3530013 	cmp	r3, #19	; 0x13
    1ab0:	8a000006 	bhi	1ad0 <telecommand_task+0x390>
    1ab4:	e2833001 	add	r3, r3, #1	; 0x1
    1ab8:	e1c230b0 	strh	r3, [r2]
    1abc:	e1d230b0 	ldrh	r3, [r2]
    1ac0:	e3530014 	cmp	r3, #20	; 0x14
    1ac4:	059f30b8 	ldreq	r3, [pc, #184]	; 1b84 <.text+0x1b84>
    1ac8:	03a02001 	moveq	r2, #1	; 0x1
    1acc:	05c32000 	streqb	r2, [r3]
    1ad0:	e5943000 	ldr	r3, [r4]
    1ad4:	e1d320fa 	ldrsh	r2, [r3, #10]
    1ad8:	e59f30f8 	ldr	r3, [pc, #248]	; 1bd8 <.text+0x1bd8>
    1adc:	e1520003 	cmp	r2, r3
    1ae0:	e59f20f4 	ldr	r2, [pc, #244]	; 1bdc <.text+0x1bdc>
    1ae4:	a3a03000 	movge	r3, #0	; 0x0
    1ae8:	a1c230b0 	strgeh	r3, [r2]
    1aec:	aa000009 	bge	1b18 <telecommand_task+0x3d8>
    1af0:	e1d230b0 	ldrh	r3, [r2]
    1af4:	e3530013 	cmp	r3, #19	; 0x13
    1af8:	8a000006 	bhi	1b18 <telecommand_task+0x3d8>
    1afc:	e2833001 	add	r3, r3, #1	; 0x1
    1b00:	e1c230b0 	strh	r3, [r2]
    1b04:	e1d230b0 	ldrh	r3, [r2]
    1b08:	e3530014 	cmp	r3, #20	; 0x14
    1b0c:	059f30cc 	ldreq	r3, [pc, #204]	; 1be0 <.text+0x1be0>
    1b10:	03a02001 	moveq	r2, #1	; 0x1
    1b14:	05c32000 	streqb	r2, [r3]
    1b18:	e59f30c4 	ldr	r3, [pc, #196]	; 1be4 <.text+0x1be4>
    1b1c:	e1d330b0 	ldrh	r3, [r3]
    1b20:	e3530000 	cmp	r3, #0	; 0x0
    1b24:	1a000010 	bne	1b6c <telecommand_task+0x42c>
    1b28:	e5943000 	ldr	r3, [r4]
    1b2c:	e1d300b0 	ldrh	r0, [r3]
    1b30:	e2800d4b 	add	r0, r0, #4800	; 0x12c0
    1b34:	e1a00800 	mov	r0, r0, lsl #16
    1b38:	e3500596 	cmp	r0, #629145600	; 0x25800000
    1b3c:	93a00000 	movls	r0, #0	; 0x0
    1b40:	83a00001 	movhi	r0, #1	; 0x1
    1b44:	eb001a6e 	bl	8504 <ground_calibrate>
    1b48:	e5d53000 	ldrb	r3, [r5]
    1b4c:	e3530002 	cmp	r3, #2	; 0x2
    1b50:	1a000005 	bne	1b6c <telecommand_task+0x42c>
    1b54:	e5943000 	ldr	r3, [r4]
    1b58:	e1d330f4 	ldrsh	r3, [r3, #4]
    1b5c:	e3530d2d 	cmp	r3, #2880	; 0xb40
    1b60:	c59f3014 	ldrgt	r3, [pc, #20]	; 1b7c <.text+0x1b7c>
    1b64:	c3a02001 	movgt	r2, #1	; 0x1
    1b68:	c5c32000 	strgtb	r2, [r3]
    1b6c:	e89d6870 	ldmia	sp, {r4, r5, r6, fp, sp, lr}
    1b70:	e12fff1e 	bx	lr
    1b74:	40000014 	andmi	r0, r0, r4, lsl r0
    1b78:	40000003 	andmi	r0, r0, r3
    1b7c:	400004a9 	andmi	r0, r0, r9, lsr #9
    1b80:	400010b0 	strmih	r1, [r0], -r0
    1b84:	400007f8 	strmid	r0, [r0], -r8
    1b88:	400004cc 	andmi	r0, r0, ip, asr #9
    1b8c:	40000a8b 	andmi	r0, r0, fp, lsl #21
    1b90:	40000d25 	andmi	r0, r0, r5, lsr #26
    1b94:	400011c4 	andmi	r1, r0, r4, asr #3
    1b98:	400004ac 	andmi	r0, r0, ip, lsr #9
    1b9c:	400010ac 	andmi	r1, r0, ip, lsr #1
    1ba0:	400004ae 	andmi	r0, r0, lr, lsr #9
    1ba4:	400004ab 	andmi	r0, r0, fp, lsr #9
    1ba8:	46160000 	ldrmi	r0, [r6], -r0
    1bac:	40001100 	andmi	r1, r0, r0, lsl #2
    1bb0:	4000118c 	andmi	r1, r0, ip, lsl #3
    1bb4:	40001158 	andmi	r1, r0, r8, asr r1
    1bb8:	40001138 	andmi	r1, r0, r8, lsr r1
    1bbc:	40001194 	mulmi	r0, r4, r1
    1bc0:	40001178 	andmi	r1, r0, r8, ror r1
    1bc4:	400011dc 	ldrmid	r1, [r0], -ip
    1bc8:	400004cd 	andmi	r0, r0, sp, asr #9
    1bcc:	40000a1c 	andmi	r0, r0, ip, lsl sl
    1bd0:	00001c20 	andeq	r1, r0, r0, lsr #24
    1bd4:	400004b0 	strmih	r0, [r0], -r0
    1bd8:	ffffe3e0 	swinv	0x00ffe3e0
    1bdc:	400004b2 	strmih	r0, [r0], -r2
    1be0:	40000a08 	andmi	r0, r0, r8, lsl #20
    1be4:	40001030 	andmi	r1, r0, r0, lsr r0

00001be8 <checkGPS>:
    1be8:	e1a0c00d 	mov	ip, sp
    1bec:	e92dd870 	stmdb	sp!, {r4, r5, r6, fp, ip, lr, pc}
    1bf0:	e59f32cc 	ldr	r3, [pc, #716]	; 1ec4 <.text+0x1ec4>
    1bf4:	e5d35000 	ldrb	r5, [r3]
    1bf8:	e3550000 	cmp	r5, #0	; 0x0
    1bfc:	e24cb004 	sub	fp, ip, #4	; 0x4
    1c00:	0a00005c 	beq	1d78 <checkGPS+0x190>
    1c04:	e59f32bc 	ldr	r3, [pc, #700]	; 1ec8 <.text+0x1ec8>
    1c08:	e59f22bc 	ldr	r2, [pc, #700]	; 1ecc <.text+0x1ecc>
    1c0c:	e1d330b0 	ldrh	r3, [r3]
    1c10:	e1d220b0 	ldrh	r2, [r2]
    1c14:	e0623003 	rsb	r3, r2, r3
    1c18:	e3530005 	cmp	r3, #5	; 0x5
    1c1c:	da0000a6 	ble	1ebc <checkGPS+0x2d4>
    1c20:	e59f52a8 	ldr	r5, [pc, #680]	; 1ed0 <.text+0x1ed0>
    1c24:	e5d52000 	ldrb	r2, [r5]
    1c28:	e2423002 	sub	r3, r2, #2	; 0x2
    1c2c:	e3530001 	cmp	r3, #1	; 0x1
    1c30:	8a0000a1 	bhi	1ebc <checkGPS+0x2d4>
    1c34:	e59f3298 	ldr	r3, [pc, #664]	; 1ed4 <.text+0x1ed4>
    1c38:	e5c32000 	strb	r2, [r3]
    1c3c:	e3a03004 	mov	r3, #4	; 0x4
    1c40:	e5c53000 	strb	r3, [r5]
    1c44:	e3a0000e 	mov	r0, #14	; 0xe
    1c48:	eb000dac 	bl	5300 <uart0_check_free_space>
    1c4c:	e31000ff 	tst	r0, #255	; 0xff
    1c50:	059f2280 	ldreq	r2, [pc, #640]	; 1ed8 <.text+0x1ed8>
    1c54:	05d23000 	ldreqb	r3, [r2]
    1c58:	02833001 	addeq	r3, r3, #1	; 0x1
    1c5c:	05c23000 	streqb	r3, [r2]
    1c60:	0a000040 	beq	1d68 <checkGPS+0x180>
    1c64:	e59f4270 	ldr	r4, [pc, #624]	; 1edc <.text+0x1edc>
    1c68:	e3a03000 	mov	r3, #0	; 0x0
    1c6c:	e3a00009 	mov	r0, #9	; 0x9
    1c70:	e5c43000 	strb	r3, [r4]
    1c74:	eb000db5 	bl	5350 <uart0_transmit>
    1c78:	e5d43000 	ldrb	r3, [r4]
    1c7c:	e2833005 	add	r3, r3, #5	; 0x5
    1c80:	e3a00005 	mov	r0, #5	; 0x5
    1c84:	e5c43000 	strb	r3, [r4]
    1c88:	eb000db0 	bl	5350 <uart0_transmit>
    1c8c:	e5d43000 	ldrb	r3, [r4]
    1c90:	e283300b 	add	r3, r3, #11	; 0xb
    1c94:	e3a0000b 	mov	r0, #11	; 0xb
    1c98:	e5c43000 	strb	r3, [r4]
    1c9c:	eb000dab 	bl	5350 <uart0_transmit>
    1ca0:	e5d53000 	ldrb	r3, [r5]
    1ca4:	e5d42000 	ldrb	r2, [r4]
    1ca8:	e1a00003 	mov	r0, r3
    1cac:	e0833002 	add	r3, r3, r2
    1cb0:	e5c43000 	strb	r3, [r4]
    1cb4:	eb000da5 	bl	5350 <uart0_transmit>
    1cb8:	e59f3220 	ldr	r3, [pc, #544]	; 1ee0 <.text+0x1ee0>
    1cbc:	e5d42000 	ldrb	r2, [r4]
    1cc0:	e5d33000 	ldrb	r3, [r3]
    1cc4:	e1a00003 	mov	r0, r3
    1cc8:	e0833002 	add	r3, r3, r2
    1ccc:	e5c43000 	strb	r3, [r4]
    1cd0:	eb000d9e 	bl	5350 <uart0_transmit>
    1cd4:	e59f3208 	ldr	r3, [pc, #520]	; 1ee4 <.text+0x1ee4>
    1cd8:	e5d42000 	ldrb	r2, [r4]
    1cdc:	e5d33000 	ldrb	r3, [r3]
    1ce0:	e1a00003 	mov	r0, r3
    1ce4:	e0833002 	add	r3, r3, r2
    1ce8:	e5c43000 	strb	r3, [r4]
    1cec:	eb000d97 	bl	5350 <uart0_transmit>
    1cf0:	e59f31f0 	ldr	r3, [pc, #496]	; 1ee8 <.text+0x1ee8>
    1cf4:	e5d42000 	ldrb	r2, [r4]
    1cf8:	e5d33000 	ldrb	r3, [r3]
    1cfc:	e1a00003 	mov	r0, r3
    1d00:	e0833002 	add	r3, r3, r2
    1d04:	e5c43000 	strb	r3, [r4]
    1d08:	eb000d90 	bl	5350 <uart0_transmit>
    1d0c:	e59f31d8 	ldr	r3, [pc, #472]	; 1eec <.text+0x1eec>
    1d10:	e5d42000 	ldrb	r2, [r4]
    1d14:	e5d33000 	ldrb	r3, [r3]
    1d18:	e1a00003 	mov	r0, r3
    1d1c:	e0833002 	add	r3, r3, r2
    1d20:	e5c43000 	strb	r3, [r4]
    1d24:	eb000d89 	bl	5350 <uart0_transmit>
    1d28:	e59f31c0 	ldr	r3, [pc, #448]	; 1ef0 <.text+0x1ef0>
    1d2c:	e5d42000 	ldrb	r2, [r4]
    1d30:	e5d33000 	ldrb	r3, [r3]
    1d34:	e1a00003 	mov	r0, r3
    1d38:	e0833002 	add	r3, r3, r2
    1d3c:	e5c43000 	strb	r3, [r4]
    1d40:	eb000d82 	bl	5350 <uart0_transmit>
    1d44:	e59f31a8 	ldr	r3, [pc, #424]	; 1ef4 <.text+0x1ef4>
    1d48:	e5d42000 	ldrb	r2, [r4]
    1d4c:	e5d33000 	ldrb	r3, [r3]
    1d50:	e1a00003 	mov	r0, r3
    1d54:	e0833002 	add	r3, r3, r2
    1d58:	e5c43000 	strb	r3, [r4]
    1d5c:	eb000d7b 	bl	5350 <uart0_transmit>
    1d60:	e3a000ff 	mov	r0, #255	; 0xff
    1d64:	eb000d79 	bl	5350 <uart0_transmit>
    1d68:	e59f3188 	ldr	r3, [pc, #392]	; 1ef8 <.text+0x1ef8>
    1d6c:	e3a02001 	mov	r2, #1	; 0x1
    1d70:	e5c32000 	strb	r2, [r3]
    1d74:	ea000050 	b	1ebc <checkGPS+0x2d4>
    1d78:	e59f2178 	ldr	r2, [pc, #376]	; 1ef8 <.text+0x1ef8>
    1d7c:	e5d23000 	ldrb	r3, [r2]
    1d80:	e3530000 	cmp	r3, #0	; 0x0
    1d84:	0a00004c 	beq	1ebc <checkGPS+0x2d4>
    1d88:	e59f3144 	ldr	r3, [pc, #324]	; 1ed4 <.text+0x1ed4>
    1d8c:	e59f613c 	ldr	r6, [pc, #316]	; 1ed0 <.text+0x1ed0>
    1d90:	e5d33000 	ldrb	r3, [r3]
    1d94:	e5c25000 	strb	r5, [r2]
    1d98:	e3a0000e 	mov	r0, #14	; 0xe
    1d9c:	e5c63000 	strb	r3, [r6]
    1da0:	eb000d56 	bl	5300 <uart0_check_free_space>
    1da4:	e31000ff 	tst	r0, #255	; 0xff
    1da8:	059f2128 	ldreq	r2, [pc, #296]	; 1ed8 <.text+0x1ed8>
    1dac:	05d23000 	ldreqb	r3, [r2]
    1db0:	02833001 	addeq	r3, r3, #1	; 0x1
    1db4:	05c23000 	streqb	r3, [r2]
    1db8:	0a00003f 	beq	1ebc <checkGPS+0x2d4>
    1dbc:	e59f4118 	ldr	r4, [pc, #280]	; 1edc <.text+0x1edc>
    1dc0:	e3a00009 	mov	r0, #9	; 0x9
    1dc4:	e5c45000 	strb	r5, [r4]
    1dc8:	eb000d60 	bl	5350 <uart0_transmit>
    1dcc:	e5d43000 	ldrb	r3, [r4]
    1dd0:	e2833005 	add	r3, r3, #5	; 0x5
    1dd4:	e3a00005 	mov	r0, #5	; 0x5
    1dd8:	e5c43000 	strb	r3, [r4]
    1ddc:	eb000d5b 	bl	5350 <uart0_transmit>
    1de0:	e5d43000 	ldrb	r3, [r4]
    1de4:	e283300b 	add	r3, r3, #11	; 0xb
    1de8:	e3a0000b 	mov	r0, #11	; 0xb
    1dec:	e5c43000 	strb	r3, [r4]
    1df0:	eb000d56 	bl	5350 <uart0_transmit>
    1df4:	e5d63000 	ldrb	r3, [r6]
    1df8:	e5d42000 	ldrb	r2, [r4]
    1dfc:	e1a00003 	mov	r0, r3
    1e00:	e0833002 	add	r3, r3, r2
    1e04:	e5c43000 	strb	r3, [r4]
    1e08:	eb000d50 	bl	5350 <uart0_transmit>
    1e0c:	e59f30cc 	ldr	r3, [pc, #204]	; 1ee0 <.text+0x1ee0>
    1e10:	e5d42000 	ldrb	r2, [r4]
    1e14:	e5d33000 	ldrb	r3, [r3]
    1e18:	e1a00003 	mov	r0, r3
    1e1c:	e0833002 	add	r3, r3, r2
    1e20:	e5c43000 	strb	r3, [r4]
    1e24:	eb000d49 	bl	5350 <uart0_transmit>
    1e28:	e59f30b4 	ldr	r3, [pc, #180]	; 1ee4 <.text+0x1ee4>
    1e2c:	e5d42000 	ldrb	r2, [r4]
    1e30:	e5d33000 	ldrb	r3, [r3]
    1e34:	e1a00003 	mov	r0, r3
    1e38:	e0833002 	add	r3, r3, r2
    1e3c:	e5c43000 	strb	r3, [r4]
    1e40:	eb000d42 	bl	5350 <uart0_transmit>
    1e44:	e59f309c 	ldr	r3, [pc, #156]	; 1ee8 <.text+0x1ee8>
    1e48:	e5d42000 	ldrb	r2, [r4]
    1e4c:	e5d33000 	ldrb	r3, [r3]
    1e50:	e1a00003 	mov	r0, r3
    1e54:	e0833002 	add	r3, r3, r2
    1e58:	e5c43000 	strb	r3, [r4]
    1e5c:	eb000d3b 	bl	5350 <uart0_transmit>
    1e60:	e59f3084 	ldr	r3, [pc, #132]	; 1eec <.text+0x1eec>
    1e64:	e5d42000 	ldrb	r2, [r4]
    1e68:	e5d33000 	ldrb	r3, [r3]
    1e6c:	e1a00003 	mov	r0, r3
    1e70:	e0833002 	add	r3, r3, r2
    1e74:	e5c43000 	strb	r3, [r4]
    1e78:	eb000d34 	bl	5350 <uart0_transmit>
    1e7c:	e59f306c 	ldr	r3, [pc, #108]	; 1ef0 <.text+0x1ef0>
    1e80:	e5d42000 	ldrb	r2, [r4]
    1e84:	e5d33000 	ldrb	r3, [r3]
    1e88:	e1a00003 	mov	r0, r3
    1e8c:	e0833002 	add	r3, r3, r2
    1e90:	e5c43000 	strb	r3, [r4]
    1e94:	eb000d2d 	bl	5350 <uart0_transmit>
    1e98:	e59f3054 	ldr	r3, [pc, #84]	; 1ef4 <.text+0x1ef4>
    1e9c:	e5d42000 	ldrb	r2, [r4]
    1ea0:	e5d33000 	ldrb	r3, [r3]
    1ea4:	e1a00003 	mov	r0, r3
    1ea8:	e0833002 	add	r3, r3, r2
    1eac:	e5c43000 	strb	r3, [r4]
    1eb0:	eb000d26 	bl	5350 <uart0_transmit>
    1eb4:	e3a000ff 	mov	r0, #255	; 0xff
    1eb8:	eb000d24 	bl	5350 <uart0_transmit>
    1ebc:	e89d6870 	ldmia	sp, {r4, r5, r6, fp, sp, lr}
    1ec0:	e12fff1e 	bx	lr
    1ec4:	400004a9 	andmi	r0, r0, r9, lsr #9
    1ec8:	400007a4 	andmi	r0, r0, r4, lsr #15
    1ecc:	40000fd4 	ldrmid	r0, [r0], -r4
    1ed0:	40000003 	andmi	r0, r0, r3
    1ed4:	400009f0 	strmid	r0, [r0], -r0
    1ed8:	40000a8b 	andmi	r0, r0, fp, lsl #21
    1edc:	40000d25 	andmi	r0, r0, r5, lsr #26
    1ee0:	400011c4 	andmi	r1, r0, r4, asr #3
    1ee4:	400004ac 	andmi	r0, r0, ip, lsr #9
    1ee8:	400010ac 	andmi	r1, r0, ip, lsr #1
    1eec:	400004ae 	andmi	r0, r0, lr, lsr #9
    1ef0:	400004cc 	andmi	r0, r0, ip, asr #9
    1ef4:	400004ab 	andmi	r0, r0, fp, lsr #9
    1ef8:	400004a8 	andmi	r0, r0, r8, lsr #9

00001efc <navigation_task>:
    1efc:	e1a0c00d 	mov	ip, sp
    1f00:	e92dd830 	stmdb	sp!, {r4, r5, fp, ip, lr, pc}
    1f04:	e59f328c 	ldr	r3, [pc, #652]	; 2198 <.text+0x2198>
    1f08:	e24cb004 	sub	fp, ip, #4	; 0x4
    1f0c:	e24dd008 	sub	sp, sp, #8	; 0x8
    1f10:	e5d31000 	ldrb	r1, [r3]
    1f14:	e59f3280 	ldr	r3, [pc, #640]	; 219c <.text+0x219c>
    1f18:	e3a02003 	mov	r2, #3	; 0x3
    1f1c:	e3510003 	cmp	r1, #3	; 0x3
    1f20:	e5c32000 	strb	r2, [r3]
    1f24:	1a000001 	bne	1f30 <navigation_task+0x34>
    1f28:	eb001e45 	bl	9844 <nav_home>
    1f2c:	ea000004 	b	1f44 <navigation_task+0x48>
    1f30:	e3510004 	cmp	r1, #4	; 0x4
    1f34:	1a000001 	bne	1f40 <navigation_task+0x44>
    1f38:	eb0020c0 	bl	a240 <nav_without_gps>
    1f3c:	ea000000 	b	1f44 <navigation_task+0x48>
    1f40:	eb001e82 	bl	9950 <nav_update>
    1f44:	e59f3254 	ldr	r3, [pc, #596]	; 21a0 <.text+0x21a0>
    1f48:	e5930000 	ldr	r0, [r3]
    1f4c:	eb003618 	bl	f7b4 <__fixsfsi>
    1f50:	e59f324c 	ldr	r3, [pc, #588]	; 21a4 <.text+0x21a4>
    1f54:	e14b01b6 	strh	r0, [fp, #-22]
    1f58:	e5930000 	ldr	r0, [r3]
    1f5c:	eb003614 	bl	f7b4 <__fixsfsi>
    1f60:	e59f3240 	ldr	r3, [pc, #576]	; 21a8 <.text+0x21a8>
    1f64:	e14b01b8 	strh	r0, [fp, #-24]
    1f68:	e5930000 	ldr	r0, [r3]
    1f6c:	eb0032a1 	bl	e9f8 <__extendsfdf2>
    1f70:	e28f2e21 	add	r2, pc, #528	; 0x210
    1f74:	e892000c 	ldmia	r2, {r2, r3}
    1f78:	eb00334f 	bl	ecbc <__divdf3>
    1f7c:	e28f2f83 	add	r2, pc, #524	; 0x20c
    1f80:	e892000c 	ldmia	r2, {r2, r3}
    1f84:	eb0032ae 	bl	ea44 <__muldf3>
    1f88:	eb003415 	bl	efe4 <__fixdfsi>
    1f8c:	e14b01ba 	strh	r0, [fp, #-26]
    1f90:	e3a00017 	mov	r0, #23	; 0x17
    1f94:	eb000cd9 	bl	5300 <uart0_check_free_space>
    1f98:	e31000ff 	tst	r0, #255	; 0xff
    1f9c:	059f2208 	ldreq	r2, [pc, #520]	; 21ac <.text+0x21ac>
    1fa0:	05d23000 	ldreqb	r3, [r2]
    1fa4:	02833001 	addeq	r3, r3, #1	; 0x1
    1fa8:	05c23000 	streqb	r3, [r2]
    1fac:	0a000072 	beq	217c <navigation_task+0x280>
    1fb0:	e59f41f8 	ldr	r4, [pc, #504]	; 21b0 <.text+0x21b0>
    1fb4:	e3a03000 	mov	r3, #0	; 0x0
    1fb8:	e3a00012 	mov	r0, #18	; 0x12
    1fbc:	e5c43000 	strb	r3, [r4]
    1fc0:	eb000ce2 	bl	5350 <uart0_transmit>
    1fc4:	e5d43000 	ldrb	r3, [r4]
    1fc8:	e3a00005 	mov	r0, #5	; 0x5
    1fcc:	e2833005 	add	r3, r3, #5	; 0x5
    1fd0:	e5c43000 	strb	r3, [r4]
    1fd4:	eb000cdd 	bl	5350 <uart0_transmit>
    1fd8:	e5d43000 	ldrb	r3, [r4]
    1fdc:	e3a0000a 	mov	r0, #10	; 0xa
    1fe0:	e283300a 	add	r3, r3, #10	; 0xa
    1fe4:	e5c43000 	strb	r3, [r4]
    1fe8:	eb000cd8 	bl	5350 <uart0_transmit>
    1fec:	e59f31c0 	ldr	r3, [pc, #448]	; 21b4 <.text+0x21b4>
    1ff0:	e5d42000 	ldrb	r2, [r4]
    1ff4:	e5d33000 	ldrb	r3, [r3]
    1ff8:	e1a00003 	mov	r0, r3
    1ffc:	e0833002 	add	r3, r3, r2
    2000:	e5c43000 	strb	r3, [r4]
    2004:	eb000cd1 	bl	5350 <uart0_transmit>
    2008:	e59f31a8 	ldr	r3, [pc, #424]	; 21b8 <.text+0x21b8>
    200c:	e5d42000 	ldrb	r2, [r4]
    2010:	e5d33000 	ldrb	r3, [r3]
    2014:	e1a00003 	mov	r0, r3
    2018:	e0833002 	add	r3, r3, r2
    201c:	e5c43000 	strb	r3, [r4]
    2020:	eb000cca 	bl	5350 <uart0_transmit>
    2024:	e5d42000 	ldrb	r2, [r4]
    2028:	e55b3016 	ldrb	r3, [fp, #-22]
    202c:	e1a00003 	mov	r0, r3
    2030:	e0833002 	add	r3, r3, r2
    2034:	e5c43000 	strb	r3, [r4]
    2038:	eb000cc4 	bl	5350 <uart0_transmit>
    203c:	e5d42000 	ldrb	r2, [r4]
    2040:	e55b3015 	ldrb	r3, [fp, #-21]
    2044:	e1a00003 	mov	r0, r3
    2048:	e0833002 	add	r3, r3, r2
    204c:	e5c43000 	strb	r3, [r4]
    2050:	eb000cbe 	bl	5350 <uart0_transmit>
    2054:	e5d42000 	ldrb	r2, [r4]
    2058:	e55b3018 	ldrb	r3, [fp, #-24]
    205c:	e1a00003 	mov	r0, r3
    2060:	e0833002 	add	r3, r3, r2
    2064:	e5c43000 	strb	r3, [r4]
    2068:	eb000cb8 	bl	5350 <uart0_transmit>
    206c:	e5d42000 	ldrb	r2, [r4]
    2070:	e55b3017 	ldrb	r3, [fp, #-23]
    2074:	e1a00003 	mov	r0, r3
    2078:	e0833002 	add	r3, r3, r2
    207c:	e5c43000 	strb	r3, [r4]
    2080:	eb000cb2 	bl	5350 <uart0_transmit>
    2084:	e5d42000 	ldrb	r2, [r4]
    2088:	e55b301a 	ldrb	r3, [fp, #-26]
    208c:	e1a00003 	mov	r0, r3
    2090:	e0833002 	add	r3, r3, r2
    2094:	e5c43000 	strb	r3, [r4]
    2098:	eb000cac 	bl	5350 <uart0_transmit>
    209c:	e55b0019 	ldrb	r0, [fp, #-25]
    20a0:	e5d43000 	ldrb	r3, [r4]
    20a4:	e59f5110 	ldr	r5, [pc, #272]	; 21bc <.text+0x21bc>
    20a8:	e0803003 	add	r3, r0, r3
    20ac:	e5c43000 	strb	r3, [r4]
    20b0:	eb000ca6 	bl	5350 <uart0_transmit>
    20b4:	e5d53000 	ldrb	r3, [r5]
    20b8:	e5d42000 	ldrb	r2, [r4]
    20bc:	e1a00003 	mov	r0, r3
    20c0:	e0833002 	add	r3, r3, r2
    20c4:	e5c43000 	strb	r3, [r4]
    20c8:	eb000ca0 	bl	5350 <uart0_transmit>
    20cc:	e5d53001 	ldrb	r3, [r5, #1]
    20d0:	e5d42000 	ldrb	r2, [r4]
    20d4:	e1a00003 	mov	r0, r3
    20d8:	e0833002 	add	r3, r3, r2
    20dc:	e5c43000 	strb	r3, [r4]
    20e0:	eb000c9a 	bl	5350 <uart0_transmit>
    20e4:	e5d53002 	ldrb	r3, [r5, #2]
    20e8:	e5d42000 	ldrb	r2, [r4]
    20ec:	e1a00003 	mov	r0, r3
    20f0:	e0833002 	add	r3, r3, r2
    20f4:	e5c43000 	strb	r3, [r4]
    20f8:	eb000c94 	bl	5350 <uart0_transmit>
    20fc:	e5d50003 	ldrb	r0, [r5, #3]
    2100:	e5d43000 	ldrb	r3, [r4]
    2104:	e59f50b4 	ldr	r5, [pc, #180]	; 21c0 <.text+0x21c0>
    2108:	e0803003 	add	r3, r0, r3
    210c:	e5c43000 	strb	r3, [r4]
    2110:	eb000c8e 	bl	5350 <uart0_transmit>
    2114:	e5d53000 	ldrb	r3, [r5]
    2118:	e5d42000 	ldrb	r2, [r4]
    211c:	e1a00003 	mov	r0, r3
    2120:	e0833002 	add	r3, r3, r2
    2124:	e5c43000 	strb	r3, [r4]
    2128:	eb000c88 	bl	5350 <uart0_transmit>
    212c:	e5d53001 	ldrb	r3, [r5, #1]
    2130:	e5d42000 	ldrb	r2, [r4]
    2134:	e1a00003 	mov	r0, r3
    2138:	e0833002 	add	r3, r3, r2
    213c:	e5c43000 	strb	r3, [r4]
    2140:	eb000c82 	bl	5350 <uart0_transmit>
    2144:	e5d53002 	ldrb	r3, [r5, #2]
    2148:	e5d42000 	ldrb	r2, [r4]
    214c:	e1a00003 	mov	r0, r3
    2150:	e0833002 	add	r3, r3, r2
    2154:	e5c43000 	strb	r3, [r4]
    2158:	eb000c7c 	bl	5350 <uart0_transmit>
    215c:	e5d53003 	ldrb	r3, [r5, #3]
    2160:	e5d42000 	ldrb	r2, [r4]
    2164:	e1a00003 	mov	r0, r3
    2168:	e0833002 	add	r3, r3, r2
    216c:	e5c43000 	strb	r3, [r4]
    2170:	eb000c76 	bl	5350 <uart0_transmit>
    2174:	e3a000ff 	mov	r0, #255	; 0xff
    2178:	eb000c74 	bl	5350 <uart0_transmit>
    217c:	e24bd014 	sub	sp, fp, #20	; 0x14
    2180:	e89d6830 	ldmia	sp, {r4, r5, fp, sp, lr}
    2184:	e12fff1e 	bx	lr
    2188:	400921fb 	strmid	r2, [r9], -fp
    218c:	54442d18 	strplb	r2, [r4], #-3352
    2190:	409c2000 	addmis	r2, ip, r0
    2194:	00000000 	andeq	r0, r0, r0
    2198:	40000003 	andmi	r0, r0, r3
    219c:	400004ac 	andmi	r0, r0, ip, lsr #9
    21a0:	40001060 	andmi	r1, r0, r0, rrx
    21a4:	4000107c 	andmi	r1, r0, ip, ror r0
    21a8:	40001148 	andmi	r1, r0, r8, asr #2
    21ac:	40000a8b 	andmi	r0, r0, fp, lsl #21
    21b0:	40000d25 	andmi	r0, r0, r5, lsr #26
    21b4:	400010ad 	andmi	r1, r0, sp, lsr #1
    21b8:	400010c4 	andmi	r1, r0, r4, asr #1
    21bc:	40001088 	andmi	r1, r0, r8, lsl #1
    21c0:	400010bc 	strmih	r1, [r0], -ip

000021c4 <constraint_task>:
    21c4:	e12fff1e 	bx	lr

000021c8 <guidance_task>:
    21c8:	e1a0c00d 	mov	ip, sp
    21cc:	e92dd870 	stmdb	sp!, {r4, r5, r6, fp, ip, lr, pc}
    21d0:	e59f4158 	ldr	r4, [pc, #344]	; 2330 <.text+0x2330>
    21d4:	e5d43000 	ldrb	r3, [r4]
    21d8:	e3530003 	cmp	r3, #3	; 0x3
    21dc:	e24cb004 	sub	fp, ip, #4	; 0x4
    21e0:	0b002741 	bleq	beec <v_ctl_altitude_loop>
    21e4:	e59f3148 	ldr	r3, [pc, #328]	; 2334 <.text+0x2334>
    21e8:	e5d33000 	ldrb	r3, [r3]
    21ec:	e2433002 	sub	r3, r3, #2	; 0x2
    21f0:	e3530002 	cmp	r3, #2	; 0x2
    21f4:	8a000032 	bhi	22c4 <guidance_task+0xfc>
    21f8:	e59f3138 	ldr	r3, [pc, #312]	; 2338 <.text+0x2338>
    21fc:	e5d33000 	ldrb	r3, [r3]
    2200:	e3530002 	cmp	r3, #2	; 0x2
    2204:	8b0023ff 	blhi	b208 <h_ctl_course_loop>
    2208:	e5d43000 	ldrb	r3, [r4]
    220c:	e3530001 	cmp	r3, #1	; 0x1
    2210:	8b00279f 	blhi	c094 <v_ctl_climb_loop>
    2214:	e5d43000 	ldrb	r3, [r4]
    2218:	e3530001 	cmp	r3, #1	; 0x1
    221c:	059f2118 	ldreq	r2, [pc, #280]	; 233c <.text+0x233c>
    2220:	059f3118 	ldreq	r3, [pc, #280]	; 2340 <.text+0x2340>
    2224:	01d220b0 	ldreqh	r2, [r2]
    2228:	01c320b0 	streqh	r2, [r3]
    222c:	e59f3110 	ldr	r3, [pc, #272]	; 2344 <.text+0x2344>
    2230:	e59f6110 	ldr	r6, [pc, #272]	; 2348 <.text+0x2348>
    2234:	e5933000 	ldr	r3, [r3]
    2238:	e1a00003 	mov	r0, r3
    223c:	e5863000 	str	r3, [r6]
    2240:	eb0031ec 	bl	e9f8 <__extendsfdf2>
    2244:	e28f20cc 	add	r2, pc, #204	; 0xcc
    2248:	e892000c 	ldmia	r2, {r2, r3}
    224c:	e1a05001 	mov	r5, r1
    2250:	e1a04000 	mov	r4, r0
    2254:	eb003335 	bl	ef30 <__gedf2>
    2258:	e3500000 	cmp	r0, #0	; 0x0
    225c:	c59f30e8 	ldrgt	r3, [pc, #232]	; 234c <.text+0x234c>
    2260:	ca000007 	bgt	2284 <guidance_task+0xbc>
    2264:	e1a01005 	mov	r1, r5
    2268:	e1a00004 	mov	r0, r4
    226c:	e28f20ac 	add	r2, pc, #172	; 0xac
    2270:	e892000c 	ldmia	r2, {r2, r3}
    2274:	eb00332f 	bl	ef38 <__ledf2>
    2278:	e3500000 	cmp	r0, #0	; 0x0
    227c:	aa000001 	bge	2288 <guidance_task+0xc0>
    2280:	e59f30c8 	ldr	r3, [pc, #200]	; 2350 <.text+0x2350>
    2284:	e5863000 	str	r3, [r6]
    2288:	e59f30c4 	ldr	r3, [pc, #196]	; 2354 <.text+0x2354>
    228c:	e5d33000 	ldrb	r3, [r3]
    2290:	e3530000 	cmp	r3, #0	; 0x0
    2294:	1a000007 	bne	22b8 <guidance_task+0xf0>
    2298:	e59f30b8 	ldr	r3, [pc, #184]	; 2358 <.text+0x2358>
    229c:	e1d330b0 	ldrh	r3, [r3]
    22a0:	e3530000 	cmp	r3, #0	; 0x0
    22a4:	1a000006 	bne	22c4 <guidance_task+0xfc>
    22a8:	e59f30ac 	ldr	r3, [pc, #172]	; 235c <.text+0x235c>
    22ac:	e5d33000 	ldrb	r3, [r3]
    22b0:	e3530000 	cmp	r3, #0	; 0x0
    22b4:	1a000002 	bne	22c4 <guidance_task+0xfc>
    22b8:	e59f3080 	ldr	r3, [pc, #128]	; 2340 <.text+0x2340>
    22bc:	e3a02000 	mov	r2, #0	; 0x0
    22c0:	e1c320b0 	strh	r2, [r3]
    22c4:	e59f6094 	ldr	r6, [pc, #148]	; 2360 <.text+0x2360>
    22c8:	e5960000 	ldr	r0, [r6]
    22cc:	eb0031c9 	bl	e9f8 <__extendsfdf2>
    22d0:	e59f3068 	ldr	r3, [pc, #104]	; 2340 <.text+0x2340>
    22d4:	e1a05001 	mov	r5, r1
    22d8:	e1a04000 	mov	r4, r0
    22dc:	e1d300f0 	ldrsh	r0, [r3]
    22e0:	eb00342d 	bl	f39c <__floatsisf>
    22e4:	eb0031c3 	bl	e9f8 <__extendsfdf2>
    22e8:	e28f2038 	add	r2, pc, #56	; 0x38
    22ec:	e892000c 	ldmia	r2, {r2, r3}
    22f0:	eb0031d3 	bl	ea44 <__muldf3>
    22f4:	e1a03001 	mov	r3, r1
    22f8:	e1a02000 	mov	r2, r0
    22fc:	e1a01005 	mov	r1, r5
    2300:	e1a00004 	mov	r0, r4
    2304:	eb0030e5 	bl	e6a0 <__adddf3>
    2308:	eb003372 	bl	f0d8 <__truncdfsf2>
    230c:	e5860000 	str	r0, [r6]
    2310:	e89d6870 	ldmia	sp, {r4, r5, r6, fp, sp, lr}
    2314:	e12fff1e 	bx	lr
    2318:	3fe0c152 	swicc	0x00e0c152
    231c:	382d7365 	stmccda	sp!, {r0, r2, r5, r6, r8, r9, ip, sp, lr}
    2320:	bfc65718 	swilt	0x00c65718
    2324:	4ae74487 	bmi	ff9d3548 <_end+0xbf9d1248>
    2328:	3ef77bd5 	mrccc	11, 7, r7, cr7, cr5, {6}
    232c:	f29ea6d8 	addnvs	sl, lr, #226492416	; 0xd800000
    2330:	400011c4 	andmi	r1, r0, r4, asr #3
    2334:	40000003 	andmi	r0, r0, r3
    2338:	400004ac 	andmi	r0, r0, ip, lsr #9
    233c:	4000109c 	mulmi	r0, ip, r0
    2340:	400011dc 	ldrmid	r1, [r0], -ip
    2344:	40000610 	andmi	r0, r0, r0, lsl r6
    2348:	40001138 	andmi	r1, r0, r8, lsr r1
    234c:	3f060a92 	swicc	0x00060a92
    2350:	be32b8c2 	cdplt	8, 3, cr11, cr2, cr2, {6}
    2354:	400004aa 	andmi	r0, r0, sl, lsr #9
    2358:	40001030 	andmi	r1, r0, r0, lsr r0
    235c:	400004a9 	andmi	r0, r0, r9, lsr #9
    2360:	40000a0c 	andmi	r0, r0, ip, lsl #20

00002364 <controllability_task>:
    2364:	e12fff1e 	bx	lr

00002368 <statistics_task>:
    2368:	e12fff1e 	bx	lr

0000236c <periodic_task_ap>:
    236c:	e1a0c00d 	mov	ip, sp
    2370:	e92ddff0 	stmdb	sp!, {r4, r5, r6, r7, r8, r9, sl, fp, ip, lr, pc}
    2374:	e59f2574 	ldr	r2, [pc, #1396]	; 28f0 <.text+0x28f0>
    2378:	e24cb004 	sub	fp, ip, #4	; 0x4
    237c:	e24dd01c 	sub	sp, sp, #28	; 0x1c
    2380:	e5d23000 	ldrb	r3, [r2]
    2384:	e2833001 	add	r3, r3, #1	; 0x1
    2388:	e5c23000 	strb	r3, [r2]
    238c:	e5d23000 	ldrb	r3, [r2]
    2390:	e3530002 	cmp	r3, #2	; 0x2
    2394:	83a03000 	movhi	r3, #0	; 0x0
    2398:	85c23000 	strhib	r3, [r2]
    239c:	e59f2550 	ldr	r2, [pc, #1360]	; 28f4 <.text+0x28f4>
    23a0:	e5d23000 	ldrb	r3, [r2]
    23a4:	e2833001 	add	r3, r3, #1	; 0x1
    23a8:	e5c23000 	strb	r3, [r2]
    23ac:	e5d23000 	ldrb	r3, [r2]
    23b0:	e3530005 	cmp	r3, #5	; 0x5
    23b4:	83a03000 	movhi	r3, #0	; 0x0
    23b8:	85c23000 	strhib	r3, [r2]
    23bc:	e59f2534 	ldr	r2, [pc, #1332]	; 28f8 <.text+0x28f8>
    23c0:	e5d23000 	ldrb	r3, [r2]
    23c4:	e2833001 	add	r3, r3, #1	; 0x1
    23c8:	e5c23000 	strb	r3, [r2]
    23cc:	e5d23000 	ldrb	r3, [r2]
    23d0:	e353000e 	cmp	r3, #14	; 0xe
    23d4:	83a03000 	movhi	r3, #0	; 0x0
    23d8:	85c23000 	strhib	r3, [r2]
    23dc:	e59f2518 	ldr	r2, [pc, #1304]	; 28fc <.text+0x28fc>
    23e0:	e5d23000 	ldrb	r3, [r2]
    23e4:	e2833001 	add	r3, r3, #1	; 0x1
    23e8:	e5c23000 	strb	r3, [r2]
    23ec:	e5d23000 	ldrb	r3, [r2]
    23f0:	e59f6508 	ldr	r6, [pc, #1288]	; 2900 <.text+0x2900>
    23f4:	e353003c 	cmp	r3, #60	; 0x3c
    23f8:	83a03000 	movhi	r3, #0	; 0x0
    23fc:	85c23000 	strhib	r3, [r2]
    2400:	e5d63000 	ldrb	r3, [r6]
    2404:	e3530000 	cmp	r3, #0	; 0x0
    2408:	0a000028 	beq	24b0 <periodic_task_ap+0x144>
    240c:	e3a00009 	mov	r0, #9	; 0x9
    2410:	eb000bba 	bl	5300 <uart0_check_free_space>
    2414:	e31000ff 	tst	r0, #255	; 0xff
    2418:	059f2620 	ldreq	r2, [pc, #1568]	; 2a40 <.text+0x2a40>
    241c:	05d23000 	ldreqb	r3, [r2]
    2420:	02833001 	addeq	r3, r3, #1	; 0x1
    2424:	05c23000 	streqb	r3, [r2]
    2428:	0a00001d 	beq	24a4 <periodic_task_ap+0x138>
    242c:	e59f4610 	ldr	r4, [pc, #1552]	; 2a44 <.text+0x2a44>
    2430:	e3a03000 	mov	r3, #0	; 0x0
    2434:	e3a00004 	mov	r0, #4	; 0x4
    2438:	e5c43000 	strb	r3, [r4]
    243c:	eb000bc3 	bl	5350 <uart0_transmit>
    2440:	e5d43000 	ldrb	r3, [r4]
    2444:	e2833005 	add	r3, r3, #5	; 0x5
    2448:	e3a00005 	mov	r0, #5	; 0x5
    244c:	e5c43000 	strb	r3, [r4]
    2450:	eb000bbe 	bl	5350 <uart0_transmit>
    2454:	e5d43000 	ldrb	r3, [r4]
    2458:	e59f54a4 	ldr	r5, [pc, #1188]	; 2904 <.text+0x2904>
    245c:	e2833001 	add	r3, r3, #1	; 0x1
    2460:	e3a00001 	mov	r0, #1	; 0x1
    2464:	e5c43000 	strb	r3, [r4]
    2468:	eb000bb8 	bl	5350 <uart0_transmit>
    246c:	e5d53000 	ldrb	r3, [r5]
    2470:	e5d42000 	ldrb	r2, [r4]
    2474:	e1a00003 	mov	r0, r3
    2478:	e0833002 	add	r3, r3, r2
    247c:	e5c43000 	strb	r3, [r4]
    2480:	eb000bb2 	bl	5350 <uart0_transmit>
    2484:	e5d53001 	ldrb	r3, [r5, #1]
    2488:	e5d42000 	ldrb	r2, [r4]
    248c:	e1a00003 	mov	r0, r3
    2490:	e0833002 	add	r3, r3, r2
    2494:	e5c43000 	strb	r3, [r4]
    2498:	eb000bac 	bl	5350 <uart0_transmit>
    249c:	e3a000ff 	mov	r0, #255	; 0xff
    24a0:	eb000baa 	bl	5350 <uart0_transmit>
    24a4:	e3a03000 	mov	r3, #0	; 0x0
    24a8:	e5c63000 	strb	r3, [r6]
    24ac:	ea000793 	b	4300 <.text+0x4300>
    24b0:	e59f3450 	ldr	r3, [pc, #1104]	; 2908 <.text+0x2908>
    24b4:	e5d35000 	ldrb	r5, [r3]
    24b8:	e3550000 	cmp	r5, #0	; 0x0
    24bc:	1a000706 	bne	40dc <.text+0x40dc>
    24c0:	e59f8444 	ldr	r8, [pc, #1092]	; 290c <.text+0x290c>
    24c4:	e5d83000 	ldrb	r3, [r8]
    24c8:	e2833001 	add	r3, r3, #1	; 0x1
    24cc:	e5c83000 	strb	r3, [r8]
    24d0:	e59fa438 	ldr	sl, [pc, #1080]	; 2910 <.text+0x2910>
    24d4:	e5d83000 	ldrb	r3, [r8]
    24d8:	e353001d 	cmp	r3, #29	; 0x1d
    24dc:	e5da3000 	ldrb	r3, [sl]
    24e0:	e2833001 	add	r3, r3, #1	; 0x1
    24e4:	e5ca3000 	strb	r3, [sl]
    24e8:	e59f9424 	ldr	r9, [pc, #1060]	; 2914 <.text+0x2914>
    24ec:	e5da3000 	ldrb	r3, [sl]
    24f0:	85c85000 	strhib	r5, [r8]
    24f4:	e353003b 	cmp	r3, #59	; 0x3b
    24f8:	e5d93000 	ldrb	r3, [r9]
    24fc:	e2833001 	add	r3, r3, #1	; 0x1
    2500:	e5c93000 	strb	r3, [r9]
    2504:	e59f240c 	ldr	r2, [pc, #1036]	; 2918 <.text+0x2918>
    2508:	e5d93000 	ldrb	r3, [r9]
    250c:	85ca5000 	strhib	r5, [sl]
    2510:	e3530077 	cmp	r3, #119	; 0x77
    2514:	e1d230b0 	ldrh	r3, [r2]
    2518:	e2833001 	add	r3, r3, #1	; 0x1
    251c:	e1c230b0 	strh	r3, [r2]
    2520:	e1d230b0 	ldrh	r3, [r2]
    2524:	85c95000 	strhib	r5, [r9]
    2528:	e3530f4b 	cmp	r3, #300	; 0x12c
    252c:	21c250b0 	strcsh	r5, [r2]
    2530:	e59f23e4 	ldr	r2, [pc, #996]	; 291c <.text+0x291c>
    2534:	e1d230b0 	ldrh	r3, [r2]
    2538:	e2833001 	add	r3, r3, #1	; 0x1
    253c:	e1c230b0 	strh	r3, [r2]
    2540:	e1d230b0 	ldrh	r3, [r2]
    2544:	e5d86000 	ldrb	r6, [r8]
    2548:	e3530f87 	cmp	r3, #540	; 0x21c
    254c:	21c250b0 	strcsh	r5, [r2]
    2550:	e3560000 	cmp	r6, #0	; 0x0
    2554:	1a000052 	bne	26a4 <periodic_task_ap+0x338>
    2558:	e59f33c0 	ldr	r3, [pc, #960]	; 2920 <.text+0x2920>
    255c:	e5930000 	ldr	r0, [r3]
    2560:	eb003124 	bl	e9f8 <__extendsfdf2>
    2564:	e28f2fdd 	add	r2, pc, #884	; 0x374
    2568:	e892000c 	ldmia	r2, {r2, r3}
    256c:	eb0031d2 	bl	ecbc <__divdf3>
    2570:	e28f2e37 	add	r2, pc, #880	; 0x370
    2574:	e892000c 	ldmia	r2, {r2, r3}
    2578:	eb003131 	bl	ea44 <__muldf3>
    257c:	eb003298 	bl	efe4 <__fixdfsi>
    2580:	e59f339c 	ldr	r3, [pc, #924]	; 2924 <.text+0x2924>
    2584:	e14b02ba 	strh	r0, [fp, #-42]
    2588:	e5930000 	ldr	r0, [r3]
    258c:	eb003119 	bl	e9f8 <__extendsfdf2>
    2590:	e28f2fd2 	add	r2, pc, #840	; 0x348
    2594:	e892000c 	ldmia	r2, {r2, r3}
    2598:	eb0031c7 	bl	ecbc <__divdf3>
    259c:	e28f2fd1 	add	r2, pc, #836	; 0x344
    25a0:	e892000c 	ldmia	r2, {r2, r3}
    25a4:	eb003126 	bl	ea44 <__muldf3>
    25a8:	eb00328d 	bl	efe4 <__fixdfsi>
    25ac:	e59f3374 	ldr	r3, [pc, #884]	; 2928 <.text+0x2928>
    25b0:	e14b02bc 	strh	r0, [fp, #-44]
    25b4:	e5930000 	ldr	r0, [r3]
    25b8:	eb00310e 	bl	e9f8 <__extendsfdf2>
    25bc:	e28f2fc7 	add	r2, pc, #796	; 0x31c
    25c0:	e892000c 	ldmia	r2, {r2, r3}
    25c4:	eb0031bc 	bl	ecbc <__divdf3>
    25c8:	e28f2fc6 	add	r2, pc, #792	; 0x318
    25cc:	e892000c 	ldmia	r2, {r2, r3}
    25d0:	eb00311b 	bl	ea44 <__muldf3>
    25d4:	eb003282 	bl	efe4 <__fixdfsi>
    25d8:	e14b02be 	strh	r0, [fp, #-46]
    25dc:	e3a0000d 	mov	r0, #13	; 0xd
    25e0:	eb000b46 	bl	5300 <uart0_check_free_space>
    25e4:	e31000ff 	tst	r0, #255	; 0xff
    25e8:	0a000118 	beq	2a50 <.text+0x2a50>
    25ec:	e59f4450 	ldr	r4, [pc, #1104]	; 2a44 <.text+0x2a44>
    25f0:	e3a00008 	mov	r0, #8	; 0x8
    25f4:	e5c46000 	strb	r6, [r4]
    25f8:	eb000b54 	bl	5350 <uart0_transmit>
    25fc:	e5d43000 	ldrb	r3, [r4]
    2600:	e2833005 	add	r3, r3, #5	; 0x5
    2604:	e3a00005 	mov	r0, #5	; 0x5
    2608:	e5c43000 	strb	r3, [r4]
    260c:	eb000b4f 	bl	5350 <uart0_transmit>
    2610:	e5d43000 	ldrb	r3, [r4]
    2614:	e2833006 	add	r3, r3, #6	; 0x6
    2618:	e3a00006 	mov	r0, #6	; 0x6
    261c:	e5c43000 	strb	r3, [r4]
    2620:	eb000b4a 	bl	5350 <uart0_transmit>
    2624:	e55b302a 	ldrb	r3, [fp, #-42]
    2628:	e5d42000 	ldrb	r2, [r4]
    262c:	e1a00003 	mov	r0, r3
    2630:	e0833002 	add	r3, r3, r2
    2634:	e5c43000 	strb	r3, [r4]
    2638:	eb000b44 	bl	5350 <uart0_transmit>
    263c:	e55b3029 	ldrb	r3, [fp, #-41]
    2640:	e5d42000 	ldrb	r2, [r4]
    2644:	e1a00003 	mov	r0, r3
    2648:	e0833002 	add	r3, r3, r2
    264c:	e5c43000 	strb	r3, [r4]
    2650:	eb000b3e 	bl	5350 <uart0_transmit>
    2654:	e55b302c 	ldrb	r3, [fp, #-44]
    2658:	e5d42000 	ldrb	r2, [r4]
    265c:	e1a00003 	mov	r0, r3
    2660:	e0833002 	add	r3, r3, r2
    2664:	e5c43000 	strb	r3, [r4]
    2668:	eb000b38 	bl	5350 <uart0_transmit>
    266c:	e55b302b 	ldrb	r3, [fp, #-43]
    2670:	e5d42000 	ldrb	r2, [r4]
    2674:	e1a00003 	mov	r0, r3
    2678:	e0833002 	add	r3, r3, r2
    267c:	e5c43000 	strb	r3, [r4]
    2680:	eb000b32 	bl	5350 <uart0_transmit>
    2684:	e55b302e 	ldrb	r3, [fp, #-46]
    2688:	e5d42000 	ldrb	r2, [r4]
    268c:	e1a00003 	mov	r0, r3
    2690:	e0833002 	add	r3, r3, r2
    2694:	e5c43000 	strb	r3, [r4]
    2698:	eb000b2c 	bl	5350 <uart0_transmit>
    269c:	e55b302d 	ldrb	r3, [fp, #-45]
    26a0:	ea000086 	b	28c0 <periodic_task_ap+0x554>
    26a4:	e3560006 	cmp	r6, #6	; 0x6
    26a8:	0a0000ec 	beq	2a60 <.text+0x2a60>
    26ac:	e356000c 	cmp	r6, #12	; 0xc
    26b0:	0a0000ea 	beq	2a60 <.text+0x2a60>
    26b4:	e3560012 	cmp	r6, #18	; 0x12
    26b8:	1a0000e8 	bne	2a60 <.text+0x2a60>
    26bc:	e59f6268 	ldr	r6, [pc, #616]	; 292c <.text+0x292c>
    26c0:	e5d63000 	ldrb	r3, [r6]
    26c4:	e2833001 	add	r3, r3, #1	; 0x1
    26c8:	e5c63000 	strb	r3, [r6]
    26cc:	e59f325c 	ldr	r3, [pc, #604]	; 2930 <.text+0x2930>
    26d0:	e5d32000 	ldrb	r2, [r3]
    26d4:	e5d63000 	ldrb	r3, [r6]
    26d8:	e1530002 	cmp	r3, r2
    26dc:	e59f3250 	ldr	r3, [pc, #592]	; 2934 <.text+0x2934>
    26e0:	85c65000 	strhib	r5, [r6]
    26e4:	e5930000 	ldr	r0, [r3]
    26e8:	eb00332b 	bl	f39c <__floatsisf>
    26ec:	e5d64000 	ldrb	r4, [r6]
    26f0:	e59f7240 	ldr	r7, [pc, #576]	; 2938 <.text+0x2938>
    26f4:	e0844084 	add	r4, r4, r4, lsl #1
    26f8:	e1a04104 	mov	r4, r4, lsl #2
    26fc:	e7941007 	ldr	r1, [r4, r7]
    2700:	eb0032b3 	bl	f1d4 <__addsf3>
    2704:	e59f3230 	ldr	r3, [pc, #560]	; 293c <.text+0x293c>
    2708:	e50b003c 	str	r0, [fp, #-60]
    270c:	e0844007 	add	r4, r4, r7
    2710:	e5930000 	ldr	r0, [r3]
    2714:	eb003320 	bl	f39c <__floatsisf>
    2718:	e5941004 	ldr	r1, [r4, #4]
    271c:	eb0032ac 	bl	f1d4 <__addsf3>
    2720:	e50b0040 	str	r0, [fp, #-64]
    2724:	e3a00014 	mov	r0, #20	; 0x14
    2728:	eb000af4 	bl	5300 <uart0_check_free_space>
    272c:	e31000ff 	tst	r0, #255	; 0xff
    2730:	0a0000c6 	beq	2a50 <.text+0x2a50>
    2734:	e59f4308 	ldr	r4, [pc, #776]	; 2a44 <.text+0x2a44>
    2738:	e3a0000f 	mov	r0, #15	; 0xf
    273c:	e5c45000 	strb	r5, [r4]
    2740:	eb000b02 	bl	5350 <uart0_transmit>
    2744:	e5d43000 	ldrb	r3, [r4]
    2748:	e2833005 	add	r3, r3, #5	; 0x5
    274c:	e3a00005 	mov	r0, #5	; 0x5
    2750:	e5c43000 	strb	r3, [r4]
    2754:	eb000afd 	bl	5350 <uart0_transmit>
    2758:	e5d43000 	ldrb	r3, [r4]
    275c:	e2833023 	add	r3, r3, #35	; 0x23
    2760:	e3a00023 	mov	r0, #35	; 0x23
    2764:	e5c43000 	strb	r3, [r4]
    2768:	eb000af8 	bl	5350 <uart0_transmit>
    276c:	e5d63000 	ldrb	r3, [r6]
    2770:	e5d42000 	ldrb	r2, [r4]
    2774:	e1a00003 	mov	r0, r3
    2778:	e0833002 	add	r3, r3, r2
    277c:	e5c43000 	strb	r3, [r4]
    2780:	eb000af2 	bl	5350 <uart0_transmit>
    2784:	e55b303c 	ldrb	r3, [fp, #-60]
    2788:	e5d42000 	ldrb	r2, [r4]
    278c:	e1a00003 	mov	r0, r3
    2790:	e0833002 	add	r3, r3, r2
    2794:	e5c43000 	strb	r3, [r4]
    2798:	eb000aec 	bl	5350 <uart0_transmit>
    279c:	e55b303b 	ldrb	r3, [fp, #-59]
    27a0:	e5d42000 	ldrb	r2, [r4]
    27a4:	e1a00003 	mov	r0, r3
    27a8:	e0833002 	add	r3, r3, r2
    27ac:	e5c43000 	strb	r3, [r4]
    27b0:	eb000ae6 	bl	5350 <uart0_transmit>
    27b4:	e55b303a 	ldrb	r3, [fp, #-58]
    27b8:	e5d42000 	ldrb	r2, [r4]
    27bc:	e1a00003 	mov	r0, r3
    27c0:	e0833002 	add	r3, r3, r2
    27c4:	e5c43000 	strb	r3, [r4]
    27c8:	eb000ae0 	bl	5350 <uart0_transmit>
    27cc:	e55b3039 	ldrb	r3, [fp, #-57]
    27d0:	e5d42000 	ldrb	r2, [r4]
    27d4:	e1a00003 	mov	r0, r3
    27d8:	e0833002 	add	r3, r3, r2
    27dc:	e5c43000 	strb	r3, [r4]
    27e0:	eb000ada 	bl	5350 <uart0_transmit>
    27e4:	e55b3040 	ldrb	r3, [fp, #-64]
    27e8:	e5d42000 	ldrb	r2, [r4]
    27ec:	e1a00003 	mov	r0, r3
    27f0:	e0833002 	add	r3, r3, r2
    27f4:	e5c43000 	strb	r3, [r4]
    27f8:	eb000ad4 	bl	5350 <uart0_transmit>
    27fc:	e55b303f 	ldrb	r3, [fp, #-63]
    2800:	e5d42000 	ldrb	r2, [r4]
    2804:	e1a00003 	mov	r0, r3
    2808:	e0833002 	add	r3, r3, r2
    280c:	e5c43000 	strb	r3, [r4]
    2810:	eb000ace 	bl	5350 <uart0_transmit>
    2814:	e55b303e 	ldrb	r3, [fp, #-62]
    2818:	e5d42000 	ldrb	r2, [r4]
    281c:	e1a00003 	mov	r0, r3
    2820:	e0833002 	add	r3, r3, r2
    2824:	e5c43000 	strb	r3, [r4]
    2828:	eb000ac8 	bl	5350 <uart0_transmit>
    282c:	e55b303d 	ldrb	r3, [fp, #-61]
    2830:	e5d42000 	ldrb	r2, [r4]
    2834:	e1a00003 	mov	r0, r3
    2838:	e0833002 	add	r3, r3, r2
    283c:	e5c43000 	strb	r3, [r4]
    2840:	eb000ac2 	bl	5350 <uart0_transmit>
    2844:	e5d63000 	ldrb	r3, [r6]
    2848:	e2872008 	add	r2, r7, #8	; 0x8
    284c:	e0833083 	add	r3, r3, r3, lsl #1
    2850:	e7d23103 	ldrb	r3, [r2, r3, lsl #2]
    2854:	e5d42000 	ldrb	r2, [r4]
    2858:	e1a00003 	mov	r0, r3
    285c:	e0833002 	add	r3, r3, r2
    2860:	e5c43000 	strb	r3, [r4]
    2864:	eb000ab9 	bl	5350 <uart0_transmit>
    2868:	e5d63000 	ldrb	r3, [r6]
    286c:	e2872009 	add	r2, r7, #9	; 0x9
    2870:	e0833083 	add	r3, r3, r3, lsl #1
    2874:	e7d23103 	ldrb	r3, [r2, r3, lsl #2]
    2878:	e5d42000 	ldrb	r2, [r4]
    287c:	e1a00003 	mov	r0, r3
    2880:	e0833002 	add	r3, r3, r2
    2884:	e5c43000 	strb	r3, [r4]
    2888:	eb000ab0 	bl	5350 <uart0_transmit>
    288c:	e5d63000 	ldrb	r3, [r6]
    2890:	e287200a 	add	r2, r7, #10	; 0xa
    2894:	e0833083 	add	r3, r3, r3, lsl #1
    2898:	e7d23103 	ldrb	r3, [r2, r3, lsl #2]
    289c:	e5d42000 	ldrb	r2, [r4]
    28a0:	e1a00003 	mov	r0, r3
    28a4:	e0833002 	add	r3, r3, r2
    28a8:	e5c43000 	strb	r3, [r4]
    28ac:	eb000aa7 	bl	5350 <uart0_transmit>
    28b0:	e5d63000 	ldrb	r3, [r6]
    28b4:	e287200b 	add	r2, r7, #11	; 0xb
    28b8:	e0833083 	add	r3, r3, r3, lsl #1
    28bc:	e7d23103 	ldrb	r3, [r2, r3, lsl #2]
    28c0:	e5d42000 	ldrb	r2, [r4]
    28c4:	e1a00003 	mov	r0, r3
    28c8:	e0833002 	add	r3, r3, r2
    28cc:	e5c43000 	strb	r3, [r4]
    28d0:	eb000a9e 	bl	5350 <uart0_transmit>
    28d4:	e3a000ff 	mov	r0, #255	; 0xff
    28d8:	eb000a9c 	bl	5350 <uart0_transmit>
    28dc:	ea00005f 	b	2a60 <.text+0x2a60>
    28e0:	400921fb 	strmid	r2, [r9], -fp
    28e4:	54442d18 	strplb	r2, [r4], #-3352
    28e8:	40668000 	rsbmi	r8, r6, r0
    28ec:	00000000 	andeq	r0, r0, r0
    28f0:	400004b4 	strmih	r0, [r0], -r4
    28f4:	400004b5 	strmih	r0, [r0], -r5
    28f8:	400004b6 	strmih	r0, [r0], -r6
    28fc:	400004b7 	strmih	r0, [r0], -r7
    2900:	40000004 	andmi	r0, r0, r4
    2904:	0000f910 	andeq	pc, r0, r0, lsl r9
    2908:	400004e8 	andmi	r0, r0, r8, ror #9
    290c:	400004b8 	strmih	r0, [r0], -r8
    2910:	400004b9 	strmih	r0, [r0], -r9
    2914:	400004ba 	strmih	r0, [r0], -sl
    2918:	400004bc 	strmih	r0, [r0], -ip
    291c:	400004be 	strmih	r0, [r0], -lr
    2920:	40001058 	andmi	r1, r0, r8, asr r0
    2924:	40001034 	andmi	r1, r0, r4, lsr r0
    2928:	40001050 	andmi	r1, r0, r0, asr r0
    292c:	400004c0 	andmi	r0, r0, r0, asr #9
    2930:	0000f91a 	andeq	pc, r0, sl, lsl r9
    2934:	40000080 	andmi	r0, r0, r0, lsl #1
    2938:	40000038 	andmi	r0, r0, r8, lsr r0
    293c:	4000007c 	andmi	r0, r0, ip, ror r0
    2940:	40001038 	andmi	r1, r0, r8, lsr r0
    2944:	4000102c 	andmi	r1, r0, ip, lsr #32
    2948:	4000056c 	andmi	r0, r0, ip, ror #10
    294c:	40000fec 	andmi	r0, r0, ip, ror #31
    2950:	4000118c 	andmi	r1, r0, ip, lsl #3
    2954:	40001138 	andmi	r1, r0, r8, lsr r1
    2958:	40001090 	mulmi	r0, r0, r0
    295c:	400010a4 	andmi	r1, r0, r4, lsr #1
    2960:	40000074 	andmi	r0, r0, r4, ror r0
    2964:	400011e0 	andmi	r1, r0, r0, ror #3
    2968:	4000061d 	andmi	r0, r0, sp, lsl r6
    296c:	400010cc 	andmi	r1, r0, ip, asr #1
    2970:	400010ae 	andmi	r1, r0, lr, lsr #1
    2974:	40001096 	mulmi	r0, r6, r0
    2978:	4000061c 	andmi	r0, r0, ip, lsl r6
    297c:	4000108c 	andmi	r1, r0, ip, lsl #1
    2980:	400010d0 	ldrmid	r1, [r0], -r0
    2984:	40001094 	mulmi	r0, r4, r0
    2988:	400010ce 	andmi	r1, r0, lr, asr #1
    298c:	400010e4 	andmi	r1, r0, r4, ror #1
    2990:	40000002 	andmi	r0, r0, r2
    2994:	40001044 	andmi	r1, r0, r4, asr #32
    2998:	40001070 	andmi	r1, r0, r0, ror r0
    299c:	40000003 	andmi	r0, r0, r3
    29a0:	40001030 	andmi	r1, r0, r0, lsr r0
    29a4:	47800000 	strmi	r0, [r0, r0]
    29a8:	400004a9 	andmi	r0, r0, r9, lsr #9
    29ac:	400004aa 	andmi	r0, r0, sl, lsr #9
    29b0:	40001024 	andmi	r1, r0, r4, lsr #32
    29b4:	40000ffc 	strmid	r0, [r0], -ip
    29b8:	40000fd8 	ldrmid	r0, [r0], -r8
    29bc:	4000100c 	andmi	r1, r0, ip
    29c0:	40001018 	andmi	r1, r0, r8, lsl r0
    29c4:	40000ff4 	strmid	r0, [r0], -r4
    29c8:	400004ab 	andmi	r0, r0, fp, lsr #9
    29cc:	40001140 	andmi	r1, r0, r0, asr #2
    29d0:	43800000 	orrmi	r0, r0, #0	; 0x0
    29d4:	4000124c 	andmi	r1, r0, ip, asr #4
    29d8:	40001248 	andmi	r1, r0, r8, asr #4
    29dc:	40001254 	andmi	r1, r0, r4, asr r2
    29e0:	40001198 	mulmi	r0, r8, r1
    29e4:	40001124 	andmi	r1, r0, r4, lsr #2
    29e8:	40001128 	andmi	r1, r0, r8, lsr #2
    29ec:	40001168 	andmi	r1, r0, r8, ror #2
    29f0:	40001174 	andmi	r1, r0, r4, ror r1
    29f4:	40001114 	andmi	r1, r0, r4, lsl r1
    29f8:	4000110c 	andmi	r1, r0, ip, lsl #2
    29fc:	40001188 	andmi	r1, r0, r8, lsl #3
    2a00:	40001120 	andmi	r1, r0, r0, lsr #2
    2a04:	40001104 	andmi	r1, r0, r4, lsl #2
    2a08:	400011cc 	andmi	r1, r0, ip, asr #3
    2a0c:	400011c8 	andmi	r1, r0, r8, asr #3
    2a10:	400011bc 	strmih	r1, [r0], -ip
    2a14:	400011f4 	strmid	r1, [r0], -r4
    2a18:	400011d8 	ldrmid	r1, [r0], -r8
    2a1c:	400011d4 	ldrmid	r1, [r0], -r4
    2a20:	400011b4 	strmih	r1, [r0], -r4
    2a24:	400011f0 	strmid	r1, [r0], -r0
    2a28:	400011b8 	strmih	r1, [r0], -r8
    2a2c:	400011d0 	ldrmid	r1, [r0], -r0
    2a30:	400011e4 	andmi	r1, r0, r4, ror #3
    2a34:	40001148 	andmi	r1, r0, r8, asr #2
    2a38:	40001108 	andmi	r1, r0, r8, lsl #2
    2a3c:	40001084 	andmi	r1, r0, r4, lsl #1
    2a40:	40000a8b 	andmi	r0, r0, fp, lsl #21
    2a44:	40000d25 	andmi	r0, r0, r5, lsr #26
    2a48:	400004c1 	andmi	r0, r0, r1, asr #9
    2a4c:	40001014 	andmi	r1, r0, r4, lsl r0
    2a50:	e51f2018 	ldr	r2, [pc, #-24]	; 2a40 <.text+0x2a40>
    2a54:	e5d23000 	ldrb	r3, [r2]
    2a58:	e2833001 	add	r3, r3, #1	; 0x1
    2a5c:	e5c23000 	strb	r3, [r2]
    2a60:	e5d83000 	ldrb	r3, [r8]
    2a64:	e3530006 	cmp	r3, #6	; 0x6
    2a68:	1a000091 	bne	2cb4 <.text+0x2cb4>
    2a6c:	e3a0001b 	mov	r0, #27	; 0x1b
    2a70:	eb000a22 	bl	5300 <uart0_check_free_space>
    2a74:	e31000ff 	tst	r0, #255	; 0xff
    2a78:	051f2040 	ldreq	r2, [pc, #-64]	; 2a40 <.text+0x2a40>
    2a7c:	05d23000 	ldreqb	r3, [r2]
    2a80:	02833001 	addeq	r3, r3, #1	; 0x1
    2a84:	05c23000 	streqb	r3, [r2]
    2a88:	0a000089 	beq	2cb4 <.text+0x2cb4>
    2a8c:	e51f4050 	ldr	r4, [pc, #-80]	; 2a44 <.text+0x2a44>
    2a90:	e3a03000 	mov	r3, #0	; 0x0
    2a94:	e3a00016 	mov	r0, #22	; 0x16
    2a98:	e5c43000 	strb	r3, [r4]
    2a9c:	eb000a2b 	bl	5350 <uart0_transmit>
    2aa0:	e5d43000 	ldrb	r3, [r4]
    2aa4:	e2833005 	add	r3, r3, #5	; 0x5
    2aa8:	e3a00005 	mov	r0, #5	; 0x5
    2aac:	e5c43000 	strb	r3, [r4]
    2ab0:	eb000a26 	bl	5350 <uart0_transmit>
    2ab4:	e5d43000 	ldrb	r3, [r4]
    2ab8:	e51f6180 	ldr	r6, [pc, #-384]	; 2940 <.text+0x2940>
    2abc:	e283302a 	add	r3, r3, #42	; 0x2a
    2ac0:	e3a0002a 	mov	r0, #42	; 0x2a
    2ac4:	e5c43000 	strb	r3, [r4]
    2ac8:	eb000a20 	bl	5350 <uart0_transmit>
    2acc:	e5d63000 	ldrb	r3, [r6]
    2ad0:	e5d42000 	ldrb	r2, [r4]
    2ad4:	e1a00003 	mov	r0, r3
    2ad8:	e0833002 	add	r3, r3, r2
    2adc:	e5c43000 	strb	r3, [r4]
    2ae0:	eb000a1a 	bl	5350 <uart0_transmit>
    2ae4:	e5d63001 	ldrb	r3, [r6, #1]
    2ae8:	e5d42000 	ldrb	r2, [r4]
    2aec:	e1a00003 	mov	r0, r3
    2af0:	e0833002 	add	r3, r3, r2
    2af4:	e5c43000 	strb	r3, [r4]
    2af8:	eb000a14 	bl	5350 <uart0_transmit>
    2afc:	e5d42000 	ldrb	r2, [r4]
    2b00:	e5d63002 	ldrb	r3, [r6, #2]
    2b04:	e1a00003 	mov	r0, r3
    2b08:	e0833002 	add	r3, r3, r2
    2b0c:	e5c43000 	strb	r3, [r4]
    2b10:	eb000a0e 	bl	5350 <uart0_transmit>
    2b14:	e5d60003 	ldrb	r0, [r6, #3]
    2b18:	e5d43000 	ldrb	r3, [r4]
    2b1c:	e51f51e0 	ldr	r5, [pc, #-480]	; 2944 <.text+0x2944>
    2b20:	e0803003 	add	r3, r0, r3
    2b24:	e5c43000 	strb	r3, [r4]
    2b28:	eb000a08 	bl	5350 <uart0_transmit>
    2b2c:	e5d53000 	ldrb	r3, [r5]
    2b30:	e5d42000 	ldrb	r2, [r4]
    2b34:	e1a00003 	mov	r0, r3
    2b38:	e0833002 	add	r3, r3, r2
    2b3c:	e5c43000 	strb	r3, [r4]
    2b40:	eb000a02 	bl	5350 <uart0_transmit>
    2b44:	e5d53001 	ldrb	r3, [r5, #1]
    2b48:	e5d42000 	ldrb	r2, [r4]
    2b4c:	e1a00003 	mov	r0, r3
    2b50:	e0833002 	add	r3, r3, r2
    2b54:	e5c43000 	strb	r3, [r4]
    2b58:	eb0009fc 	bl	5350 <uart0_transmit>
    2b5c:	e5d53002 	ldrb	r3, [r5, #2]
    2b60:	e5d42000 	ldrb	r2, [r4]
    2b64:	e1a00003 	mov	r0, r3
    2b68:	e0833002 	add	r3, r3, r2
    2b6c:	e5c43000 	strb	r3, [r4]
    2b70:	eb0009f6 	bl	5350 <uart0_transmit>
    2b74:	e5d53003 	ldrb	r3, [r5, #3]
    2b78:	e5d42000 	ldrb	r2, [r4]
    2b7c:	e1a00003 	mov	r0, r3
    2b80:	e0833002 	add	r3, r3, r2
    2b84:	e5c43000 	strb	r3, [r4]
    2b88:	eb0009f0 	bl	5350 <uart0_transmit>
    2b8c:	e5d53000 	ldrb	r3, [r5]
    2b90:	e5d42000 	ldrb	r2, [r4]
    2b94:	e1a00003 	mov	r0, r3
    2b98:	e0833002 	add	r3, r3, r2
    2b9c:	e5c43000 	strb	r3, [r4]
    2ba0:	eb0009ea 	bl	5350 <uart0_transmit>
    2ba4:	e5d53001 	ldrb	r3, [r5, #1]
    2ba8:	e5d42000 	ldrb	r2, [r4]
    2bac:	e1a00003 	mov	r0, r3
    2bb0:	e0833002 	add	r3, r3, r2
    2bb4:	e5c43000 	strb	r3, [r4]
    2bb8:	eb0009e4 	bl	5350 <uart0_transmit>
    2bbc:	e5d53002 	ldrb	r3, [r5, #2]
    2bc0:	e5d42000 	ldrb	r2, [r4]
    2bc4:	e1a00003 	mov	r0, r3
    2bc8:	e0833002 	add	r3, r3, r2
    2bcc:	e5c43000 	strb	r3, [r4]
    2bd0:	eb0009de 	bl	5350 <uart0_transmit>
    2bd4:	e5d53003 	ldrb	r3, [r5, #3]
    2bd8:	e5d42000 	ldrb	r2, [r4]
    2bdc:	e1a00003 	mov	r0, r3
    2be0:	e0833002 	add	r3, r3, r2
    2be4:	e5c43000 	strb	r3, [r4]
    2be8:	eb0009d8 	bl	5350 <uart0_transmit>
    2bec:	e5d53000 	ldrb	r3, [r5]
    2bf0:	e5d42000 	ldrb	r2, [r4]
    2bf4:	e1a00003 	mov	r0, r3
    2bf8:	e0833002 	add	r3, r3, r2
    2bfc:	e5c43000 	strb	r3, [r4]
    2c00:	eb0009d2 	bl	5350 <uart0_transmit>
    2c04:	e5d53001 	ldrb	r3, [r5, #1]
    2c08:	e5d42000 	ldrb	r2, [r4]
    2c0c:	e1a00003 	mov	r0, r3
    2c10:	e0833002 	add	r3, r3, r2
    2c14:	e5c43000 	strb	r3, [r4]
    2c18:	eb0009cc 	bl	5350 <uart0_transmit>
    2c1c:	e5d53002 	ldrb	r3, [r5, #2]
    2c20:	e5d42000 	ldrb	r2, [r4]
    2c24:	e1a00003 	mov	r0, r3
    2c28:	e0833002 	add	r3, r3, r2
    2c2c:	e5c43000 	strb	r3, [r4]
    2c30:	eb0009c6 	bl	5350 <uart0_transmit>
    2c34:	e5d53003 	ldrb	r3, [r5, #3]
    2c38:	e5d42000 	ldrb	r2, [r4]
    2c3c:	e1a00003 	mov	r0, r3
    2c40:	e0833002 	add	r3, r3, r2
    2c44:	e5c43000 	strb	r3, [r4]
    2c48:	eb0009c0 	bl	5350 <uart0_transmit>
    2c4c:	e5d63000 	ldrb	r3, [r6]
    2c50:	e5d42000 	ldrb	r2, [r4]
    2c54:	e1a00003 	mov	r0, r3
    2c58:	e0833002 	add	r3, r3, r2
    2c5c:	e5c43000 	strb	r3, [r4]
    2c60:	eb0009ba 	bl	5350 <uart0_transmit>
    2c64:	e5d63001 	ldrb	r3, [r6, #1]
    2c68:	e5d42000 	ldrb	r2, [r4]
    2c6c:	e1a00003 	mov	r0, r3
    2c70:	e0833002 	add	r3, r3, r2
    2c74:	e5c43000 	strb	r3, [r4]
    2c78:	eb0009b4 	bl	5350 <uart0_transmit>
    2c7c:	e5d63002 	ldrb	r3, [r6, #2]
    2c80:	e5d42000 	ldrb	r2, [r4]
    2c84:	e1a00003 	mov	r0, r3
    2c88:	e0833002 	add	r3, r3, r2
    2c8c:	e5c43000 	strb	r3, [r4]
    2c90:	eb0009ae 	bl	5350 <uart0_transmit>
    2c94:	e5d63003 	ldrb	r3, [r6, #3]
    2c98:	e5d42000 	ldrb	r2, [r4]
    2c9c:	e1a00003 	mov	r0, r3
    2ca0:	e0833002 	add	r3, r3, r2
    2ca4:	e5c43000 	strb	r3, [r4]
    2ca8:	eb0009a8 	bl	5350 <uart0_transmit>
    2cac:	e3a000ff 	mov	r0, #255	; 0xff
    2cb0:	eb0009a6 	bl	5350 <uart0_transmit>
    2cb4:	e5da5000 	ldrb	r5, [sl]
    2cb8:	e355000c 	cmp	r5, #12	; 0xc
    2cbc:	1a000018 	bne	2d24 <.text+0x2d24>
    2cc0:	e51f3328 	ldr	r3, [pc, #-808]	; 29a0 <.text+0x29a0>
    2cc4:	e1d350b0 	ldrh	r5, [r3]
    2cc8:	e3550000 	cmp	r5, #0	; 0x0
    2ccc:	1a000323 	bne	3960 <.text+0x3960>
    2cd0:	e51f3390 	ldr	r3, [pc, #-912]	; 2948 <.text+0x2948>
    2cd4:	e5d33000 	ldrb	r3, [r3]
    2cd8:	e3530001 	cmp	r3, #1	; 0x1
    2cdc:	1a00031f 	bne	3960 <.text+0x3960>
    2ce0:	e3a00007 	mov	r0, #7	; 0x7
    2ce4:	eb000985 	bl	5300 <uart0_check_free_space>
    2ce8:	e31000ff 	tst	r0, #255	; 0xff
    2cec:	0a000317 	beq	3950 <.text+0x3950>
    2cf0:	e51f42b4 	ldr	r4, [pc, #-692]	; 2a44 <.text+0x2a44>
    2cf4:	e3a00002 	mov	r0, #2	; 0x2
    2cf8:	e5c45000 	strb	r5, [r4]
    2cfc:	eb000993 	bl	5350 <uart0_transmit>
    2d00:	e5d43000 	ldrb	r3, [r4]
    2d04:	e2833005 	add	r3, r3, #5	; 0x5
    2d08:	e3a00005 	mov	r0, #5	; 0x5
    2d0c:	e5c43000 	strb	r3, [r4]
    2d10:	eb00098e 	bl	5350 <uart0_transmit>
    2d14:	e5d43000 	ldrb	r3, [r4]
    2d18:	e3a00002 	mov	r0, #2	; 0x2
    2d1c:	e2833002 	add	r3, r3, #2	; 0x2
    2d20:	ea0002d5 	b	387c <.text+0x387c>
    2d24:	e3550012 	cmp	r5, #18	; 0x12
    2d28:	1a000019 	bne	2d94 <.text+0x2d94>
    2d2c:	e51f3394 	ldr	r3, [pc, #-916]	; 29a0 <.text+0x29a0>
    2d30:	e1d350b0 	ldrh	r5, [r3]
    2d34:	e3550000 	cmp	r5, #0	; 0x0
    2d38:	1a000308 	bne	3960 <.text+0x3960>
    2d3c:	e51f33fc 	ldr	r3, [pc, #-1020]	; 2948 <.text+0x2948>
    2d40:	e5d33000 	ldrb	r3, [r3]
    2d44:	e3530002 	cmp	r3, #2	; 0x2
    2d48:	1a000304 	bne	3960 <.text+0x3960>
    2d4c:	e3a00009 	mov	r0, #9	; 0x9
    2d50:	eb00096a 	bl	5300 <uart0_check_free_space>
    2d54:	e31000ff 	tst	r0, #255	; 0xff
    2d58:	0a0002fc 	beq	3950 <.text+0x3950>
    2d5c:	e51f4320 	ldr	r4, [pc, #-800]	; 2a44 <.text+0x2a44>
    2d60:	e3a00004 	mov	r0, #4	; 0x4
    2d64:	e5c45000 	strb	r5, [r4]
    2d68:	eb000978 	bl	5350 <uart0_transmit>
    2d6c:	e5d43000 	ldrb	r3, [r4]
    2d70:	e2833005 	add	r3, r3, #5	; 0x5
    2d74:	e3a00005 	mov	r0, #5	; 0x5
    2d78:	e5c43000 	strb	r3, [r4]
    2d7c:	eb000973 	bl	5350 <uart0_transmit>
    2d80:	e5d43000 	ldrb	r3, [r4]
    2d84:	e51f5440 	ldr	r5, [pc, #-1088]	; 294c <.text+0x294c>
    2d88:	e2833003 	add	r3, r3, #3	; 0x3
    2d8c:	e3a00003 	mov	r0, #3	; 0x3
    2d90:	ea0000bb 	b	3084 <.text+0x3084>
    2d94:	e3550018 	cmp	r5, #24	; 0x18
    2d98:	1a000089 	bne	2fc4 <.text+0x2fc4>
    2d9c:	e3a0001f 	mov	r0, #31	; 0x1f
    2da0:	eb000956 	bl	5300 <uart0_check_free_space>
    2da4:	e31000ff 	tst	r0, #255	; 0xff
    2da8:	0a0002e8 	beq	3950 <.text+0x3950>
    2dac:	e51f4370 	ldr	r4, [pc, #-880]	; 2a44 <.text+0x2a44>
    2db0:	e3a03000 	mov	r3, #0	; 0x0
    2db4:	e3a0001a 	mov	r0, #26	; 0x1a
    2db8:	e5c43000 	strb	r3, [r4]
    2dbc:	eb000963 	bl	5350 <uart0_transmit>
    2dc0:	e5d43000 	ldrb	r3, [r4]
    2dc4:	e2833005 	add	r3, r3, #5	; 0x5
    2dc8:	e3a00005 	mov	r0, #5	; 0x5
    2dcc:	e5c43000 	strb	r3, [r4]
    2dd0:	eb00095e 	bl	5350 <uart0_transmit>
    2dd4:	e5d43000 	ldrb	r3, [r4]
    2dd8:	e51f5490 	ldr	r5, [pc, #-1168]	; 2950 <.text+0x2950>
    2ddc:	e2833010 	add	r3, r3, #16	; 0x10
    2de0:	e3a00010 	mov	r0, #16	; 0x10
    2de4:	e5c43000 	strb	r3, [r4]
    2de8:	eb000958 	bl	5350 <uart0_transmit>
    2dec:	e5d53000 	ldrb	r3, [r5]
    2df0:	e5d42000 	ldrb	r2, [r4]
    2df4:	e1a00003 	mov	r0, r3
    2df8:	e0833002 	add	r3, r3, r2
    2dfc:	e5c43000 	strb	r3, [r4]
    2e00:	eb000952 	bl	5350 <uart0_transmit>
    2e04:	e5d53001 	ldrb	r3, [r5, #1]
    2e08:	e5d42000 	ldrb	r2, [r4]
    2e0c:	e1a00003 	mov	r0, r3
    2e10:	e0833002 	add	r3, r3, r2
    2e14:	e5c43000 	strb	r3, [r4]
    2e18:	eb00094c 	bl	5350 <uart0_transmit>
    2e1c:	e5d53002 	ldrb	r3, [r5, #2]
    2e20:	e5d42000 	ldrb	r2, [r4]
    2e24:	e1a00003 	mov	r0, r3
    2e28:	e0833002 	add	r3, r3, r2
    2e2c:	e5c43000 	strb	r3, [r4]
    2e30:	eb000946 	bl	5350 <uart0_transmit>
    2e34:	e5d50003 	ldrb	r0, [r5, #3]
    2e38:	e5d43000 	ldrb	r3, [r4]
    2e3c:	e51f54f0 	ldr	r5, [pc, #-1264]	; 2954 <.text+0x2954>
    2e40:	e0803003 	add	r3, r0, r3
    2e44:	e5c43000 	strb	r3, [r4]
    2e48:	eb000940 	bl	5350 <uart0_transmit>
    2e4c:	e5d53000 	ldrb	r3, [r5]
    2e50:	e5d42000 	ldrb	r2, [r4]
    2e54:	e1a00003 	mov	r0, r3
    2e58:	e0833002 	add	r3, r3, r2
    2e5c:	e5c43000 	strb	r3, [r4]
    2e60:	eb00093a 	bl	5350 <uart0_transmit>
    2e64:	e5d53001 	ldrb	r3, [r5, #1]
    2e68:	e5d42000 	ldrb	r2, [r4]
    2e6c:	e1a00003 	mov	r0, r3
    2e70:	e0833002 	add	r3, r3, r2
    2e74:	e5c43000 	strb	r3, [r4]
    2e78:	eb000934 	bl	5350 <uart0_transmit>
    2e7c:	e5d53002 	ldrb	r3, [r5, #2]
    2e80:	e5d42000 	ldrb	r2, [r4]
    2e84:	e1a00003 	mov	r0, r3
    2e88:	e0833002 	add	r3, r3, r2
    2e8c:	e5c43000 	strb	r3, [r4]
    2e90:	eb00092e 	bl	5350 <uart0_transmit>
    2e94:	e5d50003 	ldrb	r0, [r5, #3]
    2e98:	e5d43000 	ldrb	r3, [r4]
    2e9c:	e51f554c 	ldr	r5, [pc, #-1356]	; 2958 <.text+0x2958>
    2ea0:	e0803003 	add	r3, r0, r3
    2ea4:	e5c43000 	strb	r3, [r4]
    2ea8:	eb000928 	bl	5350 <uart0_transmit>
    2eac:	e5d53000 	ldrb	r3, [r5]
    2eb0:	e5d42000 	ldrb	r2, [r4]
    2eb4:	e1a00003 	mov	r0, r3
    2eb8:	e0833002 	add	r3, r3, r2
    2ebc:	e5c43000 	strb	r3, [r4]
    2ec0:	eb000922 	bl	5350 <uart0_transmit>
    2ec4:	e5d53001 	ldrb	r3, [r5, #1]
    2ec8:	e5d42000 	ldrb	r2, [r4]
    2ecc:	e1a00003 	mov	r0, r3
    2ed0:	e0833002 	add	r3, r3, r2
    2ed4:	e5c43000 	strb	r3, [r4]
    2ed8:	eb00091c 	bl	5350 <uart0_transmit>
    2edc:	e5d53002 	ldrb	r3, [r5, #2]
    2ee0:	e5d42000 	ldrb	r2, [r4]
    2ee4:	e1a00003 	mov	r0, r3
    2ee8:	e0833002 	add	r3, r3, r2
    2eec:	e5c43000 	strb	r3, [r4]
    2ef0:	eb000916 	bl	5350 <uart0_transmit>
    2ef4:	e5d50003 	ldrb	r0, [r5, #3]
    2ef8:	e5d43000 	ldrb	r3, [r4]
    2efc:	e51f55a8 	ldr	r5, [pc, #-1448]	; 295c <.text+0x295c>
    2f00:	e0803003 	add	r3, r0, r3
    2f04:	e5c43000 	strb	r3, [r4]
    2f08:	eb000910 	bl	5350 <uart0_transmit>
    2f0c:	e5d53000 	ldrb	r3, [r5]
    2f10:	e5d42000 	ldrb	r2, [r4]
    2f14:	e1a00003 	mov	r0, r3
    2f18:	e0833002 	add	r3, r3, r2
    2f1c:	e5c43000 	strb	r3, [r4]
    2f20:	eb00090a 	bl	5350 <uart0_transmit>
    2f24:	e5d53001 	ldrb	r3, [r5, #1]
    2f28:	e5d42000 	ldrb	r2, [r4]
    2f2c:	e1a00003 	mov	r0, r3
    2f30:	e0833002 	add	r3, r3, r2
    2f34:	e5c43000 	strb	r3, [r4]
    2f38:	eb000904 	bl	5350 <uart0_transmit>
    2f3c:	e5d53002 	ldrb	r3, [r5, #2]
    2f40:	e5d42000 	ldrb	r2, [r4]
    2f44:	e1a00003 	mov	r0, r3
    2f48:	e0833002 	add	r3, r3, r2
    2f4c:	e5c43000 	strb	r3, [r4]
    2f50:	eb0008fe 	bl	5350 <uart0_transmit>
    2f54:	e5d50003 	ldrb	r0, [r5, #3]
    2f58:	e5d43000 	ldrb	r3, [r4]
    2f5c:	e51f5604 	ldr	r5, [pc, #-1540]	; 2960 <.text+0x2960>
    2f60:	e0803003 	add	r3, r0, r3
    2f64:	e5c43000 	strb	r3, [r4]
    2f68:	eb0008f8 	bl	5350 <uart0_transmit>
    2f6c:	e5d53000 	ldrb	r3, [r5]
    2f70:	e5d42000 	ldrb	r2, [r4]
    2f74:	e1a00003 	mov	r0, r3
    2f78:	e0833002 	add	r3, r3, r2
    2f7c:	e5c43000 	strb	r3, [r4]
    2f80:	eb0008f2 	bl	5350 <uart0_transmit>
    2f84:	e5d53001 	ldrb	r3, [r5, #1]
    2f88:	e5d42000 	ldrb	r2, [r4]
    2f8c:	e1a00003 	mov	r0, r3
    2f90:	e0833002 	add	r3, r3, r2
    2f94:	e5c43000 	strb	r3, [r4]
    2f98:	eb0008ec 	bl	5350 <uart0_transmit>
    2f9c:	e5d53002 	ldrb	r3, [r5, #2]
    2fa0:	e5d42000 	ldrb	r2, [r4]
    2fa4:	e1a00003 	mov	r0, r3
    2fa8:	e0833002 	add	r3, r3, r2
    2fac:	e5c43000 	strb	r3, [r4]
    2fb0:	eb0008e6 	bl	5350 <uart0_transmit>
    2fb4:	e5d50003 	ldrb	r0, [r5, #3]
    2fb8:	e5d43000 	ldrb	r3, [r4]
    2fbc:	e51f5660 	ldr	r5, [pc, #-1632]	; 2964 <.text+0x2964>
    2fc0:	ea000214 	b	3818 <.text+0x3818>
    2fc4:	e355001e 	cmp	r5, #30	; 0x1e
    2fc8:	1a000037 	bne	30ac <.text+0x30ac>
    2fcc:	e51f366c 	ldr	r3, [pc, #-1644]	; 2968 <.text+0x2968>
    2fd0:	e5d33000 	ldrb	r3, [r3]
    2fd4:	e3530000 	cmp	r3, #0	; 0x0
    2fd8:	0a000260 	beq	3960 <.text+0x3960>
    2fdc:	e3a0000d 	mov	r0, #13	; 0xd
    2fe0:	eb0008c6 	bl	5300 <uart0_check_free_space>
    2fe4:	e31000ff 	tst	r0, #255	; 0xff
    2fe8:	0a000258 	beq	3950 <.text+0x3950>
    2fec:	e51f45b0 	ldr	r4, [pc, #-1456]	; 2a44 <.text+0x2a44>
    2ff0:	e3a03000 	mov	r3, #0	; 0x0
    2ff4:	e3a00008 	mov	r0, #8	; 0x8
    2ff8:	e5c43000 	strb	r3, [r4]
    2ffc:	eb0008d3 	bl	5350 <uart0_transmit>
    3000:	e5d43000 	ldrb	r3, [r4]
    3004:	e2833005 	add	r3, r3, #5	; 0x5
    3008:	e3a00005 	mov	r0, #5	; 0x5
    300c:	e5c43000 	strb	r3, [r4]
    3010:	eb0008ce 	bl	5350 <uart0_transmit>
    3014:	e5d43000 	ldrb	r3, [r4]
    3018:	e51f56b4 	ldr	r5, [pc, #-1716]	; 296c <.text+0x296c>
    301c:	e2833015 	add	r3, r3, #21	; 0x15
    3020:	e3a00015 	mov	r0, #21	; 0x15
    3024:	e5c43000 	strb	r3, [r4]
    3028:	eb0008c8 	bl	5350 <uart0_transmit>
    302c:	e5d53000 	ldrb	r3, [r5]
    3030:	e5d42000 	ldrb	r2, [r4]
    3034:	e1a00003 	mov	r0, r3
    3038:	e0833002 	add	r3, r3, r2
    303c:	e5c43000 	strb	r3, [r4]
    3040:	eb0008c2 	bl	5350 <uart0_transmit>
    3044:	e5d50001 	ldrb	r0, [r5, #1]
    3048:	e5d43000 	ldrb	r3, [r4]
    304c:	e51f56e4 	ldr	r5, [pc, #-1764]	; 2970 <.text+0x2970>
    3050:	e0803003 	add	r3, r0, r3
    3054:	e5c43000 	strb	r3, [r4]
    3058:	eb0008bc 	bl	5350 <uart0_transmit>
    305c:	e5d53000 	ldrb	r3, [r5]
    3060:	e5d42000 	ldrb	r2, [r4]
    3064:	e1a00003 	mov	r0, r3
    3068:	e0833002 	add	r3, r3, r2
    306c:	e5c43000 	strb	r3, [r4]
    3070:	eb0008b6 	bl	5350 <uart0_transmit>
    3074:	e5d50001 	ldrb	r0, [r5, #1]
    3078:	e5d43000 	ldrb	r3, [r4]
    307c:	e51f5710 	ldr	r5, [pc, #-1808]	; 2974 <.text+0x2974>
    3080:	e0803003 	add	r3, r0, r3
    3084:	e5c43000 	strb	r3, [r4]
    3088:	eb0008b0 	bl	5350 <uart0_transmit>
    308c:	e5d53000 	ldrb	r3, [r5]
    3090:	e5d42000 	ldrb	r2, [r4]
    3094:	e1a00003 	mov	r0, r3
    3098:	e0833002 	add	r3, r3, r2
    309c:	e5c43000 	strb	r3, [r4]
    30a0:	eb0008aa 	bl	5350 <uart0_transmit>
    30a4:	e5d53001 	ldrb	r3, [r5, #1]
    30a8:	ea0001f0 	b	3870 <.text+0x3870>
    30ac:	e3550024 	cmp	r5, #36	; 0x24
    30b0:	1a000039 	bne	319c <.text+0x319c>
    30b4:	e51f3744 	ldr	r3, [pc, #-1860]	; 2978 <.text+0x2978>
    30b8:	e5d33000 	ldrb	r3, [r3]
    30bc:	e3530000 	cmp	r3, #0	; 0x0
    30c0:	0a000226 	beq	3960 <.text+0x3960>
    30c4:	e3a0000f 	mov	r0, #15	; 0xf
    30c8:	eb00088c 	bl	5300 <uart0_check_free_space>
    30cc:	e31000ff 	tst	r0, #255	; 0xff
    30d0:	0a00021e 	beq	3950 <.text+0x3950>
    30d4:	e51f4698 	ldr	r4, [pc, #-1688]	; 2a44 <.text+0x2a44>
    30d8:	e3a03000 	mov	r3, #0	; 0x0
    30dc:	e3a0000a 	mov	r0, #10	; 0xa
    30e0:	e5c43000 	strb	r3, [r4]
    30e4:	eb000899 	bl	5350 <uart0_transmit>
    30e8:	e5d43000 	ldrb	r3, [r4]
    30ec:	e2833005 	add	r3, r3, #5	; 0x5
    30f0:	e3a00005 	mov	r0, #5	; 0x5
    30f4:	e5c43000 	strb	r3, [r4]
    30f8:	eb000894 	bl	5350 <uart0_transmit>
    30fc:	e5d43000 	ldrb	r3, [r4]
    3100:	e51f578c 	ldr	r5, [pc, #-1932]	; 297c <.text+0x297c>
    3104:	e2833016 	add	r3, r3, #22	; 0x16
    3108:	e3a00016 	mov	r0, #22	; 0x16
    310c:	e5c43000 	strb	r3, [r4]
    3110:	eb00088e 	bl	5350 <uart0_transmit>
    3114:	e5d53000 	ldrb	r3, [r5]
    3118:	e5d42000 	ldrb	r2, [r4]
    311c:	e1a00003 	mov	r0, r3
    3120:	e0833002 	add	r3, r3, r2
    3124:	e5c43000 	strb	r3, [r4]
    3128:	eb000888 	bl	5350 <uart0_transmit>
    312c:	e5d50001 	ldrb	r0, [r5, #1]
    3130:	e5d43000 	ldrb	r3, [r4]
    3134:	e51f57bc 	ldr	r5, [pc, #-1980]	; 2980 <.text+0x2980>
    3138:	e0803003 	add	r3, r0, r3
    313c:	e5c43000 	strb	r3, [r4]
    3140:	eb000882 	bl	5350 <uart0_transmit>
    3144:	e5d53000 	ldrb	r3, [r5]
    3148:	e5d42000 	ldrb	r2, [r4]
    314c:	e1a00003 	mov	r0, r3
    3150:	e0833002 	add	r3, r3, r2
    3154:	e5c43000 	strb	r3, [r4]
    3158:	eb00087c 	bl	5350 <uart0_transmit>
    315c:	e5d50001 	ldrb	r0, [r5, #1]
    3160:	e5d43000 	ldrb	r3, [r4]
    3164:	e51f57e8 	ldr	r5, [pc, #-2024]	; 2984 <.text+0x2984>
    3168:	e0803003 	add	r3, r0, r3
    316c:	e5c43000 	strb	r3, [r4]
    3170:	eb000876 	bl	5350 <uart0_transmit>
    3174:	e5d53000 	ldrb	r3, [r5]
    3178:	e5d42000 	ldrb	r2, [r4]
    317c:	e1a00003 	mov	r0, r3
    3180:	e0833002 	add	r3, r3, r2
    3184:	e5c43000 	strb	r3, [r4]
    3188:	eb000870 	bl	5350 <uart0_transmit>
    318c:	e5d50001 	ldrb	r0, [r5, #1]
    3190:	e5d43000 	ldrb	r3, [r4]
    3194:	e51f5814 	ldr	r5, [pc, #-2068]	; 2988 <.text+0x2988>
    3198:	eaffffb8 	b	3080 <.text+0x3080>
    319c:	e355002a 	cmp	r5, #42	; 0x2a
    31a0:	1a0000d3 	bne	34f4 <.text+0x34f4>
    31a4:	e51f5764 	ldr	r5, [pc, #-1892]	; 2a48 <.text+0x2a48>
    31a8:	e5d53000 	ldrb	r3, [r5]
    31ac:	e353002a 	cmp	r3, #42	; 0x2a
    31b0:	83a03000 	movhi	r3, #0	; 0x0
    31b4:	85c53000 	strhib	r3, [r5]
    31b8:	e5d53000 	ldrb	r3, [r5]
    31bc:	e353002a 	cmp	r3, #42	; 0x2a
    31c0:	979ff103 	ldrls	pc, [pc, r3, lsl #2]
    31c4:	ea00008f 	b	3408 <.text+0x3408>
    31c8:	00003274 	andeq	r3, r0, r4, ror r2
    31cc:	0000327c 	andeq	r3, r0, ip, ror r2
    31d0:	00003284 	andeq	r3, r0, r4, lsl #5
    31d4:	00003290 	muleq	r0, r0, r2
    31d8:	00003298 	muleq	r0, r8, r2
    31dc:	000032a0 	andeq	r3, r0, r0, lsr #5
    31e0:	000032c0 	andeq	r3, r0, r0, asr #5
    31e4:	000032c8 	andeq	r3, r0, r8, asr #5
    31e8:	000032d0 	ldreqd	r3, [r0], -r0
    31ec:	000032d8 	ldreqd	r3, [r0], -r8
    31f0:	000032e0 	andeq	r3, r0, r0, ror #5
    31f4:	000032e8 	andeq	r3, r0, r8, ror #5
    31f8:	000032f0 	streqd	r3, [r0], -r0
    31fc:	000032f8 	streqd	r3, [r0], -r8
    3200:	00003300 	andeq	r3, r0, r0, lsl #6
    3204:	00003308 	andeq	r3, r0, r8, lsl #6
    3208:	00003330 	andeq	r3, r0, r0, lsr r3
    320c:	00003338 	andeq	r3, r0, r8, lsr r3
    3210:	00003340 	andeq	r3, r0, r0, asr #6
    3214:	00003348 	andeq	r3, r0, r8, asr #6
    3218:	00003350 	andeq	r3, r0, r0, asr r3
    321c:	00003358 	andeq	r3, r0, r8, asr r3
    3220:	00003360 	andeq	r3, r0, r0, ror #6
    3224:	00003368 	andeq	r3, r0, r8, ror #6
    3228:	00003370 	andeq	r3, r0, r0, ror r3
    322c:	00003378 	andeq	r3, r0, r8, ror r3
    3230:	00003380 	andeq	r3, r0, r0, lsl #7
    3234:	00003388 	andeq	r3, r0, r8, lsl #7
    3238:	00003390 	muleq	r0, r0, r3
    323c:	00003398 	muleq	r0, r8, r3
    3240:	000033a0 	andeq	r3, r0, r0, lsr #7
    3244:	000033a8 	andeq	r3, r0, r8, lsr #7
    3248:	000033b0 	streqh	r3, [r0], -r0
    324c:	000033b8 	streqh	r3, [r0], -r8
    3250:	000033c0 	andeq	r3, r0, r0, asr #7
    3254:	000033c8 	andeq	r3, r0, r8, asr #7
    3258:	000033d0 	ldreqd	r3, [r0], -r0
    325c:	000033d8 	ldreqd	r3, [r0], -r8
    3260:	000033e0 	andeq	r3, r0, r0, ror #7
    3264:	000033e8 	andeq	r3, r0, r8, ror #7
    3268:	000033f0 	streqd	r3, [r0], -r0
    326c:	000033f8 	streqd	r3, [r0], -r8
    3270:	00003400 	andeq	r3, r0, r0, lsl #8
    3274:	e51f38f0 	ldr	r3, [pc, #-2288]	; 298c <.text+0x298c>
    3278:	ea000002 	b	3288 <.text+0x3288>
    327c:	e51f38f4 	ldr	r3, [pc, #-2292]	; 2990 <.text+0x2990>
    3280:	ea000021 	b	330c <.text+0x330c>
    3284:	e51f38f8 	ldr	r3, [pc, #-2296]	; 2994 <.text+0x2994>
    3288:	e5933000 	ldr	r3, [r3]
    328c:	ea00005e 	b	340c <.text+0x340c>
    3290:	e51f3900 	ldr	r3, [pc, #-2304]	; 2998 <.text+0x2998>
    3294:	eafffffb 	b	3288 <.text+0x3288>
    3298:	e51f3904 	ldr	r3, [pc, #-2308]	; 299c <.text+0x299c>
    329c:	ea00001a 	b	330c <.text+0x330c>
    32a0:	e51f3908 	ldr	r3, [pc, #-2312]	; 29a0 <.text+0x29a0>
    32a4:	e1d340f0 	ldrsh	r4, [r3]
    32a8:	e1a00004 	mov	r0, r4
    32ac:	eb00303a 	bl	f39c <__floatsisf>
    32b0:	e3540000 	cmp	r4, #0	; 0x0
    32b4:	b51f1918 	ldrlt	r1, [pc, #-2328]	; 29a4 <.text+0x29a4>
    32b8:	ba000019 	blt	3324 <.text+0x3324>
    32bc:	ea000019 	b	3328 <.text+0x3328>
    32c0:	e51f3920 	ldr	r3, [pc, #-2336]	; 29a8 <.text+0x29a8>
    32c4:	ea000010 	b	330c <.text+0x330c>
    32c8:	e51f3924 	ldr	r3, [pc, #-2340]	; 29ac <.text+0x29ac>
    32cc:	ea00000e 	b	330c <.text+0x330c>
    32d0:	e51f3928 	ldr	r3, [pc, #-2344]	; 29b0 <.text+0x29b0>
    32d4:	eaffffeb 	b	3288 <.text+0x3288>
    32d8:	e51f392c 	ldr	r3, [pc, #-2348]	; 29b4 <.text+0x29b4>
    32dc:	eaffffe9 	b	3288 <.text+0x3288>
    32e0:	e51f3930 	ldr	r3, [pc, #-2352]	; 29b8 <.text+0x29b8>
    32e4:	eaffffe7 	b	3288 <.text+0x3288>
    32e8:	e51f3934 	ldr	r3, [pc, #-2356]	; 29bc <.text+0x29bc>
    32ec:	eaffffe5 	b	3288 <.text+0x3288>
    32f0:	e51f3938 	ldr	r3, [pc, #-2360]	; 29c0 <.text+0x29c0>
    32f4:	eaffffe3 	b	3288 <.text+0x3288>
    32f8:	e51f393c 	ldr	r3, [pc, #-2364]	; 29c4 <.text+0x29c4>
    32fc:	eaffffe1 	b	3288 <.text+0x3288>
    3300:	e51f3940 	ldr	r3, [pc, #-2368]	; 29c8 <.text+0x29c8>
    3304:	ea000000 	b	330c <.text+0x330c>
    3308:	e51f3944 	ldr	r3, [pc, #-2372]	; 29cc <.text+0x29cc>
    330c:	e1d340d0 	ldrsb	r4, [r3]
    3310:	e1a00004 	mov	r0, r4
    3314:	eb003020 	bl	f39c <__floatsisf>
    3318:	e3540000 	cmp	r4, #0	; 0x0
    331c:	aa000001 	bge	3328 <.text+0x3328>
    3320:	e51f1958 	ldr	r1, [pc, #-2392]	; 29d0 <.text+0x29d0>
    3324:	eb002faa 	bl	f1d4 <__addsf3>
    3328:	e50b0044 	str	r0, [fp, #-68]
    332c:	ea000037 	b	3410 <.text+0x3410>
    3330:	e51f3964 	ldr	r3, [pc, #-2404]	; 29d4 <.text+0x29d4>
    3334:	eaffffd3 	b	3288 <.text+0x3288>
    3338:	e51f3968 	ldr	r3, [pc, #-2408]	; 29d8 <.text+0x29d8>
    333c:	eaffffd1 	b	3288 <.text+0x3288>
    3340:	e51f396c 	ldr	r3, [pc, #-2412]	; 29dc <.text+0x29dc>
    3344:	eaffffcf 	b	3288 <.text+0x3288>
    3348:	e51f3970 	ldr	r3, [pc, #-2416]	; 29e0 <.text+0x29e0>
    334c:	eaffffcd 	b	3288 <.text+0x3288>
    3350:	e51f3974 	ldr	r3, [pc, #-2420]	; 29e4 <.text+0x29e4>
    3354:	eaffffcb 	b	3288 <.text+0x3288>
    3358:	e51f3978 	ldr	r3, [pc, #-2424]	; 29e8 <.text+0x29e8>
    335c:	eaffffc9 	b	3288 <.text+0x3288>
    3360:	e51f397c 	ldr	r3, [pc, #-2428]	; 29ec <.text+0x29ec>
    3364:	eaffffc7 	b	3288 <.text+0x3288>
    3368:	e51f3980 	ldr	r3, [pc, #-2432]	; 29f0 <.text+0x29f0>
    336c:	eaffffc5 	b	3288 <.text+0x3288>
    3370:	e51f3984 	ldr	r3, [pc, #-2436]	; 29f4 <.text+0x29f4>
    3374:	eaffffc3 	b	3288 <.text+0x3288>
    3378:	e51f3988 	ldr	r3, [pc, #-2440]	; 29f8 <.text+0x29f8>
    337c:	eaffffc1 	b	3288 <.text+0x3288>
    3380:	e51f398c 	ldr	r3, [pc, #-2444]	; 29fc <.text+0x29fc>
    3384:	eaffffbf 	b	3288 <.text+0x3288>
    3388:	e51f3990 	ldr	r3, [pc, #-2448]	; 2a00 <.text+0x2a00>
    338c:	eaffffbd 	b	3288 <.text+0x3288>
    3390:	e51f3994 	ldr	r3, [pc, #-2452]	; 2a04 <.text+0x2a04>
    3394:	eaffffbb 	b	3288 <.text+0x3288>
    3398:	e51f3998 	ldr	r3, [pc, #-2456]	; 2a08 <.text+0x2a08>
    339c:	eaffffb9 	b	3288 <.text+0x3288>
    33a0:	e51f399c 	ldr	r3, [pc, #-2460]	; 2a0c <.text+0x2a0c>
    33a4:	eaffffb7 	b	3288 <.text+0x3288>
    33a8:	e51f39a0 	ldr	r3, [pc, #-2464]	; 2a10 <.text+0x2a10>
    33ac:	eaffffb5 	b	3288 <.text+0x3288>
    33b0:	e51f39a4 	ldr	r3, [pc, #-2468]	; 2a14 <.text+0x2a14>
    33b4:	eaffffb3 	b	3288 <.text+0x3288>
    33b8:	e51f39a8 	ldr	r3, [pc, #-2472]	; 2a18 <.text+0x2a18>
    33bc:	eaffffb1 	b	3288 <.text+0x3288>
    33c0:	e51f39ac 	ldr	r3, [pc, #-2476]	; 2a1c <.text+0x2a1c>
    33c4:	eaffffaf 	b	3288 <.text+0x3288>
    33c8:	e51f39b0 	ldr	r3, [pc, #-2480]	; 2a20 <.text+0x2a20>
    33cc:	eaffffad 	b	3288 <.text+0x3288>
    33d0:	e51f39b4 	ldr	r3, [pc, #-2484]	; 2a24 <.text+0x2a24>
    33d4:	eaffffab 	b	3288 <.text+0x3288>
    33d8:	e51f39b8 	ldr	r3, [pc, #-2488]	; 2a28 <.text+0x2a28>
    33dc:	eaffffa9 	b	3288 <.text+0x3288>
    33e0:	e51f39bc 	ldr	r3, [pc, #-2492]	; 2a2c <.text+0x2a2c>
    33e4:	eaffffa7 	b	3288 <.text+0x3288>
    33e8:	e51f39c0 	ldr	r3, [pc, #-2496]	; 2a30 <.text+0x2a30>
    33ec:	eaffffa5 	b	3288 <.text+0x3288>
    33f0:	e51f39c4 	ldr	r3, [pc, #-2500]	; 2a34 <.text+0x2a34>
    33f4:	eaffffa3 	b	3288 <.text+0x3288>
    33f8:	e51f39c8 	ldr	r3, [pc, #-2504]	; 2a38 <.text+0x2a38>
    33fc:	eaffffa1 	b	3288 <.text+0x3288>
    3400:	e51f39cc 	ldr	r3, [pc, #-2508]	; 2a3c <.text+0x2a3c>
    3404:	eaffff9f 	b	3288 <.text+0x3288>
    3408:	e3a03000 	mov	r3, #0	; 0x0
    340c:	e50b3044 	str	r3, [fp, #-68]
    3410:	e3a0000c 	mov	r0, #12	; 0xc
    3414:	eb0007b9 	bl	5300 <uart0_check_free_space>
    3418:	e31000ff 	tst	r0, #255	; 0xff
    341c:	051f29e4 	ldreq	r2, [pc, #-2532]	; 2a40 <.text+0x2a40>
    3420:	05d23000 	ldreqb	r3, [r2]
    3424:	02833001 	addeq	r3, r3, #1	; 0x1
    3428:	05c23000 	streqb	r3, [r2]
    342c:	0a00002e 	beq	34ec <.text+0x34ec>
    3430:	e51f49f4 	ldr	r4, [pc, #-2548]	; 2a44 <.text+0x2a44>
    3434:	e3a03000 	mov	r3, #0	; 0x0
    3438:	e3a00007 	mov	r0, #7	; 0x7
    343c:	e5c43000 	strb	r3, [r4]
    3440:	eb0007c2 	bl	5350 <uart0_transmit>
    3444:	e5d43000 	ldrb	r3, [r4]
    3448:	e2833005 	add	r3, r3, #5	; 0x5
    344c:	e3a00005 	mov	r0, #5	; 0x5
    3450:	e5c43000 	strb	r3, [r4]
    3454:	eb0007bd 	bl	5350 <uart0_transmit>
    3458:	e5d43000 	ldrb	r3, [r4]
    345c:	e283301f 	add	r3, r3, #31	; 0x1f
    3460:	e3a0001f 	mov	r0, #31	; 0x1f
    3464:	e5c43000 	strb	r3, [r4]
    3468:	eb0007b8 	bl	5350 <uart0_transmit>
    346c:	e5d53000 	ldrb	r3, [r5]
    3470:	e5d42000 	ldrb	r2, [r4]
    3474:	e1a00003 	mov	r0, r3
    3478:	e0833002 	add	r3, r3, r2
    347c:	e5c43000 	strb	r3, [r4]
    3480:	eb0007b2 	bl	5350 <uart0_transmit>
    3484:	e55b3044 	ldrb	r3, [fp, #-68]
    3488:	e5d42000 	ldrb	r2, [r4]
    348c:	e1a00003 	mov	r0, r3
    3490:	e0833002 	add	r3, r3, r2
    3494:	e5c43000 	strb	r3, [r4]
    3498:	eb0007ac 	bl	5350 <uart0_transmit>
    349c:	e55b3043 	ldrb	r3, [fp, #-67]
    34a0:	e5d42000 	ldrb	r2, [r4]
    34a4:	e1a00003 	mov	r0, r3
    34a8:	e0833002 	add	r3, r3, r2
    34ac:	e5c43000 	strb	r3, [r4]
    34b0:	eb0007a6 	bl	5350 <uart0_transmit>
    34b4:	e55b3042 	ldrb	r3, [fp, #-66]
    34b8:	e5d42000 	ldrb	r2, [r4]
    34bc:	e1a00003 	mov	r0, r3
    34c0:	e0833002 	add	r3, r3, r2
    34c4:	e5c43000 	strb	r3, [r4]
    34c8:	eb0007a0 	bl	5350 <uart0_transmit>
    34cc:	e55b3041 	ldrb	r3, [fp, #-65]
    34d0:	e5d42000 	ldrb	r2, [r4]
    34d4:	e1a00003 	mov	r0, r3
    34d8:	e0833002 	add	r3, r3, r2
    34dc:	e5c43000 	strb	r3, [r4]
    34e0:	eb00079a 	bl	5350 <uart0_transmit>
    34e4:	e3a000ff 	mov	r0, #255	; 0xff
    34e8:	eb000798 	bl	5350 <uart0_transmit>
    34ec:	e51f2aac 	ldr	r2, [pc, #-2732]	; 2a48 <.text+0x2a48>
    34f0:	ea000117 	b	3954 <.text+0x3954>
    34f4:	e3550030 	cmp	r5, #48	; 0x30
    34f8:	1a000034 	bne	35d0 <.text+0x35d0>
    34fc:	e51f3ab8 	ldr	r3, [pc, #-2744]	; 2a4c <.text+0x2a4c>
    3500:	e5930000 	ldr	r0, [r3]
    3504:	eb002d3b 	bl	e9f8 <__extendsfdf2>
    3508:	e28f2d0e 	add	r2, pc, #896	; 0x380
    350c:	e892000c 	ldmia	r2, {r2, r3}
    3510:	eb002de9 	bl	ecbc <__divdf3>
    3514:	e28f2fdf 	add	r2, pc, #892	; 0x37c
    3518:	e892000c 	ldmia	r2, {r2, r3}
    351c:	eb002d48 	bl	ea44 <__muldf3>
    3520:	eb002eaf 	bl	efe4 <__fixdfsi>
    3524:	e14b03b0 	strh	r0, [fp, #-48]
    3528:	e3a0000f 	mov	r0, #15	; 0xf
    352c:	eb000773 	bl	5300 <uart0_check_free_space>
    3530:	e31000ff 	tst	r0, #255	; 0xff
    3534:	0a000105 	beq	3950 <.text+0x3950>
    3538:	e59f4408 	ldr	r4, [pc, #1032]	; 3948 <.text+0x3948>
    353c:	e3a03000 	mov	r3, #0	; 0x0
    3540:	e3a0000a 	mov	r0, #10	; 0xa
    3544:	e5c43000 	strb	r3, [r4]
    3548:	eb000780 	bl	5350 <uart0_transmit>
    354c:	e5d43000 	ldrb	r3, [r4]
    3550:	e2833005 	add	r3, r3, #5	; 0x5
    3554:	e3a00005 	mov	r0, #5	; 0x5
    3558:	e5c43000 	strb	r3, [r4]
    355c:	eb00077b 	bl	5350 <uart0_transmit>
    3560:	e5d43000 	ldrb	r3, [r4]
    3564:	e59f5334 	ldr	r5, [pc, #820]	; 38a0 <.text+0x38a0>
    3568:	e2833005 	add	r3, r3, #5	; 0x5
    356c:	e3a00005 	mov	r0, #5	; 0x5
    3570:	e5c43000 	strb	r3, [r4]
    3574:	eb000775 	bl	5350 <uart0_transmit>
    3578:	e5d53000 	ldrb	r3, [r5]
    357c:	e5d42000 	ldrb	r2, [r4]
    3580:	e1a00003 	mov	r0, r3
    3584:	e0833002 	add	r3, r3, r2
    3588:	e5c43000 	strb	r3, [r4]
    358c:	eb00076f 	bl	5350 <uart0_transmit>
    3590:	e5d53001 	ldrb	r3, [r5, #1]
    3594:	e5d42000 	ldrb	r2, [r4]
    3598:	e1a00003 	mov	r0, r3
    359c:	e0833002 	add	r3, r3, r2
    35a0:	e5c43000 	strb	r3, [r4]
    35a4:	eb000769 	bl	5350 <uart0_transmit>
    35a8:	e55b3030 	ldrb	r3, [fp, #-48]
    35ac:	e5d42000 	ldrb	r2, [r4]
    35b0:	e1a00003 	mov	r0, r3
    35b4:	e0833002 	add	r3, r3, r2
    35b8:	e5c43000 	strb	r3, [r4]
    35bc:	eb000763 	bl	5350 <uart0_transmit>
    35c0:	e59f52dc 	ldr	r5, [pc, #732]	; 38a4 <.text+0x38a4>
    35c4:	e55b002f 	ldrb	r0, [fp, #-47]
    35c8:	e5d43000 	ldrb	r3, [r4]
    35cc:	ea000091 	b	3818 <.text+0x3818>
    35d0:	e3550036 	cmp	r5, #54	; 0x36
    35d4:	1a000029 	bne	3680 <.text+0x3680>
    35d8:	e3a0000d 	mov	r0, #13	; 0xd
    35dc:	eb000747 	bl	5300 <uart0_check_free_space>
    35e0:	e31000ff 	tst	r0, #255	; 0xff
    35e4:	0a0000d9 	beq	3950 <.text+0x3950>
    35e8:	e59f4358 	ldr	r4, [pc, #856]	; 3948 <.text+0x3948>
    35ec:	e3a03000 	mov	r3, #0	; 0x0
    35f0:	e3a00008 	mov	r0, #8	; 0x8
    35f4:	e5c43000 	strb	r3, [r4]
    35f8:	eb000754 	bl	5350 <uart0_transmit>
    35fc:	e5d43000 	ldrb	r3, [r4]
    3600:	e2833005 	add	r3, r3, #5	; 0x5
    3604:	e3a00005 	mov	r0, #5	; 0x5
    3608:	e5c43000 	strb	r3, [r4]
    360c:	eb00074f 	bl	5350 <uart0_transmit>
    3610:	e5d43000 	ldrb	r3, [r4]
    3614:	e59f528c 	ldr	r5, [pc, #652]	; 38a8 <.text+0x38a8>
    3618:	e2833007 	add	r3, r3, #7	; 0x7
    361c:	e3a00007 	mov	r0, #7	; 0x7
    3620:	e5c43000 	strb	r3, [r4]
    3624:	eb000749 	bl	5350 <uart0_transmit>
    3628:	e5d53000 	ldrb	r3, [r5]
    362c:	e5d42000 	ldrb	r2, [r4]
    3630:	e1a00003 	mov	r0, r3
    3634:	e0833002 	add	r3, r3, r2
    3638:	e5c43000 	strb	r3, [r4]
    363c:	eb000743 	bl	5350 <uart0_transmit>
    3640:	e5d50001 	ldrb	r0, [r5, #1]
    3644:	e5d43000 	ldrb	r3, [r4]
    3648:	e59f5250 	ldr	r5, [pc, #592]	; 38a0 <.text+0x38a0>
    364c:	e0803003 	add	r3, r0, r3
    3650:	e5c43000 	strb	r3, [r4]
    3654:	eb00073d 	bl	5350 <uart0_transmit>
    3658:	e5d53000 	ldrb	r3, [r5]
    365c:	e5d42000 	ldrb	r2, [r4]
    3660:	e1a00003 	mov	r0, r3
    3664:	e0833002 	add	r3, r3, r2
    3668:	e5c43000 	strb	r3, [r4]
    366c:	eb000737 	bl	5350 <uart0_transmit>
    3670:	e5d50001 	ldrb	r0, [r5, #1]
    3674:	e5d43000 	ldrb	r3, [r4]
    3678:	e59f522c 	ldr	r5, [pc, #556]	; 38ac <.text+0x38ac>
    367c:	eafffe7f 	b	3080 <.text+0x3080>
    3680:	e3550000 	cmp	r5, #0	; 0x0
    3684:	1a0000b5 	bne	3960 <.text+0x3960>
    3688:	e3a00019 	mov	r0, #25	; 0x19
    368c:	eb00071b 	bl	5300 <uart0_check_free_space>
    3690:	e31000ff 	tst	r0, #255	; 0xff
    3694:	0a0000ad 	beq	3950 <.text+0x3950>
    3698:	e59f42a8 	ldr	r4, [pc, #680]	; 3948 <.text+0x3948>
    369c:	e3a00014 	mov	r0, #20	; 0x14
    36a0:	e5c45000 	strb	r5, [r4]
    36a4:	eb000729 	bl	5350 <uart0_transmit>
    36a8:	e5d43000 	ldrb	r3, [r4]
    36ac:	e2833005 	add	r3, r3, #5	; 0x5
    36b0:	e3a00005 	mov	r0, #5	; 0x5
    36b4:	e5c43000 	strb	r3, [r4]
    36b8:	eb000724 	bl	5350 <uart0_transmit>
    36bc:	e5d43000 	ldrb	r3, [r4]
    36c0:	e59f51e8 	ldr	r5, [pc, #488]	; 38b0 <.text+0x38b0>
    36c4:	e2833024 	add	r3, r3, #36	; 0x24
    36c8:	e3a00024 	mov	r0, #36	; 0x24
    36cc:	e5c43000 	strb	r3, [r4]
    36d0:	eb00071e 	bl	5350 <uart0_transmit>
    36d4:	e5d53000 	ldrb	r3, [r5]
    36d8:	e5d42000 	ldrb	r2, [r4]
    36dc:	e1a00003 	mov	r0, r3
    36e0:	e0833002 	add	r3, r3, r2
    36e4:	e5c43000 	strb	r3, [r4]
    36e8:	eb000718 	bl	5350 <uart0_transmit>
    36ec:	e5d50001 	ldrb	r0, [r5, #1]
    36f0:	e5d43000 	ldrb	r3, [r4]
    36f4:	e59f51b8 	ldr	r5, [pc, #440]	; 38b4 <.text+0x38b4>
    36f8:	e0803003 	add	r3, r0, r3
    36fc:	e5c43000 	strb	r3, [r4]
    3700:	eb000712 	bl	5350 <uart0_transmit>
    3704:	e5d53000 	ldrb	r3, [r5]
    3708:	e5d42000 	ldrb	r2, [r4]
    370c:	e1a00003 	mov	r0, r3
    3710:	e0833002 	add	r3, r3, r2
    3714:	e5c43000 	strb	r3, [r4]
    3718:	eb00070c 	bl	5350 <uart0_transmit>
    371c:	e5d50001 	ldrb	r0, [r5, #1]
    3720:	e5d43000 	ldrb	r3, [r4]
    3724:	e59f518c 	ldr	r5, [pc, #396]	; 38b8 <.text+0x38b8>
    3728:	e0803003 	add	r3, r0, r3
    372c:	e5c43000 	strb	r3, [r4]
    3730:	eb000706 	bl	5350 <uart0_transmit>
    3734:	e5d53000 	ldrb	r3, [r5]
    3738:	e5d42000 	ldrb	r2, [r4]
    373c:	e1a00003 	mov	r0, r3
    3740:	e0833002 	add	r3, r3, r2
    3744:	e5c43000 	strb	r3, [r4]
    3748:	eb000700 	bl	5350 <uart0_transmit>
    374c:	e5d50001 	ldrb	r0, [r5, #1]
    3750:	e5d43000 	ldrb	r3, [r4]
    3754:	e59f5160 	ldr	r5, [pc, #352]	; 38bc <.text+0x38bc>
    3758:	e0803003 	add	r3, r0, r3
    375c:	e5c43000 	strb	r3, [r4]
    3760:	eb0006fa 	bl	5350 <uart0_transmit>
    3764:	e5d53000 	ldrb	r3, [r5]
    3768:	e5d42000 	ldrb	r2, [r4]
    376c:	e1a00003 	mov	r0, r3
    3770:	e0833002 	add	r3, r3, r2
    3774:	e5c43000 	strb	r3, [r4]
    3778:	eb0006f4 	bl	5350 <uart0_transmit>
    377c:	e5d53001 	ldrb	r3, [r5, #1]
    3780:	e5d42000 	ldrb	r2, [r4]
    3784:	e1a00003 	mov	r0, r3
    3788:	e0833002 	add	r3, r3, r2
    378c:	e5c43000 	strb	r3, [r4]
    3790:	eb0006ee 	bl	5350 <uart0_transmit>
    3794:	e5d53002 	ldrb	r3, [r5, #2]
    3798:	e5d42000 	ldrb	r2, [r4]
    379c:	e1a00003 	mov	r0, r3
    37a0:	e0833002 	add	r3, r3, r2
    37a4:	e5c43000 	strb	r3, [r4]
    37a8:	eb0006e8 	bl	5350 <uart0_transmit>
    37ac:	e5d50003 	ldrb	r0, [r5, #3]
    37b0:	e5d43000 	ldrb	r3, [r4]
    37b4:	e59f5104 	ldr	r5, [pc, #260]	; 38c0 <.text+0x38c0>
    37b8:	e0803003 	add	r3, r0, r3
    37bc:	e5c43000 	strb	r3, [r4]
    37c0:	eb0006e2 	bl	5350 <uart0_transmit>
    37c4:	e5d53000 	ldrb	r3, [r5]
    37c8:	e5d42000 	ldrb	r2, [r4]
    37cc:	e1a00003 	mov	r0, r3
    37d0:	e0833002 	add	r3, r3, r2
    37d4:	e5c43000 	strb	r3, [r4]
    37d8:	eb0006dc 	bl	5350 <uart0_transmit>
    37dc:	e5d53001 	ldrb	r3, [r5, #1]
    37e0:	e5d42000 	ldrb	r2, [r4]
    37e4:	e1a00003 	mov	r0, r3
    37e8:	e0833002 	add	r3, r3, r2
    37ec:	e5c43000 	strb	r3, [r4]
    37f0:	eb0006d6 	bl	5350 <uart0_transmit>
    37f4:	e5d53002 	ldrb	r3, [r5, #2]
    37f8:	e5d42000 	ldrb	r2, [r4]
    37fc:	e1a00003 	mov	r0, r3
    3800:	e0833002 	add	r3, r3, r2
    3804:	e5c43000 	strb	r3, [r4]
    3808:	eb0006d0 	bl	5350 <uart0_transmit>
    380c:	e5d50003 	ldrb	r0, [r5, #3]
    3810:	e5d43000 	ldrb	r3, [r4]
    3814:	e59f50a8 	ldr	r5, [pc, #168]	; 38c4 <.text+0x38c4>
    3818:	e0803003 	add	r3, r0, r3
    381c:	e5c43000 	strb	r3, [r4]
    3820:	eb0006ca 	bl	5350 <uart0_transmit>
    3824:	e5d53000 	ldrb	r3, [r5]
    3828:	e5d42000 	ldrb	r2, [r4]
    382c:	e1a00003 	mov	r0, r3
    3830:	e0833002 	add	r3, r3, r2
    3834:	e5c43000 	strb	r3, [r4]
    3838:	eb0006c4 	bl	5350 <uart0_transmit>
    383c:	e5d53001 	ldrb	r3, [r5, #1]
    3840:	e5d42000 	ldrb	r2, [r4]
    3844:	e1a00003 	mov	r0, r3
    3848:	e0833002 	add	r3, r3, r2
    384c:	e5c43000 	strb	r3, [r4]
    3850:	eb0006be 	bl	5350 <uart0_transmit>
    3854:	e5d53002 	ldrb	r3, [r5, #2]
    3858:	e5d42000 	ldrb	r2, [r4]
    385c:	e1a00003 	mov	r0, r3
    3860:	e0833002 	add	r3, r3, r2
    3864:	e5c43000 	strb	r3, [r4]
    3868:	eb0006b8 	bl	5350 <uart0_transmit>
    386c:	e5d53003 	ldrb	r3, [r5, #3]
    3870:	e5d42000 	ldrb	r2, [r4]
    3874:	e1a00003 	mov	r0, r3
    3878:	e0833002 	add	r3, r3, r2
    387c:	e5c43000 	strb	r3, [r4]
    3880:	eb0006b2 	bl	5350 <uart0_transmit>
    3884:	e3a000ff 	mov	r0, #255	; 0xff
    3888:	eb0006b0 	bl	5350 <uart0_transmit>
    388c:	ea000033 	b	3960 <.text+0x3960>
    3890:	400921fb 	strmid	r2, [r9], -fp
    3894:	54442d18 	strplb	r2, [r4], #-3352
    3898:	409c2000 	addmis	r2, ip, r0
    389c:	00000000 	andeq	r0, r0, r0
    38a0:	40001020 	andmi	r1, r0, r0, lsr #32
    38a4:	40000fe8 	andmi	r0, r0, r8, ror #31
    38a8:	40000fe4 	andmi	r0, r0, r4, ror #31
    38ac:	40000fde 	ldrmid	r0, [r0], -lr
    38b0:	40001250 	andmi	r1, r0, r0, asr r2
    38b4:	4000125e 	andmi	r1, r0, lr, asr r2
    38b8:	4000125c 	andmi	r1, r0, ip, asr r2
    38bc:	4000104c 	andmi	r1, r0, ip, asr #32
    38c0:	40001068 	andmi	r1, r0, r8, rrx
    38c4:	4000105c 	andmi	r1, r0, ip, asr r0
    38c8:	40000a0c 	andmi	r0, r0, ip, lsl #20
    38cc:	400011ec 	andmi	r1, r0, ip, ror #3
    38d0:	40000a1c 	andmi	r0, r0, ip, lsl sl
    38d4:	400004aa 	andmi	r0, r0, sl, lsr #9
    38d8:	400010de 	ldrmid	r1, [r0], -lr
    38dc:	400010dc 	ldrmid	r1, [r0], -ip
    38e0:	400011a8 	andmi	r1, r0, r8, lsr #3
    38e4:	400011f4 	strmid	r1, [r0], -r4
    38e8:	40001148 	andmi	r1, r0, r8, asr #2
    38ec:	400011ac 	andmi	r1, r0, ip, lsr #3
    38f0:	40001118 	andmi	r1, r0, r8, lsl r1
    38f4:	40001134 	andmi	r1, r0, r4, lsr r1
    38f8:	400011dc 	ldrmid	r1, [r0], -ip
    38fc:	40001006 	andmi	r1, r0, r6
    3900:	40000fdc 	ldrmid	r0, [r0], -ip
    3904:	400004bc 	strmih	r0, [r0], -ip
    3908:	40000003 	andmi	r0, r0, r3
    390c:	400011c4 	andmi	r1, r0, r4, asr #3
    3910:	400004ac 	andmi	r0, r0, ip, lsr #9
    3914:	400010ac 	andmi	r1, r0, ip, lsr #1
    3918:	400004ae 	andmi	r0, r0, lr, lsr #9
    391c:	400004cc 	andmi	r0, r0, ip, asr #9
    3920:	400004ab 	andmi	r0, r0, fp, lsr #9
    3924:	400004be 	strmih	r0, [r0], -lr
    3928:	40000a8b 	andmi	r0, r0, fp, lsl #21
    392c:	40000080 	andmi	r0, r0, r0, lsl #1
    3930:	4000007c 	andmi	r0, r0, ip, ror r0
    3934:	40000078 	andmi	r0, r0, r8, ror r0
    3938:	400004e8 	andmi	r0, r0, r8, ror #9
    393c:	400004c2 	andmi	r0, r0, r2, asr #9
    3940:	40001030 	andmi	r1, r0, r0, lsr r0
    3944:	4000056c 	andmi	r0, r0, ip, ror #10
    3948:	40000d25 	andmi	r0, r0, r5, lsr #26
    394c:	40001058 	andmi	r1, r0, r8, asr r0
    3950:	e51f2030 	ldr	r2, [pc, #-48]	; 3928 <.text+0x3928>
    3954:	e5d23000 	ldrb	r3, [r2]
    3958:	e2833001 	add	r3, r3, #1	; 0x1
    395c:	e5c23000 	strb	r3, [r2]
    3960:	e5d93000 	ldrb	r3, [r9]
    3964:	e3530006 	cmp	r3, #6	; 0x6
    3968:	1a00005d 	bne	3ae4 <.text+0x3ae4>
    396c:	e51f30ac 	ldr	r3, [pc, #-172]	; 38c8 <.text+0x38c8>
    3970:	e5930000 	ldr	r0, [r3]
    3974:	eb002f8e 	bl	f7b4 <__fixsfsi>
    3978:	e14b03b2 	strh	r0, [fp, #-50]
    397c:	e3a00013 	mov	r0, #19	; 0x13
    3980:	eb00065e 	bl	5300 <uart0_check_free_space>
    3984:	e31000ff 	tst	r0, #255	; 0xff
    3988:	0a00012c 	beq	3e40 <.text+0x3e40>
    398c:	e51f404c 	ldr	r4, [pc, #-76]	; 3948 <.text+0x3948>
    3990:	e3a03000 	mov	r3, #0	; 0x0
    3994:	e3a0000e 	mov	r0, #14	; 0xe
    3998:	e5c43000 	strb	r3, [r4]
    399c:	eb00066b 	bl	5350 <uart0_transmit>
    39a0:	e5d43000 	ldrb	r3, [r4]
    39a4:	e2833005 	add	r3, r3, #5	; 0x5
    39a8:	e3a00005 	mov	r0, #5	; 0x5
    39ac:	e5c43000 	strb	r3, [r4]
    39b0:	eb000666 	bl	5350 <uart0_transmit>
    39b4:	e5d43000 	ldrb	r3, [r4]
    39b8:	e51f50f4 	ldr	r5, [pc, #-244]	; 38cc <.text+0x38cc>
    39bc:	e283300c 	add	r3, r3, #12	; 0xc
    39c0:	e3a0000c 	mov	r0, #12	; 0xc
    39c4:	e5c43000 	strb	r3, [r4]
    39c8:	eb000660 	bl	5350 <uart0_transmit>
    39cc:	e5d53000 	ldrb	r3, [r5]
    39d0:	e5d42000 	ldrb	r2, [r4]
    39d4:	e1a00003 	mov	r0, r3
    39d8:	e0833002 	add	r3, r3, r2
    39dc:	e5c43000 	strb	r3, [r4]
    39e0:	eb00065a 	bl	5350 <uart0_transmit>
    39e4:	e5d53001 	ldrb	r3, [r5, #1]
    39e8:	e5d42000 	ldrb	r2, [r4]
    39ec:	e1a00003 	mov	r0, r3
    39f0:	e0833002 	add	r3, r3, r2
    39f4:	e5c43000 	strb	r3, [r4]
    39f8:	eb000654 	bl	5350 <uart0_transmit>
    39fc:	e51f3134 	ldr	r3, [pc, #-308]	; 38d0 <.text+0x38d0>
    3a00:	e5d30000 	ldrb	r0, [r3]
    3a04:	e5d43000 	ldrb	r3, [r4]
    3a08:	e51f50d0 	ldr	r5, [pc, #-208]	; 3940 <.text+0x3940>
    3a0c:	e0803003 	add	r3, r0, r3
    3a10:	e5c43000 	strb	r3, [r4]
    3a14:	eb00064d 	bl	5350 <uart0_transmit>
    3a18:	e5d53000 	ldrb	r3, [r5]
    3a1c:	e5d42000 	ldrb	r2, [r4]
    3a20:	e1a00003 	mov	r0, r3
    3a24:	e0833002 	add	r3, r3, r2
    3a28:	e5c43000 	strb	r3, [r4]
    3a2c:	eb000647 	bl	5350 <uart0_transmit>
    3a30:	e5d53001 	ldrb	r3, [r5, #1]
    3a34:	e5d42000 	ldrb	r2, [r4]
    3a38:	e1a00003 	mov	r0, r3
    3a3c:	e0833002 	add	r3, r3, r2
    3a40:	e5c43000 	strb	r3, [r4]
    3a44:	eb000641 	bl	5350 <uart0_transmit>
    3a48:	e51f317c 	ldr	r3, [pc, #-380]	; 38d4 <.text+0x38d4>
    3a4c:	e5d30000 	ldrb	r0, [r3]
    3a50:	e5d43000 	ldrb	r3, [r4]
    3a54:	e51f5184 	ldr	r5, [pc, #-388]	; 38d8 <.text+0x38d8>
    3a58:	e0803003 	add	r3, r0, r3
    3a5c:	e5c43000 	strb	r3, [r4]
    3a60:	eb00063a 	bl	5350 <uart0_transmit>
    3a64:	e5d53000 	ldrb	r3, [r5]
    3a68:	e5d42000 	ldrb	r2, [r4]
    3a6c:	e1a00003 	mov	r0, r3
    3a70:	e0833002 	add	r3, r3, r2
    3a74:	e5c43000 	strb	r3, [r4]
    3a78:	eb000634 	bl	5350 <uart0_transmit>
    3a7c:	e5d50001 	ldrb	r0, [r5, #1]
    3a80:	e5d43000 	ldrb	r3, [r4]
    3a84:	e51f51b0 	ldr	r5, [pc, #-432]	; 38dc <.text+0x38dc>
    3a88:	e0803003 	add	r3, r0, r3
    3a8c:	e5c43000 	strb	r3, [r4]
    3a90:	eb00062e 	bl	5350 <uart0_transmit>
    3a94:	e5d53000 	ldrb	r3, [r5]
    3a98:	e5d42000 	ldrb	r2, [r4]
    3a9c:	e1a00003 	mov	r0, r3
    3aa0:	e0833002 	add	r3, r3, r2
    3aa4:	e5c43000 	strb	r3, [r4]
    3aa8:	eb000628 	bl	5350 <uart0_transmit>
    3aac:	e5d53001 	ldrb	r3, [r5, #1]
    3ab0:	e5d42000 	ldrb	r2, [r4]
    3ab4:	e1a00003 	mov	r0, r3
    3ab8:	e0833002 	add	r3, r3, r2
    3abc:	e5c43000 	strb	r3, [r4]
    3ac0:	eb000622 	bl	5350 <uart0_transmit>
    3ac4:	e55b3032 	ldrb	r3, [fp, #-50]
    3ac8:	e5d42000 	ldrb	r2, [r4]
    3acc:	e1a00003 	mov	r0, r3
    3ad0:	e0833002 	add	r3, r3, r2
    3ad4:	e5c43000 	strb	r3, [r4]
    3ad8:	eb00061c 	bl	5350 <uart0_transmit>
    3adc:	e55b3031 	ldrb	r3, [fp, #-49]
    3ae0:	ea0000ce 	b	3e20 <.text+0x3e20>
    3ae4:	e353000c 	cmp	r3, #12	; 0xc
    3ae8:	1a00005e 	bne	3c68 <.text+0x3c68>
    3aec:	e3a00014 	mov	r0, #20	; 0x14
    3af0:	eb000602 	bl	5300 <uart0_check_free_space>
    3af4:	e31000ff 	tst	r0, #255	; 0xff
    3af8:	0a0000d0 	beq	3e40 <.text+0x3e40>
    3afc:	e51f41bc 	ldr	r4, [pc, #-444]	; 3948 <.text+0x3948>
    3b00:	e3a03000 	mov	r3, #0	; 0x0
    3b04:	e3a0000f 	mov	r0, #15	; 0xf
    3b08:	e5c43000 	strb	r3, [r4]
    3b0c:	eb00060f 	bl	5350 <uart0_transmit>
    3b10:	e5d43000 	ldrb	r3, [r4]
    3b14:	e2833005 	add	r3, r3, #5	; 0x5
    3b18:	e3a00005 	mov	r0, #5	; 0x5
    3b1c:	e5c43000 	strb	r3, [r4]
    3b20:	eb00060a 	bl	5350 <uart0_transmit>
    3b24:	e5d43000 	ldrb	r3, [r4]
    3b28:	e51f5250 	ldr	r5, [pc, #-592]	; 38e0 <.text+0x38e0>
    3b2c:	e283300e 	add	r3, r3, #14	; 0xe
    3b30:	e3a0000e 	mov	r0, #14	; 0xe
    3b34:	e5c43000 	strb	r3, [r4]
    3b38:	eb000604 	bl	5350 <uart0_transmit>
    3b3c:	e5d53000 	ldrb	r3, [r5]
    3b40:	e5d42000 	ldrb	r2, [r4]
    3b44:	e1a00003 	mov	r0, r3
    3b48:	e0833002 	add	r3, r3, r2
    3b4c:	e5c43000 	strb	r3, [r4]
    3b50:	eb0005fe 	bl	5350 <uart0_transmit>
    3b54:	e5d53001 	ldrb	r3, [r5, #1]
    3b58:	e5d42000 	ldrb	r2, [r4]
    3b5c:	e1a00003 	mov	r0, r3
    3b60:	e0833002 	add	r3, r3, r2
    3b64:	e5c43000 	strb	r3, [r4]
    3b68:	eb0005f8 	bl	5350 <uart0_transmit>
    3b6c:	e5d53002 	ldrb	r3, [r5, #2]
    3b70:	e5d42000 	ldrb	r2, [r4]
    3b74:	e1a00003 	mov	r0, r3
    3b78:	e0833002 	add	r3, r3, r2
    3b7c:	e5c43000 	strb	r3, [r4]
    3b80:	eb0005f2 	bl	5350 <uart0_transmit>
    3b84:	e5d50003 	ldrb	r0, [r5, #3]
    3b88:	e5d43000 	ldrb	r3, [r4]
    3b8c:	e51f52b0 	ldr	r5, [pc, #-688]	; 38e4 <.text+0x38e4>
    3b90:	e0803003 	add	r3, r0, r3
    3b94:	e5c43000 	strb	r3, [r4]
    3b98:	eb0005ec 	bl	5350 <uart0_transmit>
    3b9c:	e5d53000 	ldrb	r3, [r5]
    3ba0:	e5d42000 	ldrb	r2, [r4]
    3ba4:	e1a00003 	mov	r0, r3
    3ba8:	e0833002 	add	r3, r3, r2
    3bac:	e5c43000 	strb	r3, [r4]
    3bb0:	eb0005e6 	bl	5350 <uart0_transmit>
    3bb4:	e5d53001 	ldrb	r3, [r5, #1]
    3bb8:	e5d42000 	ldrb	r2, [r4]
    3bbc:	e1a00003 	mov	r0, r3
    3bc0:	e0833002 	add	r3, r3, r2
    3bc4:	e5c43000 	strb	r3, [r4]
    3bc8:	eb0005e0 	bl	5350 <uart0_transmit>
    3bcc:	e5d53002 	ldrb	r3, [r5, #2]
    3bd0:	e5d42000 	ldrb	r2, [r4]
    3bd4:	e1a00003 	mov	r0, r3
    3bd8:	e0833002 	add	r3, r3, r2
    3bdc:	e5c43000 	strb	r3, [r4]
    3be0:	eb0005da 	bl	5350 <uart0_transmit>
    3be4:	e5d50003 	ldrb	r0, [r5, #3]
    3be8:	e5d43000 	ldrb	r3, [r4]
    3bec:	e51f530c 	ldr	r5, [pc, #-780]	; 38e8 <.text+0x38e8>
    3bf0:	e0803003 	add	r3, r0, r3
    3bf4:	e5c43000 	strb	r3, [r4]
    3bf8:	eb0005d4 	bl	5350 <uart0_transmit>
    3bfc:	e5d53000 	ldrb	r3, [r5]
    3c00:	e5d42000 	ldrb	r2, [r4]
    3c04:	e1a00003 	mov	r0, r3
    3c08:	e0833002 	add	r3, r3, r2
    3c0c:	e5c43000 	strb	r3, [r4]
    3c10:	eb0005ce 	bl	5350 <uart0_transmit>
    3c14:	e5d53001 	ldrb	r3, [r5, #1]
    3c18:	e5d42000 	ldrb	r2, [r4]
    3c1c:	e1a00003 	mov	r0, r3
    3c20:	e0833002 	add	r3, r3, r2
    3c24:	e5c43000 	strb	r3, [r4]
    3c28:	eb0005c8 	bl	5350 <uart0_transmit>
    3c2c:	e5d53002 	ldrb	r3, [r5, #2]
    3c30:	e5d42000 	ldrb	r2, [r4]
    3c34:	e1a00003 	mov	r0, r3
    3c38:	e0833002 	add	r3, r3, r2
    3c3c:	e5c43000 	strb	r3, [r4]
    3c40:	eb0005c2 	bl	5350 <uart0_transmit>
    3c44:	e5d53003 	ldrb	r3, [r5, #3]
    3c48:	e5d42000 	ldrb	r2, [r4]
    3c4c:	e1a00003 	mov	r0, r3
    3c50:	e0833002 	add	r3, r3, r2
    3c54:	e5c43000 	strb	r3, [r4]
    3c58:	eb0005bc 	bl	5350 <uart0_transmit>
    3c5c:	e51f3378 	ldr	r3, [pc, #-888]	; 38ec <.text+0x38ec>
    3c60:	e5d33000 	ldrb	r3, [r3]
    3c64:	ea00006d 	b	3e20 <.text+0x3e20>
    3c68:	e3530012 	cmp	r3, #18	; 0x12
    3c6c:	1a00002a 	bne	3d1c <.text+0x3d1c>
    3c70:	e3a0000d 	mov	r0, #13	; 0xd
    3c74:	eb0005a1 	bl	5300 <uart0_check_free_space>
    3c78:	e31000ff 	tst	r0, #255	; 0xff
    3c7c:	0a00006f 	beq	3e40 <.text+0x3e40>
    3c80:	e51f4340 	ldr	r4, [pc, #-832]	; 3948 <.text+0x3948>
    3c84:	e3a03000 	mov	r3, #0	; 0x0
    3c88:	e3a00008 	mov	r0, #8	; 0x8
    3c8c:	e5c43000 	strb	r3, [r4]
    3c90:	eb0005ae 	bl	5350 <uart0_transmit>
    3c94:	e5d43000 	ldrb	r3, [r4]
    3c98:	e2833005 	add	r3, r3, #5	; 0x5
    3c9c:	e3a00005 	mov	r0, #5	; 0x5
    3ca0:	e5c43000 	strb	r3, [r4]
    3ca4:	eb0005a9 	bl	5350 <uart0_transmit>
    3ca8:	e5d43000 	ldrb	r3, [r4]
    3cac:	e51f53c4 	ldr	r5, [pc, #-964]	; 38f0 <.text+0x38f0>
    3cb0:	e243302f 	sub	r3, r3, #47	; 0x2f
    3cb4:	e3a000d1 	mov	r0, #209	; 0xd1
    3cb8:	e5c43000 	strb	r3, [r4]
    3cbc:	eb0005a3 	bl	5350 <uart0_transmit>
    3cc0:	e5d53000 	ldrb	r3, [r5]
    3cc4:	e5d42000 	ldrb	r2, [r4]
    3cc8:	e1a00003 	mov	r0, r3
    3ccc:	e0833002 	add	r3, r3, r2
    3cd0:	e5c43000 	strb	r3, [r4]
    3cd4:	eb00059d 	bl	5350 <uart0_transmit>
    3cd8:	e5d50001 	ldrb	r0, [r5, #1]
    3cdc:	e5d43000 	ldrb	r3, [r4]
    3ce0:	e51f53f4 	ldr	r5, [pc, #-1012]	; 38f4 <.text+0x38f4>
    3ce4:	e0803003 	add	r3, r0, r3
    3ce8:	e5c43000 	strb	r3, [r4]
    3cec:	eb000597 	bl	5350 <uart0_transmit>
    3cf0:	e5d53000 	ldrb	r3, [r5]
    3cf4:	e5d42000 	ldrb	r2, [r4]
    3cf8:	e1a00003 	mov	r0, r3
    3cfc:	e0833002 	add	r3, r3, r2
    3d00:	e5c43000 	strb	r3, [r4]
    3d04:	eb000591 	bl	5350 <uart0_transmit>
    3d08:	e5d50001 	ldrb	r0, [r5, #1]
    3d0c:	e5d43000 	ldrb	r3, [r4]
    3d10:	e51f5420 	ldr	r5, [pc, #-1056]	; 38f8 <.text+0x38f8>
    3d14:	e0803003 	add	r3, r0, r3
    3d18:	ea000037 	b	3dfc <.text+0x3dfc>
    3d1c:	e3530018 	cmp	r3, #24	; 0x18
    3d20:	1a00004a 	bne	3e50 <.text+0x3e50>
    3d24:	e3a0000f 	mov	r0, #15	; 0xf
    3d28:	eb000574 	bl	5300 <uart0_check_free_space>
    3d2c:	e31000ff 	tst	r0, #255	; 0xff
    3d30:	0a000042 	beq	3e40 <.text+0x3e40>
    3d34:	e51f43f4 	ldr	r4, [pc, #-1012]	; 3948 <.text+0x3948>
    3d38:	e3a03000 	mov	r3, #0	; 0x0
    3d3c:	e3a0000a 	mov	r0, #10	; 0xa
    3d40:	e5c43000 	strb	r3, [r4]
    3d44:	eb000581 	bl	5350 <uart0_transmit>
    3d48:	e5d43000 	ldrb	r3, [r4]
    3d4c:	e2833005 	add	r3, r3, #5	; 0x5
    3d50:	e3a00005 	mov	r0, #5	; 0x5
    3d54:	e5c43000 	strb	r3, [r4]
    3d58:	eb00057c 	bl	5350 <uart0_transmit>
    3d5c:	e5d43000 	ldrb	r3, [r4]
    3d60:	e51f646c 	ldr	r6, [pc, #-1132]	; 38fc <.text+0x38fc>
    3d64:	e243302e 	sub	r3, r3, #46	; 0x2e
    3d68:	e3a000d2 	mov	r0, #210	; 0xd2
    3d6c:	e5c43000 	strb	r3, [r4]
    3d70:	eb000576 	bl	5350 <uart0_transmit>
    3d74:	e5d42000 	ldrb	r2, [r4]
    3d78:	e5d63000 	ldrb	r3, [r6]
    3d7c:	e1a00003 	mov	r0, r3
    3d80:	e0833002 	add	r3, r3, r2
    3d84:	e5c43000 	strb	r3, [r4]
    3d88:	eb000570 	bl	5350 <uart0_transmit>
    3d8c:	e5d60001 	ldrb	r0, [r6, #1]
    3d90:	e5d43000 	ldrb	r3, [r4]
    3d94:	e51f549c 	ldr	r5, [pc, #-1180]	; 3900 <.text+0x3900>
    3d98:	e0803003 	add	r3, r0, r3
    3d9c:	e5c43000 	strb	r3, [r4]
    3da0:	eb00056a 	bl	5350 <uart0_transmit>
    3da4:	e5d53000 	ldrb	r3, [r5]
    3da8:	e5d42000 	ldrb	r2, [r4]
    3dac:	e1a00003 	mov	r0, r3
    3db0:	e0833002 	add	r3, r3, r2
    3db4:	e5c43000 	strb	r3, [r4]
    3db8:	eb000564 	bl	5350 <uart0_transmit>
    3dbc:	e5d53001 	ldrb	r3, [r5, #1]
    3dc0:	e5d42000 	ldrb	r2, [r4]
    3dc4:	e1a00003 	mov	r0, r3
    3dc8:	e0833002 	add	r3, r3, r2
    3dcc:	e5c43000 	strb	r3, [r4]
    3dd0:	eb00055e 	bl	5350 <uart0_transmit>
    3dd4:	e5d63000 	ldrb	r3, [r6]
    3dd8:	e5d42000 	ldrb	r2, [r4]
    3ddc:	e1a00003 	mov	r0, r3
    3de0:	e0833002 	add	r3, r3, r2
    3de4:	e5c43000 	strb	r3, [r4]
    3de8:	eb000558 	bl	5350 <uart0_transmit>
    3dec:	e5d63001 	ldrb	r3, [r6, #1]
    3df0:	e5d42000 	ldrb	r2, [r4]
    3df4:	e1a00003 	mov	r0, r3
    3df8:	e0833002 	add	r3, r3, r2
    3dfc:	e5c43000 	strb	r3, [r4]
    3e00:	eb000552 	bl	5350 <uart0_transmit>
    3e04:	e5d53000 	ldrb	r3, [r5]
    3e08:	e5d42000 	ldrb	r2, [r4]
    3e0c:	e1a00003 	mov	r0, r3
    3e10:	e0833002 	add	r3, r3, r2
    3e14:	e5c43000 	strb	r3, [r4]
    3e18:	eb00054c 	bl	5350 <uart0_transmit>
    3e1c:	e5d53001 	ldrb	r3, [r5, #1]
    3e20:	e5d42000 	ldrb	r2, [r4]
    3e24:	e1a00003 	mov	r0, r3
    3e28:	e0833002 	add	r3, r3, r2
    3e2c:	e5c43000 	strb	r3, [r4]
    3e30:	eb000546 	bl	5350 <uart0_transmit>
    3e34:	e3a000ff 	mov	r0, #255	; 0xff
    3e38:	eb000544 	bl	5350 <uart0_transmit>
    3e3c:	ea000003 	b	3e50 <.text+0x3e50>
    3e40:	e51f2520 	ldr	r2, [pc, #-1312]	; 3928 <.text+0x3928>
    3e44:	e5d23000 	ldrb	r3, [r2]
    3e48:	e2833001 	add	r3, r3, #1	; 0x1
    3e4c:	e5c23000 	strb	r3, [r2]
    3e50:	e51f2554 	ldr	r2, [pc, #-1364]	; 3904 <.text+0x3904>
    3e54:	e1d230b0 	ldrh	r3, [r2]
    3e58:	e353001e 	cmp	r3, #30	; 0x1e
    3e5c:	1a000049 	bne	3f88 <.text+0x3f88>
    3e60:	e3a0000e 	mov	r0, #14	; 0xe
    3e64:	eb000525 	bl	5300 <uart0_check_free_space>
    3e68:	e31000ff 	tst	r0, #255	; 0xff
    3e6c:	051f254c 	ldreq	r2, [pc, #-1356]	; 3928 <.text+0x3928>
    3e70:	05d23000 	ldreqb	r3, [r2]
    3e74:	02833001 	addeq	r3, r3, #1	; 0x1
    3e78:	05c23000 	streqb	r3, [r2]
    3e7c:	0a000041 	beq	3f88 <.text+0x3f88>
    3e80:	e51f4540 	ldr	r4, [pc, #-1344]	; 3948 <.text+0x3948>
    3e84:	e3a03000 	mov	r3, #0	; 0x0
    3e88:	e3a00009 	mov	r0, #9	; 0x9
    3e8c:	e5c43000 	strb	r3, [r4]
    3e90:	eb00052e 	bl	5350 <uart0_transmit>
    3e94:	e5d43000 	ldrb	r3, [r4]
    3e98:	e2833005 	add	r3, r3, #5	; 0x5
    3e9c:	e3a00005 	mov	r0, #5	; 0x5
    3ea0:	e5c43000 	strb	r3, [r4]
    3ea4:	eb000529 	bl	5350 <uart0_transmit>
    3ea8:	e5d43000 	ldrb	r3, [r4]
    3eac:	e283300b 	add	r3, r3, #11	; 0xb
    3eb0:	e3a0000b 	mov	r0, #11	; 0xb
    3eb4:	e5c43000 	strb	r3, [r4]
    3eb8:	eb000524 	bl	5350 <uart0_transmit>
    3ebc:	e51f35bc 	ldr	r3, [pc, #-1468]	; 3908 <.text+0x3908>
    3ec0:	e5d42000 	ldrb	r2, [r4]
    3ec4:	e5d33000 	ldrb	r3, [r3]
    3ec8:	e1a00003 	mov	r0, r3
    3ecc:	e0833002 	add	r3, r3, r2
    3ed0:	e5c43000 	strb	r3, [r4]
    3ed4:	eb00051d 	bl	5350 <uart0_transmit>
    3ed8:	e51f35d4 	ldr	r3, [pc, #-1492]	; 390c <.text+0x390c>
    3edc:	e5d42000 	ldrb	r2, [r4]
    3ee0:	e5d33000 	ldrb	r3, [r3]
    3ee4:	e1a00003 	mov	r0, r3
    3ee8:	e0833002 	add	r3, r3, r2
    3eec:	e5c43000 	strb	r3, [r4]
    3ef0:	eb000516 	bl	5350 <uart0_transmit>
    3ef4:	e51f35ec 	ldr	r3, [pc, #-1516]	; 3910 <.text+0x3910>
    3ef8:	e5d42000 	ldrb	r2, [r4]
    3efc:	e5d33000 	ldrb	r3, [r3]
    3f00:	e1a00003 	mov	r0, r3
    3f04:	e0833002 	add	r3, r3, r2
    3f08:	e5c43000 	strb	r3, [r4]
    3f0c:	eb00050f 	bl	5350 <uart0_transmit>
    3f10:	e51f3604 	ldr	r3, [pc, #-1540]	; 3914 <.text+0x3914>
    3f14:	e5d42000 	ldrb	r2, [r4]
    3f18:	e5d33000 	ldrb	r3, [r3]
    3f1c:	e1a00003 	mov	r0, r3
    3f20:	e0833002 	add	r3, r3, r2
    3f24:	e5c43000 	strb	r3, [r4]
    3f28:	eb000508 	bl	5350 <uart0_transmit>
    3f2c:	e51f361c 	ldr	r3, [pc, #-1564]	; 3918 <.text+0x3918>
    3f30:	e5d42000 	ldrb	r2, [r4]
    3f34:	e5d33000 	ldrb	r3, [r3]
    3f38:	e1a00003 	mov	r0, r3
    3f3c:	e0833002 	add	r3, r3, r2
    3f40:	e5c43000 	strb	r3, [r4]
    3f44:	eb000501 	bl	5350 <uart0_transmit>
    3f48:	e51f3634 	ldr	r3, [pc, #-1588]	; 391c <.text+0x391c>
    3f4c:	e5d42000 	ldrb	r2, [r4]
    3f50:	e5d33000 	ldrb	r3, [r3]
    3f54:	e1a00003 	mov	r0, r3
    3f58:	e0833002 	add	r3, r3, r2
    3f5c:	e5c43000 	strb	r3, [r4]
    3f60:	eb0004fa 	bl	5350 <uart0_transmit>
    3f64:	e51f364c 	ldr	r3, [pc, #-1612]	; 3920 <.text+0x3920>
    3f68:	e5d42000 	ldrb	r2, [r4]
    3f6c:	e5d33000 	ldrb	r3, [r3]
    3f70:	e1a00003 	mov	r0, r3
    3f74:	e0833002 	add	r3, r3, r2
    3f78:	e5c43000 	strb	r3, [r4]
    3f7c:	eb0004f3 	bl	5350 <uart0_transmit>
    3f80:	e3a000ff 	mov	r0, #255	; 0xff
    3f84:	eb0004f1 	bl	5350 <uart0_transmit>
    3f88:	e51f266c 	ldr	r2, [pc, #-1644]	; 3924 <.text+0x3924>
    3f8c:	e1d230b0 	ldrh	r3, [r2]
    3f90:	e3530030 	cmp	r3, #48	; 0x30
    3f94:	1a000050 	bne	40dc <.text+0x40dc>
    3f98:	e3a00010 	mov	r0, #16	; 0x10
    3f9c:	eb0004d7 	bl	5300 <uart0_check_free_space>
    3fa0:	e31000ff 	tst	r0, #255	; 0xff
    3fa4:	051f2684 	ldreq	r2, [pc, #-1668]	; 3928 <.text+0x3928>
    3fa8:	05d23000 	ldreqb	r3, [r2]
    3fac:	02833001 	addeq	r3, r3, #1	; 0x1
    3fb0:	05c23000 	streqb	r3, [r2]
    3fb4:	0a000048 	beq	40dc <.text+0x40dc>
    3fb8:	e51f4678 	ldr	r4, [pc, #-1656]	; 3948 <.text+0x3948>
    3fbc:	e3a03000 	mov	r3, #0	; 0x0
    3fc0:	e3a0000b 	mov	r0, #11	; 0xb
    3fc4:	e5c43000 	strb	r3, [r4]
    3fc8:	eb0004e0 	bl	5350 <uart0_transmit>
    3fcc:	e5d43000 	ldrb	r3, [r4]
    3fd0:	e2833005 	add	r3, r3, #5	; 0x5
    3fd4:	e3a00005 	mov	r0, #5	; 0x5
    3fd8:	e5c43000 	strb	r3, [r4]
    3fdc:	eb0004db 	bl	5350 <uart0_transmit>
    3fe0:	e5d43000 	ldrb	r3, [r4]
    3fe4:	e51f56c0 	ldr	r5, [pc, #-1728]	; 392c <.text+0x392c>
    3fe8:	e2833009 	add	r3, r3, #9	; 0x9
    3fec:	e3a00009 	mov	r0, #9	; 0x9
    3ff0:	e5c43000 	strb	r3, [r4]
    3ff4:	eb0004d5 	bl	5350 <uart0_transmit>
    3ff8:	e5d53000 	ldrb	r3, [r5]
    3ffc:	e5d42000 	ldrb	r2, [r4]
    4000:	e1a00003 	mov	r0, r3
    4004:	e0833002 	add	r3, r3, r2
    4008:	e5c43000 	strb	r3, [r4]
    400c:	eb0004cf 	bl	5350 <uart0_transmit>
    4010:	e5d53001 	ldrb	r3, [r5, #1]
    4014:	e5d42000 	ldrb	r2, [r4]
    4018:	e1a00003 	mov	r0, r3
    401c:	e0833002 	add	r3, r3, r2
    4020:	e5c43000 	strb	r3, [r4]
    4024:	eb0004c9 	bl	5350 <uart0_transmit>
    4028:	e5d53002 	ldrb	r3, [r5, #2]
    402c:	e5d42000 	ldrb	r2, [r4]
    4030:	e1a00003 	mov	r0, r3
    4034:	e0833002 	add	r3, r3, r2
    4038:	e5c43000 	strb	r3, [r4]
    403c:	eb0004c3 	bl	5350 <uart0_transmit>
    4040:	e5d50003 	ldrb	r0, [r5, #3]
    4044:	e5d43000 	ldrb	r3, [r4]
    4048:	e51f5720 	ldr	r5, [pc, #-1824]	; 3930 <.text+0x3930>
    404c:	e0803003 	add	r3, r0, r3
    4050:	e5c43000 	strb	r3, [r4]
    4054:	eb0004bd 	bl	5350 <uart0_transmit>
    4058:	e5d53000 	ldrb	r3, [r5]
    405c:	e5d42000 	ldrb	r2, [r4]
    4060:	e1a00003 	mov	r0, r3
    4064:	e0833002 	add	r3, r3, r2
    4068:	e5c43000 	strb	r3, [r4]
    406c:	eb0004b7 	bl	5350 <uart0_transmit>
    4070:	e5d53001 	ldrb	r3, [r5, #1]
    4074:	e5d42000 	ldrb	r2, [r4]
    4078:	e1a00003 	mov	r0, r3
    407c:	e0833002 	add	r3, r3, r2
    4080:	e5c43000 	strb	r3, [r4]
    4084:	eb0004b1 	bl	5350 <uart0_transmit>
    4088:	e5d53002 	ldrb	r3, [r5, #2]
    408c:	e5d42000 	ldrb	r2, [r4]
    4090:	e1a00003 	mov	r0, r3
    4094:	e0833002 	add	r3, r3, r2
    4098:	e5c43000 	strb	r3, [r4]
    409c:	eb0004ab 	bl	5350 <uart0_transmit>
    40a0:	e5d53003 	ldrb	r3, [r5, #3]
    40a4:	e5d42000 	ldrb	r2, [r4]
    40a8:	e1a00003 	mov	r0, r3
    40ac:	e0833002 	add	r3, r3, r2
    40b0:	e5c43000 	strb	r3, [r4]
    40b4:	eb0004a5 	bl	5350 <uart0_transmit>
    40b8:	e51f378c 	ldr	r3, [pc, #-1932]	; 3934 <.text+0x3934>
    40bc:	e5d42000 	ldrb	r2, [r4]
    40c0:	e5d33000 	ldrb	r3, [r3]
    40c4:	e1a00003 	mov	r0, r3
    40c8:	e0833002 	add	r3, r3, r2
    40cc:	e5c43000 	strb	r3, [r4]
    40d0:	eb00049e 	bl	5350 <uart0_transmit>
    40d4:	e3a000ff 	mov	r0, #255	; 0xff
    40d8:	eb00049c 	bl	5350 <uart0_transmit>
    40dc:	e51f27ac 	ldr	r2, [pc, #-1964]	; 3938 <.text+0x3938>
    40e0:	e5d23000 	ldrb	r3, [r2]
    40e4:	e3530001 	cmp	r3, #1	; 0x1
    40e8:	1a000084 	bne	4300 <.text+0x4300>
    40ec:	e51f07b8 	ldr	r0, [pc, #-1976]	; 393c <.text+0x393c>
    40f0:	e5d03000 	ldrb	r3, [r0]
    40f4:	e2833001 	add	r3, r3, #1	; 0x1
    40f8:	e5c03000 	strb	r3, [r0]
    40fc:	e5d03000 	ldrb	r3, [r0]
    4100:	e353001d 	cmp	r3, #29	; 0x1d
    4104:	83a03000 	movhi	r3, #0	; 0x0
    4108:	85c03000 	strhib	r3, [r0]
    410c:	e5d05000 	ldrb	r5, [r0]
    4110:	e3550000 	cmp	r5, #0	; 0x0
    4114:	1a000018 	bne	417c <.text+0x417c>
    4118:	e51f37e0 	ldr	r3, [pc, #-2016]	; 3940 <.text+0x3940>
    411c:	e1d330b0 	ldrh	r3, [r3]
    4120:	e3530000 	cmp	r3, #0	; 0x0
    4124:	1a000075 	bne	4300 <.text+0x4300>
    4128:	e51f37ec 	ldr	r3, [pc, #-2028]	; 3944 <.text+0x3944>
    412c:	e5d33000 	ldrb	r3, [r3]
    4130:	e3530001 	cmp	r3, #1	; 0x1
    4134:	1a000071 	bne	4300 <.text+0x4300>
    4138:	e3a00007 	mov	r0, #7	; 0x7
    413c:	eb00046f 	bl	5300 <uart0_check_free_space>
    4140:	e31000ff 	tst	r0, #255	; 0xff
    4144:	0a000069 	beq	42f0 <.text+0x42f0>
    4148:	e51f4808 	ldr	r4, [pc, #-2056]	; 3948 <.text+0x3948>
    414c:	e3a00002 	mov	r0, #2	; 0x2
    4150:	e5c45000 	strb	r5, [r4]
    4154:	eb00047d 	bl	5350 <uart0_transmit>
    4158:	e5d43000 	ldrb	r3, [r4]
    415c:	e2833005 	add	r3, r3, #5	; 0x5
    4160:	e3a00005 	mov	r0, #5	; 0x5
    4164:	e5c43000 	strb	r3, [r4]
    4168:	eb000478 	bl	5350 <uart0_transmit>
    416c:	e5d43000 	ldrb	r3, [r4]
    4170:	e3a00002 	mov	r0, #2	; 0x2
    4174:	e2833002 	add	r3, r3, #2	; 0x2
    4178:	ea000057 	b	42dc <.text+0x42dc>
    417c:	e3550006 	cmp	r5, #6	; 0x6
    4180:	1a00005e 	bne	4300 <.text+0x4300>
    4184:	e51f3840 	ldr	r3, [pc, #-2112]	; 394c <.text+0x394c>
    4188:	e5930000 	ldr	r0, [r3]
    418c:	eb002a19 	bl	e9f8 <__extendsfdf2>
    4190:	e28f2e3b 	add	r2, pc, #944	; 0x3b0
    4194:	e892000c 	ldmia	r2, {r2, r3}
    4198:	eb002ac7 	bl	ecbc <__divdf3>
    419c:	e28f2feb 	add	r2, pc, #940	; 0x3ac
    41a0:	e892000c 	ldmia	r2, {r2, r3}
    41a4:	eb002a26 	bl	ea44 <__muldf3>
    41a8:	eb002b8d 	bl	efe4 <__fixdfsi>
    41ac:	e59f33bc 	ldr	r3, [pc, #956]	; 4570 <.text+0x4570>
    41b0:	e14b03b4 	strh	r0, [fp, #-52]
    41b4:	e5930000 	ldr	r0, [r3]
    41b8:	eb002a0e 	bl	e9f8 <__extendsfdf2>
    41bc:	e28f2fe1 	add	r2, pc, #900	; 0x384
    41c0:	e892000c 	ldmia	r2, {r2, r3}
    41c4:	eb002abc 	bl	ecbc <__divdf3>
    41c8:	e28f2d0e 	add	r2, pc, #896	; 0x380
    41cc:	e892000c 	ldmia	r2, {r2, r3}
    41d0:	eb002a1b 	bl	ea44 <__muldf3>
    41d4:	eb002b82 	bl	efe4 <__fixdfsi>
    41d8:	e59f3394 	ldr	r3, [pc, #916]	; 4574 <.text+0x4574>
    41dc:	e14b03b6 	strh	r0, [fp, #-54]
    41e0:	e5930000 	ldr	r0, [r3]
    41e4:	eb002a03 	bl	e9f8 <__extendsfdf2>
    41e8:	e28f2fd6 	add	r2, pc, #856	; 0x358
    41ec:	e892000c 	ldmia	r2, {r2, r3}
    41f0:	eb002ab1 	bl	ecbc <__divdf3>
    41f4:	e28f2fd5 	add	r2, pc, #852	; 0x354
    41f8:	e892000c 	ldmia	r2, {r2, r3}
    41fc:	eb002a10 	bl	ea44 <__muldf3>
    4200:	eb002b77 	bl	efe4 <__fixdfsi>
    4204:	e14b03b8 	strh	r0, [fp, #-56]
    4208:	e3a0000d 	mov	r0, #13	; 0xd
    420c:	eb00043b 	bl	5300 <uart0_check_free_space>
    4210:	e31000ff 	tst	r0, #255	; 0xff
    4214:	0a000035 	beq	42f0 <.text+0x42f0>
    4218:	e59f4358 	ldr	r4, [pc, #856]	; 4578 <.text+0x4578>
    421c:	e3a03000 	mov	r3, #0	; 0x0
    4220:	e3a00008 	mov	r0, #8	; 0x8
    4224:	e5c43000 	strb	r3, [r4]
    4228:	eb000448 	bl	5350 <uart0_transmit>
    422c:	e5d43000 	ldrb	r3, [r4]
    4230:	e2833005 	add	r3, r3, #5	; 0x5
    4234:	e3a00005 	mov	r0, #5	; 0x5
    4238:	e5c43000 	strb	r3, [r4]
    423c:	eb000443 	bl	5350 <uart0_transmit>
    4240:	e5d43000 	ldrb	r3, [r4]
    4244:	e2833006 	add	r3, r3, #6	; 0x6
    4248:	e1a00005 	mov	r0, r5
    424c:	e5c43000 	strb	r3, [r4]
    4250:	eb00043e 	bl	5350 <uart0_transmit>
    4254:	e55b3034 	ldrb	r3, [fp, #-52]
    4258:	e5d42000 	ldrb	r2, [r4]
    425c:	e1a00003 	mov	r0, r3
    4260:	e0833002 	add	r3, r3, r2
    4264:	e5c43000 	strb	r3, [r4]
    4268:	eb000438 	bl	5350 <uart0_transmit>
    426c:	e55b3033 	ldrb	r3, [fp, #-51]
    4270:	e5d42000 	ldrb	r2, [r4]
    4274:	e1a00003 	mov	r0, r3
    4278:	e0833002 	add	r3, r3, r2
    427c:	e5c43000 	strb	r3, [r4]
    4280:	eb000432 	bl	5350 <uart0_transmit>
    4284:	e55b3036 	ldrb	r3, [fp, #-54]
    4288:	e5d42000 	ldrb	r2, [r4]
    428c:	e1a00003 	mov	r0, r3
    4290:	e0833002 	add	r3, r3, r2
    4294:	e5c43000 	strb	r3, [r4]
    4298:	eb00042c 	bl	5350 <uart0_transmit>
    429c:	e55b3035 	ldrb	r3, [fp, #-53]
    42a0:	e5d42000 	ldrb	r2, [r4]
    42a4:	e1a00003 	mov	r0, r3
    42a8:	e0833002 	add	r3, r3, r2
    42ac:	e5c43000 	strb	r3, [r4]
    42b0:	eb000426 	bl	5350 <uart0_transmit>
    42b4:	e55b3038 	ldrb	r3, [fp, #-56]
    42b8:	e5d42000 	ldrb	r2, [r4]
    42bc:	e1a00003 	mov	r0, r3
    42c0:	e0833002 	add	r3, r3, r2
    42c4:	e5c43000 	strb	r3, [r4]
    42c8:	eb000420 	bl	5350 <uart0_transmit>
    42cc:	e55b3037 	ldrb	r3, [fp, #-55]
    42d0:	e5d42000 	ldrb	r2, [r4]
    42d4:	e1a00003 	mov	r0, r3
    42d8:	e0833002 	add	r3, r3, r2
    42dc:	e5c43000 	strb	r3, [r4]
    42e0:	eb00041a 	bl	5350 <uart0_transmit>
    42e4:	e3a000ff 	mov	r0, #255	; 0xff
    42e8:	eb000418 	bl	5350 <uart0_transmit>
    42ec:	ea000003 	b	4300 <.text+0x4300>
    42f0:	e59f2284 	ldr	r2, [pc, #644]	; 457c <.text+0x457c>
    42f4:	e5d23000 	ldrb	r3, [r2]
    42f8:	e2833001 	add	r3, r3, #1	; 0x1
    42fc:	e5c23000 	strb	r3, [r2]
    4300:	e59f2278 	ldr	r2, [pc, #632]	; 4580 <.text+0x4580>
    4304:	e5d23000 	ldrb	r3, [r2]
    4308:	e3530000 	cmp	r3, #0	; 0x0
    430c:	1a000007 	bne	4330 <.text+0x4330>
    4310:	e59f426c 	ldr	r4, [pc, #620]	; 4584 <.text+0x4584>
    4314:	e5940000 	ldr	r0, [r4]
    4318:	eb0029b6 	bl	e9f8 <__extendsfdf2>
    431c:	e28f2f8d 	add	r2, pc, #564	; 0x234
    4320:	e892000c 	ldmia	r2, {r2, r3}
    4324:	eb0028dd 	bl	e6a0 <__adddf3>
    4328:	eb002b6a 	bl	f0d8 <__truncdfsf2>
    432c:	e5840000 	str	r0, [r4]
    4330:	e59f3250 	ldr	r3, [pc, #592]	; 4588 <.text+0x4588>
    4334:	e5d37000 	ldrb	r7, [r3]
    4338:	e3570000 	cmp	r7, #0	; 0x0
    433c:	1a00003e 	bne	443c <.text+0x443c>
    4340:	e59f2244 	ldr	r2, [pc, #580]	; 458c <.text+0x458c>
    4344:	e1d230b0 	ldrh	r3, [r2]
    4348:	e59f6234 	ldr	r6, [pc, #564]	; 4584 <.text+0x4584>
    434c:	e3530000 	cmp	r3, #0	; 0x0
    4350:	12833001 	addne	r3, r3, #1	; 0x1
    4354:	11c230b0 	strneh	r3, [r2]
    4358:	e5960000 	ldr	r0, [r6]
    435c:	eb0029a5 	bl	e9f8 <__extendsfdf2>
    4360:	e28f2f7e 	add	r2, pc, #504	; 0x1f8
    4364:	e892000c 	ldmia	r2, {r2, r3}
    4368:	eb0028cc 	bl	e6a0 <__adddf3>
    436c:	eb002b1c 	bl	efe4 <__fixdfsi>
    4370:	e1a00800 	mov	r0, r0, lsl #16
    4374:	e1a00840 	mov	r0, r0, asr #16
    4378:	eb002c07 	bl	f39c <__floatsisf>
    437c:	e59f420c 	ldr	r4, [pc, #524]	; 4590 <.text+0x4590>
    4380:	e59fe20c 	ldr	lr, [pc, #524]	; 4594 <.text+0x4594>
    4384:	e59f5238 	ldr	r5, [pc, #568]	; 45c4 <.text+0x45c4>
    4388:	e1de20b0 	ldrh	r2, [lr]
    438c:	e1d410b0 	ldrh	r1, [r4]
    4390:	e1d5c0b0 	ldrh	ip, [r5]
    4394:	e59f31fc 	ldr	r3, [pc, #508]	; 4598 <.text+0x4598>
    4398:	e2822001 	add	r2, r2, #1	; 0x1
    439c:	e28cc001 	add	ip, ip, #1	; 0x1
    43a0:	e2811001 	add	r1, r1, #1	; 0x1
    43a4:	e5860000 	str	r0, [r6]
    43a8:	e1ce20b0 	strh	r2, [lr]
    43ac:	e1c5c0b0 	strh	ip, [r5]
    43b0:	e5d30000 	ldrb	r0, [r3]
    43b4:	e1c410b0 	strh	r1, [r4]
    43b8:	eb002983 	bl	e9cc <__floatsidf>
    43bc:	e28f2f69 	add	r2, pc, #420	; 0x1a4
    43c0:	e892000c 	ldmia	r2, {r2, r3}
    43c4:	eb002adb 	bl	ef38 <__ledf2>
    43c8:	e59f21cc 	ldr	r2, [pc, #460]	; 459c <.text+0x459c>
    43cc:	e3500000 	cmp	r0, #0	; 0x0
    43d0:	b5d23000 	ldrltb	r3, [r2]
    43d4:	b2833001 	addlt	r3, r3, #1	; 0x1
    43d8:	b5c23000 	strltb	r3, [r2]
    43dc:	e59f31bc 	ldr	r3, [pc, #444]	; 45a0 <.text+0x45a0>
    43e0:	a5c27000 	strgeb	r7, [r2]
    43e4:	e59f01b8 	ldr	r0, [pc, #440]	; 45a4 <.text+0x45a4>
    43e8:	e5d31000 	ldrb	r1, [r3]
    43ec:	e59f31a8 	ldr	r3, [pc, #424]	; 459c <.text+0x459c>
    43f0:	e5d32000 	ldrb	r2, [r3]
    43f4:	e5d03000 	ldrb	r3, [r0]
    43f8:	e59f61a4 	ldr	r6, [pc, #420]	; 45a4 <.text+0x45a4>
    43fc:	e3520004 	cmp	r2, #4	; 0x4
    4400:	83833001 	orrhi	r3, r3, #1	; 0x1
    4404:	e3510000 	cmp	r1, #0	; 0x0
    4408:	e5c03000 	strb	r3, [r0]
    440c:	e1a05006 	mov	r5, r6
    4410:	e3a04000 	mov	r4, #0	; 0x0
    4414:	0a000005 	beq	4430 <.text+0x4430>
    4418:	e59f3188 	ldr	r3, [pc, #392]	; 45a8 <.text+0x45a8>
    441c:	e59f1188 	ldr	r1, [pc, #392]	; 45ac <.text+0x45ac>
    4420:	e5930000 	ldr	r0, [r3]
    4424:	eb002cbb 	bl	f718 <__gesf2>
    4428:	e3500000 	cmp	r0, #0	; 0x0
    442c:	c3a04001 	movgt	r4, #1	; 0x1
    4430:	e5d53000 	ldrb	r3, [r5]
    4434:	e1833004 	orr	r3, r3, r4
    4438:	e5c63000 	strb	r3, [r6]
    443c:	e59f216c 	ldr	r2, [pc, #364]	; 45b0 <.text+0x45b0>
    4440:	e5d24000 	ldrb	r4, [r2]
    4444:	e3540001 	cmp	r4, #1	; 0x1
    4448:	0a00000b 	beq	447c <.text+0x447c>
    444c:	ca000002 	bgt	445c <.text+0x445c>
    4450:	e3540000 	cmp	r4, #0	; 0x0
    4454:	0a000003 	beq	4468 <.text+0x4468>
    4458:	ea000069 	b	4604 <.text+0x4604>
    445c:	e3540003 	cmp	r4, #3	; 0x3
    4460:	0a00005e 	beq	45e0 <.text+0x45e0>
    4464:	ea000066 	b	4604 <.text+0x4604>
    4468:	eb001270 	bl	8e30 <estimator_propagate_state>
    446c:	ebfff5dd 	bl	1be8 <checkGPS>
    4470:	ebfff6a1 	bl	1efc <navigation_task>
    4474:	ebfff753 	bl	21c8 <guidance_task>
    4478:	ea000061 	b	4604 <.text+0x4604>
    447c:	e59f6108 	ldr	r6, [pc, #264]	; 458c <.text+0x458c>
    4480:	e1d650b0 	ldrh	r5, [r6]
    4484:	e3550000 	cmp	r5, #0	; 0x0
    4488:	1a00005d 	bne	4604 <.text+0x4604>
    448c:	e59f3120 	ldr	r3, [pc, #288]	; 45b4 <.text+0x45b4>
    4490:	e3a01000 	mov	r1, #0	; 0x0
    4494:	e5930000 	ldr	r0, [r3]
    4498:	eb002c9e 	bl	f718 <__gesf2>
    449c:	e3500000 	cmp	r0, #0	; 0x0
    44a0:	da000057 	ble	4604 <.text+0x4604>
    44a4:	e59f30f4 	ldr	r3, [pc, #244]	; 45a0 <.text+0x45a0>
    44a8:	e3a00009 	mov	r0, #9	; 0x9
    44ac:	e5c34000 	strb	r4, [r3]
    44b0:	e1c640b0 	strh	r4, [r6]
    44b4:	eb000391 	bl	5300 <uart0_check_free_space>
    44b8:	e31000ff 	tst	r0, #255	; 0xff
    44bc:	059f20b8 	ldreq	r2, [pc, #184]	; 457c <.text+0x457c>
    44c0:	05d23000 	ldreqb	r3, [r2]
    44c4:	02833001 	addeq	r3, r3, #1	; 0x1
    44c8:	05c23000 	streqb	r3, [r2]
    44cc:	0a00004c 	beq	4604 <.text+0x4604>
    44d0:	e59f40a0 	ldr	r4, [pc, #160]	; 4578 <.text+0x4578>
    44d4:	e3a00004 	mov	r0, #4	; 0x4
    44d8:	e5c45000 	strb	r5, [r4]
    44dc:	eb00039b 	bl	5350 <uart0_transmit>
    44e0:	e5d43000 	ldrb	r3, [r4]
    44e4:	e2833005 	add	r3, r3, #5	; 0x5
    44e8:	e5c43000 	strb	r3, [r4]
    44ec:	e3a00005 	mov	r0, #5	; 0x5
    44f0:	eb000396 	bl	5350 <uart0_transmit>
    44f4:	e5d43000 	ldrb	r3, [r4]
    44f8:	e59f50c4 	ldr	r5, [pc, #196]	; 45c4 <.text+0x45c4>
    44fc:	e2833004 	add	r3, r3, #4	; 0x4
    4500:	e5c43000 	strb	r3, [r4]
    4504:	e3a00004 	mov	r0, #4	; 0x4
    4508:	eb000390 	bl	5350 <uart0_transmit>
    450c:	e5d53000 	ldrb	r3, [r5]
    4510:	e5d42000 	ldrb	r2, [r4]
    4514:	e1a00003 	mov	r0, r3
    4518:	e0833002 	add	r3, r3, r2
    451c:	e5c43000 	strb	r3, [r4]
    4520:	eb00038a 	bl	5350 <uart0_transmit>
    4524:	e5d53001 	ldrb	r3, [r5, #1]
    4528:	e5d42000 	ldrb	r2, [r4]
    452c:	e1a00003 	mov	r0, r3
    4530:	e0833002 	add	r3, r3, r2
    4534:	e5c43000 	strb	r3, [r4]
    4538:	eb000384 	bl	5350 <uart0_transmit>
    453c:	e3a000ff 	mov	r0, #255	; 0xff
    4540:	eb000382 	bl	5350 <uart0_transmit>
    4544:	ea00002e 	b	4604 <.text+0x4604>
    4548:	400921fb 	strmid	r2, [r9], -fp
    454c:	54442d18 	strplb	r2, [r4], #-3352
    4550:	40668000 	rsbmi	r8, r6, r0
    4554:	00000000 	andeq	r0, r0, r0
    4558:	3fb99999 	swicc	0x00b99999
    455c:	9999999a 	ldmlsib	r9, {r1, r3, r4, r7, r8, fp, ip, pc}
    4560:	3fe00000 	swicc	0x00e00000
    4564:	00000000 	andeq	r0, r0, r0
    4568:	40574000 	submis	r4, r7, r0
    456c:	00000000 	andeq	r0, r0, r0
    4570:	40001034 	andmi	r1, r0, r4, lsr r0
    4574:	40001050 	andmi	r1, r0, r0, asr r0
    4578:	40000d25 	andmi	r0, r0, r5, lsr #26
    457c:	40000a8b 	andmi	r0, r0, fp, lsl #21
    4580:	400004b5 	strmih	r0, [r0], -r5
    4584:	40001098 	mulmi	r0, r8, r0
    4588:	400004b7 	strmih	r0, [r0], -r7
    458c:	40001030 	andmi	r1, r0, r0, lsr r0
    4590:	400010de 	ldrmid	r1, [r0], -lr
    4594:	400010dc 	ldrmid	r1, [r0], -ip
    4598:	40000a1c 	andmi	r0, r0, ip, lsl sl
    459c:	400004c3 	andmi	r0, r0, r3, asr #9
    45a0:	400004a9 	andmi	r0, r0, r9, lsr #9
    45a4:	400004aa 	andmi	r0, r0, sl, lsr #9
    45a8:	400010bc 	strmih	r1, [r0], -ip
    45ac:	49095440 	stmmidb	r9, {r6, sl, ip, lr}
    45b0:	400004b6 	strmih	r0, [r0], -r6
    45b4:	40001054 	andmi	r1, r0, r4, asr r0
    45b8:	40001260 	andmi	r1, r0, r0, ror #4
    45bc:	e0028000 	and	r8, r2, r0
    45c0:	400004b4 	strmih	r0, [r0], -r4
    45c4:	400007a4 	andmi	r0, r0, r4, lsr #15
    45c8:	40000010 	andmi	r0, r0, r0, lsl r0
    45cc:	400011ec 	andmi	r1, r0, ip, ror #3
    45d0:	40001134 	andmi	r1, r0, r4, lsr r1
    45d4:	40001118 	andmi	r1, r0, r8, lsl r1
    45d8:	400010fc 	strmid	r1, [r0], -ip
    45dc:	400004f8 	strmid	r0, [r0], -r8
    45e0:	e51f3030 	ldr	r3, [pc, #-48]	; 45b8 <.text+0x45b8>
    45e4:	e5d33000 	ldrb	r3, [r3]
    45e8:	e3530000 	cmp	r3, #0	; 0x0
    45ec:	151f3038 	ldrne	r3, [pc, #-56]	; 45bc <.text+0x45bc>
    45f0:	051f303c 	ldreq	r3, [pc, #-60]	; 45bc <.text+0x45bc>
    45f4:	13a02080 	movne	r2, #128	; 0x80
    45f8:	03a02080 	moveq	r2, #128	; 0x80
    45fc:	15832004 	strne	r2, [r3, #4]
    4600:	0583200c 	streq	r2, [r3, #12]
    4604:	e51f204c 	ldr	r2, [pc, #-76]	; 45c0 <.text+0x45c0>
    4608:	e5d23000 	ldrb	r3, [r2]
    460c:	e3530000 	cmp	r3, #0	; 0x0
    4610:	1a000019 	bne	467c <.text+0x467c>
    4614:	eb00204b 	bl	c748 <gyro_update>
    4618:	eb000f65 	bl	83b4 <ir_update>
    461c:	eb00114d 	bl	8b58 <estimator_update_state_infrared>
    4620:	eb001ba5 	bl	b4bc <h_ctl_attitude_loop>
    4624:	eb001fa7 	bl	c4c8 <v_ctl_throttle_slew>
    4628:	e51f306c 	ldr	r3, [pc, #-108]	; 45c4 <.text+0x45c4>
    462c:	e1d310b0 	ldrh	r1, [r3]
    4630:	e51f3070 	ldr	r3, [pc, #-112]	; 45c8 <.text+0x45c8>
    4634:	e5932000 	ldr	r2, [r3]
    4638:	e51f3074 	ldr	r3, [pc, #-116]	; 45cc <.text+0x45cc>
    463c:	e1d330b0 	ldrh	r3, [r3]
    4640:	e1c230b0 	strh	r3, [r2]
    4644:	e51f307c 	ldr	r3, [pc, #-124]	; 45d0 <.text+0x45d0>
    4648:	e1d330b0 	ldrh	r3, [r3]
    464c:	e1c230b2 	strh	r3, [r2, #2]
    4650:	e51f3084 	ldr	r3, [pc, #-132]	; 45d4 <.text+0x45d4>
    4654:	e1d330b0 	ldrh	r3, [r3]
    4658:	e1c230b4 	strh	r3, [r2, #4]
    465c:	e51f308c 	ldr	r3, [pc, #-140]	; 45d8 <.text+0x45d8>
    4660:	e1d330b0 	ldrh	r3, [r3]
    4664:	e351000f 	cmp	r1, #15	; 0xf
    4668:	e1c230b6 	strh	r3, [r2, #6]
    466c:	0b00076f 	bleq	6430 <gps_reset>
    4670:	e51f309c 	ldr	r3, [pc, #-156]	; 45dc <.text+0x45dc>
    4674:	e3a02001 	mov	r2, #1	; 0x1
    4678:	e5c32000 	strb	r2, [r3]
    467c:	e24bd028 	sub	sp, fp, #40	; 0x28
    4680:	e89d6ff0 	ldmia	sp, {r4, r5, r6, r7, r8, r9, sl, fp, sp, lr}
    4684:	e12fff1e 	bx	lr

00004688 <init_ap>:
    4688:	e1a0c00d 	mov	ip, sp
    468c:	e92dd8f0 	stmdb	sp!, {r4, r5, r6, r7, fp, ip, lr, pc}
    4690:	e24cb004 	sub	fp, ip, #4	; 0x4
    4694:	eb000ef7 	bl	8278 <ir_init>
    4698:	eb001ffd 	bl	c694 <gyro_init>
    469c:	eb00075e 	bl	641c <gps_init>
    46a0:	eb0002df 	bl	5224 <uart0_init_tx>
    46a4:	eb000314 	bl	52fc <uart0_init_rx>
    46a8:	eb0003ab 	bl	555c <uart1_init_tx>
    46ac:	eb0003f4 	bl	5684 <uart1_init_rx>
    46b0:	e59f20ec 	ldr	r2, [pc, #236]	; 47a4 <.text+0x47a4>
    46b4:	e5923000 	ldr	r3, [r2]
    46b8:	e59f10e8 	ldr	r1, [pc, #232]	; 47a8 <.text+0x47a8>
    46bc:	e5823000 	str	r3, [r2]
    46c0:	e59f30e4 	ldr	r3, [pc, #228]	; 47ac <.text+0x47ac>
    46c4:	e5912008 	ldr	r2, [r1, #8]
    46c8:	e3a00000 	mov	r0, #0	; 0x0
    46cc:	e5c30000 	strb	r0, [r3]
    46d0:	e3822080 	orr	r2, r2, #128	; 0x80
    46d4:	e3a03080 	mov	r3, #128	; 0x80
    46d8:	e5812008 	str	r2, [r1, #8]
    46dc:	e581300c 	str	r3, [r1, #12]
    46e0:	eb0007b2 	bl	65b0 <gps_configure>
    46e4:	eb001a36 	bl	afc4 <h_ctl_init>
    46e8:	eb001da5 	bl	bd84 <v_ctl_init>
    46ec:	eb001196 	bl	8d4c <estimator_init>
    46f0:	eb0016c1 	bl	a1fc <nav_init>
    46f4:	ebffef1e 	bl	374 <enableIRQ>
    46f8:	e3a0501e 	mov	r5, #30	; 0x1e
    46fc:	e59f30ac 	ldr	r3, [pc, #172]	; 47b0 <.text+0x47b0>
    4700:	e59f70ac 	ldr	r7, [pc, #172]	; 47b4 <.text+0x47b4>
    4704:	e5932008 	ldr	r2, [r3, #8]
    4708:	e5971000 	ldr	r1, [r7]
    470c:	e59f30a4 	ldr	r3, [pc, #164]	; 47b8 <.text+0x47b8>
    4710:	e59fc0a4 	ldr	ip, [pc, #164]	; 47bc <.text+0x47bc>
    4714:	e0612002 	rsb	r2, r1, r2
    4718:	e1520003 	cmp	r2, r3
    471c:	e59f409c 	ldr	r4, [pc, #156]	; 47c0 <.text+0x47c0>
    4720:	e081000c 	add	r0, r1, ip
    4724:	93a03000 	movls	r3, #0	; 0x0
    4728:	9a000015 	bls	4784 <init_ap+0xfc>
    472c:	e5942000 	ldr	r2, [r4]
    4730:	e59f308c 	ldr	r3, [pc, #140]	; 47c4 <.text+0x47c4>
    4734:	e082c00c 	add	ip, r2, ip
    4738:	e59f1088 	ldr	r1, [pc, #136]	; 47c8 <.text+0x47c8>
    473c:	e15c0003 	cmp	ip, r3
    4740:	e59fe060 	ldr	lr, [pc, #96]	; 47a8 <.text+0x47a8>
    4744:	e59f6080 	ldr	r6, [pc, #128]	; 47cc <.text+0x47cc>
    4748:	e0821001 	add	r1, r2, r1
    474c:	e5870000 	str	r0, [r7]
    4750:	e584c000 	str	ip, [r4]
    4754:	9a000009 	bls	4780 <init_ap+0xf8>
    4758:	e59e2010 	ldr	r2, [lr, #16]
    475c:	e1d630b0 	ldrh	r3, [r6]
    4760:	e3120201 	tst	r2, #268435456	; 0x10000000
    4764:	e2833001 	add	r3, r3, #1	; 0x1
    4768:	e1c630b0 	strh	r3, [r6]
    476c:	13a03201 	movne	r3, #268435456	; 0x10000000
    4770:	03a03201 	moveq	r3, #268435456	; 0x10000000
    4774:	e5841000 	str	r1, [r4]
    4778:	158e301c 	strne	r3, [lr, #28]
    477c:	058e3014 	streq	r3, [lr, #20]
    4780:	e3a03001 	mov	r3, #1	; 0x1
    4784:	e3530000 	cmp	r3, #0	; 0x0
    4788:	e2453001 	sub	r3, r5, #1	; 0x1
    478c:	120350ff 	andne	r5, r3, #255	; 0xff
    4790:	e3550000 	cmp	r5, #0	; 0x0
    4794:	1affffd8 	bne	46fc <init_ap+0x74>
    4798:	eb000658 	bl	6100 <aerocomm_init>
    479c:	e89d68f0 	ldmia	sp, {r4, r5, r6, r7, fp, sp, lr}
    47a0:	e12fff1e 	bx	lr
    47a4:	e002c000 	and	ip, r2, r0
    47a8:	e0028000 	and	r8, r2, r0
    47ac:	40001260 	andmi	r1, r0, r0, ror #4
    47b0:	e0004000 	and	r4, r0, r0
    47b4:	400004c8 	andmi	r0, r0, r8, asr #9
    47b8:	00039386 	andeq	r9, r3, r6, lsl #7
    47bc:	00039387 	andeq	r9, r3, r7, lsl #7
    47c0:	400007a8 	andmi	r0, r0, r8, lsr #15
    47c4:	00e4e1c0 	rsceq	lr, r4, r0, asr #3
    47c8:	ff1eb1c7 	swinv	0x001eb1c7
    47cc:	400007a4 	andmi	r0, r0, r4, lsr #15

000047d0 <event_task_ap>:
    47d0:	e1a0c00d 	mov	ip, sp
    47d4:	e92dd9f0 	stmdb	sp!, {r4, r5, r6, r7, r8, fp, ip, lr, pc}
    47d8:	e24cb004 	sub	fp, ip, #4	; 0x4
    47dc:	e59f57d0 	ldr	r5, [pc, #2000]	; 4fb4 <.text+0x4fb4>
    47e0:	e59fc7d0 	ldr	ip, [pc, #2000]	; 4fb8 <.text+0x4fb8>
    47e4:	e1d520b0 	ldrh	r2, [r5]
    47e8:	e1dc30b0 	ldrh	r3, [ip]
    47ec:	e1520003 	cmp	r2, r3
    47f0:	0a00000f 	beq	4834 <event_task_ap+0x64>
    47f4:	e59f47c0 	ldr	r4, [pc, #1984]	; 4fbc <.text+0x4fbc>
    47f8:	e5d43000 	ldrb	r3, [r4]
    47fc:	e3530000 	cmp	r3, #0	; 0x0
    4800:	1a00000b 	bne	4834 <event_task_ap+0x64>
    4804:	e1dc10b0 	ldrh	r1, [ip]
    4808:	e59f27b0 	ldr	r2, [pc, #1968]	; 4fc0 <.text+0x4fc0>
    480c:	e2813001 	add	r3, r1, #1	; 0x1
    4810:	e203307f 	and	r3, r3, #127	; 0x7f
    4814:	e1cc30b0 	strh	r3, [ip]
    4818:	e7d20001 	ldrb	r0, [r2, r1]
    481c:	eb000c77 	bl	7a00 <parse_ubx>
    4820:	e59fc790 	ldr	ip, [pc, #1936]	; 4fb8 <.text+0x4fb8>
    4824:	e1d520b0 	ldrh	r2, [r5]
    4828:	e1dc30b0 	ldrh	r3, [ip]
    482c:	e1520003 	cmp	r2, r3
    4830:	1afffff0 	bne	47f8 <event_task_ap+0x28>
    4834:	e59f6780 	ldr	r6, [pc, #1920]	; 4fbc <.text+0x4fbc>
    4838:	e5d63000 	ldrb	r3, [r6]
    483c:	e3530000 	cmp	r3, #0	; 0x0
    4840:	0a000008 	beq	4868 <event_task_ap+0x98>
    4844:	e59f5778 	ldr	r5, [pc, #1912]	; 4fc4 <.text+0x4fc4>
    4848:	eb000bfa 	bl	7838 <parse_gps_msg>
    484c:	e5d53000 	ldrb	r3, [r5]
    4850:	e3a04000 	mov	r4, #0	; 0x0
    4854:	e3530000 	cmp	r3, #0	; 0x0
    4858:	e5c64000 	strb	r4, [r6]
    485c:	0a000001 	beq	4868 <event_task_ap+0x98>
    4860:	eb000d4d 	bl	7d9c <use_gps_pos>
    4864:	e5c54000 	strb	r4, [r5]
    4868:	e59f8758 	ldr	r8, [pc, #1880]	; 4fc8 <.text+0x4fc8>
    486c:	e59fc758 	ldr	ip, [pc, #1880]	; 4fcc <.text+0x4fcc>
    4870:	e1d830b0 	ldrh	r3, [r8]
    4874:	e1dc20b0 	ldrh	r2, [ip]
    4878:	e1530002 	cmp	r3, r2
    487c:	0a0000b5 	beq	4b58 <event_task_ap+0x388>
    4880:	e59f3748 	ldr	r3, [pc, #1864]	; 4fd0 <.text+0x4fd0>
    4884:	e5d33000 	ldrb	r3, [r3]
    4888:	e3530000 	cmp	r3, #0	; 0x0
    488c:	1a000071 	bne	4a58 <event_task_ap+0x288>
    4890:	e59f773c 	ldr	r7, [pc, #1852]	; 4fd4 <.text+0x4fd4>
    4894:	e1a03002 	mov	r3, r2
    4898:	e5d71000 	ldrb	r1, [r7]
    489c:	e2822001 	add	r2, r2, #1	; 0x1
    48a0:	e202207f 	and	r2, r2, #127	; 0x7f
    48a4:	e20100ff 	and	r0, r1, #255	; 0xff
    48a8:	e1cc20b0 	strh	r2, [ip]
    48ac:	e59f2724 	ldr	r2, [pc, #1828]	; 4fd8 <.text+0x4fd8>
    48b0:	e3500001 	cmp	r0, #1	; 0x1
    48b4:	e7d26003 	ldrb	r6, [r2, r3]
    48b8:	0a00002e 	beq	4978 <event_task_ap+0x1a8>
    48bc:	ca000002 	bgt	48cc <event_task_ap+0xfc>
    48c0:	e3500000 	cmp	r0, #0	; 0x0
    48c4:	0a000003 	beq	48d8 <event_task_ap+0x108>
    48c8:	ea00005c 	b	4a40 <event_task_ap+0x270>
    48cc:	e3500002 	cmp	r0, #2	; 0x2
    48d0:	0a00003d 	beq	49cc <event_task_ap+0x1fc>
    48d4:	ea000059 	b	4a40 <event_task_ap+0x270>
    48d8:	e3560083 	cmp	r6, #131	; 0x83
    48dc:	1a000008 	bne	4904 <event_task_ap+0x134>
    48e0:	e59f36f4 	ldr	r3, [pc, #1780]	; 4fdc <.text+0x4fdc>
    48e4:	e3a02005 	mov	r2, #5	; 0x5
    48e8:	e5c32000 	strb	r2, [r3]
    48ec:	e59f36ec 	ldr	r3, [pc, #1772]	; 4fe0 <.text+0x4fe0>
    48f0:	e2811001 	add	r1, r1, #1	; 0x1
    48f4:	e2422004 	sub	r2, r2, #4	; 0x4
    48f8:	e5c71000 	strb	r1, [r7]
    48fc:	e5c36000 	strb	r6, [r3]
    4900:	ea000017 	b	4964 <event_task_ap+0x194>
    4904:	e3560081 	cmp	r6, #129	; 0x81
    4908:	1a000008 	bne	4930 <event_task_ap+0x160>
    490c:	e59f36c8 	ldr	r3, [pc, #1736]	; 4fdc <.text+0x4fdc>
    4910:	e3a02007 	mov	r2, #7	; 0x7
    4914:	e5c32000 	strb	r2, [r3]
    4918:	e59f36c0 	ldr	r3, [pc, #1728]	; 4fe0 <.text+0x4fe0>
    491c:	e2811001 	add	r1, r1, #1	; 0x1
    4920:	e2422006 	sub	r2, r2, #6	; 0x6
    4924:	e5c71000 	strb	r1, [r7]
    4928:	e5c36000 	strb	r6, [r3]
    492c:	ea00000c 	b	4964 <event_task_ap+0x194>
    4930:	e3560082 	cmp	r6, #130	; 0x82
    4934:	1a000041 	bne	4a40 <event_task_ap+0x270>
    4938:	e2813001 	add	r3, r1, #1	; 0x1
    493c:	e5c73000 	strb	r3, [r7]
    4940:	e59f3694 	ldr	r3, [pc, #1684]	; 4fdc <.text+0x4fdc>
    4944:	e3a01004 	mov	r1, #4	; 0x4
    4948:	e5d72000 	ldrb	r2, [r7]
    494c:	e5c31000 	strb	r1, [r3]
    4950:	e59f3688 	ldr	r3, [pc, #1672]	; 4fe0 <.text+0x4fe0>
    4954:	e2822001 	add	r2, r2, #1	; 0x1
    4958:	e5c36000 	strb	r6, [r3]
    495c:	e5c72000 	strb	r2, [r7]
    4960:	e3a02001 	mov	r2, #1	; 0x1
    4964:	e59f3678 	ldr	r3, [pc, #1656]	; 4fe4 <.text+0x4fe4>
    4968:	e5c32000 	strb	r2, [r3]
    496c:	e59f3674 	ldr	r3, [pc, #1652]	; 4fe8 <.text+0x4fe8>
    4970:	e5c36000 	strb	r6, [r3]
    4974:	ea000031 	b	4a40 <event_task_ap+0x270>
    4978:	e59f3650 	ldr	r3, [pc, #1616]	; 4fd0 <.text+0x4fd0>
    497c:	e5d33000 	ldrb	r3, [r3]
    4980:	e3530000 	cmp	r3, #0	; 0x0
    4984:	1a000023 	bne	4a18 <event_task_ap+0x248>
    4988:	e59fc64c 	ldr	ip, [pc, #1612]	; 4fdc <.text+0x4fdc>
    498c:	e59f5650 	ldr	r5, [pc, #1616]	; 4fe4 <.text+0x4fe4>
    4990:	e59fe648 	ldr	lr, [pc, #1608]	; 4fe0 <.text+0x4fe0>
    4994:	e5dc3000 	ldrb	r3, [ip]
    4998:	e5d54000 	ldrb	r4, [r5]
    499c:	e5de2000 	ldrb	r2, [lr]
    49a0:	e0863003 	add	r3, r6, r3
    49a4:	e5cc3000 	strb	r3, [ip]
    49a8:	e59f3638 	ldr	r3, [pc, #1592]	; 4fe8 <.text+0x4fe8>
    49ac:	e0862002 	add	r2, r6, r2
    49b0:	e2811001 	add	r1, r1, #1	; 0x1
    49b4:	e2840001 	add	r0, r4, #1	; 0x1
    49b8:	e5ce2000 	strb	r2, [lr]
    49bc:	e5c71000 	strb	r1, [r7]
    49c0:	e5c50000 	strb	r0, [r5]
    49c4:	e7c36004 	strb	r6, [r3, r4]
    49c8:	ea00001c 	b	4a40 <event_task_ap+0x270>
    49cc:	e59f2610 	ldr	r2, [pc, #1552]	; 4fe4 <.text+0x4fe4>
    49d0:	e5d2c000 	ldrb	ip, [r2]
    49d4:	e28c3001 	add	r3, ip, #1	; 0x1
    49d8:	e5c23000 	strb	r3, [r2]
    49dc:	e59f05fc 	ldr	r0, [pc, #1532]	; 4fe0 <.text+0x4fe0>
    49e0:	e59f35f4 	ldr	r3, [pc, #1524]	; 4fdc <.text+0x4fdc>
    49e4:	e5d21000 	ldrb	r1, [r2]
    49e8:	e5d32000 	ldrb	r2, [r3]
    49ec:	e5d03000 	ldrb	r3, [r0]
    49f0:	e0863003 	add	r3, r6, r3
    49f4:	e5c03000 	strb	r3, [r0]
    49f8:	e59f35e8 	ldr	r3, [pc, #1512]	; 4fe8 <.text+0x4fe8>
    49fc:	e1510002 	cmp	r1, r2
    4a00:	e7c3600c 	strb	r6, [r3, ip]
    4a04:	059f35c4 	ldreq	r3, [pc, #1476]	; 4fd0 <.text+0x4fd0>
    4a08:	03a02001 	moveq	r2, #1	; 0x1
    4a0c:	05c32000 	streqb	r2, [r3]
    4a10:	0a000008 	beq	4a38 <event_task_ap+0x268>
    4a14:	ea000009 	b	4a40 <event_task_ap+0x270>
    4a18:	e59f15cc 	ldr	r1, [pc, #1484]	; 4fec <.text+0x4fec>
    4a1c:	e59f05cc 	ldr	r0, [pc, #1484]	; 4ff0 <.text+0x4ff0>
    4a20:	e5d13000 	ldrb	r3, [r1]
    4a24:	e5d02000 	ldrb	r2, [r0]
    4a28:	e2833001 	add	r3, r3, #1	; 0x1
    4a2c:	e2822001 	add	r2, r2, #1	; 0x1
    4a30:	e5c13000 	strb	r3, [r1]
    4a34:	e5c02000 	strb	r2, [r0]
    4a38:	e3a03000 	mov	r3, #0	; 0x0
    4a3c:	e5c73000 	strb	r3, [r7]
    4a40:	e59f3584 	ldr	r3, [pc, #1412]	; 4fcc <.text+0x4fcc>
    4a44:	e1d320b0 	ldrh	r2, [r3]
    4a48:	e1d830b0 	ldrh	r3, [r8]
    4a4c:	e1530002 	cmp	r3, r2
    4a50:	e59fc574 	ldr	ip, [pc, #1396]	; 4fcc <.text+0x4fcc>
    4a54:	1affff89 	bne	4880 <event_task_ap+0xb0>
    4a58:	e59f5570 	ldr	r5, [pc, #1392]	; 4fd0 <.text+0x4fd0>
    4a5c:	e5d53000 	ldrb	r3, [r5]
    4a60:	e3530000 	cmp	r3, #0	; 0x0
    4a64:	0a00003b 	beq	4b58 <event_task_ap+0x388>
    4a68:	e59fe578 	ldr	lr, [pc, #1400]	; 4fe8 <.text+0x4fe8>
    4a6c:	e5de3000 	ldrb	r3, [lr]
    4a70:	e3530082 	cmp	r3, #130	; 0x82
    4a74:	0a000029 	beq	4b20 <event_task_ap+0x350>
    4a78:	ca000002 	bgt	4a88 <event_task_ap+0x2b8>
    4a7c:	e3530081 	cmp	r3, #129	; 0x81
    4a80:	0a000013 	beq	4ad4 <event_task_ap+0x304>
    4a84:	ea000031 	b	4b50 <event_task_ap+0x380>
    4a88:	e3530083 	cmp	r3, #131	; 0x83
    4a8c:	1a00002f 	bne	4b50 <event_task_ap+0x380>
    4a90:	e59f4544 	ldr	r4, [pc, #1348]	; 4fdc <.text+0x4fdc>
    4a94:	e5d43000 	ldrb	r3, [r4]
    4a98:	e3530005 	cmp	r3, #5	; 0x5
    4a9c:	e59f3550 	ldr	r3, [pc, #1360]	; 4ff4 <.text+0x4ff4>
    4aa0:	e3a02001 	mov	r2, #1	; 0x1
    4aa4:	e5c32000 	strb	r2, [r3]
    4aa8:	e3a0c005 	mov	ip, #5	; 0x5
    4aac:	9a000019 	bls	4b18 <event_task_ap+0x348>
    4ab0:	e59f3540 	ldr	r3, [pc, #1344]	; 4ff8 <.text+0x4ff8>
    4ab4:	e28c1001 	add	r1, ip, #1	; 0x1
    4ab8:	e5d40000 	ldrb	r0, [r4]
    4abc:	e08c3003 	add	r3, ip, r3
    4ac0:	e7de200c 	ldrb	r2, [lr, ip]
    4ac4:	e201c0ff 	and	ip, r1, #255	; 0xff
    4ac8:	e150000c 	cmp	r0, ip
    4acc:	e5432005 	strb	r2, [r3, #-5]
    4ad0:	eafffff5 	b	4aac <event_task_ap+0x2dc>
    4ad4:	e59f4500 	ldr	r4, [pc, #1280]	; 4fdc <.text+0x4fdc>
    4ad8:	e5d43000 	ldrb	r3, [r4]
    4adc:	e5de2003 	ldrb	r2, [lr, #3]
    4ae0:	e3530007 	cmp	r3, #7	; 0x7
    4ae4:	e59f3508 	ldr	r3, [pc, #1288]	; 4ff4 <.text+0x4ff4>
    4ae8:	e5c32000 	strb	r2, [r3]
    4aec:	e3a0c007 	mov	ip, #7	; 0x7
    4af0:	9a000008 	bls	4b18 <event_task_ap+0x348>
    4af4:	e59f34fc 	ldr	r3, [pc, #1276]	; 4ff8 <.text+0x4ff8>
    4af8:	e28c1001 	add	r1, ip, #1	; 0x1
    4afc:	e5d40000 	ldrb	r0, [r4]
    4b00:	e08c3003 	add	r3, ip, r3
    4b04:	e7de200c 	ldrb	r2, [lr, ip]
    4b08:	e201c0ff 	and	ip, r1, #255	; 0xff
    4b0c:	e150000c 	cmp	r0, ip
    4b10:	e5432007 	strb	r2, [r3, #-7]
    4b14:	eafffff5 	b	4af0 <event_task_ap+0x320>
    4b18:	e3a02001 	mov	r2, #1	; 0x1
    4b1c:	ea000009 	b	4b48 <event_task_ap+0x378>
    4b20:	e59f34d4 	ldr	r3, [pc, #1236]	; 4ffc <.text+0x4ffc>
    4b24:	e3a02001 	mov	r2, #1	; 0x1
    4b28:	e5c32000 	strb	r2, [r3]
    4b2c:	e5de1002 	ldrb	r1, [lr, #2]
    4b30:	e59f34bc 	ldr	r3, [pc, #1212]	; 4ff4 <.text+0x4ff4>
    4b34:	e5de0003 	ldrb	r0, [lr, #3]
    4b38:	e5c31000 	strb	r1, [r3]
    4b3c:	e59f34bc 	ldr	r3, [pc, #1212]	; 5000 <.text+0x5000>
    4b40:	e5c30000 	strb	r0, [r3]
    4b44:	e2422001 	sub	r2, r2, #1	; 0x1
    4b48:	e59f34b4 	ldr	r3, [pc, #1204]	; 5004 <.text+0x5004>
    4b4c:	e5c32000 	strb	r2, [r3]
    4b50:	e3a03000 	mov	r3, #0	; 0x0
    4b54:	e5c53000 	strb	r3, [r5]
    4b58:	e59f44a4 	ldr	r4, [pc, #1188]	; 5004 <.text+0x5004>
    4b5c:	e5d43000 	ldrb	r3, [r4]
    4b60:	e3530000 	cmp	r3, #0	; 0x0
    4b64:	0a000002 	beq	4b74 <event_task_ap+0x3a4>
    4b68:	eb00034d 	bl	58a4 <dl_parse_msg>
    4b6c:	e3a03000 	mov	r3, #0	; 0x0
    4b70:	e5c43000 	strb	r3, [r4]
    4b74:	e59f248c 	ldr	r2, [pc, #1164]	; 5008 <.text+0x5008>
    4b78:	e5d23000 	ldrb	r3, [r2]
    4b7c:	e3530000 	cmp	r3, #0	; 0x0
    4b80:	0a000109 	beq	4fac <event_task_ap+0x7dc>
    4b84:	e59f6480 	ldr	r6, [pc, #1152]	; 500c <.text+0x500c>
    4b88:	e3a03000 	mov	r3, #0	; 0x0
    4b8c:	e5c23000 	strb	r3, [r2]
    4b90:	e5962000 	ldr	r2, [r6]
    4b94:	e5d22011 	ldrb	r2, [r2, #17]
    4b98:	e3120002 	tst	r2, #2	; 0x2
    4b9c:	e1a0e003 	mov	lr, r3
    4ba0:	e1a02003 	mov	r2, r3
    4ba4:	0a000004 	beq	4bbc <event_task_ap+0x3ec>
    4ba8:	e59f3460 	ldr	r3, [pc, #1120]	; 5010 <.text+0x5010>
    4bac:	e5d33000 	ldrb	r3, [r3]
    4bb0:	e3530001 	cmp	r3, #1	; 0x1
    4bb4:	83a02000 	movhi	r2, #0	; 0x0
    4bb8:	93a02001 	movls	r2, #1	; 0x1
    4bbc:	e59fc44c 	ldr	ip, [pc, #1100]	; 5010 <.text+0x5010>
    4bc0:	e5dc3000 	ldrb	r3, [ip]
    4bc4:	e3530003 	cmp	r3, #3	; 0x3
    4bc8:	13530000 	cmpne	r3, #0	; 0x0
    4bcc:	0a000011 	beq	4c18 <event_task_ap+0x448>
    4bd0:	e3530001 	cmp	r3, #1	; 0x1
    4bd4:	0a00000f 	beq	4c18 <event_task_ap+0x448>
    4bd8:	e3530004 	cmp	r3, #4	; 0x4
    4bdc:	0a00000d 	beq	4c18 <event_task_ap+0x448>
    4be0:	e59f342c 	ldr	r3, [pc, #1068]	; 5014 <.text+0x5014>
    4be4:	e5d33000 	ldrb	r3, [r3]
    4be8:	e3530000 	cmp	r3, #0	; 0x0
    4bec:	0a000009 	beq	4c18 <event_task_ap+0x448>
    4bf0:	e59f3420 	ldr	r3, [pc, #1056]	; 5018 <.text+0x5018>
    4bf4:	e5d33000 	ldrb	r3, [r3]
    4bf8:	e3530000 	cmp	r3, #0	; 0x0
    4bfc:	13a03003 	movne	r3, #3	; 0x3
    4c00:	15cc3000 	strneb	r3, [ip]
    4c04:	13a0e001 	movne	lr, #1	; 0x1
    4c08:	e3520000 	cmp	r2, #0	; 0x0
    4c0c:	13a03003 	movne	r3, #3	; 0x3
    4c10:	15cc3000 	strneb	r3, [ip]
    4c14:	13a0e001 	movne	lr, #1	; 0x1
    4c18:	e5960000 	ldr	r0, [r6]
    4c1c:	e5d03011 	ldrb	r3, [r0, #17]
    4c20:	e3130010 	tst	r3, #16	; 0x10
    4c24:	e3a02000 	mov	r2, #0	; 0x0
    4c28:	0a000018 	beq	4c90 <event_task_ap+0x4c0>
    4c2c:	e5dc3000 	ldrb	r3, [ip]
    4c30:	e2433003 	sub	r3, r3, #3	; 0x3
    4c34:	e3530001 	cmp	r3, #1	; 0x1
    4c38:	8a000005 	bhi	4c54 <event_task_ap+0x484>
    4c3c:	e59f13d8 	ldr	r1, [pc, #984]	; 501c <.text+0x501c>
    4c40:	e5d13000 	ldrb	r3, [r1]
    4c44:	e1530002 	cmp	r3, r2
    4c48:	01a03002 	moveq	r3, r2
    4c4c:	0a00000d 	beq	4c88 <event_task_ap+0x4b8>
    4c50:	e5c12000 	strb	r2, [r1]
    4c54:	e1d030fe 	ldrsh	r3, [r0, #14]
    4c58:	e3530d4b 	cmp	r3, #4800	; 0x12c0
    4c5c:	c3a02002 	movgt	r2, #2	; 0x2
    4c60:	ca000002 	bgt	4c70 <event_task_ap+0x4a0>
    4c64:	e3730d4b 	cmn	r3, #4800	; 0x12c0
    4c68:	d3a02000 	movle	r2, #0	; 0x0
    4c6c:	c3a02001 	movgt	r2, #1	; 0x1
    4c70:	e5dc3000 	ldrb	r3, [ip]
    4c74:	e1530002 	cmp	r3, r2
    4c78:	13a03001 	movne	r3, #1	; 0x1
    4c7c:	03a03000 	moveq	r3, #0	; 0x0
    4c80:	15cc2000 	strneb	r2, [ip]
    4c84:	e20330ff 	and	r3, r3, #255	; 0xff
    4c88:	e20320ff 	and	r2, r3, #255	; 0xff
    4c8c:	e18ee002 	orr	lr, lr, r2
    4c90:	e5963000 	ldr	r3, [r6]
    4c94:	e59f5384 	ldr	r5, [pc, #900]	; 5020 <.text+0x5020>
    4c98:	e5d33011 	ldrb	r3, [r3, #17]
    4c9c:	e5d52000 	ldrb	r2, [r5]
    4ca0:	e20310ff 	and	r1, r3, #255	; 0xff
    4ca4:	e1520001 	cmp	r2, r1
    4ca8:	03a02000 	moveq	r2, #0	; 0x0
    4cac:	0a000004 	beq	4cc4 <event_task_ap+0x4f4>
    4cb0:	e202200f 	and	r2, r2, #15	; 0xf
    4cb4:	e203300f 	and	r3, r3, #15	; 0xf
    4cb8:	e5c51000 	strb	r1, [r5]
    4cbc:	e0522003 	subs	r2, r2, r3
    4cc0:	13a02001 	movne	r2, #1	; 0x1
    4cc4:	e19ee002 	orrs	lr, lr, r2
    4cc8:	0a000048 	beq	4df0 <event_task_ap+0x620>
    4ccc:	e3a0000e 	mov	r0, #14	; 0xe
    4cd0:	eb00018a 	bl	5300 <uart0_check_free_space>
    4cd4:	e31000ff 	tst	r0, #255	; 0xff
    4cd8:	059f2344 	ldreq	r2, [pc, #836]	; 5024 <.text+0x5024>
    4cdc:	05d23000 	ldreqb	r3, [r2]
    4ce0:	02833001 	addeq	r3, r3, #1	; 0x1
    4ce4:	05c23000 	streqb	r3, [r2]
    4ce8:	0a000040 	beq	4df0 <event_task_ap+0x620>
    4cec:	e59f4334 	ldr	r4, [pc, #820]	; 5028 <.text+0x5028>
    4cf0:	e3a03000 	mov	r3, #0	; 0x0
    4cf4:	e3a00009 	mov	r0, #9	; 0x9
    4cf8:	e5c43000 	strb	r3, [r4]
    4cfc:	eb000193 	bl	5350 <uart0_transmit>
    4d00:	e5d43000 	ldrb	r3, [r4]
    4d04:	e2833005 	add	r3, r3, #5	; 0x5
    4d08:	e3a00005 	mov	r0, #5	; 0x5
    4d0c:	e5c43000 	strb	r3, [r4]
    4d10:	eb00018e 	bl	5350 <uart0_transmit>
    4d14:	e5d43000 	ldrb	r3, [r4]
    4d18:	e283300b 	add	r3, r3, #11	; 0xb
    4d1c:	e3a0000b 	mov	r0, #11	; 0xb
    4d20:	e5c43000 	strb	r3, [r4]
    4d24:	eb000189 	bl	5350 <uart0_transmit>
    4d28:	e59f32e0 	ldr	r3, [pc, #736]	; 5010 <.text+0x5010>
    4d2c:	e5d42000 	ldrb	r2, [r4]
    4d30:	e5d33000 	ldrb	r3, [r3]
    4d34:	e1a00003 	mov	r0, r3
    4d38:	e0833002 	add	r3, r3, r2
    4d3c:	e5c43000 	strb	r3, [r4]
    4d40:	eb000182 	bl	5350 <uart0_transmit>
    4d44:	e59f32e0 	ldr	r3, [pc, #736]	; 502c <.text+0x502c>
    4d48:	e5d42000 	ldrb	r2, [r4]
    4d4c:	e5d33000 	ldrb	r3, [r3]
    4d50:	e1a00003 	mov	r0, r3
    4d54:	e0833002 	add	r3, r3, r2
    4d58:	e5c43000 	strb	r3, [r4]
    4d5c:	eb00017b 	bl	5350 <uart0_transmit>
    4d60:	e59f32c8 	ldr	r3, [pc, #712]	; 5030 <.text+0x5030>
    4d64:	e5d42000 	ldrb	r2, [r4]
    4d68:	e5d33000 	ldrb	r3, [r3]
    4d6c:	e1a00003 	mov	r0, r3
    4d70:	e0833002 	add	r3, r3, r2
    4d74:	e5c43000 	strb	r3, [r4]
    4d78:	eb000174 	bl	5350 <uart0_transmit>
    4d7c:	e59f32b0 	ldr	r3, [pc, #688]	; 5034 <.text+0x5034>
    4d80:	e5d42000 	ldrb	r2, [r4]
    4d84:	e5d33000 	ldrb	r3, [r3]
    4d88:	e1a00003 	mov	r0, r3
    4d8c:	e0833002 	add	r3, r3, r2
    4d90:	e5c43000 	strb	r3, [r4]
    4d94:	eb00016d 	bl	5350 <uart0_transmit>
    4d98:	e59f3298 	ldr	r3, [pc, #664]	; 5038 <.text+0x5038>
    4d9c:	e5d42000 	ldrb	r2, [r4]
    4da0:	e5d33000 	ldrb	r3, [r3]
    4da4:	e1a00003 	mov	r0, r3
    4da8:	e0833002 	add	r3, r3, r2
    4dac:	e5c43000 	strb	r3, [r4]
    4db0:	eb000166 	bl	5350 <uart0_transmit>
    4db4:	e5d53000 	ldrb	r3, [r5]
    4db8:	e5d42000 	ldrb	r2, [r4]
    4dbc:	e1a00003 	mov	r0, r3
    4dc0:	e0833002 	add	r3, r3, r2
    4dc4:	e5c43000 	strb	r3, [r4]
    4dc8:	eb000160 	bl	5350 <uart0_transmit>
    4dcc:	e59f3268 	ldr	r3, [pc, #616]	; 503c <.text+0x503c>
    4dd0:	e5d42000 	ldrb	r2, [r4]
    4dd4:	e5d33000 	ldrb	r3, [r3]
    4dd8:	e1a00003 	mov	r0, r3
    4ddc:	e0833002 	add	r3, r3, r2
    4de0:	e5c43000 	strb	r3, [r4]
    4de4:	eb000159 	bl	5350 <uart0_transmit>
    4de8:	e3a000ff 	mov	r0, #255	; 0xff
    4dec:	eb000157 	bl	5350 <uart0_transmit>
    4df0:	e59f5218 	ldr	r5, [pc, #536]	; 5010 <.text+0x5010>
    4df4:	e5d53000 	ldrb	r3, [r5]
    4df8:	e3530000 	cmp	r3, #0	; 0x0
    4dfc:	0a000023 	beq	4e90 <event_task_ap+0x6c0>
    4e00:	e3530001 	cmp	r3, #1	; 0x1
    4e04:	1a000021 	bne	4e90 <event_task_ap+0x6c0>
    4e08:	e5964000 	ldr	r4, [r6]
    4e0c:	e1d400f0 	ldrsh	r0, [r4]
    4e10:	eb002961 	bl	f39c <__floatsisf>
    4e14:	e59f1224 	ldr	r1, [pc, #548]	; 5040 <.text+0x5040>
    4e18:	eb0029d6 	bl	f578 <__divsf3>
    4e1c:	e59f3220 	ldr	r3, [pc, #544]	; 5044 <.text+0x5044>
    4e20:	e5931000 	ldr	r1, [r3]
    4e24:	eb00296f 	bl	f3e8 <__mulsf3>
    4e28:	e3a01000 	mov	r1, #0	; 0x0
    4e2c:	eb0028e8 	bl	f1d4 <__addsf3>
    4e30:	e59f3210 	ldr	r3, [pc, #528]	; 5048 <.text+0x5048>
    4e34:	e5830000 	str	r0, [r3]
    4e38:	e1d400f2 	ldrsh	r0, [r4, #2]
    4e3c:	eb002956 	bl	f39c <__floatsisf>
    4e40:	e59f11f8 	ldr	r1, [pc, #504]	; 5040 <.text+0x5040>
    4e44:	eb0029cb 	bl	f578 <__divsf3>
    4e48:	e59f31fc 	ldr	r3, [pc, #508]	; 504c <.text+0x504c>
    4e4c:	e5931000 	ldr	r1, [r3]
    4e50:	eb002964 	bl	f3e8 <__mulsf3>
    4e54:	e3a01000 	mov	r1, #0	; 0x0
    4e58:	eb0028dd 	bl	f1d4 <__addsf3>
    4e5c:	e59f31ec 	ldr	r3, [pc, #492]	; 5050 <.text+0x5050>
    4e60:	e5830000 	str	r0, [r3]
    4e64:	e1d400f6 	ldrsh	r0, [r4, #6]
    4e68:	eb00294b 	bl	f39c <__floatsisf>
    4e6c:	e59f11cc 	ldr	r1, [pc, #460]	; 5040 <.text+0x5040>
    4e70:	eb0029c0 	bl	f578 <__divsf3>
    4e74:	e59f31d8 	ldr	r3, [pc, #472]	; 5054 <.text+0x5054>
    4e78:	e5931000 	ldr	r1, [r3]
    4e7c:	eb002959 	bl	f3e8 <__mulsf3>
    4e80:	e3a01000 	mov	r1, #0	; 0x0
    4e84:	eb0028d2 	bl	f1d4 <__addsf3>
    4e88:	e59f31c8 	ldr	r3, [pc, #456]	; 5058 <.text+0x5058>
    4e8c:	e5830000 	str	r0, [r3]
    4e90:	e5d53000 	ldrb	r3, [r5]
    4e94:	e3530001 	cmp	r3, #1	; 0x1
    4e98:	959f316c 	ldrls	r3, [pc, #364]	; 500c <.text+0x500c>
    4e9c:	95932000 	ldrls	r2, [r3]
    4ea0:	e59f4164 	ldr	r4, [pc, #356]	; 500c <.text+0x500c>
    4ea4:	91d220b4 	ldrlsh	r2, [r2, #4]
    4ea8:	959f31ac 	ldrls	r3, [pc, #428]	; 505c <.text+0x505c>
    4eac:	91c320b0 	strlsh	r2, [r3]
    4eb0:	e5942000 	ldr	r2, [r4]
    4eb4:	e59f31a4 	ldr	r3, [pc, #420]	; 5060 <.text+0x5060>
    4eb8:	e5d21010 	ldrb	r1, [r2, #16]
    4ebc:	e5c31000 	strb	r1, [r3]
    4ec0:	e59f319c 	ldr	r3, [pc, #412]	; 5064 <.text+0x5064>
    4ec4:	e5d21013 	ldrb	r1, [r2, #19]
    4ec8:	e5c31000 	strb	r1, [r3]
    4ecc:	e59f3194 	ldr	r3, [pc, #404]	; 5068 <.text+0x5068>
    4ed0:	e1d220fa 	ldrsh	r2, [r2, #10]
    4ed4:	e1520003 	cmp	r2, r3
    4ed8:	e59f218c 	ldr	r2, [pc, #396]	; 506c <.text+0x506c>
    4edc:	d3a03000 	movle	r3, #0	; 0x0
    4ee0:	d1c230b0 	strleh	r3, [r2]
    4ee4:	da000009 	ble	4f10 <event_task_ap+0x740>
    4ee8:	e1d230b0 	ldrh	r3, [r2]
    4eec:	e3530013 	cmp	r3, #19	; 0x13
    4ef0:	8a000006 	bhi	4f10 <event_task_ap+0x740>
    4ef4:	e2833001 	add	r3, r3, #1	; 0x1
    4ef8:	e1c230b0 	strh	r3, [r2]
    4efc:	e1d230b0 	ldrh	r3, [r2]
    4f00:	e3530014 	cmp	r3, #20	; 0x14
    4f04:	059f3110 	ldreq	r3, [pc, #272]	; 501c <.text+0x501c>
    4f08:	03a02001 	moveq	r2, #1	; 0x1
    4f0c:	05c32000 	streqb	r2, [r3]
    4f10:	e5943000 	ldr	r3, [r4]
    4f14:	e1d320fa 	ldrsh	r2, [r3, #10]
    4f18:	e59f3150 	ldr	r3, [pc, #336]	; 5070 <.text+0x5070>
    4f1c:	e1520003 	cmp	r2, r3
    4f20:	e59f214c 	ldr	r2, [pc, #332]	; 5074 <.text+0x5074>
    4f24:	a3a03000 	movge	r3, #0	; 0x0
    4f28:	a1c230b0 	strgeh	r3, [r2]
    4f2c:	aa000009 	bge	4f58 <event_task_ap+0x788>
    4f30:	e1d230b0 	ldrh	r3, [r2]
    4f34:	e3530013 	cmp	r3, #19	; 0x13
    4f38:	8a000006 	bhi	4f58 <event_task_ap+0x788>
    4f3c:	e2833001 	add	r3, r3, #1	; 0x1
    4f40:	e1c230b0 	strh	r3, [r2]
    4f44:	e1d230b0 	ldrh	r3, [r2]
    4f48:	e3530014 	cmp	r3, #20	; 0x14
    4f4c:	059f3124 	ldreq	r3, [pc, #292]	; 5078 <.text+0x5078>
    4f50:	03a02001 	moveq	r2, #1	; 0x1
    4f54:	05c32000 	streqb	r2, [r3]
    4f58:	e59f311c 	ldr	r3, [pc, #284]	; 507c <.text+0x507c>
    4f5c:	e1d330b0 	ldrh	r3, [r3]
    4f60:	e3530000 	cmp	r3, #0	; 0x0
    4f64:	1a000010 	bne	4fac <event_task_ap+0x7dc>
    4f68:	e5943000 	ldr	r3, [r4]
    4f6c:	e1d300b0 	ldrh	r0, [r3]
    4f70:	e2800d4b 	add	r0, r0, #4800	; 0x12c0
    4f74:	e1a00800 	mov	r0, r0, lsl #16
    4f78:	e3500596 	cmp	r0, #629145600	; 0x25800000
    4f7c:	93a00000 	movls	r0, #0	; 0x0
    4f80:	83a00001 	movhi	r0, #1	; 0x1
    4f84:	eb000d5e 	bl	8504 <ground_calibrate>
    4f88:	e5d53000 	ldrb	r3, [r5]
    4f8c:	e3530002 	cmp	r3, #2	; 0x2
    4f90:	1a000005 	bne	4fac <event_task_ap+0x7dc>
    4f94:	e5943000 	ldr	r3, [r4]
    4f98:	e1d330f4 	ldrsh	r3, [r3, #4]
    4f9c:	e3530d2d 	cmp	r3, #2880	; 0xb40
    4fa0:	c59f306c 	ldrgt	r3, [pc, #108]	; 5014 <.text+0x5014>
    4fa4:	c3a02001 	movgt	r2, #1	; 0x1
    4fa8:	c5c32000 	strgtb	r2, [r3]
    4fac:	e89d69f0 	ldmia	sp, {r4, r5, r6, r7, r8, fp, sp, lr}
    4fb0:	e12fff1e 	bx	lr
    4fb4:	40000b0c 	andmi	r0, r0, ip, lsl #22
    4fb8:	40000c18 	andmi	r0, r0, r8, lsl ip
    4fbc:	40000f32 	andmi	r0, r0, r2, lsr pc
    4fc0:	40000b90 	mulmi	r0, r0, fp
    4fc4:	40000f50 	andmi	r0, r0, r0, asr pc
    4fc8:	40000c10 	andmi	r0, r0, r0, lsl ip
    4fcc:	40000c9e 	mulmi	r0, lr, ip
    4fd0:	40000e28 	andmi	r0, r0, r8, lsr #28
    4fd4:	400004c4 	andmi	r0, r0, r4, asr #9
    4fd8:	40000c1b 	andmi	r0, r0, fp, lsl ip
    4fdc:	400004f0 	strmid	r0, [r0], -r0
    4fe0:	400004c5 	andmi	r0, r0, r5, asr #9
    4fe4:	400004c6 	andmi	r0, r0, r6, asr #9
    4fe8:	40000d28 	andmi	r0, r0, r8, lsr #26
    4fec:	40000d27 	andmi	r0, r0, r7, lsr #26
    4ff0:	40000d26 	andmi	r0, r0, r6, lsr #26
    4ff4:	40000d24 	andmi	r0, r0, r4, lsr #26
    4ff8:	40000ca4 	andmi	r0, r0, r4, lsr #25
    4ffc:	4000000d 	andmi	r0, r0, sp
    5000:	4000000c 	andmi	r0, r0, ip
    5004:	40000ca0 	andmi	r0, r0, r0, lsr #25
    5008:	400004f9 	strmid	r0, [r0], -r9
    500c:	40000014 	andmi	r0, r0, r4, lsl r0
    5010:	40000003 	andmi	r0, r0, r3
    5014:	400004a9 	andmi	r0, r0, r9, lsr #9
    5018:	400010b0 	strmih	r1, [r0], -r0
    501c:	400007f8 	strmid	r0, [r0], -r8
    5020:	400004cc 	andmi	r0, r0, ip, asr #9
    5024:	40000a8b 	andmi	r0, r0, fp, lsl #21
    5028:	40000d25 	andmi	r0, r0, r5, lsr #26
    502c:	400011c4 	andmi	r1, r0, r4, asr #3
    5030:	400004ac 	andmi	r0, r0, ip, lsr #9
    5034:	400010ac 	andmi	r1, r0, ip, lsr #1
    5038:	400004ae 	andmi	r0, r0, lr, lsr #9
    503c:	400004ab 	andmi	r0, r0, fp, lsr #9
    5040:	46160000 	ldrmi	r0, [r6], -r0
    5044:	40001100 	andmi	r1, r0, r0, lsl #2
    5048:	4000118c 	andmi	r1, r0, ip, lsl #3
    504c:	40001158 	andmi	r1, r0, r8, asr r1
    5050:	40001138 	andmi	r1, r0, r8, lsr r1
    5054:	40001194 	mulmi	r0, r4, r1
    5058:	40001178 	andmi	r1, r0, r8, ror r1
    505c:	400011dc 	ldrmid	r1, [r0], -ip
    5060:	400004cd 	andmi	r0, r0, sp, asr #9
    5064:	40000a1c 	andmi	r0, r0, ip, lsl sl
    5068:	00001c20 	andeq	r1, r0, r0, lsr #24
    506c:	400004b0 	strmih	r0, [r0], -r0
    5070:	ffffe3e0 	swinv	0x00ffe3e0
    5074:	400004b2 	strmih	r0, [r0], -r2
    5078:	40000a08 	andmi	r0, r0, r8, lsl #20
    507c:	40001030 	andmi	r1, r0, r0, lsr r0

00005080 <main>:
    5080:	e1a0c00d 	mov	ip, sp
    5084:	e92dd870 	stmdb	sp!, {r4, r5, r6, fp, ip, lr, pc}
    5088:	e24cb004 	sub	fp, ip, #4	; 0x4
    508c:	ebffeccb 	bl	3c0 <init_fbw>
    5090:	ebfffd7c 	bl	4688 <init_ap>
    5094:	e59f309c 	ldr	r3, [pc, #156]	; 5138 <.text+0x5138>
    5098:	e59f609c 	ldr	r6, [pc, #156]	; 513c <.text+0x513c>
    509c:	e5932008 	ldr	r2, [r3, #8]
    50a0:	e5961000 	ldr	r1, [r6]
    50a4:	e59f3094 	ldr	r3, [pc, #148]	; 5140 <.text+0x5140>
    50a8:	e59fc094 	ldr	ip, [pc, #148]	; 5144 <.text+0x5144>
    50ac:	e0612002 	rsb	r2, r1, r2
    50b0:	e1520003 	cmp	r2, r3
    50b4:	e59f408c 	ldr	r4, [pc, #140]	; 5148 <.text+0x5148>
    50b8:	e081000c 	add	r0, r1, ip
    50bc:	93a03000 	movls	r3, #0	; 0x0
    50c0:	9a000015 	bls	511c <main+0x9c>
    50c4:	e5942000 	ldr	r2, [r4]
    50c8:	e59f307c 	ldr	r3, [pc, #124]	; 514c <.text+0x514c>
    50cc:	e082c00c 	add	ip, r2, ip
    50d0:	e59f1078 	ldr	r1, [pc, #120]	; 5150 <.text+0x5150>
    50d4:	e15c0003 	cmp	ip, r3
    50d8:	e59fe074 	ldr	lr, [pc, #116]	; 5154 <.text+0x5154>
    50dc:	e59f5074 	ldr	r5, [pc, #116]	; 5158 <.text+0x5158>
    50e0:	e0821001 	add	r1, r2, r1
    50e4:	e5860000 	str	r0, [r6]
    50e8:	e584c000 	str	ip, [r4]
    50ec:	9a000009 	bls	5118 <main+0x98>
    50f0:	e59e2010 	ldr	r2, [lr, #16]
    50f4:	e1d530b0 	ldrh	r3, [r5]
    50f8:	e3120201 	tst	r2, #268435456	; 0x10000000
    50fc:	e2833001 	add	r3, r3, #1	; 0x1
    5100:	e1c530b0 	strh	r3, [r5]
    5104:	13a03201 	movne	r3, #268435456	; 0x10000000
    5108:	03a03201 	moveq	r3, #268435456	; 0x10000000
    510c:	e5841000 	str	r1, [r4]
    5110:	158e301c 	strne	r3, [lr, #28]
    5114:	058e3014 	streq	r3, [lr, #20]
    5118:	e3a03001 	mov	r3, #1	; 0x1
    511c:	e3530000 	cmp	r3, #0	; 0x0
    5120:	0a000001 	beq	512c <main+0xac>
    5124:	ebffee99 	bl	b90 <periodic_task_fbw>
    5128:	ebfff48f 	bl	236c <periodic_task_ap>
    512c:	ebffed17 	bl	590 <event_task_fbw>
    5130:	ebfffda6 	bl	47d0 <event_task_ap>
    5134:	eaffffd6 	b	5094 <main+0x14>
    5138:	e0004000 	and	r4, r0, r0
    513c:	400004d0 	ldrmid	r0, [r0], -r0
    5140:	00039386 	andeq	r9, r3, r6, lsl #7
    5144:	00039387 	andeq	r9, r3, r7, lsl #7
    5148:	400007a8 	andmi	r0, r0, r8, lsr #15
    514c:	00e4e1c0 	rsceq	lr, r4, r0, asr #3
    5150:	ff1eb1c7 	swinv	0x001eb1c7
    5154:	e0028000 	and	r8, r2, r0
    5158:	400007a4 	andmi	r0, r0, r4, lsr #15

0000515c <actuators_init>:
    515c:	e59f20a8 	ldr	r2, [pc, #168]	; 520c <.text+0x520c>
    5160:	e5923008 	ldr	r3, [r2, #8]
    5164:	e3833020 	orr	r3, r3, #32	; 0x20
    5168:	e5823008 	str	r3, [r2, #8]
    516c:	e59f109c 	ldr	r1, [pc, #156]	; 5210 <.text+0x5210>
    5170:	e5913000 	ldr	r3, [r1]
    5174:	e3833b02 	orr	r3, r3, #2048	; 0x800
    5178:	e5813000 	str	r3, [r1]
    517c:	e5923018 	ldr	r3, [r2, #24]
    5180:	e3833202 	orr	r3, r3, #536870912	; 0x20000000
    5184:	e5823018 	str	r3, [r2, #24]
    5188:	e5913014 	ldr	r3, [r1, #20]
    518c:	e3c33008 	bic	r3, r3, #8	; 0x8
    5190:	e5813014 	str	r3, [r1, #20]
    5194:	e3a03202 	mov	r3, #536870912	; 0x20000000
    5198:	e5823014 	str	r3, [r2, #20]
    519c:	e5923018 	ldr	r3, [r2, #24]
    51a0:	e3833601 	orr	r3, r3, #1048576	; 0x100000
    51a4:	e5823018 	str	r3, [r2, #24]
    51a8:	e2422909 	sub	r2, r2, #147456	; 0x24000
    51ac:	e5923014 	ldr	r3, [r2, #20]
    51b0:	e3833008 	orr	r3, r3, #8	; 0x8
    51b4:	e5823014 	str	r3, [r2, #20]
    51b8:	e592303c 	ldr	r3, [r2, #60]
    51bc:	e3c33002 	bic	r3, r3, #2	; 0x2
    51c0:	e582303c 	str	r3, [r2, #60]
    51c4:	e59f3048 	ldr	r3, [pc, #72]	; 5214 <.text+0x5214>
    51c8:	e592103c 	ldr	r1, [r2, #60]
    51cc:	e3a00008 	mov	r0, #8	; 0x8
    51d0:	e5c30000 	strb	r0, [r3]
    51d4:	e59f303c 	ldr	r3, [pc, #60]	; 5218 <.text+0x5218>
    51d8:	e3811080 	orr	r1, r1, #128	; 0x80
    51dc:	e582103c 	str	r1, [r2, #60]
    51e0:	e582301c 	str	r3, [r2, #28]
    51e4:	e2400008 	sub	r0, r0, #8	; 0x8
    51e8:	e2803001 	add	r3, r0, #1	; 0x1
    51ec:	e1a01080 	mov	r1, r0, lsl #1
    51f0:	e59f2024 	ldr	r2, [pc, #36]	; 521c <.text+0x521c>
    51f4:	e20300ff 	and	r0, r3, #255	; 0xff
    51f8:	e59f3020 	ldr	r3, [pc, #32]	; 5220 <.text+0x5220>
    51fc:	e3500007 	cmp	r0, #7	; 0x7
    5200:	e18120b3 	strh	r2, [r1, r3]
    5204:	9afffff7 	bls	51e8 <actuators_init+0x8c>
    5208:	e12fff1e 	bx	lr
    520c:	e0028000 	and	r8, r2, r0
    5210:	e002c000 	and	ip, r2, r0
    5214:	40000a26 	andmi	r0, r0, r6, lsr #20
    5218:	0000ffff 	streqd	pc, [r0], -pc
    521c:	000057e4 	andeq	r5, r0, r4, ror #15
    5220:	40000a28 	andmi	r0, r0, r8, lsr #20

00005224 <uart0_init_tx>:
    5224:	e52de004 	str	lr, [sp, #-4]!
    5228:	e59f20a8 	ldr	r2, [pc, #168]	; 52d8 <.text+0x52d8>
    522c:	e5923000 	ldr	r3, [r2]
    5230:	e59f00a4 	ldr	r0, [pc, #164]	; 52dc <.text+0x52dc>
    5234:	e3c3300f 	bic	r3, r3, #15	; 0xf
    5238:	e3a0e000 	mov	lr, #0	; 0x0
    523c:	e3833005 	orr	r3, r3, #5	; 0x5
    5240:	e5823000 	str	r3, [r2]
    5244:	e5c0e004 	strb	lr, [r0, #4]
    5248:	e5d03008 	ldrb	r3, [r0, #8]
    524c:	e5d03000 	ldrb	r3, [r0]
    5250:	e5d03014 	ldrb	r3, [r0, #20]
    5254:	e3e0307f 	mvn	r3, #127	; 0x7f
    5258:	e5c0300c 	strb	r3, [r0, #12]
    525c:	e28330e2 	add	r3, r3, #226	; 0xe2
    5260:	e5c03000 	strb	r3, [r0]
    5264:	e243305f 	sub	r3, r3, #95	; 0x5f
    5268:	e5c0e004 	strb	lr, [r0, #4]
    526c:	e5c0300c 	strb	r3, [r0, #12]
    5270:	e283307e 	add	r3, r3, #126	; 0x7e
    5274:	e5c03008 	strb	r3, [r0, #8]
    5278:	e59fc060 	ldr	ip, [pc, #96]	; 52e0 <.text+0x52e0>
    527c:	e59f3060 	ldr	r3, [pc, #96]	; 52e4 <.text+0x52e4>
    5280:	e59c200c 	ldr	r2, [ip, #12]
    5284:	e5c3e000 	strb	lr, [r3]
    5288:	e59f3058 	ldr	r3, [pc, #88]	; 52e8 <.text+0x52e8>
    528c:	e1c3e0b0 	strh	lr, [r3]
    5290:	e59f3054 	ldr	r3, [pc, #84]	; 52ec <.text+0x52ec>
    5294:	e3c22040 	bic	r2, r2, #64	; 0x40
    5298:	e1c3e0b0 	strh	lr, [r3]
    529c:	e3a03040 	mov	r3, #64	; 0x40
    52a0:	e58c200c 	str	r2, [ip, #12]
    52a4:	e58c3010 	str	r3, [ip, #16]
    52a8:	e59f3040 	ldr	r3, [pc, #64]	; 52f0 <.text+0x52f0>
    52ac:	e1c3e0b0 	strh	lr, [r3]
    52b0:	e3a03026 	mov	r3, #38	; 0x26
    52b4:	e58c3218 	str	r3, [ip, #536]
    52b8:	e59f3034 	ldr	r3, [pc, #52]	; 52f4 <.text+0x52f4>
    52bc:	e58c3118 	str	r3, [ip, #280]
    52c0:	e3a03001 	mov	r3, #1	; 0x1
    52c4:	e5c03004 	strb	r3, [r0, #4]
    52c8:	e59f3028 	ldr	r3, [pc, #40]	; 52f8 <.text+0x52f8>
    52cc:	e1c3e0b0 	strh	lr, [r3]
    52d0:	e49de004 	ldr	lr, [sp], #4
    52d4:	e12fff1e 	bx	lr
    52d8:	e002c000 	and	ip, r2, r0
    52dc:	e000c000 	and	ip, r0, r0
    52e0:	fffff000 	swinv	0x00fff000
    52e4:	40000c1a 	andmi	r0, r0, sl, lsl ip
    52e8:	40000c10 	andmi	r0, r0, r0, lsl ip
    52ec:	40000c14 	andmi	r0, r0, r4, lsl ip
    52f0:	40000b0e 	andmi	r0, r0, lr, lsl #22
    52f4:	000053f4 	streqd	r5, [r0], -r4
    52f8:	40000c9e 	mulmi	r0, lr, ip

000052fc <uart0_init_rx>:
    52fc:	e12fff1e 	bx	lr

00005300 <uart0_check_free_space>:
    5300:	e59f3040 	ldr	r3, [pc, #64]	; 5348 <.text+0x5348>
    5304:	e1d320b0 	ldrh	r2, [r3]
    5308:	e59f303c 	ldr	r3, [pc, #60]	; 534c <.text+0x534c>
    530c:	e1d330b0 	ldrh	r3, [r3]
    5310:	e0632002 	rsb	r2, r3, r2
    5314:	e1a02802 	mov	r2, r2, lsl #16
    5318:	e3520000 	cmp	r2, #0	; 0x0
    531c:	e1a02822 	mov	r2, r2, lsr #16
    5320:	e2823080 	add	r3, r2, #128	; 0x80
    5324:	e1a03803 	mov	r3, r3, lsl #16
    5328:	d1a02823 	movle	r2, r3, lsr #16
    532c:	e2423001 	sub	r3, r2, #1	; 0x1
    5330:	e20000ff 	and	r0, r0, #255	; 0xff
    5334:	e1a03803 	mov	r3, r3, lsl #16
    5338:	e1500823 	cmp	r0, r3, lsr #16
    533c:	83a00000 	movhi	r0, #0	; 0x0
    5340:	93a00001 	movls	r0, #1	; 0x1
    5344:	e12fff1e 	bx	lr
    5348:	40000c14 	andmi	r0, r0, r4, lsl ip
    534c:	40000b0e 	andmi	r0, r0, lr, lsl #22

00005350 <uart0_transmit>:
    5350:	e1a0c00d 	mov	ip, sp
    5354:	e92dd8f0 	stmdb	sp!, {r4, r5, r6, r7, fp, ip, lr, pc}
    5358:	e59f5080 	ldr	r5, [pc, #128]	; 53e0 <.text+0x53e0>
    535c:	e59f2080 	ldr	r2, [pc, #128]	; 53e4 <.text+0x53e4>
    5360:	e1d530b0 	ldrh	r3, [r5]
    5364:	e1d220b0 	ldrh	r2, [r2]
    5368:	e2833001 	add	r3, r3, #1	; 0x1
    536c:	e203707f 	and	r7, r3, #127	; 0x7f
    5370:	e1520007 	cmp	r2, r7
    5374:	e24cb004 	sub	fp, ip, #4	; 0x4
    5378:	e59f6068 	ldr	r6, [pc, #104]	; 53e8 <.text+0x53e8>
    537c:	e20040ff 	and	r4, r0, #255	; 0xff
    5380:	0a000014 	beq	53d8 <uart0_transmit+0x88>
    5384:	ebffebef 	bl	348 <disableIRQ>
    5388:	e5d63004 	ldrb	r3, [r6, #4]
    538c:	e3c33002 	bic	r3, r3, #2	; 0x2
    5390:	e5c63004 	strb	r3, [r6, #4]
    5394:	ebffebef 	bl	358 <restoreIRQ>
    5398:	e59f204c 	ldr	r2, [pc, #76]	; 53ec <.text+0x53ec>
    539c:	e5d23000 	ldrb	r3, [r2]
    53a0:	e3530000 	cmp	r3, #0	; 0x0
    53a4:	11d520b0 	ldrneh	r2, [r5]
    53a8:	159f3040 	ldrne	r3, [pc, #64]	; 53f0 <.text+0x53f0>
    53ac:	03a03001 	moveq	r3, #1	; 0x1
    53b0:	05c23000 	streqb	r3, [r2]
    53b4:	17c34002 	strneb	r4, [r3, r2]
    53b8:	05c64000 	streqb	r4, [r6]
    53bc:	11c570b0 	strneh	r7, [r5]
    53c0:	ebffebe0 	bl	348 <disableIRQ>
    53c4:	e59f201c 	ldr	r2, [pc, #28]	; 53e8 <.text+0x53e8>
    53c8:	e5d23004 	ldrb	r3, [r2, #4]
    53cc:	e3833002 	orr	r3, r3, #2	; 0x2
    53d0:	e5c23004 	strb	r3, [r2, #4]
    53d4:	ebffebdf 	bl	358 <restoreIRQ>
    53d8:	e89d68f0 	ldmia	sp, {r4, r5, r6, r7, fp, sp, lr}
    53dc:	e12fff1e 	bx	lr
    53e0:	40000b0e 	andmi	r0, r0, lr, lsl #22
    53e4:	40000c14 	andmi	r0, r0, r4, lsl ip
    53e8:	e000c000 	and	ip, r0, r0
    53ec:	40000c1a 	andmi	r0, r0, sl, lsl ip
    53f0:	40000a8c 	andmi	r0, r0, ip, lsl #21

000053f4 <uart0_ISR>:
    53f4:	e24ee004 	sub	lr, lr, #4	; 0x4
    53f8:	e92d5fff 	stmdb	sp!, {r0, r1, r2, r3, r4, r5, r6, r7, r8, r9, sl, fp, ip, lr}
    53fc:	e14f1000 	mrs	r1, SPSR
    5400:	e92d0002 	stmdb	sp!, {r1}
    5404:	e59f312c 	ldr	r3, [pc, #300]	; 5538 <.text+0x5538>
    5408:	e5d33008 	ldrb	r3, [r3, #8]
    540c:	e20330ff 	and	r3, r3, #255	; 0xff
    5410:	e3130001 	tst	r3, #1	; 0x1
    5414:	1a000041 	bne	5520 <.text+0x5520>
    5418:	e203300e 	and	r3, r3, #14	; 0xe
    541c:	e2433002 	sub	r3, r3, #2	; 0x2
    5420:	e353000a 	cmp	r3, #10	; 0xa
    5424:	979ff103 	ldrls	pc, [pc, r3, lsl #2]
    5428:	ea000038 	b	5510 <.text+0x5510>
    542c:	000054b4 	streqh	r5, [r0], -r4
    5430:	00005510 	andeq	r5, r0, r0, lsl r5
    5434:	00005464 	andeq	r5, r0, r4, ror #8
    5438:	00005510 	andeq	r5, r0, r0, lsl r5
    543c:	00005458 	andeq	r5, r0, r8, asr r4
    5440:	00005510 	andeq	r5, r0, r0, lsl r5
    5444:	00005510 	andeq	r5, r0, r0, lsl r5
    5448:	00005510 	andeq	r5, r0, r0, lsl r5
    544c:	00005510 	andeq	r5, r0, r0, lsl r5
    5450:	00005510 	andeq	r5, r0, r0, lsl r5
    5454:	00005464 	andeq	r5, r0, r4, ror #8
    5458:	e59f30d8 	ldr	r3, [pc, #216]	; 5538 <.text+0x5538>
    545c:	e5d33014 	ldrb	r3, [r3, #20]
    5460:	eaffffe7 	b	5404 <uart0_ISR+0x10>
    5464:	e59f40d0 	ldr	r4, [pc, #208]	; 553c <.text+0x553c>
    5468:	e59f30d0 	ldr	r3, [pc, #208]	; 5540 <.text+0x5540>
    546c:	e1d400b0 	ldrh	r0, [r4]
    5470:	e59fe0c0 	ldr	lr, [pc, #192]	; 5538 <.text+0x5538>
    5474:	e1d310b0 	ldrh	r1, [r3]
    5478:	e2803001 	add	r3, r0, #1	; 0x1
    547c:	e203c07f 	and	ip, r3, #127	; 0x7f
    5480:	e5de2000 	ldrb	r2, [lr]
    5484:	e59f30b8 	ldr	r3, [pc, #184]	; 5544 <.text+0x5544>
    5488:	e151000c 	cmp	r1, ip
    548c:	11c4c0b0 	strneh	ip, [r4]
    5490:	e7c32000 	strb	r2, [r3, r0]
    5494:	e5de3014 	ldrb	r3, [lr, #20]
    5498:	e3130001 	tst	r3, #1	; 0x1
    549c:	1afffff0 	bne	5464 <.text+0x5464>
    54a0:	eaffffd7 	b	5404 <uart0_ISR+0x10>
    54a4:	e59f309c 	ldr	r3, [pc, #156]	; 5548 <.text+0x5548>
    54a8:	e3a02000 	mov	r2, #0	; 0x0
    54ac:	e5c32000 	strb	r2, [r3]
    54b0:	eaffffd3 	b	5404 <uart0_ISR+0x10>
    54b4:	e59f307c 	ldr	r3, [pc, #124]	; 5538 <.text+0x5538>
    54b8:	e5d33014 	ldrb	r3, [r3, #20]
    54bc:	e3130020 	tst	r3, #32	; 0x20
    54c0:	0affffcf 	beq	5404 <uart0_ISR+0x10>
    54c4:	e59f0080 	ldr	r0, [pc, #128]	; 554c <.text+0x554c>
    54c8:	e59f2080 	ldr	r2, [pc, #128]	; 5550 <.text+0x5550>
    54cc:	e1d030b0 	ldrh	r3, [r0]
    54d0:	e1d220b0 	ldrh	r2, [r2]
    54d4:	e1520003 	cmp	r2, r3
    54d8:	e59fe058 	ldr	lr, [pc, #88]	; 5538 <.text+0x5538>
    54dc:	e283c001 	add	ip, r3, #1	; 0x1
    54e0:	e1a01003 	mov	r1, r3
    54e4:	0affffee 	beq	54a4 <.text+0x54a4>
    54e8:	e59f3064 	ldr	r3, [pc, #100]	; 5554 <.text+0x5554>
    54ec:	e7d33001 	ldrb	r3, [r3, r1]
    54f0:	e1c0c0b0 	strh	ip, [r0]
    54f4:	e5ce3000 	strb	r3, [lr]
    54f8:	e5de2014 	ldrb	r2, [lr, #20]
    54fc:	e1d030b0 	ldrh	r3, [r0]
    5500:	e3120020 	tst	r2, #32	; 0x20
    5504:	e203307f 	and	r3, r3, #127	; 0x7f
    5508:	e1c030b0 	strh	r3, [r0]
    550c:	eaffffeb 	b	54c0 <.text+0x54c0>
    5510:	e59f3020 	ldr	r3, [pc, #32]	; 5538 <.text+0x5538>
    5514:	e5d32014 	ldrb	r2, [r3, #20]
    5518:	e5d33000 	ldrb	r3, [r3]
    551c:	eaffffb8 	b	5404 <uart0_ISR+0x10>
    5520:	e59f3030 	ldr	r3, [pc, #48]	; 5558 <.text+0x5558>
    5524:	e3a02000 	mov	r2, #0	; 0x0
    5528:	e5832030 	str	r2, [r3, #48]
    552c:	e8bd0002 	ldmia	sp!, {r1}
    5530:	e161f001 	msr	SPSR_c, r1
    5534:	e8fd9fff 	ldmia	sp!, {r0, r1, r2, r3, r4, r5, r6, r7, r8, r9, sl, fp, ip, pc}^
    5538:	e000c000 	and	ip, r0, r0
    553c:	40000c10 	andmi	r0, r0, r0, lsl ip
    5540:	40000c9e 	mulmi	r0, lr, ip
    5544:	40000c1b 	andmi	r0, r0, fp, lsl ip
    5548:	40000c1a 	andmi	r0, r0, sl, lsl ip
    554c:	40000c14 	andmi	r0, r0, r4, lsl ip
    5550:	40000b0e 	andmi	r0, r0, lr, lsl #22
    5554:	40000a8c 	andmi	r0, r0, ip, lsl #21
    5558:	fffff000 	swinv	0x00fff000

0000555c <uart1_init_tx>:
    555c:	e52de004 	str	lr, [sp, #-4]!
    5560:	e59f20a8 	ldr	r2, [pc, #168]	; 5610 <.text+0x5610>
    5564:	e5923000 	ldr	r3, [r2]
    5568:	e59f00a4 	ldr	r0, [pc, #164]	; 5614 <.text+0x5614>
    556c:	e3c3380f 	bic	r3, r3, #983040	; 0xf0000
    5570:	e3a0e000 	mov	lr, #0	; 0x0
    5574:	e3833805 	orr	r3, r3, #327680	; 0x50000
    5578:	e5823000 	str	r3, [r2]
    557c:	e5c0e004 	strb	lr, [r0, #4]
    5580:	e5d03008 	ldrb	r3, [r0, #8]
    5584:	e5d03000 	ldrb	r3, [r0]
    5588:	e5d03014 	ldrb	r3, [r0, #20]
    558c:	e3e0307f 	mvn	r3, #127	; 0x7f
    5590:	e5c0300c 	strb	r3, [r0, #12]
    5594:	e2833098 	add	r3, r3, #152	; 0x98
    5598:	e5c03000 	strb	r3, [r0]
    559c:	e2433015 	sub	r3, r3, #21	; 0x15
    55a0:	e5c0e004 	strb	lr, [r0, #4]
    55a4:	e5c0300c 	strb	r3, [r0, #12]
    55a8:	e283307e 	add	r3, r3, #126	; 0x7e
    55ac:	e5c03008 	strb	r3, [r0, #8]
    55b0:	e59fc060 	ldr	ip, [pc, #96]	; 5618 <.text+0x5618>
    55b4:	e59f3060 	ldr	r3, [pc, #96]	; 561c <.text+0x561c>
    55b8:	e59c200c 	ldr	r2, [ip, #12]
    55bc:	e5c3e000 	strb	lr, [r3]
    55c0:	e59f3058 	ldr	r3, [pc, #88]	; 5620 <.text+0x5620>
    55c4:	e1c3e0b0 	strh	lr, [r3]
    55c8:	e59f3054 	ldr	r3, [pc, #84]	; 5624 <.text+0x5624>
    55cc:	e3c22080 	bic	r2, r2, #128	; 0x80
    55d0:	e1c3e0b0 	strh	lr, [r3]
    55d4:	e3a03080 	mov	r3, #128	; 0x80
    55d8:	e58c200c 	str	r2, [ip, #12]
    55dc:	e58c3010 	str	r3, [ip, #16]
    55e0:	e59f3040 	ldr	r3, [pc, #64]	; 5628 <.text+0x5628>
    55e4:	e1c3e0b0 	strh	lr, [r3]
    55e8:	e3a03027 	mov	r3, #39	; 0x27
    55ec:	e58c321c 	str	r3, [ip, #540]
    55f0:	e59f3034 	ldr	r3, [pc, #52]	; 562c <.text+0x562c>
    55f4:	e58c311c 	str	r3, [ip, #284]
    55f8:	e3a03001 	mov	r3, #1	; 0x1
    55fc:	e5c03004 	strb	r3, [r0, #4]
    5600:	e59f3028 	ldr	r3, [pc, #40]	; 5630 <.text+0x5630>
    5604:	e1c3e0b0 	strh	lr, [r3]
    5608:	e49de004 	ldr	lr, [sp], #4
    560c:	e12fff1e 	bx	lr
    5610:	e002c000 	and	ip, r2, r0
    5614:	e0010000 	and	r0, r1, r0
    5618:	fffff000 	swinv	0x00fff000
    561c:	40000c12 	andmi	r0, r0, r2, lsl ip
    5620:	40000b0c 	andmi	r0, r0, ip, lsl #22
    5624:	40000c9c 	mulmi	r0, ip, ip
    5628:	40000c16 	andmi	r0, r0, r6, lsl ip
    562c:	0000572c 	andeq	r5, r0, ip, lsr #14
    5630:	40000c18 	andmi	r0, r0, r8, lsl ip

00005634 <uart1_check_free_space>:
    5634:	e59f3040 	ldr	r3, [pc, #64]	; 567c <.text+0x567c>
    5638:	e1d320b0 	ldrh	r2, [r3]
    563c:	e59f303c 	ldr	r3, [pc, #60]	; 5680 <.text+0x5680>
    5640:	e1d330b0 	ldrh	r3, [r3]
    5644:	e0632002 	rsb	r2, r3, r2
    5648:	e1a02802 	mov	r2, r2, lsl #16
    564c:	e3520000 	cmp	r2, #0	; 0x0
    5650:	e1a02822 	mov	r2, r2, lsr #16
    5654:	e2823080 	add	r3, r2, #128	; 0x80
    5658:	e1a03803 	mov	r3, r3, lsl #16
    565c:	d1a02823 	movle	r2, r3, lsr #16
    5660:	e2423001 	sub	r3, r2, #1	; 0x1
    5664:	e20000ff 	and	r0, r0, #255	; 0xff
    5668:	e1a03803 	mov	r3, r3, lsl #16
    566c:	e1500823 	cmp	r0, r3, lsr #16
    5670:	83a00000 	movhi	r0, #0	; 0x0
    5674:	93a00001 	movls	r0, #1	; 0x1
    5678:	e12fff1e 	bx	lr
    567c:	40000c9c 	mulmi	r0, ip, ip
    5680:	40000c16 	andmi	r0, r0, r6, lsl ip

00005684 <uart1_init_rx>:
    5684:	e12fff1e 	bx	lr

00005688 <uart1_transmit>:
    5688:	e1a0c00d 	mov	ip, sp
    568c:	e92dd8f0 	stmdb	sp!, {r4, r5, r6, r7, fp, ip, lr, pc}
    5690:	e59f5080 	ldr	r5, [pc, #128]	; 5718 <.text+0x5718>
    5694:	e59f2080 	ldr	r2, [pc, #128]	; 571c <.text+0x571c>
    5698:	e1d530b0 	ldrh	r3, [r5]
    569c:	e1d220b0 	ldrh	r2, [r2]
    56a0:	e2833001 	add	r3, r3, #1	; 0x1
    56a4:	e203707f 	and	r7, r3, #127	; 0x7f
    56a8:	e1520007 	cmp	r2, r7
    56ac:	e24cb004 	sub	fp, ip, #4	; 0x4
    56b0:	e59f6068 	ldr	r6, [pc, #104]	; 5720 <.text+0x5720>
    56b4:	e20040ff 	and	r4, r0, #255	; 0xff
    56b8:	0a000014 	beq	5710 <uart1_transmit+0x88>
    56bc:	ebffeb21 	bl	348 <disableIRQ>
    56c0:	e5d63004 	ldrb	r3, [r6, #4]
    56c4:	e3c33002 	bic	r3, r3, #2	; 0x2
    56c8:	e5c63004 	strb	r3, [r6, #4]
    56cc:	ebffeb21 	bl	358 <restoreIRQ>
    56d0:	e59f204c 	ldr	r2, [pc, #76]	; 5724 <.text+0x5724>
    56d4:	e5d23000 	ldrb	r3, [r2]
    56d8:	e3530000 	cmp	r3, #0	; 0x0
    56dc:	11d520b0 	ldrneh	r2, [r5]
    56e0:	159f3040 	ldrne	r3, [pc, #64]	; 5728 <.text+0x5728>
    56e4:	03a03001 	moveq	r3, #1	; 0x1
    56e8:	05c23000 	streqb	r3, [r2]
    56ec:	17c34002 	strneb	r4, [r3, r2]
    56f0:	05c64000 	streqb	r4, [r6]
    56f4:	11c570b0 	strneh	r7, [r5]
    56f8:	ebffeb12 	bl	348 <disableIRQ>
    56fc:	e59f201c 	ldr	r2, [pc, #28]	; 5720 <.text+0x5720>
    5700:	e5d23004 	ldrb	r3, [r2, #4]
    5704:	e3833002 	orr	r3, r3, #2	; 0x2
    5708:	e5c23004 	strb	r3, [r2, #4]
    570c:	ebffeb11 	bl	358 <restoreIRQ>
    5710:	e89d68f0 	ldmia	sp, {r4, r5, r6, r7, fp, sp, lr}
    5714:	e12fff1e 	bx	lr
    5718:	40000c16 	andmi	r0, r0, r6, lsl ip
    571c:	40000c9c 	mulmi	r0, ip, ip
    5720:	e0010000 	and	r0, r1, r0
    5724:	40000c12 	andmi	r0, r0, r2, lsl ip
    5728:	40000b10 	andmi	r0, r0, r0, lsl fp

0000572c <uart1_ISR>:
    572c:	e24ee004 	sub	lr, lr, #4	; 0x4
    5730:	e92d5fff 	stmdb	sp!, {r0, r1, r2, r3, r4, r5, r6, r7, r8, r9, sl, fp, ip, lr}
    5734:	e14f1000 	mrs	r1, SPSR
    5738:	e92d0002 	stmdb	sp!, {r1}
    573c:	e59f313c 	ldr	r3, [pc, #316]	; 5880 <.text+0x5880>
    5740:	e5d33008 	ldrb	r3, [r3, #8]
    5744:	e20330ff 	and	r3, r3, #255	; 0xff
    5748:	e3130001 	tst	r3, #1	; 0x1
    574c:	1a000045 	bne	5868 <.text+0x5868>
    5750:	e203300e 	and	r3, r3, #14	; 0xe
    5754:	e353000c 	cmp	r3, #12	; 0xc
    5758:	979ff103 	ldrls	pc, [pc, r3, lsl #2]
    575c:	ea00003c 	b	5854 <.text+0x5854>
    5760:	0000584c 	andeq	r5, r0, ip, asr #16
    5764:	00005854 	andeq	r5, r0, r4, asr r8
    5768:	000057f0 	streqd	r5, [r0], -r0
    576c:	00005854 	andeq	r5, r0, r4, asr r8
    5770:	000057a0 	andeq	r5, r0, r0, lsr #15
    5774:	00005854 	andeq	r5, r0, r4, asr r8
    5778:	00005794 	muleq	r0, r4, r7
    577c:	00005854 	andeq	r5, r0, r4, asr r8
    5780:	00005854 	andeq	r5, r0, r4, asr r8
    5784:	00005854 	andeq	r5, r0, r4, asr r8
    5788:	00005854 	andeq	r5, r0, r4, asr r8
    578c:	00005854 	andeq	r5, r0, r4, asr r8
    5790:	000057a0 	andeq	r5, r0, r0, lsr #15
    5794:	e59f30e4 	ldr	r3, [pc, #228]	; 5880 <.text+0x5880>
    5798:	e5d33014 	ldrb	r3, [r3, #20]
    579c:	eaffffe6 	b	573c <uart1_ISR+0x10>
    57a0:	e59f40dc 	ldr	r4, [pc, #220]	; 5884 <.text+0x5884>
    57a4:	e59f30dc 	ldr	r3, [pc, #220]	; 5888 <.text+0x5888>
    57a8:	e1d400b0 	ldrh	r0, [r4]
    57ac:	e59fe0cc 	ldr	lr, [pc, #204]	; 5880 <.text+0x5880>
    57b0:	e1d310b0 	ldrh	r1, [r3]
    57b4:	e2803001 	add	r3, r0, #1	; 0x1
    57b8:	e203c07f 	and	ip, r3, #127	; 0x7f
    57bc:	e5de2000 	ldrb	r2, [lr]
    57c0:	e59f30c4 	ldr	r3, [pc, #196]	; 588c <.text+0x588c>
    57c4:	e151000c 	cmp	r1, ip
    57c8:	11c4c0b0 	strneh	ip, [r4]
    57cc:	e7c32000 	strb	r2, [r3, r0]
    57d0:	e5de3014 	ldrb	r3, [lr, #20]
    57d4:	e3130001 	tst	r3, #1	; 0x1
    57d8:	1afffff0 	bne	57a0 <.text+0x57a0>
    57dc:	eaffffd6 	b	573c <uart1_ISR+0x10>
    57e0:	e59f30a8 	ldr	r3, [pc, #168]	; 5890 <.text+0x5890>
    57e4:	e3a02000 	mov	r2, #0	; 0x0
    57e8:	e5c32000 	strb	r2, [r3]
    57ec:	eaffffd2 	b	573c <uart1_ISR+0x10>
    57f0:	e59f3088 	ldr	r3, [pc, #136]	; 5880 <.text+0x5880>
    57f4:	e5d33014 	ldrb	r3, [r3, #20]
    57f8:	e3130020 	tst	r3, #32	; 0x20
    57fc:	0affffce 	beq	573c <uart1_ISR+0x10>
    5800:	e59f008c 	ldr	r0, [pc, #140]	; 5894 <.text+0x5894>
    5804:	e59f208c 	ldr	r2, [pc, #140]	; 5898 <.text+0x5898>
    5808:	e1d030b0 	ldrh	r3, [r0]
    580c:	e1d220b0 	ldrh	r2, [r2]
    5810:	e1520003 	cmp	r2, r3
    5814:	e59fe064 	ldr	lr, [pc, #100]	; 5880 <.text+0x5880>
    5818:	e283c001 	add	ip, r3, #1	; 0x1
    581c:	e1a01003 	mov	r1, r3
    5820:	0affffee 	beq	57e0 <.text+0x57e0>
    5824:	e59f3070 	ldr	r3, [pc, #112]	; 589c <.text+0x589c>
    5828:	e7d33001 	ldrb	r3, [r3, r1]
    582c:	e1c0c0b0 	strh	ip, [r0]
    5830:	e5ce3000 	strb	r3, [lr]
    5834:	e5de2014 	ldrb	r2, [lr, #20]
    5838:	e1d030b0 	ldrh	r3, [r0]
    583c:	e3120020 	tst	r2, #32	; 0x20
    5840:	e203307f 	and	r3, r3, #127	; 0x7f
    5844:	e1c030b0 	strh	r3, [r0]
    5848:	eaffffeb 	b	57fc <.text+0x57fc>
    584c:	e59f302c 	ldr	r3, [pc, #44]	; 5880 <.text+0x5880>
    5850:	ea000002 	b	5860 <.text+0x5860>
    5854:	e59f3024 	ldr	r3, [pc, #36]	; 5880 <.text+0x5880>
    5858:	e5d32014 	ldrb	r2, [r3, #20]
    585c:	e5d32000 	ldrb	r2, [r3]
    5860:	e5d33018 	ldrb	r3, [r3, #24]
    5864:	eaffffb4 	b	573c <uart1_ISR+0x10>
    5868:	e59f3030 	ldr	r3, [pc, #48]	; 58a0 <.text+0x58a0>
    586c:	e3a02000 	mov	r2, #0	; 0x0
    5870:	e5832030 	str	r2, [r3, #48]
    5874:	e8bd0002 	ldmia	sp!, {r1}
    5878:	e161f001 	msr	SPSR_c, r1
    587c:	e8fd9fff 	ldmia	sp!, {r0, r1, r2, r3, r4, r5, r6, r7, r8, r9, sl, fp, ip, pc}^
    5880:	e0010000 	and	r0, r1, r0
    5884:	40000b0c 	andmi	r0, r0, ip, lsl #22
    5888:	40000c18 	andmi	r0, r0, r8, lsl ip
    588c:	40000b90 	mulmi	r0, r0, fp
    5890:	40000c12 	andmi	r0, r0, r2, lsl ip
    5894:	40000c9c 	mulmi	r0, ip, ip
    5898:	40000c16 	andmi	r0, r0, r6, lsl ip
    589c:	40000b10 	andmi	r0, r0, r0, lsl fp
    58a0:	fffff000 	swinv	0x00fff000

000058a4 <dl_parse_msg>:
    58a4:	e1a0c00d 	mov	ip, sp
    58a8:	e92ddff0 	stmdb	sp!, {r4, r5, r6, r7, r8, r9, sl, fp, ip, lr, pc}
    58ac:	e24cb004 	sub	fp, ip, #4	; 0x4
    58b0:	e24dd014 	sub	sp, sp, #20	; 0x14
    58b4:	e59f545c 	ldr	r5, [pc, #1116]	; 5d18 <.text+0x5d18>
    58b8:	e5d53001 	ldrb	r3, [r5, #1]
    58bc:	e3530001 	cmp	r3, #1	; 0x1
    58c0:	1a000038 	bne	59a8 <dl_parse_msg+0x104>
    58c4:	e5950004 	ldr	r0, [r5, #4]
    58c8:	eb0026b3 	bl	f39c <__floatsisf>
    58cc:	e59f1448 	ldr	r1, [pc, #1096]	; 5d1c <.text+0x5d1c>
    58d0:	eb002728 	bl	f578 <__divsf3>
    58d4:	e1a08000 	mov	r8, r0
    58d8:	e5950008 	ldr	r0, [r5, #8]
    58dc:	eb0026ae 	bl	f39c <__floatsisf>
    58e0:	e59f1434 	ldr	r1, [pc, #1076]	; 5d1c <.text+0x5d1c>
    58e4:	eb002723 	bl	f578 <__divsf3>
    58e8:	e1a0a000 	mov	sl, r0
    58ec:	e595000c 	ldr	r0, [r5, #12]
    58f0:	eb0026a9 	bl	f39c <__floatsisf>
    58f4:	e59f1420 	ldr	r1, [pc, #1056]	; 5d1c <.text+0x5d1c>
    58f8:	eb00271e 	bl	f578 <__divsf3>
    58fc:	e1a09000 	mov	r9, r0
    5900:	e1d500f2 	ldrsh	r0, [r5, #2]
    5904:	eb0026a4 	bl	f39c <__floatsisf>
    5908:	eb00243a 	bl	e9f8 <__extendsfdf2>
    590c:	e28f2ffb 	add	r2, pc, #1004	; 0x3ec
    5910:	e892000c 	ldmia	r2, {r2, r3}
    5914:	eb0024e8 	bl	ecbc <__divdf3>
    5918:	e28f2ffa 	add	r2, pc, #1000	; 0x3e8
    591c:	e892000c 	ldmia	r2, {r2, r3}
    5920:	eb0024e5 	bl	ecbc <__divdf3>
    5924:	e28f2ff9 	add	r2, pc, #996	; 0x3e4
    5928:	e892000c 	ldmia	r2, {r2, r3}
    592c:	eb002444 	bl	ea44 <__muldf3>
    5930:	eb0025e8 	bl	f0d8 <__truncdfsf2>
    5934:	e1d541f4 	ldrsh	r4, [r5, #20]
    5938:	e1a07000 	mov	r7, r0
    593c:	e1a00004 	mov	r0, r4
    5940:	eb002695 	bl	f39c <__floatsisf>
    5944:	e3540000 	cmp	r4, #0	; 0x0
    5948:	e5d54018 	ldrb	r4, [r5, #24]
    594c:	b59f13cc 	ldrlt	r1, [pc, #972]	; 5d20 <.text+0x5d20>
    5950:	bb00261f 	bllt	f1d4 <__addsf3>
    5954:	e59f13c0 	ldr	r1, [pc, #960]	; 5d1c <.text+0x5d1c>
    5958:	eb002706 	bl	f578 <__divsf3>
    595c:	e3540017 	cmp	r4, #23	; 0x17
    5960:	e1a06000 	mov	r6, r0
    5964:	8a0001e2 	bhi	60f4 <.text+0x60f4>
    5968:	e59f13b4 	ldr	r1, [pc, #948]	; 5d24 <.text+0x5d24>
    596c:	e1a00008 	mov	r0, r8
    5970:	eb002616 	bl	f1d0 <__subsf3>
    5974:	e59f53ac 	ldr	r5, [pc, #940]	; 5d28 <.text+0x5d28>
    5978:	e0844104 	add	r4, r4, r4, lsl #2
    597c:	e1a04104 	mov	r4, r4, lsl #2
    5980:	e7840005 	str	r0, [r4, r5]
    5984:	e59f13a0 	ldr	r1, [pc, #928]	; 5d2c <.text+0x5d2c>
    5988:	e1a0000a 	mov	r0, sl
    598c:	eb00260f 	bl	f1d0 <__subsf3>
    5990:	e0844005 	add	r4, r4, r5
    5994:	e5846010 	str	r6, [r4, #16]
    5998:	e5840004 	str	r0, [r4, #4]
    599c:	e5847008 	str	r7, [r4, #8]
    59a0:	e584900c 	str	r9, [r4, #12]
    59a4:	ea0001d2 	b	60f4 <.text+0x60f4>
    59a8:	e3530002 	cmp	r3, #2	; 0x2
    59ac:	1a000088 	bne	5bd4 <dl_parse_msg+0x330>
    59b0:	e5d53002 	ldrb	r3, [r5, #2]
    59b4:	e5950004 	ldr	r0, [r5, #4]
    59b8:	e54b3029 	strb	r3, [fp, #-41]
    59bc:	eb002676 	bl	f39c <__floatsisf>
    59c0:	e59f1354 	ldr	r1, [pc, #852]	; 5d1c <.text+0x5d1c>
    59c4:	eb0026eb 	bl	f578 <__divsf3>
    59c8:	e1a06000 	mov	r6, r0
    59cc:	e5950008 	ldr	r0, [r5, #8]
    59d0:	e50b6030 	str	r6, [fp, #-48]
    59d4:	eb002670 	bl	f39c <__floatsisf>
    59d8:	e59f133c 	ldr	r1, [pc, #828]	; 5d1c <.text+0x5d1c>
    59dc:	eb0026e5 	bl	f578 <__divsf3>
    59e0:	e1a08000 	mov	r8, r0
    59e4:	e595000c 	ldr	r0, [r5, #12]
    59e8:	e50b8034 	str	r8, [fp, #-52]
    59ec:	eb00266a 	bl	f39c <__floatsisf>
    59f0:	e59f1324 	ldr	r1, [pc, #804]	; 5d1c <.text+0x5d1c>
    59f4:	eb0026df 	bl	f578 <__divsf3>
    59f8:	e59f3330 	ldr	r3, [pc, #816]	; 5d30 <.text+0x5d30>
    59fc:	e55b2029 	ldrb	r2, [fp, #-41]
    5a00:	e5d33000 	ldrb	r3, [r3]
    5a04:	e1520003 	cmp	r2, r3
    5a08:	e1a07000 	mov	r7, r0
    5a0c:	e50b0038 	str	r0, [fp, #-56]
    5a10:	2a000012 	bcs	5a60 <dl_parse_msg+0x1bc>
    5a14:	e59f3318 	ldr	r3, [pc, #792]	; 5d34 <.text+0x5d34>
    5a18:	e5930000 	ldr	r0, [r3]
    5a1c:	e0824082 	add	r4, r2, r2, lsl #1
    5a20:	eb00265d 	bl	f39c <__floatsisf>
    5a24:	e1a01000 	mov	r1, r0
    5a28:	e1a00006 	mov	r0, r6
    5a2c:	eb0025e7 	bl	f1d0 <__subsf3>
    5a30:	e59f5300 	ldr	r5, [pc, #768]	; 5d38 <.text+0x5d38>
    5a34:	e59f3300 	ldr	r3, [pc, #768]	; 5d3c <.text+0x5d3c>
    5a38:	e1a04104 	mov	r4, r4, lsl #2
    5a3c:	e7840005 	str	r0, [r4, r5]
    5a40:	e5930000 	ldr	r0, [r3]
    5a44:	eb002654 	bl	f39c <__floatsisf>
    5a48:	e1a01000 	mov	r1, r0
    5a4c:	e1a00008 	mov	r0, r8
    5a50:	eb0025de 	bl	f1d0 <__subsf3>
    5a54:	e0844005 	add	r4, r4, r5
    5a58:	e5847008 	str	r7, [r4, #8]
    5a5c:	e5840004 	str	r0, [r4, #4]
    5a60:	e3a00014 	mov	r0, #20	; 0x14
    5a64:	ebfffe25 	bl	5300 <uart0_check_free_space>
    5a68:	e31000ff 	tst	r0, #255	; 0xff
    5a6c:	0a00019c 	beq	60e4 <.text+0x60e4>
    5a70:	e59f4378 	ldr	r4, [pc, #888]	; 5df0 <.text+0x5df0>
    5a74:	e3a03000 	mov	r3, #0	; 0x0
    5a78:	e3a0000f 	mov	r0, #15	; 0xf
    5a7c:	e5c43000 	strb	r3, [r4]
    5a80:	ebfffe32 	bl	5350 <uart0_transmit>
    5a84:	e5d43000 	ldrb	r3, [r4]
    5a88:	e2833005 	add	r3, r3, #5	; 0x5
    5a8c:	e3a00005 	mov	r0, #5	; 0x5
    5a90:	e5c43000 	strb	r3, [r4]
    5a94:	ebfffe2d 	bl	5350 <uart0_transmit>
    5a98:	e5d43000 	ldrb	r3, [r4]
    5a9c:	e2833023 	add	r3, r3, #35	; 0x23
    5aa0:	e3a00023 	mov	r0, #35	; 0x23
    5aa4:	e5c43000 	strb	r3, [r4]
    5aa8:	ebfffe28 	bl	5350 <uart0_transmit>
    5aac:	e55b3029 	ldrb	r3, [fp, #-41]
    5ab0:	e5d42000 	ldrb	r2, [r4]
    5ab4:	e1a00003 	mov	r0, r3
    5ab8:	e0833002 	add	r3, r3, r2
    5abc:	e5c43000 	strb	r3, [r4]
    5ac0:	ebfffe22 	bl	5350 <uart0_transmit>
    5ac4:	e55b3030 	ldrb	r3, [fp, #-48]
    5ac8:	e5d42000 	ldrb	r2, [r4]
    5acc:	e1a00003 	mov	r0, r3
    5ad0:	e0833002 	add	r3, r3, r2
    5ad4:	e5c43000 	strb	r3, [r4]
    5ad8:	ebfffe1c 	bl	5350 <uart0_transmit>
    5adc:	e55b302f 	ldrb	r3, [fp, #-47]
    5ae0:	e5d42000 	ldrb	r2, [r4]
    5ae4:	e1a00003 	mov	r0, r3
    5ae8:	e0833002 	add	r3, r3, r2
    5aec:	e5c43000 	strb	r3, [r4]
    5af0:	ebfffe16 	bl	5350 <uart0_transmit>
    5af4:	e55b302e 	ldrb	r3, [fp, #-46]
    5af8:	e5d42000 	ldrb	r2, [r4]
    5afc:	e1a00003 	mov	r0, r3
    5b00:	e0833002 	add	r3, r3, r2
    5b04:	e5c43000 	strb	r3, [r4]
    5b08:	ebfffe10 	bl	5350 <uart0_transmit>
    5b0c:	e55b302d 	ldrb	r3, [fp, #-45]
    5b10:	e5d42000 	ldrb	r2, [r4]
    5b14:	e1a00003 	mov	r0, r3
    5b18:	e0833002 	add	r3, r3, r2
    5b1c:	e5c43000 	strb	r3, [r4]
    5b20:	ebfffe0a 	bl	5350 <uart0_transmit>
    5b24:	e55b3034 	ldrb	r3, [fp, #-52]
    5b28:	e5d42000 	ldrb	r2, [r4]
    5b2c:	e1a00003 	mov	r0, r3
    5b30:	e0833002 	add	r3, r3, r2
    5b34:	e5c43000 	strb	r3, [r4]
    5b38:	ebfffe04 	bl	5350 <uart0_transmit>
    5b3c:	e55b3033 	ldrb	r3, [fp, #-51]
    5b40:	e5d42000 	ldrb	r2, [r4]
    5b44:	e1a00003 	mov	r0, r3
    5b48:	e0833002 	add	r3, r3, r2
    5b4c:	e5c43000 	strb	r3, [r4]
    5b50:	ebfffdfe 	bl	5350 <uart0_transmit>
    5b54:	e55b3032 	ldrb	r3, [fp, #-50]
    5b58:	e5d42000 	ldrb	r2, [r4]
    5b5c:	e1a00003 	mov	r0, r3
    5b60:	e0833002 	add	r3, r3, r2
    5b64:	e5c43000 	strb	r3, [r4]
    5b68:	ebfffdf8 	bl	5350 <uart0_transmit>
    5b6c:	e55b3031 	ldrb	r3, [fp, #-49]
    5b70:	e5d42000 	ldrb	r2, [r4]
    5b74:	e1a00003 	mov	r0, r3
    5b78:	e0833002 	add	r3, r3, r2
    5b7c:	e5c43000 	strb	r3, [r4]
    5b80:	ebfffdf2 	bl	5350 <uart0_transmit>
    5b84:	e55b3038 	ldrb	r3, [fp, #-56]
    5b88:	e5d42000 	ldrb	r2, [r4]
    5b8c:	e1a00003 	mov	r0, r3
    5b90:	e0833002 	add	r3, r3, r2
    5b94:	e5c43000 	strb	r3, [r4]
    5b98:	ebfffdec 	bl	5350 <uart0_transmit>
    5b9c:	e55b3037 	ldrb	r3, [fp, #-55]
    5ba0:	e5d42000 	ldrb	r2, [r4]
    5ba4:	e1a00003 	mov	r0, r3
    5ba8:	e0833002 	add	r3, r3, r2
    5bac:	e5c43000 	strb	r3, [r4]
    5bb0:	ebfffde6 	bl	5350 <uart0_transmit>
    5bb4:	e55b3036 	ldrb	r3, [fp, #-54]
    5bb8:	e5d42000 	ldrb	r2, [r4]
    5bbc:	e1a00003 	mov	r0, r3
    5bc0:	e0833002 	add	r3, r3, r2
    5bc4:	e5c43000 	strb	r3, [r4]
    5bc8:	ebfffde0 	bl	5350 <uart0_transmit>
    5bcc:	e55b3035 	ldrb	r3, [fp, #-53]
    5bd0:	ea00013b 	b	60c4 <.text+0x60c4>
    5bd4:	e3530005 	cmp	r3, #5	; 0x5
    5bd8:	1a000002 	bne	5be8 <dl_parse_msg+0x344>
    5bdc:	e5d50002 	ldrb	r0, [r5, #2]
    5be0:	eb000e01 	bl	93ec <nav_goto_block>
    5be4:	ea000142 	b	60f4 <.text+0x60f4>
    5be8:	e3530003 	cmp	r3, #3	; 0x3
    5bec:	1a000006 	bne	5c0c <dl_parse_msg+0x368>
    5bf0:	e5952004 	ldr	r2, [r5, #4]
    5bf4:	e59f3150 	ldr	r3, [pc, #336]	; 5d4c <.text+0x5d4c>
    5bf8:	e5951008 	ldr	r1, [r5, #8]
    5bfc:	e5832000 	str	r2, [r3]
    5c00:	e59f3148 	ldr	r3, [pc, #328]	; 5d50 <.text+0x5d50>
    5c04:	e5831000 	str	r1, [r3]
    5c08:	ea000139 	b	60f4 <.text+0x60f4>
    5c0c:	e3530008 	cmp	r3, #8	; 0x8
    5c10:	05d52002 	ldreqb	r2, [r5, #2]
    5c14:	059f3124 	ldreq	r3, [pc, #292]	; 5d40 <.text+0x5d40>
    5c18:	05c32000 	streqb	r2, [r3]
    5c1c:	0a000134 	beq	60f4 <.text+0x60f4>
    5c20:	e3530004 	cmp	r3, #4	; 0x4
    5c24:	1a000132 	bne	60f4 <.text+0x60f4>
    5c28:	e5d53002 	ldrb	r3, [r5, #2]
    5c2c:	e54b302a 	strb	r3, [fp, #-42]
    5c30:	e5952004 	ldr	r2, [r5, #4]
    5c34:	e55b302a 	ldrb	r3, [fp, #-42]
    5c38:	e50b203c 	str	r2, [fp, #-60]
    5c3c:	e353002a 	cmp	r3, #42	; 0x2a
    5c40:	979ff103 	ldrls	pc, [pc, r3, lsl #2]
    5c44:	ea0000f2 	b	6014 <.text+0x6014>
    5c48:	00005cf4 	streqd	r5, [r0], -r4
    5c4c:	00005df8 	streqd	r5, [r0], -r8
    5c50:	00005e08 	andeq	r5, r0, r8, lsl #28
    5c54:	00005e14 	andeq	r5, r0, r4, lsl lr
    5c58:	00005e20 	andeq	r5, r0, r0, lsr #28
    5c5c:	00005e30 	andeq	r5, r0, r0, lsr lr
    5c60:	00005e44 	andeq	r5, r0, r4, asr #28
    5c64:	00005e54 	andeq	r5, r0, r4, asr lr
    5c68:	00005e64 	andeq	r5, r0, r4, ror #28
    5c6c:	00005e70 	andeq	r5, r0, r0, ror lr
    5c70:	00005e7c 	andeq	r5, r0, ip, ror lr
    5c74:	00005e88 	andeq	r5, r0, r8, lsl #29
    5c78:	00005e94 	muleq	r0, r4, lr
    5c7c:	00005ea0 	andeq	r5, r0, r0, lsr #29
    5c80:	00005eac 	andeq	r5, r0, ip, lsr #29
    5c84:	00005ebc 	streqh	r5, [r0], -ip
    5c88:	00005ed0 	ldreqd	r5, [r0], -r0
    5c8c:	00005edc 	ldreqd	r5, [r0], -ip
    5c90:	00005ee8 	andeq	r5, r0, r8, ror #29
    5c94:	00005ef4 	streqd	r5, [r0], -r4
    5c98:	00005f00 	andeq	r5, r0, r0, lsl #30
    5c9c:	00005f0c 	andeq	r5, r0, ip, lsl #30
    5ca0:	00005f18 	andeq	r5, r0, r8, lsl pc
    5ca4:	00005f24 	andeq	r5, r0, r4, lsr #30
    5ca8:	00005f30 	andeq	r5, r0, r0, lsr pc
    5cac:	00005f3c 	andeq	r5, r0, ip, lsr pc
    5cb0:	00005f48 	andeq	r5, r0, r8, asr #30
    5cb4:	00005f54 	andeq	r5, r0, r4, asr pc
    5cb8:	00005f60 	andeq	r5, r0, r0, ror #30
    5cbc:	00005f6c 	andeq	r5, r0, ip, ror #30
    5cc0:	00005f78 	andeq	r5, r0, r8, ror pc
    5cc4:	00005f84 	andeq	r5, r0, r4, lsl #31
    5cc8:	00005f90 	muleq	r0, r0, pc
    5ccc:	00005f9c 	muleq	r0, ip, pc
    5cd0:	00005fa8 	andeq	r5, r0, r8, lsr #31
    5cd4:	00005fb4 	streqh	r5, [r0], -r4
    5cd8:	00005fc0 	andeq	r5, r0, r0, asr #31
    5cdc:	00005fcc 	andeq	r5, r0, ip, asr #31
    5ce0:	00005fd8 	ldreqd	r5, [r0], -r8
    5ce4:	00005fe4 	andeq	r5, r0, r4, ror #31
    5ce8:	00005ff0 	streqd	r5, [r0], -r0
    5cec:	00005ffc 	streqd	r5, [r0], -ip
    5cf0:	00006008 	andeq	r6, r0, r8
    5cf4:	e51b203c 	ldr	r2, [fp, #-60]
    5cf8:	e59f3044 	ldr	r3, [pc, #68]	; 5d44 <.text+0x5d44>
    5cfc:	ea0000c3 	b	6010 <.text+0x6010>
    5d00:	40240000 	eormi	r0, r4, r0
    5d04:	00000000 	andeq	r0, r0, r0
    5d08:	40668000 	rsbmi	r8, r6, r0
    5d0c:	00000000 	andeq	r0, r0, r0
    5d10:	400921fb 	strmid	r2, [r9], -fp
    5d14:	54442d18 	strplb	r2, [r4], #-3352
    5d18:	40000ca4 	andmi	r0, r0, r4, lsr #25
    5d1c:	42c80000 	sbcmi	r0, r8, #0	; 0x0
    5d20:	47800000 	strmi	r0, [r0, r0]
    5d24:	48f2f4e0 	ldmmiia	r2!, {r5, r6, r7, sl, ip, sp, lr, pc}^
    5d28:	4000080c 	andmi	r0, r0, ip, lsl #16
    5d2c:	4a599ee8 	bmi	166d8d4 <_etext+0x165dd2c>
    5d30:	0000f91a 	andeq	pc, r0, sl, lsl r9
    5d34:	40000080 	andmi	r0, r0, r0, lsl #1
    5d38:	40000038 	andmi	r0, r0, r8, lsr r0
    5d3c:	4000007c 	andmi	r0, r0, ip, ror r0
    5d40:	400004e8 	andmi	r0, r0, r8, ror #9
    5d44:	400010e4 	andmi	r1, r0, r4, ror #1
    5d48:	40000002 	andmi	r0, r0, r2
    5d4c:	40001044 	andmi	r1, r0, r4, asr #32
    5d50:	40001070 	andmi	r1, r0, r0, ror r0
    5d54:	40000003 	andmi	r0, r0, r3
    5d58:	40001030 	andmi	r1, r0, r0, lsr r0
    5d5c:	400004a9 	andmi	r0, r0, r9, lsr #9
    5d60:	400004aa 	andmi	r0, r0, sl, lsr #9
    5d64:	40001024 	andmi	r1, r0, r4, lsr #32
    5d68:	40000ffc 	strmid	r0, [r0], -ip
    5d6c:	40000fd8 	ldrmid	r0, [r0], -r8
    5d70:	4000100c 	andmi	r1, r0, ip
    5d74:	40001018 	andmi	r1, r0, r8, lsl r0
    5d78:	40000ff4 	strmid	r0, [r0], -r4
    5d7c:	400004ab 	andmi	r0, r0, fp, lsr #9
    5d80:	40001140 	andmi	r1, r0, r0, asr #2
    5d84:	4000124c 	andmi	r1, r0, ip, asr #4
    5d88:	40001248 	andmi	r1, r0, r8, asr #4
    5d8c:	40001254 	andmi	r1, r0, r4, asr r2
    5d90:	40001198 	mulmi	r0, r8, r1
    5d94:	40001124 	andmi	r1, r0, r4, lsr #2
    5d98:	40001128 	andmi	r1, r0, r8, lsr #2
    5d9c:	40001168 	andmi	r1, r0, r8, ror #2
    5da0:	40001174 	andmi	r1, r0, r4, ror r1
    5da4:	40001114 	andmi	r1, r0, r4, lsl r1
    5da8:	4000110c 	andmi	r1, r0, ip, lsl #2
    5dac:	40001188 	andmi	r1, r0, r8, lsl #3
    5db0:	40001120 	andmi	r1, r0, r0, lsr #2
    5db4:	40001104 	andmi	r1, r0, r4, lsl #2
    5db8:	400011cc 	andmi	r1, r0, ip, asr #3
    5dbc:	400011c8 	andmi	r1, r0, r8, asr #3
    5dc0:	400011bc 	strmih	r1, [r0], -ip
    5dc4:	400011f4 	strmid	r1, [r0], -r4
    5dc8:	400011d8 	ldrmid	r1, [r0], -r8
    5dcc:	400011d4 	ldrmid	r1, [r0], -r4
    5dd0:	400011b4 	strmih	r1, [r0], -r4
    5dd4:	400011f0 	strmid	r1, [r0], -r0
    5dd8:	400011b8 	strmih	r1, [r0], -r8
    5ddc:	400011d0 	ldrmid	r1, [r0], -r0
    5de0:	400011e4 	andmi	r1, r0, r4, ror #3
    5de4:	40001148 	andmi	r1, r0, r8, asr #2
    5de8:	40001108 	andmi	r1, r0, r8, lsl #2
    5dec:	40001084 	andmi	r1, r0, r4, lsl #1
    5df0:	40000d25 	andmi	r0, r0, r5, lsr #26
    5df4:	40000a8b 	andmi	r0, r0, fp, lsl #21
    5df8:	e51b003c 	ldr	r0, [fp, #-60]
    5dfc:	eb002686 	bl	f81c <__fixunssfsi>
    5e00:	e51f30c0 	ldr	r3, [pc, #-192]	; 5d48 <.text+0x5d48>
    5e04:	ea00002f 	b	5ec8 <.text+0x5ec8>
    5e08:	e51b203c 	ldr	r2, [fp, #-60]
    5e0c:	e51f30c8 	ldr	r3, [pc, #-200]	; 5d4c <.text+0x5d4c>
    5e10:	ea00007e 	b	6010 <.text+0x6010>
    5e14:	e51b203c 	ldr	r2, [fp, #-60]
    5e18:	e51f30d0 	ldr	r3, [pc, #-208]	; 5d50 <.text+0x5d50>
    5e1c:	ea00007b 	b	6010 <.text+0x6010>
    5e20:	e51b003c 	ldr	r0, [fp, #-60]
    5e24:	eb00267c 	bl	f81c <__fixunssfsi>
    5e28:	e51f30dc 	ldr	r3, [pc, #-220]	; 5d54 <.text+0x5d54>
    5e2c:	ea000025 	b	5ec8 <.text+0x5ec8>
    5e30:	e51b003c 	ldr	r0, [fp, #-60]
    5e34:	eb002678 	bl	f81c <__fixunssfsi>
    5e38:	e51f30e8 	ldr	r3, [pc, #-232]	; 5d58 <.text+0x5d58>
    5e3c:	e1c300b0 	strh	r0, [r3]
    5e40:	ea000073 	b	6014 <.text+0x6014>
    5e44:	e51b003c 	ldr	r0, [fp, #-60]
    5e48:	eb002673 	bl	f81c <__fixunssfsi>
    5e4c:	e51f30f8 	ldr	r3, [pc, #-248]	; 5d5c <.text+0x5d5c>
    5e50:	ea00001c 	b	5ec8 <.text+0x5ec8>
    5e54:	e51b003c 	ldr	r0, [fp, #-60]
    5e58:	eb00266f 	bl	f81c <__fixunssfsi>
    5e5c:	e51f3104 	ldr	r3, [pc, #-260]	; 5d60 <.text+0x5d60>
    5e60:	ea000018 	b	5ec8 <.text+0x5ec8>
    5e64:	e51b203c 	ldr	r2, [fp, #-60]
    5e68:	e51f310c 	ldr	r3, [pc, #-268]	; 5d64 <.text+0x5d64>
    5e6c:	ea000067 	b	6010 <.text+0x6010>
    5e70:	e51b203c 	ldr	r2, [fp, #-60]
    5e74:	e51f3114 	ldr	r3, [pc, #-276]	; 5d68 <.text+0x5d68>
    5e78:	ea000064 	b	6010 <.text+0x6010>
    5e7c:	e51b203c 	ldr	r2, [fp, #-60]
    5e80:	e51f311c 	ldr	r3, [pc, #-284]	; 5d6c <.text+0x5d6c>
    5e84:	ea000061 	b	6010 <.text+0x6010>
    5e88:	e51b203c 	ldr	r2, [fp, #-60]
    5e8c:	e51f3124 	ldr	r3, [pc, #-292]	; 5d70 <.text+0x5d70>
    5e90:	ea00005e 	b	6010 <.text+0x6010>
    5e94:	e51b203c 	ldr	r2, [fp, #-60]
    5e98:	e51f312c 	ldr	r3, [pc, #-300]	; 5d74 <.text+0x5d74>
    5e9c:	ea00005b 	b	6010 <.text+0x6010>
    5ea0:	e51b203c 	ldr	r2, [fp, #-60]
    5ea4:	e51f3134 	ldr	r3, [pc, #-308]	; 5d78 <.text+0x5d78>
    5ea8:	ea000058 	b	6010 <.text+0x6010>
    5eac:	e51b003c 	ldr	r0, [fp, #-60]
    5eb0:	eb002659 	bl	f81c <__fixunssfsi>
    5eb4:	e51f3140 	ldr	r3, [pc, #-320]	; 5d7c <.text+0x5d7c>
    5eb8:	ea000002 	b	5ec8 <.text+0x5ec8>
    5ebc:	e51b003c 	ldr	r0, [fp, #-60]
    5ec0:	eb002655 	bl	f81c <__fixunssfsi>
    5ec4:	e51f314c 	ldr	r3, [pc, #-332]	; 5d80 <.text+0x5d80>
    5ec8:	e5c30000 	strb	r0, [r3]
    5ecc:	ea000050 	b	6014 <.text+0x6014>
    5ed0:	e51b203c 	ldr	r2, [fp, #-60]
    5ed4:	e51f3158 	ldr	r3, [pc, #-344]	; 5d84 <.text+0x5d84>
    5ed8:	ea00004c 	b	6010 <.text+0x6010>
    5edc:	e51b203c 	ldr	r2, [fp, #-60]
    5ee0:	e51f3160 	ldr	r3, [pc, #-352]	; 5d88 <.text+0x5d88>
    5ee4:	ea000049 	b	6010 <.text+0x6010>
    5ee8:	e51b203c 	ldr	r2, [fp, #-60]
    5eec:	e51f3168 	ldr	r3, [pc, #-360]	; 5d8c <.text+0x5d8c>
    5ef0:	ea000046 	b	6010 <.text+0x6010>
    5ef4:	e51b203c 	ldr	r2, [fp, #-60]
    5ef8:	e51f3170 	ldr	r3, [pc, #-368]	; 5d90 <.text+0x5d90>
    5efc:	ea000043 	b	6010 <.text+0x6010>
    5f00:	e51b203c 	ldr	r2, [fp, #-60]
    5f04:	e51f3178 	ldr	r3, [pc, #-376]	; 5d94 <.text+0x5d94>
    5f08:	ea000040 	b	6010 <.text+0x6010>
    5f0c:	e51b203c 	ldr	r2, [fp, #-60]
    5f10:	e51f3180 	ldr	r3, [pc, #-384]	; 5d98 <.text+0x5d98>
    5f14:	ea00003d 	b	6010 <.text+0x6010>
    5f18:	e51b203c 	ldr	r2, [fp, #-60]
    5f1c:	e51f3188 	ldr	r3, [pc, #-392]	; 5d9c <.text+0x5d9c>
    5f20:	ea00003a 	b	6010 <.text+0x6010>
    5f24:	e51b203c 	ldr	r2, [fp, #-60]
    5f28:	e51f3190 	ldr	r3, [pc, #-400]	; 5da0 <.text+0x5da0>
    5f2c:	ea000037 	b	6010 <.text+0x6010>
    5f30:	e51b203c 	ldr	r2, [fp, #-60]
    5f34:	e51f3198 	ldr	r3, [pc, #-408]	; 5da4 <.text+0x5da4>
    5f38:	ea000034 	b	6010 <.text+0x6010>
    5f3c:	e51b203c 	ldr	r2, [fp, #-60]
    5f40:	e51f31a0 	ldr	r3, [pc, #-416]	; 5da8 <.text+0x5da8>
    5f44:	ea000031 	b	6010 <.text+0x6010>
    5f48:	e51b203c 	ldr	r2, [fp, #-60]
    5f4c:	e51f31a8 	ldr	r3, [pc, #-424]	; 5dac <.text+0x5dac>
    5f50:	ea00002e 	b	6010 <.text+0x6010>
    5f54:	e51b203c 	ldr	r2, [fp, #-60]
    5f58:	e51f31b0 	ldr	r3, [pc, #-432]	; 5db0 <.text+0x5db0>
    5f5c:	ea00002b 	b	6010 <.text+0x6010>
    5f60:	e51b203c 	ldr	r2, [fp, #-60]
    5f64:	e51f31b8 	ldr	r3, [pc, #-440]	; 5db4 <.text+0x5db4>
    5f68:	ea000028 	b	6010 <.text+0x6010>
    5f6c:	e51b203c 	ldr	r2, [fp, #-60]
    5f70:	e51f31c0 	ldr	r3, [pc, #-448]	; 5db8 <.text+0x5db8>
    5f74:	ea000025 	b	6010 <.text+0x6010>
    5f78:	e51b203c 	ldr	r2, [fp, #-60]
    5f7c:	e51f31c8 	ldr	r3, [pc, #-456]	; 5dbc <.text+0x5dbc>
    5f80:	ea000022 	b	6010 <.text+0x6010>
    5f84:	e51b203c 	ldr	r2, [fp, #-60]
    5f88:	e51f31d0 	ldr	r3, [pc, #-464]	; 5dc0 <.text+0x5dc0>
    5f8c:	ea00001f 	b	6010 <.text+0x6010>
    5f90:	e51b203c 	ldr	r2, [fp, #-60]
    5f94:	e51f31d8 	ldr	r3, [pc, #-472]	; 5dc4 <.text+0x5dc4>
    5f98:	ea00001c 	b	6010 <.text+0x6010>
    5f9c:	e51b203c 	ldr	r2, [fp, #-60]
    5fa0:	e51f31e0 	ldr	r3, [pc, #-480]	; 5dc8 <.text+0x5dc8>
    5fa4:	ea000019 	b	6010 <.text+0x6010>
    5fa8:	e51b203c 	ldr	r2, [fp, #-60]
    5fac:	e51f31e8 	ldr	r3, [pc, #-488]	; 5dcc <.text+0x5dcc>
    5fb0:	ea000016 	b	6010 <.text+0x6010>
    5fb4:	e51b203c 	ldr	r2, [fp, #-60]
    5fb8:	e51f31f0 	ldr	r3, [pc, #-496]	; 5dd0 <.text+0x5dd0>
    5fbc:	ea000013 	b	6010 <.text+0x6010>
    5fc0:	e51b203c 	ldr	r2, [fp, #-60]
    5fc4:	e51f31f8 	ldr	r3, [pc, #-504]	; 5dd4 <.text+0x5dd4>
    5fc8:	ea000010 	b	6010 <.text+0x6010>
    5fcc:	e51b203c 	ldr	r2, [fp, #-60]
    5fd0:	e51f3200 	ldr	r3, [pc, #-512]	; 5dd8 <.text+0x5dd8>
    5fd4:	ea00000d 	b	6010 <.text+0x6010>
    5fd8:	e51b203c 	ldr	r2, [fp, #-60]
    5fdc:	e51f3208 	ldr	r3, [pc, #-520]	; 5ddc <.text+0x5ddc>
    5fe0:	ea00000a 	b	6010 <.text+0x6010>
    5fe4:	e51b203c 	ldr	r2, [fp, #-60]
    5fe8:	e51f3210 	ldr	r3, [pc, #-528]	; 5de0 <.text+0x5de0>
    5fec:	ea000007 	b	6010 <.text+0x6010>
    5ff0:	e51b203c 	ldr	r2, [fp, #-60]
    5ff4:	e51f3218 	ldr	r3, [pc, #-536]	; 5de4 <.text+0x5de4>
    5ff8:	ea000004 	b	6010 <.text+0x6010>
    5ffc:	e51b203c 	ldr	r2, [fp, #-60]
    6000:	e51f3220 	ldr	r3, [pc, #-544]	; 5de8 <.text+0x5de8>
    6004:	ea000001 	b	6010 <.text+0x6010>
    6008:	e51b203c 	ldr	r2, [fp, #-60]
    600c:	e51f3228 	ldr	r3, [pc, #-552]	; 5dec <.text+0x5dec>
    6010:	e5832000 	str	r2, [r3]
    6014:	e3a0000c 	mov	r0, #12	; 0xc
    6018:	ebfffcb8 	bl	5300 <uart0_check_free_space>
    601c:	e31000ff 	tst	r0, #255	; 0xff
    6020:	0a00002f 	beq	60e4 <.text+0x60e4>
    6024:	e51f423c 	ldr	r4, [pc, #-572]	; 5df0 <.text+0x5df0>
    6028:	e3a03000 	mov	r3, #0	; 0x0
    602c:	e3a00007 	mov	r0, #7	; 0x7
    6030:	e5c43000 	strb	r3, [r4]
    6034:	ebfffcc5 	bl	5350 <uart0_transmit>
    6038:	e5d43000 	ldrb	r3, [r4]
    603c:	e2833005 	add	r3, r3, #5	; 0x5
    6040:	e3a00005 	mov	r0, #5	; 0x5
    6044:	e5c43000 	strb	r3, [r4]
    6048:	ebfffcc0 	bl	5350 <uart0_transmit>
    604c:	e5d43000 	ldrb	r3, [r4]
    6050:	e283301f 	add	r3, r3, #31	; 0x1f
    6054:	e3a0001f 	mov	r0, #31	; 0x1f
    6058:	e5c43000 	strb	r3, [r4]
    605c:	ebfffcbb 	bl	5350 <uart0_transmit>
    6060:	e55b302a 	ldrb	r3, [fp, #-42]
    6064:	e5d42000 	ldrb	r2, [r4]
    6068:	e1a00003 	mov	r0, r3
    606c:	e0833002 	add	r3, r3, r2
    6070:	e5c43000 	strb	r3, [r4]
    6074:	ebfffcb5 	bl	5350 <uart0_transmit>
    6078:	e55b303c 	ldrb	r3, [fp, #-60]
    607c:	e5d42000 	ldrb	r2, [r4]
    6080:	e1a00003 	mov	r0, r3
    6084:	e0833002 	add	r3, r3, r2
    6088:	e5c43000 	strb	r3, [r4]
    608c:	ebfffcaf 	bl	5350 <uart0_transmit>
    6090:	e55b303b 	ldrb	r3, [fp, #-59]
    6094:	e5d42000 	ldrb	r2, [r4]
    6098:	e1a00003 	mov	r0, r3
    609c:	e0833002 	add	r3, r3, r2
    60a0:	e5c43000 	strb	r3, [r4]
    60a4:	ebfffca9 	bl	5350 <uart0_transmit>
    60a8:	e55b303a 	ldrb	r3, [fp, #-58]
    60ac:	e5d42000 	ldrb	r2, [r4]
    60b0:	e1a00003 	mov	r0, r3
    60b4:	e0833002 	add	r3, r3, r2
    60b8:	e5c43000 	strb	r3, [r4]
    60bc:	ebfffca3 	bl	5350 <uart0_transmit>
    60c0:	e55b3039 	ldrb	r3, [fp, #-57]
    60c4:	e5d42000 	ldrb	r2, [r4]
    60c8:	e1a00003 	mov	r0, r3
    60cc:	e0833002 	add	r3, r3, r2
    60d0:	e5c43000 	strb	r3, [r4]
    60d4:	ebfffc9d 	bl	5350 <uart0_transmit>
    60d8:	e3a000ff 	mov	r0, #255	; 0xff
    60dc:	ebfffc9b 	bl	5350 <uart0_transmit>
    60e0:	ea000003 	b	60f4 <.text+0x60f4>
    60e4:	e51f22f8 	ldr	r2, [pc, #-760]	; 5df4 <.text+0x5df4>
    60e8:	e5d23000 	ldrb	r3, [r2]
    60ec:	e2833001 	add	r3, r3, #1	; 0x1
    60f0:	e5c23000 	strb	r3, [r2]
    60f4:	e24bd028 	sub	sp, fp, #40	; 0x28
    60f8:	e89d6ff0 	ldmia	sp, {r4, r5, r6, r7, r8, r9, sl, fp, sp, lr}
    60fc:	e12fff1e 	bx	lr

00006100 <aerocomm_init>:
    6100:	e59f30b0 	ldr	r3, [pc, #176]	; 61b8 <.text+0x61b8>
    6104:	e3a02001 	mov	r2, #1	; 0x1
    6108:	e92d40f0 	stmdb	sp!, {r4, r5, r6, r7, lr}
    610c:	e5c32000 	strb	r2, [r3]
    6110:	e3a05078 	mov	r5, #120	; 0x78
    6114:	e59f30a0 	ldr	r3, [pc, #160]	; 61bc <.text+0x61bc>
    6118:	e59f70a0 	ldr	r7, [pc, #160]	; 61c0 <.text+0x61c0>
    611c:	e5932008 	ldr	r2, [r3, #8]
    6120:	e5971000 	ldr	r1, [r7]
    6124:	e59f3098 	ldr	r3, [pc, #152]	; 61c4 <.text+0x61c4>
    6128:	e59fc098 	ldr	ip, [pc, #152]	; 61c8 <.text+0x61c8>
    612c:	e0612002 	rsb	r2, r1, r2
    6130:	e1520003 	cmp	r2, r3
    6134:	e59f4090 	ldr	r4, [pc, #144]	; 61cc <.text+0x61cc>
    6138:	e081000c 	add	r0, r1, ip
    613c:	93a03000 	movls	r3, #0	; 0x0
    6140:	9a000015 	bls	619c <aerocomm_init+0x9c>
    6144:	e5942000 	ldr	r2, [r4]
    6148:	e59f3080 	ldr	r3, [pc, #128]	; 61d0 <.text+0x61d0>
    614c:	e082c00c 	add	ip, r2, ip
    6150:	e59f107c 	ldr	r1, [pc, #124]	; 61d4 <.text+0x61d4>
    6154:	e15c0003 	cmp	ip, r3
    6158:	e59fe078 	ldr	lr, [pc, #120]	; 61d8 <.text+0x61d8>
    615c:	e59f6078 	ldr	r6, [pc, #120]	; 61dc <.text+0x61dc>
    6160:	e0821001 	add	r1, r2, r1
    6164:	e5870000 	str	r0, [r7]
    6168:	e584c000 	str	ip, [r4]
    616c:	9a000009 	bls	6198 <aerocomm_init+0x98>
    6170:	e59e2010 	ldr	r2, [lr, #16]
    6174:	e1d630b0 	ldrh	r3, [r6]
    6178:	e3120201 	tst	r2, #268435456	; 0x10000000
    617c:	e2833001 	add	r3, r3, #1	; 0x1
    6180:	e1c630b0 	strh	r3, [r6]
    6184:	13a03201 	movne	r3, #268435456	; 0x10000000
    6188:	03a03201 	moveq	r3, #268435456	; 0x10000000
    618c:	e5841000 	str	r1, [r4]
    6190:	158e301c 	strne	r3, [lr, #28]
    6194:	058e3014 	streq	r3, [lr, #20]
    6198:	e3a03001 	mov	r3, #1	; 0x1
    619c:	e3530000 	cmp	r3, #0	; 0x0
    61a0:	e2453001 	sub	r3, r5, #1	; 0x1
    61a4:	120350ff 	andne	r5, r3, #255	; 0xff
    61a8:	e3550000 	cmp	r5, #0	; 0x0
    61ac:	1affffd8 	bne	6114 <aerocomm_init+0x14>
    61b0:	e8bd40f0 	ldmia	sp!, {r4, r5, r6, r7, lr}
    61b4:	e12fff1e 	bx	lr
    61b8:	4000000d 	andmi	r0, r0, sp
    61bc:	e0004000 	and	r4, r0, r0
    61c0:	400004f4 	strmid	r0, [r0], -r4
    61c4:	00039386 	andeq	r9, r3, r6, lsl #7
    61c8:	00039387 	andeq	r9, r3, r7, lsl #7
    61cc:	400007a8 	andmi	r0, r0, r8, lsr #15
    61d0:	00e4e1c0 	rsceq	lr, r4, r0, asr #3
    61d4:	ff1eb1c7 	swinv	0x001eb1c7
    61d8:	e0028000 	and	r8, r2, r0
    61dc:	400007a4 	andmi	r0, r0, r4, lsr #15

000061e0 <get_ac_info>:
    61e0:	e20000ff 	and	r0, r0, #255	; 0xff
    61e4:	e3500017 	cmp	r0, #23	; 0x17
    61e8:	83a00000 	movhi	r0, #0	; 0x0
    61ec:	e59f3008 	ldr	r3, [pc, #8]	; 61fc <.text+0x61fc>
    61f0:	e0800100 	add	r0, r0, r0, lsl #2
    61f4:	e0830100 	add	r0, r3, r0, lsl #2
    61f8:	e12fff1e 	bx	lr
    61fc:	4000080c 	andmi	r0, r0, ip, lsl #16

00006200 <adc_buf_channel>:
    6200:	e59f300c 	ldr	r3, [pc, #12]	; 6214 <.text+0x6214>
    6204:	e20000ff 	and	r0, r0, #255	; 0xff
    6208:	e7831100 	str	r1, [r3, r0, lsl #2]
    620c:	e5c12043 	strb	r2, [r1, #67]
    6210:	e12fff1e 	bx	lr
    6214:	4000051c 	andmi	r0, r0, ip, lsl r5

00006218 <adc_init>:
    6218:	e59f2080 	ldr	r2, [pc, #128]	; 62a0 <.text+0x62a0>
    621c:	e5923000 	ldr	r3, [r2]
    6220:	e3833403 	orr	r3, r3, #50331648	; 0x3000000
    6224:	e5823000 	str	r3, [r2]
    6228:	e5923004 	ldr	r3, [r2, #4]
    622c:	e3833415 	orr	r3, r3, #352321536	; 0x15000000
    6230:	e3833b06 	orr	r3, r3, #6144	; 0x1800
    6234:	e5823004 	str	r3, [r2, #4]
    6238:	e59f2064 	ldr	r2, [pc, #100]	; 62a4 <.text+0x62a4>
    623c:	e59f3064 	ldr	r3, [pc, #100]	; 62a8 <.text+0x62a8>
    6240:	e5832000 	str	r2, [r3]
    6244:	e59f2060 	ldr	r2, [pc, #96]	; 62ac <.text+0x62ac>
    6248:	e592300c 	ldr	r3, [r2, #12]
    624c:	e3c33701 	bic	r3, r3, #262144	; 0x40000
    6250:	e582300c 	str	r3, [r2, #12]
    6254:	e3a03701 	mov	r3, #262144	; 0x40000
    6258:	e5823010 	str	r3, [r2, #16]
    625c:	e3a03032 	mov	r3, #50	; 0x32
    6260:	e582320c 	str	r3, [r2, #524]
    6264:	e59f3044 	ldr	r3, [pc, #68]	; 62b0 <.text+0x62b0>
    6268:	e59f1044 	ldr	r1, [pc, #68]	; 62b4 <.text+0x62b4>
    626c:	e582310c 	str	r3, [r2, #268]
    6270:	e59f3040 	ldr	r3, [pc, #64]	; 62b8 <.text+0x62b8>
    6274:	e5831000 	str	r1, [r3]
    6278:	e592300c 	ldr	r3, [r2, #12]
    627c:	e3c33602 	bic	r3, r3, #2097152	; 0x200000
    6280:	e582300c 	str	r3, [r2, #12]
    6284:	e3a03602 	mov	r3, #2097152	; 0x200000
    6288:	e5823010 	str	r3, [r2, #16]
    628c:	e3a03035 	mov	r3, #53	; 0x35
    6290:	e5823210 	str	r3, [r2, #528]
    6294:	e59f3020 	ldr	r3, [pc, #32]	; 62bc <.text+0x62bc>
    6298:	e5823110 	str	r3, [r2, #272]
    629c:	e12fff1e 	bx	lr
    62a0:	e002c000 	and	ip, r2, r0
    62a4:	0021ff0e 	eoreq	pc, r1, lr, lsl #30
    62a8:	e0034000 	and	r4, r3, r0
    62ac:	fffff000 	swinv	0x00fff000
    62b0:	000062c0 	andeq	r6, r0, r0, asr #5
    62b4:	0021ffc8 	eoreq	pc, r1, r8, asr #31
    62b8:	e0060000 	and	r0, r6, r0
    62bc:	0000636c 	andeq	r6, r0, ip, ror #6

000062c0 <adcISR0>:
    62c0:	e24ee004 	sub	lr, lr, #4	; 0x4
    62c4:	e92d5fff 	stmdb	sp!, {r0, r1, r2, r3, r4, r5, r6, r7, r8, r9, sl, fp, ip, lr}
    62c8:	e14f1000 	mrs	r1, SPSR
    62cc:	e92d0002 	stmdb	sp!, {r1}
    62d0:	e59f3084 	ldr	r3, [pc, #132]	; 635c <.text+0x635c>
    62d4:	e5932004 	ldr	r2, [r3, #4]
    62d8:	e59f3080 	ldr	r3, [pc, #128]	; 6360 <.text+0x6360>
    62dc:	e1a01c22 	mov	r1, r2, lsr #24
    62e0:	e2011007 	and	r1, r1, #7	; 0x7
    62e4:	e793c101 	ldr	ip, [r3, r1, lsl #2]
    62e8:	e1a02802 	mov	r2, r2, lsl #16
    62ec:	e59f3070 	ldr	r3, [pc, #112]	; 6364 <.text+0x6364>
    62f0:	e1a0eb22 	mov	lr, r2, lsr #22
    62f4:	e1a01081 	mov	r1, r1, lsl #1
    62f8:	e35c0000 	cmp	ip, #0	; 0x0
    62fc:	e181e0b3 	strh	lr, [r1, r3]
    6300:	0a00000f 	beq	6344 <adcISR0+0x84>
    6304:	e5dc2042 	ldrb	r2, [ip, #66]
    6308:	e5dc3043 	ldrb	r3, [ip, #67]
    630c:	e2822001 	add	r2, r2, #1	; 0x1
    6310:	e20220ff 	and	r2, r2, #255	; 0xff
    6314:	e1530002 	cmp	r3, r2
    6318:	93a02000 	movls	r2, #0	; 0x0
    631c:	e08c0082 	add	r0, ip, r2, lsl #1
    6320:	e1dc30b0 	ldrh	r3, [ip]
    6324:	e1d010b2 	ldrh	r1, [r0, #2]
    6328:	e0613003 	rsb	r3, r1, r3
    632c:	e1cc30b0 	strh	r3, [ip]
    6330:	e1dc30b0 	ldrh	r3, [ip]
    6334:	e08e3003 	add	r3, lr, r3
    6338:	e5cc2042 	strb	r2, [ip, #66]
    633c:	e1c0e0b2 	strh	lr, [r0, #2]
    6340:	e1cc30b0 	strh	r3, [ip]
    6344:	e59f301c 	ldr	r3, [pc, #28]	; 6368 <.text+0x6368>
    6348:	e3a02000 	mov	r2, #0	; 0x0
    634c:	e5832030 	str	r2, [r3, #48]
    6350:	e8bd0002 	ldmia	sp!, {r1}
    6354:	e161f001 	msr	SPSR_c, r1
    6358:	e8fd9fff 	ldmia	sp!, {r0, r1, r2, r3, r4, r5, r6, r7, r8, r9, sl, fp, ip, pc}^
    635c:	e0034000 	and	r4, r3, r0
    6360:	4000051c 	andmi	r0, r0, ip, lsl r5
    6364:	40000028 	andmi	r0, r0, r8, lsr #32
    6368:	fffff000 	swinv	0x00fff000

0000636c <adcISR1>:
    636c:	e24ee004 	sub	lr, lr, #4	; 0x4
    6370:	e92d5fff 	stmdb	sp!, {r0, r1, r2, r3, r4, r5, r6, r7, r8, r9, sl, fp, ip, lr}
    6374:	e14f1000 	mrs	r1, SPSR
    6378:	e92d0002 	stmdb	sp!, {r1}
    637c:	e59f3088 	ldr	r3, [pc, #136]	; 640c <.text+0x640c>
    6380:	e5932004 	ldr	r2, [r3, #4]
    6384:	e59f3084 	ldr	r3, [pc, #132]	; 6410 <.text+0x6410>
    6388:	e1a01c22 	mov	r1, r2, lsr #24
    638c:	e2011007 	and	r1, r1, #7	; 0x7
    6390:	e0833101 	add	r3, r3, r1, lsl #2
    6394:	e593c020 	ldr	ip, [r3, #32]
    6398:	e1a02802 	mov	r2, r2, lsl #16
    639c:	e59f3070 	ldr	r3, [pc, #112]	; 6414 <.text+0x6414>
    63a0:	e1a0eb22 	mov	lr, r2, lsr #22
    63a4:	e1a01081 	mov	r1, r1, lsl #1
    63a8:	e35c0000 	cmp	ip, #0	; 0x0
    63ac:	e181e0b3 	strh	lr, [r1, r3]
    63b0:	0a00000f 	beq	63f4 <adcISR1+0x88>
    63b4:	e5dc2042 	ldrb	r2, [ip, #66]
    63b8:	e5dc3043 	ldrb	r3, [ip, #67]
    63bc:	e2822001 	add	r2, r2, #1	; 0x1
    63c0:	e20220ff 	and	r2, r2, #255	; 0xff
    63c4:	e1530002 	cmp	r3, r2
    63c8:	93a02000 	movls	r2, #0	; 0x0
    63cc:	e08c0082 	add	r0, ip, r2, lsl #1
    63d0:	e1dc30b0 	ldrh	r3, [ip]
    63d4:	e1d010b2 	ldrh	r1, [r0, #2]
    63d8:	e0613003 	rsb	r3, r1, r3
    63dc:	e1cc30b0 	strh	r3, [ip]
    63e0:	e1dc30b0 	ldrh	r3, [ip]
    63e4:	e08e3003 	add	r3, lr, r3
    63e8:	e5cc2042 	strb	r2, [ip, #66]
    63ec:	e1c0e0b2 	strh	lr, [r0, #2]
    63f0:	e1cc30b0 	strh	r3, [ip]
    63f4:	e59f301c 	ldr	r3, [pc, #28]	; 6418 <.text+0x6418>
    63f8:	e3a02000 	mov	r2, #0	; 0x0
    63fc:	e5832030 	str	r2, [r3, #48]
    6400:	e8bd0002 	ldmia	sp!, {r1}
    6404:	e161f001 	msr	SPSR_c, r1
    6408:	e8fd9fff 	ldmia	sp!, {r0, r1, r2, r3, r4, r5, r6, r7, r8, r9, sl, fp, ip, pc}^
    640c:	e0060000 	and	r0, r6, r0
    6410:	4000051c 	andmi	r0, r0, ip, lsl r5
    6414:	40000018 	andmi	r0, r0, r8, lsl r0
    6418:	fffff000 	swinv	0x00fff000

0000641c <gps_init>:
    641c:	e59f3008 	ldr	r3, [pc, #8]	; 642c <.text+0x642c>
    6420:	e3a02000 	mov	r2, #0	; 0x0
    6424:	e5c32000 	strb	r2, [r3]
    6428:	e12fff1e 	bx	lr
    642c:	4000055c 	andmi	r0, r0, ip, asr r5

00006430 <gps_reset>:
    6430:	e1a0c00d 	mov	ip, sp
    6434:	e92dd8f0 	stmdb	sp!, {r4, r5, r6, r7, fp, ip, lr, pc}
    6438:	e24cb004 	sub	fp, ip, #4	; 0x4
    643c:	e24dd004 	sub	sp, sp, #4	; 0x4
    6440:	e3a000b5 	mov	r0, #181	; 0xb5
    6444:	e59f515c 	ldr	r5, [pc, #348]	; 65a8 <.text+0x65a8>
    6448:	e59f615c 	ldr	r6, [pc, #348]	; 65ac <.text+0x65ac>
    644c:	ebfffc8d 	bl	5688 <uart1_transmit>
    6450:	e3a00062 	mov	r0, #98	; 0x62
    6454:	ebfffc8b 	bl	5688 <uart1_transmit>
    6458:	e3a07000 	mov	r7, #0	; 0x0
    645c:	e3a00006 	mov	r0, #6	; 0x6
    6460:	e5c67000 	strb	r7, [r6]
    6464:	e5c57000 	strb	r7, [r5]
    6468:	ebfffc86 	bl	5688 <uart1_transmit>
    646c:	e5d53000 	ldrb	r3, [r5]
    6470:	e2833006 	add	r3, r3, #6	; 0x6
    6474:	e5c53000 	strb	r3, [r5]
    6478:	e5d63000 	ldrb	r3, [r6]
    647c:	e5d52000 	ldrb	r2, [r5]
    6480:	e3a04004 	mov	r4, #4	; 0x4
    6484:	e0833002 	add	r3, r3, r2
    6488:	e1a00004 	mov	r0, r4
    648c:	e5c63000 	strb	r3, [r6]
    6490:	ebfffc7c 	bl	5688 <uart1_transmit>
    6494:	e5d53000 	ldrb	r3, [r5]
    6498:	e0833004 	add	r3, r3, r4
    649c:	e5c53000 	strb	r3, [r5]
    64a0:	e5d63000 	ldrb	r3, [r6]
    64a4:	e5d52000 	ldrb	r2, [r5]
    64a8:	e1a00004 	mov	r0, r4
    64ac:	e0833002 	add	r3, r3, r2
    64b0:	e5c63000 	strb	r3, [r6]
    64b4:	ebfffc73 	bl	5688 <uart1_transmit>
    64b8:	e5d53000 	ldrb	r3, [r5]
    64bc:	e0833004 	add	r3, r3, r4
    64c0:	e5c53000 	strb	r3, [r5]
    64c4:	e5d63000 	ldrb	r3, [r6]
    64c8:	e5d52000 	ldrb	r2, [r5]
    64cc:	e1a00007 	mov	r0, r7
    64d0:	e0833002 	add	r3, r3, r2
    64d4:	e5c63000 	strb	r3, [r6]
    64d8:	ebfffc6a 	bl	5688 <uart1_transmit>
    64dc:	e3a03001 	mov	r3, #1	; 0x1
    64e0:	e14b31be 	strh	r3, [fp, #-30]
    64e4:	e5d62000 	ldrb	r2, [r6]
    64e8:	e55b401e 	ldrb	r4, [fp, #-30]
    64ec:	e5d53000 	ldrb	r3, [r5]
    64f0:	e1a00004 	mov	r0, r4
    64f4:	e0822003 	add	r2, r2, r3
    64f8:	e5c62000 	strb	r2, [r6]
    64fc:	ebfffc61 	bl	5688 <uart1_transmit>
    6500:	e5d53000 	ldrb	r3, [r5]
    6504:	e0844003 	add	r4, r4, r3
    6508:	e5c54000 	strb	r4, [r5]
    650c:	e5d62000 	ldrb	r2, [r6]
    6510:	e55b401d 	ldrb	r4, [fp, #-29]
    6514:	e5d53000 	ldrb	r3, [r5]
    6518:	e1a00004 	mov	r0, r4
    651c:	e0822003 	add	r2, r2, r3
    6520:	e5c62000 	strb	r2, [r6]
    6524:	ebfffc57 	bl	5688 <uart1_transmit>
    6528:	e5d53000 	ldrb	r3, [r5]
    652c:	e0844003 	add	r4, r4, r3
    6530:	e5c54000 	strb	r4, [r5]
    6534:	e5d63000 	ldrb	r3, [r6]
    6538:	e5d52000 	ldrb	r2, [r5]
    653c:	e3a01002 	mov	r1, #2	; 0x2
    6540:	e1a00001 	mov	r0, r1
    6544:	e0833002 	add	r3, r3, r2
    6548:	e54b101f 	strb	r1, [fp, #-31]
    654c:	e5c63000 	strb	r3, [r6]
    6550:	ebfffc4c 	bl	5688 <uart1_transmit>
    6554:	e5d53000 	ldrb	r3, [r5]
    6558:	e2833002 	add	r3, r3, #2	; 0x2
    655c:	e5c53000 	strb	r3, [r5]
    6560:	e5d63000 	ldrb	r3, [r6]
    6564:	e5d52000 	ldrb	r2, [r5]
    6568:	e1a00007 	mov	r0, r7
    656c:	e0833002 	add	r3, r3, r2
    6570:	e5c63000 	strb	r3, [r6]
    6574:	e54b7020 	strb	r7, [fp, #-32]
    6578:	ebfffc42 	bl	5688 <uart1_transmit>
    657c:	e5d52000 	ldrb	r2, [r5]
    6580:	e5d63000 	ldrb	r3, [r6]
    6584:	e1a00002 	mov	r0, r2
    6588:	e0833002 	add	r3, r3, r2
    658c:	e5c63000 	strb	r3, [r6]
    6590:	ebfffc3c 	bl	5688 <uart1_transmit>
    6594:	e5d60000 	ldrb	r0, [r6]
    6598:	ebfffc3a 	bl	5688 <uart1_transmit>
    659c:	e24bd01c 	sub	sp, fp, #28	; 0x1c
    65a0:	e89d68f0 	ldmia	sp, {r4, r5, r6, r7, fp, sp, lr}
    65a4:	e12fff1e 	bx	lr
    65a8:	40000f48 	andmi	r0, r0, r8, asr #30
    65ac:	40000f44 	andmi	r0, r0, r4, asr #30

000065b0 <gps_configure>:
    65b0:	e1a0c00d 	mov	ip, sp
    65b4:	e92ddff0 	stmdb	sp!, {r4, r5, r6, r7, r8, r9, sl, fp, ip, lr, pc}
    65b8:	e24cb004 	sub	fp, ip, #4	; 0x4
    65bc:	e24dd058 	sub	sp, sp, #88	; 0x58
    65c0:	e3a000b5 	mov	r0, #181	; 0xb5
    65c4:	e59f4ff8 	ldr	r4, [pc, #4088]	; 75c4 <.text+0x75c4>
    65c8:	e59f5ff8 	ldr	r5, [pc, #4088]	; 75c8 <.text+0x75c8>
    65cc:	e3a09006 	mov	r9, #6	; 0x6
    65d0:	ebfffc2c 	bl	5688 <uart1_transmit>
    65d4:	e3a00062 	mov	r0, #98	; 0x62
    65d8:	e3a07000 	mov	r7, #0	; 0x0
    65dc:	ebfffc29 	bl	5688 <uart1_transmit>
    65e0:	e1a00009 	mov	r0, r9
    65e4:	e5c57000 	strb	r7, [r5]
    65e8:	e5c47000 	strb	r7, [r4]
    65ec:	ebfffc25 	bl	5688 <uart1_transmit>
    65f0:	e5d43000 	ldrb	r3, [r4]
    65f4:	e0833009 	add	r3, r3, r9
    65f8:	e5c43000 	strb	r3, [r4]
    65fc:	e5d53000 	ldrb	r3, [r5]
    6600:	e5d42000 	ldrb	r2, [r4]
    6604:	e1a00007 	mov	r0, r7
    6608:	e0833002 	add	r3, r3, r2
    660c:	e5c53000 	strb	r3, [r5]
    6610:	ebfffc1c 	bl	5688 <uart1_transmit>
    6614:	e5d53000 	ldrb	r3, [r5]
    6618:	e5d42000 	ldrb	r2, [r4]
    661c:	e3a08014 	mov	r8, #20	; 0x14
    6620:	e0833002 	add	r3, r3, r2
    6624:	e1a00008 	mov	r0, r8
    6628:	e5c53000 	strb	r3, [r5]
    662c:	ebfffc15 	bl	5688 <uart1_transmit>
    6630:	e5d43000 	ldrb	r3, [r4]
    6634:	e0833008 	add	r3, r3, r8
    6638:	e5c43000 	strb	r3, [r4]
    663c:	e5d53000 	ldrb	r3, [r5]
    6640:	e5d42000 	ldrb	r2, [r4]
    6644:	e1a00007 	mov	r0, r7
    6648:	e0833002 	add	r3, r3, r2
    664c:	e5c53000 	strb	r3, [r5]
    6650:	ebfffc0c 	bl	5688 <uart1_transmit>
    6654:	e5d53000 	ldrb	r3, [r5]
    6658:	e5d42000 	ldrb	r2, [r4]
    665c:	e3a0a001 	mov	sl, #1	; 0x1
    6660:	e0833002 	add	r3, r3, r2
    6664:	e1a0000a 	mov	r0, sl
    6668:	e5c53000 	strb	r3, [r5]
    666c:	e54ba029 	strb	sl, [fp, #-41]
    6670:	ebfffc04 	bl	5688 <uart1_transmit>
    6674:	e5d43000 	ldrb	r3, [r4]
    6678:	e083300a 	add	r3, r3, sl
    667c:	e5c43000 	strb	r3, [r4]
    6680:	e5d53000 	ldrb	r3, [r5]
    6684:	e5d42000 	ldrb	r2, [r4]
    6688:	e1a00007 	mov	r0, r7
    668c:	e0833002 	add	r3, r3, r2
    6690:	e5c53000 	strb	r3, [r5]
    6694:	e54b702a 	strb	r7, [fp, #-42]
    6698:	ebfffbfa 	bl	5688 <uart1_transmit>
    669c:	e14b72bc 	strh	r7, [fp, #-44]
    66a0:	e5d52000 	ldrb	r2, [r5]
    66a4:	e55b602c 	ldrb	r6, [fp, #-44]
    66a8:	e5d43000 	ldrb	r3, [r4]
    66ac:	e1a00006 	mov	r0, r6
    66b0:	e0822003 	add	r2, r2, r3
    66b4:	e5c52000 	strb	r2, [r5]
    66b8:	ebfffbf2 	bl	5688 <uart1_transmit>
    66bc:	e5d43000 	ldrb	r3, [r4]
    66c0:	e0866003 	add	r6, r6, r3
    66c4:	e5c46000 	strb	r6, [r4]
    66c8:	e5d52000 	ldrb	r2, [r5]
    66cc:	e55b602b 	ldrb	r6, [fp, #-43]
    66d0:	e5d43000 	ldrb	r3, [r4]
    66d4:	e1a00006 	mov	r0, r6
    66d8:	e0822003 	add	r2, r2, r3
    66dc:	e5c52000 	strb	r2, [r5]
    66e0:	ebfffbe8 	bl	5688 <uart1_transmit>
    66e4:	e5d43000 	ldrb	r3, [r4]
    66e8:	e0866003 	add	r6, r6, r3
    66ec:	e59f3ed8 	ldr	r3, [pc, #3800]	; 75cc <.text+0x75cc>
    66f0:	e5c46000 	strb	r6, [r4]
    66f4:	e50b3078 	str	r3, [fp, #-120]
    66f8:	e5d52000 	ldrb	r2, [r5]
    66fc:	e55b6078 	ldrb	r6, [fp, #-120]
    6700:	e5d43000 	ldrb	r3, [r4]
    6704:	e1a00006 	mov	r0, r6
    6708:	e0822003 	add	r2, r2, r3
    670c:	e5c52000 	strb	r2, [r5]
    6710:	ebfffbdc 	bl	5688 <uart1_transmit>
    6714:	e5d43000 	ldrb	r3, [r4]
    6718:	e0866003 	add	r6, r6, r3
    671c:	e5c46000 	strb	r6, [r4]
    6720:	e5d52000 	ldrb	r2, [r5]
    6724:	e55b6077 	ldrb	r6, [fp, #-119]
    6728:	e5d43000 	ldrb	r3, [r4]
    672c:	e1a00006 	mov	r0, r6
    6730:	e0822003 	add	r2, r2, r3
    6734:	e5c52000 	strb	r2, [r5]
    6738:	ebfffbd2 	bl	5688 <uart1_transmit>
    673c:	e5d43000 	ldrb	r3, [r4]
    6740:	e0866003 	add	r6, r6, r3
    6744:	e5c46000 	strb	r6, [r4]
    6748:	e5d52000 	ldrb	r2, [r5]
    674c:	e55b6076 	ldrb	r6, [fp, #-118]
    6750:	e5d43000 	ldrb	r3, [r4]
    6754:	e1a00006 	mov	r0, r6
    6758:	e0822003 	add	r2, r2, r3
    675c:	e5c52000 	strb	r2, [r5]
    6760:	ebfffbc8 	bl	5688 <uart1_transmit>
    6764:	e5d43000 	ldrb	r3, [r4]
    6768:	e0866003 	add	r6, r6, r3
    676c:	e5c46000 	strb	r6, [r4]
    6770:	e5d52000 	ldrb	r2, [r5]
    6774:	e55b6075 	ldrb	r6, [fp, #-117]
    6778:	e5d43000 	ldrb	r3, [r4]
    677c:	e1a00006 	mov	r0, r6
    6780:	e0822003 	add	r2, r2, r3
    6784:	e5c52000 	strb	r2, [r5]
    6788:	ebfffbbe 	bl	5688 <uart1_transmit>
    678c:	e5d43000 	ldrb	r3, [r4]
    6790:	e0866003 	add	r6, r6, r3
    6794:	e3a03c96 	mov	r3, #38400	; 0x9600
    6798:	e5c46000 	strb	r6, [r4]
    679c:	e50b307c 	str	r3, [fp, #-124]
    67a0:	e5d52000 	ldrb	r2, [r5]
    67a4:	e55b607c 	ldrb	r6, [fp, #-124]
    67a8:	e5d43000 	ldrb	r3, [r4]
    67ac:	e1a00006 	mov	r0, r6
    67b0:	e0822003 	add	r2, r2, r3
    67b4:	e5c52000 	strb	r2, [r5]
    67b8:	ebfffbb2 	bl	5688 <uart1_transmit>
    67bc:	e5d43000 	ldrb	r3, [r4]
    67c0:	e0866003 	add	r6, r6, r3
    67c4:	e5c46000 	strb	r6, [r4]
    67c8:	e5d52000 	ldrb	r2, [r5]
    67cc:	e55b607b 	ldrb	r6, [fp, #-123]
    67d0:	e5d43000 	ldrb	r3, [r4]
    67d4:	e1a00006 	mov	r0, r6
    67d8:	e0822003 	add	r2, r2, r3
    67dc:	e5c52000 	strb	r2, [r5]
    67e0:	ebfffba8 	bl	5688 <uart1_transmit>
    67e4:	e5d43000 	ldrb	r3, [r4]
    67e8:	e0866003 	add	r6, r6, r3
    67ec:	e5c46000 	strb	r6, [r4]
    67f0:	e5d52000 	ldrb	r2, [r5]
    67f4:	e55b607a 	ldrb	r6, [fp, #-122]
    67f8:	e5d43000 	ldrb	r3, [r4]
    67fc:	e1a00006 	mov	r0, r6
    6800:	e0822003 	add	r2, r2, r3
    6804:	e5c52000 	strb	r2, [r5]
    6808:	ebfffb9e 	bl	5688 <uart1_transmit>
    680c:	e5d43000 	ldrb	r3, [r4]
    6810:	e0866003 	add	r6, r6, r3
    6814:	e5c46000 	strb	r6, [r4]
    6818:	e5d52000 	ldrb	r2, [r5]
    681c:	e55b6079 	ldrb	r6, [fp, #-121]
    6820:	e5d43000 	ldrb	r3, [r4]
    6824:	e1a00006 	mov	r0, r6
    6828:	e0822003 	add	r2, r2, r3
    682c:	e5c52000 	strb	r2, [r5]
    6830:	ebfffb94 	bl	5688 <uart1_transmit>
    6834:	e5d43000 	ldrb	r3, [r4]
    6838:	e0866003 	add	r6, r6, r3
    683c:	e5c46000 	strb	r6, [r4]
    6840:	e14ba2be 	strh	sl, [fp, #-46]
    6844:	e5d52000 	ldrb	r2, [r5]
    6848:	e55b602e 	ldrb	r6, [fp, #-46]
    684c:	e5d43000 	ldrb	r3, [r4]
    6850:	e1a00006 	mov	r0, r6
    6854:	e0822003 	add	r2, r2, r3
    6858:	e5c52000 	strb	r2, [r5]
    685c:	ebfffb89 	bl	5688 <uart1_transmit>
    6860:	e5d43000 	ldrb	r3, [r4]
    6864:	e0866003 	add	r6, r6, r3
    6868:	e5c46000 	strb	r6, [r4]
    686c:	e5d52000 	ldrb	r2, [r5]
    6870:	e55b602d 	ldrb	r6, [fp, #-45]
    6874:	e5d43000 	ldrb	r3, [r4]
    6878:	e1a00006 	mov	r0, r6
    687c:	e0822003 	add	r2, r2, r3
    6880:	e5c52000 	strb	r2, [r5]
    6884:	ebfffb7f 	bl	5688 <uart1_transmit>
    6888:	e5d43000 	ldrb	r3, [r4]
    688c:	e0866003 	add	r6, r6, r3
    6890:	e5c46000 	strb	r6, [r4]
    6894:	e14ba3b0 	strh	sl, [fp, #-48]
    6898:	e5d52000 	ldrb	r2, [r5]
    689c:	e55b6030 	ldrb	r6, [fp, #-48]
    68a0:	e5d43000 	ldrb	r3, [r4]
    68a4:	e1a00006 	mov	r0, r6
    68a8:	e0822003 	add	r2, r2, r3
    68ac:	e5c52000 	strb	r2, [r5]
    68b0:	ebfffb74 	bl	5688 <uart1_transmit>
    68b4:	e5d43000 	ldrb	r3, [r4]
    68b8:	e0866003 	add	r6, r6, r3
    68bc:	e5c46000 	strb	r6, [r4]
    68c0:	e5d52000 	ldrb	r2, [r5]
    68c4:	e55b602f 	ldrb	r6, [fp, #-47]
    68c8:	e5d43000 	ldrb	r3, [r4]
    68cc:	e1a00006 	mov	r0, r6
    68d0:	e0822003 	add	r2, r2, r3
    68d4:	e5c52000 	strb	r2, [r5]
    68d8:	ebfffb6a 	bl	5688 <uart1_transmit>
    68dc:	e5d43000 	ldrb	r3, [r4]
    68e0:	e0866003 	add	r6, r6, r3
    68e4:	e5c46000 	strb	r6, [r4]
    68e8:	e14b73b2 	strh	r7, [fp, #-50]
    68ec:	e5d52000 	ldrb	r2, [r5]
    68f0:	e55b6032 	ldrb	r6, [fp, #-50]
    68f4:	e5d43000 	ldrb	r3, [r4]
    68f8:	e1a00006 	mov	r0, r6
    68fc:	e0822003 	add	r2, r2, r3
    6900:	e5c52000 	strb	r2, [r5]
    6904:	ebfffb5f 	bl	5688 <uart1_transmit>
    6908:	e5d43000 	ldrb	r3, [r4]
    690c:	e0866003 	add	r6, r6, r3
    6910:	e5c46000 	strb	r6, [r4]
    6914:	e5d52000 	ldrb	r2, [r5]
    6918:	e55b6031 	ldrb	r6, [fp, #-49]
    691c:	e5d43000 	ldrb	r3, [r4]
    6920:	e1a00006 	mov	r0, r6
    6924:	e0822003 	add	r2, r2, r3
    6928:	e5c52000 	strb	r2, [r5]
    692c:	ebfffb55 	bl	5688 <uart1_transmit>
    6930:	e5d43000 	ldrb	r3, [r4]
    6934:	e0866003 	add	r6, r6, r3
    6938:	e5c46000 	strb	r6, [r4]
    693c:	e14b73b4 	strh	r7, [fp, #-52]
    6940:	e5d52000 	ldrb	r2, [r5]
    6944:	e55b6034 	ldrb	r6, [fp, #-52]
    6948:	e5d43000 	ldrb	r3, [r4]
    694c:	e1a00006 	mov	r0, r6
    6950:	e0822003 	add	r2, r2, r3
    6954:	e5c52000 	strb	r2, [r5]
    6958:	ebfffb4a 	bl	5688 <uart1_transmit>
    695c:	e5d43000 	ldrb	r3, [r4]
    6960:	e0866003 	add	r6, r6, r3
    6964:	e5c46000 	strb	r6, [r4]
    6968:	e5d52000 	ldrb	r2, [r5]
    696c:	e55b6033 	ldrb	r6, [fp, #-51]
    6970:	e5d43000 	ldrb	r3, [r4]
    6974:	e1a00006 	mov	r0, r6
    6978:	e0822003 	add	r2, r2, r3
    697c:	e5c52000 	strb	r2, [r5]
    6980:	ebfffb40 	bl	5688 <uart1_transmit>
    6984:	e5d43000 	ldrb	r3, [r4]
    6988:	e0866003 	add	r6, r6, r3
    698c:	e5c46000 	strb	r6, [r4]
    6990:	e5d53000 	ldrb	r3, [r5]
    6994:	e5d40000 	ldrb	r0, [r4]
    6998:	e0833000 	add	r3, r3, r0
    699c:	e5c53000 	strb	r3, [r5]
    69a0:	ebfffb38 	bl	5688 <uart1_transmit>
    69a4:	e5d50000 	ldrb	r0, [r5]
    69a8:	ebfffb36 	bl	5688 <uart1_transmit>
    69ac:	e3a000b5 	mov	r0, #181	; 0xb5
    69b0:	ebfffb34 	bl	5688 <uart1_transmit>
    69b4:	e3a00062 	mov	r0, #98	; 0x62
    69b8:	ebfffb32 	bl	5688 <uart1_transmit>
    69bc:	e1a00009 	mov	r0, r9
    69c0:	e5c57000 	strb	r7, [r5]
    69c4:	e5c47000 	strb	r7, [r4]
    69c8:	ebfffb2e 	bl	5688 <uart1_transmit>
    69cc:	e5d43000 	ldrb	r3, [r4]
    69d0:	e0833009 	add	r3, r3, r9
    69d4:	e5c43000 	strb	r3, [r4]
    69d8:	e5d53000 	ldrb	r3, [r5]
    69dc:	e5d42000 	ldrb	r2, [r4]
    69e0:	e3a00003 	mov	r0, #3	; 0x3
    69e4:	e0833002 	add	r3, r3, r2
    69e8:	e5c53000 	strb	r3, [r5]
    69ec:	ebfffb25 	bl	5688 <uart1_transmit>
    69f0:	e5d43000 	ldrb	r3, [r4]
    69f4:	e2833003 	add	r3, r3, #3	; 0x3
    69f8:	e5c43000 	strb	r3, [r4]
    69fc:	e5d53000 	ldrb	r3, [r5]
    6a00:	e5d42000 	ldrb	r2, [r4]
    6a04:	e3a0001c 	mov	r0, #28	; 0x1c
    6a08:	e0833002 	add	r3, r3, r2
    6a0c:	e5c53000 	strb	r3, [r5]
    6a10:	ebfffb1c 	bl	5688 <uart1_transmit>
    6a14:	e5d43000 	ldrb	r3, [r4]
    6a18:	e283301c 	add	r3, r3, #28	; 0x1c
    6a1c:	e5c43000 	strb	r3, [r4]
    6a20:	e5d53000 	ldrb	r3, [r5]
    6a24:	e5d42000 	ldrb	r2, [r4]
    6a28:	e1a00007 	mov	r0, r7
    6a2c:	e0833002 	add	r3, r3, r2
    6a30:	e5c53000 	strb	r3, [r5]
    6a34:	ebfffb13 	bl	5688 <uart1_transmit>
    6a38:	e5d53000 	ldrb	r3, [r5]
    6a3c:	e5d42000 	ldrb	r2, [r4]
    6a40:	e1a00009 	mov	r0, r9
    6a44:	e0833002 	add	r3, r3, r2
    6a48:	e5c53000 	strb	r3, [r5]
    6a4c:	e54b9035 	strb	r9, [fp, #-53]
    6a50:	ebfffb0c 	bl	5688 <uart1_transmit>
    6a54:	e5d43000 	ldrb	r3, [r4]
    6a58:	e0833009 	add	r3, r3, r9
    6a5c:	e5c43000 	strb	r3, [r4]
    6a60:	e5d53000 	ldrb	r3, [r5]
    6a64:	e5d42000 	ldrb	r2, [r4]
    6a68:	e0833002 	add	r3, r3, r2
    6a6c:	e5c53000 	strb	r3, [r5]
    6a70:	e3a00003 	mov	r0, #3	; 0x3
    6a74:	e3a03003 	mov	r3, #3	; 0x3
    6a78:	e54b3036 	strb	r3, [fp, #-54]
    6a7c:	ebfffb01 	bl	5688 <uart1_transmit>
    6a80:	e5d43000 	ldrb	r3, [r4]
    6a84:	e2833003 	add	r3, r3, #3	; 0x3
    6a88:	e5c43000 	strb	r3, [r4]
    6a8c:	e5d53000 	ldrb	r3, [r5]
    6a90:	e5d42000 	ldrb	r2, [r4]
    6a94:	e3a01010 	mov	r1, #16	; 0x10
    6a98:	e0833002 	add	r3, r3, r2
    6a9c:	e1a00001 	mov	r0, r1
    6aa0:	e5c53000 	strb	r3, [r5]
    6aa4:	e54b1037 	strb	r1, [fp, #-55]
    6aa8:	ebfffaf6 	bl	5688 <uart1_transmit>
    6aac:	e5d43000 	ldrb	r3, [r4]
    6ab0:	e2833010 	add	r3, r3, #16	; 0x10
    6ab4:	e5c43000 	strb	r3, [r4]
    6ab8:	e5d53000 	ldrb	r3, [r5]
    6abc:	e5d42000 	ldrb	r2, [r4]
    6ac0:	e3a01018 	mov	r1, #24	; 0x18
    6ac4:	e0833002 	add	r3, r3, r2
    6ac8:	e1a00001 	mov	r0, r1
    6acc:	e54b1038 	strb	r1, [fp, #-56]
    6ad0:	e5c53000 	strb	r3, [r5]
    6ad4:	ebfffaeb 	bl	5688 <uart1_transmit>
    6ad8:	e5d43000 	ldrb	r3, [r4]
    6adc:	e2833018 	add	r3, r3, #24	; 0x18
    6ae0:	e5c43000 	strb	r3, [r4]
    6ae4:	e5d53000 	ldrb	r3, [r5]
    6ae8:	e5d42000 	ldrb	r2, [r4]
    6aec:	e1a00008 	mov	r0, r8
    6af0:	e0833002 	add	r3, r3, r2
    6af4:	e5c53000 	strb	r3, [r5]
    6af8:	e54b8039 	strb	r8, [fp, #-57]
    6afc:	ebfffae1 	bl	5688 <uart1_transmit>
    6b00:	e5d43000 	ldrb	r3, [r4]
    6b04:	e0833008 	add	r3, r3, r8
    6b08:	e5c43000 	strb	r3, [r4]
    6b0c:	e5d53000 	ldrb	r3, [r5]
    6b10:	e5d42000 	ldrb	r2, [r4]
    6b14:	e3a01005 	mov	r1, #5	; 0x5
    6b18:	e1a00001 	mov	r0, r1
    6b1c:	e0833002 	add	r3, r3, r2
    6b20:	e54b103a 	strb	r1, [fp, #-58]
    6b24:	e5c53000 	strb	r3, [r5]
    6b28:	ebfffad6 	bl	5688 <uart1_transmit>
    6b2c:	e5d43000 	ldrb	r3, [r4]
    6b30:	e2833005 	add	r3, r3, #5	; 0x5
    6b34:	e5c43000 	strb	r3, [r4]
    6b38:	e5d53000 	ldrb	r3, [r5]
    6b3c:	e5d42000 	ldrb	r2, [r4]
    6b40:	e1a00007 	mov	r0, r7
    6b44:	e0833002 	add	r3, r3, r2
    6b48:	e5c53000 	strb	r3, [r5]
    6b4c:	e54b703b 	strb	r7, [fp, #-59]
    6b50:	ebfffacc 	bl	5688 <uart1_transmit>
    6b54:	e5d53000 	ldrb	r3, [r5]
    6b58:	e5d42000 	ldrb	r2, [r4]
    6b5c:	e3a0603c 	mov	r6, #60	; 0x3c
    6b60:	e0833002 	add	r3, r3, r2
    6b64:	e1a00006 	mov	r0, r6
    6b68:	e5c53000 	strb	r3, [r5]
    6b6c:	e54b603c 	strb	r6, [fp, #-60]
    6b70:	ebfffac4 	bl	5688 <uart1_transmit>
    6b74:	e5d43000 	ldrb	r3, [r4]
    6b78:	e0833006 	add	r3, r3, r6
    6b7c:	e5c43000 	strb	r3, [r4]
    6b80:	e5d53000 	ldrb	r3, [r5]
    6b84:	e5d42000 	ldrb	r2, [r4]
    6b88:	e1a00006 	mov	r0, r6
    6b8c:	e0833002 	add	r3, r3, r2
    6b90:	e5c53000 	strb	r3, [r5]
    6b94:	e54b603d 	strb	r6, [fp, #-61]
    6b98:	ebfffaba 	bl	5688 <uart1_transmit>
    6b9c:	e5d43000 	ldrb	r3, [r4]
    6ba0:	e0833006 	add	r3, r3, r6
    6ba4:	e5c43000 	strb	r3, [r4]
    6ba8:	e5d53000 	ldrb	r3, [r5]
    6bac:	e5d42000 	ldrb	r2, [r4]
    6bb0:	e1a00008 	mov	r0, r8
    6bb4:	e0833002 	add	r3, r3, r2
    6bb8:	e5c53000 	strb	r3, [r5]
    6bbc:	e54b803e 	strb	r8, [fp, #-62]
    6bc0:	ebfffab0 	bl	5688 <uart1_transmit>
    6bc4:	e5d43000 	ldrb	r3, [r4]
    6bc8:	e0833008 	add	r3, r3, r8
    6bcc:	e5c43000 	strb	r3, [r4]
    6bd0:	e3a03ffa 	mov	r3, #1000	; 0x3e8
    6bd4:	e14b34b0 	strh	r3, [fp, #-64]
    6bd8:	e5d52000 	ldrb	r2, [r5]
    6bdc:	e55b6040 	ldrb	r6, [fp, #-64]
    6be0:	e5d43000 	ldrb	r3, [r4]
    6be4:	e1a00006 	mov	r0, r6
    6be8:	e0822003 	add	r2, r2, r3
    6bec:	e5c52000 	strb	r2, [r5]
    6bf0:	ebfffaa4 	bl	5688 <uart1_transmit>
    6bf4:	e5d43000 	ldrb	r3, [r4]
    6bf8:	e0866003 	add	r6, r6, r3
    6bfc:	e5c46000 	strb	r6, [r4]
    6c00:	e5d52000 	ldrb	r2, [r5]
    6c04:	e55b603f 	ldrb	r6, [fp, #-63]
    6c08:	e5d43000 	ldrb	r3, [r4]
    6c0c:	e1a00006 	mov	r0, r6
    6c10:	e0822003 	add	r2, r2, r3
    6c14:	e5c52000 	strb	r2, [r5]
    6c18:	ebfffa9a 	bl	5688 <uart1_transmit>
    6c1c:	e5d43000 	ldrb	r3, [r4]
    6c20:	e0866003 	add	r6, r6, r3
    6c24:	e5c46000 	strb	r6, [r4]
    6c28:	e14b74b2 	strh	r7, [fp, #-66]
    6c2c:	e5d52000 	ldrb	r2, [r5]
    6c30:	e55b6042 	ldrb	r6, [fp, #-66]
    6c34:	e5d43000 	ldrb	r3, [r4]
    6c38:	e1a00006 	mov	r0, r6
    6c3c:	e0822003 	add	r2, r2, r3
    6c40:	e5c52000 	strb	r2, [r5]
    6c44:	ebfffa8f 	bl	5688 <uart1_transmit>
    6c48:	e5d43000 	ldrb	r3, [r4]
    6c4c:	e0866003 	add	r6, r6, r3
    6c50:	e5c46000 	strb	r6, [r4]
    6c54:	e5d52000 	ldrb	r2, [r5]
    6c58:	e55b6041 	ldrb	r6, [fp, #-65]
    6c5c:	e5d43000 	ldrb	r3, [r4]
    6c60:	e1a00006 	mov	r0, r6
    6c64:	e0822003 	add	r2, r2, r3
    6c68:	e5c52000 	strb	r2, [r5]
    6c6c:	ebfffa85 	bl	5688 <uart1_transmit>
    6c70:	e5d43000 	ldrb	r3, [r4]
    6c74:	e0866003 	add	r6, r6, r3
    6c78:	e5c46000 	strb	r6, [r4]
    6c7c:	e5d53000 	ldrb	r3, [r5]
    6c80:	e5d42000 	ldrb	r2, [r4]
    6c84:	e1a00007 	mov	r0, r7
    6c88:	e0833002 	add	r3, r3, r2
    6c8c:	e5c53000 	strb	r3, [r5]
    6c90:	e54b7043 	strb	r7, [fp, #-67]
    6c94:	ebfffa7b 	bl	5688 <uart1_transmit>
    6c98:	e5d53000 	ldrb	r3, [r5]
    6c9c:	e5d42000 	ldrb	r2, [r4]
    6ca0:	e3a01017 	mov	r1, #23	; 0x17
    6ca4:	e1a00001 	mov	r0, r1
    6ca8:	e0833002 	add	r3, r3, r2
    6cac:	e54b1044 	strb	r1, [fp, #-68]
    6cb0:	e5c53000 	strb	r3, [r5]
    6cb4:	ebfffa73 	bl	5688 <uart1_transmit>
    6cb8:	e5d43000 	ldrb	r3, [r4]
    6cbc:	e28880e6 	add	r8, r8, #230	; 0xe6
    6cc0:	e2833017 	add	r3, r3, #23	; 0x17
    6cc4:	e14b84b6 	strh	r8, [fp, #-70]
    6cc8:	e5c43000 	strb	r3, [r4]
    6ccc:	e5d52000 	ldrb	r2, [r5]
    6cd0:	e55b6046 	ldrb	r6, [fp, #-70]
    6cd4:	e5d43000 	ldrb	r3, [r4]
    6cd8:	e1a00006 	mov	r0, r6
    6cdc:	e0822003 	add	r2, r2, r3
    6ce0:	e5c52000 	strb	r2, [r5]
    6ce4:	ebfffa67 	bl	5688 <uart1_transmit>
    6ce8:	e5d43000 	ldrb	r3, [r4]
    6cec:	e0866003 	add	r6, r6, r3
    6cf0:	e5c46000 	strb	r6, [r4]
    6cf4:	e5d52000 	ldrb	r2, [r5]
    6cf8:	e55b6045 	ldrb	r6, [fp, #-69]
    6cfc:	e5d43000 	ldrb	r3, [r4]
    6d00:	e1a00006 	mov	r0, r6
    6d04:	e0822003 	add	r2, r2, r3
    6d08:	e5c52000 	strb	r2, [r5]
    6d0c:	ebfffa5d 	bl	5688 <uart1_transmit>
    6d10:	e5d43000 	ldrb	r3, [r4]
    6d14:	e0866003 	add	r6, r6, r3
    6d18:	e5c46000 	strb	r6, [r4]
    6d1c:	e14b84b8 	strh	r8, [fp, #-72]
    6d20:	e5d52000 	ldrb	r2, [r5]
    6d24:	e55b6048 	ldrb	r6, [fp, #-72]
    6d28:	e5d43000 	ldrb	r3, [r4]
    6d2c:	e1a00006 	mov	r0, r6
    6d30:	e0822003 	add	r2, r2, r3
    6d34:	e5c52000 	strb	r2, [r5]
    6d38:	ebfffa52 	bl	5688 <uart1_transmit>
    6d3c:	e5d43000 	ldrb	r3, [r4]
    6d40:	e0866003 	add	r6, r6, r3
    6d44:	e5c46000 	strb	r6, [r4]
    6d48:	e5d52000 	ldrb	r2, [r5]
    6d4c:	e55b6047 	ldrb	r6, [fp, #-71]
    6d50:	e5d43000 	ldrb	r3, [r4]
    6d54:	e1a00006 	mov	r0, r6
    6d58:	e0822003 	add	r2, r2, r3
    6d5c:	e5c52000 	strb	r2, [r5]
    6d60:	ebfffa48 	bl	5688 <uart1_transmit>
    6d64:	e5d43000 	ldrb	r3, [r4]
    6d68:	e0866003 	add	r6, r6, r3
    6d6c:	e3a03064 	mov	r3, #100	; 0x64
    6d70:	e5c46000 	strb	r6, [r4]
    6d74:	e14b34ba 	strh	r3, [fp, #-74]
    6d78:	e5d52000 	ldrb	r2, [r5]
    6d7c:	e55b604a 	ldrb	r6, [fp, #-74]
    6d80:	e5d43000 	ldrb	r3, [r4]
    6d84:	e1a00006 	mov	r0, r6
    6d88:	e0822003 	add	r2, r2, r3
    6d8c:	e5c52000 	strb	r2, [r5]
    6d90:	ebfffa3c 	bl	5688 <uart1_transmit>
    6d94:	e5d43000 	ldrb	r3, [r4]
    6d98:	e0866003 	add	r6, r6, r3
    6d9c:	e5c46000 	strb	r6, [r4]
    6da0:	e5d52000 	ldrb	r2, [r5]
    6da4:	e55b6049 	ldrb	r6, [fp, #-73]
    6da8:	e5d43000 	ldrb	r3, [r4]
    6dac:	e1a00006 	mov	r0, r6
    6db0:	e0822003 	add	r2, r2, r3
    6db4:	e5c52000 	strb	r2, [r5]
    6db8:	ebfffa32 	bl	5688 <uart1_transmit>
    6dbc:	e5d43000 	ldrb	r3, [r4]
    6dc0:	e0866003 	add	r6, r6, r3
    6dc4:	e3a03f4b 	mov	r3, #300	; 0x12c
    6dc8:	e5c46000 	strb	r6, [r4]
    6dcc:	e14b34bc 	strh	r3, [fp, #-76]
    6dd0:	e5d52000 	ldrb	r2, [r5]
    6dd4:	e55b604c 	ldrb	r6, [fp, #-76]
    6dd8:	e5d43000 	ldrb	r3, [r4]
    6ddc:	e1a00006 	mov	r0, r6
    6de0:	e0822003 	add	r2, r2, r3
    6de4:	e5c52000 	strb	r2, [r5]
    6de8:	ebfffa26 	bl	5688 <uart1_transmit>
    6dec:	e5d43000 	ldrb	r3, [r4]
    6df0:	e0866003 	add	r6, r6, r3
    6df4:	e5c46000 	strb	r6, [r4]
    6df8:	e5d52000 	ldrb	r2, [r5]
    6dfc:	e55b604b 	ldrb	r6, [fp, #-75]
    6e00:	e5d43000 	ldrb	r3, [r4]
    6e04:	e1a00006 	mov	r0, r6
    6e08:	e0822003 	add	r2, r2, r3
    6e0c:	e5c52000 	strb	r2, [r5]
    6e10:	ebfffa1c 	bl	5688 <uart1_transmit>
    6e14:	e5d43000 	ldrb	r3, [r4]
    6e18:	e0866003 	add	r6, r6, r3
    6e1c:	e3a0300f 	mov	r3, #15	; 0xf
    6e20:	e5c46000 	strb	r6, [r4]
    6e24:	e14b34be 	strh	r3, [fp, #-78]
    6e28:	e5d52000 	ldrb	r2, [r5]
    6e2c:	e55b604e 	ldrb	r6, [fp, #-78]
    6e30:	e5d43000 	ldrb	r3, [r4]
    6e34:	e1a00006 	mov	r0, r6
    6e38:	e0822003 	add	r2, r2, r3
    6e3c:	e5c52000 	strb	r2, [r5]
    6e40:	ebfffa10 	bl	5688 <uart1_transmit>
    6e44:	e5d43000 	ldrb	r3, [r4]
    6e48:	e0866003 	add	r6, r6, r3
    6e4c:	e5c46000 	strb	r6, [r4]
    6e50:	e5d52000 	ldrb	r2, [r5]
    6e54:	e55b604d 	ldrb	r6, [fp, #-77]
    6e58:	e5d43000 	ldrb	r3, [r4]
    6e5c:	e1a00006 	mov	r0, r6
    6e60:	e0822003 	add	r2, r2, r3
    6e64:	e5c52000 	strb	r2, [r5]
    6e68:	ebfffa06 	bl	5688 <uart1_transmit>
    6e6c:	e5d43000 	ldrb	r3, [r4]
    6e70:	e0866003 	add	r6, r6, r3
    6e74:	e5c46000 	strb	r6, [r4]
    6e78:	e5d53000 	ldrb	r3, [r5]
    6e7c:	e5d42000 	ldrb	r2, [r4]
    6e80:	e1a00007 	mov	r0, r7
    6e84:	e0833002 	add	r3, r3, r2
    6e88:	e5c53000 	strb	r3, [r5]
    6e8c:	e54b704f 	strb	r7, [fp, #-79]
    6e90:	ebfff9fc 	bl	5688 <uart1_transmit>
    6e94:	e5d42000 	ldrb	r2, [r4]
    6e98:	e5d53000 	ldrb	r3, [r5]
    6e9c:	e1a00007 	mov	r0, r7
    6ea0:	e0833002 	add	r3, r3, r2
    6ea4:	e5c53000 	strb	r3, [r5]
    6ea8:	e54b7050 	strb	r7, [fp, #-80]
    6eac:	ebfff9f5 	bl	5688 <uart1_transmit>
    6eb0:	e5d53000 	ldrb	r3, [r5]
    6eb4:	e5d40000 	ldrb	r0, [r4]
    6eb8:	e0833000 	add	r3, r3, r0
    6ebc:	e5c53000 	strb	r3, [r5]
    6ec0:	ebfff9f0 	bl	5688 <uart1_transmit>
    6ec4:	e5d50000 	ldrb	r0, [r5]
    6ec8:	ebfff9ee 	bl	5688 <uart1_transmit>
    6ecc:	e3a000b5 	mov	r0, #181	; 0xb5
    6ed0:	ebfff9ec 	bl	5688 <uart1_transmit>
    6ed4:	e3a00062 	mov	r0, #98	; 0x62
    6ed8:	ebfff9ea 	bl	5688 <uart1_transmit>
    6edc:	e1a00009 	mov	r0, r9
    6ee0:	e5c57000 	strb	r7, [r5]
    6ee4:	e5c47000 	strb	r7, [r4]
    6ee8:	ebfff9e6 	bl	5688 <uart1_transmit>
    6eec:	e5d43000 	ldrb	r3, [r4]
    6ef0:	e0833009 	add	r3, r3, r9
    6ef4:	e5c43000 	strb	r3, [r4]
    6ef8:	e5d53000 	ldrb	r3, [r5]
    6efc:	e5d42000 	ldrb	r2, [r4]
    6f00:	e1a0000a 	mov	r0, sl
    6f04:	e0833002 	add	r3, r3, r2
    6f08:	e5c53000 	strb	r3, [r5]
    6f0c:	ebfff9dd 	bl	5688 <uart1_transmit>
    6f10:	e5d43000 	ldrb	r3, [r4]
    6f14:	e083300a 	add	r3, r3, sl
    6f18:	e5c43000 	strb	r3, [r4]
    6f1c:	e5d53000 	ldrb	r3, [r5]
    6f20:	e5d42000 	ldrb	r2, [r4]
    6f24:	e1a00009 	mov	r0, r9
    6f28:	e0833002 	add	r3, r3, r2
    6f2c:	e5c53000 	strb	r3, [r5]
    6f30:	ebfff9d4 	bl	5688 <uart1_transmit>
    6f34:	e5d43000 	ldrb	r3, [r4]
    6f38:	e0833009 	add	r3, r3, r9
    6f3c:	e5c43000 	strb	r3, [r4]
    6f40:	e5d53000 	ldrb	r3, [r5]
    6f44:	e5d42000 	ldrb	r2, [r4]
    6f48:	e1a00007 	mov	r0, r7
    6f4c:	e0833002 	add	r3, r3, r2
    6f50:	e5c53000 	strb	r3, [r5]
    6f54:	ebfff9cb 	bl	5688 <uart1_transmit>
    6f58:	e5d53000 	ldrb	r3, [r5]
    6f5c:	e5d42000 	ldrb	r2, [r4]
    6f60:	e1a0000a 	mov	r0, sl
    6f64:	e0833002 	add	r3, r3, r2
    6f68:	e5c53000 	strb	r3, [r5]
    6f6c:	e54ba051 	strb	sl, [fp, #-81]
    6f70:	ebfff9c4 	bl	5688 <uart1_transmit>
    6f74:	e5d43000 	ldrb	r3, [r4]
    6f78:	e083300a 	add	r3, r3, sl
    6f7c:	e5c43000 	strb	r3, [r4]
    6f80:	e5d53000 	ldrb	r3, [r5]
    6f84:	e5d42000 	ldrb	r2, [r4]
    6f88:	e3a01008 	mov	r1, #8	; 0x8
    6f8c:	e1a00001 	mov	r0, r1
    6f90:	e0833002 	add	r3, r3, r2
    6f94:	e54b1052 	strb	r1, [fp, #-82]
    6f98:	e5c53000 	strb	r3, [r5]
    6f9c:	ebfff9b9 	bl	5688 <uart1_transmit>
    6fa0:	e5d43000 	ldrb	r3, [r4]
    6fa4:	e2833008 	add	r3, r3, #8	; 0x8
    6fa8:	e5c43000 	strb	r3, [r4]
    6fac:	e5d53000 	ldrb	r3, [r5]
    6fb0:	e5d42000 	ldrb	r2, [r4]
    6fb4:	e1a00007 	mov	r0, r7
    6fb8:	e0833002 	add	r3, r3, r2
    6fbc:	e5c53000 	strb	r3, [r5]
    6fc0:	e54b7053 	strb	r7, [fp, #-83]
    6fc4:	ebfff9af 	bl	5688 <uart1_transmit>
    6fc8:	e5d53000 	ldrb	r3, [r5]
    6fcc:	e5d42000 	ldrb	r2, [r4]
    6fd0:	e1a0000a 	mov	r0, sl
    6fd4:	e0833002 	add	r3, r3, r2
    6fd8:	e5c53000 	strb	r3, [r5]
    6fdc:	e54ba054 	strb	sl, [fp, #-84]
    6fe0:	ebfff9a8 	bl	5688 <uart1_transmit>
    6fe4:	e5d43000 	ldrb	r3, [r4]
    6fe8:	e083300a 	add	r3, r3, sl
    6fec:	e5c43000 	strb	r3, [r4]
    6ff0:	e5d53000 	ldrb	r3, [r5]
    6ff4:	e5d42000 	ldrb	r2, [r4]
    6ff8:	e1a00007 	mov	r0, r7
    6ffc:	e0833002 	add	r3, r3, r2
    7000:	e5c53000 	strb	r3, [r5]
    7004:	e54b7055 	strb	r7, [fp, #-85]
    7008:	ebfff99e 	bl	5688 <uart1_transmit>
    700c:	e5d42000 	ldrb	r2, [r4]
    7010:	e5d53000 	ldrb	r3, [r5]
    7014:	e1a00007 	mov	r0, r7
    7018:	e0833002 	add	r3, r3, r2
    701c:	e5c53000 	strb	r3, [r5]
    7020:	e54b7056 	strb	r7, [fp, #-86]
    7024:	ebfff997 	bl	5688 <uart1_transmit>
    7028:	e5d53000 	ldrb	r3, [r5]
    702c:	e5d40000 	ldrb	r0, [r4]
    7030:	e0833000 	add	r3, r3, r0
    7034:	e5c53000 	strb	r3, [r5]
    7038:	ebfff992 	bl	5688 <uart1_transmit>
    703c:	e5d50000 	ldrb	r0, [r5]
    7040:	ebfff990 	bl	5688 <uart1_transmit>
    7044:	e3a000b5 	mov	r0, #181	; 0xb5
    7048:	ebfff98e 	bl	5688 <uart1_transmit>
    704c:	e3a00062 	mov	r0, #98	; 0x62
    7050:	ebfff98c 	bl	5688 <uart1_transmit>
    7054:	e1a00009 	mov	r0, r9
    7058:	e5c57000 	strb	r7, [r5]
    705c:	e5c47000 	strb	r7, [r4]
    7060:	ebfff988 	bl	5688 <uart1_transmit>
    7064:	e5d43000 	ldrb	r3, [r4]
    7068:	e0833009 	add	r3, r3, r9
    706c:	e5c43000 	strb	r3, [r4]
    7070:	e5d53000 	ldrb	r3, [r5]
    7074:	e5d42000 	ldrb	r2, [r4]
    7078:	e1a0000a 	mov	r0, sl
    707c:	e0833002 	add	r3, r3, r2
    7080:	e5c53000 	strb	r3, [r5]
    7084:	ebfff97f 	bl	5688 <uart1_transmit>
    7088:	e5d43000 	ldrb	r3, [r4]
    708c:	e083300a 	add	r3, r3, sl
    7090:	e5c43000 	strb	r3, [r4]
    7094:	e5d53000 	ldrb	r3, [r5]
    7098:	e5d42000 	ldrb	r2, [r4]
    709c:	e1a00009 	mov	r0, r9
    70a0:	e0833002 	add	r3, r3, r2
    70a4:	e5c53000 	strb	r3, [r5]
    70a8:	ebfff976 	bl	5688 <uart1_transmit>
    70ac:	e5d43000 	ldrb	r3, [r4]
    70b0:	e0833009 	add	r3, r3, r9
    70b4:	e5c43000 	strb	r3, [r4]
    70b8:	e5d53000 	ldrb	r3, [r5]
    70bc:	e5d42000 	ldrb	r2, [r4]
    70c0:	e1a00007 	mov	r0, r7
    70c4:	e0833002 	add	r3, r3, r2
    70c8:	e5c53000 	strb	r3, [r5]
    70cc:	ebfff96d 	bl	5688 <uart1_transmit>
    70d0:	e5d53000 	ldrb	r3, [r5]
    70d4:	e5d42000 	ldrb	r2, [r4]
    70d8:	e1a0000a 	mov	r0, sl
    70dc:	e0833002 	add	r3, r3, r2
    70e0:	e5c53000 	strb	r3, [r5]
    70e4:	e54ba057 	strb	sl, [fp, #-87]
    70e8:	ebfff966 	bl	5688 <uart1_transmit>
    70ec:	e5d43000 	ldrb	r3, [r4]
    70f0:	e083300a 	add	r3, r3, sl
    70f4:	e5c43000 	strb	r3, [r4]
    70f8:	e5d53000 	ldrb	r3, [r5]
    70fc:	e5d42000 	ldrb	r2, [r4]
    7100:	e3a01012 	mov	r1, #18	; 0x12
    7104:	e1a00001 	mov	r0, r1
    7108:	e0833002 	add	r3, r3, r2
    710c:	e54b1058 	strb	r1, [fp, #-88]
    7110:	e5c53000 	strb	r3, [r5]
    7114:	ebfff95b 	bl	5688 <uart1_transmit>
    7118:	e5d43000 	ldrb	r3, [r4]
    711c:	e2833012 	add	r3, r3, #18	; 0x12
    7120:	e5c43000 	strb	r3, [r4]
    7124:	e5d53000 	ldrb	r3, [r5]
    7128:	e5d42000 	ldrb	r2, [r4]
    712c:	e1a00007 	mov	r0, r7
    7130:	e0833002 	add	r3, r3, r2
    7134:	e5c53000 	strb	r3, [r5]
    7138:	e54b7059 	strb	r7, [fp, #-89]
    713c:	ebfff951 	bl	5688 <uart1_transmit>
    7140:	e5d53000 	ldrb	r3, [r5]
    7144:	e5d42000 	ldrb	r2, [r4]
    7148:	e1a0000a 	mov	r0, sl
    714c:	e0833002 	add	r3, r3, r2
    7150:	e5c53000 	strb	r3, [r5]
    7154:	e54ba05a 	strb	sl, [fp, #-90]
    7158:	ebfff94a 	bl	5688 <uart1_transmit>
    715c:	e5d43000 	ldrb	r3, [r4]
    7160:	e083300a 	add	r3, r3, sl
    7164:	e5c43000 	strb	r3, [r4]
    7168:	e5d53000 	ldrb	r3, [r5]
    716c:	e5d42000 	ldrb	r2, [r4]
    7170:	e1a00007 	mov	r0, r7
    7174:	e0833002 	add	r3, r3, r2
    7178:	e5c53000 	strb	r3, [r5]
    717c:	e54b705b 	strb	r7, [fp, #-91]
    7180:	ebfff940 	bl	5688 <uart1_transmit>
    7184:	e5d42000 	ldrb	r2, [r4]
    7188:	e5d53000 	ldrb	r3, [r5]
    718c:	e1a00007 	mov	r0, r7
    7190:	e0833002 	add	r3, r3, r2
    7194:	e5c53000 	strb	r3, [r5]
    7198:	e54b705c 	strb	r7, [fp, #-92]
    719c:	ebfff939 	bl	5688 <uart1_transmit>
    71a0:	e5d53000 	ldrb	r3, [r5]
    71a4:	e5d40000 	ldrb	r0, [r4]
    71a8:	e0833000 	add	r3, r3, r0
    71ac:	e5c53000 	strb	r3, [r5]
    71b0:	ebfff934 	bl	5688 <uart1_transmit>
    71b4:	e5d50000 	ldrb	r0, [r5]
    71b8:	ebfff932 	bl	5688 <uart1_transmit>
    71bc:	e3a000b5 	mov	r0, #181	; 0xb5
    71c0:	ebfff930 	bl	5688 <uart1_transmit>
    71c4:	e3a00062 	mov	r0, #98	; 0x62
    71c8:	ebfff92e 	bl	5688 <uart1_transmit>
    71cc:	e1a00009 	mov	r0, r9
    71d0:	e5c57000 	strb	r7, [r5]
    71d4:	e5c47000 	strb	r7, [r4]
    71d8:	ebfff92a 	bl	5688 <uart1_transmit>
    71dc:	e5d43000 	ldrb	r3, [r4]
    71e0:	e0833009 	add	r3, r3, r9
    71e4:	e5c43000 	strb	r3, [r4]
    71e8:	e5d53000 	ldrb	r3, [r5]
    71ec:	e5d42000 	ldrb	r2, [r4]
    71f0:	e1a0000a 	mov	r0, sl
    71f4:	e0833002 	add	r3, r3, r2
    71f8:	e5c53000 	strb	r3, [r5]
    71fc:	ebfff921 	bl	5688 <uart1_transmit>
    7200:	e5d43000 	ldrb	r3, [r4]
    7204:	e083300a 	add	r3, r3, sl
    7208:	e5c43000 	strb	r3, [r4]
    720c:	e5d53000 	ldrb	r3, [r5]
    7210:	e5d42000 	ldrb	r2, [r4]
    7214:	e1a00009 	mov	r0, r9
    7218:	e0833002 	add	r3, r3, r2
    721c:	e5c53000 	strb	r3, [r5]
    7220:	ebfff918 	bl	5688 <uart1_transmit>
    7224:	e5d43000 	ldrb	r3, [r4]
    7228:	e0833009 	add	r3, r3, r9
    722c:	e5c43000 	strb	r3, [r4]
    7230:	e5d53000 	ldrb	r3, [r5]
    7234:	e5d42000 	ldrb	r2, [r4]
    7238:	e1a00007 	mov	r0, r7
    723c:	e0833002 	add	r3, r3, r2
    7240:	e5c53000 	strb	r3, [r5]
    7244:	ebfff90f 	bl	5688 <uart1_transmit>
    7248:	e5d53000 	ldrb	r3, [r5]
    724c:	e5d42000 	ldrb	r2, [r4]
    7250:	e1a0000a 	mov	r0, sl
    7254:	e0833002 	add	r3, r3, r2
    7258:	e5c53000 	strb	r3, [r5]
    725c:	e54ba05d 	strb	sl, [fp, #-93]
    7260:	ebfff908 	bl	5688 <uart1_transmit>
    7264:	e5d43000 	ldrb	r3, [r4]
    7268:	e083300a 	add	r3, r3, sl
    726c:	e5c43000 	strb	r3, [r4]
    7270:	e5d52000 	ldrb	r2, [r5]
    7274:	e5d43000 	ldrb	r3, [r4]
    7278:	e3a00003 	mov	r0, #3	; 0x3
    727c:	e0822003 	add	r2, r2, r3
    7280:	e3a03003 	mov	r3, #3	; 0x3
    7284:	e5c52000 	strb	r2, [r5]
    7288:	e54b305e 	strb	r3, [fp, #-94]
    728c:	ebfff8fd 	bl	5688 <uart1_transmit>
    7290:	e5d43000 	ldrb	r3, [r4]
    7294:	e2833003 	add	r3, r3, #3	; 0x3
    7298:	e5c43000 	strb	r3, [r4]
    729c:	e5d53000 	ldrb	r3, [r5]
    72a0:	e5d42000 	ldrb	r2, [r4]
    72a4:	e1a00007 	mov	r0, r7
    72a8:	e0833002 	add	r3, r3, r2
    72ac:	e5c53000 	strb	r3, [r5]
    72b0:	e54b705f 	strb	r7, [fp, #-95]
    72b4:	ebfff8f3 	bl	5688 <uart1_transmit>
    72b8:	e5d53000 	ldrb	r3, [r5]
    72bc:	e5d42000 	ldrb	r2, [r4]
    72c0:	e1a0000a 	mov	r0, sl
    72c4:	e0833002 	add	r3, r3, r2
    72c8:	e5c53000 	strb	r3, [r5]
    72cc:	e54ba060 	strb	sl, [fp, #-96]
    72d0:	ebfff8ec 	bl	5688 <uart1_transmit>
    72d4:	e5d43000 	ldrb	r3, [r4]
    72d8:	e083300a 	add	r3, r3, sl
    72dc:	e5c43000 	strb	r3, [r4]
    72e0:	e5d53000 	ldrb	r3, [r5]
    72e4:	e5d42000 	ldrb	r2, [r4]
    72e8:	e1a00007 	mov	r0, r7
    72ec:	e0833002 	add	r3, r3, r2
    72f0:	e5c53000 	strb	r3, [r5]
    72f4:	e54b7061 	strb	r7, [fp, #-97]
    72f8:	ebfff8e2 	bl	5688 <uart1_transmit>
    72fc:	e5d42000 	ldrb	r2, [r4]
    7300:	e5d53000 	ldrb	r3, [r5]
    7304:	e1a00007 	mov	r0, r7
    7308:	e0833002 	add	r3, r3, r2
    730c:	e5c53000 	strb	r3, [r5]
    7310:	e54b7062 	strb	r7, [fp, #-98]
    7314:	ebfff8db 	bl	5688 <uart1_transmit>
    7318:	e5d53000 	ldrb	r3, [r5]
    731c:	e5d40000 	ldrb	r0, [r4]
    7320:	e0833000 	add	r3, r3, r0
    7324:	e5c53000 	strb	r3, [r5]
    7328:	ebfff8d6 	bl	5688 <uart1_transmit>
    732c:	e5d50000 	ldrb	r0, [r5]
    7330:	ebfff8d4 	bl	5688 <uart1_transmit>
    7334:	e3a000b5 	mov	r0, #181	; 0xb5
    7338:	ebfff8d2 	bl	5688 <uart1_transmit>
    733c:	e3a00062 	mov	r0, #98	; 0x62
    7340:	ebfff8d0 	bl	5688 <uart1_transmit>
    7344:	e1a00009 	mov	r0, r9
    7348:	e5c57000 	strb	r7, [r5]
    734c:	e5c47000 	strb	r7, [r4]
    7350:	ebfff8cc 	bl	5688 <uart1_transmit>
    7354:	e5d43000 	ldrb	r3, [r4]
    7358:	e0833009 	add	r3, r3, r9
    735c:	e5c43000 	strb	r3, [r4]
    7360:	e5d53000 	ldrb	r3, [r5]
    7364:	e5d42000 	ldrb	r2, [r4]
    7368:	e1a0000a 	mov	r0, sl
    736c:	e0833002 	add	r3, r3, r2
    7370:	e5c53000 	strb	r3, [r5]
    7374:	ebfff8c3 	bl	5688 <uart1_transmit>
    7378:	e5d43000 	ldrb	r3, [r4]
    737c:	e083300a 	add	r3, r3, sl
    7380:	e5c43000 	strb	r3, [r4]
    7384:	e5d53000 	ldrb	r3, [r5]
    7388:	e5d42000 	ldrb	r2, [r4]
    738c:	e1a00009 	mov	r0, r9
    7390:	e0833002 	add	r3, r3, r2
    7394:	e5c53000 	strb	r3, [r5]
    7398:	ebfff8ba 	bl	5688 <uart1_transmit>
    739c:	e5d43000 	ldrb	r3, [r4]
    73a0:	e0833009 	add	r3, r3, r9
    73a4:	e5c43000 	strb	r3, [r4]
    73a8:	e5d53000 	ldrb	r3, [r5]
    73ac:	e5d42000 	ldrb	r2, [r4]
    73b0:	e1a00007 	mov	r0, r7
    73b4:	e0833002 	add	r3, r3, r2
    73b8:	e5c53000 	strb	r3, [r5]
    73bc:	ebfff8b1 	bl	5688 <uart1_transmit>
    73c0:	e5d53000 	ldrb	r3, [r5]
    73c4:	e5d42000 	ldrb	r2, [r4]
    73c8:	e1a0000a 	mov	r0, sl
    73cc:	e0833002 	add	r3, r3, r2
    73d0:	e5c53000 	strb	r3, [r5]
    73d4:	e54ba063 	strb	sl, [fp, #-99]
    73d8:	ebfff8aa 	bl	5688 <uart1_transmit>
    73dc:	e5d43000 	ldrb	r3, [r4]
    73e0:	e083300a 	add	r3, r3, sl
    73e4:	e5c43000 	strb	r3, [r4]
    73e8:	e5d53000 	ldrb	r3, [r5]
    73ec:	e5d42000 	ldrb	r2, [r4]
    73f0:	e3a01030 	mov	r1, #48	; 0x30
    73f4:	e0833002 	add	r3, r3, r2
    73f8:	e1a00001 	mov	r0, r1
    73fc:	e54b1064 	strb	r1, [fp, #-100]
    7400:	e5c53000 	strb	r3, [r5]
    7404:	ebfff89f 	bl	5688 <uart1_transmit>
    7408:	e5d43000 	ldrb	r3, [r4]
    740c:	e2833030 	add	r3, r3, #48	; 0x30
    7410:	e5c43000 	strb	r3, [r4]
    7414:	e5d53000 	ldrb	r3, [r5]
    7418:	e5d42000 	ldrb	r2, [r4]
    741c:	e1a00007 	mov	r0, r7
    7420:	e0833002 	add	r3, r3, r2
    7424:	e5c53000 	strb	r3, [r5]
    7428:	e54b7065 	strb	r7, [fp, #-101]
    742c:	ebfff895 	bl	5688 <uart1_transmit>
    7430:	e5d53000 	ldrb	r3, [r5]
    7434:	e5d42000 	ldrb	r2, [r4]
    7438:	e3a01004 	mov	r1, #4	; 0x4
    743c:	e1a00001 	mov	r0, r1
    7440:	e0833002 	add	r3, r3, r2
    7444:	e54b1066 	strb	r1, [fp, #-102]
    7448:	e5c53000 	strb	r3, [r5]
    744c:	ebfff88d 	bl	5688 <uart1_transmit>
    7450:	e5d43000 	ldrb	r3, [r4]
    7454:	e2833004 	add	r3, r3, #4	; 0x4
    7458:	e5c43000 	strb	r3, [r4]
    745c:	e5d53000 	ldrb	r3, [r5]
    7460:	e5d42000 	ldrb	r2, [r4]
    7464:	e1a00007 	mov	r0, r7
    7468:	e0833002 	add	r3, r3, r2
    746c:	e5c53000 	strb	r3, [r5]
    7470:	e54b7067 	strb	r7, [fp, #-103]
    7474:	ebfff883 	bl	5688 <uart1_transmit>
    7478:	e5d42000 	ldrb	r2, [r4]
    747c:	e5d53000 	ldrb	r3, [r5]
    7480:	e1a00007 	mov	r0, r7
    7484:	e0833002 	add	r3, r3, r2
    7488:	e5c53000 	strb	r3, [r5]
    748c:	e54b7068 	strb	r7, [fp, #-104]
    7490:	ebfff87c 	bl	5688 <uart1_transmit>
    7494:	e5d53000 	ldrb	r3, [r5]
    7498:	e5d40000 	ldrb	r0, [r4]
    749c:	e0833000 	add	r3, r3, r0
    74a0:	e5c53000 	strb	r3, [r5]
    74a4:	ebfff877 	bl	5688 <uart1_transmit>
    74a8:	e5d50000 	ldrb	r0, [r5]
    74ac:	ebfff875 	bl	5688 <uart1_transmit>
    74b0:	e3a000b5 	mov	r0, #181	; 0xb5
    74b4:	ebfff873 	bl	5688 <uart1_transmit>
    74b8:	e3a00062 	mov	r0, #98	; 0x62
    74bc:	ebfff871 	bl	5688 <uart1_transmit>
    74c0:	e1a00009 	mov	r0, r9
    74c4:	e5c57000 	strb	r7, [r5]
    74c8:	e5c47000 	strb	r7, [r4]
    74cc:	ebfff86d 	bl	5688 <uart1_transmit>
    74d0:	e5d43000 	ldrb	r3, [r4]
    74d4:	e0833009 	add	r3, r3, r9
    74d8:	e5c43000 	strb	r3, [r4]
    74dc:	e5d53000 	ldrb	r3, [r5]
    74e0:	e5d42000 	ldrb	r2, [r4]
    74e4:	e3a00016 	mov	r0, #22	; 0x16
    74e8:	e0833002 	add	r3, r3, r2
    74ec:	e5c53000 	strb	r3, [r5]
    74f0:	ebfff864 	bl	5688 <uart1_transmit>
    74f4:	e5d43000 	ldrb	r3, [r4]
    74f8:	e2833016 	add	r3, r3, #22	; 0x16
    74fc:	e5c43000 	strb	r3, [r4]
    7500:	e5d53000 	ldrb	r3, [r5]
    7504:	e5d42000 	ldrb	r2, [r4]
    7508:	e24880f2 	sub	r8, r8, #242	; 0xf2
    750c:	e0833002 	add	r3, r3, r2
    7510:	e1a00008 	mov	r0, r8
    7514:	e5c53000 	strb	r3, [r5]
    7518:	ebfff85a 	bl	5688 <uart1_transmit>
    751c:	e5d43000 	ldrb	r3, [r4]
    7520:	e0833008 	add	r3, r3, r8
    7524:	e5c43000 	strb	r3, [r4]
    7528:	e5d53000 	ldrb	r3, [r5]
    752c:	e5d42000 	ldrb	r2, [r4]
    7530:	e1a00007 	mov	r0, r7
    7534:	e0833002 	add	r3, r3, r2
    7538:	e5c53000 	strb	r3, [r5]
    753c:	ebfff851 	bl	5688 <uart1_transmit>
    7540:	e5d53000 	ldrb	r3, [r5]
    7544:	e5d42000 	ldrb	r2, [r4]
    7548:	e1a00007 	mov	r0, r7
    754c:	e0833002 	add	r3, r3, r2
    7550:	e5c53000 	strb	r3, [r5]
    7554:	e54b7069 	strb	r7, [fp, #-105]
    7558:	ebfff84a 	bl	5688 <uart1_transmit>
    755c:	e5d53000 	ldrb	r3, [r5]
    7560:	e5d42000 	ldrb	r2, [r4]
    7564:	e1a00007 	mov	r0, r7
    7568:	e0833002 	add	r3, r3, r2
    756c:	e5c53000 	strb	r3, [r5]
    7570:	e54b706a 	strb	r7, [fp, #-106]
    7574:	ebfff843 	bl	5688 <uart1_transmit>
    7578:	e5d53000 	ldrb	r3, [r5]
    757c:	e5d42000 	ldrb	r2, [r4]
    7580:	e1a00007 	mov	r0, r7
    7584:	e0833002 	add	r3, r3, r2
    7588:	e5c53000 	strb	r3, [r5]
    758c:	e54b706b 	strb	r7, [fp, #-107]
    7590:	ebfff83c 	bl	5688 <uart1_transmit>
    7594:	e5d53000 	ldrb	r3, [r5]
    7598:	e5d42000 	ldrb	r2, [r4]
    759c:	e1a00007 	mov	r0, r7
    75a0:	e0833002 	add	r3, r3, r2
    75a4:	e5c53000 	strb	r3, [r5]
    75a8:	e54b706c 	strb	r7, [fp, #-108]
    75ac:	ebfff835 	bl	5688 <uart1_transmit>
    75b0:	e50b7080 	str	r7, [fp, #-128]
    75b4:	e5d52000 	ldrb	r2, [r5]
    75b8:	e55b6080 	ldrb	r6, [fp, #-128]
    75bc:	e5d43000 	ldrb	r3, [r4]
    75c0:	ea000002 	b	75d0 <.text+0x75d0>
    75c4:	40000f48 	andmi	r0, r0, r8, asr #30
    75c8:	40000f44 	andmi	r0, r0, r4, asr #30
    75cc:	000080c0 	andeq	r8, r0, r0, asr #1
    75d0:	e1a00006 	mov	r0, r6
    75d4:	e0822003 	add	r2, r2, r3
    75d8:	e5c52000 	strb	r2, [r5]
    75dc:	ebfff829 	bl	5688 <uart1_transmit>
    75e0:	e5d43000 	ldrb	r3, [r4]
    75e4:	e0866003 	add	r6, r6, r3
    75e8:	e5c46000 	strb	r6, [r4]
    75ec:	e5d52000 	ldrb	r2, [r5]
    75f0:	e55b607f 	ldrb	r6, [fp, #-127]
    75f4:	e5d43000 	ldrb	r3, [r4]
    75f8:	e1a00006 	mov	r0, r6
    75fc:	e0822003 	add	r2, r2, r3
    7600:	e5c52000 	strb	r2, [r5]
    7604:	ebfff81f 	bl	5688 <uart1_transmit>
    7608:	e5d43000 	ldrb	r3, [r4]
    760c:	e0866003 	add	r6, r6, r3
    7610:	e5c46000 	strb	r6, [r4]
    7614:	e5d52000 	ldrb	r2, [r5]
    7618:	e55b607e 	ldrb	r6, [fp, #-126]
    761c:	e5d43000 	ldrb	r3, [r4]
    7620:	e1a00006 	mov	r0, r6
    7624:	e0822003 	add	r2, r2, r3
    7628:	e5c52000 	strb	r2, [r5]
    762c:	ebfff815 	bl	5688 <uart1_transmit>
    7630:	e5d43000 	ldrb	r3, [r4]
    7634:	e0866003 	add	r6, r6, r3
    7638:	e5c46000 	strb	r6, [r4]
    763c:	e5d52000 	ldrb	r2, [r5]
    7640:	e55b607d 	ldrb	r6, [fp, #-125]
    7644:	e5d43000 	ldrb	r3, [r4]
    7648:	e1a00006 	mov	r0, r6
    764c:	e0822003 	add	r2, r2, r3
    7650:	e5c52000 	strb	r2, [r5]
    7654:	ebfff80b 	bl	5688 <uart1_transmit>
    7658:	e5d43000 	ldrb	r3, [r4]
    765c:	e0866003 	add	r6, r6, r3
    7660:	e5c46000 	strb	r6, [r4]
    7664:	e5d53000 	ldrb	r3, [r5]
    7668:	e5d40000 	ldrb	r0, [r4]
    766c:	e0833000 	add	r3, r3, r0
    7670:	e5c53000 	strb	r3, [r5]
    7674:	ebfff803 	bl	5688 <uart1_transmit>
    7678:	e5d50000 	ldrb	r0, [r5]
    767c:	ebfff801 	bl	5688 <uart1_transmit>
    7680:	e3a000b5 	mov	r0, #181	; 0xb5
    7684:	ebfff7ff 	bl	5688 <uart1_transmit>
    7688:	e3a00062 	mov	r0, #98	; 0x62
    768c:	ebfff7fd 	bl	5688 <uart1_transmit>
    7690:	e1a00009 	mov	r0, r9
    7694:	e5c57000 	strb	r7, [r5]
    7698:	e5c47000 	strb	r7, [r4]
    769c:	ebfff7f9 	bl	5688 <uart1_transmit>
    76a0:	e5d43000 	ldrb	r3, [r4]
    76a4:	e0833009 	add	r3, r3, r9
    76a8:	e5c43000 	strb	r3, [r4]
    76ac:	e5d53000 	ldrb	r3, [r5]
    76b0:	e5d42000 	ldrb	r2, [r4]
    76b4:	e1a00008 	mov	r0, r8
    76b8:	e0833002 	add	r3, r3, r2
    76bc:	e5c53000 	strb	r3, [r5]
    76c0:	ebfff7f0 	bl	5688 <uart1_transmit>
    76c4:	e5d43000 	ldrb	r3, [r4]
    76c8:	e0833008 	add	r3, r3, r8
    76cc:	e5c43000 	strb	r3, [r4]
    76d0:	e5d53000 	ldrb	r3, [r5]
    76d4:	e5d42000 	ldrb	r2, [r4]
    76d8:	e1a00009 	mov	r0, r9
    76dc:	e0833002 	add	r3, r3, r2
    76e0:	e5c53000 	strb	r3, [r5]
    76e4:	ebfff7e7 	bl	5688 <uart1_transmit>
    76e8:	e5d43000 	ldrb	r3, [r4]
    76ec:	e0833009 	add	r3, r3, r9
    76f0:	e5c43000 	strb	r3, [r4]
    76f4:	e5d53000 	ldrb	r3, [r5]
    76f8:	e5d42000 	ldrb	r2, [r4]
    76fc:	e1a00007 	mov	r0, r7
    7700:	e0833002 	add	r3, r3, r2
    7704:	e5c53000 	strb	r3, [r5]
    7708:	ebfff7de 	bl	5688 <uart1_transmit>
    770c:	e3a030fa 	mov	r3, #250	; 0xfa
    7710:	e14b36be 	strh	r3, [fp, #-110]
    7714:	e5d52000 	ldrb	r2, [r5]
    7718:	e55b606e 	ldrb	r6, [fp, #-110]
    771c:	e5d43000 	ldrb	r3, [r4]
    7720:	e1a00006 	mov	r0, r6
    7724:	e0822003 	add	r2, r2, r3
    7728:	e5c52000 	strb	r2, [r5]
    772c:	ebfff7d5 	bl	5688 <uart1_transmit>
    7730:	e5d43000 	ldrb	r3, [r4]
    7734:	e0866003 	add	r6, r6, r3
    7738:	e5c46000 	strb	r6, [r4]
    773c:	e5d52000 	ldrb	r2, [r5]
    7740:	e55b606d 	ldrb	r6, [fp, #-109]
    7744:	e5d43000 	ldrb	r3, [r4]
    7748:	e1a00006 	mov	r0, r6
    774c:	e0822003 	add	r2, r2, r3
    7750:	e5c52000 	strb	r2, [r5]
    7754:	ebfff7cb 	bl	5688 <uart1_transmit>
    7758:	e5d43000 	ldrb	r3, [r4]
    775c:	e0866003 	add	r6, r6, r3
    7760:	e5c46000 	strb	r6, [r4]
    7764:	e14ba7b0 	strh	sl, [fp, #-112]
    7768:	e5d52000 	ldrb	r2, [r5]
    776c:	e55b6070 	ldrb	r6, [fp, #-112]
    7770:	e5d43000 	ldrb	r3, [r4]
    7774:	e1a00006 	mov	r0, r6
    7778:	e0822003 	add	r2, r2, r3
    777c:	e5c52000 	strb	r2, [r5]
    7780:	ebfff7c0 	bl	5688 <uart1_transmit>
    7784:	e5d43000 	ldrb	r3, [r4]
    7788:	e0866003 	add	r6, r6, r3
    778c:	e5c46000 	strb	r6, [r4]
    7790:	e5d52000 	ldrb	r2, [r5]
    7794:	e55b606f 	ldrb	r6, [fp, #-111]
    7798:	e5d43000 	ldrb	r3, [r4]
    779c:	e1a00006 	mov	r0, r6
    77a0:	e0822003 	add	r2, r2, r3
    77a4:	e5c52000 	strb	r2, [r5]
    77a8:	ebfff7b6 	bl	5688 <uart1_transmit>
    77ac:	e5d43000 	ldrb	r3, [r4]
    77b0:	e0866003 	add	r6, r6, r3
    77b4:	e5c46000 	strb	r6, [r4]
    77b8:	e14b77b2 	strh	r7, [fp, #-114]
    77bc:	e5d52000 	ldrb	r2, [r5]
    77c0:	e55b6072 	ldrb	r6, [fp, #-114]
    77c4:	e5d43000 	ldrb	r3, [r4]
    77c8:	e1a00006 	mov	r0, r6
    77cc:	e0822003 	add	r2, r2, r3
    77d0:	e5c52000 	strb	r2, [r5]
    77d4:	ebfff7ab 	bl	5688 <uart1_transmit>
    77d8:	e5d43000 	ldrb	r3, [r4]
    77dc:	e0866003 	add	r6, r6, r3
    77e0:	e5c46000 	strb	r6, [r4]
    77e4:	e5d52000 	ldrb	r2, [r5]
    77e8:	e55b6071 	ldrb	r6, [fp, #-113]
    77ec:	e5d43000 	ldrb	r3, [r4]
    77f0:	e1a00006 	mov	r0, r6
    77f4:	e0822003 	add	r2, r2, r3
    77f8:	e5c52000 	strb	r2, [r5]
    77fc:	ebfff7a1 	bl	5688 <uart1_transmit>
    7800:	e5d43000 	ldrb	r3, [r4]
    7804:	e0866003 	add	r6, r6, r3
    7808:	e5c46000 	strb	r6, [r4]
    780c:	e5d53000 	ldrb	r3, [r5]
    7810:	e5d42000 	ldrb	r2, [r4]
    7814:	e1a00002 	mov	r0, r2
    7818:	e0833002 	add	r3, r3, r2
    781c:	e5c53000 	strb	r3, [r5]
    7820:	ebfff798 	bl	5688 <uart1_transmit>
    7824:	e5d50000 	ldrb	r0, [r5]
    7828:	ebfff796 	bl	5688 <uart1_transmit>
    782c:	e24bd028 	sub	sp, fp, #40	; 0x28
    7830:	e89d6ff0 	ldmia	sp, {r4, r5, r6, r7, r8, r9, sl, fp, sp, lr}
    7834:	e12fff1e 	bx	lr

00007838 <parse_gps_msg>:
    7838:	e1a0c00d 	mov	ip, sp
    783c:	e92ddff0 	stmdb	sp!, {r4, r5, r6, r7, r8, r9, sl, fp, ip, lr, pc}
    7840:	e59f3170 	ldr	r3, [pc, #368]	; 79b8 <.text+0x79b8>
    7844:	e5d35000 	ldrb	r5, [r3]
    7848:	e3550001 	cmp	r5, #1	; 0x1
    784c:	e24cb004 	sub	fp, ip, #4	; 0x4
    7850:	1a000056 	bne	79b0 <parse_gps_msg+0x178>
    7854:	e59f3160 	ldr	r3, [pc, #352]	; 79bc <.text+0x79bc>
    7858:	e5d33000 	ldrb	r3, [r3]
    785c:	e3530008 	cmp	r3, #8	; 0x8
    7860:	1a00000d 	bne	789c <parse_gps_msg+0x64>
    7864:	e59f3154 	ldr	r3, [pc, #340]	; 79c0 <.text+0x79c0>
    7868:	e5932000 	ldr	r2, [r3]
    786c:	e5d3c00c 	ldrb	ip, [r3, #12]
    7870:	e5931004 	ldr	r1, [r3, #4]
    7874:	e5930008 	ldr	r0, [r3, #8]
    7878:	e59f3144 	ldr	r3, [pc, #324]	; 79c4 <.text+0x79c4>
    787c:	e5832000 	str	r2, [r3]
    7880:	e59f3140 	ldr	r3, [pc, #320]	; 79c8 <.text+0x79c8>
    7884:	e5831000 	str	r1, [r3]
    7888:	e59f313c 	ldr	r3, [pc, #316]	; 79cc <.text+0x79cc>
    788c:	e5830000 	str	r0, [r3]
    7890:	e59f3138 	ldr	r3, [pc, #312]	; 79d0 <.text+0x79d0>
    7894:	e5c3c000 	strb	ip, [r3]
    7898:	ea000044 	b	79b0 <parse_gps_msg+0x178>
    789c:	e3530003 	cmp	r3, #3	; 0x3
    78a0:	059f3118 	ldreq	r3, [pc, #280]	; 79c0 <.text+0x79c0>
    78a4:	05d32000 	ldreqb	r2, [r3]
    78a8:	059f3124 	ldreq	r3, [pc, #292]	; 79d4 <.text+0x79d4>
    78ac:	05c32000 	streqb	r2, [r3]
    78b0:	0a00003e 	beq	79b0 <parse_gps_msg+0x178>
    78b4:	e3530012 	cmp	r3, #18	; 0x12
    78b8:	1a000012 	bne	7908 <parse_gps_msg+0xd0>
    78bc:	e59f4114 	ldr	r4, [pc, #276]	; 79d8 <.text+0x79d8>
    78c0:	e5142008 	ldr	r2, [r4, #-8]
    78c4:	e59f3110 	ldr	r3, [pc, #272]	; 79dc <.text+0x79dc>
    78c8:	e2622000 	rsb	r2, r2, #0	; 0x0
    78cc:	e1c320b0 	strh	r2, [r3]
    78d0:	e1d420b0 	ldrh	r2, [r4]
    78d4:	e59f3104 	ldr	r3, [pc, #260]	; 79e0 <.text+0x79e0>
    78d8:	e5940004 	ldr	r0, [r4, #4]
    78dc:	e1c320b0 	strh	r2, [r3]
    78e0:	e59f10fc 	ldr	r1, [pc, #252]	; 79e4 <.text+0x79e4>
    78e4:	eb001fe3 	bl	f878 <____divsi3_from_arm>
    78e8:	e59f30f8 	ldr	r3, [pc, #248]	; 79e8 <.text+0x79e8>
    78ec:	e5142014 	ldr	r2, [r4, #-20]
    78f0:	e1c300b0 	strh	r0, [r3]
    78f4:	e59f30f0 	ldr	r3, [pc, #240]	; 79ec <.text+0x79ec>
    78f8:	e5832000 	str	r2, [r3]
    78fc:	e59f30ec 	ldr	r3, [pc, #236]	; 79f0 <.text+0x79f0>
    7900:	e5c35000 	strb	r5, [r3]
    7904:	ea000029 	b	79b0 <parse_gps_msg+0x178>
    7908:	e3530030 	cmp	r3, #48	; 0x30
    790c:	1a000027 	bne	79b0 <parse_gps_msg+0x178>
    7910:	e59f30a8 	ldr	r3, [pc, #168]	; 79c0 <.text+0x79c0>
    7914:	e59fc0d8 	ldr	ip, [pc, #216]	; 79f4 <.text+0x79f4>
    7918:	e5d33000 	ldrb	r3, [r3]
    791c:	e3a04000 	mov	r4, #0	; 0x0
    7920:	e5cc3000 	strb	r3, [ip]
    7924:	ea00000d 	b	7960 <parse_gps_msg+0x128>
    7928:	e7d2c100 	ldrb	ip, [r2, r0, lsl #2]
    792c:	e7da2100 	ldrb	r2, [sl, r0, lsl #2]
    7930:	e7d13100 	ldrb	r3, [r1, r0, lsl #2]
    7934:	e19660b8 	ldrh	r6, [r6, r8]
    7938:	e7d91100 	ldrb	r1, [r9, r0, lsl #2]
    793c:	e7d50100 	ldrb	r0, [r5, r0, lsl #2]
    7940:	e5ce2002 	strb	r2, [lr, #2]
    7944:	e59f20ac 	ldr	r2, [pc, #172]	; 79f8 <.text+0x79f8>
    7948:	e1ce60b6 	strh	r6, [lr, #6]
    794c:	e5ce3001 	strb	r3, [lr, #1]
    7950:	e5ce1003 	strb	r1, [lr, #3]
    7954:	e5cec004 	strb	ip, [lr, #4]
    7958:	e7c20184 	strb	r0, [r2, r4, lsl #3]
    795c:	e20740ff 	and	r4, r7, #255	; 0xff
    7960:	e59f3090 	ldr	r3, [pc, #144]	; 79f8 <.text+0x79f8>
    7964:	e59fc088 	ldr	ip, [pc, #136]	; 79f4 <.text+0x79f4>
    7968:	e083e184 	add	lr, r3, r4, lsl #3
    796c:	e5dc3000 	ldrb	r3, [ip]
    7970:	e59f5084 	ldr	r5, [pc, #132]	; 79fc <.text+0x79fc>
    7974:	e0840084 	add	r0, r4, r4, lsl #1
    7978:	e353000f 	cmp	r3, #15	; 0xf
    797c:	e2851001 	add	r1, r5, #1	; 0x1
    7980:	e285a002 	add	sl, r5, #2	; 0x2
    7984:	e2859003 	add	r9, r5, #3	; 0x3
    7988:	e2852004 	add	r2, r5, #4	; 0x4
    798c:	e2858005 	add	r8, r5, #5	; 0x5
    7990:	e2847001 	add	r7, r4, #1	; 0x1
    7994:	e1a06100 	mov	r6, r0, lsl #2
    7998:	8a000002 	bhi	79a8 <parse_gps_msg+0x170>
    799c:	e1540003 	cmp	r4, r3
    79a0:	baffffe0 	blt	7928 <parse_gps_msg+0xf0>
    79a4:	ea000001 	b	79b0 <parse_gps_msg+0x178>
    79a8:	e354000f 	cmp	r4, #15	; 0xf
    79ac:	daffffdd 	ble	7928 <parse_gps_msg+0xf0>
    79b0:	e89d6ff0 	ldmia	sp, {r4, r5, r6, r7, r8, r9, sl, fp, sp, lr}
    79b4:	e12fff1e 	bx	lr
    79b8:	40000f34 	andmi	r0, r0, r4, lsr pc
    79bc:	40000f35 	andmi	r0, r0, r5, lsr pc
    79c0:	40000e30 	andmi	r0, r0, r0, lsr lr
    79c4:	40000f3c 	andmi	r0, r0, ip, lsr pc
    79c8:	40000f38 	andmi	r0, r0, r8, lsr pc
    79cc:	40000f2c 	andmi	r0, r0, ip, lsr #30
    79d0:	40000f52 	andmi	r0, r0, r2, asr pc
    79d4:	40000f51 	andmi	r0, r0, r1, asr pc
    79d8:	40000e40 	andmi	r0, r0, r0, asr #28
    79dc:	40000f30 	andmi	r0, r0, r0, lsr pc
    79e0:	40000f46 	andmi	r0, r0, r6, asr #30
    79e4:	00002710 	andeq	r2, r0, r0, lsl r7
    79e8:	40000f42 	andmi	r0, r0, r2, asr #30
    79ec:	40000f4c 	andmi	r0, r0, ip, asr #30
    79f0:	40000f50 	andmi	r0, r0, r0, asr pc
    79f4:	40000f33 	andmi	r0, r0, r3, lsr pc
    79f8:	40000f54 	andmi	r0, r0, r4, asr pc
    79fc:	40000e35 	andmi	r0, r0, r5, lsr lr

00007a00 <parse_ubx>:
    7a00:	e52de004 	str	lr, [sp, #-4]!
    7a04:	e59fe198 	ldr	lr, [pc, #408]	; 7ba4 <.text+0x7ba4>
    7a08:	e5dec000 	ldrb	ip, [lr]
    7a0c:	e35c0006 	cmp	ip, #6	; 0x6
    7a10:	e20000ff 	and	r0, r0, #255	; 0xff
    7a14:	8a000008 	bhi	7a3c <parse_ubx+0x3c>
    7a18:	e59f2188 	ldr	r2, [pc, #392]	; 7ba8 <.text+0x7ba8>
    7a1c:	e5d23000 	ldrb	r3, [r2]
    7a20:	e0803003 	add	r3, r0, r3
    7a24:	e5c23000 	strb	r3, [r2]
    7a28:	e59f117c 	ldr	r1, [pc, #380]	; 7bac <.text+0x7bac>
    7a2c:	e5d22000 	ldrb	r2, [r2]
    7a30:	e5d13000 	ldrb	r3, [r1]
    7a34:	e0833002 	add	r3, r3, r2
    7a38:	e5c13000 	strb	r3, [r1]
    7a3c:	e35c0008 	cmp	ip, #8	; 0x8
    7a40:	979ff10c 	ldrls	pc, [pc, ip, lsl #2]
    7a44:	ea000054 	b	7b9c <.text+0x7b9c>
    7a48:	00007a6c 	andeq	r7, r0, ip, ror #20
    7a4c:	00007a78 	andeq	r7, r0, r8, ror sl
    7a50:	00007aa4 	andeq	r7, r0, r4, lsr #21
    7a54:	00007ad4 	ldreqd	r7, [r0], -r4
    7a58:	00007ae8 	andeq	r7, r0, r8, ror #21
    7a5c:	00007afc 	streqd	r7, [r0], -ip
    7a60:	00007b30 	andeq	r7, r0, r0, lsr fp
    7a64:	00007b60 	andeq	r7, r0, r0, ror #22
    7a68:	00007b7c 	andeq	r7, r0, ip, ror fp
    7a6c:	e35000b5 	cmp	r0, #181	; 0xb5
    7a70:	1a000049 	bne	7b9c <.text+0x7b9c>
    7a74:	ea00003d 	b	7b70 <.text+0x7b70>
    7a78:	e3500062 	cmp	r0, #98	; 0x62
    7a7c:	1a000044 	bne	7b94 <.text+0x7b94>
    7a80:	e59f3124 	ldr	r3, [pc, #292]	; 7bac <.text+0x7bac>
    7a84:	e5de2000 	ldrb	r2, [lr]
    7a88:	e3a01000 	mov	r1, #0	; 0x0
    7a8c:	e5c31000 	strb	r1, [r3]
    7a90:	e59f3110 	ldr	r3, [pc, #272]	; 7ba8 <.text+0x7ba8>
    7a94:	e2822001 	add	r2, r2, #1	; 0x1
    7a98:	e5ce2000 	strb	r2, [lr]
    7a9c:	e5c31000 	strb	r1, [r3]
    7aa0:	ea00003d 	b	7b9c <.text+0x7b9c>
    7aa4:	e59f3104 	ldr	r3, [pc, #260]	; 7bb0 <.text+0x7bb0>
    7aa8:	e5d33000 	ldrb	r3, [r3]
    7aac:	e3530000 	cmp	r3, #0	; 0x0
    7ab0:	159f20fc 	ldrne	r2, [pc, #252]	; 7bb4 <.text+0x7bb4>
    7ab4:	15d23000 	ldrneb	r3, [r2]
    7ab8:	12833001 	addne	r3, r3, #1	; 0x1
    7abc:	15c23000 	strneb	r3, [r2]
    7ac0:	1a000033 	bne	7b94 <.text+0x7b94>
    7ac4:	e5de3000 	ldrb	r3, [lr]
    7ac8:	e59f20e8 	ldr	r2, [pc, #232]	; 7bb8 <.text+0x7bb8>
    7acc:	e2833001 	add	r3, r3, #1	; 0x1
    7ad0:	ea000002 	b	7ae0 <.text+0x7ae0>
    7ad4:	e5de3000 	ldrb	r3, [lr]
    7ad8:	e59f20dc 	ldr	r2, [pc, #220]	; 7bbc <.text+0x7bbc>
    7adc:	e2833001 	add	r3, r3, #1	; 0x1
    7ae0:	e5c20000 	strb	r0, [r2]
    7ae4:	ea00002b 	b	7b98 <.text+0x7b98>
    7ae8:	e5de3000 	ldrb	r3, [lr]
    7aec:	e59f20cc 	ldr	r2, [pc, #204]	; 7bc0 <.text+0x7bc0>
    7af0:	e2833001 	add	r3, r3, #1	; 0x1
    7af4:	e1c200b0 	strh	r0, [r2]
    7af8:	ea000026 	b	7b98 <.text+0x7b98>
    7afc:	e59f30bc 	ldr	r3, [pc, #188]	; 7bc0 <.text+0x7bc0>
    7b00:	e1d320b0 	ldrh	r2, [r3]
    7b04:	e1822400 	orr	r2, r2, r0, lsl #8
    7b08:	e1c320b0 	strh	r2, [r3]
    7b0c:	e1d330b0 	ldrh	r3, [r3]
    7b10:	e35300ff 	cmp	r3, #255	; 0xff
    7b14:	8a00001e 	bhi	7b94 <.text+0x7b94>
    7b18:	e5de3000 	ldrb	r3, [lr]
    7b1c:	e59f20a0 	ldr	r2, [pc, #160]	; 7bc4 <.text+0x7bc4>
    7b20:	e3a01000 	mov	r1, #0	; 0x0
    7b24:	e2833001 	add	r3, r3, #1	; 0x1
    7b28:	e5c21000 	strb	r1, [r2]
    7b2c:	ea000019 	b	7b98 <.text+0x7b98>
    7b30:	e59f308c 	ldr	r3, [pc, #140]	; 7bc4 <.text+0x7bc4>
    7b34:	e5d31000 	ldrb	r1, [r3]
    7b38:	e2812001 	add	r2, r1, #1	; 0x1
    7b3c:	e5c32000 	strb	r2, [r3]
    7b40:	e5d32000 	ldrb	r2, [r3]
    7b44:	e59f3074 	ldr	r3, [pc, #116]	; 7bc0 <.text+0x7bc0>
    7b48:	e1d330b0 	ldrh	r3, [r3]
    7b4c:	e1520003 	cmp	r2, r3
    7b50:	e59f3070 	ldr	r3, [pc, #112]	; 7bc8 <.text+0x7bc8>
    7b54:	e7c30001 	strb	r0, [r3, r1]
    7b58:	3a00000f 	bcc	7b9c <.text+0x7b9c>
    7b5c:	ea000003 	b	7b70 <.text+0x7b70>
    7b60:	e59f3040 	ldr	r3, [pc, #64]	; 7ba8 <.text+0x7ba8>
    7b64:	e5d33000 	ldrb	r3, [r3]
    7b68:	e1530000 	cmp	r3, r0
    7b6c:	1a000008 	bne	7b94 <.text+0x7b94>
    7b70:	e5de3000 	ldrb	r3, [lr]
    7b74:	e2833001 	add	r3, r3, #1	; 0x1
    7b78:	ea000006 	b	7b98 <.text+0x7b98>
    7b7c:	e59f3028 	ldr	r3, [pc, #40]	; 7bac <.text+0x7bac>
    7b80:	e5d33000 	ldrb	r3, [r3]
    7b84:	e1530000 	cmp	r3, r0
    7b88:	059f3020 	ldreq	r3, [pc, #32]	; 7bb0 <.text+0x7bb0>
    7b8c:	03a02001 	moveq	r2, #1	; 0x1
    7b90:	05c32000 	streqb	r2, [r3]
    7b94:	e3a03000 	mov	r3, #0	; 0x0
    7b98:	e5ce3000 	strb	r3, [lr]
    7b9c:	e49de004 	ldr	lr, [sp], #4
    7ba0:	e12fff1e 	bx	lr
    7ba4:	4000055c 	andmi	r0, r0, ip, asr r5
    7ba8:	40000561 	andmi	r0, r0, r1, ror #10
    7bac:	40000562 	andmi	r0, r0, r2, ror #10
    7bb0:	40000f32 	andmi	r0, r0, r2, lsr pc
    7bb4:	40000f40 	andmi	r0, r0, r0, asr #30
    7bb8:	40000f34 	andmi	r0, r0, r4, lsr pc
    7bbc:	40000f35 	andmi	r0, r0, r5, lsr pc
    7bc0:	4000055e 	andmi	r0, r0, lr, asr r5
    7bc4:	40000560 	andmi	r0, r0, r0, ror #10
    7bc8:	40000e2c 	andmi	r0, r0, ip, lsr #28

00007bcc <estimator_update_state_gps>:
    7bcc:	e1a0c00d 	mov	ip, sp
    7bd0:	e92dd870 	stmdb	sp!, {r4, r5, r6, fp, ip, lr, pc}
    7bd4:	e59f3184 	ldr	r3, [pc, #388]	; 7d60 <.text+0x7d60>
    7bd8:	e24cb004 	sub	fp, ip, #4	; 0x4
    7bdc:	e5930000 	ldr	r0, [r3]
    7be0:	eb001b79 	bl	e9cc <__floatsidf>
    7be4:	e28f2f55 	add	r2, pc, #340	; 0x154
    7be8:	e892000c 	ldmia	r2, {r2, r3}
    7bec:	eb001c32 	bl	ecbc <__divdf3>
    7bf0:	e59f316c 	ldr	r3, [pc, #364]	; 7d64 <.text+0x7d64>
    7bf4:	e1a05001 	mov	r5, r1
    7bf8:	e1a04000 	mov	r4, r0
    7bfc:	e5930000 	ldr	r0, [r3]
    7c00:	eb001b71 	bl	e9cc <__floatsidf>
    7c04:	e1a03001 	mov	r3, r1
    7c08:	e1a02000 	mov	r2, r0
    7c0c:	e1a01005 	mov	r1, r5
    7c10:	e1a00004 	mov	r0, r4
    7c14:	eb001aa0 	bl	e69c <__subdf3>
    7c18:	eb001d2e 	bl	f0d8 <__truncdfsf2>
    7c1c:	e59f3144 	ldr	r3, [pc, #324]	; 7d68 <.text+0x7d68>
    7c20:	e1a06000 	mov	r6, r0
    7c24:	e5930000 	ldr	r0, [r3]
    7c28:	eb001b67 	bl	e9cc <__floatsidf>
    7c2c:	e28f2f43 	add	r2, pc, #268	; 0x10c
    7c30:	e892000c 	ldmia	r2, {r2, r3}
    7c34:	eb001c20 	bl	ecbc <__divdf3>
    7c38:	e59f312c 	ldr	r3, [pc, #300]	; 7d6c <.text+0x7d6c>
    7c3c:	e1a05001 	mov	r5, r1
    7c40:	e1a04000 	mov	r4, r0
    7c44:	e5930000 	ldr	r0, [r3]
    7c48:	eb001b5f 	bl	e9cc <__floatsidf>
    7c4c:	e1a03001 	mov	r3, r1
    7c50:	e1a02000 	mov	r2, r0
    7c54:	e1a01005 	mov	r1, r5
    7c58:	e1a00004 	mov	r0, r4
    7c5c:	eb001a8e 	bl	e69c <__subdf3>
    7c60:	eb001d1c 	bl	f0d8 <__truncdfsf2>
    7c64:	e59f3104 	ldr	r3, [pc, #260]	; 7d70 <.text+0x7d70>
    7c68:	e1a04000 	mov	r4, r0
    7c6c:	e5930000 	ldr	r0, [r3]
    7c70:	eb001b55 	bl	e9cc <__floatsidf>
    7c74:	e28f20c4 	add	r2, pc, #196	; 0xc4
    7c78:	e892000c 	ldmia	r2, {r2, r3}
    7c7c:	eb001c0e 	bl	ecbc <__divdf3>
    7c80:	eb001d14 	bl	f0d8 <__truncdfsf2>
    7c84:	e59f30e8 	ldr	r3, [pc, #232]	; 7d74 <.text+0x7d74>
    7c88:	e5830000 	str	r0, [r3]
    7c8c:	e59f30e4 	ldr	r3, [pc, #228]	; 7d78 <.text+0x7d78>
    7c90:	e1d300b0 	ldrh	r0, [r3]
    7c94:	e59f30e0 	ldr	r3, [pc, #224]	; 7d7c <.text+0x7d7c>
    7c98:	e5836000 	str	r6, [r3]
    7c9c:	e59f30dc 	ldr	r3, [pc, #220]	; 7d80 <.text+0x7d80>
    7ca0:	e5834000 	str	r4, [r3]
    7ca4:	eb001b48 	bl	e9cc <__floatsidf>
    7ca8:	e28f2090 	add	r2, pc, #144	; 0x90
    7cac:	e892000c 	ldmia	r2, {r2, r3}
    7cb0:	eb001c01 	bl	ecbc <__divdf3>
    7cb4:	eb001d07 	bl	f0d8 <__truncdfsf2>
    7cb8:	e59f30c4 	ldr	r3, [pc, #196]	; 7d84 <.text+0x7d84>
    7cbc:	e1a05000 	mov	r5, r0
    7cc0:	e1d300f0 	ldrsh	r0, [r3]
    7cc4:	eb001b40 	bl	e9cc <__floatsidf>
    7cc8:	e28f2070 	add	r2, pc, #112	; 0x70
    7ccc:	e892000c 	ldmia	r2, {r2, r3}
    7cd0:	eb001bf9 	bl	ecbc <__divdf3>
    7cd4:	eb001cff 	bl	f0d8 <__truncdfsf2>
    7cd8:	e59f30a8 	ldr	r3, [pc, #168]	; 7d88 <.text+0x7d88>
    7cdc:	e1a04000 	mov	r4, r0
    7ce0:	e1d300f0 	ldrsh	r0, [r3]
    7ce4:	eb001b38 	bl	e9cc <__floatsidf>
    7ce8:	e28f2058 	add	r2, pc, #88	; 0x58
    7cec:	e892000c 	ldmia	r2, {r2, r3}
    7cf0:	eb001bf1 	bl	ecbc <__divdf3>
    7cf4:	e28f2054 	add	r2, pc, #84	; 0x54
    7cf8:	e892000c 	ldmia	r2, {r2, r3}
    7cfc:	eb001bee 	bl	ecbc <__divdf3>
    7d00:	e28f2050 	add	r2, pc, #80	; 0x50
    7d04:	e892000c 	ldmia	r2, {r2, r3}
    7d08:	eb001b4d 	bl	ea44 <__muldf3>
    7d0c:	eb001cf1 	bl	f0d8 <__truncdfsf2>
    7d10:	e59f3074 	ldr	r3, [pc, #116]	; 7d8c <.text+0x7d8c>
    7d14:	e1d330b0 	ldrh	r3, [r3]
    7d18:	e3530000 	cmp	r3, #0	; 0x0
    7d1c:	e59f306c 	ldr	r3, [pc, #108]	; 7d90 <.text+0x7d90>
    7d20:	e5835000 	str	r5, [r3]
    7d24:	e59f3068 	ldr	r3, [pc, #104]	; 7d94 <.text+0x7d94>
    7d28:	e5830000 	str	r0, [r3]
    7d2c:	e59f3064 	ldr	r3, [pc, #100]	; 7d98 <.text+0x7d98>
    7d30:	e5834000 	str	r4, [r3]
    7d34:	1b000261 	blne	86c0 <estimator_update_ir_estim>
    7d38:	e89d6870 	ldmia	sp, {r4, r5, r6, fp, sp, lr}
    7d3c:	e12fff1e 	bx	lr
    7d40:	40590000 	submis	r0, r9, r0
    7d44:	00000000 	andeq	r0, r0, r0
    7d48:	40240000 	eormi	r0, r4, r0
    7d4c:	00000000 	andeq	r0, r0, r0
    7d50:	40668000 	rsbmi	r8, r6, r0
    7d54:	00000000 	andeq	r0, r0, r0
    7d58:	400921fb 	strmid	r2, [r9], -fp
    7d5c:	54442d18 	strplb	r2, [r4], #-3352
    7d60:	40000f3c 	andmi	r0, r0, ip, lsr pc
    7d64:	40000080 	andmi	r0, r0, r0, lsl #1
    7d68:	40000f38 	andmi	r0, r0, r8, lsr pc
    7d6c:	4000007c 	andmi	r0, r0, ip, ror r0
    7d70:	40000f2c 	andmi	r0, r0, ip, lsr #30
    7d74:	40001038 	andmi	r1, r0, r8, lsr r0
    7d78:	40000f46 	andmi	r0, r0, r6, asr #30
    7d7c:	40001060 	andmi	r1, r0, r0, rrx
    7d80:	4000107c 	andmi	r1, r0, ip, ror r0
    7d84:	40000f30 	andmi	r0, r0, r0, lsr pc
    7d88:	40000f42 	andmi	r0, r0, r2, asr #30
    7d8c:	40001030 	andmi	r1, r0, r0, lsr r0
    7d90:	40001054 	andmi	r1, r0, r4, asr r0
    7d94:	4000106c 	andmi	r1, r0, ip, rrx
    7d98:	4000102c 	andmi	r1, r0, ip, lsr #32

00007d9c <use_gps_pos>:
    7d9c:	e1a0c00d 	mov	ip, sp
    7da0:	e92dd870 	stmdb	sp!, {r4, r5, r6, fp, ip, lr, pc}
    7da4:	e59f5488 	ldr	r5, [pc, #1160]	; 8234 <.text+0x8234>
    7da8:	e5d53000 	ldrb	r3, [r5]
    7dac:	e3530003 	cmp	r3, #3	; 0x3
    7db0:	e24cb004 	sub	fp, ip, #4	; 0x4
    7db4:	059f247c 	ldreq	r2, [pc, #1148]	; 8238 <.text+0x8238>
    7db8:	059f347c 	ldreq	r3, [pc, #1148]	; 823c <.text+0x823c>
    7dbc:	01d220b0 	ldreqh	r2, [r2]
    7dc0:	01c320b0 	streqh	r2, [r3]
    7dc4:	0bffff80 	bleq	7bcc <estimator_update_state_gps>
    7dc8:	e3a00020 	mov	r0, #32	; 0x20
    7dcc:	ebfff54b 	bl	5300 <uart0_check_free_space>
    7dd0:	e31000ff 	tst	r0, #255	; 0xff
    7dd4:	059f2464 	ldreq	r2, [pc, #1124]	; 8240 <.text+0x8240>
    7dd8:	05d23000 	ldreqb	r3, [r2]
    7ddc:	02833001 	addeq	r3, r3, #1	; 0x1
    7de0:	05c23000 	streqb	r3, [r2]
    7de4:	0a0000a8 	beq	808c <use_gps_pos+0x2f0>
    7de8:	e59f4454 	ldr	r4, [pc, #1108]	; 8244 <.text+0x8244>
    7dec:	e3a03000 	mov	r3, #0	; 0x0
    7df0:	e3a0001b 	mov	r0, #27	; 0x1b
    7df4:	e5c43000 	strb	r3, [r4]
    7df8:	ebfff554 	bl	5350 <uart0_transmit>
    7dfc:	e5d43000 	ldrb	r3, [r4]
    7e00:	e2833005 	add	r3, r3, #5	; 0x5
    7e04:	e3a00005 	mov	r0, #5	; 0x5
    7e08:	e5c43000 	strb	r3, [r4]
    7e0c:	ebfff54f 	bl	5350 <uart0_transmit>
    7e10:	e5d43000 	ldrb	r3, [r4]
    7e14:	e2833008 	add	r3, r3, #8	; 0x8
    7e18:	e3a00008 	mov	r0, #8	; 0x8
    7e1c:	e5c43000 	strb	r3, [r4]
    7e20:	ebfff54a 	bl	5350 <uart0_transmit>
    7e24:	e5d50000 	ldrb	r0, [r5]
    7e28:	e5d43000 	ldrb	r3, [r4]
    7e2c:	e59f5414 	ldr	r5, [pc, #1044]	; 8248 <.text+0x8248>
    7e30:	e0803003 	add	r3, r0, r3
    7e34:	e5c43000 	strb	r3, [r4]
    7e38:	ebfff544 	bl	5350 <uart0_transmit>
    7e3c:	e5d53000 	ldrb	r3, [r5]
    7e40:	e5d42000 	ldrb	r2, [r4]
    7e44:	e1a00003 	mov	r0, r3
    7e48:	e0833002 	add	r3, r3, r2
    7e4c:	e5c43000 	strb	r3, [r4]
    7e50:	ebfff53e 	bl	5350 <uart0_transmit>
    7e54:	e5d53001 	ldrb	r3, [r5, #1]
    7e58:	e5d42000 	ldrb	r2, [r4]
    7e5c:	e1a00003 	mov	r0, r3
    7e60:	e0833002 	add	r3, r3, r2
    7e64:	e5c43000 	strb	r3, [r4]
    7e68:	ebfff538 	bl	5350 <uart0_transmit>
    7e6c:	e5d53002 	ldrb	r3, [r5, #2]
    7e70:	e5d42000 	ldrb	r2, [r4]
    7e74:	e1a00003 	mov	r0, r3
    7e78:	e0833002 	add	r3, r3, r2
    7e7c:	e5c43000 	strb	r3, [r4]
    7e80:	ebfff532 	bl	5350 <uart0_transmit>
    7e84:	e5d50003 	ldrb	r0, [r5, #3]
    7e88:	e5d43000 	ldrb	r3, [r4]
    7e8c:	e59f53b8 	ldr	r5, [pc, #952]	; 824c <.text+0x824c>
    7e90:	e0803003 	add	r3, r0, r3
    7e94:	e5c43000 	strb	r3, [r4]
    7e98:	ebfff52c 	bl	5350 <uart0_transmit>
    7e9c:	e5d53000 	ldrb	r3, [r5]
    7ea0:	e5d42000 	ldrb	r2, [r4]
    7ea4:	e1a00003 	mov	r0, r3
    7ea8:	e0833002 	add	r3, r3, r2
    7eac:	e5c43000 	strb	r3, [r4]
    7eb0:	ebfff526 	bl	5350 <uart0_transmit>
    7eb4:	e5d53001 	ldrb	r3, [r5, #1]
    7eb8:	e5d42000 	ldrb	r2, [r4]
    7ebc:	e1a00003 	mov	r0, r3
    7ec0:	e0833002 	add	r3, r3, r2
    7ec4:	e5c43000 	strb	r3, [r4]
    7ec8:	ebfff520 	bl	5350 <uart0_transmit>
    7ecc:	e5d53002 	ldrb	r3, [r5, #2]
    7ed0:	e5d42000 	ldrb	r2, [r4]
    7ed4:	e1a00003 	mov	r0, r3
    7ed8:	e0833002 	add	r3, r3, r2
    7edc:	e5c43000 	strb	r3, [r4]
    7ee0:	ebfff51a 	bl	5350 <uart0_transmit>
    7ee4:	e5d50003 	ldrb	r0, [r5, #3]
    7ee8:	e5d43000 	ldrb	r3, [r4]
    7eec:	e59f535c 	ldr	r5, [pc, #860]	; 8250 <.text+0x8250>
    7ef0:	e0803003 	add	r3, r0, r3
    7ef4:	e5c43000 	strb	r3, [r4]
    7ef8:	ebfff514 	bl	5350 <uart0_transmit>
    7efc:	e5d53000 	ldrb	r3, [r5]
    7f00:	e5d42000 	ldrb	r2, [r4]
    7f04:	e1a00003 	mov	r0, r3
    7f08:	e0833002 	add	r3, r3, r2
    7f0c:	e5c43000 	strb	r3, [r4]
    7f10:	ebfff50e 	bl	5350 <uart0_transmit>
    7f14:	e5d50001 	ldrb	r0, [r5, #1]
    7f18:	e5d43000 	ldrb	r3, [r4]
    7f1c:	e59f5330 	ldr	r5, [pc, #816]	; 8254 <.text+0x8254>
    7f20:	e0803003 	add	r3, r0, r3
    7f24:	e5c43000 	strb	r3, [r4]
    7f28:	ebfff508 	bl	5350 <uart0_transmit>
    7f2c:	e5d53000 	ldrb	r3, [r5]
    7f30:	e5d42000 	ldrb	r2, [r4]
    7f34:	e1a00003 	mov	r0, r3
    7f38:	e0833002 	add	r3, r3, r2
    7f3c:	e5c43000 	strb	r3, [r4]
    7f40:	ebfff502 	bl	5350 <uart0_transmit>
    7f44:	e5d53001 	ldrb	r3, [r5, #1]
    7f48:	e5d42000 	ldrb	r2, [r4]
    7f4c:	e1a00003 	mov	r0, r3
    7f50:	e0833002 	add	r3, r3, r2
    7f54:	e5c43000 	strb	r3, [r4]
    7f58:	ebfff4fc 	bl	5350 <uart0_transmit>
    7f5c:	e5d53002 	ldrb	r3, [r5, #2]
    7f60:	e5d42000 	ldrb	r2, [r4]
    7f64:	e1a00003 	mov	r0, r3
    7f68:	e0833002 	add	r3, r3, r2
    7f6c:	e5c43000 	strb	r3, [r4]
    7f70:	ebfff4f6 	bl	5350 <uart0_transmit>
    7f74:	e5d50003 	ldrb	r0, [r5, #3]
    7f78:	e5d43000 	ldrb	r3, [r4]
    7f7c:	e59f52d4 	ldr	r5, [pc, #724]	; 8258 <.text+0x8258>
    7f80:	e0803003 	add	r3, r0, r3
    7f84:	e5c43000 	strb	r3, [r4]
    7f88:	ebfff4f0 	bl	5350 <uart0_transmit>
    7f8c:	e5d53000 	ldrb	r3, [r5]
    7f90:	e5d42000 	ldrb	r2, [r4]
    7f94:	e1a00003 	mov	r0, r3
    7f98:	e0833002 	add	r3, r3, r2
    7f9c:	e5c43000 	strb	r3, [r4]
    7fa0:	ebfff4ea 	bl	5350 <uart0_transmit>
    7fa4:	e5d50001 	ldrb	r0, [r5, #1]
    7fa8:	e5d43000 	ldrb	r3, [r4]
    7fac:	e59f52a8 	ldr	r5, [pc, #680]	; 825c <.text+0x825c>
    7fb0:	e0803003 	add	r3, r0, r3
    7fb4:	e5c43000 	strb	r3, [r4]
    7fb8:	ebfff4e4 	bl	5350 <uart0_transmit>
    7fbc:	e5d53000 	ldrb	r3, [r5]
    7fc0:	e5d42000 	ldrb	r2, [r4]
    7fc4:	e1a00003 	mov	r0, r3
    7fc8:	e0833002 	add	r3, r3, r2
    7fcc:	e5c43000 	strb	r3, [r4]
    7fd0:	ebfff4de 	bl	5350 <uart0_transmit>
    7fd4:	e5d50001 	ldrb	r0, [r5, #1]
    7fd8:	e5d43000 	ldrb	r3, [r4]
    7fdc:	e59f527c 	ldr	r5, [pc, #636]	; 8260 <.text+0x8260>
    7fe0:	e0803003 	add	r3, r0, r3
    7fe4:	e5c43000 	strb	r3, [r4]
    7fe8:	ebfff4d8 	bl	5350 <uart0_transmit>
    7fec:	e5d53000 	ldrb	r3, [r5]
    7ff0:	e5d42000 	ldrb	r2, [r4]
    7ff4:	e1a00003 	mov	r0, r3
    7ff8:	e0833002 	add	r3, r3, r2
    7ffc:	e5c43000 	strb	r3, [r4]
    8000:	ebfff4d2 	bl	5350 <uart0_transmit>
    8004:	e5d53001 	ldrb	r3, [r5, #1]
    8008:	e5d42000 	ldrb	r2, [r4]
    800c:	e1a00003 	mov	r0, r3
    8010:	e0833002 	add	r3, r3, r2
    8014:	e5c43000 	strb	r3, [r4]
    8018:	ebfff4cc 	bl	5350 <uart0_transmit>
    801c:	e5d53002 	ldrb	r3, [r5, #2]
    8020:	e5d42000 	ldrb	r2, [r4]
    8024:	e1a00003 	mov	r0, r3
    8028:	e0833002 	add	r3, r3, r2
    802c:	e5c43000 	strb	r3, [r4]
    8030:	ebfff4c6 	bl	5350 <uart0_transmit>
    8034:	e5d53003 	ldrb	r3, [r5, #3]
    8038:	e5d42000 	ldrb	r2, [r4]
    803c:	e1a00003 	mov	r0, r3
    8040:	e0833002 	add	r3, r3, r2
    8044:	e5c43000 	strb	r3, [r4]
    8048:	ebfff4c0 	bl	5350 <uart0_transmit>
    804c:	e59f3210 	ldr	r3, [pc, #528]	; 8264 <.text+0x8264>
    8050:	e5d42000 	ldrb	r2, [r4]
    8054:	e5d33000 	ldrb	r3, [r3]
    8058:	e1a00003 	mov	r0, r3
    805c:	e0833002 	add	r3, r3, r2
    8060:	e5c43000 	strb	r3, [r4]
    8064:	ebfff4b9 	bl	5350 <uart0_transmit>
    8068:	e59f31f8 	ldr	r3, [pc, #504]	; 8268 <.text+0x8268>
    806c:	e5d42000 	ldrb	r2, [r4]
    8070:	e5d33000 	ldrb	r3, [r3]
    8074:	e1a00003 	mov	r0, r3
    8078:	e0833002 	add	r3, r3, r2
    807c:	e5c43000 	strb	r3, [r4]
    8080:	ebfff4b2 	bl	5350 <uart0_transmit>
    8084:	e3a000ff 	mov	r0, #255	; 0xff
    8088:	ebfff4b0 	bl	5350 <uart0_transmit>
    808c:	e59f51d8 	ldr	r5, [pc, #472]	; 826c <.text+0x826c>
    8090:	e59f31d8 	ldr	r3, [pc, #472]	; 8270 <.text+0x8270>
    8094:	e5d32000 	ldrb	r2, [r3]
    8098:	e5d53000 	ldrb	r3, [r5]
    809c:	e1530002 	cmp	r3, r2
    80a0:	03a03000 	moveq	r3, #0	; 0x0
    80a4:	05c53000 	streqb	r3, [r5]
    80a8:	e5d53000 	ldrb	r3, [r5]
    80ac:	e1530002 	cmp	r3, r2
    80b0:	2a00005a 	bcs	8220 <use_gps_pos+0x484>
    80b4:	e59f61b8 	ldr	r6, [pc, #440]	; 8274 <.text+0x8274>
    80b8:	e0863183 	add	r3, r6, r3, lsl #3
    80bc:	e5d33003 	ldrb	r3, [r3, #3]
    80c0:	e3530000 	cmp	r3, #0	; 0x0
    80c4:	0a000055 	beq	8220 <use_gps_pos+0x484>
    80c8:	e3a0000f 	mov	r0, #15	; 0xf
    80cc:	ebfff48b 	bl	5300 <uart0_check_free_space>
    80d0:	e31000ff 	tst	r0, #255	; 0xff
    80d4:	059f2164 	ldreq	r2, [pc, #356]	; 8240 <.text+0x8240>
    80d8:	05d23000 	ldreqb	r3, [r2]
    80dc:	02833001 	addeq	r3, r3, #1	; 0x1
    80e0:	05c23000 	streqb	r3, [r2]
    80e4:	0a00004d 	beq	8220 <use_gps_pos+0x484>
    80e8:	e59f4154 	ldr	r4, [pc, #340]	; 8244 <.text+0x8244>
    80ec:	e3a03000 	mov	r3, #0	; 0x0
    80f0:	e3a0000a 	mov	r0, #10	; 0xa
    80f4:	e5c43000 	strb	r3, [r4]
    80f8:	ebfff494 	bl	5350 <uart0_transmit>
    80fc:	e5d43000 	ldrb	r3, [r4]
    8100:	e2833005 	add	r3, r3, #5	; 0x5
    8104:	e3a00005 	mov	r0, #5	; 0x5
    8108:	e5c43000 	strb	r3, [r4]
    810c:	ebfff48f 	bl	5350 <uart0_transmit>
    8110:	e5d43000 	ldrb	r3, [r4]
    8114:	e2833019 	add	r3, r3, #25	; 0x19
    8118:	e3a00019 	mov	r0, #25	; 0x19
    811c:	e5c43000 	strb	r3, [r4]
    8120:	ebfff48a 	bl	5350 <uart0_transmit>
    8124:	e5d53000 	ldrb	r3, [r5]
    8128:	e5d42000 	ldrb	r2, [r4]
    812c:	e1a00003 	mov	r0, r3
    8130:	e0833002 	add	r3, r3, r2
    8134:	e5c43000 	strb	r3, [r4]
    8138:	ebfff484 	bl	5350 <uart0_transmit>
    813c:	e5d53000 	ldrb	r3, [r5]
    8140:	e5d42000 	ldrb	r2, [r4]
    8144:	e7d63183 	ldrb	r3, [r6, r3, lsl #3]
    8148:	e1a00003 	mov	r0, r3
    814c:	e0833002 	add	r3, r3, r2
    8150:	e5c43000 	strb	r3, [r4]
    8154:	ebfff47d 	bl	5350 <uart0_transmit>
    8158:	e5d52000 	ldrb	r2, [r5]
    815c:	e2863001 	add	r3, r6, #1	; 0x1
    8160:	e7d33182 	ldrb	r3, [r3, r2, lsl #3]
    8164:	e5d42000 	ldrb	r2, [r4]
    8168:	e1a00003 	mov	r0, r3
    816c:	e0833002 	add	r3, r3, r2
    8170:	e5c43000 	strb	r3, [r4]
    8174:	ebfff475 	bl	5350 <uart0_transmit>
    8178:	e5d52000 	ldrb	r2, [r5]
    817c:	e2863002 	add	r3, r6, #2	; 0x2
    8180:	e7d33182 	ldrb	r3, [r3, r2, lsl #3]
    8184:	e5d42000 	ldrb	r2, [r4]
    8188:	e1a00003 	mov	r0, r3
    818c:	e0833002 	add	r3, r3, r2
    8190:	e5c43000 	strb	r3, [r4]
    8194:	ebfff46d 	bl	5350 <uart0_transmit>
    8198:	e5d52000 	ldrb	r2, [r5]
    819c:	e2863003 	add	r3, r6, #3	; 0x3
    81a0:	e7d33182 	ldrb	r3, [r3, r2, lsl #3]
    81a4:	e5d42000 	ldrb	r2, [r4]
    81a8:	e1a00003 	mov	r0, r3
    81ac:	e0833002 	add	r3, r3, r2
    81b0:	e5c43000 	strb	r3, [r4]
    81b4:	ebfff465 	bl	5350 <uart0_transmit>
    81b8:	e5d52000 	ldrb	r2, [r5]
    81bc:	e2863004 	add	r3, r6, #4	; 0x4
    81c0:	e7d33182 	ldrb	r3, [r3, r2, lsl #3]
    81c4:	e5d42000 	ldrb	r2, [r4]
    81c8:	e1a00003 	mov	r0, r3
    81cc:	e0833002 	add	r3, r3, r2
    81d0:	e5c43000 	strb	r3, [r4]
    81d4:	ebfff45d 	bl	5350 <uart0_transmit>
    81d8:	e5d52000 	ldrb	r2, [r5]
    81dc:	e2863006 	add	r3, r6, #6	; 0x6
    81e0:	e7d33182 	ldrb	r3, [r3, r2, lsl #3]
    81e4:	e5d42000 	ldrb	r2, [r4]
    81e8:	e1a00003 	mov	r0, r3
    81ec:	e0833002 	add	r3, r3, r2
    81f0:	e5c43000 	strb	r3, [r4]
    81f4:	ebfff455 	bl	5350 <uart0_transmit>
    81f8:	e5d52000 	ldrb	r2, [r5]
    81fc:	e2863007 	add	r3, r6, #7	; 0x7
    8200:	e7d33182 	ldrb	r3, [r3, r2, lsl #3]
    8204:	e5d42000 	ldrb	r2, [r4]
    8208:	e1a00003 	mov	r0, r3
    820c:	e0833002 	add	r3, r3, r2
    8210:	e5c43000 	strb	r3, [r4]
    8214:	ebfff44d 	bl	5350 <uart0_transmit>
    8218:	e3a000ff 	mov	r0, #255	; 0xff
    821c:	ebfff44b 	bl	5350 <uart0_transmit>
    8220:	e5d53000 	ldrb	r3, [r5]
    8224:	e2833001 	add	r3, r3, #1	; 0x1
    8228:	e5c53000 	strb	r3, [r5]
    822c:	e89d6870 	ldmia	sp, {r4, r5, r6, fp, sp, lr}
    8230:	e12fff1e 	bx	lr
    8234:	40000f51 	andmi	r0, r0, r1, asr pc
    8238:	400007a4 	andmi	r0, r0, r4, lsr #15
    823c:	40000fd4 	ldrmid	r0, [r0], -r4
    8240:	40000a8b 	andmi	r0, r0, fp, lsl #21
    8244:	40000d25 	andmi	r0, r0, r5, lsr #26
    8248:	40000f3c 	andmi	r0, r0, ip, lsr pc
    824c:	40000f38 	andmi	r0, r0, r8, lsr pc
    8250:	40000f42 	andmi	r0, r0, r2, asr #30
    8254:	40000f2c 	andmi	r0, r0, ip, lsr #30
    8258:	40000f46 	andmi	r0, r0, r6, asr #30
    825c:	40000f30 	andmi	r0, r0, r0, lsr pc
    8260:	40000f4c 	andmi	r0, r0, ip, asr #30
    8264:	40000f52 	andmi	r0, r0, r2, asr pc
    8268:	40000f40 	andmi	r0, r0, r0, asr #30
    826c:	40000564 	andmi	r0, r0, r4, ror #10
    8270:	40000f33 	andmi	r0, r0, r3, lsr pc
    8274:	40000f54 	andmi	r0, r0, r4, asr pc

00008278 <ir_init>:
    8278:	e1a0c00d 	mov	ip, sp
    827c:	e92dd870 	stmdb	sp!, {r4, r5, r6, fp, ip, lr, pc}
    8280:	e59f40d4 	ldr	r4, [pc, #212]	; 835c <.text+0x835c>
    8284:	e59f60d4 	ldr	r6, [pc, #212]	; 8360 <.text+0x8360>
    8288:	e24cb004 	sub	fp, ip, #4	; 0x4
    828c:	e3a0000f 	mov	r0, #15	; 0xf
    8290:	e59f10cc 	ldr	r1, [pc, #204]	; 8364 <.text+0x8364>
    8294:	e3a02010 	mov	r2, #16	; 0x10
    8298:	e5846000 	str	r6, [r4]
    829c:	ebfff7d7 	bl	6200 <adc_buf_channel>
    82a0:	e3a0000b 	mov	r0, #11	; 0xb
    82a4:	e59f10bc 	ldr	r1, [pc, #188]	; 8368 <.text+0x8368>
    82a8:	e3a02010 	mov	r2, #16	; 0x10
    82ac:	ebfff7d3 	bl	6200 <adc_buf_channel>
    82b0:	e59f30b4 	ldr	r3, [pc, #180]	; 836c <.text+0x836c>
    82b4:	e3a0e000 	mov	lr, #0	; 0x0
    82b8:	e59f20b0 	ldr	r2, [pc, #176]	; 8370 <.text+0x8370>
    82bc:	e583e000 	str	lr, [r3]
    82c0:	e59f30ac 	ldr	r3, [pc, #172]	; 8374 <.text+0x8374>
    82c4:	e5832000 	str	r2, [r3]
    82c8:	e59f30a8 	ldr	r3, [pc, #168]	; 8378 <.text+0x8378>
    82cc:	e3a05000 	mov	r5, #0	; 0x0
    82d0:	e594c000 	ldr	ip, [r4]
    82d4:	e1c350b0 	strh	r5, [r3]
    82d8:	e59f309c 	ldr	r3, [pc, #156]	; 837c <.text+0x837c>
    82dc:	e583c000 	str	ip, [r3]
    82e0:	e59f3098 	ldr	r3, [pc, #152]	; 8380 <.text+0x8380>
    82e4:	e3a015ff 	mov	r1, #1069547520	; 0x3fc00000
    82e8:	e5831000 	str	r1, [r3]
    82ec:	e59f3090 	ldr	r3, [pc, #144]	; 8384 <.text+0x8384>
    82f0:	e3a02001 	mov	r2, #1	; 0x1
    82f4:	e59f008c 	ldr	r0, [pc, #140]	; 8388 <.text+0x8388>
    82f8:	e5c32000 	strb	r2, [r3]
    82fc:	e59f3088 	ldr	r3, [pc, #136]	; 838c <.text+0x838c>
    8300:	e5830000 	str	r0, [r3]
    8304:	e59f3084 	ldr	r3, [pc, #132]	; 8390 <.text+0x8390>
    8308:	e583e000 	str	lr, [r3]
    830c:	e59f3080 	ldr	r3, [pc, #128]	; 8394 <.text+0x8394>
    8310:	e1c350b0 	strh	r5, [r3]
    8314:	e59f307c 	ldr	r3, [pc, #124]	; 8398 <.text+0x8398>
    8318:	e5831000 	str	r1, [r3]
    831c:	e59f3078 	ldr	r3, [pc, #120]	; 839c <.text+0x839c>
    8320:	e5831000 	str	r1, [r3]
    8324:	e59f3074 	ldr	r3, [pc, #116]	; 83a0 <.text+0x83a0>
    8328:	e5831000 	str	r1, [r3]
    832c:	e59f3070 	ldr	r3, [pc, #112]	; 83a4 <.text+0x83a4>
    8330:	e5830000 	str	r0, [r3]
    8334:	e59f306c 	ldr	r3, [pc, #108]	; 83a8 <.text+0x83a8>
    8338:	e5830000 	str	r0, [r3]
    833c:	e59f3068 	ldr	r3, [pc, #104]	; 83ac <.text+0x83ac>
    8340:	e5830000 	str	r0, [r3]
    8344:	e59f3064 	ldr	r3, [pc, #100]	; 83b0 <.text+0x83b0>
    8348:	e3a02fe1 	mov	r2, #900	; 0x384
    834c:	e5846000 	str	r6, [r4]
    8350:	e1c320b0 	strh	r2, [r3]
    8354:	e89d6870 	ldmia	sp, {r4, r5, r6, fp, sp, lr}
    8358:	e12fff1e 	bx	lr
    835c:	40000ff0 	strmid	r0, [r0], -r0
    8360:	3b0a5a91 	blcc	29edac <_etext+0x28f204>
    8364:	40000588 	andmi	r0, r0, r8, lsl #11
    8368:	400005cc 	andmi	r0, r0, ip, asr #11
    836c:	40001024 	andmi	r1, r0, r4, lsr #32
    8370:	bfc00000 	swilt	0x00c00000
    8374:	40000ffc 	strmid	r0, [r0], -ip
    8378:	40001004 	andmi	r1, r0, r4
    837c:	40000fe8 	andmi	r0, r0, r8, ror #31
    8380:	40000ff4 	strmid	r0, [r0], -r4
    8384:	40001028 	andmi	r1, r0, r8, lsr #32
    8388:	3ef1463a 	mrccc	6, 7, r4, cr1, cr10, {1}
    838c:	40001010 	andmi	r1, r0, r0, lsl r0
    8390:	40001008 	andmi	r1, r0, r8
    8394:	4000102a 	andmi	r1, r0, sl, lsr #32
    8398:	40000fd8 	ldrmid	r0, [r0], -r8
    839c:	4000100c 	andmi	r1, r0, ip
    83a0:	40001018 	andmi	r1, r0, r8, lsl r0
    83a4:	40001000 	andmi	r1, r0, r0
    83a8:	4000101c 	andmi	r1, r0, ip, lsl r0
    83ac:	40000fe0 	andmi	r0, r0, r0, ror #31
    83b0:	40000fec 	andmi	r0, r0, ip, ror #31

000083b4 <ir_update>:
    83b4:	e1a0c00d 	mov	ip, sp
    83b8:	e92ddbf0 	stmdb	sp!, {r4, r5, r6, r7, r8, r9, fp, ip, lr, pc}
    83bc:	e59f3120 	ldr	r3, [pc, #288]	; 84e4 <.text+0x84e4>
    83c0:	e24cb004 	sub	fp, ip, #4	; 0x4
    83c4:	e24dd008 	sub	sp, sp, #8	; 0x8
    83c8:	e5d31043 	ldrb	r1, [r3, #67]
    83cc:	e1d300b0 	ldrh	r0, [r3]
    83d0:	eb001d28 	bl	f878 <____divsi3_from_arm>
    83d4:	e59f310c 	ldr	r3, [pc, #268]	; 84e8 <.text+0x84e8>
    83d8:	e1a04800 	mov	r4, r0, lsl #16
    83dc:	e5d31043 	ldrb	r1, [r3, #67]
    83e0:	e1d300b0 	ldrh	r0, [r3]
    83e4:	eb001d23 	bl	f878 <____divsi3_from_arm>
    83e8:	e1a04824 	mov	r4, r4, lsr #16
    83ec:	e1a03804 	mov	r3, r4, lsl #16
    83f0:	e1a05800 	mov	r5, r0, lsl #16
    83f4:	e1a00843 	mov	r0, r3, asr #16
    83f8:	e59f30ec 	ldr	r3, [pc, #236]	; 84ec <.text+0x84ec>
    83fc:	e1c340b0 	strh	r4, [r3]
    8400:	e59f30e8 	ldr	r3, [pc, #232]	; 84f0 <.text+0x84f0>
    8404:	e1a05825 	mov	r5, r5, lsr #16
    8408:	e1c350b0 	strh	r5, [r3]
    840c:	eb00196e 	bl	e9cc <__floatsidf>
    8410:	e24b3030 	sub	r3, fp, #48	; 0x30
    8414:	e9830003 	stmib	r3, {r0, r1}
    8418:	e28f20b4 	add	r2, pc, #180	; 0xb4
    841c:	e892000c 	ldmia	r2, {r2, r3}
    8420:	eb001987 	bl	ea44 <__muldf3>
    8424:	e1a05805 	mov	r5, r5, lsl #16
    8428:	e28f80ac 	add	r8, pc, #172	; 0xac
    842c:	e8980300 	ldmia	r8, {r8, r9}
    8430:	e1a07001 	mov	r7, r1
    8434:	e1a06000 	mov	r6, r0
    8438:	e1a00845 	mov	r0, r5, asr #16
    843c:	eb001962 	bl	e9cc <__floatsidf>
    8440:	e1a03009 	mov	r3, r9
    8444:	e1a02008 	mov	r2, r8
    8448:	eb00197d 	bl	ea44 <__muldf3>
    844c:	e1a05001 	mov	r5, r1
    8450:	e1a04000 	mov	r4, r0
    8454:	e1a03005 	mov	r3, r5
    8458:	e1a02004 	mov	r2, r4
    845c:	e1a01007 	mov	r1, r7
    8460:	e1a00006 	mov	r0, r6
    8464:	eb00188d 	bl	e6a0 <__adddf3>
    8468:	eb001add 	bl	efe4 <__fixdfsi>
    846c:	e59f6080 	ldr	r6, [pc, #128]	; 84f4 <.text+0x84f4>
    8470:	e24bc030 	sub	ip, fp, #48	; 0x30
    8474:	e1c600b0 	strh	r0, [r6]
    8478:	e1a03009 	mov	r3, r9
    847c:	e1a02008 	mov	r2, r8
    8480:	e99c0003 	ldmib	ip, {r0, r1}
    8484:	eb00196e 	bl	ea44 <__muldf3>
    8488:	e1a03005 	mov	r3, r5
    848c:	e1a02004 	mov	r2, r4
    8490:	eb001882 	bl	e6a0 <__adddf3>
    8494:	eb001ad2 	bl	efe4 <__fixdfsi>
    8498:	e59f1058 	ldr	r1, [pc, #88]	; 84f8 <.text+0x84f8>
    849c:	e59f3058 	ldr	r3, [pc, #88]	; 84fc <.text+0x84fc>
    84a0:	e1c100b0 	strh	r0, [r1]
    84a4:	e1d3c0b0 	ldrh	ip, [r3]
    84a8:	e59f3050 	ldr	r3, [pc, #80]	; 8500 <.text+0x8500>
    84ac:	e1d120b0 	ldrh	r2, [r1]
    84b0:	e1d300b0 	ldrh	r0, [r3]
    84b4:	e1d630b0 	ldrh	r3, [r6]
    84b8:	e0602002 	rsb	r2, r0, r2
    84bc:	e06c3003 	rsb	r3, ip, r3
    84c0:	e1c630b0 	strh	r3, [r6]
    84c4:	e1c120b0 	strh	r2, [r1]
    84c8:	e24bd024 	sub	sp, fp, #36	; 0x24
    84cc:	e89d6bf0 	ldmia	sp, {r4, r5, r6, r7, r8, r9, fp, sp, lr}
    84d0:	e12fff1e 	bx	lr
    84d4:	3fe66666 	swicc	0x00e66666
    84d8:	66666666 	strvsbt	r6, [r6], -r6, ror #12
    84dc:	bfe66666 	swilt	0x00e66666
    84e0:	66666666 	strvsbt	r6, [r6], -r6, ror #12
    84e4:	40000588 	andmi	r0, r0, r8, lsl #11
    84e8:	400005cc 	andmi	r0, r0, ip, asr #11
    84ec:	40001006 	andmi	r1, r0, r6
    84f0:	40000fdc 	ldrmid	r0, [r0], -ip
    84f4:	40001020 	andmi	r1, r0, r0, lsr #32
    84f8:	40000fe4 	andmi	r0, r0, r4, ror #31
    84fc:	4000102a 	andmi	r1, r0, sl, lsr #32
    8500:	40001004 	andmi	r1, r0, r4

00008504 <ground_calibrate>:
    8504:	e1a0c00d 	mov	ip, sp
    8508:	e92dd830 	stmdb	sp!, {r4, r5, fp, ip, lr, pc}
    850c:	e59f4188 	ldr	r4, [pc, #392]	; 869c <.text+0x869c>
    8510:	e5d45000 	ldrb	r5, [r4]
    8514:	e3550000 	cmp	r5, #0	; 0x0
    8518:	e24cb004 	sub	fp, ip, #4	; 0x4
    851c:	e20000ff 	and	r0, r0, #255	; 0xff
    8520:	0a000002 	beq	8530 <ground_calibrate+0x2c>
    8524:	e3550001 	cmp	r5, #1	; 0x1
    8528:	0a00001a 	beq	8598 <ground_calibrate+0x94>
    852c:	ea000056 	b	868c <ground_calibrate+0x188>
    8530:	e59f3168 	ldr	r3, [pc, #360]	; 86a0 <.text+0x86a0>
    8534:	e1d330b0 	ldrh	r3, [r3]
    8538:	e3530009 	cmp	r3, #9	; 0x9
    853c:	8a000052 	bhi	868c <ground_calibrate+0x188>
    8540:	e59f315c 	ldr	r3, [pc, #348]	; 86a4 <.text+0x86a4>
    8544:	e5d33000 	ldrb	r3, [r3]
    8548:	e3530001 	cmp	r3, #1	; 0x1
    854c:	1a00004e 	bne	868c <ground_calibrate+0x188>
    8550:	e3a00007 	mov	r0, #7	; 0x7
    8554:	e5c43000 	strb	r3, [r4]
    8558:	ebfff368 	bl	5300 <uart0_check_free_space>
    855c:	e31000ff 	tst	r0, #255	; 0xff
    8560:	0a000045 	beq	867c <ground_calibrate+0x178>
    8564:	e59f413c 	ldr	r4, [pc, #316]	; 86a8 <.text+0x86a8>
    8568:	e3a00002 	mov	r0, #2	; 0x2
    856c:	e5c45000 	strb	r5, [r4]
    8570:	ebfff376 	bl	5350 <uart0_transmit>
    8574:	e5d43000 	ldrb	r3, [r4]
    8578:	e2833005 	add	r3, r3, #5	; 0x5
    857c:	e3a00005 	mov	r0, #5	; 0x5
    8580:	e5c43000 	strb	r3, [r4]
    8584:	ebfff371 	bl	5350 <uart0_transmit>
    8588:	e5d43000 	ldrb	r3, [r4]
    858c:	e3a00002 	mov	r0, #2	; 0x2
    8590:	e2833002 	add	r3, r3, #2	; 0x2
    8594:	ea000033 	b	8668 <ground_calibrate+0x164>
    8598:	e3500000 	cmp	r0, #0	; 0x0
    859c:	0a00003a 	beq	868c <ground_calibrate+0x188>
    85a0:	e59f3104 	ldr	r3, [pc, #260]	; 86ac <.text+0x86ac>
    85a4:	e1d330f0 	ldrsh	r3, [r3]
    85a8:	e59f5100 	ldr	r5, [pc, #256]	; 86b0 <.text+0x86b0>
    85ac:	e3530000 	cmp	r3, #0	; 0x0
    85b0:	b2633000 	rsblt	r3, r3, #0	; 0x0
    85b4:	e1c530b0 	strh	r3, [r5]
    85b8:	e1d500f0 	ldrsh	r0, [r5]
    85bc:	eb001902 	bl	e9cc <__floatsidf>
    85c0:	e1a03001 	mov	r3, r1
    85c4:	e1a02000 	mov	r2, r0
    85c8:	e28f00c4 	add	r0, pc, #196	; 0xc4
    85cc:	e8900003 	ldmia	r0, {r0, r1}
    85d0:	eb0019b9 	bl	ecbc <__divdf3>
    85d4:	eb001abf 	bl	f0d8 <__truncdfsf2>
    85d8:	e59f30d4 	ldr	r3, [pc, #212]	; 86b4 <.text+0x86b4>
    85dc:	e1a02000 	mov	r2, r0
    85e0:	e5832000 	str	r2, [r3]
    85e4:	e3a03002 	mov	r3, #2	; 0x2
    85e8:	e5c43000 	strb	r3, [r4]
    85ec:	e59f30c4 	ldr	r3, [pc, #196]	; 86b8 <.text+0x86b8>
    85f0:	e3a00009 	mov	r0, #9	; 0x9
    85f4:	e5832000 	str	r2, [r3]
    85f8:	ebfff340 	bl	5300 <uart0_check_free_space>
    85fc:	e31000ff 	tst	r0, #255	; 0xff
    8600:	0a00001d 	beq	867c <ground_calibrate+0x178>
    8604:	e59f409c 	ldr	r4, [pc, #156]	; 86a8 <.text+0x86a8>
    8608:	e3a03000 	mov	r3, #0	; 0x0
    860c:	e3a00004 	mov	r0, #4	; 0x4
    8610:	e5c43000 	strb	r3, [r4]
    8614:	ebfff34d 	bl	5350 <uart0_transmit>
    8618:	e5d43000 	ldrb	r3, [r4]
    861c:	e2833005 	add	r3, r3, #5	; 0x5
    8620:	e3a00005 	mov	r0, #5	; 0x5
    8624:	e5c43000 	strb	r3, [r4]
    8628:	ebfff348 	bl	5350 <uart0_transmit>
    862c:	e5d43000 	ldrb	r3, [r4]
    8630:	e2833003 	add	r3, r3, #3	; 0x3
    8634:	e3a00003 	mov	r0, #3	; 0x3
    8638:	e5c43000 	strb	r3, [r4]
    863c:	ebfff343 	bl	5350 <uart0_transmit>
    8640:	e5d53000 	ldrb	r3, [r5]
    8644:	e5d42000 	ldrb	r2, [r4]
    8648:	e1a00003 	mov	r0, r3
    864c:	e0833002 	add	r3, r3, r2
    8650:	e5c43000 	strb	r3, [r4]
    8654:	ebfff33d 	bl	5350 <uart0_transmit>
    8658:	e5d53001 	ldrb	r3, [r5, #1]
    865c:	e5d42000 	ldrb	r2, [r4]
    8660:	e1a00003 	mov	r0, r3
    8664:	e0833002 	add	r3, r3, r2
    8668:	e5c43000 	strb	r3, [r4]
    866c:	ebfff337 	bl	5350 <uart0_transmit>
    8670:	e3a000ff 	mov	r0, #255	; 0xff
    8674:	ebfff335 	bl	5350 <uart0_transmit>
    8678:	ea000003 	b	868c <ground_calibrate+0x188>
    867c:	e59f2038 	ldr	r2, [pc, #56]	; 86bc <.text+0x86bc>
    8680:	e5d23000 	ldrb	r3, [r2]
    8684:	e2833001 	add	r3, r3, #1	; 0x1
    8688:	e5c23000 	strb	r3, [r2]
    868c:	e89d6830 	ldmia	sp, {r4, r5, fp, sp, lr}
    8690:	e12fff1e 	bx	lr
    8694:	3ffe6666 	swicc	0x00fe6666
    8698:	66666666 	strvsbt	r6, [r6], -r6, ror #12
    869c:	4000056c 	andmi	r0, r0, ip, ror #10
    86a0:	400007a4 	andmi	r0, r0, r4, lsr #15
    86a4:	40000003 	andmi	r0, r0, r3
    86a8:	40000d25 	andmi	r0, r0, r5, lsr #26
    86ac:	40000fe4 	andmi	r0, r0, r4, ror #31
    86b0:	40000fec 	andmi	r0, r0, ip, ror #31
    86b4:	40000fe8 	andmi	r0, r0, r8, ror #31
    86b8:	40000ff0 	strmid	r0, [r0], -r0
    86bc:	40000a8b 	andmi	r0, r0, fp, lsl #21

000086c0 <estimator_update_ir_estim>:
    86c0:	e1a0c00d 	mov	ip, sp
    86c4:	e92dd9f0 	stmdb	sp!, {r4, r5, r6, r7, r8, fp, ip, lr, pc}
    86c8:	e59f2448 	ldr	r2, [pc, #1096]	; 8b18 <.text+0x8b18>
    86cc:	e5d23000 	ldrb	r3, [r2]
    86d0:	e3530000 	cmp	r3, #0	; 0x0
    86d4:	e24cb004 	sub	fp, ip, #4	; 0x4
    86d8:	0a0000cf 	beq	8a1c <estimator_update_ir_estim+0x35c>
    86dc:	e59f3438 	ldr	r3, [pc, #1080]	; 8b1c <.text+0x8b1c>
    86e0:	e5932000 	ldr	r2, [r3]
    86e4:	e59f3434 	ldr	r3, [pc, #1076]	; 8b20 <.text+0x8b20>
    86e8:	e5933000 	ldr	r3, [r3]
    86ec:	e0522003 	subs	r2, r2, r3
    86f0:	4a000002 	bmi	8700 <estimator_update_ir_estim+0x40>
    86f4:	e1a00002 	mov	r0, r2
    86f8:	eb001b27 	bl	f39c <__floatsisf>
    86fc:	ea000004 	b	8714 <estimator_update_ir_estim+0x54>
    8700:	e2020001 	and	r0, r2, #1	; 0x1
    8704:	e18000a2 	orr	r0, r0, r2, lsr #1
    8708:	eb001b23 	bl	f39c <__floatsisf>
    870c:	e1a01000 	mov	r1, r0
    8710:	eb001aaf 	bl	f1d4 <__addsf3>
    8714:	e59f1408 	ldr	r1, [pc, #1032]	; 8b24 <.text+0x8b24>
    8718:	eb001b96 	bl	f578 <__divsf3>
    871c:	e1a07000 	mov	r7, r0
    8720:	eb0018b4 	bl	e9f8 <__extendsfdf2>
    8724:	e28f2fe5 	add	r2, pc, #916	; 0x394
    8728:	e892000c 	ldmia	r2, {r2, r3}
    872c:	eb0019ff 	bl	ef30 <__gedf2>
    8730:	e3500000 	cmp	r0, #0	; 0x0
    8734:	da0000d7 	ble	8a98 <estimator_update_ir_estim+0x3d8>
    8738:	e59f33e8 	ldr	r3, [pc, #1000]	; 8b28 <.text+0x8b28>
    873c:	e5930000 	ldr	r0, [r3]
    8740:	e59f33e4 	ldr	r3, [pc, #996]	; 8b2c <.text+0x8b2c>
    8744:	e5931000 	ldr	r1, [r3]
    8748:	eb001aa0 	bl	f1d0 <__subsf3>
    874c:	ea000001 	b	8758 <estimator_update_ir_estim+0x98>
    8750:	eb0017d1 	bl	e69c <__subdf3>
    8754:	eb001a5f 	bl	f0d8 <__truncdfsf2>
    8758:	e1a06000 	mov	r6, r0
    875c:	eb0018a5 	bl	e9f8 <__extendsfdf2>
    8760:	e28f2e36 	add	r2, pc, #864	; 0x360
    8764:	e892000c 	ldmia	r2, {r2, r3}
    8768:	e1a05001 	mov	r5, r1
    876c:	e1a04000 	mov	r4, r0
    8770:	eb0019ee 	bl	ef30 <__gedf2>
    8774:	e3500000 	cmp	r0, #0	; 0x0
    8778:	e28f2e35 	add	r2, pc, #848	; 0x350
    877c:	e892000c 	ldmia	r2, {r2, r3}
    8780:	e1a01005 	mov	r1, r5
    8784:	e1a00004 	mov	r0, r4
    8788:	cafffff0 	bgt	8750 <estimator_update_ir_estim+0x90>
    878c:	ea000002 	b	879c <estimator_update_ir_estim+0xdc>
    8790:	eb0017c2 	bl	e6a0 <__adddf3>
    8794:	eb001a4f 	bl	f0d8 <__truncdfsf2>
    8798:	e1a06000 	mov	r6, r0
    879c:	e1a00006 	mov	r0, r6
    87a0:	eb001894 	bl	e9f8 <__extendsfdf2>
    87a4:	e28f2fcb 	add	r2, pc, #812	; 0x32c
    87a8:	e892000c 	ldmia	r2, {r2, r3}
    87ac:	e1a05001 	mov	r5, r1
    87b0:	e1a04000 	mov	r4, r0
    87b4:	eb0019df 	bl	ef38 <__ledf2>
    87b8:	e3500000 	cmp	r0, #0	; 0x0
    87bc:	e28f2fc3 	add	r2, pc, #780	; 0x30c
    87c0:	e892000c 	ldmia	r2, {r2, r3}
    87c4:	e1a01005 	mov	r1, r5
    87c8:	e1a00004 	mov	r0, r4
    87cc:	baffffef 	blt	8790 <estimator_update_ir_estim+0xd0>
    87d0:	e1a01007 	mov	r1, r7
    87d4:	e1a00006 	mov	r0, r6
    87d8:	eb001b66 	bl	f578 <__divsf3>
    87dc:	eb001885 	bl	e9f8 <__extendsfdf2>
    87e0:	e28f2fbe 	add	r2, pc, #760	; 0x2f8
    87e4:	e892000c 	ldmia	r2, {r2, r3}
    87e8:	eb001895 	bl	ea44 <__muldf3>
    87ec:	e28f2fbd 	add	r2, pc, #756	; 0x2f4
    87f0:	e892000c 	ldmia	r2, {r2, r3}
    87f4:	eb001930 	bl	ecbc <__divdf3>
    87f8:	eb001a36 	bl	f0d8 <__truncdfsf2>
    87fc:	e59f732c 	ldr	r7, [pc, #812]	; 8b30 <.text+0x8b30>
    8800:	e5870000 	str	r0, [r7]
    8804:	ea000003 	b	8818 <estimator_update_ir_estim+0x158>
    8808:	eb0017a3 	bl	e69c <__subdf3>
    880c:	eb001a31 	bl	f0d8 <__truncdfsf2>
    8810:	e59f3318 	ldr	r3, [pc, #792]	; 8b30 <.text+0x8b30>
    8814:	e5830000 	str	r0, [r3]
    8818:	e5970000 	ldr	r0, [r7]
    881c:	eb001875 	bl	e9f8 <__extendsfdf2>
    8820:	e28f2e2a 	add	r2, pc, #672	; 0x2a0
    8824:	e892000c 	ldmia	r2, {r2, r3}
    8828:	e1a05001 	mov	r5, r1
    882c:	e1a04000 	mov	r4, r0
    8830:	eb0019be 	bl	ef30 <__gedf2>
    8834:	e3500000 	cmp	r0, #0	; 0x0
    8838:	e28f2e29 	add	r2, pc, #656	; 0x290
    883c:	e892000c 	ldmia	r2, {r2, r3}
    8840:	e1a01005 	mov	r1, r5
    8844:	e1a00004 	mov	r0, r4
    8848:	caffffee 	bgt	8808 <estimator_update_ir_estim+0x148>
    884c:	ea000002 	b	885c <estimator_update_ir_estim+0x19c>
    8850:	eb001792 	bl	e6a0 <__adddf3>
    8854:	eb001a1f 	bl	f0d8 <__truncdfsf2>
    8858:	e5850000 	str	r0, [r5]
    885c:	e5970000 	ldr	r0, [r7]
    8860:	eb001864 	bl	e9f8 <__extendsfdf2>
    8864:	e28f2f9b 	add	r2, pc, #620	; 0x26c
    8868:	e892000c 	ldmia	r2, {r2, r3}
    886c:	e1a05001 	mov	r5, r1
    8870:	e1a04000 	mov	r4, r0
    8874:	eb0019af 	bl	ef38 <__ledf2>
    8878:	e3500000 	cmp	r0, #0	; 0x0
    887c:	e28f2f93 	add	r2, pc, #588	; 0x24c
    8880:	e892000c 	ldmia	r2, {r2, r3}
    8884:	e1a01005 	mov	r1, r5
    8888:	e1a00004 	mov	r0, r4
    888c:	e59f529c 	ldr	r5, [pc, #668]	; 8b30 <.text+0x8b30>
    8890:	baffffee 	blt	8850 <estimator_update_ir_estim+0x190>
    8894:	e59f3298 	ldr	r3, [pc, #664]	; 8b34 <.text+0x8b34>
    8898:	e1d360f0 	ldrsh	r6, [r3]
    889c:	e1a00006 	mov	r0, r6
    88a0:	eb001abd 	bl	f39c <__floatsisf>
    88a4:	e5973000 	ldr	r3, [r7]
    88a8:	e3c34102 	bic	r4, r3, #-2147483648	; 0x80000000
    88ac:	e59f3284 	ldr	r3, [pc, #644]	; 8b38 <.text+0x8b38>
    88b0:	e1a08000 	mov	r8, r0
    88b4:	e3a015fe 	mov	r1, #1065353216	; 0x3f800000
    88b8:	e1a00004 	mov	r0, r4
    88bc:	e5838000 	str	r8, [r3]
    88c0:	eb001b96 	bl	f720 <__lesf2>
    88c4:	e3500000 	cmp	r0, #0	; 0x0
    88c8:	aa000072 	bge	8a98 <estimator_update_ir_estim+0x3d8>
    88cc:	e1a00004 	mov	r0, r4
    88d0:	eb001848 	bl	e9f8 <__extendsfdf2>
    88d4:	e28f2f85 	add	r2, pc, #532	; 0x214
    88d8:	e892000c 	ldmia	r2, {r2, r3}
    88dc:	eb001993 	bl	ef30 <__gedf2>
    88e0:	e3500000 	cmp	r0, #0	; 0x0
    88e4:	da00006b 	ble	8a98 <estimator_update_ir_estim+0x3d8>
    88e8:	e59f324c 	ldr	r3, [pc, #588]	; 8b3c <.text+0x8b3c>
    88ec:	e1d330b0 	ldrh	r3, [r3]
    88f0:	e1a01803 	mov	r1, r3, lsl #16
    88f4:	e1a02841 	mov	r2, r1, asr #16
    88f8:	e2623000 	rsb	r3, r2, #0	; 0x0
    88fc:	e0833fa3 	add	r3, r3, r3, lsr #31
    8900:	e15600c3 	cmp	r6, r3, asr #1
    8904:	da000063 	ble	8a98 <estimator_update_ir_estim+0x3d8>
    8908:	e0823fa1 	add	r3, r2, r1, lsr #31
    890c:	e15600c3 	cmp	r6, r3, asr #1
    8910:	aa000060 	bge	8a98 <estimator_update_ir_estim+0x3d8>
    8914:	e5950000 	ldr	r0, [r5]
    8918:	e1a01008 	mov	r1, r8
    891c:	eb001ab1 	bl	f3e8 <__mulsf3>
    8920:	eb001834 	bl	e9f8 <__extendsfdf2>
    8924:	e59f6214 	ldr	r6, [pc, #532]	; 8b40 <.text+0x8b40>
    8928:	e1a05001 	mov	r5, r1
    892c:	e1a04000 	mov	r4, r0
    8930:	e5960000 	ldr	r0, [r6]
    8934:	eb00182f 	bl	e9f8 <__extendsfdf2>
    8938:	e28f2f6e 	add	r2, pc, #440	; 0x1b8
    893c:	e892000c 	ldmia	r2, {r2, r3}
    8940:	eb00183f 	bl	ea44 <__muldf3>
    8944:	e1a03001 	mov	r3, r1
    8948:	e1a02000 	mov	r2, r0
    894c:	e1a01005 	mov	r1, r5
    8950:	e1a00004 	mov	r0, r4
    8954:	eb001751 	bl	e6a0 <__adddf3>
    8958:	eb0019de 	bl	f0d8 <__truncdfsf2>
    895c:	e1a07000 	mov	r7, r0
    8960:	e5867000 	str	r7, [r6]
    8964:	e1a01008 	mov	r1, r8
    8968:	e1a00008 	mov	r0, r8
    896c:	eb001a9d 	bl	f3e8 <__mulsf3>
    8970:	eb001820 	bl	e9f8 <__extendsfdf2>
    8974:	e59f61c8 	ldr	r6, [pc, #456]	; 8b44 <.text+0x8b44>
    8978:	e1a05001 	mov	r5, r1
    897c:	e1a04000 	mov	r4, r0
    8980:	e5960000 	ldr	r0, [r6]
    8984:	eb00181b 	bl	e9f8 <__extendsfdf2>
    8988:	e28f2f5a 	add	r2, pc, #360	; 0x168
    898c:	e892000c 	ldmia	r2, {r2, r3}
    8990:	eb00182b 	bl	ea44 <__muldf3>
    8994:	e1a03001 	mov	r3, r1
    8998:	e1a02000 	mov	r2, r0
    899c:	e1a01005 	mov	r1, r5
    89a0:	e1a00004 	mov	r0, r4
    89a4:	eb00173d 	bl	e6a0 <__adddf3>
    89a8:	eb0019ca 	bl	f0d8 <__truncdfsf2>
    89ac:	e1a03000 	mov	r3, r0
    89b0:	e5863000 	str	r3, [r6]
    89b4:	e1a01000 	mov	r1, r0
    89b8:	e1a00007 	mov	r0, r7
    89bc:	eb001aed 	bl	f578 <__divsf3>
    89c0:	e1a04000 	mov	r4, r0
    89c4:	eb00180b 	bl	e9f8 <__extendsfdf2>
    89c8:	e28f2e13 	add	r2, pc, #304	; 0x130
    89cc:	e892000c 	ldmia	r2, {r2, r3}
    89d0:	e1a07001 	mov	r7, r1
    89d4:	e1a06000 	mov	r6, r0
    89d8:	eb001956 	bl	ef38 <__ledf2>
    89dc:	e3500000 	cmp	r0, #0	; 0x0
    89e0:	b59f2160 	ldrlt	r2, [pc, #352]	; 8b48 <.text+0x8b48>
    89e4:	b59f3160 	ldrlt	r3, [pc, #352]	; 8b4c <.text+0x8b4c>
    89e8:	b5832000 	strlt	r2, [r3]
    89ec:	ba000029 	blt	8a98 <estimator_update_ir_estim+0x3d8>
    89f0:	e28f2e11 	add	r2, pc, #272	; 0x110
    89f4:	e892000c 	ldmia	r2, {r2, r3}
    89f8:	e1a01007 	mov	r1, r7
    89fc:	e1a00006 	mov	r0, r6
    8a00:	eb00194a 	bl	ef30 <__gedf2>
    8a04:	e3500000 	cmp	r0, #0	; 0x0
    8a08:	e59f213c 	ldr	r2, [pc, #316]	; 8b4c <.text+0x8b4c>
    8a0c:	c59f313c 	ldrgt	r3, [pc, #316]	; 8b50 <.text+0x8b50>
    8a10:	d5824000 	strle	r4, [r2]
    8a14:	c5823000 	strgt	r3, [r2]
    8a18:	ea00001e 	b	8a98 <estimator_update_ir_estim+0x3d8>
    8a1c:	e59f3118 	ldr	r3, [pc, #280]	; 8b3c <.text+0x8b3c>
    8a20:	e1d300f0 	ldrsh	r0, [r3]
    8a24:	e3a03001 	mov	r3, #1	; 0x1
    8a28:	e5c23000 	strb	r3, [r2]
    8a2c:	eb001a5a 	bl	f39c <__floatsisf>
    8a30:	e1a01000 	mov	r1, r0
    8a34:	eb001a6b 	bl	f3e8 <__mulsf3>
    8a38:	e59f310c 	ldr	r3, [pc, #268]	; 8b4c <.text+0x8b4c>
    8a3c:	e1a06000 	mov	r6, r0
    8a40:	e5930000 	ldr	r0, [r3]
    8a44:	eb0017eb 	bl	e9f8 <__extendsfdf2>
    8a48:	e28f20c0 	add	r2, pc, #192	; 0xc0
    8a4c:	e892000c 	ldmia	r2, {r2, r3}
    8a50:	eb0017fb 	bl	ea44 <__muldf3>
    8a54:	e1a05001 	mov	r5, r1
    8a58:	e1a04000 	mov	r4, r0
    8a5c:	e1a00006 	mov	r0, r6
    8a60:	eb0017e4 	bl	e9f8 <__extendsfdf2>
    8a64:	e1a03001 	mov	r3, r1
    8a68:	e1a02000 	mov	r2, r0
    8a6c:	e1a01005 	mov	r1, r5
    8a70:	e1a00004 	mov	r0, r4
    8a74:	eb0017f2 	bl	ea44 <__muldf3>
    8a78:	eb001996 	bl	f0d8 <__truncdfsf2>
    8a7c:	e59f30bc 	ldr	r3, [pc, #188]	; 8b40 <.text+0x8b40>
    8a80:	e59f10cc 	ldr	r1, [pc, #204]	; 8b54 <.text+0x8b54>
    8a84:	e5830000 	str	r0, [r3]
    8a88:	e1a00006 	mov	r0, r6
    8a8c:	eb001a55 	bl	f3e8 <__mulsf3>
    8a90:	e59f30ac 	ldr	r3, [pc, #172]	; 8b44 <.text+0x8b44>
    8a94:	e5830000 	str	r0, [r3]
    8a98:	e59f3088 	ldr	r3, [pc, #136]	; 8b28 <.text+0x8b28>
    8a9c:	e5932000 	ldr	r2, [r3]
    8aa0:	e59f3074 	ldr	r3, [pc, #116]	; 8b1c <.text+0x8b1c>
    8aa4:	e5931000 	ldr	r1, [r3]
    8aa8:	e59f307c 	ldr	r3, [pc, #124]	; 8b2c <.text+0x8b2c>
    8aac:	e5832000 	str	r2, [r3]
    8ab0:	e59f3068 	ldr	r3, [pc, #104]	; 8b20 <.text+0x8b20>
    8ab4:	e5831000 	str	r1, [r3]
    8ab8:	e89d69f0 	ldmia	sp, {r4, r5, r6, r7, r8, fp, sp, lr}
    8abc:	e12fff1e 	bx	lr
    8ac0:	3fb99999 	swicc	0x00b99999
    8ac4:	9999999a 	ldmlsib	r9, {r1, r3, r4, r7, r8, fp, ip, pc}
    8ac8:	400921fb 	strmid	r2, [r9], -fp
    8acc:	54442d18 	strplb	r2, [r4], #-3352
    8ad0:	401921fb 	ldrmish	r2, [r9], -fp
    8ad4:	54442d18 	strplb	r2, [r4], #-3352
    8ad8:	c00921fb 	strgtd	r2, [r9], -fp
    8adc:	54442d18 	strplb	r2, [r4], #-3352
    8ae0:	401c0000 	andmis	r0, ip, r0
    8ae4:	00000000 	andeq	r0, r0, r0
    8ae8:	40239eb8 	strmih	r9, [r3], -r8
    8aec:	51eb851f 	mvnpl	r8, pc, lsl r5
    8af0:	3fa99999 	swicc	0x00a99999
    8af4:	9999999a 	ldmlsib	r9, {r1, r3, r4, r7, r8, fp, ip, pc}
    8af8:	3fefd70a 	swicc	0x00efd70a
    8afc:	3d70a3d7 	ldcccl	3, cr10, [r0, #-860]!
    8b00:	3f489374 	swicc	0x00489374
    8b04:	bc6a7efa 	stcltl	14, cr7, [sl], #-1000
    8b08:	3f726e97 	swicc	0x00726e97
    8b0c:	8d4fdf3b 	stchil	15, cr13, [pc, #-236]
    8b10:	40590000 	submis	r0, r9, r0
    8b14:	00000000 	andeq	r0, r0, r0
    8b18:	40000578 	andmi	r0, r0, r8, ror r5
    8b1c:	40000f4c 	andmi	r0, r0, ip, asr #30
    8b20:	40000574 	andmi	r0, r0, r4, ror r5
    8b24:	447a0000 	ldrmibt	r0, [sl]
    8b28:	4000106c 	andmi	r1, r0, ip, rrx
    8b2c:	40000570 	andmi	r0, r0, r0, ror r5
    8b30:	40001014 	andmi	r1, r0, r4, lsl r0
    8b34:	40001020 	andmi	r1, r0, r0, lsr #32
    8b38:	40000ff8 	strmid	r0, [r0], -r8
    8b3c:	40000fec 	andmi	r0, r0, ip, ror #31
    8b40:	4000057c 	andmi	r0, r0, ip, ror r5
    8b44:	40000580 	andmi	r0, r0, r0, lsl #11
    8b48:	3a449ba6 	bcc	112f9e8 <_etext+0x111fe40>
    8b4c:	40000fe8 	andmi	r0, r0, r8, ror #31
    8b50:	3b9374bc 	blcc	fe4e5e48 <_end+0xbe4e3b48>
    8b54:	42c80000 	sbcmi	r0, r8, #0	; 0x0

00008b58 <estimator_update_state_infrared>:
    8b58:	e1a0c00d 	mov	ip, sp
    8b5c:	e92ddff0 	stmdb	sp!, {r4, r5, r6, r7, r8, r9, sl, fp, ip, lr, pc}
    8b60:	e59f31a8 	ldr	r3, [pc, #424]	; 8d10 <.text+0x8d10>
    8b64:	e5d33000 	ldrb	r3, [r3]
    8b68:	e3530001 	cmp	r3, #1	; 0x1
    8b6c:	059f31a0 	ldreq	r3, [pc, #416]	; 8d14 <.text+0x8d14>
    8b70:	159f31a0 	ldrne	r3, [pc, #416]	; 8d18 <.text+0x8d18>
    8b74:	e59f41a0 	ldr	r4, [pc, #416]	; 8d1c <.text+0x8d1c>
    8b78:	e5937000 	ldr	r7, [r3]
    8b7c:	e59f319c 	ldr	r3, [pc, #412]	; 8d20 <.text+0x8d20>
    8b80:	e5935000 	ldr	r5, [r3]
    8b84:	e1d430f0 	ldrsh	r3, [r4]
    8b88:	e3530001 	cmp	r3, #1	; 0x1
    8b8c:	b3a03001 	movlt	r3, #1	; 0x1
    8b90:	e24cb004 	sub	fp, ip, #4	; 0x4
    8b94:	e1c430b0 	strh	r3, [r4]
    8b98:	e1a01005 	mov	r1, r5
    8b9c:	e3a005fe 	mov	r0, #1065353216	; 0x3f800000
    8ba0:	eb00198a 	bl	f1d0 <__subsf3>
    8ba4:	e1a01000 	mov	r1, r0
    8ba8:	e1a00007 	mov	r0, r7
    8bac:	eb001a0d 	bl	f3e8 <__mulsf3>
    8bb0:	eb001790 	bl	e9f8 <__extendsfdf2>
    8bb4:	e1a08001 	mov	r8, r1
    8bb8:	e1a07000 	mov	r7, r0
    8bbc:	e1a00005 	mov	r0, r5
    8bc0:	eb00178c 	bl	e9f8 <__extendsfdf2>
    8bc4:	e1a06001 	mov	r6, r1
    8bc8:	e1a05000 	mov	r5, r0
    8bcc:	e1d400f0 	ldrsh	r0, [r4]
    8bd0:	eb00177d 	bl	e9cc <__floatsidf>
    8bd4:	e28f3f49 	add	r3, pc, #292	; 0x124
    8bd8:	e8930018 	ldmia	r3, {r3, r4}
    8bdc:	e001a004 	and	sl, r1, r4
    8be0:	e0009003 	and	r9, r0, r3
    8be4:	e1a0300a 	mov	r3, sl
    8be8:	e1a02009 	mov	r2, r9
    8bec:	e28f0f45 	add	r0, pc, #276	; 0x114
    8bf0:	e8900003 	ldmia	r0, {r0, r1}
    8bf4:	eb001830 	bl	ecbc <__divdf3>
    8bf8:	e1a03001 	mov	r3, r1
    8bfc:	e1a02000 	mov	r2, r0
    8c00:	e1a01006 	mov	r1, r6
    8c04:	e1a00005 	mov	r0, r5
    8c08:	eb00178d 	bl	ea44 <__muldf3>
    8c0c:	e1a03001 	mov	r3, r1
    8c10:	e1a02000 	mov	r2, r0
    8c14:	e1a01008 	mov	r1, r8
    8c18:	e1a00007 	mov	r0, r7
    8c1c:	eb00169f 	bl	e6a0 <__adddf3>
    8c20:	eb00192c 	bl	f0d8 <__truncdfsf2>
    8c24:	e59f30f8 	ldr	r3, [pc, #248]	; 8d24 <.text+0x8d24>
    8c28:	e1a04000 	mov	r4, r0
    8c2c:	e1d300f0 	ldrsh	r0, [r3]
    8c30:	eb0019d9 	bl	f39c <__floatsisf>
    8c34:	e1a01000 	mov	r1, r0
    8c38:	e1a00004 	mov	r0, r4
    8c3c:	eb0019e9 	bl	f3e8 <__mulsf3>
    8c40:	e59f30e0 	ldr	r3, [pc, #224]	; 8d28 <.text+0x8d28>
    8c44:	e5931000 	ldr	r1, [r3]
    8c48:	eb001960 	bl	f1d0 <__subsf3>
    8c4c:	e59f70d8 	ldr	r7, [pc, #216]	; 8d2c <.text+0x8d2c>
    8c50:	e59f30d8 	ldr	r3, [pc, #216]	; 8d30 <.text+0x8d30>
    8c54:	e1a05000 	mov	r5, r0
    8c58:	e5875000 	str	r5, [r7]
    8c5c:	e1d300f0 	ldrsh	r0, [r3]
    8c60:	eb0019cd 	bl	f39c <__floatsisf>
    8c64:	e1a01000 	mov	r1, r0
    8c68:	e1a00004 	mov	r0, r4
    8c6c:	eb0019dd 	bl	f3e8 <__mulsf3>
    8c70:	e59f30bc 	ldr	r3, [pc, #188]	; 8d34 <.text+0x8d34>
    8c74:	e5931000 	ldr	r1, [r3]
    8c78:	eb001954 	bl	f1d0 <__subsf3>
    8c7c:	e59f60b4 	ldr	r6, [pc, #180]	; 8d38 <.text+0x8d38>
    8c80:	e3a01000 	mov	r1, #0	; 0x0
    8c84:	e5860000 	str	r0, [r6]
    8c88:	e1a00005 	mov	r0, r5
    8c8c:	eb001aa1 	bl	f718 <__gesf2>
    8c90:	e3500000 	cmp	r0, #0	; 0x0
    8c94:	a59f30a0 	ldrge	r3, [pc, #160]	; 8d3c <.text+0x8d3c>
    8c98:	b59f30a0 	ldrlt	r3, [pc, #160]	; 8d40 <.text+0x8d40>
    8c9c:	a5931000 	ldrge	r1, [r3]
    8ca0:	b5931000 	ldrlt	r1, [r3]
    8ca4:	e1a00005 	mov	r0, r5
    8ca8:	b1a00005 	movlt	r0, r5
    8cac:	eb0019cd 	bl	f3e8 <__mulsf3>
    8cb0:	e5964000 	ldr	r4, [r6]
    8cb4:	e5870000 	str	r0, [r7]
    8cb8:	e3a01000 	mov	r1, #0	; 0x0
    8cbc:	e1a00004 	mov	r0, r4
    8cc0:	eb001a94 	bl	f718 <__gesf2>
    8cc4:	e3500000 	cmp	r0, #0	; 0x0
    8cc8:	e1a00004 	mov	r0, r4
    8ccc:	ba000004 	blt	8ce4 <estimator_update_state_infrared+0x18c>
    8cd0:	e59f306c 	ldr	r3, [pc, #108]	; 8d44 <.text+0x8d44>
    8cd4:	e5931000 	ldr	r1, [r3]
    8cd8:	eb0019c2 	bl	f3e8 <__mulsf3>
    8cdc:	e5860000 	str	r0, [r6]
    8ce0:	ea000004 	b	8cf8 <estimator_update_state_infrared+0x1a0>
    8ce4:	e59f305c 	ldr	r3, [pc, #92]	; 8d48 <.text+0x8d48>
    8ce8:	e5931000 	ldr	r1, [r3]
    8cec:	eb0019bd 	bl	f3e8 <__mulsf3>
    8cf0:	e59f3040 	ldr	r3, [pc, #64]	; 8d38 <.text+0x8d38>
    8cf4:	e5830000 	str	r0, [r3]
    8cf8:	e89d6ff0 	ldmia	sp, {r4, r5, r6, r7, r8, r9, sl, fp, sp, lr}
    8cfc:	e12fff1e 	bx	lr
    8d00:	7fffffff 	swivc	0x00ffffff
    8d04:	ffffffff 	swinv	0x00ffffff
    8d08:	3ffe6666 	swicc	0x00fe6666
    8d0c:	60000000 	andvs	r0, r0, r0
    8d10:	400004ab 	andmi	r0, r0, fp, lsr #9
    8d14:	40000fe8 	andmi	r0, r0, r8, ror #31
    8d18:	40000ff0 	strmid	r0, [r0], -r0
    8d1c:	40000fde 	ldrmid	r0, [r0], -lr
    8d20:	40001008 	andmi	r1, r0, r8
    8d24:	40001020 	andmi	r1, r0, r0, lsr #32
    8d28:	40001024 	andmi	r1, r0, r4, lsr #32
    8d2c:	40001058 	andmi	r1, r0, r8, asr r0
    8d30:	40000fe4 	andmi	r0, r0, r4, ror #31
    8d34:	40000ffc 	strmid	r0, [r0], -ip
    8d38:	40001050 	andmi	r1, r0, r0, asr r0
    8d3c:	4000100c 	andmi	r1, r0, ip
    8d40:	40000fd8 	ldrmid	r0, [r0], -r8
    8d44:	40001018 	andmi	r1, r0, r8, lsl r0
    8d48:	40000ff4 	strmid	r0, [r0], -r4

00008d4c <estimator_init>:
    8d4c:	e59f2094 	ldr	r2, [pc, #148]	; 8de8 <.text+0x8de8>
    8d50:	e3a03000 	mov	r3, #0	; 0x0
    8d54:	e5823000 	str	r3, [r2]
    8d58:	e59f208c 	ldr	r2, [pc, #140]	; 8dec <.text+0x8dec>
    8d5c:	e5823000 	str	r3, [r2]
    8d60:	e59f2088 	ldr	r2, [pc, #136]	; 8df0 <.text+0x8df0>
    8d64:	e5823000 	str	r3, [r2]
    8d68:	e59f2084 	ldr	r2, [pc, #132]	; 8df4 <.text+0x8df4>
    8d6c:	e5823000 	str	r3, [r2]
    8d70:	e59f2080 	ldr	r2, [pc, #128]	; 8df8 <.text+0x8df8>
    8d74:	e5823000 	str	r3, [r2]
    8d78:	e59f207c 	ldr	r2, [pc, #124]	; 8dfc <.text+0x8dfc>
    8d7c:	e5823000 	str	r3, [r2]
    8d80:	e59f2078 	ldr	r2, [pc, #120]	; 8e00 <.text+0x8e00>
    8d84:	e5823000 	str	r3, [r2]
    8d88:	e59f2074 	ldr	r2, [pc, #116]	; 8e04 <.text+0x8e04>
    8d8c:	e5823000 	str	r3, [r2]
    8d90:	e59f2070 	ldr	r2, [pc, #112]	; 8e08 <.text+0x8e08>
    8d94:	e5823000 	str	r3, [r2]
    8d98:	e59f206c 	ldr	r2, [pc, #108]	; 8e0c <.text+0x8e0c>
    8d9c:	e5823000 	str	r3, [r2]
    8da0:	e59f2068 	ldr	r2, [pc, #104]	; 8e10 <.text+0x8e10>
    8da4:	e5823000 	str	r3, [r2]
    8da8:	e59f2064 	ldr	r2, [pc, #100]	; 8e14 <.text+0x8e14>
    8dac:	e5823000 	str	r3, [r2]
    8db0:	e59f2060 	ldr	r2, [pc, #96]	; 8e18 <.text+0x8e18>
    8db4:	e5823000 	str	r3, [r2]
    8db8:	e59f205c 	ldr	r2, [pc, #92]	; 8e1c <.text+0x8e1c>
    8dbc:	e5823000 	str	r3, [r2]
    8dc0:	e59f2058 	ldr	r2, [pc, #88]	; 8e20 <.text+0x8e20>
    8dc4:	e5823000 	str	r3, [r2]
    8dc8:	e59f2054 	ldr	r2, [pc, #84]	; 8e24 <.text+0x8e24>
    8dcc:	e5823000 	str	r3, [r2]
    8dd0:	e59f2050 	ldr	r2, [pc, #80]	; 8e28 <.text+0x8e28>
    8dd4:	e5823000 	str	r3, [r2]
    8dd8:	e59f304c 	ldr	r3, [pc, #76]	; 8e2c <.text+0x8e2c>
    8ddc:	e3a02000 	mov	r2, #0	; 0x0
    8de0:	e1c320b0 	strh	r2, [r3]
    8de4:	e12fff1e 	bx	lr
    8de8:	40001080 	andmi	r1, r0, r0, lsl #1
    8dec:	40001060 	andmi	r1, r0, r0, rrx
    8df0:	4000107c 	andmi	r1, r0, ip, ror r0
    8df4:	40001038 	andmi	r1, r0, r8, lsr r0
    8df8:	40001058 	andmi	r1, r0, r8, asr r0
    8dfc:	40001034 	andmi	r1, r0, r4, lsr r0
    8e00:	40001050 	andmi	r1, r0, r0, asr r0
    8e04:	40001054 	andmi	r1, r0, r4, asr r0
    8e08:	4000106c 	andmi	r1, r0, ip, rrx
    8e0c:	4000102c 	andmi	r1, r0, ip, lsr #32
    8e10:	4000104c 	andmi	r1, r0, ip, asr #32
    8e14:	40001068 	andmi	r1, r0, r8, rrx
    8e18:	4000105c 	andmi	r1, r0, ip, asr r0
    8e1c:	40001074 	andmi	r1, r0, r4, ror r0
    8e20:	40001048 	andmi	r1, r0, r8, asr #32
    8e24:	4000103c 	andmi	r1, r0, ip, lsr r0
    8e28:	40001064 	andmi	r1, r0, r4, rrx
    8e2c:	40001030 	andmi	r1, r0, r0, lsr r0

00008e30 <estimator_propagate_state>:
    8e30:	e12fff1e 	bx	lr

00008e34 <nav_init_stage>:
    8e34:	e52de004 	str	lr, [sp, #-4]!
    8e38:	e59f3050 	ldr	r3, [pc, #80]	; 8e90 <.text+0x8e90>
    8e3c:	e5931000 	ldr	r1, [r3]
    8e40:	e59f304c 	ldr	r3, [pc, #76]	; 8e94 <.text+0x8e94>
    8e44:	e5930000 	ldr	r0, [r3]
    8e48:	e59f3048 	ldr	r3, [pc, #72]	; 8e98 <.text+0x8e98>
    8e4c:	e5831000 	str	r1, [r3]
    8e50:	e59f3044 	ldr	r3, [pc, #68]	; 8e9c <.text+0x8e9c>
    8e54:	e5830000 	str	r0, [r3]
    8e58:	e59f3040 	ldr	r3, [pc, #64]	; 8ea0 <.text+0x8ea0>
    8e5c:	e3a0e000 	mov	lr, #0	; 0x0
    8e60:	e583e000 	str	lr, [r3]
    8e64:	e59f3038 	ldr	r3, [pc, #56]	; 8ea4 <.text+0x8ea4>
    8e68:	e3a02000 	mov	r2, #0	; 0x0
    8e6c:	e5c32000 	strb	r2, [r3]
    8e70:	e59f3030 	ldr	r3, [pc, #48]	; 8ea8 <.text+0x8ea8>
    8e74:	e5c32000 	strb	r2, [r3]
    8e78:	e59f302c 	ldr	r3, [pc, #44]	; 8eac <.text+0x8eac>
    8e7c:	e1c320b0 	strh	r2, [r3]
    8e80:	e59f3028 	ldr	r3, [pc, #40]	; 8eb0 <.text+0x8eb0>
    8e84:	e583e000 	str	lr, [r3]
    8e88:	e49de004 	ldr	lr, [sp], #4
    8e8c:	e12fff1e 	bx	lr
    8e90:	40001060 	andmi	r1, r0, r0, rrx
    8e94:	4000107c 	andmi	r1, r0, ip, ror r0
    8e98:	4000062c 	andmi	r0, r0, ip, lsr #12
    8e9c:	40000630 	andmi	r0, r0, r0, lsr r6
    8ea0:	40000638 	andmi	r0, r0, r8, lsr r6
    8ea4:	4000061d 	andmi	r0, r0, sp, lsl r6
    8ea8:	4000061c 	andmi	r0, r0, ip, lsl r6
    8eac:	400010dc 	ldrmid	r1, [r0], -ip
    8eb0:	40001098 	mulmi	r0, r8, r0

00008eb4 <nav_circle_XY>:
    8eb4:	e1a0c00d 	mov	ip, sp
    8eb8:	e92ddff0 	stmdb	sp!, {r4, r5, r6, r7, r8, r9, sl, fp, ip, lr, pc}
    8ebc:	e59f3270 	ldr	r3, [pc, #624]	; 9134 <.text+0x9134>
    8ec0:	e24cb004 	sub	fp, ip, #4	; 0x4
    8ec4:	e24dd014 	sub	sp, sp, #20	; 0x14
    8ec8:	e50b002c 	str	r0, [fp, #-44]
    8ecc:	e5930000 	ldr	r0, [r3]
    8ed0:	e50b2034 	str	r2, [fp, #-52]
    8ed4:	e50b1030 	str	r1, [fp, #-48]
    8ed8:	eb0018bc 	bl	f1d0 <__subsf3>
    8edc:	eb0016c5 	bl	e9f8 <__extendsfdf2>
    8ee0:	e59fc258 	ldr	ip, [pc, #600]	; 9140 <.text+0x9140>
    8ee4:	e1a05001 	mov	r5, r1
    8ee8:	e1a04000 	mov	r4, r0
    8eec:	e59c0000 	ldr	r0, [ip]
    8ef0:	e51b102c 	ldr	r1, [fp, #-44]
    8ef4:	eb0018b5 	bl	f1d0 <__subsf3>
    8ef8:	eb0016be 	bl	e9f8 <__extendsfdf2>
    8efc:	e59f920c 	ldr	r9, [pc, #524]	; 9110 <.text+0x9110>
    8f00:	e1a03001 	mov	r3, r1
    8f04:	e1a02000 	mov	r2, r0
    8f08:	e1a01005 	mov	r1, r5
    8f0c:	e1a00004 	mov	r0, r4
    8f10:	e5994000 	ldr	r4, [r9]
    8f14:	eb001a5a 	bl	f884 <__atan2_from_arm>
    8f18:	eb00186e 	bl	f0d8 <__truncdfsf2>
    8f1c:	e59f2224 	ldr	r2, [pc, #548]	; 9148 <.text+0x9148>
    8f20:	e5d23000 	ldrb	r3, [r2]
    8f24:	e3530000 	cmp	r3, #0	; 0x0
    8f28:	e5890000 	str	r0, [r9]
    8f2c:	0a000027 	beq	8fd0 <nav_circle_XY+0x11c>
    8f30:	e1a01004 	mov	r1, r4
    8f34:	eb0018a5 	bl	f1d0 <__subsf3>
    8f38:	ea000001 	b	8f44 <nav_circle_XY+0x90>
    8f3c:	eb0015d6 	bl	e69c <__subdf3>
    8f40:	eb001864 	bl	f0d8 <__truncdfsf2>
    8f44:	e1a06000 	mov	r6, r0
    8f48:	eb0016aa 	bl	e9f8 <__extendsfdf2>
    8f4c:	e28f2f67 	add	r2, pc, #412	; 0x19c
    8f50:	e892000c 	ldmia	r2, {r2, r3}
    8f54:	e1a05001 	mov	r5, r1
    8f58:	e1a04000 	mov	r4, r0
    8f5c:	eb0017f3 	bl	ef30 <__gedf2>
    8f60:	e3500000 	cmp	r0, #0	; 0x0
    8f64:	e28f2f63 	add	r2, pc, #396	; 0x18c
    8f68:	e892000c 	ldmia	r2, {r2, r3}
    8f6c:	e1a01005 	mov	r1, r5
    8f70:	e1a00004 	mov	r0, r4
    8f74:	cafffff0 	bgt	8f3c <nav_circle_XY+0x88>
    8f78:	ea000002 	b	8f88 <nav_circle_XY+0xd4>
    8f7c:	eb0015c7 	bl	e6a0 <__adddf3>
    8f80:	eb001854 	bl	f0d8 <__truncdfsf2>
    8f84:	e1a06000 	mov	r6, r0
    8f88:	e1a00006 	mov	r0, r6
    8f8c:	eb001699 	bl	e9f8 <__extendsfdf2>
    8f90:	e28f2f5a 	add	r2, pc, #360	; 0x168
    8f94:	e892000c 	ldmia	r2, {r2, r3}
    8f98:	e1a05001 	mov	r5, r1
    8f9c:	e1a04000 	mov	r4, r0
    8fa0:	eb0017e4 	bl	ef38 <__ledf2>
    8fa4:	e3500000 	cmp	r0, #0	; 0x0
    8fa8:	e28f2f52 	add	r2, pc, #328	; 0x148
    8fac:	e892000c 	ldmia	r2, {r2, r3}
    8fb0:	e1a01005 	mov	r1, r5
    8fb4:	e1a00004 	mov	r0, r4
    8fb8:	baffffef 	blt	8f7c <nav_circle_XY+0xc8>
    8fbc:	e59f4150 	ldr	r4, [pc, #336]	; 9114 <.text+0x9114>
    8fc0:	e1a01006 	mov	r1, r6
    8fc4:	e5940000 	ldr	r0, [r4]
    8fc8:	eb001881 	bl	f1d4 <__addsf3>
    8fcc:	e5840000 	str	r0, [r4]
    8fd0:	e59f3168 	ldr	r3, [pc, #360]	; 9140 <.text+0x9140>
    8fd4:	e51b102c 	ldr	r1, [fp, #-44]
    8fd8:	e5930000 	ldr	r0, [r3]
    8fdc:	eb00187b 	bl	f1d0 <__subsf3>
    8fe0:	e1a01000 	mov	r1, r0
    8fe4:	eb0018ff 	bl	f3e8 <__mulsf3>
    8fe8:	e59fc144 	ldr	ip, [pc, #324]	; 9134 <.text+0x9134>
    8fec:	e1a04000 	mov	r4, r0
    8ff0:	e51b1030 	ldr	r1, [fp, #-48]
    8ff4:	e59c0000 	ldr	r0, [ip]
    8ff8:	eb001874 	bl	f1d0 <__subsf3>
    8ffc:	e1a01000 	mov	r1, r0
    9000:	eb0018f8 	bl	f3e8 <__mulsf3>
    9004:	e1a01000 	mov	r1, r0
    9008:	e1a00004 	mov	r0, r4
    900c:	eb001870 	bl	f1d4 <__addsf3>
    9010:	e59f310c 	ldr	r3, [pc, #268]	; 9124 <.text+0x9124>
    9014:	e5938000 	ldr	r8, [r3]
    9018:	e1a05000 	mov	r5, r0
    901c:	e59f10f4 	ldr	r1, [pc, #244]	; 9118 <.text+0x9118>
    9020:	e1a00008 	mov	r0, r8
    9024:	eb0018ef 	bl	f3e8 <__mulsf3>
    9028:	e3a01000 	mov	r1, #0	; 0x0
    902c:	e1a04000 	mov	r4, r0
    9030:	e51b0034 	ldr	r0, [fp, #-52]
    9034:	eb0019b7 	bl	f718 <__gesf2>
    9038:	e51b2034 	ldr	r2, [fp, #-52]
    903c:	e59fa0d8 	ldr	sl, [pc, #216]	; 911c <.text+0x911c>
    9040:	e3c26102 	bic	r6, r2, #-2147483648	; 0x80000000
    9044:	e3500000 	cmp	r0, #0	; 0x0
    9048:	e3a035fe 	mov	r3, #1065353216	; 0x3f800000
    904c:	e1a01004 	mov	r1, r4
    9050:	e1a00006 	mov	r0, r6
    9054:	c1a0a003 	movgt	sl, r3
    9058:	eb00185d 	bl	f1d4 <__addsf3>
    905c:	e1a01000 	mov	r1, r0
    9060:	eb0018e0 	bl	f3e8 <__mulsf3>
    9064:	e1a01000 	mov	r1, r0
    9068:	e1a00005 	mov	r0, r5
    906c:	eb0019a9 	bl	f718 <__gesf2>
    9070:	e3500000 	cmp	r0, #0	; 0x0
    9074:	ca00003f 	bgt	9178 <.text+0x9178>
    9078:	e1a01004 	mov	r1, r4
    907c:	e1a00006 	mov	r0, r6
    9080:	eb001852 	bl	f1d0 <__subsf3>
    9084:	e1a01000 	mov	r1, r0
    9088:	eb0018d6 	bl	f3e8 <__mulsf3>
    908c:	e1a01000 	mov	r1, r0
    9090:	e1a00005 	mov	r0, r5
    9094:	eb0019a1 	bl	f720 <__lesf2>
    9098:	e3500000 	cmp	r0, #0	; 0x0
    909c:	ba000035 	blt	9178 <.text+0x9178>
    90a0:	e1a01008 	mov	r1, r8
    90a4:	e1a00008 	mov	r0, r8
    90a8:	eb0018ce 	bl	f3e8 <__mulsf3>
    90ac:	eb001651 	bl	e9f8 <__extendsfdf2>
    90b0:	e1a05001 	mov	r5, r1
    90b4:	e1a04000 	mov	r4, r0
    90b8:	e51b0034 	ldr	r0, [fp, #-52]
    90bc:	eb00164d 	bl	e9f8 <__extendsfdf2>
    90c0:	e28f2040 	add	r2, pc, #64	; 0x40
    90c4:	e892000c 	ldmia	r2, {r2, r3}
    90c8:	eb00165d 	bl	ea44 <__muldf3>
    90cc:	e1a03001 	mov	r3, r1
    90d0:	e1a02000 	mov	r2, r0
    90d4:	e1a01005 	mov	r1, r5
    90d8:	e1a00004 	mov	r0, r4
    90dc:	eb0016f6 	bl	ecbc <__divdf3>
    90e0:	eb0019ea 	bl	f890 <__atan_from_arm>
    90e4:	eb0017fb 	bl	f0d8 <__truncdfsf2>
    90e8:	e1a02000 	mov	r2, r0
    90ec:	ea000022 	b	917c <.text+0x917c>
    90f0:	400921fb 	strmid	r2, [r9], -fp
    90f4:	54442d18 	strplb	r2, [r4], #-3352
    90f8:	401921fb 	ldrmish	r2, [r9], -fp
    90fc:	54442d18 	strplb	r2, [r4], #-3352
    9100:	c00921fb 	strgtd	r2, [r9], -fp
    9104:	54442d18 	strplb	r2, [r4], #-3352
    9108:	40239cac 	eormi	r9, r3, ip, lsr #25
    910c:	083126e9 	ldmeqda	r1!, {r0, r3, r5, r6, r7, r9, sl, sp}
    9110:	400010e0 	andmi	r1, r0, r0, ror #1
    9114:	40000638 	andmi	r0, r0, r8, lsr r6
    9118:	40a00000 	adcmi	r0, r0, r0
    911c:	bf800000 	swilt	0x00800000
    9120:	40000618 	andmi	r0, r0, r8, lsl r6
    9124:	40001054 	andmi	r1, r0, r4, asr r0
    9128:	3f490fdb 	swicc	0x00490fdb
    912c:	3e490fdb 	mcrcc	15, 2, r0, cr9, cr11, {6}
    9130:	400010ac 	andmi	r1, r0, ip, lsr #1
    9134:	4000107c 	andmi	r1, r0, ip, ror r0
    9138:	40001090 	mulmi	r0, r0, r0
    913c:	400010a4 	andmi	r1, r0, r4, lsr #1
    9140:	40001060 	andmi	r1, r0, r0, rrx
    9144:	400010f0 	strmid	r1, [r0], -r0
    9148:	4000061d 	andmi	r0, r0, sp, lsl r6
    914c:	400010cc 	andmi	r1, r0, ip, asr #1
    9150:	400010ae 	andmi	r1, r0, lr, lsr #1
    9154:	40001096 	mulmi	r0, r6, r0
    9158:	40140000 	andmis	r0, r4, r0
    915c:	00000000 	andeq	r0, r0, r0
    9160:	3fe921fb 	swicc	0x00e921fb
    9164:	54442d18 	strplb	r2, [r4], #-3352
    9168:	3fc921fb 	swicc	0x00c921fb
    916c:	54442d18 	strplb	r2, [r4], #-3352
    9170:	3ff921fb 	swicc	0x00f921fb
    9174:	54442d18 	strplb	r2, [r4], #-3352
    9178:	e3a02000 	mov	r2, #0	; 0x0
    917c:	e51f3064 	ldr	r3, [pc, #-100]	; 9120 <.text+0x9120>
    9180:	e1a00006 	mov	r0, r6
    9184:	e5832000 	str	r2, [r3]
    9188:	eb00161a 	bl	e9f8 <__extendsfdf2>
    918c:	e1a07001 	mov	r7, r1
    9190:	e1a06000 	mov	r6, r0
    9194:	e1a03001 	mov	r3, r1
    9198:	e1a02000 	mov	r2, r0
    919c:	e24f004c 	sub	r0, pc, #76	; 0x4c
    91a0:	e8900003 	ldmia	r0, {r0, r1}
    91a4:	eb0016c4 	bl	ecbc <__divdf3>
    91a8:	e51f308c 	ldr	r3, [pc, #-140]	; 9124 <.text+0x9124>
    91ac:	e1a05001 	mov	r5, r1
    91b0:	e1a04000 	mov	r4, r0
    91b4:	e5930000 	ldr	r0, [r3]
    91b8:	eb00160e 	bl	e9f8 <__extendsfdf2>
    91bc:	e1a03001 	mov	r3, r1
    91c0:	e1a02000 	mov	r2, r0
    91c4:	e1a01005 	mov	r1, r5
    91c8:	e1a00004 	mov	r0, r4
    91cc:	eb00161c 	bl	ea44 <__muldf3>
    91d0:	eb0017c0 	bl	f0d8 <__truncdfsf2>
    91d4:	e1a04000 	mov	r4, r0
    91d8:	eb001606 	bl	e9f8 <__extendsfdf2>
    91dc:	e24f2084 	sub	r2, pc, #132	; 0x84
    91e0:	e892000c 	ldmia	r2, {r2, r3}
    91e4:	eb001753 	bl	ef38 <__ledf2>
    91e8:	e51f30c8 	ldr	r3, [pc, #-200]	; 9128 <.text+0x9128>
    91ec:	e3500000 	cmp	r0, #0	; 0x0
    91f0:	a1a04003 	movge	r4, r3
    91f4:	e1a00004 	mov	r0, r4
    91f8:	eb0015fe 	bl	e9f8 <__extendsfdf2>
    91fc:	e24f209c 	sub	r2, pc, #156	; 0x9c
    9200:	e892000c 	ldmia	r2, {r2, r3}
    9204:	eb001749 	bl	ef30 <__gedf2>
    9208:	e51f30e4 	ldr	r3, [pc, #-228]	; 912c <.text+0x912c>
    920c:	e3500000 	cmp	r0, #0	; 0x0
    9210:	d1a04003 	movle	r4, r3
    9214:	e1a01004 	mov	r1, r4
    9218:	e1a0000a 	mov	r0, sl
    921c:	eb001871 	bl	f3e8 <__mulsf3>
    9220:	e1a01000 	mov	r1, r0
    9224:	e5990000 	ldr	r0, [r9]
    9228:	eb0017e8 	bl	f1d0 <__subsf3>
    922c:	e51f3104 	ldr	r3, [pc, #-260]	; 9130 <.text+0x9130>
    9230:	e3a02002 	mov	r2, #2	; 0x2
    9234:	e1a05000 	mov	r5, r0
    9238:	e5c32000 	strb	r2, [r3]
    923c:	e1a00004 	mov	r0, r4
    9240:	eb0015ec 	bl	e9f8 <__extendsfdf2>
    9244:	eb001994 	bl	f89c <__cos_from_arm>
    9248:	e1a03001 	mov	r3, r1
    924c:	e1a02000 	mov	r2, r0
    9250:	e1a01007 	mov	r1, r7
    9254:	e1a00006 	mov	r0, r6
    9258:	eb001697 	bl	ecbc <__divdf3>
    925c:	e1a03007 	mov	r3, r7
    9260:	e1a02006 	mov	r2, r6
    9264:	eb00150c 	bl	e69c <__subdf3>
    9268:	e1a03001 	mov	r3, r1
    926c:	e1a02000 	mov	r2, r0
    9270:	e1a01007 	mov	r1, r7
    9274:	e1a00006 	mov	r0, r6
    9278:	eb001508 	bl	e6a0 <__adddf3>
    927c:	eb001795 	bl	f0d8 <__truncdfsf2>
    9280:	e1a06000 	mov	r6, r0
    9284:	e51b002c 	ldr	r0, [fp, #-44]
    9288:	eb0015da 	bl	e9f8 <__extendsfdf2>
    928c:	e24b3040 	sub	r3, fp, #64	; 0x40
    9290:	e9830003 	stmib	r3, {r0, r1}
    9294:	e1a00005 	mov	r0, r5
    9298:	eb0015d6 	bl	e9f8 <__extendsfdf2>
    929c:	e1a09001 	mov	r9, r1
    92a0:	e1a08000 	mov	r8, r0
    92a4:	eb00197c 	bl	f89c <__cos_from_arm>
    92a8:	e1a05001 	mov	r5, r1
    92ac:	e1a04000 	mov	r4, r0
    92b0:	e1a00006 	mov	r0, r6
    92b4:	eb0015cf 	bl	e9f8 <__extendsfdf2>
    92b8:	e1a07001 	mov	r7, r1
    92bc:	e1a06000 	mov	r6, r0
    92c0:	e1a03007 	mov	r3, r7
    92c4:	e1a02006 	mov	r2, r6
    92c8:	e1a01005 	mov	r1, r5
    92cc:	e1a00004 	mov	r0, r4
    92d0:	eb0015db 	bl	ea44 <__muldf3>
    92d4:	e24bc040 	sub	ip, fp, #64	; 0x40
    92d8:	e1a03001 	mov	r3, r1
    92dc:	e1a02000 	mov	r2, r0
    92e0:	e99c0003 	ldmib	ip, {r0, r1}
    92e4:	eb0014ed 	bl	e6a0 <__adddf3>
    92e8:	eb00177a 	bl	f0d8 <__truncdfsf2>
    92ec:	e1a0a000 	mov	sl, r0
    92f0:	e51b0030 	ldr	r0, [fp, #-48]
    92f4:	eb0015bf 	bl	e9f8 <__extendsfdf2>
    92f8:	e1a05001 	mov	r5, r1
    92fc:	e1a04000 	mov	r4, r0
    9300:	e1a01009 	mov	r1, r9
    9304:	e1a00008 	mov	r0, r8
    9308:	eb001966 	bl	f8a8 <__sin_from_arm>
    930c:	e1a03007 	mov	r3, r7
    9310:	e1a02006 	mov	r2, r6
    9314:	eb0015ca 	bl	ea44 <__muldf3>
    9318:	e1a03001 	mov	r3, r1
    931c:	e1a02000 	mov	r2, r0
    9320:	e1a01005 	mov	r1, r5
    9324:	e1a00004 	mov	r0, r4
    9328:	eb0014dc 	bl	e6a0 <__adddf3>
    932c:	eb001769 	bl	f0d8 <__truncdfsf2>
    9330:	e51f3204 	ldr	r3, [pc, #-516]	; 9134 <.text+0x9134>
    9334:	e5931000 	ldr	r1, [r3]
    9338:	e51f3208 	ldr	r3, [pc, #-520]	; 9138 <.text+0x9138>
    933c:	e583a000 	str	sl, [r3]
    9340:	e51f320c 	ldr	r3, [pc, #-524]	; 913c <.text+0x913c>
    9344:	e1a02000 	mov	r2, r0
    9348:	e5832000 	str	r2, [r3]
    934c:	eb00179f 	bl	f1d0 <__subsf3>
    9350:	eb0015a8 	bl	e9f8 <__extendsfdf2>
    9354:	e51fc21c 	ldr	ip, [pc, #-540]	; 9140 <.text+0x9140>
    9358:	e1a05001 	mov	r5, r1
    935c:	e1a04000 	mov	r4, r0
    9360:	e59c1000 	ldr	r1, [ip]
    9364:	e1a0000a 	mov	r0, sl
    9368:	eb001798 	bl	f1d0 <__subsf3>
    936c:	eb0015a1 	bl	e9f8 <__extendsfdf2>
    9370:	e1a03001 	mov	r3, r1
    9374:	e1a02000 	mov	r2, r0
    9378:	e1a01005 	mov	r1, r5
    937c:	e1a00004 	mov	r0, r4
    9380:	eb00193f 	bl	f884 <__atan2_from_arm>
    9384:	e1a03001 	mov	r3, r1
    9388:	e1a02000 	mov	r2, r0
    938c:	e24f0f89 	sub	r0, pc, #548	; 0x224
    9390:	e8900003 	ldmia	r0, {r0, r1}
    9394:	eb0014c0 	bl	e69c <__subdf3>
    9398:	eb00174e 	bl	f0d8 <__truncdfsf2>
    939c:	e51f3260 	ldr	r3, [pc, #-608]	; 9144 <.text+0x9144>
    93a0:	e51f2260 	ldr	r2, [pc, #-608]	; 9148 <.text+0x9148>
    93a4:	e5830000 	str	r0, [r3]
    93a8:	e3a03001 	mov	r3, #1	; 0x1
    93ac:	e5c23000 	strb	r3, [r2]
    93b0:	e51b002c 	ldr	r0, [fp, #-44]
    93b4:	eb0018fe 	bl	f7b4 <__fixsfsi>
    93b8:	e51f3274 	ldr	r3, [pc, #-628]	; 914c <.text+0x914c>
    93bc:	e1c300b0 	strh	r0, [r3]
    93c0:	e51b0030 	ldr	r0, [fp, #-48]
    93c4:	eb0018fa 	bl	f7b4 <__fixsfsi>
    93c8:	e51f3280 	ldr	r3, [pc, #-640]	; 9150 <.text+0x9150>
    93cc:	e1c300b0 	strh	r0, [r3]
    93d0:	e51b0034 	ldr	r0, [fp, #-52]
    93d4:	eb0018f6 	bl	f7b4 <__fixsfsi>
    93d8:	e51f328c 	ldr	r3, [pc, #-652]	; 9154 <.text+0x9154>
    93dc:	e1c300b0 	strh	r0, [r3]
    93e0:	e24bd028 	sub	sp, fp, #40	; 0x28
    93e4:	e89d6ff0 	ldmia	sp, {r4, r5, r6, r7, r8, r9, sl, fp, sp, lr}
    93e8:	e12fff1e 	bx	lr

000093ec <nav_goto_block>:
    93ec:	e59fc048 	ldr	ip, [pc, #72]	; 943c <.text+0x943c>
    93f0:	e5dc1000 	ldrb	r1, [ip]
    93f4:	e20000ff 	and	r0, r0, #255	; 0xff
    93f8:	e1510000 	cmp	r1, r0
    93fc:	e52de004 	str	lr, [sp, #-4]!
    9400:	e3a0e000 	mov	lr, #0	; 0x0
    9404:	0a000005 	beq	9420 <nav_goto_block+0x34>
    9408:	e59f3030 	ldr	r3, [pc, #48]	; 9440 <.text+0x9440>
    940c:	e5d32000 	ldrb	r2, [r3]
    9410:	e59f302c 	ldr	r3, [pc, #44]	; 9444 <.text+0x9444>
    9414:	e5c31000 	strb	r1, [r3]
    9418:	e59f3028 	ldr	r3, [pc, #40]	; 9448 <.text+0x9448>
    941c:	e5c32000 	strb	r2, [r3]
    9420:	e59f3024 	ldr	r3, [pc, #36]	; 944c <.text+0x944c>
    9424:	e1c3e0b0 	strh	lr, [r3]
    9428:	e59f3010 	ldr	r3, [pc, #16]	; 9440 <.text+0x9440>
    942c:	e5cc0000 	strb	r0, [ip]
    9430:	e5c3e000 	strb	lr, [r3]
    9434:	e49de004 	ldr	lr, [sp], #4
    9438:	eafffe7d 	b	8e34 <nav_init_stage>
    943c:	400010ad 	andmi	r1, r0, sp, lsr #1
    9440:	400010c4 	andmi	r1, r0, r4, asr #1
    9444:	40000628 	andmi	r0, r0, r8, lsr #12
    9448:	40000629 	andmi	r0, r0, r9, lsr #12
    944c:	400010de 	ldrmid	r1, [r0], -lr

00009450 <nav_approaching_xy>:
    9450:	e1a0c00d 	mov	ip, sp
    9454:	e92dddf0 	stmdb	sp!, {r4, r5, r6, r7, r8, sl, fp, ip, lr, pc}
    9458:	e59f30e8 	ldr	r3, [pc, #232]	; 9548 <.text+0x9548>
    945c:	e24cb004 	sub	fp, ip, #4	; 0x4
    9460:	e1a0a001 	mov	sl, r1
    9464:	e5931000 	ldr	r1, [r3]
    9468:	e1a05002 	mov	r5, r2
    946c:	e1a06000 	mov	r6, r0
    9470:	eb001756 	bl	f1d0 <__subsf3>
    9474:	e59f30d0 	ldr	r3, [pc, #208]	; 954c <.text+0x954c>
    9478:	e1a07000 	mov	r7, r0
    947c:	e5931000 	ldr	r1, [r3]
    9480:	e1a0000a 	mov	r0, sl
    9484:	eb001751 	bl	f1d0 <__subsf3>
    9488:	e1a01007 	mov	r1, r7
    948c:	e1a08000 	mov	r8, r0
    9490:	e1a00007 	mov	r0, r7
    9494:	eb0017d3 	bl	f3e8 <__mulsf3>
    9498:	e1a01008 	mov	r1, r8
    949c:	e1a04000 	mov	r4, r0
    94a0:	e1a00008 	mov	r0, r8
    94a4:	eb0017cf 	bl	f3e8 <__mulsf3>
    94a8:	e1a01000 	mov	r1, r0
    94ac:	e1a00004 	mov	r0, r4
    94b0:	eb001747 	bl	f1d4 <__addsf3>
    94b4:	e59f3094 	ldr	r3, [pc, #148]	; 9550 <.text+0x9550>
    94b8:	e5931000 	ldr	r1, [r3]
    94bc:	e59f3090 	ldr	r3, [pc, #144]	; 9554 <.text+0x9554>
    94c0:	e1a04000 	mov	r4, r0
    94c4:	e5834000 	str	r4, [r3]
    94c8:	e1a00005 	mov	r0, r5
    94cc:	eb0017c5 	bl	f3e8 <__mulsf3>
    94d0:	e1a01000 	mov	r1, r0
    94d4:	eb0017c3 	bl	f3e8 <__mulsf3>
    94d8:	e1a01000 	mov	r1, r0
    94dc:	e1a00004 	mov	r0, r4
    94e0:	eb00188e 	bl	f720 <__lesf2>
    94e4:	e3500000 	cmp	r0, #0	; 0x0
    94e8:	e3a03001 	mov	r3, #1	; 0x1
    94ec:	e1a00006 	mov	r0, r6
    94f0:	ba000011 	blt	953c <nav_approaching_xy+0xec>
    94f4:	e59f305c 	ldr	r3, [pc, #92]	; 9558 <.text+0x9558>
    94f8:	e5931000 	ldr	r1, [r3]
    94fc:	eb001733 	bl	f1d0 <__subsf3>
    9500:	e1a01007 	mov	r1, r7
    9504:	eb0017b7 	bl	f3e8 <__mulsf3>
    9508:	e59f304c 	ldr	r3, [pc, #76]	; 955c <.text+0x955c>
    950c:	e1a04000 	mov	r4, r0
    9510:	e5931000 	ldr	r1, [r3]
    9514:	e1a0000a 	mov	r0, sl
    9518:	eb00172c 	bl	f1d0 <__subsf3>
    951c:	e1a01008 	mov	r1, r8
    9520:	eb0017b0 	bl	f3e8 <__mulsf3>
    9524:	e1a01000 	mov	r1, r0
    9528:	e1a00004 	mov	r0, r4
    952c:	eb001728 	bl	f1d4 <__addsf3>
    9530:	e3a01000 	mov	r1, #0	; 0x0
    9534:	eb001879 	bl	f720 <__lesf2>
    9538:	e1a03fa0 	mov	r3, r0, lsr #31
    953c:	e1a00003 	mov	r0, r3
    9540:	e89d6df0 	ldmia	sp, {r4, r5, r6, r7, r8, sl, fp, sp, lr}
    9544:	e12fff1e 	bx	lr
    9548:	40001060 	andmi	r1, r0, r0, rrx
    954c:	4000107c 	andmi	r1, r0, ip, ror r0
    9550:	40001054 	andmi	r1, r0, r4, asr r0
    9554:	40001088 	andmi	r1, r0, r8, lsl #1
    9558:	4000062c 	andmi	r0, r0, ip, lsr #12
    955c:	40000630 	andmi	r0, r0, r0, lsr r6

00009560 <nav_route_xy>:
    9560:	e1a0c00d 	mov	ip, sp
    9564:	e92ddff0 	stmdb	sp!, {r4, r5, r6, r7, r8, r9, sl, fp, ip, lr, pc}
    9568:	e24cb004 	sub	fp, ip, #4	; 0x4
    956c:	e24dd010 	sub	sp, sp, #16	; 0x10
    9570:	e50b002c 	str	r0, [fp, #-44]
    9574:	e50b1030 	str	r1, [fp, #-48]
    9578:	e1a00002 	mov	r0, r2
    957c:	e51b102c 	ldr	r1, [fp, #-44]
    9580:	e50b2034 	str	r2, [fp, #-52]
    9584:	e50b3038 	str	r3, [fp, #-56]
    9588:	eb001710 	bl	f1d0 <__subsf3>
    958c:	e51b1030 	ldr	r1, [fp, #-48]
    9590:	e1a0a000 	mov	sl, r0
    9594:	e51b0038 	ldr	r0, [fp, #-56]
    9598:	eb00170c 	bl	f1d0 <__subsf3>
    959c:	e1a0100a 	mov	r1, sl
    95a0:	e1a09000 	mov	r9, r0
    95a4:	e1a0000a 	mov	r0, sl
    95a8:	eb00178e 	bl	f3e8 <__mulsf3>
    95ac:	e1a01009 	mov	r1, r9
    95b0:	e1a04000 	mov	r4, r0
    95b4:	e1a00009 	mov	r0, r9
    95b8:	eb00178a 	bl	f3e8 <__mulsf3>
    95bc:	e1a01000 	mov	r1, r0
    95c0:	e1a00004 	mov	r0, r4
    95c4:	eb001702 	bl	f1d4 <__addsf3>
    95c8:	e3a015fe 	mov	r1, #1065353216	; 0x3f800000
    95cc:	e1a05000 	mov	r5, r0
    95d0:	eb001850 	bl	f718 <__gesf2>
    95d4:	e59f322c 	ldr	r3, [pc, #556]	; 9808 <.text+0x9808>
    95d8:	e3500000 	cmp	r0, #0	; 0x0
    95dc:	e51b102c 	ldr	r1, [fp, #-44]
    95e0:	e5930000 	ldr	r0, [r3]
    95e4:	e3a035fe 	mov	r3, #1065353216	; 0x3f800000
    95e8:	d1a05003 	movle	r5, r3
    95ec:	eb0016f7 	bl	f1d0 <__subsf3>
    95f0:	e1a0100a 	mov	r1, sl
    95f4:	eb00177b 	bl	f3e8 <__mulsf3>
    95f8:	e59f320c 	ldr	r3, [pc, #524]	; 980c <.text+0x980c>
    95fc:	e1a04000 	mov	r4, r0
    9600:	e51b1030 	ldr	r1, [fp, #-48]
    9604:	e5930000 	ldr	r0, [r3]
    9608:	eb0016f0 	bl	f1d0 <__subsf3>
    960c:	e1a01009 	mov	r1, r9
    9610:	eb001774 	bl	f3e8 <__mulsf3>
    9614:	e1a01000 	mov	r1, r0
    9618:	e1a00004 	mov	r0, r4
    961c:	eb0016ec 	bl	f1d4 <__addsf3>
    9620:	e1a01005 	mov	r1, r5
    9624:	eb0017d3 	bl	f578 <__divsf3>
    9628:	e3a01000 	mov	r1, #0	; 0x0
    962c:	e1a04000 	mov	r4, r0
    9630:	eb001838 	bl	f718 <__gesf2>
    9634:	e3a06000 	mov	r6, #0	; 0x0
    9638:	e3500000 	cmp	r0, #0	; 0x0
    963c:	e59f31cc 	ldr	r3, [pc, #460]	; 9810 <.text+0x9810>
    9640:	d1a04006 	movle	r4, r6
    9644:	e5834000 	str	r4, [r3]
    9648:	e1a00005 	mov	r0, r5
    964c:	eb0014e9 	bl	e9f8 <__extendsfdf2>
    9650:	eb001897 	bl	f8b4 <__sqrt_from_arm>
    9654:	eb00169f 	bl	f0d8 <__truncdfsf2>
    9658:	e59f31b4 	ldr	r3, [pc, #436]	; 9814 <.text+0x9814>
    965c:	e1a05000 	mov	r5, r0
    9660:	e5930000 	ldr	r0, [r3]
    9664:	e59f31ac 	ldr	r3, [pc, #428]	; 9818 <.text+0x9818>
    9668:	e59f11ac 	ldr	r1, [pc, #428]	; 981c <.text+0x981c>
    966c:	e5835000 	str	r5, [r3]
    9670:	eb00175c 	bl	f3e8 <__mulsf3>
    9674:	e59f3194 	ldr	r3, [pc, #404]	; 9810 <.text+0x9810>
    9678:	e1a04000 	mov	r4, r0
    967c:	e5930000 	ldr	r0, [r3]
    9680:	eb0014dc 	bl	e9f8 <__extendsfdf2>
    9684:	e1a08001 	mov	r8, r1
    9688:	e1a07000 	mov	r7, r0
    968c:	e1a01005 	mov	r1, r5
    9690:	e1a00004 	mov	r0, r4
    9694:	eb0017b7 	bl	f578 <__divsf3>
    9698:	e1a01006 	mov	r1, r6
    969c:	e1a04000 	mov	r4, r0
    96a0:	eb00181c 	bl	f718 <__gesf2>
    96a4:	e3500000 	cmp	r0, #0	; 0x0
    96a8:	e59f5160 	ldr	r5, [pc, #352]	; 9810 <.text+0x9810>
    96ac:	da000006 	ble	96cc <nav_route_xy+0x16c>
    96b0:	e1a00004 	mov	r0, r4
    96b4:	eb0014cf 	bl	e9f8 <__extendsfdf2>
    96b8:	e1a03001 	mov	r3, r1
    96bc:	e1a02000 	mov	r2, r0
    96c0:	e1a01008 	mov	r1, r8
    96c4:	e1a00007 	mov	r0, r7
    96c8:	ea000003 	b	96dc <nav_route_xy+0x17c>
    96cc:	e28f2f49 	add	r2, pc, #292	; 0x124
    96d0:	e892000c 	ldmia	r2, {r2, r3}
    96d4:	e1a01008 	mov	r1, r8
    96d8:	e1a00007 	mov	r0, r7
    96dc:	eb0013ef 	bl	e6a0 <__adddf3>
    96e0:	eb00167c 	bl	f0d8 <__truncdfsf2>
    96e4:	e59f3134 	ldr	r3, [pc, #308]	; 9820 <.text+0x9820>
    96e8:	e5850000 	str	r0, [r5]
    96ec:	e3a05001 	mov	r5, #1	; 0x1
    96f0:	e5c35000 	strb	r5, [r3]
    96f4:	e51b002c 	ldr	r0, [fp, #-44]
    96f8:	eb00182d 	bl	f7b4 <__fixsfsi>
    96fc:	e59f3120 	ldr	r3, [pc, #288]	; 9824 <.text+0x9824>
    9700:	e1c300b0 	strh	r0, [r3]
    9704:	e51b0030 	ldr	r0, [fp, #-48]
    9708:	eb001829 	bl	f7b4 <__fixsfsi>
    970c:	e59f3114 	ldr	r3, [pc, #276]	; 9828 <.text+0x9828>
    9710:	e1c300b0 	strh	r0, [r3]
    9714:	e51b0034 	ldr	r0, [fp, #-52]
    9718:	eb001825 	bl	f7b4 <__fixsfsi>
    971c:	e59f3108 	ldr	r3, [pc, #264]	; 982c <.text+0x982c>
    9720:	e1c300b0 	strh	r0, [r3]
    9724:	e51b0038 	ldr	r0, [fp, #-56]
    9728:	eb001821 	bl	f7b4 <__fixsfsi>
    972c:	e59f30dc 	ldr	r3, [pc, #220]	; 9810 <.text+0x9810>
    9730:	e5934000 	ldr	r4, [r3]
    9734:	e59f30f4 	ldr	r3, [pc, #244]	; 9830 <.text+0x9830>
    9738:	e1c300b0 	strh	r0, [r3]
    973c:	e59f30f0 	ldr	r3, [pc, #240]	; 9834 <.text+0x9834>
    9740:	e1a0100a 	mov	r1, sl
    9744:	e5c35000 	strb	r5, [r3]
    9748:	e1a00004 	mov	r0, r4
    974c:	eb001725 	bl	f3e8 <__mulsf3>
    9750:	e1a01000 	mov	r1, r0
    9754:	e51b002c 	ldr	r0, [fp, #-44]
    9758:	eb00169d 	bl	f1d4 <__addsf3>
    975c:	e1a01009 	mov	r1, r9
    9760:	e1a06000 	mov	r6, r0
    9764:	e1a00004 	mov	r0, r4
    9768:	eb00171e 	bl	f3e8 <__mulsf3>
    976c:	e1a01000 	mov	r1, r0
    9770:	e51b0030 	ldr	r0, [fp, #-48]
    9774:	eb001696 	bl	f1d4 <__addsf3>
    9778:	e59f308c 	ldr	r3, [pc, #140]	; 980c <.text+0x980c>
    977c:	e5931000 	ldr	r1, [r3]
    9780:	e59f30b0 	ldr	r3, [pc, #176]	; 9838 <.text+0x9838>
    9784:	e5836000 	str	r6, [r3]
    9788:	e59f30ac 	ldr	r3, [pc, #172]	; 983c <.text+0x983c>
    978c:	e1a02000 	mov	r2, r0
    9790:	e5832000 	str	r2, [r3]
    9794:	eb00168d 	bl	f1d0 <__subsf3>
    9798:	eb001496 	bl	e9f8 <__extendsfdf2>
    979c:	e59f3064 	ldr	r3, [pc, #100]	; 9808 <.text+0x9808>
    97a0:	e1a05001 	mov	r5, r1
    97a4:	e1a04000 	mov	r4, r0
    97a8:	e5931000 	ldr	r1, [r3]
    97ac:	e1a00006 	mov	r0, r6
    97b0:	eb001686 	bl	f1d0 <__subsf3>
    97b4:	eb00148f 	bl	e9f8 <__extendsfdf2>
    97b8:	e1a03001 	mov	r3, r1
    97bc:	e1a02000 	mov	r2, r0
    97c0:	e1a01005 	mov	r1, r5
    97c4:	e1a00004 	mov	r0, r4
    97c8:	eb00182d 	bl	f884 <__atan2_from_arm>
    97cc:	e1a03001 	mov	r3, r1
    97d0:	e1a02000 	mov	r2, r0
    97d4:	e28f0024 	add	r0, pc, #36	; 0x24
    97d8:	e8900003 	ldmia	r0, {r0, r1}
    97dc:	eb0013ae 	bl	e69c <__subdf3>
    97e0:	eb00163c 	bl	f0d8 <__truncdfsf2>
    97e4:	e59f3054 	ldr	r3, [pc, #84]	; 9840 <.text+0x9840>
    97e8:	e5830000 	str	r0, [r3]
    97ec:	e24bd028 	sub	sp, fp, #40	; 0x28
    97f0:	e89d6ff0 	ldmia	sp, {r4, r5, r6, r7, r8, r9, sl, fp, sp, lr}
    97f4:	e12fff1e 	bx	lr
	...
    9800:	3ff921fb 	swicc	0x00f921fb
    9804:	54442d18 	strplb	r2, [r4], #-3352
    9808:	40001060 	andmi	r1, r0, r0, rrx
    980c:	4000107c 	andmi	r1, r0, ip, ror r0
    9810:	4000063c 	andmi	r0, r0, ip, lsr r6
    9814:	40001054 	andmi	r1, r0, r4, asr r0
    9818:	40000640 	andmi	r0, r0, r0, asr #12
    981c:	40a00000 	adcmi	r0, r0, r0
    9820:	4000061c 	andmi	r0, r0, ip, lsl r6
    9824:	4000108c 	andmi	r1, r0, ip, lsl #1
    9828:	400010d0 	ldrmid	r1, [r0], -r0
    982c:	40001094 	mulmi	r0, r4, r0
    9830:	400010ce 	andmi	r1, r0, lr, asr #1
    9834:	400010ac 	andmi	r1, r0, ip, lsr #1
    9838:	40001090 	mulmi	r0, r0, r0
    983c:	400010a4 	andmi	r1, r0, r4, lsr #1
    9840:	400010f0 	strmid	r1, [r0], -r0

00009844 <nav_home>:
    9844:	e1a0c00d 	mov	ip, sp
    9848:	e92dd830 	stmdb	sp!, {r4, r5, fp, ip, lr, pc}
    984c:	e59f40c8 	ldr	r4, [pc, #200]	; 991c <.text+0x991c>
    9850:	e24cb004 	sub	fp, ip, #4	; 0x4
    9854:	e594000c 	ldr	r0, [r4, #12]
    9858:	e5941010 	ldr	r1, [r4, #16]
    985c:	e59f20bc 	ldr	r2, [pc, #188]	; 9920 <.text+0x9920>
    9860:	ebfffd93 	bl	8eb4 <nav_circle_XY>
    9864:	e59f30b8 	ldr	r3, [pc, #184]	; 9924 <.text+0x9924>
    9868:	e5930000 	ldr	r0, [r3]
    986c:	e59f30b4 	ldr	r3, [pc, #180]	; 9928 <.text+0x9928>
    9870:	e3a02000 	mov	r2, #0	; 0x0
    9874:	e5832000 	str	r2, [r3]
    9878:	e59f30ac 	ldr	r3, [pc, #172]	; 992c <.text+0x992c>
    987c:	e3a02003 	mov	r2, #3	; 0x3
    9880:	e5c32000 	strb	r2, [r3]
    9884:	e59f10a4 	ldr	r1, [pc, #164]	; 9930 <.text+0x9930>
    9888:	eb001651 	bl	f1d4 <__addsf3>
    988c:	e59f30a0 	ldr	r3, [pc, #160]	; 9934 <.text+0x9934>
    9890:	e5830000 	str	r0, [r3]
    9894:	e59f309c 	ldr	r3, [pc, #156]	; 9938 <.text+0x9938>
    9898:	e594000c 	ldr	r0, [r4, #12]
    989c:	e5931000 	ldr	r1, [r3]
    98a0:	eb00164a 	bl	f1d0 <__subsf3>
    98a4:	e59f3090 	ldr	r3, [pc, #144]	; 993c <.text+0x993c>
    98a8:	e1a05000 	mov	r5, r0
    98ac:	e5931000 	ldr	r1, [r3]
    98b0:	e5940010 	ldr	r0, [r4, #16]
    98b4:	eb001645 	bl	f1d0 <__subsf3>
    98b8:	e1a01005 	mov	r1, r5
    98bc:	e1a04000 	mov	r4, r0
    98c0:	e1a00005 	mov	r0, r5
    98c4:	eb0016c7 	bl	f3e8 <__mulsf3>
    98c8:	e1a01004 	mov	r1, r4
    98cc:	e1a05000 	mov	r5, r0
    98d0:	e1a00004 	mov	r0, r4
    98d4:	eb0016c3 	bl	f3e8 <__mulsf3>
    98d8:	e1a01000 	mov	r1, r0
    98dc:	e1a00005 	mov	r0, r5
    98e0:	eb00163b 	bl	f1d4 <__addsf3>
    98e4:	e59f3054 	ldr	r3, [pc, #84]	; 9940 <.text+0x9940>
    98e8:	e1a04000 	mov	r4, r0
    98ec:	e5834000 	str	r4, [r3]
    98f0:	e59f104c 	ldr	r1, [pc, #76]	; 9944 <.text+0x9944>
    98f4:	eb001787 	bl	f718 <__gesf2>
    98f8:	e59f3048 	ldr	r3, [pc, #72]	; 9948 <.text+0x9948>
    98fc:	e3500000 	cmp	r0, #0	; 0x0
    9900:	e3a02000 	mov	r2, #0	; 0x0
    9904:	c3a02001 	movgt	r2, #1	; 0x1
    9908:	e5c32000 	strb	r2, [r3]
    990c:	e59f3038 	ldr	r3, [pc, #56]	; 994c <.text+0x994c>
    9910:	e5834000 	str	r4, [r3]
    9914:	e89d6830 	ldmia	sp, {r4, r5, fp, sp, lr}
    9918:	e12fff1e 	bx	lr
    991c:	40000038 	andmi	r0, r0, r8, lsr r0
    9920:	42480000 	submi	r0, r8, #0	; 0x0
    9924:	400010d4 	ldrmid	r1, [r0], -r4
    9928:	40000610 	andmi	r0, r0, r0, lsl r6
    992c:	400011c4 	andmi	r1, r0, r4, asr #3
    9930:	40400000 	submi	r0, r0, r0
    9934:	40000074 	andmi	r0, r0, r4, ror r0
    9938:	40001060 	andmi	r1, r0, r0, rrx
    993c:	4000107c 	andmi	r1, r0, ip, ror r0
    9940:	400010bc 	strmih	r1, [r0], -ip
    9944:	48742400 	ldmmida	r4!, {sl, sp}^
    9948:	400010b0 	strmih	r1, [r0], -r0
    994c:	40001088 	andmi	r1, r0, r8, lsl #1

00009950 <nav_update>:
    9950:	e1a0c00d 	mov	ip, sp
    9954:	e92ddff0 	stmdb	sp!, {r4, r5, r6, r7, r8, r9, sl, fp, ip, lr, pc}
    9958:	e59f26f0 	ldr	r2, [pc, #1776]	; a050 <.text+0xa050>
    995c:	e59f66d8 	ldr	r6, [pc, #1752]	; a03c <.text+0xa03c>
    9960:	e5921000 	ldr	r1, [r2]
    9964:	e24cb004 	sub	fp, ip, #4	; 0x4
    9968:	e596000c 	ldr	r0, [r6, #12]
    996c:	eb001617 	bl	f1d0 <__subsf3>
    9970:	e59f967c 	ldr	r9, [pc, #1660]	; 9ff4 <.text+0x9ff4>
    9974:	e1a05000 	mov	r5, r0
    9978:	e5991000 	ldr	r1, [r9]
    997c:	e5960010 	ldr	r0, [r6, #16]
    9980:	eb001612 	bl	f1d0 <__subsf3>
    9984:	e1a01005 	mov	r1, r5
    9988:	e1a04000 	mov	r4, r0
    998c:	e1a00005 	mov	r0, r5
    9990:	eb001694 	bl	f3e8 <__mulsf3>
    9994:	e1a01004 	mov	r1, r4
    9998:	e1a05000 	mov	r5, r0
    999c:	e1a00004 	mov	r0, r4
    99a0:	eb001690 	bl	f3e8 <__mulsf3>
    99a4:	e1a01000 	mov	r1, r0
    99a8:	e1a00005 	mov	r0, r5
    99ac:	eb001608 	bl	f1d4 <__addsf3>
    99b0:	e59f3640 	ldr	r3, [pc, #1600]	; 9ff8 <.text+0x9ff8>
    99b4:	e1a02000 	mov	r2, r0
    99b8:	e5832000 	str	r2, [r3]
    99bc:	e59f1638 	ldr	r1, [pc, #1592]	; 9ffc <.text+0x9ffc>
    99c0:	eb001754 	bl	f718 <__gesf2>
    99c4:	e3500000 	cmp	r0, #0	; 0x0
    99c8:	e59f0630 	ldr	r0, [pc, #1584]	; a000 <.text+0xa000>
    99cc:	e59f3630 	ldr	r3, [pc, #1584]	; a004 <.text+0xa004>
    99d0:	e5d02000 	ldrb	r2, [r0]
    99d4:	e3a01000 	mov	r1, #0	; 0x0
    99d8:	c3a01001 	movgt	r1, #1	; 0x1
    99dc:	e5c31000 	strb	r1, [r3]
    99e0:	e3520003 	cmp	r2, #3	; 0x3
    99e4:	979ff102 	ldrls	pc, [pc, r2, lsl #2]
    99e8:	ea0001e7 	b	a18c <.text+0xa18c>
    99ec:	000099fc 	streqd	r9, [r0], -ip
    99f0:	00009b60 	andeq	r9, r0, r0, ror #22
    99f4:	00009db4 	streqh	r9, [r0], -r4
    99f8:	00009e98 	muleq	r0, r8, lr
    99fc:	e59fc604 	ldr	ip, [pc, #1540]	; a008 <.text+0xa008>
    9a00:	e5dc1000 	ldrb	r1, [ip]
    9a04:	e3a02000 	mov	r2, #0	; 0x0
    9a08:	e3510000 	cmp	r1, #0	; 0x0
    9a0c:	e5c02000 	strb	r2, [r0]
    9a10:	0a000005 	beq	9a2c <.text+0x9a2c>
    9a14:	e3a03003 	mov	r3, #3	; 0x3
    9a18:	e5c03000 	strb	r3, [r0]
    9a1c:	e59f3640 	ldr	r3, [pc, #1600]	; a064 <.text+0xa064>
    9a20:	e5cc2000 	strb	r2, [ip]
    9a24:	e1c320b0 	strh	r2, [r3]
    9a28:	ea00006d 	b	9be4 <.text+0x9be4>
    9a2c:	e59fc5d8 	ldr	ip, [pc, #1496]	; a00c <.text+0xa00c>
    9a30:	e5dc3000 	ldrb	r3, [ip]
    9a34:	e3530000 	cmp	r3, #0	; 0x0
    9a38:	e59fe5d0 	ldr	lr, [pc, #1488]	; a010 <.text+0xa010>
    9a3c:	0a000007 	beq	9a60 <.text+0x9a60>
    9a40:	e59f25b8 	ldr	r2, [pc, #1464]	; a000 <.text+0xa000>
    9a44:	e3a03001 	mov	r3, #1	; 0x1
    9a48:	e5c23000 	strb	r3, [r2]
    9a4c:	e59f3610 	ldr	r3, [pc, #1552]	; a064 <.text+0xa064>
    9a50:	e5ce1000 	strb	r1, [lr]
    9a54:	e1c310b0 	strh	r1, [r3]
    9a58:	e5cc1000 	strb	r1, [ip]
    9a5c:	ea0001c9 	b	a188 <.text+0xa188>
    9a60:	e5de3000 	ldrb	r3, [lr]
    9a64:	e1a0100e 	mov	r1, lr
    9a68:	e3530004 	cmp	r3, #4	; 0x4
    9a6c:	979ff103 	ldrls	pc, [pc, r3, lsl #2]
    9a70:	ea00003a 	b	9b60 <.text+0x9b60>
    9a74:	00009a88 	andeq	r9, r0, r8, lsl #21
    9a78:	00009aac 	andeq	r9, r0, ip, lsr #21
    9a7c:	00009ab8 	streqh	r9, [r0], -r8
    9a80:	00009b24 	andeq	r9, r0, r4, lsr #22
    9a84:	00009b40 	andeq	r9, r0, r0, asr #22
    9a88:	e59f3584 	ldr	r3, [pc, #1412]	; a014 <.text+0xa014>
    9a8c:	e5d32000 	ldrb	r2, [r3]
    9a90:	e59f1578 	ldr	r1, [pc, #1400]	; a010 <.text+0xa010>
    9a94:	e3a03000 	mov	r3, #0	; 0x0
    9a98:	e3520000 	cmp	r2, #0	; 0x0
    9a9c:	e5c13000 	strb	r3, [r1]
    9aa0:	02823001 	addeq	r3, r2, #1	; 0x1
    9aa4:	0a000023 	beq	9b38 <.text+0x9b38>
    9aa8:	ea000002 	b	9ab8 <.text+0x9ab8>
    9aac:	e3a03001 	mov	r3, #1	; 0x1
    9ab0:	e5ce3000 	strb	r3, [lr]
    9ab4:	eafffff3 	b	9a88 <.text+0x9a88>
    9ab8:	e59f3558 	ldr	r3, [pc, #1368]	; a018 <.text+0xa018>
    9abc:	e59f454c 	ldr	r4, [pc, #1356]	; a010 <.text+0xa010>
    9ac0:	e3a05002 	mov	r5, #2	; 0x2
    9ac4:	e5930000 	ldr	r0, [r3]
    9ac8:	e59f154c 	ldr	r1, [pc, #1356]	; a01c <.text+0xa01c>
    9acc:	e5c45000 	strb	r5, [r4]
    9ad0:	eb001710 	bl	f718 <__gesf2>
    9ad4:	e3500000 	cmp	r0, #0	; 0x0
    9ad8:	c3a03003 	movgt	r3, #3	; 0x3
    9adc:	ca000051 	bgt	9c28 <.text+0x9c28>
    9ae0:	e59f3538 	ldr	r3, [pc, #1336]	; a020 <.text+0xa020>
    9ae4:	e5c35000 	strb	r5, [r3]
    9ae8:	e59f3534 	ldr	r3, [pc, #1332]	; a024 <.text+0xa024>
    9aec:	e3a02000 	mov	r2, #0	; 0x0
    9af0:	e5832000 	str	r2, [r3]
    9af4:	e59f355c 	ldr	r3, [pc, #1372]	; a058 <.text+0xa058>
    9af8:	e3a02000 	mov	r2, #0	; 0x0
    9afc:	e5c32000 	strb	r2, [r3]
    9b00:	e59f2520 	ldr	r2, [pc, #1312]	; a028 <.text+0xa028>
    9b04:	e59f3550 	ldr	r3, [pc, #1360]	; a05c <.text+0xa05c>
    9b08:	e5832000 	str	r2, [r3]
    9b0c:	e59f355c 	ldr	r3, [pc, #1372]	; a070 <.text+0xa070>
    9b10:	e3a02001 	mov	r2, #1	; 0x1
    9b14:	e5c32000 	strb	r2, [r3]
    9b18:	e59f3540 	ldr	r3, [pc, #1344]	; a060 <.text+0xa060>
    9b1c:	e3a02d96 	mov	r2, #9600	; 0x2580
    9b20:	ea000191 	b	a16c <.text+0xa16c>
    9b24:	e3a02001 	mov	r2, #1	; 0x1
    9b28:	e5c02000 	strb	r2, [r0]
    9b2c:	e59f2530 	ldr	r2, [pc, #1328]	; a064 <.text+0xa064>
    9b30:	e3a03000 	mov	r3, #0	; 0x0
    9b34:	e1c230b0 	strh	r3, [r2]
    9b38:	e5c13000 	strb	r3, [r1]
    9b3c:	ea000191 	b	a188 <.text+0xa188>
    9b40:	e5d03000 	ldrb	r3, [r0]
    9b44:	e2833001 	add	r3, r3, #1	; 0x1
    9b48:	e5c03000 	strb	r3, [r0]
    9b4c:	e59f3510 	ldr	r3, [pc, #1296]	; a064 <.text+0xa064>
    9b50:	e3a02000 	mov	r2, #0	; 0x0
    9b54:	e1c320b0 	strh	r2, [r3]
    9b58:	e5ce2000 	strb	r2, [lr]
    9b5c:	ea000189 	b	a188 <.text+0xa188>
    9b60:	e59f04a0 	ldr	r0, [pc, #1184]	; a008 <.text+0xa008>
    9b64:	e5d02000 	ldrb	r2, [r0]
    9b68:	e59f1490 	ldr	r1, [pc, #1168]	; a000 <.text+0xa000>
    9b6c:	e3a03001 	mov	r3, #1	; 0x1
    9b70:	e3520000 	cmp	r2, #0	; 0x0
    9b74:	e5c13000 	strb	r3, [r1]
    9b78:	0a000007 	beq	9b9c <.text+0x9b9c>
    9b7c:	e59f24e0 	ldr	r2, [pc, #1248]	; a064 <.text+0xa064>
    9b80:	e2433001 	sub	r3, r3, #1	; 0x1
    9b84:	e1c230b0 	strh	r3, [r2]
    9b88:	e59f2480 	ldr	r2, [pc, #1152]	; a010 <.text+0xa010>
    9b8c:	e5c03000 	strb	r3, [r0]
    9b90:	e5c13000 	strb	r3, [r1]
    9b94:	e5c23000 	strb	r3, [r2]
    9b98:	ea00017a 	b	a188 <.text+0xa188>
    9b9c:	e59f0468 	ldr	r0, [pc, #1128]	; a00c <.text+0xa00c>
    9ba0:	e5d03000 	ldrb	r3, [r0]
    9ba4:	e59fe464 	ldr	lr, [pc, #1124]	; a010 <.text+0xa010>
    9ba8:	e3530000 	cmp	r3, #0	; 0x0
    9bac:	15ce2000 	strneb	r2, [lr]
    9bb0:	13a03002 	movne	r3, #2	; 0x2
    9bb4:	1a000093 	bne	9e08 <.text+0x9e08>
    9bb8:	e5de3000 	ldrb	r3, [lr]
    9bbc:	e1a0400e 	mov	r4, lr
    9bc0:	e3530004 	cmp	r3, #4	; 0x4
    9bc4:	979ff103 	ldrls	pc, [pc, r3, lsl #2]
    9bc8:	ea000079 	b	9db4 <.text+0x9db4>
    9bcc:	00009be0 	andeq	r9, r0, r0, ror #23
    9bd0:	00009bf0 	streqd	r9, [r0], -r0
    9bd4:	00009cb0 	streqh	r9, [r0], -r0
    9bd8:	00009d88 	andeq	r9, r0, r8, lsl #27
    9bdc:	00009d94 	muleq	r0, r4, sp
    9be0:	e3a02001 	mov	r2, #1	; 0x1
    9be4:	e59f3424 	ldr	r3, [pc, #1060]	; a010 <.text+0xa010>
    9be8:	e5c32000 	strb	r2, [r3]
    9bec:	ea000165 	b	a188 <.text+0xa188>
    9bf0:	e3a03001 	mov	r3, #1	; 0x1
    9bf4:	e596101c 	ldr	r1, [r6, #28]
    9bf8:	e5960018 	ldr	r0, [r6, #24]
    9bfc:	e3a025fe 	mov	r2, #1065353216	; 0x3f800000
    9c00:	e5ce3000 	strb	r3, [lr]
    9c04:	ebfffe11 	bl	9450 <nav_approaching_xy>
    9c08:	e21080ff 	ands	r8, r0, #255	; 0xff
    9c0c:	e59f7428 	ldr	r7, [pc, #1064]	; a03c <.text+0xa03c>
    9c10:	0a000006 	beq	9c30 <.text+0x9c30>
    9c14:	e5d43000 	ldrb	r3, [r4]
    9c18:	e3a01002 	mov	r1, #2	; 0x2
    9c1c:	e2833001 	add	r3, r3, #1	; 0x1
    9c20:	e59f2418 	ldr	r2, [pc, #1048]	; a040 <.text+0xa040>
    9c24:	e5c21000 	strb	r1, [r2]
    9c28:	e5c43000 	strb	r3, [r4]
    9c2c:	ea000155 	b	a188 <.text+0xa188>
    9c30:	e59f340c 	ldr	r3, [pc, #1036]	; a044 <.text+0xa044>
    9c34:	e597201c 	ldr	r2, [r7, #28]
    9c38:	e5976018 	ldr	r6, [r7, #24]
    9c3c:	e5c38000 	strb	r8, [r3]
    9c40:	e59f3400 	ldr	r3, [pc, #1024]	; a048 <.text+0xa048>
    9c44:	e5836000 	str	r6, [r3]
    9c48:	e59f33fc 	ldr	r3, [pc, #1020]	; a04c <.text+0xa04c>
    9c4c:	e1a00002 	mov	r0, r2
    9c50:	e5832000 	str	r2, [r3]
    9c54:	e5991000 	ldr	r1, [r9]
    9c58:	eb00155c 	bl	f1d0 <__subsf3>
    9c5c:	eb001365 	bl	e9f8 <__extendsfdf2>
    9c60:	e59f33e8 	ldr	r3, [pc, #1000]	; a050 <.text+0xa050>
    9c64:	e1a05001 	mov	r5, r1
    9c68:	e1a04000 	mov	r4, r0
    9c6c:	e5931000 	ldr	r1, [r3]
    9c70:	e1a00006 	mov	r0, r6
    9c74:	eb001555 	bl	f1d0 <__subsf3>
    9c78:	eb00135e 	bl	e9f8 <__extendsfdf2>
    9c7c:	e1a03001 	mov	r3, r1
    9c80:	e1a02000 	mov	r2, r0
    9c84:	e1a01005 	mov	r1, r5
    9c88:	e1a00004 	mov	r0, r4
    9c8c:	eb0016fc 	bl	f884 <__atan2_from_arm>
    9c90:	e1a03001 	mov	r3, r1
    9c94:	e1a02000 	mov	r2, r0
    9c98:	e28f0e3f 	add	r0, pc, #1008	; 0x3f0
    9c9c:	e8900003 	ldmia	r0, {r0, r1}
    9ca0:	eb00127d 	bl	e69c <__subdf3>
    9ca4:	eb00150b 	bl	f0d8 <__truncdfsf2>
    9ca8:	e597c020 	ldr	ip, [r7, #32]
    9cac:	ea00002a 	b	9d5c <.text+0x9d5c>
    9cb0:	e3a03002 	mov	r3, #2	; 0x2
    9cb4:	e5961028 	ldr	r1, [r6, #40]
    9cb8:	e5960024 	ldr	r0, [r6, #36]
    9cbc:	e3a025fe 	mov	r2, #1065353216	; 0x3f800000
    9cc0:	e5ce3000 	strb	r3, [lr]
    9cc4:	ebfffde1 	bl	9450 <nav_approaching_xy>
    9cc8:	e21080ff 	ands	r8, r0, #255	; 0xff
    9ccc:	15d43000 	ldrneb	r3, [r4]
    9cd0:	e59f7364 	ldr	r7, [pc, #868]	; a03c <.text+0xa03c>
    9cd4:	12833001 	addne	r3, r3, #1	; 0x1
    9cd8:	13a01003 	movne	r1, #3	; 0x3
    9cdc:	1affffcf 	bne	9c20 <.text+0x9c20>
    9ce0:	e59f335c 	ldr	r3, [pc, #860]	; a044 <.text+0xa044>
    9ce4:	e5972028 	ldr	r2, [r7, #40]
    9ce8:	e5976024 	ldr	r6, [r7, #36]
    9cec:	e5c38000 	strb	r8, [r3]
    9cf0:	e59f3350 	ldr	r3, [pc, #848]	; a048 <.text+0xa048>
    9cf4:	e5836000 	str	r6, [r3]
    9cf8:	e59f334c 	ldr	r3, [pc, #844]	; a04c <.text+0xa04c>
    9cfc:	e5991000 	ldr	r1, [r9]
    9d00:	e5832000 	str	r2, [r3]
    9d04:	e1a00002 	mov	r0, r2
    9d08:	eb001530 	bl	f1d0 <__subsf3>
    9d0c:	eb001339 	bl	e9f8 <__extendsfdf2>
    9d10:	e59f2338 	ldr	r2, [pc, #824]	; a050 <.text+0xa050>
    9d14:	e1a05001 	mov	r5, r1
    9d18:	e1a04000 	mov	r4, r0
    9d1c:	e5921000 	ldr	r1, [r2]
    9d20:	e1a00006 	mov	r0, r6
    9d24:	eb001529 	bl	f1d0 <__subsf3>
    9d28:	eb001332 	bl	e9f8 <__extendsfdf2>
    9d2c:	e1a03001 	mov	r3, r1
    9d30:	e1a02000 	mov	r2, r0
    9d34:	e1a01005 	mov	r1, r5
    9d38:	e1a00004 	mov	r0, r4
    9d3c:	eb0016d0 	bl	f884 <__atan2_from_arm>
    9d40:	e1a03001 	mov	r3, r1
    9d44:	e1a02000 	mov	r2, r0
    9d48:	e28f0d0d 	add	r0, pc, #832	; 0x340
    9d4c:	e8900003 	ldmia	r0, {r0, r1}
    9d50:	eb001251 	bl	e69c <__subdf3>
    9d54:	eb0014df 	bl	f0d8 <__truncdfsf2>
    9d58:	e597c02c 	ldr	ip, [r7, #44]
    9d5c:	e59f32f0 	ldr	r3, [pc, #752]	; a054 <.text+0xa054>
    9d60:	e5830000 	str	r0, [r3]
    9d64:	e59f32ec 	ldr	r3, [pc, #748]	; a058 <.text+0xa058>
    9d68:	e5c38000 	strb	r8, [r3]
    9d6c:	e59f32fc 	ldr	r3, [pc, #764]	; a070 <.text+0xa070>
    9d70:	e3a02003 	mov	r2, #3	; 0x3
    9d74:	e5c32000 	strb	r2, [r3]
    9d78:	e59f32fc 	ldr	r3, [pc, #764]	; a07c <.text+0xa07c>
    9d7c:	e3a01000 	mov	r1, #0	; 0x0
    9d80:	e583c000 	str	ip, [r3]
    9d84:	ea000095 	b	9fe0 <.text+0x9fe0>
    9d88:	e3a03003 	mov	r3, #3	; 0x3
    9d8c:	e5ce3000 	strb	r3, [lr]
    9d90:	eaffff92 	b	9be0 <.text+0x9be0>
    9d94:	e5d13000 	ldrb	r3, [r1]
    9d98:	e2833001 	add	r3, r3, #1	; 0x1
    9d9c:	e5c13000 	strb	r3, [r1]
    9da0:	e59f32bc 	ldr	r3, [pc, #700]	; a064 <.text+0xa064>
    9da4:	e3a02000 	mov	r2, #0	; 0x0
    9da8:	e1c320b0 	strh	r2, [r3]
    9dac:	e5ce2000 	strb	r2, [lr]
    9db0:	ea0000f4 	b	a188 <.text+0xa188>
    9db4:	e59f0250 	ldr	r0, [pc, #592]	; a00c <.text+0xa00c>
    9db8:	e5d02000 	ldrb	r2, [r0]
    9dbc:	e59f123c 	ldr	r1, [pc, #572]	; a000 <.text+0xa000>
    9dc0:	e3a03002 	mov	r3, #2	; 0x2
    9dc4:	e3520000 	cmp	r2, #0	; 0x0
    9dc8:	e5c13000 	strb	r3, [r1]
    9dcc:	0a000006 	beq	9dec <.text+0x9dec>
    9dd0:	e2433001 	sub	r3, r3, #1	; 0x1
    9dd4:	e5c13000 	strb	r3, [r1]
    9dd8:	e59f3284 	ldr	r3, [pc, #644]	; a064 <.text+0xa064>
    9ddc:	e3a02000 	mov	r2, #0	; 0x0
    9de0:	e1c320b0 	strh	r2, [r3]
    9de4:	e5c02000 	strb	r2, [r0]
    9de8:	eaffff7d 	b	9be4 <.text+0x9be4>
    9dec:	e59f0214 	ldr	r0, [pc, #532]	; a008 <.text+0xa008>
    9df0:	e5d0c000 	ldrb	ip, [r0]
    9df4:	e35c0000 	cmp	ip, #0	; 0x0
    9df8:	e59fe210 	ldr	lr, [pc, #528]	; a010 <.text+0xa010>
    9dfc:	0a000006 	beq	9e1c <.text+0x9e1c>
    9e00:	e5ce2000 	strb	r2, [lr]
    9e04:	e3a03003 	mov	r3, #3	; 0x3
    9e08:	e5c13000 	strb	r3, [r1]
    9e0c:	e59f3250 	ldr	r3, [pc, #592]	; a064 <.text+0xa064>
    9e10:	e1c320b0 	strh	r2, [r3]
    9e14:	e5c02000 	strb	r2, [r0]
    9e18:	ea0000da 	b	a188 <.text+0xa188>
    9e1c:	e5de2000 	ldrb	r2, [lr]
    9e20:	e3520000 	cmp	r2, #0	; 0x0
    9e24:	0a000002 	beq	9e34 <.text+0x9e34>
    9e28:	e3520001 	cmp	r2, #1	; 0x1
    9e2c:	0a000013 	beq	9e80 <.text+0x9e80>
    9e30:	ea000018 	b	9e98 <.text+0x9e98>
    9e34:	e5cec000 	strb	ip, [lr]
    9e38:	e59f3218 	ldr	r3, [pc, #536]	; a058 <.text+0xa058>
    9e3c:	e5964014 	ldr	r4, [r6, #20]
    9e40:	e5961010 	ldr	r1, [r6, #16]
    9e44:	e596000c 	ldr	r0, [r6, #12]
    9e48:	e5c3c000 	strb	ip, [r3]
    9e4c:	e59f321c 	ldr	r3, [pc, #540]	; a070 <.text+0xa070>
    9e50:	e3a0c003 	mov	ip, #3	; 0x3
    9e54:	e5c3c000 	strb	ip, [r3]
    9e58:	e59f321c 	ldr	r3, [pc, #540]	; a07c <.text+0xa07c>
    9e5c:	e5834000 	str	r4, [r3]
    9e60:	e59f31c4 	ldr	r3, [pc, #452]	; a02c <.text+0xa02c>
    9e64:	e3a0e000 	mov	lr, #0	; 0x0
    9e68:	e583e000 	str	lr, [r3]
    9e6c:	e59f31e8 	ldr	r3, [pc, #488]	; a05c <.text+0xa05c>
    9e70:	e59f21b8 	ldr	r2, [pc, #440]	; a030 <.text+0xa030>
    9e74:	e583e000 	str	lr, [r3]
    9e78:	ebfffc0d 	bl	8eb4 <nav_circle_XY>
    9e7c:	ea0000c2 	b	a18c <.text+0xa18c>
    9e80:	e2833001 	add	r3, r3, #1	; 0x1
    9e84:	e5c13000 	strb	r3, [r1]
    9e88:	e59f31d4 	ldr	r3, [pc, #468]	; a064 <.text+0xa064>
    9e8c:	e5cec000 	strb	ip, [lr]
    9e90:	e1c3c0b0 	strh	ip, [r3]
    9e94:	ea0000bb 	b	a188 <.text+0xa188>
    9e98:	e59f116c 	ldr	r1, [pc, #364]	; a00c <.text+0xa00c>
    9e9c:	e5d12000 	ldrb	r2, [r1]
    9ea0:	e59f0158 	ldr	r0, [pc, #344]	; a000 <.text+0xa000>
    9ea4:	e3a0a003 	mov	sl, #3	; 0x3
    9ea8:	e3520000 	cmp	r2, #0	; 0x0
    9eac:	e5c0a000 	strb	sl, [r0]
    9eb0:	0a000006 	beq	9ed0 <.text+0x9ed0>
    9eb4:	e3a03002 	mov	r3, #2	; 0x2
    9eb8:	e5c03000 	strb	r3, [r0]
    9ebc:	e59f31a0 	ldr	r3, [pc, #416]	; a064 <.text+0xa064>
    9ec0:	e3a02000 	mov	r2, #0	; 0x0
    9ec4:	e1c320b0 	strh	r2, [r3]
    9ec8:	e5c12000 	strb	r2, [r1]
    9ecc:	eaffff44 	b	9be4 <.text+0x9be4>
    9ed0:	e59f1130 	ldr	r1, [pc, #304]	; a008 <.text+0xa008>
    9ed4:	e5d17000 	ldrb	r7, [r1]
    9ed8:	e3570000 	cmp	r7, #0	; 0x0
    9edc:	e59fe12c 	ldr	lr, [pc, #300]	; a010 <.text+0xa010>
    9ee0:	159f317c 	ldrne	r3, [pc, #380]	; a064 <.text+0xa064>
    9ee4:	15ce2000 	strneb	r2, [lr]
    9ee8:	11c320b0 	strneh	r2, [r3]
    9eec:	15c12000 	strneb	r2, [r1]
    9ef0:	1affffc7 	bne	9e14 <.text+0x9e14>
    9ef4:	e5de8000 	ldrb	r8, [lr]
    9ef8:	e3580001 	cmp	r8, #1	; 0x1
    9efc:	e1a0400e 	mov	r4, lr
    9f00:	0a000064 	beq	a098 <.text+0xa098>
    9f04:	ca000002 	bgt	9f14 <.text+0x9f14>
    9f08:	e3580000 	cmp	r8, #0	; 0x0
    9f0c:	0a000003 	beq	9f20 <.text+0x9f20>
    9f10:	ea00009d 	b	a18c <.text+0xa18c>
    9f14:	e3580002 	cmp	r8, #2	; 0x2
    9f18:	0a000095 	beq	a174 <.text+0xa174>
    9f1c:	ea00009a 	b	a18c <.text+0xa18c>
    9f20:	e596101c 	ldr	r1, [r6, #28]
    9f24:	e5960018 	ldr	r0, [r6, #24]
    9f28:	e59f2108 	ldr	r2, [pc, #264]	; a038 <.text+0xa038>
    9f2c:	e5ce7000 	strb	r7, [lr]
    9f30:	ebfffd46 	bl	9450 <nav_approaching_xy>
    9f34:	e31000ff 	tst	r0, #255	; 0xff
    9f38:	e59f30fc 	ldr	r3, [pc, #252]	; a03c <.text+0xa03c>
    9f3c:	1affff34 	bne	9c14 <.text+0x9c14>
    9f40:	e593201c 	ldr	r2, [r3, #28]
    9f44:	e5936018 	ldr	r6, [r3, #24]
    9f48:	e59f30f4 	ldr	r3, [pc, #244]	; a044 <.text+0xa044>
    9f4c:	e5c37000 	strb	r7, [r3]
    9f50:	e59f30f0 	ldr	r3, [pc, #240]	; a048 <.text+0xa048>
    9f54:	e5836000 	str	r6, [r3]
    9f58:	e59f30ec 	ldr	r3, [pc, #236]	; a04c <.text+0xa04c>
    9f5c:	e1a00002 	mov	r0, r2
    9f60:	e5832000 	str	r2, [r3]
    9f64:	e5991000 	ldr	r1, [r9]
    9f68:	eb001498 	bl	f1d0 <__subsf3>
    9f6c:	eb0012a1 	bl	e9f8 <__extendsfdf2>
    9f70:	e59f30d8 	ldr	r3, [pc, #216]	; a050 <.text+0xa050>
    9f74:	e1a05001 	mov	r5, r1
    9f78:	e1a04000 	mov	r4, r0
    9f7c:	e5931000 	ldr	r1, [r3]
    9f80:	e1a00006 	mov	r0, r6
    9f84:	eb001491 	bl	f1d0 <__subsf3>
    9f88:	eb00129a 	bl	e9f8 <__extendsfdf2>
    9f8c:	e1a03001 	mov	r3, r1
    9f90:	e1a02000 	mov	r2, r0
    9f94:	e1a01005 	mov	r1, r5
    9f98:	e1a00004 	mov	r0, r4
    9f9c:	eb001638 	bl	f884 <__atan2_from_arm>
    9fa0:	e1a03001 	mov	r3, r1
    9fa4:	e1a02000 	mov	r2, r0
    9fa8:	e28f00e0 	add	r0, pc, #224	; 0xe0
    9fac:	e8900003 	ldmia	r0, {r0, r1}
    9fb0:	eb0011b9 	bl	e69c <__subdf3>
    9fb4:	eb001447 	bl	f0d8 <__truncdfsf2>
    9fb8:	e59f3094 	ldr	r3, [pc, #148]	; a054 <.text+0xa054>
    9fbc:	e5830000 	str	r0, [r3]
    9fc0:	e59f3090 	ldr	r3, [pc, #144]	; a058 <.text+0xa058>
    9fc4:	e5c37000 	strb	r7, [r3]
    9fc8:	e59f30a0 	ldr	r3, [pc, #160]	; a070 <.text+0xa070>
    9fcc:	e59f2060 	ldr	r2, [pc, #96]	; a034 <.text+0xa034>
    9fd0:	e5c3a000 	strb	sl, [r3]
    9fd4:	e59f30a0 	ldr	r3, [pc, #160]	; a07c <.text+0xa07c>
    9fd8:	e5832000 	str	r2, [r3]
    9fdc:	e3a01000 	mov	r1, #0	; 0x0
    9fe0:	e59f3044 	ldr	r3, [pc, #68]	; a02c <.text+0xa02c>
    9fe4:	e5831000 	str	r1, [r3]
    9fe8:	e59f306c 	ldr	r3, [pc, #108]	; a05c <.text+0xa05c>
    9fec:	e5831000 	str	r1, [r3]
    9ff0:	ea000065 	b	a18c <.text+0xa18c>
    9ff4:	4000107c 	andmi	r1, r0, ip, ror r0
    9ff8:	400010bc 	strmih	r1, [r0], -ip
    9ffc:	48742400 	ldmmida	r4!, {sl, sp}^
    a000:	400010ad 	andmi	r1, r0, sp, lsr #1
    a004:	400010b0 	strmih	r1, [r0], -r0
    a008:	400007f8 	strmid	r0, [r0], -r8
    a00c:	40000a08 	andmi	r0, r0, r8, lsl #20
    a010:	400010c4 	andmi	r1, r0, r4, asr #1
    a014:	400004a9 	andmi	r0, r0, r9, lsr #9
    a018:	40001038 	andmi	r1, r0, r8, lsr r0
    a01c:	443e4000 	ldrmit	r4, [lr]
    a020:	400004ac 	andmi	r0, r0, ip, lsr #9
    a024:	4000118c 	andmi	r1, r0, ip, lsl #3
    a028:	3e99999a 	mrccc	9, 4, r9, cr9, cr10, {4}
    a02c:	400011e8 	andmi	r1, r0, r8, ror #3
    a030:	42200000 	eormi	r0, r0, #0	; 0x0
    a034:	443f8000 	ldrmit	r8, [pc], #0	; a03c <.text+0xa03c>
    a038:	40a00000 	adcmi	r0, r0, r0
    a03c:	40000038 	andmi	r0, r0, r8, lsr r0
    a040:	40000634 	andmi	r0, r0, r4, lsr r6
    a044:	400010ac 	andmi	r1, r0, ip, lsr #1
    a048:	40001090 	mulmi	r0, r0, r0
    a04c:	400010a4 	andmi	r1, r0, r4, lsr #1
    a050:	40001060 	andmi	r1, r0, r0, rrx
    a054:	400010f0 	strmid	r1, [r0], -r0
    a058:	400011a4 	andmi	r1, r0, r4, lsr #3
    a05c:	40000610 	andmi	r0, r0, r0, lsl r6
    a060:	4000109c 	mulmi	r0, ip, r0
    a064:	400010de 	ldrmid	r1, [r0], -lr
    a068:	4000061d 	andmi	r0, r0, sp, lsl r6
    a06c:	40000618 	andmi	r0, r0, r8, lsl r6
    a070:	400011c4 	andmi	r1, r0, r4, asr #3
    a074:	40001150 	andmi	r1, r0, r0, asr r1
    a078:	400011ac 	andmi	r1, r0, ip, lsr #3
    a07c:	40000074 	andmi	r0, r0, r4, ror r0
    a080:	40000614 	andmi	r0, r0, r4, lsl r6
    a084:	400010e4 	andmi	r1, r0, r4, ror #1
    a088:	40000620 	andmi	r0, r0, r0, lsr #12
    a08c:	400011c0 	andmi	r1, r0, r0, asr #3
    a090:	3ff921fb 	swicc	0x00f921fb
    a094:	54442d18 	strplb	r2, [r4], #-3352
    a098:	e51f2068 	ldr	r2, [pc, #-104]	; a038 <.text+0xa038>
    a09c:	e5961028 	ldr	r1, [r6, #40]
    a0a0:	e5960024 	ldr	r0, [r6, #36]
    a0a4:	e5ce8000 	strb	r8, [lr]
    a0a8:	ebfffce8 	bl	9450 <nav_approaching_xy>
    a0ac:	e31000ff 	tst	r0, #255	; 0xff
    a0b0:	e51f307c 	ldr	r3, [pc, #-124]	; a03c <.text+0xa03c>
    a0b4:	151f207c 	ldrne	r2, [pc, #-124]	; a040 <.text+0xa040>
    a0b8:	15d43000 	ldrneb	r3, [r4]
    a0bc:	15c2a000 	strneb	sl, [r2]
    a0c0:	12833001 	addne	r3, r3, #1	; 0x1
    a0c4:	1afffed7 	bne	9c28 <.text+0x9c28>
    a0c8:	e5932028 	ldr	r2, [r3, #40]
    a0cc:	e5936024 	ldr	r6, [r3, #36]
    a0d0:	e51f3094 	ldr	r3, [pc, #-148]	; a044 <.text+0xa044>
    a0d4:	e5c37000 	strb	r7, [r3]
    a0d8:	e51f3098 	ldr	r3, [pc, #-152]	; a048 <.text+0xa048>
    a0dc:	e5836000 	str	r6, [r3]
    a0e0:	e51f309c 	ldr	r3, [pc, #-156]	; a04c <.text+0xa04c>
    a0e4:	e5991000 	ldr	r1, [r9]
    a0e8:	e5832000 	str	r2, [r3]
    a0ec:	e1a00002 	mov	r0, r2
    a0f0:	eb001436 	bl	f1d0 <__subsf3>
    a0f4:	eb00123f 	bl	e9f8 <__extendsfdf2>
    a0f8:	e51f20b0 	ldr	r2, [pc, #-176]	; a050 <.text+0xa050>
    a0fc:	e1a05001 	mov	r5, r1
    a100:	e1a04000 	mov	r4, r0
    a104:	e5921000 	ldr	r1, [r2]
    a108:	e1a00006 	mov	r0, r6
    a10c:	eb00142f 	bl	f1d0 <__subsf3>
    a110:	eb001238 	bl	e9f8 <__extendsfdf2>
    a114:	e1a03001 	mov	r3, r1
    a118:	e1a02000 	mov	r2, r0
    a11c:	e1a01005 	mov	r1, r5
    a120:	e1a00004 	mov	r0, r4
    a124:	eb0015d6 	bl	f884 <__atan2_from_arm>
    a128:	e1a03001 	mov	r3, r1
    a12c:	e1a02000 	mov	r2, r0
    a130:	e24f00a8 	sub	r0, pc, #168	; 0xa8
    a134:	e8900003 	ldmia	r0, {r0, r1}
    a138:	eb001157 	bl	e69c <__subdf3>
    a13c:	eb0013e5 	bl	f0d8 <__truncdfsf2>
    a140:	e51f30f4 	ldr	r3, [pc, #-244]	; a054 <.text+0xa054>
    a144:	e5830000 	str	r0, [r3]
    a148:	e51f30f8 	ldr	r3, [pc, #-248]	; a058 <.text+0xa058>
    a14c:	e5c37000 	strb	r7, [r3]
    a150:	e51f30fc 	ldr	r3, [pc, #-252]	; a05c <.text+0xa05c>
    a154:	e3a02000 	mov	r2, #0	; 0x0
    a158:	e5832000 	str	r2, [r3]
    a15c:	e51f30f4 	ldr	r3, [pc, #-244]	; a070 <.text+0xa070>
    a160:	e5c38000 	strb	r8, [r3]
    a164:	e51f310c 	ldr	r3, [pc, #-268]	; a060 <.text+0xa060>
    a168:	e3a02d2d 	mov	r2, #2880	; 0xb40
    a16c:	e1c320b0 	strh	r2, [r3]
    a170:	ea000005 	b	a18c <.text+0xa18c>
    a174:	e28a3001 	add	r3, sl, #1	; 0x1
    a178:	e5c03000 	strb	r3, [r0]
    a17c:	e51f3120 	ldr	r3, [pc, #-288]	; a064 <.text+0xa064>
    a180:	e5ce7000 	strb	r7, [lr]
    a184:	e1c370b0 	strh	r7, [r3]
    a188:	ebfffb29 	bl	8e34 <nav_init_stage>
    a18c:	e51f312c 	ldr	r3, [pc, #-300]	; a068 <.text+0xa068>
    a190:	e5d33000 	ldrb	r3, [r3]
    a194:	e3530000 	cmp	r3, #0	; 0x0
    a198:	151f3134 	ldrne	r3, [pc, #-308]	; a06c <.text+0xa06c>
    a19c:	15932000 	ldrne	r2, [r3]
    a1a0:	e51f3138 	ldr	r3, [pc, #-312]	; a070 <.text+0xa070>
    a1a4:	e5d33000 	ldrb	r3, [r3]
    a1a8:	03a02000 	moveq	r2, #0	; 0x0
    a1ac:	e3530002 	cmp	r3, #2	; 0x2
    a1b0:	e51f3144 	ldr	r3, [pc, #-324]	; a074 <.text+0xa074>
    a1b4:	e5832000 	str	r2, [r3]
    a1b8:	051f3148 	ldreq	r3, [pc, #-328]	; a078 <.text+0xa078>
    a1bc:	03a02000 	moveq	r2, #0	; 0x0
    a1c0:	05c32000 	streqb	r2, [r3]
    a1c4:	e51f3150 	ldr	r3, [pc, #-336]	; a07c <.text+0xa07c>
    a1c8:	e5932000 	ldr	r2, [r3]
    a1cc:	e51f3154 	ldr	r3, [pc, #-340]	; a080 <.text+0xa080>
    a1d0:	e5931000 	ldr	r1, [r3]
    a1d4:	e51f3158 	ldr	r3, [pc, #-344]	; a084 <.text+0xa084>
    a1d8:	e5832000 	str	r2, [r3]
    a1dc:	e51f315c 	ldr	r3, [pc, #-348]	; a088 <.text+0xa088>
    a1e0:	e1a00002 	mov	r0, r2
    a1e4:	e5832000 	str	r2, [r3]
    a1e8:	eb0013f9 	bl	f1d4 <__addsf3>
    a1ec:	e51f3168 	ldr	r3, [pc, #-360]	; a08c <.text+0xa08c>
    a1f0:	e5830000 	str	r0, [r3]
    a1f4:	e89d6ff0 	ldmia	sp, {r4, r5, r6, r7, r8, r9, sl, fp, sp, lr}
    a1f8:	e12fff1e 	bx	lr

0000a1fc <nav_init>:
    a1fc:	e59f3028 	ldr	r3, [pc, #40]	; a22c <.text+0xa22c>
    a200:	e3a01000 	mov	r1, #0	; 0x0
    a204:	e59f2024 	ldr	r2, [pc, #36]	; a230 <.text+0xa230>
    a208:	e5c31000 	strb	r1, [r3]
    a20c:	e59f3020 	ldr	r3, [pc, #32]	; a234 <.text+0xa234>
    a210:	e5832000 	str	r2, [r3]
    a214:	e59f301c 	ldr	r3, [pc, #28]	; a238 <.text+0xa238>
    a218:	e3a02000 	mov	r2, #0	; 0x0
    a21c:	e5832000 	str	r2, [r3]
    a220:	e59f3014 	ldr	r3, [pc, #20]	; a23c <.text+0xa23c>
    a224:	e5c31000 	strb	r1, [r3]
    a228:	e12fff1e 	bx	lr
    a22c:	400010c4 	andmi	r1, r0, r4, asr #1
    a230:	443d8000 	ldrmit	r8, [sp]
    a234:	400010d4 	ldrmid	r1, [r0], -r4
    a238:	40001084 	andmi	r1, r0, r4, lsl #1
    a23c:	400010ad 	andmi	r1, r0, sp, lsr #1

0000a240 <nav_without_gps>:
    a240:	e59f3038 	ldr	r3, [pc, #56]	; a280 <.text+0xa280>
    a244:	e3a02002 	mov	r2, #2	; 0x2
    a248:	e5c32000 	strb	r2, [r3]
    a24c:	e59f2030 	ldr	r2, [pc, #48]	; a284 <.text+0xa284>
    a250:	e59f3030 	ldr	r3, [pc, #48]	; a288 <.text+0xa288>
    a254:	e5832000 	str	r2, [r3]
    a258:	e59f202c 	ldr	r2, [pc, #44]	; a28c <.text+0xa28c>
    a25c:	e59f302c 	ldr	r3, [pc, #44]	; a290 <.text+0xa290>
    a260:	e5832000 	str	r2, [r3]
    a264:	e59f3028 	ldr	r3, [pc, #40]	; a294 <.text+0xa294>
    a268:	e3a02001 	mov	r2, #1	; 0x1
    a26c:	e5c32000 	strb	r2, [r3]
    a270:	e59f3020 	ldr	r3, [pc, #32]	; a298 <.text+0xa298>
    a274:	e3a02d1e 	mov	r2, #1920	; 0x780
    a278:	e1c320b0 	strh	r2, [r3]
    a27c:	e12fff1e 	bx	lr
    a280:	400004ac 	andmi	r0, r0, ip, lsr #9
    a284:	3e99999a 	mrccc	9, 4, r9, cr9, cr10, {4}
    a288:	4000118c 	andmi	r1, r0, ip, lsl #3
    a28c:	3dcccccd 	stcccl	12, cr12, [ip, #820]
    a290:	40000610 	andmi	r0, r0, r0, lsl r6
    a294:	400011c4 	andmi	r1, r0, r4, asr #3
    a298:	4000109c 	mulmi	r0, ip, r0

0000a29c <nav_eight_init>:
    a29c:	e59f3008 	ldr	r3, [pc, #8]	; a2ac <.text+0xa2ac>
    a2a0:	e3a02003 	mov	r2, #3	; 0x3
    a2a4:	e5832000 	str	r2, [r3]
    a2a8:	e12fff1e 	bx	lr
    a2ac:	40000668 	andmi	r0, r0, r8, ror #12

0000a2b0 <nav_eight>:
    a2b0:	e1a0c00d 	mov	ip, sp
    a2b4:	e92ddff0 	stmdb	sp!, {r4, r5, r6, r7, r8, r9, sl, fp, ip, lr, pc}
    a2b8:	e20000ff 	and	r0, r0, #255	; 0xff
    a2bc:	e24cb004 	sub	fp, ip, #4	; 0x4
    a2c0:	e24dd058 	sub	sp, sp, #88	; 0x58
    a2c4:	e20110ff 	and	r1, r1, #255	; 0xff
    a2c8:	e0800080 	add	r0, r0, r0, lsl #1
    a2cc:	e1a07100 	mov	r7, r0, lsl #2
    a2d0:	e50b1068 	str	r1, [fp, #-104]
    a2d4:	e1a00081 	mov	r0, r1, lsl #1
    a2d8:	e59f1650 	ldr	r1, [pc, #1616]	; a930 <.text+0xa930>
    a2dc:	e0878001 	add	r8, r7, r1
    a2e0:	e51b1068 	ldr	r1, [fp, #-104]
    a2e4:	e0803001 	add	r3, r0, r1
    a2e8:	e1a09103 	mov	r9, r3, lsl #2
    a2ec:	e5983008 	ldr	r3, [r8, #8]
    a2f0:	e50b0074 	str	r0, [fp, #-116]
    a2f4:	e50b3070 	str	r3, [fp, #-112]
    a2f8:	e59f0630 	ldr	r0, [pc, #1584]	; a930 <.text+0xa930>
    a2fc:	e50b206c 	str	r2, [fp, #-108]
    a300:	e51b2070 	ldr	r2, [fp, #-112]
    a304:	e0893000 	add	r3, r9, r0
    a308:	e5832008 	str	r2, [r3, #8]
    a30c:	e7971000 	ldr	r1, [r7, r0]
    a310:	e7990000 	ldr	r0, [r9, r0]
    a314:	e50b3078 	str	r3, [fp, #-120]
    a318:	eb0013ac 	bl	f1d0 <__subsf3>
    a31c:	e51b3078 	ldr	r3, [fp, #-120]
    a320:	e1a04000 	mov	r4, r0
    a324:	e5981004 	ldr	r1, [r8, #4]
    a328:	e5930004 	ldr	r0, [r3, #4]
    a32c:	eb0013a7 	bl	f1d0 <__subsf3>
    a330:	e1a01004 	mov	r1, r4
    a334:	e1a05000 	mov	r5, r0
    a338:	e1a00004 	mov	r0, r4
    a33c:	eb001429 	bl	f3e8 <__mulsf3>
    a340:	e1a01005 	mov	r1, r5
    a344:	e1a06000 	mov	r6, r0
    a348:	e1a00005 	mov	r0, r5
    a34c:	eb001425 	bl	f3e8 <__mulsf3>
    a350:	e1a01000 	mov	r1, r0
    a354:	e1a00006 	mov	r0, r6
    a358:	eb00139d 	bl	f1d4 <__addsf3>
    a35c:	eb0011a5 	bl	e9f8 <__extendsfdf2>
    a360:	eb001553 	bl	f8b4 <__sqrt_from_arm>
    a364:	eb00135b 	bl	f0d8 <__truncdfsf2>
    a368:	e1a06000 	mov	r6, r0
    a36c:	e1a01006 	mov	r1, r6
    a370:	e1a00004 	mov	r0, r4
    a374:	eb00147f 	bl	f578 <__divsf3>
    a378:	e1a01006 	mov	r1, r6
    a37c:	e50b007c 	str	r0, [fp, #-124]
    a380:	e1a00005 	mov	r0, r5
    a384:	eb00147b 	bl	f578 <__divsf3>
    a388:	e50b0080 	str	r0, [fp, #-128]
    a38c:	e51b006c 	ldr	r0, [fp, #-108]
    a390:	e1a01000 	mov	r1, r0
    a394:	eb00138e 	bl	f1d4 <__addsf3>
    a398:	e1a04000 	mov	r4, r0
    a39c:	e1a01004 	mov	r1, r4
    a3a0:	e1a00006 	mov	r0, r6
    a3a4:	eb0014db 	bl	f718 <__gesf2>
    a3a8:	e3500000 	cmp	r0, #0	; 0x0
    a3ac:	da000011 	ble	a3f8 <nav_eight+0x148>
    a3b0:	e51b107c 	ldr	r1, [fp, #-124]
    a3b4:	e1a00004 	mov	r0, r4
    a3b8:	eb00140a 	bl	f3e8 <__mulsf3>
    a3bc:	e59f256c 	ldr	r2, [pc, #1388]	; a930 <.text+0xa930>
    a3c0:	e1a01000 	mov	r1, r0
    a3c4:	e7970002 	ldr	r0, [r7, r2]
    a3c8:	eb001381 	bl	f1d4 <__addsf3>
    a3cc:	e59f355c 	ldr	r3, [pc, #1372]	; a930 <.text+0xa930>
    a3d0:	e51b1080 	ldr	r1, [fp, #-128]
    a3d4:	e7890003 	str	r0, [r9, r3]
    a3d8:	e1a00004 	mov	r0, r4
    a3dc:	eb001401 	bl	f3e8 <__mulsf3>
    a3e0:	e1a01000 	mov	r1, r0
    a3e4:	e5980004 	ldr	r0, [r8, #4]
    a3e8:	eb001379 	bl	f1d4 <__addsf3>
    a3ec:	e51b1078 	ldr	r1, [fp, #-120]
    a3f0:	e5810004 	str	r0, [r1, #4]
    a3f4:	e1a06004 	mov	r6, r4
    a3f8:	e51b107c 	ldr	r1, [fp, #-124]
    a3fc:	e1a00006 	mov	r0, r6
    a400:	eb0013f8 	bl	f3e8 <__mulsf3>
    a404:	e59f2524 	ldr	r2, [pc, #1316]	; a930 <.text+0xa930>
    a408:	e1a01000 	mov	r1, r0
    a40c:	e7970002 	ldr	r0, [r7, r2]
    a410:	eb00136e 	bl	f1d0 <__subsf3>
    a414:	e51b1080 	ldr	r1, [fp, #-128]
    a418:	e1a0a000 	mov	sl, r0
    a41c:	e1a00006 	mov	r0, r6
    a420:	e50ba034 	str	sl, [fp, #-52]
    a424:	eb0013ef 	bl	f3e8 <__mulsf3>
    a428:	e1a01000 	mov	r1, r0
    a42c:	e5980004 	ldr	r0, [r8, #4]
    a430:	eb001366 	bl	f1d0 <__subsf3>
    a434:	e51b3080 	ldr	r3, [fp, #-128]
    a438:	e51b2070 	ldr	r2, [fp, #-112]
    a43c:	e1a08000 	mov	r8, r0
    a440:	e2231102 	eor	r1, r3, #-2147483648	; 0x80000000
    a444:	e51b006c 	ldr	r0, [fp, #-108]
    a448:	e50b202c 	str	r2, [fp, #-44]
    a44c:	e50b8030 	str	r8, [fp, #-48]
    a450:	eb0013e4 	bl	f3e8 <__mulsf3>
    a454:	e59f34d4 	ldr	r3, [pc, #1236]	; a930 <.text+0xa930>
    a458:	e7997003 	ldr	r7, [r9, r3]
    a45c:	e1a05000 	mov	r5, r0
    a460:	e1a01000 	mov	r1, r0
    a464:	e1a00007 	mov	r0, r7
    a468:	eb001359 	bl	f1d4 <__addsf3>
    a46c:	e51b107c 	ldr	r1, [fp, #-124]
    a470:	e50b0040 	str	r0, [fp, #-64]
    a474:	e51b006c 	ldr	r0, [fp, #-108]
    a478:	eb0013da 	bl	f3e8 <__mulsf3>
    a47c:	e1a04000 	mov	r4, r0
    a480:	e51b0078 	ldr	r0, [fp, #-120]
    a484:	e5906004 	ldr	r6, [r0, #4]
    a488:	e1a01004 	mov	r1, r4
    a48c:	e1a00006 	mov	r0, r6
    a490:	eb00134f 	bl	f1d4 <__addsf3>
    a494:	e51b2070 	ldr	r2, [fp, #-112]
    a498:	e1a01005 	mov	r1, r5
    a49c:	e50b003c 	str	r0, [fp, #-60]
    a4a0:	e1a00007 	mov	r0, r7
    a4a4:	e50b2038 	str	r2, [fp, #-56]
    a4a8:	eb001348 	bl	f1d0 <__subsf3>
    a4ac:	e1a01004 	mov	r1, r4
    a4b0:	e50b004c 	str	r0, [fp, #-76]
    a4b4:	e1a00006 	mov	r0, r6
    a4b8:	eb001344 	bl	f1d0 <__subsf3>
    a4bc:	e51b3070 	ldr	r3, [fp, #-112]
    a4c0:	e1a01005 	mov	r1, r5
    a4c4:	e50b0048 	str	r0, [fp, #-72]
    a4c8:	e1a0000a 	mov	r0, sl
    a4cc:	e50b3044 	str	r3, [fp, #-68]
    a4d0:	eb00133f 	bl	f1d4 <__addsf3>
    a4d4:	e1a01004 	mov	r1, r4
    a4d8:	e50b0058 	str	r0, [fp, #-88]
    a4dc:	e1a00008 	mov	r0, r8
    a4e0:	eb00133b 	bl	f1d4 <__addsf3>
    a4e4:	e51b2070 	ldr	r2, [fp, #-112]
    a4e8:	e1a01005 	mov	r1, r5
    a4ec:	e50b0054 	str	r0, [fp, #-84]
    a4f0:	e1a0000a 	mov	r0, sl
    a4f4:	e50b2050 	str	r2, [fp, #-80]
    a4f8:	eb001334 	bl	f1d0 <__subsf3>
    a4fc:	e1a01004 	mov	r1, r4
    a500:	e50b0064 	str	r0, [fp, #-100]
    a504:	e1a00008 	mov	r0, r8
    a508:	eb001330 	bl	f1d0 <__subsf3>
    a50c:	e51b3070 	ldr	r3, [fp, #-112]
    a510:	e50b0060 	str	r0, [fp, #-96]
    a514:	e51b0080 	ldr	r0, [fp, #-128]
    a518:	e50b305c 	str	r3, [fp, #-92]
    a51c:	eb001135 	bl	e9f8 <__extendsfdf2>
    a520:	e1a05001 	mov	r5, r1
    a524:	e1a04000 	mov	r4, r0
    a528:	e51b007c 	ldr	r0, [fp, #-124]
    a52c:	eb001131 	bl	e9f8 <__extendsfdf2>
    a530:	e1a03001 	mov	r3, r1
    a534:	e1a02000 	mov	r2, r0
    a538:	e1a01005 	mov	r1, r5
    a53c:	e1a00004 	mov	r0, r4
    a540:	eb0014cf 	bl	f884 <__atan2_from_arm>
    a544:	e1a03001 	mov	r3, r1
    a548:	e1a02000 	mov	r2, r0
    a54c:	e28f0fef 	add	r0, pc, #956	; 0x3bc
    a550:	e8900003 	ldmia	r0, {r0, r1}
    a554:	eb001050 	bl	e69c <__subdf3>
    a558:	eb0012de 	bl	f0d8 <__truncdfsf2>
    a55c:	e59f63d0 	ldr	r6, [pc, #976]	; a934 <.text+0xa934>
    a560:	e5963000 	ldr	r3, [r6]
    a564:	e1a04000 	mov	r4, r0
    a568:	e3530003 	cmp	r3, #3	; 0x3
    a56c:	979ff103 	ldrls	pc, [pc, r3, lsl #2]
    a570:	ea0000e3 	b	a904 <.text+0xa904>
    a574:	0000a718 	andeq	sl, r0, r8, lsl r7
    a578:	0000a74c 	andeq	sl, r0, ip, asr #14
    a57c:	0000a8cc 	andeq	sl, r0, ip, asr #17
    a580:	0000a584 	andeq	sl, r0, r4, lsl #11
    a584:	e51b0074 	ldr	r0, [fp, #-116]
    a588:	e51b1068 	ldr	r1, [fp, #-104]
    a58c:	e59f239c 	ldr	r2, [pc, #924]	; a930 <.text+0xa930>
    a590:	e0803001 	add	r3, r0, r1
    a594:	e1a03103 	mov	r3, r3, lsl #2
    a598:	e0831002 	add	r1, r3, r2
    a59c:	e7930002 	ldr	r0, [r3, r2]
    a5a0:	e5911004 	ldr	r1, [r1, #4]
    a5a4:	e51b206c 	ldr	r2, [fp, #-108]
    a5a8:	ebfffa41 	bl	8eb4 <nav_circle_XY>
    a5ac:	e1a00004 	mov	r0, r4
    a5b0:	eb001110 	bl	e9f8 <__extendsfdf2>
    a5b4:	e28f2fd5 	add	r2, pc, #852	; 0x354
    a5b8:	e892000c 	ldmia	r2, {r2, r3}
    a5bc:	eb0011be 	bl	ecbc <__divdf3>
    a5c0:	e28f2e35 	add	r2, pc, #848	; 0x350
    a5c4:	e892000c 	ldmia	r2, {r2, r3}
    a5c8:	eb00111d 	bl	ea44 <__muldf3>
    a5cc:	e28f2fd3 	add	r2, pc, #844	; 0x34c
    a5d0:	e892000c 	ldmia	r2, {r2, r3}
    a5d4:	eb001030 	bl	e69c <__subdf3>
    a5d8:	eb0012be 	bl	f0d8 <__truncdfsf2>
    a5dc:	ea000000 	b	a5e4 <.text+0xa5e4>
    a5e0:	eb0012fb 	bl	f1d4 <__addsf3>
    a5e4:	e3a01000 	mov	r1, #0	; 0x0
    a5e8:	e1a05000 	mov	r5, r0
    a5ec:	eb00144b 	bl	f720 <__lesf2>
    a5f0:	e3500000 	cmp	r0, #0	; 0x0
    a5f4:	e59f133c 	ldr	r1, [pc, #828]	; a938 <.text+0xa938>
    a5f8:	e1a00005 	mov	r0, r5
    a5fc:	bafffff7 	blt	a5e0 <.text+0xa5e0>
    a600:	ea000001 	b	a60c <.text+0xa60c>
    a604:	eb0012f1 	bl	f1d0 <__subsf3>
    a608:	e1a05000 	mov	r5, r0
    a60c:	e59f1324 	ldr	r1, [pc, #804]	; a938 <.text+0xa938>
    a610:	e1a00005 	mov	r0, r5
    a614:	eb00143f 	bl	f718 <__gesf2>
    a618:	e3500000 	cmp	r0, #0	; 0x0
    a61c:	e59f1314 	ldr	r1, [pc, #788]	; a938 <.text+0xa938>
    a620:	e1a00005 	mov	r0, r5
    a624:	aafffff6 	bge	a604 <.text+0xa604>
    a628:	e59f330c 	ldr	r3, [pc, #780]	; a93c <.text+0xa93c>
    a62c:	e5930000 	ldr	r0, [r3]
    a630:	eb0010f0 	bl	e9f8 <__extendsfdf2>
    a634:	e1a03001 	mov	r3, r1
    a638:	e1a02000 	mov	r2, r0
    a63c:	e28f0fb9 	add	r0, pc, #740	; 0x2e4
    a640:	e8900003 	ldmia	r0, {r0, r1}
    a644:	eb001014 	bl	e69c <__subdf3>
    a648:	e28f2d0b 	add	r2, pc, #704	; 0x2c0
    a64c:	e892000c 	ldmia	r2, {r2, r3}
    a650:	eb001199 	bl	ecbc <__divdf3>
    a654:	e28f2faf 	add	r2, pc, #700	; 0x2bc
    a658:	e892000c 	ldmia	r2, {r2, r3}
    a65c:	eb0010f8 	bl	ea44 <__muldf3>
    a660:	eb00129c 	bl	f0d8 <__truncdfsf2>
    a664:	ea000000 	b	a66c <.text+0xa66c>
    a668:	eb0012d9 	bl	f1d4 <__addsf3>
    a66c:	e3a01000 	mov	r1, #0	; 0x0
    a670:	e1a04000 	mov	r4, r0
    a674:	eb001429 	bl	f720 <__lesf2>
    a678:	e3500000 	cmp	r0, #0	; 0x0
    a67c:	e59f12b4 	ldr	r1, [pc, #692]	; a938 <.text+0xa938>
    a680:	e1a00004 	mov	r0, r4
    a684:	bafffff7 	blt	a668 <.text+0xa668>
    a688:	ea000001 	b	a694 <.text+0xa694>
    a68c:	eb0012cf 	bl	f1d0 <__subsf3>
    a690:	e1a04000 	mov	r4, r0
    a694:	e59f129c 	ldr	r1, [pc, #668]	; a938 <.text+0xa938>
    a698:	e1a00004 	mov	r0, r4
    a69c:	eb00141d 	bl	f718 <__gesf2>
    a6a0:	e3500000 	cmp	r0, #0	; 0x0
    a6a4:	e59f128c 	ldr	r1, [pc, #652]	; a938 <.text+0xa938>
    a6a8:	e1a00004 	mov	r0, r4
    a6ac:	aafffff6 	bge	a68c <.text+0xa68c>
    a6b0:	e1a00005 	mov	r0, r5
    a6b4:	e59f1284 	ldr	r1, [pc, #644]	; a940 <.text+0xa940>
    a6b8:	eb001418 	bl	f720 <__lesf2>
    a6bc:	e3500000 	cmp	r0, #0	; 0x0
    a6c0:	aa000005 	bge	a6dc <.text+0xa6dc>
    a6c4:	e1a00005 	mov	r0, r5
    a6c8:	e1a01004 	mov	r1, r4
    a6cc:	eb001413 	bl	f720 <__lesf2>
    a6d0:	e3500000 	cmp	r0, #0	; 0x0
    a6d4:	ba000005 	blt	a6f0 <.text+0xa6f0>
    a6d8:	ea000089 	b	a904 <.text+0xa904>
    a6dc:	e1a00004 	mov	r0, r4
    a6e0:	e59f1258 	ldr	r1, [pc, #600]	; a940 <.text+0xa940>
    a6e4:	eb00140b 	bl	f718 <__gesf2>
    a6e8:	e3500000 	cmp	r0, #0	; 0x0
    a6ec:	da000084 	ble	a904 <.text+0xa904>
    a6f0:	e59f124c 	ldr	r1, [pc, #588]	; a944 <.text+0xa944>
    a6f4:	e1a00005 	mov	r0, r5
    a6f8:	eb0012b5 	bl	f1d4 <__addsf3>
    a6fc:	e1a01000 	mov	r1, r0
    a700:	e1a00004 	mov	r0, r4
    a704:	eb001405 	bl	f720 <__lesf2>
    a708:	e3500000 	cmp	r0, #0	; 0x0
    a70c:	b3a03000 	movlt	r3, #0	; 0x0
    a710:	ba000079 	blt	a8fc <.text+0xa8fc>
    a714:	ea00007a 	b	a904 <.text+0xa904>
    a718:	e51b3054 	ldr	r3, [fp, #-84]
    a71c:	e51b004c 	ldr	r0, [fp, #-76]
    a720:	e51b1048 	ldr	r1, [fp, #-72]
    a724:	e51b2058 	ldr	r2, [fp, #-88]
    a728:	ebfffb8c 	bl	9560 <nav_route_xy>
    a72c:	e51b0058 	ldr	r0, [fp, #-88]
    a730:	e51b1054 	ldr	r1, [fp, #-84]
    a734:	e59f220c 	ldr	r2, [pc, #524]	; a948 <.text+0xa948>
    a738:	ebfffb44 	bl	9450 <nav_approaching_xy>
    a73c:	e31000ff 	tst	r0, #255	; 0xff
    a740:	13a03001 	movne	r3, #1	; 0x1
    a744:	1a00006c 	bne	a8fc <.text+0xa8fc>
    a748:	ea00006d 	b	a904 <.text+0xa904>
    a74c:	e51b306c 	ldr	r3, [fp, #-108]
    a750:	e51b0034 	ldr	r0, [fp, #-52]
    a754:	e2232102 	eor	r2, r3, #-2147483648	; 0x80000000
    a758:	e51b1030 	ldr	r1, [fp, #-48]
    a75c:	ebfff9d4 	bl	8eb4 <nav_circle_XY>
    a760:	e1a00004 	mov	r0, r4
    a764:	eb0010a3 	bl	e9f8 <__extendsfdf2>
    a768:	e28f2e1a 	add	r2, pc, #416	; 0x1a0
    a76c:	e892000c 	ldmia	r2, {r2, r3}
    a770:	eb001151 	bl	ecbc <__divdf3>
    a774:	e28f2f67 	add	r2, pc, #412	; 0x19c
    a778:	e892000c 	ldmia	r2, {r2, r3}
    a77c:	eb0010b0 	bl	ea44 <__muldf3>
    a780:	e28f2f66 	add	r2, pc, #408	; 0x198
    a784:	e892000c 	ldmia	r2, {r2, r3}
    a788:	eb000fc4 	bl	e6a0 <__adddf3>
    a78c:	eb001251 	bl	f0d8 <__truncdfsf2>
    a790:	ea000000 	b	a798 <.text+0xa798>
    a794:	eb00128e 	bl	f1d4 <__addsf3>
    a798:	e3a01000 	mov	r1, #0	; 0x0
    a79c:	e1a05000 	mov	r5, r0
    a7a0:	eb0013de 	bl	f720 <__lesf2>
    a7a4:	e3500000 	cmp	r0, #0	; 0x0
    a7a8:	e59f1188 	ldr	r1, [pc, #392]	; a938 <.text+0xa938>
    a7ac:	e1a00005 	mov	r0, r5
    a7b0:	bafffff7 	blt	a794 <.text+0xa794>
    a7b4:	ea000001 	b	a7c0 <.text+0xa7c0>
    a7b8:	eb001284 	bl	f1d0 <__subsf3>
    a7bc:	e1a05000 	mov	r5, r0
    a7c0:	e59f1170 	ldr	r1, [pc, #368]	; a938 <.text+0xa938>
    a7c4:	e1a00005 	mov	r0, r5
    a7c8:	eb0013d2 	bl	f718 <__gesf2>
    a7cc:	e3500000 	cmp	r0, #0	; 0x0
    a7d0:	e59f1160 	ldr	r1, [pc, #352]	; a938 <.text+0xa938>
    a7d4:	e1a00005 	mov	r0, r5
    a7d8:	aafffff6 	bge	a7b8 <.text+0xa7b8>
    a7dc:	e59f3158 	ldr	r3, [pc, #344]	; a93c <.text+0xa93c>
    a7e0:	e5930000 	ldr	r0, [r3]
    a7e4:	eb001083 	bl	e9f8 <__extendsfdf2>
    a7e8:	e1a03001 	mov	r3, r1
    a7ec:	e1a02000 	mov	r2, r0
    a7f0:	e28f0e13 	add	r0, pc, #304	; 0x130
    a7f4:	e8900003 	ldmia	r0, {r0, r1}
    a7f8:	eb000fa7 	bl	e69c <__subdf3>
    a7fc:	e28f2f43 	add	r2, pc, #268	; 0x10c
    a800:	e892000c 	ldmia	r2, {r2, r3}
    a804:	eb00112c 	bl	ecbc <__divdf3>
    a808:	e28f2f42 	add	r2, pc, #264	; 0x108
    a80c:	e892000c 	ldmia	r2, {r2, r3}
    a810:	eb00108b 	bl	ea44 <__muldf3>
    a814:	eb00122f 	bl	f0d8 <__truncdfsf2>
    a818:	ea000000 	b	a820 <.text+0xa820>
    a81c:	eb00126c 	bl	f1d4 <__addsf3>
    a820:	e3a01000 	mov	r1, #0	; 0x0
    a824:	e1a04000 	mov	r4, r0
    a828:	eb0013bc 	bl	f720 <__lesf2>
    a82c:	e3500000 	cmp	r0, #0	; 0x0
    a830:	e59f1100 	ldr	r1, [pc, #256]	; a938 <.text+0xa938>
    a834:	e1a00004 	mov	r0, r4
    a838:	bafffff7 	blt	a81c <.text+0xa81c>
    a83c:	ea000001 	b	a848 <.text+0xa848>
    a840:	eb001262 	bl	f1d0 <__subsf3>
    a844:	e1a04000 	mov	r4, r0
    a848:	e59f10e8 	ldr	r1, [pc, #232]	; a938 <.text+0xa938>
    a84c:	e1a00004 	mov	r0, r4
    a850:	eb0013b0 	bl	f718 <__gesf2>
    a854:	e3500000 	cmp	r0, #0	; 0x0
    a858:	e59f10d8 	ldr	r1, [pc, #216]	; a938 <.text+0xa938>
    a85c:	e1a00004 	mov	r0, r4
    a860:	aafffff6 	bge	a840 <.text+0xa840>
    a864:	e1a00005 	mov	r0, r5
    a868:	e59f10d0 	ldr	r1, [pc, #208]	; a940 <.text+0xa940>
    a86c:	eb0013ab 	bl	f720 <__lesf2>
    a870:	e3500000 	cmp	r0, #0	; 0x0
    a874:	aa000005 	bge	a890 <.text+0xa890>
    a878:	e1a00005 	mov	r0, r5
    a87c:	e1a01004 	mov	r1, r4
    a880:	eb0013a6 	bl	f720 <__lesf2>
    a884:	e3500000 	cmp	r0, #0	; 0x0
    a888:	ba000005 	blt	a8a4 <.text+0xa8a4>
    a88c:	ea00001c 	b	a904 <.text+0xa904>
    a890:	e1a00004 	mov	r0, r4
    a894:	e59f10a4 	ldr	r1, [pc, #164]	; a940 <.text+0xa940>
    a898:	eb00139e 	bl	f718 <__gesf2>
    a89c:	e3500000 	cmp	r0, #0	; 0x0
    a8a0:	da000017 	ble	a904 <.text+0xa904>
    a8a4:	e59f1098 	ldr	r1, [pc, #152]	; a944 <.text+0xa944>
    a8a8:	e1a00005 	mov	r0, r5
    a8ac:	eb001248 	bl	f1d4 <__addsf3>
    a8b0:	e1a01000 	mov	r1, r0
    a8b4:	e1a00004 	mov	r0, r4
    a8b8:	eb001398 	bl	f720 <__lesf2>
    a8bc:	e3500000 	cmp	r0, #0	; 0x0
    a8c0:	b3a03002 	movlt	r3, #2	; 0x2
    a8c4:	ba00000c 	blt	a8fc <.text+0xa8fc>
    a8c8:	ea00000d 	b	a904 <.text+0xa904>
    a8cc:	e51b0064 	ldr	r0, [fp, #-100]
    a8d0:	e51b1060 	ldr	r1, [fp, #-96]
    a8d4:	e51b2040 	ldr	r2, [fp, #-64]
    a8d8:	e51b303c 	ldr	r3, [fp, #-60]
    a8dc:	ebfffb1f 	bl	9560 <nav_route_xy>
    a8e0:	e51b0040 	ldr	r0, [fp, #-64]
    a8e4:	e51b103c 	ldr	r1, [fp, #-60]
    a8e8:	e59f2058 	ldr	r2, [pc, #88]	; a948 <.text+0xa948>
    a8ec:	ebfffad7 	bl	9450 <nav_approaching_xy>
    a8f0:	e31000ff 	tst	r0, #255	; 0xff
    a8f4:	0a000002 	beq	a904 <.text+0xa904>
    a8f8:	e3a03003 	mov	r3, #3	; 0x3
    a8fc:	e5863000 	str	r3, [r6]
    a900:	ebfff94b 	bl	8e34 <nav_init_stage>
    a904:	e24bd028 	sub	sp, fp, #40	; 0x28
    a908:	e89d6ff0 	ldmia	sp, {r4, r5, r6, r7, r8, r9, sl, fp, sp, lr}
    a90c:	e12fff1e 	bx	lr
    a910:	400921fb 	strmid	r2, [r9], -fp
    a914:	54442d18 	strplb	r2, [r4], #-3352
    a918:	40668000 	rsbmi	r8, r6, r0
    a91c:	00000000 	andeq	r0, r0, r0
    a920:	40240000 	eormi	r0, r4, r0
    a924:	00000000 	andeq	r0, r0, r0
    a928:	3ff921fb 	swicc	0x00f921fb
    a92c:	54442d18 	strplb	r2, [r4], #-3352
    a930:	40000038 	andmi	r0, r0, r8, lsr r0
    a934:	40000668 	andmi	r0, r0, r8, ror #12
    a938:	43b40000 	movmis	r0, #0	; 0x0
    a93c:	400010e0 	andmi	r1, r0, r0, ror #1
    a940:	43af0000 	movmi	r0, #0	; 0x0
    a944:	41200000 	teqmi	r0, r0
    a948:	40a00000 	adcmi	r0, r0, r0

0000a94c <nav_oval_init>:
    a94c:	e59f3008 	ldr	r3, [pc, #8]	; a95c <.text+0xa95c>
    a950:	e3a02001 	mov	r2, #1	; 0x1
    a954:	e5832000 	str	r2, [r3]
    a958:	e12fff1e 	bx	lr
    a95c:	4000066c 	andmi	r0, r0, ip, ror #12

0000a960 <nav_oval>:
    a960:	e1a0c00d 	mov	ip, sp
    a964:	e92ddff0 	stmdb	sp!, {r4, r5, r6, r7, r8, r9, sl, fp, ip, lr, pc}
    a968:	e20000ff 	and	r0, r0, #255	; 0xff
    a96c:	e24cb004 	sub	fp, ip, #4	; 0x4
    a970:	e24dd054 	sub	sp, sp, #84	; 0x54
    a974:	e1a03080 	mov	r3, r0, lsl #1
    a978:	e0837000 	add	r7, r3, r0
    a97c:	e50b3068 	str	r3, [fp, #-104]
    a980:	e20110ff 	and	r1, r1, #255	; 0xff
    a984:	e59f35b8 	ldr	r3, [pc, #1464]	; af44 <.text+0xaf44>
    a988:	e1a07107 	mov	r7, r7, lsl #2
    a98c:	e50b1060 	str	r1, [fp, #-96]
    a990:	e087a003 	add	sl, r7, r3
    a994:	e51b3060 	ldr	r3, [fp, #-96]
    a998:	e1a01081 	mov	r1, r1, lsl #1
    a99c:	e0818003 	add	r8, r1, r3
    a9a0:	e59f359c 	ldr	r3, [pc, #1436]	; af44 <.text+0xaf44>
    a9a4:	e1a08108 	mov	r8, r8, lsl #2
    a9a8:	e50b106c 	str	r1, [fp, #-108]
    a9ac:	e0883003 	add	r3, r8, r3
    a9b0:	e59a1008 	ldr	r1, [sl, #8]
    a9b4:	e50b3070 	str	r3, [fp, #-112]
    a9b8:	e59f3584 	ldr	r3, [pc, #1412]	; af44 <.text+0xaf44>
    a9bc:	e50b1064 	str	r1, [fp, #-100]
    a9c0:	e1a09002 	mov	r9, r2
    a9c4:	e7981003 	ldr	r1, [r8, r3]
    a9c8:	e51b2070 	ldr	r2, [fp, #-112]
    a9cc:	e50b005c 	str	r0, [fp, #-92]
    a9d0:	e7970003 	ldr	r0, [r7, r3]
    a9d4:	e51b3064 	ldr	r3, [fp, #-100]
    a9d8:	e5823008 	str	r3, [r2, #8]
    a9dc:	eb0011fb 	bl	f1d0 <__subsf3>
    a9e0:	e51b2070 	ldr	r2, [fp, #-112]
    a9e4:	e1a05000 	mov	r5, r0
    a9e8:	e5921004 	ldr	r1, [r2, #4]
    a9ec:	e59a0004 	ldr	r0, [sl, #4]
    a9f0:	eb0011f6 	bl	f1d0 <__subsf3>
    a9f4:	e1a01005 	mov	r1, r5
    a9f8:	e1a06000 	mov	r6, r0
    a9fc:	e1a00005 	mov	r0, r5
    aa00:	eb001278 	bl	f3e8 <__mulsf3>
    aa04:	e1a01006 	mov	r1, r6
    aa08:	e1a04000 	mov	r4, r0
    aa0c:	e1a00006 	mov	r0, r6
    aa10:	eb001274 	bl	f3e8 <__mulsf3>
    aa14:	e1a01000 	mov	r1, r0
    aa18:	e1a00004 	mov	r0, r4
    aa1c:	eb0011ec 	bl	f1d4 <__addsf3>
    aa20:	eb000ff4 	bl	e9f8 <__extendsfdf2>
    aa24:	eb0013a2 	bl	f8b4 <__sqrt_from_arm>
    aa28:	eb0011aa 	bl	f0d8 <__truncdfsf2>
    aa2c:	e1a04000 	mov	r4, r0
    aa30:	e1a01004 	mov	r1, r4
    aa34:	e1a00005 	mov	r0, r5
    aa38:	eb0012ce 	bl	f578 <__divsf3>
    aa3c:	e1a01004 	mov	r1, r4
    aa40:	e50b0074 	str	r0, [fp, #-116]
    aa44:	e1a00006 	mov	r0, r6
    aa48:	eb0012ca 	bl	f578 <__divsf3>
    aa4c:	e50b0078 	str	r0, [fp, #-120]
    aa50:	e51b3078 	ldr	r3, [fp, #-120]
    aa54:	e1a00009 	mov	r0, r9
    aa58:	e2231102 	eor	r1, r3, #-2147483648	; 0x80000000
    aa5c:	eb001261 	bl	f3e8 <__mulsf3>
    aa60:	e59f14dc 	ldr	r1, [pc, #1244]	; af44 <.text+0xaf44>
    aa64:	e7974001 	ldr	r4, [r7, r1]
    aa68:	e50b007c 	str	r0, [fp, #-124]
    aa6c:	e1a01000 	mov	r1, r0
    aa70:	e1a00004 	mov	r0, r4
    aa74:	eb0011d6 	bl	f1d4 <__addsf3>
    aa78:	e51b1074 	ldr	r1, [fp, #-116]
    aa7c:	e50b0034 	str	r0, [fp, #-52]
    aa80:	e1a00009 	mov	r0, r9
    aa84:	eb001257 	bl	f3e8 <__mulsf3>
    aa88:	e59a6004 	ldr	r6, [sl, #4]
    aa8c:	e1a01000 	mov	r1, r0
    aa90:	e1a07000 	mov	r7, r0
    aa94:	e1a00006 	mov	r0, r6
    aa98:	eb0011cd 	bl	f1d4 <__addsf3>
    aa9c:	e51b2064 	ldr	r2, [fp, #-100]
    aaa0:	e50b0030 	str	r0, [fp, #-48]
    aaa4:	e3a01103 	mov	r1, #-1073741824	; 0xc0000000
    aaa8:	e1a00009 	mov	r0, r9
    aaac:	e50b202c 	str	r2, [fp, #-44]
    aab0:	eb00124c 	bl	f3e8 <__mulsf3>
    aab4:	e51b1078 	ldr	r1, [fp, #-120]
    aab8:	eb00124a 	bl	f3e8 <__mulsf3>
    aabc:	e1a05000 	mov	r5, r0
    aac0:	e1a01005 	mov	r1, r5
    aac4:	e1a00004 	mov	r0, r4
    aac8:	eb0011c1 	bl	f1d4 <__addsf3>
    aacc:	e1a01009 	mov	r1, r9
    aad0:	e50b0040 	str	r0, [fp, #-64]
    aad4:	e1a00009 	mov	r0, r9
    aad8:	eb0011bd 	bl	f1d4 <__addsf3>
    aadc:	e51b1074 	ldr	r1, [fp, #-116]
    aae0:	eb001240 	bl	f3e8 <__mulsf3>
    aae4:	e1a04000 	mov	r4, r0
    aae8:	e1a01004 	mov	r1, r4
    aaec:	e1a00006 	mov	r0, r6
    aaf0:	eb0011b7 	bl	f1d4 <__addsf3>
    aaf4:	e59f3448 	ldr	r3, [pc, #1096]	; af44 <.text+0xaf44>
    aaf8:	e7986003 	ldr	r6, [r8, r3]
    aafc:	e51b2064 	ldr	r2, [fp, #-100]
    ab00:	e1a01005 	mov	r1, r5
    ab04:	e50b003c 	str	r0, [fp, #-60]
    ab08:	e1a00006 	mov	r0, r6
    ab0c:	e50b2038 	str	r2, [fp, #-56]
    ab10:	eb0011af 	bl	f1d4 <__addsf3>
    ab14:	e51b3070 	ldr	r3, [fp, #-112]
    ab18:	e5935004 	ldr	r5, [r3, #4]
    ab1c:	e1a01004 	mov	r1, r4
    ab20:	e50b004c 	str	r0, [fp, #-76]
    ab24:	e1a00005 	mov	r0, r5
    ab28:	eb0011a9 	bl	f1d4 <__addsf3>
    ab2c:	e51b2064 	ldr	r2, [fp, #-100]
    ab30:	e51b107c 	ldr	r1, [fp, #-124]
    ab34:	e50b0048 	str	r0, [fp, #-72]
    ab38:	e1a00006 	mov	r0, r6
    ab3c:	e50b2044 	str	r2, [fp, #-68]
    ab40:	eb0011a3 	bl	f1d4 <__addsf3>
    ab44:	e1a01007 	mov	r1, r7
    ab48:	e50b0058 	str	r0, [fp, #-88]
    ab4c:	e1a00005 	mov	r0, r5
    ab50:	eb00119f 	bl	f1d4 <__addsf3>
    ab54:	e51b3064 	ldr	r3, [fp, #-100]
    ab58:	e50b0054 	str	r0, [fp, #-84]
    ab5c:	e51b0078 	ldr	r0, [fp, #-120]
    ab60:	e50b3050 	str	r3, [fp, #-80]
    ab64:	eb000fa3 	bl	e9f8 <__extendsfdf2>
    ab68:	e1a05001 	mov	r5, r1
    ab6c:	e1a04000 	mov	r4, r0
    ab70:	e51b0074 	ldr	r0, [fp, #-116]
    ab74:	eb000f9f 	bl	e9f8 <__extendsfdf2>
    ab78:	e1a03001 	mov	r3, r1
    ab7c:	e1a02000 	mov	r2, r0
    ab80:	e1a01005 	mov	r1, r5
    ab84:	e1a00004 	mov	r0, r4
    ab88:	eb00133d 	bl	f884 <__atan2_from_arm>
    ab8c:	e1a03001 	mov	r3, r1
    ab90:	e1a02000 	mov	r2, r0
    ab94:	e28f0fdd 	add	r0, pc, #884	; 0x374
    ab98:	e8900003 	ldmia	r0, {r0, r1}
    ab9c:	eb000ebe 	bl	e69c <__subdf3>
    aba0:	eb00114c 	bl	f0d8 <__truncdfsf2>
    aba4:	e1a05000 	mov	r5, r0
    aba8:	eb000f92 	bl	e9f8 <__extendsfdf2>
    abac:	e28f2fd7 	add	r2, pc, #860	; 0x35c
    abb0:	e892000c 	ldmia	r2, {r2, r3}
    abb4:	eb000eb9 	bl	e6a0 <__adddf3>
    abb8:	eb001146 	bl	f0d8 <__truncdfsf2>
    abbc:	e59f636c 	ldr	r6, [pc, #876]	; af30 <.text+0xaf30>
    abc0:	e5963000 	ldr	r3, [r6]
    abc4:	e1a04000 	mov	r4, r0
    abc8:	e3530003 	cmp	r3, #3	; 0x3
    abcc:	979ff103 	ldrls	pc, [pc, r3, lsl #2]
    abd0:	ea0000f8 	b	afb8 <.text+0xafb8>
    abd4:	0000ad60 	andeq	sl, r0, r0, ror #26
    abd8:	0000ad94 	muleq	r0, r4, sp
    abdc:	0000af4c 	andeq	sl, r0, ip, asr #30
    abe0:	0000abe4 	andeq	sl, r0, r4, ror #23
    abe4:	e2292102 	eor	r2, r9, #-2147483648	; 0x80000000
    abe8:	e51b0034 	ldr	r0, [fp, #-52]
    abec:	e51b1030 	ldr	r1, [fp, #-48]
    abf0:	ebfff8af 	bl	8eb4 <nav_circle_XY>
    abf4:	e1a00004 	mov	r0, r4
    abf8:	eb000f7e 	bl	e9f8 <__extendsfdf2>
    abfc:	e28f2fc3 	add	r2, pc, #780	; 0x30c
    ac00:	e892000c 	ldmia	r2, {r2, r3}
    ac04:	eb00102c 	bl	ecbc <__divdf3>
    ac08:	e28f2fc2 	add	r2, pc, #776	; 0x308
    ac0c:	e892000c 	ldmia	r2, {r2, r3}
    ac10:	eb000f8b 	bl	ea44 <__muldf3>
    ac14:	e28f2fc1 	add	r2, pc, #772	; 0x304
    ac18:	e892000c 	ldmia	r2, {r2, r3}
    ac1c:	eb000e9e 	bl	e69c <__subdf3>
    ac20:	eb00112c 	bl	f0d8 <__truncdfsf2>
    ac24:	ea000000 	b	ac2c <.text+0xac2c>
    ac28:	eb001169 	bl	f1d4 <__addsf3>
    ac2c:	e3a01000 	mov	r1, #0	; 0x0
    ac30:	e1a05000 	mov	r5, r0
    ac34:	eb0012b9 	bl	f720 <__lesf2>
    ac38:	e3500000 	cmp	r0, #0	; 0x0
    ac3c:	e59f12f0 	ldr	r1, [pc, #752]	; af34 <.text+0xaf34>
    ac40:	e1a00005 	mov	r0, r5
    ac44:	bafffff7 	blt	ac28 <.text+0xac28>
    ac48:	ea000001 	b	ac54 <.text+0xac54>
    ac4c:	eb00115f 	bl	f1d0 <__subsf3>
    ac50:	e1a05000 	mov	r5, r0
    ac54:	e59f12d8 	ldr	r1, [pc, #728]	; af34 <.text+0xaf34>
    ac58:	e1a00005 	mov	r0, r5
    ac5c:	eb0012ad 	bl	f718 <__gesf2>
    ac60:	e3500000 	cmp	r0, #0	; 0x0
    ac64:	e59f12c8 	ldr	r1, [pc, #712]	; af34 <.text+0xaf34>
    ac68:	e1a00005 	mov	r0, r5
    ac6c:	aafffff6 	bge	ac4c <.text+0xac4c>
    ac70:	e59f32c0 	ldr	r3, [pc, #704]	; af38 <.text+0xaf38>
    ac74:	e5930000 	ldr	r0, [r3]
    ac78:	eb000f5e 	bl	e9f8 <__extendsfdf2>
    ac7c:	e1a03001 	mov	r3, r1
    ac80:	e1a02000 	mov	r2, r0
    ac84:	e28f0fa7 	add	r0, pc, #668	; 0x29c
    ac88:	e8900003 	ldmia	r0, {r0, r1}
    ac8c:	eb000e82 	bl	e69c <__subdf3>
    ac90:	e28f2f9e 	add	r2, pc, #632	; 0x278
    ac94:	e892000c 	ldmia	r2, {r2, r3}
    ac98:	eb001007 	bl	ecbc <__divdf3>
    ac9c:	e28f2f9d 	add	r2, pc, #628	; 0x274
    aca0:	e892000c 	ldmia	r2, {r2, r3}
    aca4:	eb000f66 	bl	ea44 <__muldf3>
    aca8:	eb00110a 	bl	f0d8 <__truncdfsf2>
    acac:	ea000000 	b	acb4 <.text+0xacb4>
    acb0:	eb001147 	bl	f1d4 <__addsf3>
    acb4:	e3a01000 	mov	r1, #0	; 0x0
    acb8:	e1a04000 	mov	r4, r0
    acbc:	eb001297 	bl	f720 <__lesf2>
    acc0:	e3500000 	cmp	r0, #0	; 0x0
    acc4:	e59f1268 	ldr	r1, [pc, #616]	; af34 <.text+0xaf34>
    acc8:	e1a00004 	mov	r0, r4
    accc:	bafffff7 	blt	acb0 <.text+0xacb0>
    acd0:	ea000001 	b	acdc <.text+0xacdc>
    acd4:	eb00113d 	bl	f1d0 <__subsf3>
    acd8:	e1a04000 	mov	r4, r0
    acdc:	e59f1250 	ldr	r1, [pc, #592]	; af34 <.text+0xaf34>
    ace0:	e1a00004 	mov	r0, r4
    ace4:	eb00128b 	bl	f718 <__gesf2>
    ace8:	e3500000 	cmp	r0, #0	; 0x0
    acec:	e59f1240 	ldr	r1, [pc, #576]	; af34 <.text+0xaf34>
    acf0:	e1a00004 	mov	r0, r4
    acf4:	aafffff6 	bge	acd4 <.text+0xacd4>
    acf8:	e1a00005 	mov	r0, r5
    acfc:	e59f1238 	ldr	r1, [pc, #568]	; af3c <.text+0xaf3c>
    ad00:	eb001286 	bl	f720 <__lesf2>
    ad04:	e3500000 	cmp	r0, #0	; 0x0
    ad08:	aa000005 	bge	ad24 <.text+0xad24>
    ad0c:	e1a00005 	mov	r0, r5
    ad10:	e1a01004 	mov	r1, r4
    ad14:	eb001281 	bl	f720 <__lesf2>
    ad18:	e3500000 	cmp	r0, #0	; 0x0
    ad1c:	ba000005 	blt	ad38 <.text+0xad38>
    ad20:	ea0000a4 	b	afb8 <.text+0xafb8>
    ad24:	e1a00004 	mov	r0, r4
    ad28:	e59f120c 	ldr	r1, [pc, #524]	; af3c <.text+0xaf3c>
    ad2c:	eb001279 	bl	f718 <__gesf2>
    ad30:	e3500000 	cmp	r0, #0	; 0x0
    ad34:	da00009f 	ble	afb8 <.text+0xafb8>
    ad38:	e59f1200 	ldr	r1, [pc, #512]	; af40 <.text+0xaf40>
    ad3c:	e1a00005 	mov	r0, r5
    ad40:	eb001123 	bl	f1d4 <__addsf3>
    ad44:	e1a01000 	mov	r1, r0
    ad48:	e1a00004 	mov	r0, r4
    ad4c:	eb001273 	bl	f720 <__lesf2>
    ad50:	e3500000 	cmp	r0, #0	; 0x0
    ad54:	b3a03000 	movlt	r3, #0	; 0x0
    ad58:	ba000094 	blt	afb0 <.text+0xafb0>
    ad5c:	ea000095 	b	afb8 <.text+0xafb8>
    ad60:	e51b3048 	ldr	r3, [fp, #-72]
    ad64:	e51b0040 	ldr	r0, [fp, #-64]
    ad68:	e51b103c 	ldr	r1, [fp, #-60]
    ad6c:	e51b204c 	ldr	r2, [fp, #-76]
    ad70:	ebfff9fa 	bl	9560 <nav_route_xy>
    ad74:	e51b004c 	ldr	r0, [fp, #-76]
    ad78:	e51b1048 	ldr	r1, [fp, #-72]
    ad7c:	e59f21c4 	ldr	r2, [pc, #452]	; af48 <.text+0xaf48>
    ad80:	ebfff9b2 	bl	9450 <nav_approaching_xy>
    ad84:	e31000ff 	tst	r0, #255	; 0xff
    ad88:	13a03001 	movne	r3, #1	; 0x1
    ad8c:	1a000087 	bne	afb0 <.text+0xafb0>
    ad90:	ea000088 	b	afb8 <.text+0xafb8>
    ad94:	e2292102 	eor	r2, r9, #-2147483648	; 0x80000000
    ad98:	e51b0058 	ldr	r0, [fp, #-88]
    ad9c:	e51b1054 	ldr	r1, [fp, #-84]
    ada0:	ebfff843 	bl	8eb4 <nav_circle_XY>
    ada4:	e1a00005 	mov	r0, r5
    ada8:	eb000f12 	bl	e9f8 <__extendsfdf2>
    adac:	e28f2f57 	add	r2, pc, #348	; 0x15c
    adb0:	e892000c 	ldmia	r2, {r2, r3}
    adb4:	eb000fc0 	bl	ecbc <__divdf3>
    adb8:	e28f2f56 	add	r2, pc, #344	; 0x158
    adbc:	e892000c 	ldmia	r2, {r2, r3}
    adc0:	eb000f1f 	bl	ea44 <__muldf3>
    adc4:	e28f2f55 	add	r2, pc, #340	; 0x154
    adc8:	e892000c 	ldmia	r2, {r2, r3}
    adcc:	eb000e32 	bl	e69c <__subdf3>
    add0:	eb0010c0 	bl	f0d8 <__truncdfsf2>
    add4:	ea000000 	b	addc <.text+0xaddc>
    add8:	eb0010fd 	bl	f1d4 <__addsf3>
    addc:	e3a01000 	mov	r1, #0	; 0x0
    ade0:	e1a05000 	mov	r5, r0
    ade4:	eb00124d 	bl	f720 <__lesf2>
    ade8:	e3500000 	cmp	r0, #0	; 0x0
    adec:	e59f1140 	ldr	r1, [pc, #320]	; af34 <.text+0xaf34>
    adf0:	e1a00005 	mov	r0, r5
    adf4:	bafffff7 	blt	add8 <.text+0xadd8>
    adf8:	ea000001 	b	ae04 <.text+0xae04>
    adfc:	eb0010f3 	bl	f1d0 <__subsf3>
    ae00:	e1a05000 	mov	r5, r0
    ae04:	e59f1128 	ldr	r1, [pc, #296]	; af34 <.text+0xaf34>
    ae08:	e1a00005 	mov	r0, r5
    ae0c:	eb001241 	bl	f718 <__gesf2>
    ae10:	e3500000 	cmp	r0, #0	; 0x0
    ae14:	e59f1118 	ldr	r1, [pc, #280]	; af34 <.text+0xaf34>
    ae18:	e1a00005 	mov	r0, r5
    ae1c:	aafffff6 	bge	adfc <.text+0xadfc>
    ae20:	e59f3110 	ldr	r3, [pc, #272]	; af38 <.text+0xaf38>
    ae24:	e5930000 	ldr	r0, [r3]
    ae28:	eb000ef2 	bl	e9f8 <__extendsfdf2>
    ae2c:	e1a03001 	mov	r3, r1
    ae30:	e1a02000 	mov	r2, r0
    ae34:	e28f00ec 	add	r0, pc, #236	; 0xec
    ae38:	e8900003 	ldmia	r0, {r0, r1}
    ae3c:	eb000e16 	bl	e69c <__subdf3>
    ae40:	e28f20c8 	add	r2, pc, #200	; 0xc8
    ae44:	e892000c 	ldmia	r2, {r2, r3}
    ae48:	eb000f9b 	bl	ecbc <__divdf3>
    ae4c:	e28f20c4 	add	r2, pc, #196	; 0xc4
    ae50:	e892000c 	ldmia	r2, {r2, r3}
    ae54:	eb000efa 	bl	ea44 <__muldf3>
    ae58:	eb00109e 	bl	f0d8 <__truncdfsf2>
    ae5c:	ea000000 	b	ae64 <.text+0xae64>
    ae60:	eb0010db 	bl	f1d4 <__addsf3>
    ae64:	e3a01000 	mov	r1, #0	; 0x0
    ae68:	e1a04000 	mov	r4, r0
    ae6c:	eb00122b 	bl	f720 <__lesf2>
    ae70:	e3500000 	cmp	r0, #0	; 0x0
    ae74:	e59f10b8 	ldr	r1, [pc, #184]	; af34 <.text+0xaf34>
    ae78:	e1a00004 	mov	r0, r4
    ae7c:	bafffff7 	blt	ae60 <.text+0xae60>
    ae80:	ea000001 	b	ae8c <.text+0xae8c>
    ae84:	eb0010d1 	bl	f1d0 <__subsf3>
    ae88:	e1a04000 	mov	r4, r0
    ae8c:	e59f10a0 	ldr	r1, [pc, #160]	; af34 <.text+0xaf34>
    ae90:	e1a00004 	mov	r0, r4
    ae94:	eb00121f 	bl	f718 <__gesf2>
    ae98:	e3500000 	cmp	r0, #0	; 0x0
    ae9c:	e59f1090 	ldr	r1, [pc, #144]	; af34 <.text+0xaf34>
    aea0:	e1a00004 	mov	r0, r4
    aea4:	aafffff6 	bge	ae84 <.text+0xae84>
    aea8:	e1a00005 	mov	r0, r5
    aeac:	e59f1088 	ldr	r1, [pc, #136]	; af3c <.text+0xaf3c>
    aeb0:	eb00121a 	bl	f720 <__lesf2>
    aeb4:	e3500000 	cmp	r0, #0	; 0x0
    aeb8:	aa000005 	bge	aed4 <.text+0xaed4>
    aebc:	e1a00005 	mov	r0, r5
    aec0:	e1a01004 	mov	r1, r4
    aec4:	eb001215 	bl	f720 <__lesf2>
    aec8:	e3500000 	cmp	r0, #0	; 0x0
    aecc:	ba000005 	blt	aee8 <.text+0xaee8>
    aed0:	ea000038 	b	afb8 <.text+0xafb8>
    aed4:	e1a00004 	mov	r0, r4
    aed8:	e59f105c 	ldr	r1, [pc, #92]	; af3c <.text+0xaf3c>
    aedc:	eb00120d 	bl	f718 <__gesf2>
    aee0:	e3500000 	cmp	r0, #0	; 0x0
    aee4:	da000033 	ble	afb8 <.text+0xafb8>
    aee8:	e59f1050 	ldr	r1, [pc, #80]	; af40 <.text+0xaf40>
    aeec:	e1a00005 	mov	r0, r5
    aef0:	eb0010b7 	bl	f1d4 <__addsf3>
    aef4:	e1a01000 	mov	r1, r0
    aef8:	e1a00004 	mov	r0, r4
    aefc:	eb001207 	bl	f720 <__lesf2>
    af00:	e3500000 	cmp	r0, #0	; 0x0
    af04:	b3a03002 	movlt	r3, #2	; 0x2
    af08:	ba000028 	blt	afb0 <.text+0xafb0>
    af0c:	ea000029 	b	afb8 <.text+0xafb8>
    af10:	400921fb 	strmid	r2, [r9], -fp
    af14:	54442d18 	strplb	r2, [r4], #-3352
    af18:	40668000 	rsbmi	r8, r6, r0
    af1c:	00000000 	andeq	r0, r0, r0
    af20:	40240000 	eormi	r0, r4, r0
    af24:	00000000 	andeq	r0, r0, r0
    af28:	3ff921fb 	swicc	0x00f921fb
    af2c:	54442d18 	strplb	r2, [r4], #-3352
    af30:	4000066c 	andmi	r0, r0, ip, ror #12
    af34:	43b40000 	movmis	r0, #0	; 0x0
    af38:	400010e0 	andmi	r1, r0, r0, ror #1
    af3c:	43af0000 	movmi	r0, #0	; 0x0
    af40:	41200000 	teqmi	r0, r0
    af44:	40000038 	andmi	r0, r0, r8, lsr r0
    af48:	40a00000 	adcmi	r0, r0, r0
    af4c:	e51b106c 	ldr	r1, [fp, #-108]
    af50:	e51b2060 	ldr	r2, [fp, #-96]
    af54:	e0813002 	add	r3, r1, r2
    af58:	e51b1068 	ldr	r1, [fp, #-104]
    af5c:	e51b205c 	ldr	r2, [fp, #-92]
    af60:	e0814002 	add	r4, r1, r2
    af64:	e51f1028 	ldr	r1, [pc, #-40]	; af44 <.text+0xaf44>
    af68:	e1a03103 	mov	r3, r3, lsl #2
    af6c:	e7930001 	ldr	r0, [r3, r1]
    af70:	e1a04104 	mov	r4, r4, lsl #2
    af74:	e0832001 	add	r2, r3, r1
    af78:	e51f303c 	ldr	r3, [pc, #-60]	; af44 <.text+0xaf44>
    af7c:	e0845001 	add	r5, r4, r1
    af80:	e5921004 	ldr	r1, [r2, #4]
    af84:	e7942003 	ldr	r2, [r4, r3]
    af88:	e5953004 	ldr	r3, [r5, #4]
    af8c:	ebfff973 	bl	9560 <nav_route_xy>
    af90:	e51f1054 	ldr	r1, [pc, #-84]	; af44 <.text+0xaf44>
    af94:	e51f2054 	ldr	r2, [pc, #-84]	; af48 <.text+0xaf48>
    af98:	e7940001 	ldr	r0, [r4, r1]
    af9c:	e5951004 	ldr	r1, [r5, #4]
    afa0:	ebfff92a 	bl	9450 <nav_approaching_xy>
    afa4:	e31000ff 	tst	r0, #255	; 0xff
    afa8:	0a000002 	beq	afb8 <.text+0xafb8>
    afac:	e3a03003 	mov	r3, #3	; 0x3
    afb0:	e5863000 	str	r3, [r6]
    afb4:	ebfff79e 	bl	8e34 <nav_init_stage>
    afb8:	e24bd028 	sub	sp, fp, #40	; 0x28
    afbc:	e89d6ff0 	ldmia	sp, {r4, r5, r6, r7, r8, r9, sl, fp, sp, lr}
    afc0:	e12fff1e 	bx	lr

0000afc4 <h_ctl_init>:
    afc4:	e59f317c 	ldr	r3, [pc, #380]	; b148 <.text+0xb148>
    afc8:	e3a0243f 	mov	r2, #1056964608	; 0x3f000000
    afcc:	e92d4070 	stmdb	sp!, {r4, r5, r6, lr}
    afd0:	e5832000 	str	r2, [r3]
    afd4:	e59f2170 	ldr	r2, [pc, #368]	; b14c <.text+0xb14c>
    afd8:	e59f3170 	ldr	r3, [pc, #368]	; b150 <.text+0xb150>
    afdc:	e5832000 	str	r2, [r3]
    afe0:	e59f216c 	ldr	r2, [pc, #364]	; b154 <.text+0xb154>
    afe4:	e59f316c 	ldr	r3, [pc, #364]	; b158 <.text+0xb158>
    afe8:	e5832000 	str	r2, [r3]
    afec:	e59f2168 	ldr	r2, [pc, #360]	; b15c <.text+0xb15c>
    aff0:	e59f3168 	ldr	r3, [pc, #360]	; b160 <.text+0xb160>
    aff4:	e5832000 	str	r2, [r3]
    aff8:	e59f2164 	ldr	r2, [pc, #356]	; b164 <.text+0xb164>
    affc:	e59f3164 	ldr	r3, [pc, #356]	; b168 <.text+0xb168>
    b000:	e5832000 	str	r2, [r3]
    b004:	e59f2160 	ldr	r2, [pc, #352]	; b16c <.text+0xb16c>
    b008:	e59f3160 	ldr	r3, [pc, #352]	; b170 <.text+0xb170>
    b00c:	e59f5160 	ldr	r5, [pc, #352]	; b174 <.text+0xb174>
    b010:	e5832000 	str	r2, [r3]
    b014:	e59f315c 	ldr	r3, [pc, #348]	; b178 <.text+0xb178>
    b018:	e5835000 	str	r5, [r3]
    b01c:	e59f3158 	ldr	r3, [pc, #344]	; b17c <.text+0xb17c>
    b020:	e3a00000 	mov	r0, #0	; 0x0
    b024:	e59fc154 	ldr	ip, [pc, #340]	; b180 <.text+0xb180>
    b028:	e1c300b0 	strh	r0, [r3]
    b02c:	e59f3150 	ldr	r3, [pc, #336]	; b184 <.text+0xb184>
    b030:	e583c000 	str	ip, [r3]
    b034:	e59f314c 	ldr	r3, [pc, #332]	; b188 <.text+0xb188>
    b038:	e3a01000 	mov	r1, #0	; 0x0
    b03c:	e5831000 	str	r1, [r3]
    b040:	e59f3144 	ldr	r3, [pc, #324]	; b18c <.text+0xb18c>
    b044:	e5831000 	str	r1, [r3]
    b048:	e59f3140 	ldr	r3, [pc, #320]	; b190 <.text+0xb190>
    b04c:	e3a0e5fe 	mov	lr, #1065353216	; 0x3f800000
    b050:	e583e000 	str	lr, [r3]
    b054:	e59f3138 	ldr	r3, [pc, #312]	; b194 <.text+0xb194>
    b058:	e5c30000 	strb	r0, [r3]
    b05c:	e59f3134 	ldr	r3, [pc, #308]	; b198 <.text+0xb198>
    b060:	e5831000 	str	r1, [r3]
    b064:	e59f3130 	ldr	r3, [pc, #304]	; b19c <.text+0xb19c>
    b068:	e1c300b0 	strh	r0, [r3]
    b06c:	e59f312c 	ldr	r3, [pc, #300]	; b1a0 <.text+0xb1a0>
    b070:	e5831000 	str	r1, [r3]
    b074:	e59f3128 	ldr	r3, [pc, #296]	; b1a4 <.text+0xb1a4>
    b078:	e5831000 	str	r1, [r3]
    b07c:	e59f3124 	ldr	r3, [pc, #292]	; b1a8 <.text+0xb1a8>
    b080:	e5835000 	str	r5, [r3]
    b084:	e59f3120 	ldr	r3, [pc, #288]	; b1ac <.text+0xb1ac>
    b088:	e5831000 	str	r1, [r3]
    b08c:	e59f311c 	ldr	r3, [pc, #284]	; b1b0 <.text+0xb1b0>
    b090:	e1c300b0 	strh	r0, [r3]
    b094:	e59f3118 	ldr	r3, [pc, #280]	; b1b4 <.text+0xb1b4>
    b098:	e5831000 	str	r1, [r3]
    b09c:	e59f3114 	ldr	r3, [pc, #276]	; b1b8 <.text+0xb1b8>
    b0a0:	e5831000 	str	r1, [r3]
    b0a4:	e59f3110 	ldr	r3, [pc, #272]	; b1bc <.text+0xb1bc>
    b0a8:	e583e000 	str	lr, [r3]
    b0ac:	e59f310c 	ldr	r3, [pc, #268]	; b1c0 <.text+0xb1c0>
    b0b0:	e3a045fd 	mov	r4, #1061158912	; 0x3f400000
    b0b4:	e5834000 	str	r4, [r3]
    b0b8:	e59f3104 	ldr	r3, [pc, #260]	; b1c4 <.text+0xb1c4>
    b0bc:	e5831000 	str	r1, [r3]
    b0c0:	e59f3100 	ldr	r3, [pc, #256]	; b1c8 <.text+0xb1c8>
    b0c4:	e5831000 	str	r1, [r3]
    b0c8:	e59f30fc 	ldr	r3, [pc, #252]	; b1cc <.text+0xb1cc>
    b0cc:	e583c000 	str	ip, [r3]
    b0d0:	e59f30f8 	ldr	r3, [pc, #248]	; b1d0 <.text+0xb1d0>
    b0d4:	e583c000 	str	ip, [r3]
    b0d8:	e59f30f4 	ldr	r3, [pc, #244]	; b1d4 <.text+0xb1d4>
    b0dc:	e583e000 	str	lr, [r3]
    b0e0:	e59f30f0 	ldr	r3, [pc, #240]	; b1d8 <.text+0xb1d8>
    b0e4:	e5834000 	str	r4, [r3]
    b0e8:	e59f30ec 	ldr	r3, [pc, #236]	; b1dc <.text+0xb1dc>
    b0ec:	e5831000 	str	r1, [r3]
    b0f0:	e59f30e8 	ldr	r3, [pc, #232]	; b1e0 <.text+0xb1e0>
    b0f4:	e5831000 	str	r1, [r3]
    b0f8:	e59f30e4 	ldr	r3, [pc, #228]	; b1e4 <.text+0xb1e4>
    b0fc:	e583c000 	str	ip, [r3]
    b100:	e59f30e0 	ldr	r3, [pc, #224]	; b1e8 <.text+0xb1e8>
    b104:	e583e000 	str	lr, [r3]
    b108:	e59f30dc 	ldr	r3, [pc, #220]	; b1ec <.text+0xb1ec>
    b10c:	e5834000 	str	r4, [r3]
    b110:	e59f30d8 	ldr	r3, [pc, #216]	; b1f0 <.text+0xb1f0>
    b114:	e59f60d8 	ldr	r6, [pc, #216]	; b1f4 <.text+0xb1f4>
    b118:	e5831000 	str	r1, [r3]
    b11c:	e59f30d4 	ldr	r3, [pc, #212]	; b1f8 <.text+0xb1f8>
    b120:	e5836000 	str	r6, [r3]
    b124:	e59f30d0 	ldr	r3, [pc, #208]	; b1fc <.text+0xb1fc>
    b128:	e3a02001 	mov	r2, #1	; 0x1
    b12c:	e5c32000 	strb	r2, [r3]
    b130:	e59f30c8 	ldr	r3, [pc, #200]	; b200 <.text+0xb200>
    b134:	e5831000 	str	r1, [r3]
    b138:	e59f30c4 	ldr	r3, [pc, #196]	; b204 <.text+0xb204>
    b13c:	e5836000 	str	r6, [r3]
    b140:	e8bd4070 	ldmia	sp!, {r4, r5, r6, lr}
    b144:	e12fff1e 	bx	lr
    b148:	40001148 	andmi	r1, r0, r8, asr #2
    b14c:	3e32b8c2 	cdpcc	8, 3, cr11, cr2, cr2, {6}
    b150:	40001100 	andmi	r1, r0, r0, lsl #2
    b154:	3f060a92 	swicc	0x00060a92
    b158:	40001158 	andmi	r1, r0, r8, asr r1
    b15c:	be32b8c2 	cdplt	8, 3, cr11, cr2, cr2, {6}
    b160:	40001144 	andmi	r1, r0, r4, asr #2
    b164:	3eb2b8c2 	cdpcc	8, 11, cr11, cr2, cr2, {6}
    b168:	40001194 	mulmi	r0, r4, r1
    b16c:	c63b8000 	ldrgtt	r8, [fp], -r0
    b170:	40001184 	andmi	r1, r0, r4, lsl #3
    b174:	463ab800 	ldrmit	fp, [sl], -r0, lsl #16
    b178:	40001130 	andmi	r1, r0, r0, lsr r1
    b17c:	400010fc 	strmid	r1, [r0], -ip
    b180:	469c4000 	ldrmi	r4, [ip], r0
    b184:	4000110c 	andmi	r1, r0, ip, lsl #2
    b188:	400010f0 	strmid	r1, [r0], -r0
    b18c:	40001150 	andmi	r1, r0, r0, asr r1
    b190:	40001108 	andmi	r1, r0, r8, lsl #2
    b194:	40001180 	andmi	r1, r0, r0, lsl #3
    b198:	4000118c 	andmi	r1, r0, ip, lsl #3
    b19c:	40001134 	andmi	r1, r0, r4, lsr r1
    b1a0:	4000112c 	andmi	r1, r0, ip, lsr #2
    b1a4:	40001138 	andmi	r1, r0, r8, lsr r1
    b1a8:	4000114c 	andmi	r1, r0, ip, asr #2
    b1ac:	40001164 	andmi	r1, r0, r4, ror #2
    b1b0:	40001118 	andmi	r1, r0, r8, lsl r1
    b1b4:	40001198 	mulmi	r0, r8, r1
    b1b8:	40001178 	andmi	r1, r0, r8, ror r1
    b1bc:	4000113c 	andmi	r1, r0, ip, lsr r1
    b1c0:	40001124 	andmi	r1, r0, r4, lsr #2
    b1c4:	4000111c 	andmi	r1, r0, ip, lsl r1
    b1c8:	400010f4 	strmid	r1, [r0], -r4
    b1cc:	40001128 	andmi	r1, r0, r8, lsr #2
    b1d0:	40001168 	andmi	r1, r0, r8, ror #2
    b1d4:	40001190 	mulmi	r0, r0, r1
    b1d8:	40001174 	andmi	r1, r0, r4, ror r1
    b1dc:	40001170 	andmi	r1, r0, r0, ror r1
    b1e0:	40001110 	andmi	r1, r0, r0, lsl r1
    b1e4:	40001114 	andmi	r1, r0, r4, lsl r1
    b1e8:	400010e8 	andmi	r1, r0, r8, ror #1
    b1ec:	40001188 	andmi	r1, r0, r8, lsl #3
    b1f0:	40001154 	andmi	r1, r0, r4, asr r1
    b1f4:	461c4000 	ldrmi	r4, [ip], -r0
    b1f8:	40001104 	andmi	r1, r0, r4, lsl #2
    b1fc:	40001140 	andmi	r1, r0, r0, asr #2
    b200:	4000116c 	andmi	r1, r0, ip, ror #2
    b204:	40001120 	andmi	r1, r0, r0, lsr #2

0000b208 <h_ctl_course_loop>:
    b208:	e1a0c00d 	mov	ip, sp
    b20c:	e92dd9f0 	stmdb	sp!, {r4, r5, r6, r7, r8, fp, ip, lr, pc}
    b210:	e59f3268 	ldr	r3, [pc, #616]	; b480 <.text+0xb480>
    b214:	e5930000 	ldr	r0, [r3]
    b218:	e59f3264 	ldr	r3, [pc, #612]	; b484 <.text+0xb484>
    b21c:	e24cb004 	sub	fp, ip, #4	; 0x4
    b220:	e5931000 	ldr	r1, [r3]
    b224:	eb000fe9 	bl	f1d0 <__subsf3>
    b228:	ea000001 	b	b234 <h_ctl_course_loop+0x2c>
    b22c:	eb000d1a 	bl	e69c <__subdf3>
    b230:	eb000fa8 	bl	f0d8 <__truncdfsf2>
    b234:	e1a06000 	mov	r6, r0
    b238:	eb000dee 	bl	e9f8 <__extendsfdf2>
    b23c:	e28f2f85 	add	r2, pc, #532	; 0x214
    b240:	e892000c 	ldmia	r2, {r2, r3}
    b244:	e1a05001 	mov	r5, r1
    b248:	e1a04000 	mov	r4, r0
    b24c:	eb000f37 	bl	ef30 <__gedf2>
    b250:	e3500000 	cmp	r0, #0	; 0x0
    b254:	e28f2f81 	add	r2, pc, #516	; 0x204
    b258:	e892000c 	ldmia	r2, {r2, r3}
    b25c:	e1a01005 	mov	r1, r5
    b260:	e1a00004 	mov	r0, r4
    b264:	cafffff0 	bgt	b22c <h_ctl_course_loop+0x24>
    b268:	ea000002 	b	b278 <h_ctl_course_loop+0x70>
    b26c:	eb000d0b 	bl	e6a0 <__adddf3>
    b270:	eb000f98 	bl	f0d8 <__truncdfsf2>
    b274:	e1a06000 	mov	r6, r0
    b278:	e1a00006 	mov	r0, r6
    b27c:	eb000ddd 	bl	e9f8 <__extendsfdf2>
    b280:	e28f2e1e 	add	r2, pc, #480	; 0x1e0
    b284:	e892000c 	ldmia	r2, {r2, r3}
    b288:	e1a05001 	mov	r5, r1
    b28c:	e1a04000 	mov	r4, r0
    b290:	eb000f28 	bl	ef38 <__ledf2>
    b294:	e3500000 	cmp	r0, #0	; 0x0
    b298:	e28f2d07 	add	r2, pc, #448	; 0x1c0
    b29c:	e892000c 	ldmia	r2, {r2, r3}
    b2a0:	e1a01005 	mov	r1, r5
    b2a4:	e1a00004 	mov	r0, r4
    b2a8:	baffffef 	blt	b26c <h_ctl_course_loop+0x64>
    b2ac:	e59f31d4 	ldr	r3, [pc, #468]	; b488 <.text+0xb488>
    b2b0:	e59f11d4 	ldr	r1, [pc, #468]	; b48c <.text+0xb48c>
    b2b4:	e5930000 	ldr	r0, [r3]
    b2b8:	eb0010ae 	bl	f578 <__divsf3>
    b2bc:	e3a015ff 	mov	r1, #1069547520	; 0x3fc00000
    b2c0:	e1a07000 	mov	r7, r0
    b2c4:	eb001113 	bl	f718 <__gesf2>
    b2c8:	e3500000 	cmp	r0, #0	; 0x0
    b2cc:	c3a075ff 	movgt	r7, #1069547520	; 0x3fc00000
    b2d0:	ca000007 	bgt	b2f4 <h_ctl_course_loop+0xec>
    b2d4:	e1a00007 	mov	r0, r7
    b2d8:	eb000dc6 	bl	e9f8 <__extendsfdf2>
    b2dc:	e28f2f63 	add	r2, pc, #396	; 0x18c
    b2e0:	e892000c 	ldmia	r2, {r2, r3}
    b2e4:	eb000f13 	bl	ef38 <__ledf2>
    b2e8:	e59f31a0 	ldr	r3, [pc, #416]	; b490 <.text+0xb490>
    b2ec:	e3500000 	cmp	r0, #0	; 0x0
    b2f0:	b1a07003 	movlt	r7, r3
    b2f4:	e59f3198 	ldr	r3, [pc, #408]	; b494 <.text+0xb494>
    b2f8:	e1a01006 	mov	r1, r6
    b2fc:	e5930000 	ldr	r0, [r3]
    b300:	eb001038 	bl	f3e8 <__mulsf3>
    b304:	e59f318c 	ldr	r3, [pc, #396]	; b498 <.text+0xb498>
    b308:	e5d33000 	ldrb	r3, [r3]
    b30c:	e3530001 	cmp	r3, #1	; 0x1
    b310:	e1a05000 	mov	r5, r0
    b314:	1a000019 	bne	b380 <h_ctl_course_loop+0x178>
    b318:	e59f317c 	ldr	r3, [pc, #380]	; b49c <.text+0xb49c>
    b31c:	e5930000 	ldr	r0, [r3]
    b320:	e59f3178 	ldr	r3, [pc, #376]	; b4a0 <.text+0xb4a0>
    b324:	e5931000 	ldr	r1, [r3]
    b328:	eb000fa8 	bl	f1d0 <__subsf3>
    b32c:	e1a04000 	mov	r4, r0
    b330:	e1a00005 	mov	r0, r5
    b334:	eb000daf 	bl	e9f8 <__extendsfdf2>
    b338:	e1a06001 	mov	r6, r1
    b33c:	e1a05000 	mov	r5, r0
    b340:	e1a00004 	mov	r0, r4
    b344:	e3a01000 	mov	r1, #0	; 0x0
    b348:	eb0010f4 	bl	f720 <__lesf2>
    b34c:	e3500000 	cmp	r0, #0	; 0x0
    b350:	aa000006 	bge	b370 <h_ctl_course_loop+0x168>
    b354:	e1a01006 	mov	r1, r6
    b358:	e1a00005 	mov	r0, r5
    b35c:	e28f2f45 	add	r2, pc, #276	; 0x114
    b360:	e892000c 	ldmia	r2, {r2, r3}
    b364:	eb000db6 	bl	ea44 <__muldf3>
    b368:	e1a06001 	mov	r6, r1
    b36c:	e1a05000 	mov	r5, r0
    b370:	e1a01006 	mov	r1, r6
    b374:	e1a00005 	mov	r0, r5
    b378:	eb000f56 	bl	f0d8 <__truncdfsf2>
    b37c:	e1a05000 	mov	r5, r0
    b380:	e59f311c 	ldr	r3, [pc, #284]	; b4a4 <.text+0xb4a4>
    b384:	e59f811c 	ldr	r8, [pc, #284]	; b4a8 <.text+0xb4a8>
    b388:	e5936000 	ldr	r6, [r3]
    b38c:	e1a01007 	mov	r1, r7
    b390:	e1a00006 	mov	r0, r6
    b394:	e5885000 	str	r5, [r8]
    b398:	eb001012 	bl	f3e8 <__mulsf3>
    b39c:	e1a04000 	mov	r4, r0
    b3a0:	e1a01004 	mov	r1, r4
    b3a4:	e1a00005 	mov	r0, r5
    b3a8:	eb0010da 	bl	f718 <__gesf2>
    b3ac:	e3500000 	cmp	r0, #0	; 0x0
    b3b0:	ca000008 	bgt	b3d8 <h_ctl_course_loop+0x1d0>
    b3b4:	e1a01007 	mov	r1, r7
    b3b8:	e2260102 	eor	r0, r6, #-2147483648	; 0x80000000
    b3bc:	eb001009 	bl	f3e8 <__mulsf3>
    b3c0:	e1a04000 	mov	r4, r0
    b3c4:	e1a01004 	mov	r1, r4
    b3c8:	e1a00005 	mov	r0, r5
    b3cc:	eb0010d3 	bl	f720 <__lesf2>
    b3d0:	e3500000 	cmp	r0, #0	; 0x0
    b3d4:	aa000000 	bge	b3dc <h_ctl_course_loop+0x1d4>
    b3d8:	e5884000 	str	r4, [r8]
    b3dc:	e59f30c8 	ldr	r3, [pc, #200]	; b4ac <.text+0xb4ac>
    b3e0:	e5930000 	ldr	r0, [r3]
    b3e4:	e59f30c4 	ldr	r3, [pc, #196]	; b4b0 <.text+0xb4b0>
    b3e8:	e5931000 	ldr	r1, [r3]
    b3ec:	eb000ffd 	bl	f3e8 <__mulsf3>
    b3f0:	e59f30bc 	ldr	r3, [pc, #188]	; b4b4 <.text+0xb4b4>
    b3f4:	e59f80bc 	ldr	r8, [pc, #188]	; b4b8 <.text+0xb4b8>
    b3f8:	e5936000 	ldr	r6, [r3]
    b3fc:	e1a05000 	mov	r5, r0
    b400:	e1a01007 	mov	r1, r7
    b404:	e1a00006 	mov	r0, r6
    b408:	e5885000 	str	r5, [r8]
    b40c:	eb000ff5 	bl	f3e8 <__mulsf3>
    b410:	e1a04000 	mov	r4, r0
    b414:	e1a01004 	mov	r1, r4
    b418:	e1a00005 	mov	r0, r5
    b41c:	eb0010bd 	bl	f718 <__gesf2>
    b420:	e3500000 	cmp	r0, #0	; 0x0
    b424:	ca000008 	bgt	b44c <h_ctl_course_loop+0x244>
    b428:	e1a01007 	mov	r1, r7
    b42c:	e2260102 	eor	r0, r6, #-2147483648	; 0x80000000
    b430:	eb000fec 	bl	f3e8 <__mulsf3>
    b434:	e1a04000 	mov	r4, r0
    b438:	e1a01004 	mov	r1, r4
    b43c:	e1a00005 	mov	r0, r5
    b440:	eb0010b6 	bl	f720 <__lesf2>
    b444:	e3500000 	cmp	r0, #0	; 0x0
    b448:	aa000000 	bge	b450 <h_ctl_course_loop+0x248>
    b44c:	e5884000 	str	r4, [r8]
    b450:	e89d69f0 	ldmia	sp, {r4, r5, r6, r7, r8, fp, sp, lr}
    b454:	e12fff1e 	bx	lr
    b458:	400921fb 	strmid	r2, [r9], -fp
    b45c:	54442d18 	strplb	r2, [r4], #-3352
    b460:	401921fb 	ldrmish	r2, [r9], -fp
    b464:	54442d18 	strplb	r2, [r4], #-3352
    b468:	c00921fb 	strgtd	r2, [r9], -fp
    b46c:	54442d18 	strplb	r2, [r4], #-3352
    b470:	3fe51eb8 	swicc	0x00e51eb8
    b474:	51eb851f 	mvnpl	r8, pc, lsl r5
    b478:	3fe99999 	swicc	0x00e99999
    b47c:	9999999a 	ldmlsib	r9, {r1, r3, r4, r7, r8, fp, ip, pc}
    b480:	4000106c 	andmi	r1, r0, ip, rrx
    b484:	400010f0 	strmid	r1, [r0], -r0
    b488:	40001054 	andmi	r1, r0, r4, asr r0
    b48c:	40e00000 	rscmi	r0, r0, r0
    b490:	3f28f5c3 	swicc	0x0028f5c3
    b494:	40001148 	andmi	r1, r0, r8, asr #2
    b498:	400011ac 	andmi	r1, r0, ip, lsr #3
    b49c:	40001038 	andmi	r1, r0, r8, lsr r0
    b4a0:	400011c0 	andmi	r1, r0, r0, asr #3
    b4a4:	40001194 	mulmi	r0, r4, r1
    b4a8:	40001178 	andmi	r1, r0, r8, ror r1
    b4ac:	40001108 	andmi	r1, r0, r8, lsl #2
    b4b0:	40001150 	andmi	r1, r0, r0, asr r1
    b4b4:	40001100 	andmi	r1, r0, r0, lsl #2
    b4b8:	4000118c 	andmi	r1, r0, ip, lsl #3

0000b4bc <h_ctl_attitude_loop>:
    b4bc:	e1a0c00d 	mov	ip, sp
    b4c0:	e92ddff0 	stmdb	sp!, {r4, r5, r6, r7, r8, r9, sl, fp, ip, lr, pc}
    b4c4:	e59f3494 	ldr	r3, [pc, #1172]	; b960 <.text+0xb960>
    b4c8:	e24cb004 	sub	fp, ip, #4	; 0x4
    b4cc:	e24dd004 	sub	sp, sp, #4	; 0x4
    b4d0:	e5d33000 	ldrb	r3, [r3]
    b4d4:	e3530000 	cmp	r3, #0	; 0x0
    b4d8:	1a000226 	bne	bd78 <.text+0xbd78>
    b4dc:	e59f2500 	ldr	r2, [pc, #1280]	; b9e4 <.text+0xb9e4>
    b4e0:	e1d200f0 	ldrsh	r0, [r2]
    b4e4:	eb000fac 	bl	f39c <__floatsisf>
    b4e8:	e59f1508 	ldr	r1, [pc, #1288]	; b9f8 <.text+0xb9f8>
    b4ec:	eb001021 	bl	f578 <__divsf3>
    b4f0:	e59f346c 	ldr	r3, [pc, #1132]	; b964 <.text+0xb964>
    b4f4:	e5931000 	ldr	r1, [r3]
    b4f8:	e1a04000 	mov	r4, r0
    b4fc:	eb000fb9 	bl	f3e8 <__mulsf3>
    b500:	e1a01004 	mov	r1, r4
    b504:	e1a05000 	mov	r5, r0
    b508:	e3a005fe 	mov	r0, #1065353216	; 0x3f800000
    b50c:	eb000f2f 	bl	f1d0 <__subsf3>
    b510:	e59f2450 	ldr	r2, [pc, #1104]	; b968 <.text+0xb968>
    b514:	e5921000 	ldr	r1, [r2]
    b518:	eb000fb2 	bl	f3e8 <__mulsf3>
    b51c:	e1a01000 	mov	r1, r0
    b520:	e1a00005 	mov	r0, r5
    b524:	eb000f2a 	bl	f1d4 <__addsf3>
    b528:	e59f243c 	ldr	r2, [pc, #1084]	; b96c <.text+0xb96c>
    b52c:	e5d23000 	ldrb	r3, [r2]
    b530:	e3530000 	cmp	r3, #0	; 0x0
    b534:	e1a04000 	mov	r4, r0
    b538:	e59f0430 	ldr	r0, [pc, #1072]	; b970 <.text+0xb970>
    b53c:	0a000008 	beq	b564 <h_ctl_attitude_loop+0xa8>
    b540:	e59f342c 	ldr	r3, [pc, #1068]	; b974 <.text+0xb974>
    b544:	e5900000 	ldr	r0, [r0]
    b548:	e5931000 	ldr	r1, [r3]
    b54c:	eb000f1f 	bl	f1d0 <__subsf3>
    b550:	e1a05000 	mov	r5, r0
    b554:	e1a01005 	mov	r1, r5
    b558:	e1a00004 	mov	r0, r4
    b55c:	eb000fa1 	bl	f3e8 <__mulsf3>
    b560:	ea000009 	b	b58c <h_ctl_attitude_loop+0xd0>
    b564:	e5905000 	ldr	r5, [r0]
    b568:	e1a00005 	mov	r0, r5
    b56c:	eb000d21 	bl	e9f8 <__extendsfdf2>
    b570:	e28f2ff6 	add	r2, pc, #984	; 0x3d8
    b574:	e892000c 	ldmia	r2, {r2, r3}
    b578:	eb000dcf 	bl	ecbc <__divdf3>
    b57c:	e28f2ff5 	add	r2, pc, #980	; 0x3d4
    b580:	e892000c 	ldmia	r2, {r2, r3}
    b584:	eb000d2e 	bl	ea44 <__muldf3>
    b588:	eb000ed2 	bl	f0d8 <__truncdfsf2>
    b58c:	e59f145c 	ldr	r1, [pc, #1116]	; b9f0 <.text+0xb9f0>
    b590:	e1a04000 	mov	r4, r0
    b594:	eb001061 	bl	f720 <__lesf2>
    b598:	e3500000 	cmp	r0, #0	; 0x0
    b59c:	b59f3450 	ldrlt	r3, [pc, #1104]	; b9f4 <.text+0xb9f4>
    b5a0:	e59f93d0 	ldr	r9, [pc, #976]	; b978 <.text+0xb978>
    b5a4:	b1a00003 	movlt	r0, r3
    b5a8:	ba000006 	blt	b5c8 <h_ctl_attitude_loop+0x10c>
    b5ac:	e1a00004 	mov	r0, r4
    b5b0:	e59f1440 	ldr	r1, [pc, #1088]	; b9f8 <.text+0xb9f8>
    b5b4:	eb001057 	bl	f718 <__gesf2>
    b5b8:	e3500000 	cmp	r0, #0	; 0x0
    b5bc:	c3a00d96 	movgt	r0, #9600	; 0x2580
    b5c0:	d1a00004 	movle	r0, r4
    b5c4:	db00107a 	blle	f7b4 <__fixsfsi>
    b5c8:	e59f239c 	ldr	r2, [pc, #924]	; b96c <.text+0xb96c>
    b5cc:	e5d23000 	ldrb	r3, [r2]
    b5d0:	e3530000 	cmp	r3, #0	; 0x0
    b5d4:	e1c900b0 	strh	r0, [r9]
    b5d8:	e59f739c 	ldr	r7, [pc, #924]	; b97c <.text+0xb97c>
    b5dc:	e59f639c 	ldr	r6, [pc, #924]	; b980 <.text+0xb980>
    b5e0:	0a000003 	beq	b5f4 <h_ctl_attitude_loop+0x138>
    b5e4:	e5960000 	ldr	r0, [r6]
    b5e8:	e1a01005 	mov	r1, r5
    b5ec:	eb000f7d 	bl	f3e8 <__mulsf3>
    b5f0:	ea00000f 	b	b634 <h_ctl_attitude_loop+0x178>
    b5f4:	e59f3374 	ldr	r3, [pc, #884]	; b970 <.text+0xb970>
    b5f8:	e5930000 	ldr	r0, [r3]
    b5fc:	eb000cfd 	bl	e9f8 <__extendsfdf2>
    b600:	e28f2fd2 	add	r2, pc, #840	; 0x348
    b604:	e892000c 	ldmia	r2, {r2, r3}
    b608:	eb000dab 	bl	ecbc <__divdf3>
    b60c:	e1a05001 	mov	r5, r1
    b610:	e1a04000 	mov	r4, r0
    b614:	e5960000 	ldr	r0, [r6]
    b618:	eb000cf6 	bl	e9f8 <__extendsfdf2>
    b61c:	e1a03001 	mov	r3, r1
    b620:	e1a02000 	mov	r2, r0
    b624:	e1a01005 	mov	r1, r5
    b628:	e1a00004 	mov	r0, r4
    b62c:	eb000d04 	bl	ea44 <__muldf3>
    b630:	eb000ea8 	bl	f0d8 <__truncdfsf2>
    b634:	e5870000 	str	r0, [r7]
    b638:	e59f533c 	ldr	r5, [pc, #828]	; b97c <.text+0xb97c>
    b63c:	e5954000 	ldr	r4, [r5]
    b640:	e59f1390 	ldr	r1, [pc, #912]	; b9d8 <.text+0xb9d8>
    b644:	e1a00004 	mov	r0, r4
    b648:	eb001032 	bl	f718 <__gesf2>
    b64c:	e3500000 	cmp	r0, #0	; 0x0
    b650:	c59f3380 	ldrgt	r3, [pc, #896]	; b9d8 <.text+0xb9d8>
    b654:	ca000005 	bgt	b670 <h_ctl_attitude_loop+0x1b4>
    b658:	e1a00004 	mov	r0, r4
    b65c:	e59f1378 	ldr	r1, [pc, #888]	; b9dc <.text+0xb9dc>
    b660:	eb00102e 	bl	f720 <__lesf2>
    b664:	e3500000 	cmp	r0, #0	; 0x0
    b668:	aa000001 	bge	b674 <h_ctl_attitude_loop+0x1b8>
    b66c:	e59f3368 	ldr	r3, [pc, #872]	; b9dc <.text+0xb9dc>
    b670:	e5853000 	str	r3, [r5]
    b674:	e1d900f0 	ldrsh	r0, [r9]
    b678:	eb000f47 	bl	f39c <__floatsisf>
    b67c:	e59f3300 	ldr	r3, [pc, #768]	; b984 <.text+0xb984>
    b680:	e50b002c 	str	r0, [fp, #-44]
    b684:	e5931000 	ldr	r1, [r3]
    b688:	e5950000 	ldr	r0, [r5]
    b68c:	eb000ecf 	bl	f1d0 <__subsf3>
    b690:	e59f82f0 	ldr	r8, [pc, #752]	; b988 <.text+0xb988>
    b694:	e5d84000 	ldrb	r4, [r8]
    b698:	e59f72ec 	ldr	r7, [pc, #748]	; b98c <.text+0xb98c>
    b69c:	e59f62ec 	ldr	r6, [pc, #748]	; b990 <.text+0xb990>
    b6a0:	e20450ff 	and	r5, r4, #255	; 0xff
    b6a4:	e1a0a000 	mov	sl, r0
    b6a8:	e7961105 	ldr	r1, [r6, r5, lsl #2]
    b6ac:	e5970000 	ldr	r0, [r7]
    b6b0:	eb000ec6 	bl	f1d0 <__subsf3>
    b6b4:	e1a0100a 	mov	r1, sl
    b6b8:	e786a105 	str	sl, [r6, r5, lsl #2]
    b6bc:	eb000ec4 	bl	f1d4 <__addsf3>
    b6c0:	e2844001 	add	r4, r4, #1	; 0x1
    b6c4:	e5c84000 	strb	r4, [r8]
    b6c8:	e5d83000 	ldrb	r3, [r8]
    b6cc:	e353000f 	cmp	r3, #15	; 0xf
    b6d0:	83a03000 	movhi	r3, #0	; 0x0
    b6d4:	85c83000 	strhib	r3, [r8]
    b6d8:	e59f3304 	ldr	r3, [pc, #772]	; b9e4 <.text+0xb9e4>
    b6dc:	e5870000 	str	r0, [r7]
    b6e0:	e1d300f0 	ldrsh	r0, [r3]
    b6e4:	e59f32a8 	ldr	r3, [pc, #680]	; b994 <.text+0xb994>
    b6e8:	e583a000 	str	sl, [r3]
    b6ec:	eb000f2a 	bl	f39c <__floatsisf>
    b6f0:	e59f1300 	ldr	r1, [pc, #768]	; b9f8 <.text+0xb9f8>
    b6f4:	eb000f9f 	bl	f578 <__divsf3>
    b6f8:	e59f2264 	ldr	r2, [pc, #612]	; b964 <.text+0xb964>
    b6fc:	e5921000 	ldr	r1, [r2]
    b700:	e1a04000 	mov	r4, r0
    b704:	eb000f37 	bl	f3e8 <__mulsf3>
    b708:	e1a01004 	mov	r1, r4
    b70c:	e1a05000 	mov	r5, r0
    b710:	e3a005fe 	mov	r0, #1065353216	; 0x3f800000
    b714:	eb000ead 	bl	f1d0 <__subsf3>
    b718:	e59f3248 	ldr	r3, [pc, #584]	; b968 <.text+0xb968>
    b71c:	e5931000 	ldr	r1, [r3]
    b720:	eb000f30 	bl	f3e8 <__mulsf3>
    b724:	e1a01000 	mov	r1, r0
    b728:	e1a00005 	mov	r0, r5
    b72c:	eb000ea8 	bl	f1d4 <__addsf3>
    b730:	e1a0100a 	mov	r1, sl
    b734:	eb000f2b 	bl	f3e8 <__mulsf3>
    b738:	e59f12b0 	ldr	r1, [pc, #688]	; b9f0 <.text+0xb9f0>
    b73c:	e1a04000 	mov	r4, r0
    b740:	eb000ff6 	bl	f720 <__lesf2>
    b744:	e3500000 	cmp	r0, #0	; 0x0
    b748:	b59f32a4 	ldrlt	r3, [pc, #676]	; b9f4 <.text+0xb9f4>
    b74c:	b1a00003 	movlt	r0, r3
    b750:	ba000006 	blt	b770 <h_ctl_attitude_loop+0x2b4>
    b754:	e1a00004 	mov	r0, r4
    b758:	e59f1298 	ldr	r1, [pc, #664]	; b9f8 <.text+0xb9f8>
    b75c:	eb000fed 	bl	f718 <__gesf2>
    b760:	e3500000 	cmp	r0, #0	; 0x0
    b764:	c3a00d96 	movgt	r0, #9600	; 0x2580
    b768:	d1a00004 	movle	r0, r4
    b76c:	db001010 	blle	f7b4 <__fixsfsi>
    b770:	e59f3200 	ldr	r3, [pc, #512]	; b978 <.text+0xb978>
    b774:	e1c300b0 	strh	r0, [r3]
    b778:	e1d900f0 	ldrsh	r0, [r9]
    b77c:	eb000f06 	bl	f39c <__floatsisf>
    b780:	e59f3210 	ldr	r3, [pc, #528]	; b998 <.text+0xb998>
    b784:	e5934000 	ldr	r4, [r3]
    b788:	e1a01000 	mov	r1, r0
    b78c:	e1a00004 	mov	r0, r4
    b790:	eb000f14 	bl	f3e8 <__mulsf3>
    b794:	e1a01004 	mov	r1, r4
    b798:	e1a05000 	mov	r5, r0
    b79c:	e3a005fe 	mov	r0, #1065353216	; 0x3f800000
    b7a0:	eb000e8a 	bl	f1d0 <__subsf3>
    b7a4:	e51b102c 	ldr	r1, [fp, #-44]
    b7a8:	eb000f0e 	bl	f3e8 <__mulsf3>
    b7ac:	e1a01000 	mov	r1, r0
    b7b0:	e1a00005 	mov	r0, r5
    b7b4:	eb000e86 	bl	f1d4 <__addsf3>
    b7b8:	eb000ffd 	bl	f7b4 <__fixsfsi>
    b7bc:	e59fa1d8 	ldr	sl, [pc, #472]	; b99c <.text+0xb99c>
    b7c0:	e1c900b0 	strh	r0, [r9]
    b7c4:	e3a01000 	mov	r1, #0	; 0x0
    b7c8:	e59a0000 	ldr	r0, [sl]
    b7cc:	eb000fd3 	bl	f720 <__lesf2>
    b7d0:	e59f220c 	ldr	r2, [pc, #524]	; b9e4 <.text+0xb9e4>
    b7d4:	e3500000 	cmp	r0, #0	; 0x0
    b7d8:	b3a03000 	movlt	r3, #0	; 0x0
    b7dc:	b58a3000 	strlt	r3, [sl]
    b7e0:	e1d200f0 	ldrsh	r0, [r2]
    b7e4:	eb000eec 	bl	f39c <__floatsisf>
    b7e8:	e59f1208 	ldr	r1, [pc, #520]	; b9f8 <.text+0xb9f8>
    b7ec:	eb000f61 	bl	f578 <__divsf3>
    b7f0:	e59f91a8 	ldr	r9, [pc, #424]	; b9a0 <.text+0xb9a0>
    b7f4:	e5991000 	ldr	r1, [r9]
    b7f8:	e1a04000 	mov	r4, r0
    b7fc:	eb000ef9 	bl	f3e8 <__mulsf3>
    b800:	e1a01004 	mov	r1, r4
    b804:	e1a05000 	mov	r5, r0
    b808:	e3a005fe 	mov	r0, #1065353216	; 0x3f800000
    b80c:	eb000e6f 	bl	f1d0 <__subsf3>
    b810:	e59f31ac 	ldr	r3, [pc, #428]	; b9c4 <.text+0xb9c4>
    b814:	e5931000 	ldr	r1, [r3]
    b818:	eb000ef2 	bl	f3e8 <__mulsf3>
    b81c:	e1a01000 	mov	r1, r0
    b820:	e1a00005 	mov	r0, r5
    b824:	eb000e6a 	bl	f1d4 <__addsf3>
    b828:	e59f213c 	ldr	r2, [pc, #316]	; b96c <.text+0xb96c>
    b82c:	e5d23000 	ldrb	r3, [r2]
    b830:	e1a05000 	mov	r5, r0
    b834:	e59f0178 	ldr	r0, [pc, #376]	; b9b4 <.text+0xb9b4>
    b838:	e3530000 	cmp	r3, #0	; 0x0
    b83c:	05908000 	ldreq	r8, [r0]
    b840:	0a000038 	beq	b928 <h_ctl_attitude_loop+0x46c>
    b844:	e59f3158 	ldr	r3, [pc, #344]	; b9a4 <.text+0xb9a4>
    b848:	e5900000 	ldr	r0, [r0]
    b84c:	e5931000 	ldr	r1, [r3]
    b850:	eb000e5e 	bl	f1d0 <__subsf3>
    b854:	e59f414c 	ldr	r4, [pc, #332]	; b9a8 <.text+0xb9a8>
    b858:	e5941000 	ldr	r1, [r4]
    b85c:	e1a08000 	mov	r8, r0
    b860:	eb000e5a 	bl	f1d0 <__subsf3>
    b864:	e59f3140 	ldr	r3, [pc, #320]	; b9ac <.text+0xb9ac>
    b868:	e1a01000 	mov	r1, r0
    b86c:	e5848000 	str	r8, [r4]
    b870:	e5930000 	ldr	r0, [r3]
    b874:	eb000edb 	bl	f3e8 <__mulsf3>
    b878:	e1a01000 	mov	r1, r0
    b87c:	e1a00008 	mov	r0, r8
    b880:	eb000e53 	bl	f1d4 <__addsf3>
    b884:	e1a01000 	mov	r1, r0
    b888:	e1a00005 	mov	r0, r5
    b88c:	eb000ed5 	bl	f3e8 <__mulsf3>
    b890:	eb000c58 	bl	e9f8 <__extendsfdf2>
    b894:	e1a07001 	mov	r7, r1
    b898:	e1a06000 	mov	r6, r0
    b89c:	e59a0000 	ldr	r0, [sl]
    b8a0:	eb000c54 	bl	e9f8 <__extendsfdf2>
    b8a4:	e59f30c8 	ldr	r3, [pc, #200]	; b974 <.text+0xb974>
    b8a8:	e5933000 	ldr	r3, [r3]
    b8ac:	e1a05001 	mov	r5, r1
    b8b0:	e1a04000 	mov	r4, r0
    b8b4:	e3c30102 	bic	r0, r3, #-2147483648	; 0x80000000
    b8b8:	eb000c4e 	bl	e9f8 <__extendsfdf2>
    b8bc:	e1a03001 	mov	r3, r1
    b8c0:	e1a02000 	mov	r2, r0
    b8c4:	e1a01005 	mov	r1, r5
    b8c8:	e1a00004 	mov	r0, r4
    b8cc:	eb000c5c 	bl	ea44 <__muldf3>
    b8d0:	e1a03001 	mov	r3, r1
    b8d4:	e1a02000 	mov	r2, r0
    b8d8:	e1a01007 	mov	r1, r7
    b8dc:	e1a00006 	mov	r0, r6
    b8e0:	eb000b6e 	bl	e6a0 <__adddf3>
    b8e4:	eb000dfb 	bl	f0d8 <__truncdfsf2>
    b8e8:	e59f1100 	ldr	r1, [pc, #256]	; b9f0 <.text+0xb9f0>
    b8ec:	e1a04000 	mov	r4, r0
    b8f0:	eb000f8a 	bl	f720 <__lesf2>
    b8f4:	e3500000 	cmp	r0, #0	; 0x0
    b8f8:	b59f30f4 	ldrlt	r3, [pc, #244]	; b9f4 <.text+0xb9f4>
    b8fc:	b1a00003 	movlt	r0, r3
    b900:	ba000006 	blt	b920 <h_ctl_attitude_loop+0x464>
    b904:	e1a00004 	mov	r0, r4
    b908:	e59f10e8 	ldr	r1, [pc, #232]	; b9f8 <.text+0xb9f8>
    b90c:	eb000f81 	bl	f718 <__gesf2>
    b910:	e3500000 	cmp	r0, #0	; 0x0
    b914:	c3a00d96 	movgt	r0, #9600	; 0x2580
    b918:	d1a00004 	movle	r0, r4
    b91c:	db000fa4 	blle	f7b4 <__fixsfsi>
    b920:	e59f3094 	ldr	r3, [pc, #148]	; b9bc <.text+0xb9bc>
    b924:	e1c300b0 	strh	r0, [r3]
    b928:	e59f203c 	ldr	r2, [pc, #60]	; b96c <.text+0xb96c>
    b92c:	e5d23000 	ldrb	r3, [r2]
    b930:	e3530000 	cmp	r3, #0	; 0x0
    b934:	e59f707c 	ldr	r7, [pc, #124]	; b9b8 <.text+0xb9b8>
    b938:	e59f6070 	ldr	r6, [pc, #112]	; b9b0 <.text+0xb9b0>
    b93c:	0a000036 	beq	ba1c <.text+0xba1c>
    b940:	e5960000 	ldr	r0, [r6]
    b944:	e1a01008 	mov	r1, r8
    b948:	eb000ea6 	bl	f3e8 <__mulsf3>
    b94c:	ea000042 	b	ba5c <.text+0xba5c>
    b950:	3fe0c152 	swicc	0x00e0c152
    b954:	382d7365 	stmccda	sp!, {r0, r2, r5, r6, r8, r9, ip, sp, lr}
    b958:	40c2c000 	sbcmi	ip, r2, r0
    b95c:	00000000 	andeq	r0, r0, r0
    b960:	40001180 	andmi	r1, r0, r0, lsl #3
    b964:	40001128 	andmi	r1, r0, r8, lsr #2
    b968:	40001168 	andmi	r1, r0, r8, ror #2
    b96c:	40001140 	andmi	r1, r0, r0, asr #2
    b970:	4000118c 	andmi	r1, r0, ip, lsl #3
    b974:	40001058 	andmi	r1, r0, r8, asr r0
    b978:	40001134 	andmi	r1, r0, r4, lsr r1
    b97c:	400010f8 	strmid	r1, [r0], -r8
    b980:	40001124 	andmi	r1, r0, r4, lsr #2
    b984:	4000104c 	andmi	r1, r0, ip, asr #32
    b988:	40000674 	andmi	r0, r0, r4, ror r6
    b98c:	40000670 	andmi	r0, r0, r0, ror r6
    b990:	40000678 	andmi	r0, r0, r8, ror r6
    b994:	400006b8 	strmih	r0, [r0], -r8
    b998:	4000113c 	andmi	r1, r0, ip, lsr r1
    b99c:	40001198 	mulmi	r0, r8, r1
    b9a0:	40001114 	andmi	r1, r0, r4, lsl r1
    b9a4:	40001050 	andmi	r1, r0, r0, asr r0
    b9a8:	400006bc 	strmih	r0, [r0], -ip
    b9ac:	40001164 	andmi	r1, r0, r4, ror #2
    b9b0:	40001174 	andmi	r1, r0, r4, ror r1
    b9b4:	40001138 	andmi	r1, r0, r8, lsr r1
    b9b8:	4000115c 	andmi	r1, r0, ip, asr r1
    b9bc:	40001118 	andmi	r1, r0, r8, lsl r1
    b9c0:	40001068 	andmi	r1, r0, r8, rrx
    b9c4:	4000110c 	andmi	r1, r0, ip, lsl #2
    b9c8:	40001190 	mulmi	r0, r0, r1
    b9cc:	40001178 	andmi	r1, r0, r8, ror r1
    b9d0:	40001188 	andmi	r1, r0, r8, lsl #3
    b9d4:	4000117c 	andmi	r1, r0, ip, ror r1
    b9d8:	41200000 	teqmi	r0, r0
    b9dc:	c1200000 	teqgt	r0, r0
    b9e0:	4000105c 	andmi	r1, r0, ip, asr r0
    b9e4:	400011dc 	ldrmid	r1, [r0], -ip
    b9e8:	40001120 	andmi	r1, r0, r0, lsr #2
    b9ec:	40001104 	andmi	r1, r0, r4, lsl #2
    b9f0:	c6160000 	ldrgt	r0, [r6], -r0
    b9f4:	ffffda80 	swinv	0x00ffda80
    b9f8:	46160000 	ldrmi	r0, [r6], -r0
    b9fc:	400010fc 	strmid	r1, [r0], -ip
    ba00:	400010e8 	andmi	r1, r0, r8, ror #1
    ba04:	3fe921fb 	swicc	0x00e921fb
    ba08:	54442d18 	strplb	r2, [r4], #-3352
    ba0c:	40c2c000 	sbcmi	ip, r2, r0
    ba10:	00000000 	andeq	r0, r0, r0
    ba14:	3fe0c152 	swicc	0x00e0c152
    ba18:	382d7365 	stmccda	sp!, {r0, r2, r5, r6, r8, r9, ip, sp, lr}
    ba1c:	e51f3070 	ldr	r3, [pc, #-112]	; b9b4 <.text+0xb9b4>
    ba20:	e5930000 	ldr	r0, [r3]
    ba24:	eb000bf3 	bl	e9f8 <__extendsfdf2>
    ba28:	e24f202c 	sub	r2, pc, #44	; 0x2c
    ba2c:	e892000c 	ldmia	r2, {r2, r3}
    ba30:	eb000ca1 	bl	ecbc <__divdf3>
    ba34:	e1a05001 	mov	r5, r1
    ba38:	e1a04000 	mov	r4, r0
    ba3c:	e5960000 	ldr	r0, [r6]
    ba40:	eb000bec 	bl	e9f8 <__extendsfdf2>
    ba44:	e1a03001 	mov	r3, r1
    ba48:	e1a02000 	mov	r2, r0
    ba4c:	e1a01005 	mov	r1, r5
    ba50:	e1a00004 	mov	r0, r4
    ba54:	eb000bfa 	bl	ea44 <__muldf3>
    ba58:	eb000d9e 	bl	f0d8 <__truncdfsf2>
    ba5c:	e5870000 	str	r0, [r7]
    ba60:	e51f50b0 	ldr	r5, [pc, #-176]	; b9b8 <.text+0xb9b8>
    ba64:	e5954000 	ldr	r4, [r5]
    ba68:	e51f1098 	ldr	r1, [pc, #-152]	; b9d8 <.text+0xb9d8>
    ba6c:	e1a00004 	mov	r0, r4
    ba70:	eb000f28 	bl	f718 <__gesf2>
    ba74:	e3500000 	cmp	r0, #0	; 0x0
    ba78:	c51f30a8 	ldrgt	r3, [pc, #-168]	; b9d8 <.text+0xb9d8>
    ba7c:	ca000005 	bgt	ba98 <.text+0xba98>
    ba80:	e1a00004 	mov	r0, r4
    ba84:	e51f10b0 	ldr	r1, [pc, #-176]	; b9dc <.text+0xb9dc>
    ba88:	eb000f24 	bl	f720 <__lesf2>
    ba8c:	e3500000 	cmp	r0, #0	; 0x0
    ba90:	aa000001 	bge	ba9c <.text+0xba9c>
    ba94:	e51f30c0 	ldr	r3, [pc, #-192]	; b9dc <.text+0xb9dc>
    ba98:	e5853000 	str	r3, [r5]
    ba9c:	e51f70e8 	ldr	r7, [pc, #-232]	; b9bc <.text+0xb9bc>
    baa0:	e1d700f0 	ldrsh	r0, [r7]
    baa4:	eb000e3c 	bl	f39c <__floatsisf>
    baa8:	e51f30f0 	ldr	r3, [pc, #-240]	; b9c0 <.text+0xb9c0>
    baac:	e1a08000 	mov	r8, r0
    bab0:	e5931000 	ldr	r1, [r3]
    bab4:	e5950000 	ldr	r0, [r5]
    bab8:	eb000dc4 	bl	f1d0 <__subsf3>
    babc:	e51f30e0 	ldr	r3, [pc, #-224]	; b9e4 <.text+0xb9e4>
    bac0:	e1a06000 	mov	r6, r0
    bac4:	e1d300f0 	ldrsh	r0, [r3]
    bac8:	eb000e33 	bl	f39c <__floatsisf>
    bacc:	e51f10dc 	ldr	r1, [pc, #-220]	; b9f8 <.text+0xb9f8>
    bad0:	eb000ea8 	bl	f578 <__divsf3>
    bad4:	e5991000 	ldr	r1, [r9]
    bad8:	e1a04000 	mov	r4, r0
    badc:	eb000e41 	bl	f3e8 <__mulsf3>
    bae0:	e1a01004 	mov	r1, r4
    bae4:	e1a05000 	mov	r5, r0
    bae8:	e3a005fe 	mov	r0, #1065353216	; 0x3f800000
    baec:	eb000db7 	bl	f1d0 <__subsf3>
    baf0:	e51f2134 	ldr	r2, [pc, #-308]	; b9c4 <.text+0xb9c4>
    baf4:	e5921000 	ldr	r1, [r2]
    baf8:	eb000e3a 	bl	f3e8 <__mulsf3>
    bafc:	e1a01000 	mov	r1, r0
    bb00:	e1a00005 	mov	r0, r5
    bb04:	eb000db2 	bl	f1d4 <__addsf3>
    bb08:	e1a01006 	mov	r1, r6
    bb0c:	eb000e35 	bl	f3e8 <__mulsf3>
    bb10:	e51f1128 	ldr	r1, [pc, #-296]	; b9f0 <.text+0xb9f0>
    bb14:	e1a04000 	mov	r4, r0
    bb18:	eb000f00 	bl	f720 <__lesf2>
    bb1c:	e3500000 	cmp	r0, #0	; 0x0
    bb20:	b51f3134 	ldrlt	r3, [pc, #-308]	; b9f4 <.text+0xb9f4>
    bb24:	b1a00003 	movlt	r0, r3
    bb28:	ba000006 	blt	bb48 <.text+0xbb48>
    bb2c:	e1a00004 	mov	r0, r4
    bb30:	e51f1140 	ldr	r1, [pc, #-320]	; b9f8 <.text+0xb9f8>
    bb34:	eb000ef7 	bl	f718 <__gesf2>
    bb38:	e3500000 	cmp	r0, #0	; 0x0
    bb3c:	c3a00d96 	movgt	r0, #9600	; 0x2580
    bb40:	d1a00004 	movle	r0, r4
    bb44:	db000f1a 	blle	f7b4 <__fixsfsi>
    bb48:	e1c700b0 	strh	r0, [r7]
    bb4c:	e1d700f0 	ldrsh	r0, [r7]
    bb50:	eb000e11 	bl	f39c <__floatsisf>
    bb54:	e51f3194 	ldr	r3, [pc, #-404]	; b9c8 <.text+0xb9c8>
    bb58:	e5934000 	ldr	r4, [r3]
    bb5c:	e1a01000 	mov	r1, r0
    bb60:	e1a00004 	mov	r0, r4
    bb64:	eb000e1f 	bl	f3e8 <__mulsf3>
    bb68:	e1a01004 	mov	r1, r4
    bb6c:	e1a05000 	mov	r5, r0
    bb70:	e3a005fe 	mov	r0, #1065353216	; 0x3f800000
    bb74:	eb000d95 	bl	f1d0 <__subsf3>
    bb78:	e1a01008 	mov	r1, r8
    bb7c:	eb000e19 	bl	f3e8 <__mulsf3>
    bb80:	e1a01000 	mov	r1, r0
    bb84:	e1a00005 	mov	r0, r5
    bb88:	eb000d91 	bl	f1d4 <__addsf3>
    bb8c:	eb000f08 	bl	f7b4 <__fixsfsi>
    bb90:	e51f51cc 	ldr	r5, [pc, #-460]	; b9cc <.text+0xb9cc>
    bb94:	e1c700b0 	strh	r0, [r7]
    bb98:	e5950000 	ldr	r0, [r5]
    bb9c:	eb000b95 	bl	e9f8 <__extendsfdf2>
    bba0:	e24f2f65 	sub	r2, pc, #404	; 0x194
    bba4:	e892000c 	ldmia	r2, {r2, r3}
    bba8:	eb000c43 	bl	ecbc <__divdf3>
    bbac:	e24f2f6a 	sub	r2, pc, #424	; 0x1a8
    bbb0:	e892000c 	ldmia	r2, {r2, r3}
    bbb4:	eb000ba2 	bl	ea44 <__muldf3>
    bbb8:	eb000d46 	bl	f0d8 <__truncdfsf2>
    bbbc:	e51f11d4 	ldr	r1, [pc, #-468]	; b9f0 <.text+0xb9f0>
    bbc0:	e1a04000 	mov	r4, r0
    bbc4:	eb000ed5 	bl	f720 <__lesf2>
    bbc8:	e3500000 	cmp	r0, #0	; 0x0
    bbcc:	e51f71d8 	ldr	r7, [pc, #-472]	; b9fc <.text+0xb9fc>
    bbd0:	b51f31e4 	ldrlt	r3, [pc, #-484]	; b9f4 <.text+0xb9f4>
    bbd4:	ba000008 	blt	bbfc <.text+0xbbfc>
    bbd8:	e1a00004 	mov	r0, r4
    bbdc:	e51f11ec 	ldr	r1, [pc, #-492]	; b9f8 <.text+0xb9f8>
    bbe0:	eb000ecc 	bl	f718 <__gesf2>
    bbe4:	e3500000 	cmp	r0, #0	; 0x0
    bbe8:	c3a03d96 	movgt	r3, #9600	; 0x2580
    bbec:	ca000002 	bgt	bbfc <.text+0xbbfc>
    bbf0:	e1a00004 	mov	r0, r4
    bbf4:	eb000eee 	bl	f7b4 <__fixsfsi>
    bbf8:	e1a03000 	mov	r3, r0
    bbfc:	e5950000 	ldr	r0, [r5]
    bc00:	e1c730b0 	strh	r3, [r7]
    bc04:	eb000b7b 	bl	e9f8 <__extendsfdf2>
    bc08:	e24f2f7f 	sub	r2, pc, #508	; 0x1fc
    bc0c:	e892000c 	ldmia	r2, {r2, r3}
    bc10:	eb000c29 	bl	ecbc <__divdf3>
    bc14:	e51f324c 	ldr	r3, [pc, #-588]	; b9d0 <.text+0xb9d0>
    bc18:	e1a05001 	mov	r5, r1
    bc1c:	e1a04000 	mov	r4, r0
    bc20:	e5930000 	ldr	r0, [r3]
    bc24:	eb000b73 	bl	e9f8 <__extendsfdf2>
    bc28:	e1a03001 	mov	r3, r1
    bc2c:	e1a02000 	mov	r2, r0
    bc30:	e1a01005 	mov	r1, r5
    bc34:	e1a00004 	mov	r0, r4
    bc38:	eb000b81 	bl	ea44 <__muldf3>
    bc3c:	eb000d25 	bl	f0d8 <__truncdfsf2>
    bc40:	e51f5274 	ldr	r5, [pc, #-628]	; b9d4 <.text+0xb9d4>
    bc44:	e1a04000 	mov	r4, r0
    bc48:	e51f1278 	ldr	r1, [pc, #-632]	; b9d8 <.text+0xb9d8>
    bc4c:	e5854000 	str	r4, [r5]
    bc50:	eb000eb0 	bl	f718 <__gesf2>
    bc54:	e3500000 	cmp	r0, #0	; 0x0
    bc58:	c51f3288 	ldrgt	r3, [pc, #-648]	; b9d8 <.text+0xb9d8>
    bc5c:	ca000005 	bgt	bc78 <.text+0xbc78>
    bc60:	e1a00004 	mov	r0, r4
    bc64:	e51f1290 	ldr	r1, [pc, #-656]	; b9dc <.text+0xb9dc>
    bc68:	eb000eac 	bl	f720 <__lesf2>
    bc6c:	e3500000 	cmp	r0, #0	; 0x0
    bc70:	aa000001 	bge	bc7c <.text+0xbc7c>
    bc74:	e51f32a0 	ldr	r3, [pc, #-672]	; b9dc <.text+0xb9dc>
    bc78:	e5853000 	str	r3, [r5]
    bc7c:	e1d700f0 	ldrsh	r0, [r7]
    bc80:	eb000dc5 	bl	f39c <__floatsisf>
    bc84:	e51f32ac 	ldr	r3, [pc, #-684]	; b9e0 <.text+0xb9e0>
    bc88:	e1a08000 	mov	r8, r0
    bc8c:	e5931000 	ldr	r1, [r3]
    bc90:	e5950000 	ldr	r0, [r5]
    bc94:	eb000d4d 	bl	f1d0 <__subsf3>
    bc98:	e51f32bc 	ldr	r3, [pc, #-700]	; b9e4 <.text+0xb9e4>
    bc9c:	e1a06000 	mov	r6, r0
    bca0:	e1d300f0 	ldrsh	r0, [r3]
    bca4:	eb000dbc 	bl	f39c <__floatsisf>
    bca8:	e51f12b8 	ldr	r1, [pc, #-696]	; b9f8 <.text+0xb9f8>
    bcac:	eb000e31 	bl	f578 <__divsf3>
    bcb0:	e51f32d0 	ldr	r3, [pc, #-720]	; b9e8 <.text+0xb9e8>
    bcb4:	e5931000 	ldr	r1, [r3]
    bcb8:	e1a04000 	mov	r4, r0
    bcbc:	eb000dc9 	bl	f3e8 <__mulsf3>
    bcc0:	e1a01004 	mov	r1, r4
    bcc4:	e1a05000 	mov	r5, r0
    bcc8:	e3a005fe 	mov	r0, #1065353216	; 0x3f800000
    bccc:	eb000d3f 	bl	f1d0 <__subsf3>
    bcd0:	e51f32ec 	ldr	r3, [pc, #-748]	; b9ec <.text+0xb9ec>
    bcd4:	e5931000 	ldr	r1, [r3]
    bcd8:	eb000dc2 	bl	f3e8 <__mulsf3>
    bcdc:	e1a01000 	mov	r1, r0
    bce0:	e1a00005 	mov	r0, r5
    bce4:	eb000d3a 	bl	f1d4 <__addsf3>
    bce8:	e1a01006 	mov	r1, r6
    bcec:	eb000dbd 	bl	f3e8 <__mulsf3>
    bcf0:	e51f1308 	ldr	r1, [pc, #-776]	; b9f0 <.text+0xb9f0>
    bcf4:	e1a04000 	mov	r4, r0
    bcf8:	eb000e88 	bl	f720 <__lesf2>
    bcfc:	e3500000 	cmp	r0, #0	; 0x0
    bd00:	b51f3314 	ldrlt	r3, [pc, #-788]	; b9f4 <.text+0xb9f4>
    bd04:	b1a00003 	movlt	r0, r3
    bd08:	ba000006 	blt	bd28 <.text+0xbd28>
    bd0c:	e1a00004 	mov	r0, r4
    bd10:	e51f1320 	ldr	r1, [pc, #-800]	; b9f8 <.text+0xb9f8>
    bd14:	eb000e7f 	bl	f718 <__gesf2>
    bd18:	e3500000 	cmp	r0, #0	; 0x0
    bd1c:	c3a00d96 	movgt	r0, #9600	; 0x2580
    bd20:	d1a00004 	movle	r0, r4
    bd24:	db000ea2 	blle	f7b4 <__fixsfsi>
    bd28:	e51f3334 	ldr	r3, [pc, #-820]	; b9fc <.text+0xb9fc>
    bd2c:	e1c300b0 	strh	r0, [r3]
    bd30:	e1d700f0 	ldrsh	r0, [r7]
    bd34:	eb000d98 	bl	f39c <__floatsisf>
    bd38:	e51f3340 	ldr	r3, [pc, #-832]	; ba00 <.text+0xba00>
    bd3c:	e5934000 	ldr	r4, [r3]
    bd40:	e1a01000 	mov	r1, r0
    bd44:	e1a00004 	mov	r0, r4
    bd48:	eb000da6 	bl	f3e8 <__mulsf3>
    bd4c:	e1a01004 	mov	r1, r4
    bd50:	e1a05000 	mov	r5, r0
    bd54:	e3a005fe 	mov	r0, #1065353216	; 0x3f800000
    bd58:	eb000d1c 	bl	f1d0 <__subsf3>
    bd5c:	e1a01008 	mov	r1, r8
    bd60:	eb000da0 	bl	f3e8 <__mulsf3>
    bd64:	e1a01000 	mov	r1, r0
    bd68:	e1a00005 	mov	r0, r5
    bd6c:	eb000d18 	bl	f1d4 <__addsf3>
    bd70:	eb000e8f 	bl	f7b4 <__fixsfsi>
    bd74:	e1c700b0 	strh	r0, [r7]
    bd78:	e24bd028 	sub	sp, fp, #40	; 0x28
    bd7c:	e89d6ff0 	ldmia	sp, {r4, r5, r6, r7, r8, r9, sl, fp, sp, lr}
    bd80:	e12fff1e 	bx	lr

0000bd84 <v_ctl_init>:
    bd84:	e59f20e8 	ldr	r2, [pc, #232]	; be74 <.text+0xbe74>
    bd88:	e59f30e8 	ldr	r3, [pc, #232]	; be78 <.text+0xbe78>
    bd8c:	e52de004 	str	lr, [sp, #-4]!
    bd90:	e5832000 	str	r2, [r3]
    bd94:	e59f20e0 	ldr	r2, [pc, #224]	; be7c <.text+0xbe7c>
    bd98:	e59f30e0 	ldr	r3, [pc, #224]	; be80 <.text+0xbe80>
    bd9c:	e59fc0e0 	ldr	ip, [pc, #224]	; be84 <.text+0xbe84>
    bda0:	e5832000 	str	r2, [r3]
    bda4:	e59f30dc 	ldr	r3, [pc, #220]	; be88 <.text+0xbe88>
    bda8:	e59fe0dc 	ldr	lr, [pc, #220]	; be8c <.text+0xbe8c>
    bdac:	e583c000 	str	ip, [r3]
    bdb0:	e59f30d8 	ldr	r3, [pc, #216]	; be90 <.text+0xbe90>
    bdb4:	e59f20d8 	ldr	r2, [pc, #216]	; be94 <.text+0xbe94>
    bdb8:	e583e000 	str	lr, [r3]
    bdbc:	e59f30d4 	ldr	r3, [pc, #212]	; be98 <.text+0xbe98>
    bdc0:	e5832000 	str	r2, [r3]
    bdc4:	e59f20d0 	ldr	r2, [pc, #208]	; be9c <.text+0xbe9c>
    bdc8:	e59f30d0 	ldr	r3, [pc, #208]	; bea0 <.text+0xbea0>
    bdcc:	e5832000 	str	r2, [r3]
    bdd0:	e59f30cc 	ldr	r3, [pc, #204]	; bea4 <.text+0xbea4>
    bdd4:	e3a01000 	mov	r1, #0	; 0x0
    bdd8:	e5831000 	str	r1, [r3]
    bddc:	e59f30c4 	ldr	r3, [pc, #196]	; bea8 <.text+0xbea8>
    bde0:	e3a025fe 	mov	r2, #1065353216	; 0x3f800000
    bde4:	e5832000 	str	r2, [r3]
    bde8:	e59f30bc 	ldr	r3, [pc, #188]	; beac <.text+0xbeac>
    bdec:	e3a00000 	mov	r0, #0	; 0x0
    bdf0:	e1c300b0 	strh	r0, [r3]
    bdf4:	e59f30b4 	ldr	r3, [pc, #180]	; beb0 <.text+0xbeb0>
    bdf8:	e5c30000 	strb	r0, [r3]
    bdfc:	e59f30b0 	ldr	r3, [pc, #176]	; beb4 <.text+0xbeb4>
    be00:	e5831000 	str	r1, [r3]
    be04:	e59f30ac 	ldr	r3, [pc, #172]	; beb8 <.text+0xbeb8>
    be08:	e5831000 	str	r1, [r3]
    be0c:	e59f30a8 	ldr	r3, [pc, #168]	; bebc <.text+0xbebc>
    be10:	e5831000 	str	r1, [r3]
    be14:	e59f30a4 	ldr	r3, [pc, #164]	; bec0 <.text+0xbec0>
    be18:	e5831000 	str	r1, [r3]
    be1c:	e59f30a0 	ldr	r3, [pc, #160]	; bec4 <.text+0xbec4>
    be20:	e5831000 	str	r1, [r3]
    be24:	e59f309c 	ldr	r3, [pc, #156]	; bec8 <.text+0xbec8>
    be28:	e5c30000 	strb	r0, [r3]
    be2c:	e59f3098 	ldr	r3, [pc, #152]	; becc <.text+0xbecc>
    be30:	e5c30000 	strb	r0, [r3]
    be34:	e59f3094 	ldr	r3, [pc, #148]	; bed0 <.text+0xbed0>
    be38:	e583c000 	str	ip, [r3]
    be3c:	e59f3090 	ldr	r3, [pc, #144]	; bed4 <.text+0xbed4>
    be40:	e583c000 	str	ip, [r3]
    be44:	e59f308c 	ldr	r3, [pc, #140]	; bed8 <.text+0xbed8>
    be48:	e583e000 	str	lr, [r3]
    be4c:	e59f3088 	ldr	r3, [pc, #136]	; bedc <.text+0xbedc>
    be50:	e5831000 	str	r1, [r3]
    be54:	e59f3084 	ldr	r3, [pc, #132]	; bee0 <.text+0xbee0>
    be58:	e5831000 	str	r1, [r3]
    be5c:	e59f3080 	ldr	r3, [pc, #128]	; bee4 <.text+0xbee4>
    be60:	e5831000 	str	r1, [r3]
    be64:	e59f307c 	ldr	r3, [pc, #124]	; bee8 <.text+0xbee8>
    be68:	e1c300b0 	strh	r0, [r3]
    be6c:	e49de004 	ldr	lr, [sp], #4
    be70:	e12fff1e 	bx	lr
    be74:	3e99999a 	mrccc	9, 4, r9, cr9, cr10, {4}
    be78:	400011cc 	andmi	r1, r0, ip, asr #3
    be7c:	3ee147ae 	cdpcc	7, 14, cr4, cr1, cr14, {5}
    be80:	400011f0 	strmid	r1, [r0], -r0
    be84:	3eb851ec 	frdcc<illegal precision>z	f5, f0, #4.0
    be88:	400011c8 	andmi	r1, r0, r8, asr #3
    be8c:	3c23d70a 	stccc	7, cr13, [r3], #-40
    be90:	400011d4 	ldrmid	r1, [r0], -r4
    be94:	3ca3d70a 	stccc	7, cr13, [r3], #40
    be98:	400011f4 	strmid	r1, [r0], -r4
    be9c:	3dcccccd 	stcccl	12, cr12, [ip, #820]
    bea0:	400011d0 	ldrmid	r1, [r0], -r0
    bea4:	400011f8 	strmid	r1, [r0], -r8
    bea8:	400011b4 	strmih	r1, [r0], -r4
    beac:	400011ec 	andmi	r1, r0, ip, ror #3
    beb0:	400011c4 	andmi	r1, r0, r4, asr #3
    beb4:	400011c0 	andmi	r1, r0, r0, asr #3
    beb8:	400011e8 	andmi	r1, r0, r8, ror #3
    bebc:	400011a0 	andmi	r1, r0, r0, lsr #3
    bec0:	400011a8 	andmi	r1, r0, r8, lsr #3
    bec4:	400011e0 	andmi	r1, r0, r0, ror #3
    bec8:	400011a4 	andmi	r1, r0, r4, lsr #3
    becc:	400011ac 	andmi	r1, r0, ip, lsr #3
    bed0:	400011b8 	strmih	r1, [r0], -r8
    bed4:	4000119c 	mulmi	r0, ip, r1
    bed8:	400011bc 	strmih	r1, [r0], -ip
    bedc:	400011d8 	ldrmid	r1, [r0], -r8
    bee0:	400011b0 	strmih	r1, [r0], -r0
    bee4:	400011e4 	andmi	r1, r0, r4, ror #3
    bee8:	400011dc 	ldrmid	r1, [r0], -ip

0000beec <v_ctl_altitude_loop>:
    beec:	e1a0c00d 	mov	ip, sp
    bef0:	e92ddff0 	stmdb	sp!, {r4, r5, r6, r7, r8, r9, sl, fp, ip, lr, pc}
    bef4:	e59f315c 	ldr	r3, [pc, #348]	; c058 <.text+0xc058>
    bef8:	e5930000 	ldr	r0, [r3]
    befc:	e59f3158 	ldr	r3, [pc, #344]	; c05c <.text+0xc05c>
    bf00:	e24cb004 	sub	fp, ip, #4	; 0x4
    bf04:	e5931000 	ldr	r1, [r3]
    bf08:	eb000cb0 	bl	f1d0 <__subsf3>
    bf0c:	e59f314c 	ldr	r3, [pc, #332]	; c060 <.text+0xc060>
    bf10:	e59f914c 	ldr	r9, [pc, #332]	; c064 <.text+0xc064>
    bf14:	e1a02000 	mov	r2, r0
    bf18:	e1a01000 	mov	r1, r0
    bf1c:	e5930000 	ldr	r0, [r3]
    bf20:	e5892000 	str	r2, [r9]
    bf24:	eb000d2f 	bl	f3e8 <__mulsf3>
    bf28:	e59f3138 	ldr	r3, [pc, #312]	; c068 <.text+0xc068>
    bf2c:	e5931000 	ldr	r1, [r3]
    bf30:	eb000ca7 	bl	f1d4 <__addsf3>
    bf34:	e59f5130 	ldr	r5, [pc, #304]	; c06c <.text+0xc06c>
    bf38:	e1a04000 	mov	r4, r0
    bf3c:	e3a01101 	mov	r1, #1073741824	; 0x40000000
    bf40:	e5854000 	str	r4, [r5]
    bf44:	eb000df3 	bl	f718 <__gesf2>
    bf48:	e3500000 	cmp	r0, #0	; 0x0
    bf4c:	c3a03101 	movgt	r3, #1073741824	; 0x40000000
    bf50:	ca000005 	bgt	bf6c <v_ctl_altitude_loop+0x80>
    bf54:	e1a00004 	mov	r0, r4
    bf58:	e3a01103 	mov	r1, #-1073741824	; 0xc0000000
    bf5c:	eb000def 	bl	f720 <__lesf2>
    bf60:	e3500000 	cmp	r0, #0	; 0x0
    bf64:	aa000001 	bge	bf70 <v_ctl_altitude_loop+0x84>
    bf68:	e3a03103 	mov	r3, #-1073741824	; 0xc0000000
    bf6c:	e5853000 	str	r3, [r5]
    bf70:	e59fa0f8 	ldr	sl, [pc, #248]	; c070 <.text+0xc070>
    bf74:	e5da4000 	ldrb	r4, [sl]
    bf78:	e59f80f4 	ldr	r8, [pc, #244]	; c074 <.text+0xc074>
    bf7c:	e59f70f4 	ldr	r7, [pc, #244]	; c078 <.text+0xc078>
    bf80:	e20460ff 	and	r6, r4, #255	; 0xff
    bf84:	e7971106 	ldr	r1, [r7, r6, lsl #2]
    bf88:	e5980000 	ldr	r0, [r8]
    bf8c:	eb000c8f 	bl	f1d0 <__subsf3>
    bf90:	e59f10e4 	ldr	r1, [pc, #228]	; c07c <.text+0xc07c>
    bf94:	e1a05000 	mov	r5, r0
    bf98:	e5990000 	ldr	r0, [r9]
    bf9c:	eb000d75 	bl	f578 <__divsf3>
    bfa0:	e1a03000 	mov	r3, r0
    bfa4:	e1a01000 	mov	r1, r0
    bfa8:	e1a00005 	mov	r0, r5
    bfac:	e7873106 	str	r3, [r7, r6, lsl #2]
    bfb0:	eb000c87 	bl	f1d4 <__addsf3>
    bfb4:	e2844001 	add	r4, r4, #1	; 0x1
    bfb8:	e5ca4000 	strb	r4, [sl]
    bfbc:	e5da3000 	ldrb	r3, [sl]
    bfc0:	e3530013 	cmp	r3, #19	; 0x13
    bfc4:	e5880000 	str	r0, [r8]
    bfc8:	9a00000a 	bls	bff8 <v_ctl_altitude_loop+0x10c>
    bfcc:	e59f30ac 	ldr	r3, [pc, #172]	; c080 <.text+0xc080>
    bfd0:	e1a01000 	mov	r1, r0
    bfd4:	e5930000 	ldr	r0, [r3]
    bfd8:	e3a03000 	mov	r3, #0	; 0x0
    bfdc:	e5ca3000 	strb	r3, [sl]
    bfe0:	eb000d00 	bl	f3e8 <__mulsf3>
    bfe4:	e59f4098 	ldr	r4, [pc, #152]	; c084 <.text+0xc084>
    bfe8:	e1a01000 	mov	r1, r0
    bfec:	e5940000 	ldr	r0, [r4]
    bff0:	eb000c77 	bl	f1d4 <__addsf3>
    bff4:	e5840000 	str	r0, [r4]
    bff8:	e59f3088 	ldr	r3, [pc, #136]	; c088 <.text+0xc088>
    bffc:	e5d35000 	ldrb	r5, [r3]
    c000:	e3550000 	cmp	r5, #0	; 0x0
    c004:	1a000011 	bne	c050 <v_ctl_altitude_loop+0x164>
    c008:	e59f3054 	ldr	r3, [pc, #84]	; c064 <.text+0xc064>
    c00c:	e5933000 	ldr	r3, [r3]
    c010:	e3c34102 	bic	r4, r3, #-2147483648	; 0x80000000
    c014:	e1a00004 	mov	r0, r4
    c018:	e3a01101 	mov	r1, #1073741824	; 0x40000000
    c01c:	eb000dbf 	bl	f720 <__lesf2>
    c020:	e3500000 	cmp	r0, #0	; 0x0
    c024:	b59f3060 	ldrlt	r3, [pc, #96]	; c08c <.text+0xc08c>
    c028:	b5c35000 	strltb	r5, [r3]
    c02c:	ba000007 	blt	c050 <v_ctl_altitude_loop+0x164>
    c030:	e1a00004 	mov	r0, r4
    c034:	e59f1054 	ldr	r1, [pc, #84]	; c090 <.text+0xc090>
    c038:	eb000db6 	bl	f718 <__gesf2>
    c03c:	e59f2048 	ldr	r2, [pc, #72]	; c08c <.text+0xc08c>
    c040:	e3500000 	cmp	r0, #0	; 0x0
    c044:	c3a03001 	movgt	r3, #1	; 0x1
    c048:	d3a03002 	movle	r3, #2	; 0x2
    c04c:	e5c23000 	strb	r3, [r2]
    c050:	e89d6ff0 	ldmia	sp, {r4, r5, r6, r7, r8, r9, sl, fp, sp, lr}
    c054:	e12fff1e 	bx	lr
    c058:	400011c0 	andmi	r1, r0, r0, asr #3
    c05c:	40001038 	andmi	r1, r0, r8, lsr r0
    c060:	400011cc 	andmi	r1, r0, ip, asr #3
    c064:	400011a0 	andmi	r1, r0, r0, lsr #3
    c068:	400011e8 	andmi	r1, r0, r8, ror #3
    c06c:	400011e0 	andmi	r1, r0, r0, ror #3
    c070:	400006c4 	andmi	r0, r0, r4, asr #13
    c074:	400011a8 	andmi	r1, r0, r8, lsr #3
    c078:	400006c8 	andmi	r0, r0, r8, asr #13
    c07c:	41a00000 	movmi	r0, r0
    c080:	400011bc 	strmih	r1, [r0], -ip
    c084:	400011c8 	andmi	r1, r0, r8, asr #3
    c088:	400011a4 	andmi	r1, r0, r4, lsr #3
    c08c:	400011ac 	andmi	r1, r0, ip, lsr #3
    c090:	40a00000 	adcmi	r0, r0, r0

0000c094 <v_ctl_climb_loop>:
    c094:	e1a0c00d 	mov	ip, sp
    c098:	e92dddf0 	stmdb	sp!, {r4, r5, r6, r7, r8, sl, fp, ip, lr, pc}
    c09c:	e59f33c0 	ldr	r3, [pc, #960]	; c464 <.text+0xc464>
    c0a0:	e5d33000 	ldrb	r3, [r3]
    c0a4:	e3530000 	cmp	r3, #0	; 0x0
    c0a8:	e24cb004 	sub	fp, ip, #4	; 0x4
    c0ac:	0a000002 	beq	c0bc <v_ctl_climb_loop+0x28>
    c0b0:	e3530001 	cmp	r3, #1	; 0x1
    c0b4:	0a0000a0 	beq	c33c <v_ctl_climb_loop+0x2a8>
    c0b8:	ea0000db 	b	c42c <v_ctl_climb_loop+0x398>
    c0bc:	e59f33a4 	ldr	r3, [pc, #932]	; c468 <.text+0xc468>
    c0c0:	e5936000 	ldr	r6, [r3]
    c0c4:	e59f33a0 	ldr	r3, [pc, #928]	; c46c <.text+0xc46c>
    c0c8:	e1a00006 	mov	r0, r6
    c0cc:	e5931000 	ldr	r1, [r3]
    c0d0:	eb000c3e 	bl	f1d0 <__subsf3>
    c0d4:	e59f3394 	ldr	r3, [pc, #916]	; c470 <.text+0xc470>
    c0d8:	e1a05000 	mov	r5, r0
    c0dc:	e1a01006 	mov	r1, r6
    c0e0:	e5930000 	ldr	r0, [r3]
    c0e4:	eb000cbf 	bl	f3e8 <__mulsf3>
    c0e8:	e59f3384 	ldr	r3, [pc, #900]	; c474 <.text+0xc474>
    c0ec:	e1a01000 	mov	r1, r0
    c0f0:	e5930000 	ldr	r0, [r3]
    c0f4:	eb000c36 	bl	f1d4 <__addsf3>
    c0f8:	e59f3378 	ldr	r3, [pc, #888]	; c478 <.text+0xc478>
    c0fc:	e1a04000 	mov	r4, r0
    c100:	e1a01005 	mov	r1, r5
    c104:	e5930000 	ldr	r0, [r3]
    c108:	eb000cb6 	bl	f3e8 <__mulsf3>
    c10c:	e1a01000 	mov	r1, r0
    c110:	e1a00004 	mov	r0, r4
    c114:	eb000c2e 	bl	f1d4 <__addsf3>
    c118:	e59f335c 	ldr	r3, [pc, #860]	; c47c <.text+0xc47c>
    c11c:	e1a04000 	mov	r4, r0
    c120:	e5930000 	ldr	r0, [r3]
    c124:	e59f3354 	ldr	r3, [pc, #852]	; c480 <.text+0xc480>
    c128:	e5931000 	ldr	r1, [r3]
    c12c:	eb000cad 	bl	f3e8 <__mulsf3>
    c130:	e1a01000 	mov	r1, r0
    c134:	e1a00004 	mov	r0, r4
    c138:	eb000c25 	bl	f1d4 <__addsf3>
    c13c:	e59f3340 	ldr	r3, [pc, #832]	; c484 <.text+0xc484>
    c140:	e1a0a000 	mov	sl, r0
    c144:	e5931000 	ldr	r1, [r3]
    c148:	e1a00006 	mov	r0, r6
    c14c:	eb000ca5 	bl	f3e8 <__mulsf3>
    c150:	e59f3330 	ldr	r3, [pc, #816]	; c488 <.text+0xc488>
    c154:	e5d33000 	ldrb	r3, [r3]
    c158:	e3530001 	cmp	r3, #1	; 0x1
    c15c:	e1a08000 	mov	r8, r0
    c160:	e3a07000 	mov	r7, #0	; 0x0
    c164:	0a000006 	beq	c184 <v_ctl_climb_loop+0xf0>
    c168:	ca000002 	bgt	c178 <v_ctl_climb_loop+0xe4>
    c16c:	e3530000 	cmp	r3, #0	; 0x0
    c170:	0a000058 	beq	c2d8 <v_ctl_climb_loop+0x244>
    c174:	ea00005d 	b	c2f0 <v_ctl_climb_loop+0x25c>
    c178:	e3530002 	cmp	r3, #2	; 0x2
    c17c:	0a00000d 	beq	c1b8 <v_ctl_climb_loop+0x124>
    c180:	ea00005a 	b	c2f0 <v_ctl_climb_loop+0x25c>
    c184:	e1a01007 	mov	r1, r7
    c188:	e1a00006 	mov	r0, r6
    c18c:	eb000d61 	bl	f718 <__gesf2>
    c190:	e3500000 	cmp	r0, #0	; 0x0
    c194:	c59f32f0 	ldrgt	r3, [pc, #752]	; c48c <.text+0xc48c>
    c198:	d59f32f0 	ldrle	r3, [pc, #752]	; c490 <.text+0xc490>
    c19c:	e59f22f0 	ldr	r2, [pc, #752]	; c494 <.text+0xc494>
    c1a0:	c5937000 	ldrgt	r7, [r3]
    c1a4:	d5937000 	ldrle	r7, [r3]
    c1a8:	c59f32e8 	ldrgt	r3, [pc, #744]	; c498 <.text+0xc498>
    c1ac:	d3a03000 	movle	r3, #0	; 0x0
    c1b0:	e5823000 	str	r3, [r2]
    c1b4:	ea00004d 	b	c2f0 <v_ctl_climb_loop+0x25c>
    c1b8:	e59f52dc 	ldr	r5, [pc, #732]	; c49c <.text+0xc49c>
    c1bc:	e5953000 	ldr	r3, [r5]
    c1c0:	e3c30102 	bic	r0, r3, #-2147483648	; 0x80000000
    c1c4:	eb000a0b 	bl	e9f8 <__extendsfdf2>
    c1c8:	e28f2f99 	add	r2, pc, #612	; 0x264
    c1cc:	e892000c 	ldmia	r2, {r2, r3}
    c1d0:	eb000931 	bl	e69c <__subdf3>
    c1d4:	e28f2e26 	add	r2, pc, #608	; 0x260
    c1d8:	e892000c 	ldmia	r2, {r2, r3}
    c1dc:	eb000ab6 	bl	ecbc <__divdf3>
    c1e0:	eb000bbc 	bl	f0d8 <__truncdfsf2>
    c1e4:	e1a01000 	mov	r1, r0
    c1e8:	e1a06000 	mov	r6, r0
    c1ec:	e3a005fe 	mov	r0, #1065353216	; 0x3f800000
    c1f0:	eb000bf6 	bl	f1d0 <__subsf3>
    c1f4:	e1a0100a 	mov	r1, sl
    c1f8:	e1a04000 	mov	r4, r0
    c1fc:	eb000c79 	bl	f3e8 <__mulsf3>
    c200:	e1a01008 	mov	r1, r8
    c204:	e1a07000 	mov	r7, r0
    c208:	e1a00004 	mov	r0, r4
    c20c:	eb000c75 	bl	f3e8 <__mulsf3>
    c210:	e59f827c 	ldr	r8, [pc, #636]	; c494 <.text+0xc494>
    c214:	e1a04000 	mov	r4, r0
    c218:	e3a01000 	mov	r1, #0	; 0x0
    c21c:	e5950000 	ldr	r0, [r5]
    c220:	e5884000 	str	r4, [r8]
    c224:	eb000d3d 	bl	f720 <__lesf2>
    c228:	e3500000 	cmp	r0, #0	; 0x0
    c22c:	aa000010 	bge	c274 <v_ctl_climb_loop+0x1e0>
    c230:	e59f3254 	ldr	r3, [pc, #596]	; c48c <.text+0xc48c>
    c234:	e1a00006 	mov	r0, r6
    c238:	e5931000 	ldr	r1, [r3]
    c23c:	eb000c69 	bl	f3e8 <__mulsf3>
    c240:	e1a01000 	mov	r1, r0
    c244:	e1a00007 	mov	r0, r7
    c248:	eb000be1 	bl	f1d4 <__addsf3>
    c24c:	e1a07000 	mov	r7, r0
    c250:	e1a00004 	mov	r0, r4
    c254:	eb0009e7 	bl	e9f8 <__extendsfdf2>
    c258:	e1a05001 	mov	r5, r1
    c25c:	e1a04000 	mov	r4, r0
    c260:	e1a00006 	mov	r0, r6
    c264:	eb0009e3 	bl	e9f8 <__extendsfdf2>
    c268:	e28f2f75 	add	r2, pc, #468	; 0x1d4
    c26c:	e892000c 	ldmia	r2, {r2, r3}
    c270:	ea00000f 	b	c2b4 <v_ctl_climb_loop+0x220>
    c274:	e59f3214 	ldr	r3, [pc, #532]	; c490 <.text+0xc490>
    c278:	e1a00006 	mov	r0, r6
    c27c:	e5931000 	ldr	r1, [r3]
    c280:	eb000c58 	bl	f3e8 <__mulsf3>
    c284:	e1a01000 	mov	r1, r0
    c288:	e1a00007 	mov	r0, r7
    c28c:	eb000bd0 	bl	f1d4 <__addsf3>
    c290:	e1a07000 	mov	r7, r0
    c294:	e1a00004 	mov	r0, r4
    c298:	eb0009d6 	bl	e9f8 <__extendsfdf2>
    c29c:	e1a05001 	mov	r5, r1
    c2a0:	e1a04000 	mov	r4, r0
    c2a4:	e1a00006 	mov	r0, r6
    c2a8:	eb0009d2 	bl	e9f8 <__extendsfdf2>
    c2ac:	e28f2f66 	add	r2, pc, #408	; 0x198
    c2b0:	e892000c 	ldmia	r2, {r2, r3}
    c2b4:	eb0009e2 	bl	ea44 <__muldf3>
    c2b8:	e1a03001 	mov	r3, r1
    c2bc:	e1a02000 	mov	r2, r0
    c2c0:	e1a01005 	mov	r1, r5
    c2c4:	e1a00004 	mov	r0, r4
    c2c8:	eb0008f4 	bl	e6a0 <__adddf3>
    c2cc:	eb000b81 	bl	f0d8 <__truncdfsf2>
    c2d0:	e5880000 	str	r0, [r8]
    c2d4:	ea000005 	b	c2f0 <v_ctl_climb_loop+0x25c>
    c2d8:	e59f41b4 	ldr	r4, [pc, #436]	; c494 <.text+0xc494>
    c2dc:	e1a01000 	mov	r1, r0
    c2e0:	e5940000 	ldr	r0, [r4]
    c2e4:	eb000bba 	bl	f1d4 <__addsf3>
    c2e8:	e5840000 	str	r0, [r4]
    c2ec:	e1a0700a 	mov	r7, sl
    c2f0:	e59f11a8 	ldr	r1, [pc, #424]	; c4a0 <.text+0xc4a0>
    c2f4:	e1a00007 	mov	r0, r7
    c2f8:	eb000c3a 	bl	f3e8 <__mulsf3>
    c2fc:	e3a01000 	mov	r1, #0	; 0x0
    c300:	e1a04000 	mov	r4, r0
    c304:	eb000d05 	bl	f720 <__lesf2>
    c308:	e3500000 	cmp	r0, #0	; 0x0
    c30c:	b3a00000 	movlt	r0, #0	; 0x0
    c310:	ba000006 	blt	c330 <v_ctl_climb_loop+0x29c>
    c314:	e1a00004 	mov	r0, r4
    c318:	e59f1180 	ldr	r1, [pc, #384]	; c4a0 <.text+0xc4a0>
    c31c:	eb000cfd 	bl	f718 <__gesf2>
    c320:	e3500000 	cmp	r0, #0	; 0x0
    c324:	c3a00d96 	movgt	r0, #9600	; 0x2580
    c328:	d1a00004 	movle	r0, r4
    c32c:	db000d20 	blle	f7b4 <__fixsfsi>
    c330:	e59f316c 	ldr	r3, [pc, #364]	; c4a4 <.text+0xc4a4>
    c334:	e1c300b0 	strh	r0, [r3]
    c338:	ea00003b 	b	c42c <v_ctl_climb_loop+0x398>
    c33c:	e59f3124 	ldr	r3, [pc, #292]	; c468 <.text+0xc468>
    c340:	e5930000 	ldr	r0, [r3]
    c344:	e59f3120 	ldr	r3, [pc, #288]	; c46c <.text+0xc46c>
    c348:	e5931000 	ldr	r1, [r3]
    c34c:	eb000b9f 	bl	f1d0 <__subsf3>
    c350:	e59f2150 	ldr	r2, [pc, #336]	; c4a8 <.text+0xc4a8>
    c354:	e59f3148 	ldr	r3, [pc, #328]	; c4a4 <.text+0xc4a4>
    c358:	e1d220b0 	ldrh	r2, [r2]
    c35c:	e59f5148 	ldr	r5, [pc, #328]	; c4ac <.text+0xc4ac>
    c360:	e1a07000 	mov	r7, r0
    c364:	e1a01007 	mov	r1, r7
    c368:	e5950000 	ldr	r0, [r5]
    c36c:	e1c320b0 	strh	r2, [r3]
    c370:	eb000b97 	bl	f1d4 <__addsf3>
    c374:	e59f6134 	ldr	r6, [pc, #308]	; c4b0 <.text+0xc4b0>
    c378:	e1a04000 	mov	r4, r0
    c37c:	e1a01006 	mov	r1, r6
    c380:	e5854000 	str	r4, [r5]
    c384:	eb000ce3 	bl	f718 <__gesf2>
    c388:	e3500000 	cmp	r0, #0	; 0x0
    c38c:	ca000005 	bgt	c3a8 <v_ctl_climb_loop+0x314>
    c390:	e59f611c 	ldr	r6, [pc, #284]	; c4b4 <.text+0xc4b4>
    c394:	e1a00004 	mov	r0, r4
    c398:	e1a01006 	mov	r1, r6
    c39c:	eb000cdf 	bl	f720 <__lesf2>
    c3a0:	e3500000 	cmp	r0, #0	; 0x0
    c3a4:	aa000000 	bge	c3ac <v_ctl_climb_loop+0x318>
    c3a8:	e5856000 	str	r6, [r5]
    c3ac:	e59f3104 	ldr	r3, [pc, #260]	; c4b8 <.text+0xc4b8>
    c3b0:	e5951000 	ldr	r1, [r5]
    c3b4:	e5930000 	ldr	r0, [r3]
    c3b8:	eb000c0a 	bl	f3e8 <__mulsf3>
    c3bc:	e1a01000 	mov	r1, r0
    c3c0:	e1a00007 	mov	r0, r7
    c3c4:	eb000b82 	bl	f1d4 <__addsf3>
    c3c8:	e59f30ec 	ldr	r3, [pc, #236]	; c4bc <.text+0xc4bc>
    c3cc:	e1a01000 	mov	r1, r0
    c3d0:	e5930000 	ldr	r0, [r3]
    c3d4:	eb000c03 	bl	f3e8 <__mulsf3>
    c3d8:	e59f60b4 	ldr	r6, [pc, #180]	; c494 <.text+0xc494>
    c3dc:	e1a03000 	mov	r3, r0
    c3e0:	e5863000 	str	r3, [r6]
    c3e4:	eb000983 	bl	e9f8 <__extendsfdf2>
    c3e8:	e28f2064 	add	r2, pc, #100	; 0x64
    c3ec:	e892000c 	ldmia	r2, {r2, r3}
    c3f0:	e1a05001 	mov	r5, r1
    c3f4:	e1a04000 	mov	r4, r0
    c3f8:	eb000acc 	bl	ef30 <__gedf2>
    c3fc:	e3500000 	cmp	r0, #0	; 0x0
    c400:	c59f30b8 	ldrgt	r3, [pc, #184]	; c4c0 <.text+0xc4c0>
    c404:	ca000007 	bgt	c428 <v_ctl_climb_loop+0x394>
    c408:	e1a01005 	mov	r1, r5
    c40c:	e1a00004 	mov	r0, r4
    c410:	e28f2044 	add	r2, pc, #68	; 0x44
    c414:	e892000c 	ldmia	r2, {r2, r3}
    c418:	eb000ac6 	bl	ef38 <__ledf2>
    c41c:	e3500000 	cmp	r0, #0	; 0x0
    c420:	aa000001 	bge	c42c <v_ctl_climb_loop+0x398>
    c424:	e59f3098 	ldr	r3, [pc, #152]	; c4c4 <.text+0xc4c4>
    c428:	e5863000 	str	r3, [r6]
    c42c:	e89d6df0 	ldmia	sp, {r4, r5, r6, r7, r8, sl, fp, sp, lr}
    c430:	e12fff1e 	bx	lr
    c434:	40000000 	andmi	r0, r0, r0
    c438:	00000000 	andeq	r0, r0, r0
    c43c:	40080000 	andmi	r0, r8, r0
    c440:	00000000 	andeq	r0, r0, r0
    c444:	3fd0c152 	swicc	0x00d0c152
    c448:	382d7365 	stmccda	sp!, {r0, r2, r5, r6, r8, r9, ip, sp, lr}
	...
    c454:	3fd66666 	swicc	0x00d66666
    c458:	66666666 	strvsbt	r6, [r6], -r6, ror #12
    c45c:	bfd66666 	swilt	0x00d66666
    c460:	66666666 	strvsbt	r6, [r6], -r6, ror #12
    c464:	400011a4 	andmi	r1, r0, r4, lsr #3
    c468:	400011e0 	andmi	r1, r0, r0, ror #3
    c46c:	4000102c 	andmi	r1, r0, ip, lsr #32
    c470:	400011d4 	ldrmid	r1, [r0], -r4
    c474:	400011c8 	andmi	r1, r0, r8, asr #3
    c478:	400011f4 	strmid	r1, [r0], -r4
    c47c:	400011d8 	ldrmid	r1, [r0], -r8
    c480:	400011a8 	andmi	r1, r0, r8, lsr #3
    c484:	400011b0 	strmih	r1, [r0], -r0
    c488:	400011ac 	andmi	r1, r0, ip, lsr #3
    c48c:	400011f0 	strmid	r1, [r0], -r0
    c490:	400011b8 	strmih	r1, [r0], -r8
    c494:	40000610 	andmi	r0, r0, r0, lsl r6
    c498:	3e860a92 	mcrcc	10, 4, r0, cr6, cr2, {4}
    c49c:	400011a0 	andmi	r1, r0, r0, lsr #3
    c4a0:	46160000 	ldrmi	r0, [r6], -r0
    c4a4:	400011dc 	ldrmid	r1, [r0], -ip
    c4a8:	4000109c 	mulmi	r0, ip, r0
    c4ac:	400011f8 	strmid	r1, [r0], -r8
    c4b0:	42c80000 	sbcmi	r0, r8, #0	; 0x0
    c4b4:	c2c80000 	sbcgt	r0, r8, #0	; 0x0
    c4b8:	400011e4 	andmi	r1, r0, r4, ror #3
    c4bc:	400011d0 	ldrmid	r1, [r0], -r0
    c4c0:	3eb33333 	mrccc	3, 5, r3, cr3, cr3, {1}
    c4c4:	beb33333 	mrclt	3, 5, r3, cr3, cr3, {1}

0000c4c8 <v_ctl_throttle_slew>:
    c4c8:	e1a0c00d 	mov	ip, sp
    c4cc:	e92dddf0 	stmdb	sp!, {r4, r5, r6, r7, r8, sl, fp, ip, lr, pc}
    c4d0:	e59f31a4 	ldr	r3, [pc, #420]	; c67c <.text+0xc67c>
    c4d4:	e59fa1a4 	ldr	sl, [pc, #420]	; c680 <.text+0xc680>
    c4d8:	e1d330b0 	ldrh	r3, [r3]
    c4dc:	e1da20b0 	ldrh	r2, [sl]
    c4e0:	e0623003 	rsb	r3, r2, r3
    c4e4:	e1a03803 	mov	r3, r3, lsl #16
    c4e8:	e1a06823 	mov	r6, r3, lsr #16
    c4ec:	e1a07806 	mov	r7, r6, lsl #16
    c4f0:	e24cb004 	sub	fp, ip, #4	; 0x4
    c4f4:	e1a00847 	mov	r0, r7, asr #16
    c4f8:	eb000ba7 	bl	f39c <__floatsisf>
    c4fc:	e59f8180 	ldr	r8, [pc, #384]	; c684 <.text+0xc684>
    c500:	e1a05000 	mov	r5, r0
    c504:	e59f117c 	ldr	r1, [pc, #380]	; c688 <.text+0xc688>
    c508:	e5980000 	ldr	r0, [r8]
    c50c:	eb000bb5 	bl	f3e8 <__mulsf3>
    c510:	e59f1174 	ldr	r1, [pc, #372]	; c68c <.text+0xc68c>
    c514:	e1a04000 	mov	r4, r0
    c518:	eb000c80 	bl	f720 <__lesf2>
    c51c:	e3500000 	cmp	r0, #0	; 0x0
    c520:	b1a00005 	movlt	r0, r5
    c524:	b59f1160 	ldrlt	r1, [pc, #352]	; c68c <.text+0xc68c>
    c528:	ba000007 	blt	c54c <v_ctl_throttle_slew+0x84>
    c52c:	e59f1154 	ldr	r1, [pc, #340]	; c688 <.text+0xc688>
    c530:	e1a00004 	mov	r0, r4
    c534:	eb000c77 	bl	f718 <__gesf2>
    c538:	e3500000 	cmp	r0, #0	; 0x0
    c53c:	c59f1144 	ldrgt	r1, [pc, #324]	; c688 <.text+0xc688>
    c540:	c1a00005 	movgt	r0, r5
    c544:	d1a00005 	movle	r0, r5
    c548:	d1a01004 	movle	r1, r4
    c54c:	eb000c71 	bl	f718 <__gesf2>
    c550:	e3500000 	cmp	r0, #0	; 0x0
    c554:	da00000e 	ble	c594 <v_ctl_throttle_slew+0xcc>
    c558:	e59f1128 	ldr	r1, [pc, #296]	; c688 <.text+0xc688>
    c55c:	e5980000 	ldr	r0, [r8]
    c560:	eb000ba0 	bl	f3e8 <__mulsf3>
    c564:	e59f1120 	ldr	r1, [pc, #288]	; c68c <.text+0xc68c>
    c568:	e1a04000 	mov	r4, r0
    c56c:	eb000c6b 	bl	f720 <__lesf2>
    c570:	e3500000 	cmp	r0, #0	; 0x0
    c574:	ba000033 	blt	c648 <v_ctl_throttle_slew+0x180>
    c578:	e1a00004 	mov	r0, r4
    c57c:	e59f1104 	ldr	r1, [pc, #260]	; c688 <.text+0xc688>
    c580:	eb000c64 	bl	f718 <__gesf2>
    c584:	e3500000 	cmp	r0, #0	; 0x0
    c588:	d1a00004 	movle	r0, r4
    c58c:	da000032 	ble	c65c <v_ctl_throttle_slew+0x194>
    c590:	ea000025 	b	c62c <v_ctl_throttle_slew+0x164>
    c594:	e1a00847 	mov	r0, r7, asr #16
    c598:	eb000b7f 	bl	f39c <__floatsisf>
    c59c:	e5987000 	ldr	r7, [r8]
    c5a0:	e1a05000 	mov	r5, r0
    c5a4:	e59f10dc 	ldr	r1, [pc, #220]	; c688 <.text+0xc688>
    c5a8:	e1a00007 	mov	r0, r7
    c5ac:	eb000b8d 	bl	f3e8 <__mulsf3>
    c5b0:	e59f10d4 	ldr	r1, [pc, #212]	; c68c <.text+0xc68c>
    c5b4:	e1a04000 	mov	r4, r0
    c5b8:	eb000c58 	bl	f720 <__lesf2>
    c5bc:	e3500000 	cmp	r0, #0	; 0x0
    c5c0:	b1a00005 	movlt	r0, r5
    c5c4:	b59f10bc 	ldrlt	r1, [pc, #188]	; c688 <.text+0xc688>
    c5c8:	ba00000b 	blt	c5fc <v_ctl_throttle_slew+0x134>
    c5cc:	e59f10b4 	ldr	r1, [pc, #180]	; c688 <.text+0xc688>
    c5d0:	e1a00004 	mov	r0, r4
    c5d4:	eb000c4f 	bl	f718 <__gesf2>
    c5d8:	e3500000 	cmp	r0, #0	; 0x0
    c5dc:	c1a00005 	movgt	r0, r5
    c5e0:	c59f10a4 	ldrgt	r1, [pc, #164]	; c68c <.text+0xc68c>
    c5e4:	ca000004 	bgt	c5fc <v_ctl_throttle_slew+0x134>
    c5e8:	e59f109c 	ldr	r1, [pc, #156]	; c68c <.text+0xc68c>
    c5ec:	e1a00007 	mov	r0, r7
    c5f0:	eb000b7c 	bl	f3e8 <__mulsf3>
    c5f4:	e1a01000 	mov	r1, r0
    c5f8:	e1a00005 	mov	r0, r5
    c5fc:	eb000c47 	bl	f720 <__lesf2>
    c600:	e3500000 	cmp	r0, #0	; 0x0
    c604:	aa000017 	bge	c668 <v_ctl_throttle_slew+0x1a0>
    c608:	e5985000 	ldr	r5, [r8]
    c60c:	e59f1074 	ldr	r1, [pc, #116]	; c688 <.text+0xc688>
    c610:	e1a00005 	mov	r0, r5
    c614:	eb000b73 	bl	f3e8 <__mulsf3>
    c618:	e59f106c 	ldr	r1, [pc, #108]	; c68c <.text+0xc68c>
    c61c:	e1a04000 	mov	r4, r0
    c620:	eb000c3e 	bl	f720 <__lesf2>
    c624:	e3500000 	cmp	r0, #0	; 0x0
    c628:	aa000001 	bge	c634 <v_ctl_throttle_slew+0x16c>
    c62c:	e3a06d96 	mov	r6, #9600	; 0x2580
    c630:	ea00000c 	b	c668 <v_ctl_throttle_slew+0x1a0>
    c634:	e1a00004 	mov	r0, r4
    c638:	e59f1048 	ldr	r1, [pc, #72]	; c688 <.text+0xc688>
    c63c:	eb000c35 	bl	f718 <__gesf2>
    c640:	e3500000 	cmp	r0, #0	; 0x0
    c644:	da000001 	ble	c650 <v_ctl_throttle_slew+0x188>
    c648:	e59f6040 	ldr	r6, [pc, #64]	; c690 <.text+0xc690>
    c64c:	ea000005 	b	c668 <v_ctl_throttle_slew+0x1a0>
    c650:	e1a00005 	mov	r0, r5
    c654:	e59f1030 	ldr	r1, [pc, #48]	; c68c <.text+0xc68c>
    c658:	eb000b62 	bl	f3e8 <__mulsf3>
    c65c:	eb000c54 	bl	f7b4 <__fixsfsi>
    c660:	e1a00800 	mov	r0, r0, lsl #16
    c664:	e1a06820 	mov	r6, r0, lsr #16
    c668:	e1da30b0 	ldrh	r3, [sl]
    c66c:	e0833006 	add	r3, r3, r6
    c670:	e1ca30b0 	strh	r3, [sl]
    c674:	e89d6df0 	ldmia	sp, {r4, r5, r6, r7, r8, sl, fp, sp, lr}
    c678:	e12fff1e 	bx	lr
    c67c:	400011dc 	ldrmid	r1, [r0], -ip
    c680:	400011ec 	andmi	r1, r0, ip, ror #3
    c684:	400011b4 	strmih	r1, [r0], -r4
    c688:	46160000 	ldrmi	r0, [r6], -r0
    c68c:	c6160000 	ldrgt	r0, [r6], -r0
    c690:	0000da80 	andeq	sp, r0, r0, lsl #21

0000c694 <gyro_init>:
    c694:	e1a0c00d 	mov	ip, sp
    c698:	e92dd810 	stmdb	sp!, {r4, fp, ip, lr, pc}
    c69c:	e3a00003 	mov	r0, #3	; 0x3
    c6a0:	e24cb004 	sub	fp, ip, #4	; 0x4
    c6a4:	e59f106c 	ldr	r1, [pc, #108]	; c718 <.text+0xc718>
    c6a8:	e3a02010 	mov	r2, #16	; 0x10
    c6ac:	ebffe6d3 	bl	6200 <adc_buf_channel>
    c6b0:	e59fc064 	ldr	ip, [pc, #100]	; c71c <.text+0xc71c>
    c6b4:	e59f3064 	ldr	r3, [pc, #100]	; c720 <.text+0xc720>
    c6b8:	e583c000 	str	ip, [r3]
    c6bc:	e59f3060 	ldr	r3, [pc, #96]	; c724 <.text+0xc724>
    c6c0:	e3a0443f 	mov	r4, #1056964608	; 0x3f000000
    c6c4:	e3a00002 	mov	r0, #2	; 0x2
    c6c8:	e59f1058 	ldr	r1, [pc, #88]	; c728 <.text+0xc728>
    c6cc:	e3a02010 	mov	r2, #16	; 0x10
    c6d0:	e5834000 	str	r4, [r3]
    c6d4:	ebffe6c9 	bl	6200 <adc_buf_channel>
    c6d8:	e59fc04c 	ldr	ip, [pc, #76]	; c72c <.text+0xc72c>
    c6dc:	e59f304c 	ldr	r3, [pc, #76]	; c730 <.text+0xc730>
    c6e0:	e583c000 	str	ip, [r3]
    c6e4:	e59f3048 	ldr	r3, [pc, #72]	; c734 <.text+0xc734>
    c6e8:	e3a02010 	mov	r2, #16	; 0x10
    c6ec:	e5834000 	str	r4, [r3]
    c6f0:	e3a00001 	mov	r0, #1	; 0x1
    c6f4:	e59f103c 	ldr	r1, [pc, #60]	; c738 <.text+0xc738>
    c6f8:	ebffe6c0 	bl	6200 <adc_buf_channel>
    c6fc:	e59f3038 	ldr	r3, [pc, #56]	; c73c <.text+0xc73c>
    c700:	e59f2038 	ldr	r2, [pc, #56]	; c740 <.text+0xc740>
    c704:	e5834000 	str	r4, [r3]
    c708:	e59f3034 	ldr	r3, [pc, #52]	; c744 <.text+0xc744>
    c70c:	e5832000 	str	r2, [r3]
    c710:	e89d6810 	ldmia	sp, {r4, fp, sp, lr}
    c714:	e12fff1e 	bx	lr
    c718:	40001204 	andmi	r1, r0, r4, lsl #4
    c71c:	43eb0000 	mvnmi	r0, #0	; 0x0
    c720:	4000124c 	andmi	r1, r0, ip, asr #4
    c724:	40001200 	andmi	r1, r0, r0, lsl #4
    c728:	4000071c 	andmi	r0, r0, ip, lsl r7
    c72c:	43ca8000 	bicmi	r8, sl, #0	; 0x0
    c730:	40001248 	andmi	r1, r0, r8, asr #4
    c734:	40001258 	andmi	r1, r0, r8, asr r2
    c738:	40000760 	andmi	r0, r0, r0, ror #14
    c73c:	400011fc 	strmid	r1, [r0], -ip
    c740:	43ec8000 	mvnmi	r8, #0	; 0x0
    c744:	40001254 	andmi	r1, r0, r4, asr r2

0000c748 <gyro_update>:
    c748:	e1a0c00d 	mov	ip, sp
    c74c:	e92dddf0 	stmdb	sp!, {r4, r5, r6, r7, r8, sl, fp, ip, lr, pc}
    c750:	e59f316c 	ldr	r3, [pc, #364]	; c8c4 <.text+0xc8c4>
    c754:	e24cb004 	sub	fp, ip, #4	; 0x4
    c758:	e5d31043 	ldrb	r1, [r3, #67]
    c75c:	e1d300b0 	ldrh	r0, [r3]
    c760:	eb000c44 	bl	f878 <____divsi3_from_arm>
    c764:	eb000b0c 	bl	f39c <__floatsisf>
    c768:	e59f3158 	ldr	r3, [pc, #344]	; c8c8 <.text+0xc8c8>
    c76c:	e5931000 	ldr	r1, [r3]
    c770:	eb000a96 	bl	f1d0 <__subsf3>
    c774:	eb000c0e 	bl	f7b4 <__fixsfsi>
    c778:	e59f314c 	ldr	r3, [pc, #332]	; c8cc <.text+0xc8cc>
    c77c:	e1c300b0 	strh	r0, [r3]
    c780:	e1d300f0 	ldrsh	r0, [r3]
    c784:	eb000b04 	bl	f39c <__floatsisf>
    c788:	e59f3140 	ldr	r3, [pc, #320]	; c8d0 <.text+0xc8d0>
    c78c:	e28f4f46 	add	r4, pc, #280	; 0x118
    c790:	e8940030 	ldmia	r4, {r4, r5}
    c794:	e5931000 	ldr	r1, [r3]
    c798:	eb000b12 	bl	f3e8 <__mulsf3>
    c79c:	e28f6e11 	add	r6, pc, #272	; 0x110
    c7a0:	e89600c0 	ldmia	r6, {r6, r7}
    c7a4:	eb000893 	bl	e9f8 <__extendsfdf2>
    c7a8:	e1a03005 	mov	r3, r5
    c7ac:	e1a02004 	mov	r2, r4
    c7b0:	eb000941 	bl	ecbc <__divdf3>
    c7b4:	e1a03007 	mov	r3, r7
    c7b8:	e1a02006 	mov	r2, r6
    c7bc:	eb0008a0 	bl	ea44 <__muldf3>
    c7c0:	eb000a44 	bl	f0d8 <__truncdfsf2>
    c7c4:	e59f3108 	ldr	r3, [pc, #264]	; c8d4 <.text+0xc8d4>
    c7c8:	e1a0a000 	mov	sl, r0
    c7cc:	e5d31043 	ldrb	r1, [r3, #67]
    c7d0:	e1d300b0 	ldrh	r0, [r3]
    c7d4:	eb000c27 	bl	f878 <____divsi3_from_arm>
    c7d8:	eb000aef 	bl	f39c <__floatsisf>
    c7dc:	e59f30f4 	ldr	r3, [pc, #244]	; c8d8 <.text+0xc8d8>
    c7e0:	e5931000 	ldr	r1, [r3]
    c7e4:	eb000a79 	bl	f1d0 <__subsf3>
    c7e8:	eb000bf1 	bl	f7b4 <__fixsfsi>
    c7ec:	e59f30e8 	ldr	r3, [pc, #232]	; c8dc <.text+0xc8dc>
    c7f0:	e1c300b0 	strh	r0, [r3]
    c7f4:	e1d300f0 	ldrsh	r0, [r3]
    c7f8:	eb000ae7 	bl	f39c <__floatsisf>
    c7fc:	e59f30dc 	ldr	r3, [pc, #220]	; c8e0 <.text+0xc8e0>
    c800:	e5931000 	ldr	r1, [r3]
    c804:	eb000af7 	bl	f3e8 <__mulsf3>
    c808:	eb00087a 	bl	e9f8 <__extendsfdf2>
    c80c:	e1a03005 	mov	r3, r5
    c810:	e1a02004 	mov	r2, r4
    c814:	eb000928 	bl	ecbc <__divdf3>
    c818:	e28f209c 	add	r2, pc, #156	; 0x9c
    c81c:	e892000c 	ldmia	r2, {r2, r3}
    c820:	eb000887 	bl	ea44 <__muldf3>
    c824:	eb000a2b 	bl	f0d8 <__truncdfsf2>
    c828:	e59f30b4 	ldr	r3, [pc, #180]	; c8e4 <.text+0xc8e4>
    c82c:	e1a08000 	mov	r8, r0
    c830:	e5d31043 	ldrb	r1, [r3, #67]
    c834:	e1d300b0 	ldrh	r0, [r3]
    c838:	eb000c0e 	bl	f878 <____divsi3_from_arm>
    c83c:	eb000ad6 	bl	f39c <__floatsisf>
    c840:	e59f30a0 	ldr	r3, [pc, #160]	; c8e8 <.text+0xc8e8>
    c844:	e5931000 	ldr	r1, [r3]
    c848:	eb000a60 	bl	f1d0 <__subsf3>
    c84c:	eb000bd8 	bl	f7b4 <__fixsfsi>
    c850:	e59f3094 	ldr	r3, [pc, #148]	; c8ec <.text+0xc8ec>
    c854:	e1c300b0 	strh	r0, [r3]
    c858:	e1d300f0 	ldrsh	r0, [r3]
    c85c:	eb000ace 	bl	f39c <__floatsisf>
    c860:	e59f3088 	ldr	r3, [pc, #136]	; c8f0 <.text+0xc8f0>
    c864:	e5931000 	ldr	r1, [r3]
    c868:	eb000ade 	bl	f3e8 <__mulsf3>
    c86c:	eb000861 	bl	e9f8 <__extendsfdf2>
    c870:	e1a03005 	mov	r3, r5
    c874:	e1a02004 	mov	r2, r4
    c878:	eb00090f 	bl	ecbc <__divdf3>
    c87c:	e1a03007 	mov	r3, r7
    c880:	e1a02006 	mov	r2, r6
    c884:	eb00086e 	bl	ea44 <__muldf3>
    c888:	eb000a12 	bl	f0d8 <__truncdfsf2>
    c88c:	e59f3060 	ldr	r3, [pc, #96]	; c8f4 <.text+0xc8f4>
    c890:	e583a000 	str	sl, [r3]
    c894:	e59f305c 	ldr	r3, [pc, #92]	; c8f8 <.text+0xc8f8>
    c898:	e5838000 	str	r8, [r3]
    c89c:	e59f3058 	ldr	r3, [pc, #88]	; c8fc <.text+0xc8fc>
    c8a0:	e5830000 	str	r0, [r3]
    c8a4:	e89d6df0 	ldmia	sp, {r4, r5, r6, r7, r8, sl, fp, sp, lr}
    c8a8:	e12fff1e 	bx	lr
    c8ac:	40668000 	rsbmi	r8, r6, r0
    c8b0:	00000000 	andeq	r0, r0, r0
    c8b4:	c00921fb 	strgtd	r2, [r9], -fp
    c8b8:	54442d18 	strplb	r2, [r4], #-3352
    c8bc:	400921fb 	strmid	r2, [r9], -fp
    c8c0:	54442d18 	strplb	r2, [r4], #-3352
    c8c4:	40001204 	andmi	r1, r0, r4, lsl #4
    c8c8:	4000124c 	andmi	r1, r0, ip, asr #4
    c8cc:	40001250 	andmi	r1, r0, r0, asr r2
    c8d0:	40001200 	andmi	r1, r0, r0, lsl #4
    c8d4:	4000071c 	andmi	r0, r0, ip, lsl r7
    c8d8:	40001248 	andmi	r1, r0, r8, asr #4
    c8dc:	4000125e 	andmi	r1, r0, lr, asr r2
    c8e0:	40001258 	andmi	r1, r0, r8, asr r2
    c8e4:	40000760 	andmi	r0, r0, r0, ror #14
    c8e8:	40001254 	andmi	r1, r0, r4, asr r2
    c8ec:	4000125c 	andmi	r1, r0, ip, asr r2
    c8f0:	400011fc 	strmid	r1, [r0], -ip
    c8f4:	4000104c 	andmi	r1, r0, ip, asr #32
    c8f8:	40001068 	andmi	r1, r0, r8, rrx
    c8fc:	4000105c 	andmi	r1, r0, ip, asr r0

0000c900 <atan>:
    c900:	b5f0      	push	{r4, r5, r6, r7, lr}
    c902:	4657      	mov	r7, sl
    c904:	4646      	mov	r6, r8
    c906:	b4c0      	push	{r6, r7}
    c908:	4da3      	ldr	r5, [pc, #652]	(cb98 <.text+0xcb98>)
    c90a:	4ba4      	ldr	r3, [pc, #656]	(cb9c <.text+0xcb9c>)
    c90c:	4005      	and	r5, r0
    c90e:	b084      	sub	sp, #16
    c910:	1c0f      	mov	r7, r1		(add r7, r1, #0)
    c912:	1c06      	mov	r6, r0		(add r6, r0, #0)
    c914:	4680      	mov	r8, r0
    c916:	429d      	cmp	r5, r3
    c918:	dd12      	ble	c940 <atan+0x40>
    c91a:	4aa1      	ldr	r2, [pc, #644]	(cba0 <.text+0xcba0>)
    c91c:	1c0c      	mov	r4, r1		(add r4, r1, #0)
    c91e:	1c03      	mov	r3, r0		(add r3, r0, #0)
    c920:	4295      	cmp	r5, r2
    c922:	dc00      	bgt	c926 <atan+0x26>
    c924:	e0b4      	b	ca90 <atan+0x190>
    c926:	1c39      	mov	r1, r7		(add r1, r7, #0)
    c928:	1c30      	mov	r0, r6		(add r0, r6, #0)
    c92a:	1c3b      	mov	r3, r7		(add r3, r7, #0)
    c92c:	1c32      	mov	r2, r6		(add r2, r6, #0)
    c92e:	ffc7f002 	bl	f8c0 <____adddf3_from_thumb>
    c932:	b004      	add	sp, #16
    c934:	bc18      	pop	{r3, r4}
    c936:	4698      	mov	r8, r3
    c938:	46a2      	mov	sl, r4
    c93a:	bcf0      	pop	{r4, r5, r6, r7}
    c93c:	bc04      	pop	{r2}
    c93e:	4710      	bx	r2
    c940:	4b98      	ldr	r3, [pc, #608]	(cba4 <.text+0xcba4>)
    c942:	429d      	cmp	r5, r3
    c944:	dd00      	ble	c948 <atan+0x48>
    c946:	e0ba      	b	cabe <atan+0x1be>
    c948:	4b97      	ldr	r3, [pc, #604]	(cba8 <.text+0xcba8>)
    c94a:	429d      	cmp	r5, r3
    c94c:	dc00      	bgt	c950 <atan+0x50>
    c94e:	e0a8      	b	caa2 <atan+0x1a2>
    c950:	2301      	mov	r3, #1
    c952:	4259      	neg	r1, r3
    c954:	468a      	mov	sl, r1
    c956:	1c3b      	mov	r3, r7		(add r3, r7, #0)
    c958:	1c32      	mov	r2, r6		(add r2, r6, #0)
    c95a:	1c39      	mov	r1, r7		(add r1, r7, #0)
    c95c:	1c30      	mov	r0, r6		(add r0, r6, #0)
    c95e:	ffb3f002 	bl	f8c8 <____muldf3_from_thumb>
    c962:	1c0b      	mov	r3, r1		(add r3, r1, #0)
    c964:	1c02      	mov	r2, r0		(add r2, r0, #0)
    c966:	9000      	str	r0, [sp, #0]
    c968:	9101      	str	r1, [sp, #4]
    c96a:	ffadf002 	bl	f8c8 <____muldf3_from_thumb>
    c96e:	4a8f      	ldr	r2, [pc, #572]	(cbac <.text+0xcbac>)
    c970:	4b8f      	ldr	r3, [pc, #572]	(cbb0 <.text+0xcbb0>)
    c972:	1c0d      	mov	r5, r1		(add r5, r1, #0)
    c974:	1c04      	mov	r4, r0		(add r4, r0, #0)
    c976:	ffa7f002 	bl	f8c8 <____muldf3_from_thumb>
    c97a:	1c0b      	mov	r3, r1		(add r3, r1, #0)
    c97c:	1c02      	mov	r2, r0		(add r2, r0, #0)
    c97e:	488d      	ldr	r0, [pc, #564]	(cbb4 <.text+0xcbb4>)
    c980:	498d      	ldr	r1, [pc, #564]	(cbb8 <.text+0xcbb8>)
    c982:	ff9df002 	bl	f8c0 <____adddf3_from_thumb>
    c986:	1c2b      	mov	r3, r5		(add r3, r5, #0)
    c988:	1c22      	mov	r2, r4		(add r2, r4, #0)
    c98a:	ff9df002 	bl	f8c8 <____muldf3_from_thumb>
    c98e:	1c0b      	mov	r3, r1		(add r3, r1, #0)
    c990:	1c02      	mov	r2, r0		(add r2, r0, #0)
    c992:	488a      	ldr	r0, [pc, #552]	(cbbc <.text+0xcbbc>)
    c994:	498a      	ldr	r1, [pc, #552]	(cbc0 <.text+0xcbc0>)
    c996:	ff93f002 	bl	f8c0 <____adddf3_from_thumb>
    c99a:	1c2b      	mov	r3, r5		(add r3, r5, #0)
    c99c:	1c22      	mov	r2, r4		(add r2, r4, #0)
    c99e:	ff93f002 	bl	f8c8 <____muldf3_from_thumb>
    c9a2:	1c0b      	mov	r3, r1		(add r3, r1, #0)
    c9a4:	1c02      	mov	r2, r0		(add r2, r0, #0)
    c9a6:	4887      	ldr	r0, [pc, #540]	(cbc4 <.text+0xcbc4>)
    c9a8:	4987      	ldr	r1, [pc, #540]	(cbc8 <.text+0xcbc8>)
    c9aa:	ff89f002 	bl	f8c0 <____adddf3_from_thumb>
    c9ae:	1c2b      	mov	r3, r5		(add r3, r5, #0)
    c9b0:	1c22      	mov	r2, r4		(add r2, r4, #0)
    c9b2:	ff89f002 	bl	f8c8 <____muldf3_from_thumb>
    c9b6:	1c0b      	mov	r3, r1		(add r3, r1, #0)
    c9b8:	1c02      	mov	r2, r0		(add r2, r0, #0)
    c9ba:	4884      	ldr	r0, [pc, #528]	(cbcc <.text+0xcbcc>)
    c9bc:	4984      	ldr	r1, [pc, #528]	(cbd0 <.text+0xcbd0>)
    c9be:	ff7ff002 	bl	f8c0 <____adddf3_from_thumb>
    c9c2:	1c2b      	mov	r3, r5		(add r3, r5, #0)
    c9c4:	1c22      	mov	r2, r4		(add r2, r4, #0)
    c9c6:	ff7ff002 	bl	f8c8 <____muldf3_from_thumb>
    c9ca:	1c0b      	mov	r3, r1		(add r3, r1, #0)
    c9cc:	1c02      	mov	r2, r0		(add r2, r0, #0)
    c9ce:	4881      	ldr	r0, [pc, #516]	(cbd4 <.text+0xcbd4>)
    c9d0:	4981      	ldr	r1, [pc, #516]	(cbd8 <.text+0xcbd8>)
    c9d2:	ff75f002 	bl	f8c0 <____adddf3_from_thumb>
    c9d6:	9a00      	ldr	r2, [sp, #0]
    c9d8:	9b01      	ldr	r3, [sp, #4]
    c9da:	ff75f002 	bl	f8c8 <____muldf3_from_thumb>
    c9de:	4a7f      	ldr	r2, [pc, #508]	(cbdc <.text+0xcbdc>)
    c9e0:	4b7f      	ldr	r3, [pc, #508]	(cbe0 <.text+0xcbe0>)
    c9e2:	9002      	str	r0, [sp, #8]
    c9e4:	9103      	str	r1, [sp, #12]
    c9e6:	1c29      	mov	r1, r5		(add r1, r5, #0)
    c9e8:	1c20      	mov	r0, r4		(add r0, r4, #0)
    c9ea:	ff6df002 	bl	f8c8 <____muldf3_from_thumb>
    c9ee:	1c0b      	mov	r3, r1		(add r3, r1, #0)
    c9f0:	1c02      	mov	r2, r0		(add r2, r0, #0)
    c9f2:	487c      	ldr	r0, [pc, #496]	(cbe4 <.text+0xcbe4>)
    c9f4:	497c      	ldr	r1, [pc, #496]	(cbe8 <.text+0xcbe8>)
    c9f6:	ff63f002 	bl	f8c0 <____adddf3_from_thumb>
    c9fa:	1c2b      	mov	r3, r5		(add r3, r5, #0)
    c9fc:	1c22      	mov	r2, r4		(add r2, r4, #0)
    c9fe:	ff63f002 	bl	f8c8 <____muldf3_from_thumb>
    ca02:	1c0b      	mov	r3, r1		(add r3, r1, #0)
    ca04:	1c02      	mov	r2, r0		(add r2, r0, #0)
    ca06:	4879      	ldr	r0, [pc, #484]	(cbec <.text+0xcbec>)
    ca08:	4979      	ldr	r1, [pc, #484]	(cbf0 <.text+0xcbf0>)
    ca0a:	ff59f002 	bl	f8c0 <____adddf3_from_thumb>
    ca0e:	1c2b      	mov	r3, r5		(add r3, r5, #0)
    ca10:	1c22      	mov	r2, r4		(add r2, r4, #0)
    ca12:	ff59f002 	bl	f8c8 <____muldf3_from_thumb>
    ca16:	1c0b      	mov	r3, r1		(add r3, r1, #0)
    ca18:	1c02      	mov	r2, r0		(add r2, r0, #0)
    ca1a:	4876      	ldr	r0, [pc, #472]	(cbf4 <.text+0xcbf4>)
    ca1c:	4976      	ldr	r1, [pc, #472]	(cbf8 <.text+0xcbf8>)
    ca1e:	ff4ff002 	bl	f8c0 <____adddf3_from_thumb>
    ca22:	1c2b      	mov	r3, r5		(add r3, r5, #0)
    ca24:	1c22      	mov	r2, r4		(add r2, r4, #0)
    ca26:	ff4ff002 	bl	f8c8 <____muldf3_from_thumb>
    ca2a:	1c0b      	mov	r3, r1		(add r3, r1, #0)
    ca2c:	1c02      	mov	r2, r0		(add r2, r0, #0)
    ca2e:	4873      	ldr	r0, [pc, #460]	(cbfc <.text+0xcbfc>)
    ca30:	4973      	ldr	r1, [pc, #460]	(cc00 <.text+0xcc00>)
    ca32:	ff45f002 	bl	f8c0 <____adddf3_from_thumb>
    ca36:	1c2b      	mov	r3, r5		(add r3, r5, #0)
    ca38:	1c22      	mov	r2, r4		(add r2, r4, #0)
    ca3a:	ff45f002 	bl	f8c8 <____muldf3_from_thumb>
    ca3e:	1c0b      	mov	r3, r1		(add r3, r1, #0)
    ca40:	1c02      	mov	r2, r0		(add r2, r0, #0)
    ca42:	4651      	mov	r1, sl
    ca44:	2900      	cmp	r1, #0
    ca46:	db62      	blt	cb0e <atan+0x20e>
    ca48:	4651      	mov	r1, sl
    ca4a:	00cc      	lsl	r4, r1, #3
    ca4c:	9802      	ldr	r0, [sp, #8]
    ca4e:	9903      	ldr	r1, [sp, #12]
    ca50:	ff36f002 	bl	f8c0 <____adddf3_from_thumb>
    ca54:	1c3b      	mov	r3, r7		(add r3, r7, #0)
    ca56:	1c32      	mov	r2, r6		(add r2, r6, #0)
    ca58:	ff36f002 	bl	f8c8 <____muldf3_from_thumb>
    ca5c:	4d69      	ldr	r5, [pc, #420]	(cc04 <.text+0xcc04>)
    ca5e:	4b6a      	ldr	r3, [pc, #424]	(cc08 <.text+0xcc08>)
    ca60:	1965      	add	r5, r4, r5
    ca62:	18e4      	add	r4, r4, r3
    ca64:	6822      	ldr	r2, [r4, #0]
    ca66:	6863      	ldr	r3, [r4, #4]
    ca68:	ff32f002 	bl	f8d0 <____subdf3_from_thumb>
    ca6c:	1c3b      	mov	r3, r7		(add r3, r7, #0)
    ca6e:	1c32      	mov	r2, r6		(add r2, r6, #0)
    ca70:	ff2ef002 	bl	f8d0 <____subdf3_from_thumb>
    ca74:	1c0b      	mov	r3, r1		(add r3, r1, #0)
    ca76:	1c02      	mov	r2, r0		(add r2, r0, #0)
    ca78:	6828      	ldr	r0, [r5, #0]
    ca7a:	6869      	ldr	r1, [r5, #4]
    ca7c:	ff28f002 	bl	f8d0 <____subdf3_from_thumb>
    ca80:	4643      	mov	r3, r8
    ca82:	1c0e      	mov	r6, r1		(add r6, r1, #0)
    ca84:	1c05      	mov	r5, r0		(add r5, r0, #0)
    ca86:	2b00      	cmp	r3, #0
    ca88:	db37      	blt	cafa <atan+0x1fa>
    ca8a:	1c31      	mov	r1, r6		(add r1, r6, #0)
    ca8c:	1c28      	mov	r0, r5		(add r0, r5, #0)
    ca8e:	e750      	b	c932 <atan+0x32>
    ca90:	4295      	cmp	r5, r2
    ca92:	d02f      	beq	caf4 <atan+0x1f4>
    ca94:	4641      	mov	r1, r8
    ca96:	2900      	cmp	r1, #0
    ca98:	dc00      	bgt	ca9c <atan+0x19c>
    ca9a:	e079      	b	cb90 <atan+0x290>
    ca9c:	485b      	ldr	r0, [pc, #364]	(cc0c <.text+0xcc0c>)
    ca9e:	495c      	ldr	r1, [pc, #368]	(cc10 <.text+0xcc10>)
    caa0:	e747      	b	c932 <atan+0x32>
    caa2:	4a5c      	ldr	r2, [pc, #368]	(cc14 <.text+0xcc14>)
    caa4:	4b5c      	ldr	r3, [pc, #368]	(cc18 <.text+0xcc18>)
    caa6:	ff0bf002 	bl	f8c0 <____adddf3_from_thumb>
    caaa:	4a5c      	ldr	r2, [pc, #368]	(cc1c <.text+0xcc1c>)
    caac:	4b5c      	ldr	r3, [pc, #368]	(cc20 <.text+0xcc20>)
    caae:	ff13f002 	bl	f8d8 <____gtdf2_from_thumb>
    cab2:	2800      	cmp	r0, #0
    cab4:	dc00      	bgt	cab8 <atan+0x1b8>
    cab6:	e74b      	b	c950 <atan+0x50>
    cab8:	1c39      	mov	r1, r7		(add r1, r7, #0)
    caba:	1c30      	mov	r0, r6		(add r0, r6, #0)
    cabc:	e739      	b	c932 <atan+0x32>
    cabe:	f925f000 	bl	cd0c <fabs>
    cac2:	4b58      	ldr	r3, [pc, #352]	(cc24 <.text+0xcc24>)
    cac4:	1c0f      	mov	r7, r1		(add r7, r1, #0)
    cac6:	1c06      	mov	r6, r0		(add r6, r0, #0)
    cac8:	429d      	cmp	r5, r3
    caca:	dc2f      	bgt	cb2c <atan+0x22c>
    cacc:	4b56      	ldr	r3, [pc, #344]	(cc28 <.text+0xcc28>)
    cace:	429d      	cmp	r5, r3
    cad0:	dc51      	bgt	cb76 <atan+0x276>
    cad2:	2300      	mov	r3, #0
    cad4:	469a      	mov	sl, r3
    cad6:	1c3b      	mov	r3, r7		(add r3, r7, #0)
    cad8:	1c32      	mov	r2, r6		(add r2, r6, #0)
    cada:	fef1f002 	bl	f8c0 <____adddf3_from_thumb>
    cade:	4a4f      	ldr	r2, [pc, #316]	(cc1c <.text+0xcc1c>)
    cae0:	4b4f      	ldr	r3, [pc, #316]	(cc20 <.text+0xcc20>)
    cae2:	fef5f002 	bl	f8d0 <____subdf3_from_thumb>
    cae6:	4a51      	ldr	r2, [pc, #324]	(cc2c <.text+0xcc2c>)
    cae8:	4b51      	ldr	r3, [pc, #324]	(cc30 <.text+0xcc30>)
    caea:	1c0d      	mov	r5, r1		(add r5, r1, #0)
    caec:	1c04      	mov	r4, r0		(add r4, r0, #0)
    caee:	1c39      	mov	r1, r7		(add r1, r7, #0)
    caf0:	1c30      	mov	r0, r6		(add r0, r6, #0)
    caf2:	e02e      	b	cb52 <atan+0x252>
    caf4:	2c00      	cmp	r4, #0
    caf6:	d0cd      	beq	ca94 <atan+0x194>
    caf8:	e715      	b	c926 <atan+0x26>
    cafa:	494e      	ldr	r1, [pc, #312]	(cc34 <.text+0xcc34>)
    cafc:	4a4e      	ldr	r2, [pc, #312]	(cc38 <.text+0xcc38>)
    cafe:	1c2b      	mov	r3, r5		(add r3, r5, #0)
    cb00:	404b      	eor	r3, r1
    cb02:	1c34      	mov	r4, r6		(add r4, r6, #0)
    cb04:	1c26      	mov	r6, r4		(add r6, r4, #0)
    cb06:	1c1d      	mov	r5, r3		(add r5, r3, #0)
    cb08:	1c31      	mov	r1, r6		(add r1, r6, #0)
    cb0a:	1c28      	mov	r0, r5		(add r0, r5, #0)
    cb0c:	e711      	b	c932 <atan+0x32>
    cb0e:	9802      	ldr	r0, [sp, #8]
    cb10:	9903      	ldr	r1, [sp, #12]
    cb12:	fed5f002 	bl	f8c0 <____adddf3_from_thumb>
    cb16:	1c3b      	mov	r3, r7		(add r3, r7, #0)
    cb18:	1c32      	mov	r2, r6		(add r2, r6, #0)
    cb1a:	fed5f002 	bl	f8c8 <____muldf3_from_thumb>
    cb1e:	1c0b      	mov	r3, r1		(add r3, r1, #0)
    cb20:	1c02      	mov	r2, r0		(add r2, r0, #0)
    cb22:	1c39      	mov	r1, r7		(add r1, r7, #0)
    cb24:	1c30      	mov	r0, r6		(add r0, r6, #0)
    cb26:	fed3f002 	bl	f8d0 <____subdf3_from_thumb>
    cb2a:	e702      	b	c932 <atan+0x32>
    cb2c:	4b43      	ldr	r3, [pc, #268]	(cc3c <.text+0xcc3c>)
    cb2e:	429d      	cmp	r5, r3
    cb30:	dc16      	bgt	cb60 <atan+0x260>
    cb32:	2302      	mov	r3, #2
    cb34:	469a      	mov	sl, r3
    cb36:	4a42      	ldr	r2, [pc, #264]	(cc40 <.text+0xcc40>)
    cb38:	4b42      	ldr	r3, [pc, #264]	(cc44 <.text+0xcc44>)
    cb3a:	fec9f002 	bl	f8d0 <____subdf3_from_thumb>
    cb3e:	4a40      	ldr	r2, [pc, #256]	(cc40 <.text+0xcc40>)
    cb40:	4b40      	ldr	r3, [pc, #256]	(cc44 <.text+0xcc44>)
    cb42:	1c0d      	mov	r5, r1		(add r5, r1, #0)
    cb44:	1c04      	mov	r4, r0		(add r4, r0, #0)
    cb46:	1c39      	mov	r1, r7		(add r1, r7, #0)
    cb48:	1c30      	mov	r0, r6		(add r0, r6, #0)
    cb4a:	febdf002 	bl	f8c8 <____muldf3_from_thumb>
    cb4e:	4a33      	ldr	r2, [pc, #204]	(cc1c <.text+0xcc1c>)
    cb50:	4b33      	ldr	r3, [pc, #204]	(cc20 <.text+0xcc20>)
    cb52:	feb5f002 	bl	f8c0 <____adddf3_from_thumb>
    cb56:	1c0b      	mov	r3, r1		(add r3, r1, #0)
    cb58:	1c02      	mov	r2, r0		(add r2, r0, #0)
    cb5a:	1c29      	mov	r1, r5		(add r1, r5, #0)
    cb5c:	1c20      	mov	r0, r4		(add r0, r4, #0)
    cb5e:	e005      	b	cb6c <atan+0x26c>
    cb60:	2103      	mov	r1, #3
    cb62:	468a      	mov	sl, r1
    cb64:	4838      	ldr	r0, [pc, #224]	(cc48 <.text+0xcc48>)
    cb66:	4939      	ldr	r1, [pc, #228]	(cc4c <.text+0xcc4c>)
    cb68:	1c3b      	mov	r3, r7		(add r3, r7, #0)
    cb6a:	1c32      	mov	r2, r6		(add r2, r6, #0)
    cb6c:	feb8f002 	bl	f8e0 <____divdf3_from_thumb>
    cb70:	1c0f      	mov	r7, r1		(add r7, r1, #0)
    cb72:	1c06      	mov	r6, r0		(add r6, r0, #0)
    cb74:	e6ef      	b	c956 <atan+0x56>
    cb76:	2101      	mov	r1, #1
    cb78:	468a      	mov	sl, r1
    cb7a:	4a28      	ldr	r2, [pc, #160]	(cc1c <.text+0xcc1c>)
    cb7c:	4b28      	ldr	r3, [pc, #160]	(cc20 <.text+0xcc20>)
    cb7e:	1c39      	mov	r1, r7		(add r1, r7, #0)
    cb80:	1c30      	mov	r0, r6		(add r0, r6, #0)
    cb82:	fea5f002 	bl	f8d0 <____subdf3_from_thumb>
    cb86:	1c0d      	mov	r5, r1		(add r5, r1, #0)
    cb88:	1c04      	mov	r4, r0		(add r4, r0, #0)
    cb8a:	1c39      	mov	r1, r7		(add r1, r7, #0)
    cb8c:	1c30      	mov	r0, r6		(add r0, r6, #0)
    cb8e:	e7de      	b	cb4e <atan+0x24e>
    cb90:	482f      	ldr	r0, [pc, #188]	(cc50 <.text+0xcc50>)
    cb92:	4930      	ldr	r1, [pc, #192]	(cc54 <.text+0xcc54>)
    cb94:	e6cd      	b	c932 <atan+0x32>
    cb96:	0000      	lsl	r0, r0, #0
    cb98:	ffff      	second half of BL instruction 0xffff
    cb9a:	7fff      	ldrb	r7, [r7, #31]
    cb9c:	ffff      	second half of BL instruction 0xffff
    cb9e:	440f      	add	r7, r1
    cba0:	0000      	lsl	r0, r0, #0
    cba2:	7ff0      	ldrb	r0, [r6, #31]
    cba4:	ffff      	second half of BL instruction 0xffff
    cba6:	3fdb      	sub	r7, #219
    cba8:	ffff      	second half of BL instruction 0xffff
    cbaa:	3e1f      	sub	r6, #31
    cbac:	ad3a      	add	r5, sp, #232
    cbae:	3f90      	sub	r7, #144
    cbb0:	da11      	bge	cbd6 <.text+0xcbd6>
    cbb2:	e322      	b	d1fa <__ieee754_rem_pio2+0x62>
    cbb4:	7b4b      	ldrb	r3, [r1, #13]
    cbb6:	3fa9      	sub	r7, #169
    cbb8:	0deb      	lsr	r3, r5, #23
    cbba:	2476      	mov	r4, #118
    cbbc:	0d66      	lsr	r6, r4, #21
    cbbe:	3fb1      	sub	r7, #177
    cbc0:	3d51      	sub	r5, #81
    cbc2:	a0d0      	add	r0, pc, #832	(adr r0,cf04 <sqrt+0x50>)
    cbc4:	45cd      	cmp	sp, r9
    cbc6:	3fb7      	sub	r7, #183
    cbc8:	206e      	mov	r0, #110
    cbca:	c54c      	stmia	r5!,{r2, r3, r6}
    cbcc:	4924      	ldr	r1, [pc, #144]	(cc60 <cos+0x8>)
    cbce:	3fc2      	sub	r7, #194
    cbd0:	83ff      	strh	r7, [r7, #30]
    cbd2:	9200      	str	r2, [sp, #0]
    cbd4:	5555      	strb	r5, [r2, r5]
    cbd6:	3fd5      	sub	r7, #213
    cbd8:	550d      	strb	r5, [r1, r4]
    cbda:	5555      	strb	r5, [r2, r5]
    cbdc:	b444      	push	{r2, r6}
    cbde:	bfa2      	undefined instruction 0xbfa2
    cbe0:	6c2f      	ldr	r7, [r5, #64]
    cbe2:	2c6a      	cmp	r4, #106
    cbe4:	de2d      	bal	cc42 <.text+0xcc42>
    cbe6:	bfad      	undefined instruction 0xbfad
    cbe8:	fd9a      	second half of BL instruction 0xfd9a
    cbea:	52de      	strh	r6, [r3, r3]
    cbec:	b0f2      	sub	sp, #456
    cbee:	bfb3      	undefined instruction 0xbfb3
    cbf0:	9a6d      	ldr	r2, [sp, #436]
    cbf2:	af74      	add	r7, sp, #464
    cbf4:	71c6      	strb	r6, [r0, #7]
    cbf6:	bfbc      	undefined instruction 0xbfbc
    cbf8:	1671      	asr	r1, r6, #25
    cbfa:	fe23      	second half of BL instruction 0xfe23
    cbfc:	9999      	ldr	r1, [sp, #612]
    cbfe:	bfc9      	undefined instruction 0xbfc9
    cc00:	ebc4      	undefined
    cc02:	9998      	ldr	r1, [sp, #608]
    cc04:	f994      	second half of BL instruction 0xf994
    cc06:	0000      	lsl	r0, r0, #0
    cc08:	f974      	second half of BL instruction 0xf974
    cc0a:	0000      	lsl	r0, r0, #0
    cc0c:	21fb      	mov	r1, #251
    cc0e:	3ff9      	sub	r7, #249
    cc10:	2d18      	cmp	r5, #24
    cc12:	5444      	strb	r4, [r0, r1]
    cc14:	e43c      	b	c490 <.text+0xc490>
    cc16:	7e37      	ldrb	r7, [r6, #24]
    cc18:	759c      	strb	r4, [r3, #22]
    cc1a:	8800      	ldrh	r0, [r0, #0]
    cc1c:	0000      	lsl	r0, r0, #0
    cc1e:	3ff0      	sub	r7, #240
    cc20:	0000      	lsl	r0, r0, #0
    cc22:	0000      	lsl	r0, r0, #0
    cc24:	ffff      	second half of BL instruction 0xffff
    cc26:	3ff2      	sub	r7, #242
    cc28:	ffff      	second half of BL instruction 0xffff
    cc2a:	3fe5      	sub	r7, #229
    cc2c:	0000      	lsl	r0, r0, #0
    cc2e:	4000      	and	r0, r0
    cc30:	0000      	lsl	r0, r0, #0
    cc32:	0000      	lsl	r0, r0, #0
    cc34:	0000      	lsl	r0, r0, #0
    cc36:	8000      	strh	r0, [r0, #0]
    cc38:	0000      	lsl	r0, r0, #0
    cc3a:	0000      	lsl	r0, r0, #0
    cc3c:	7fff      	ldrb	r7, [r7, #31]
    cc3e:	4003      	and	r3, r0
    cc40:	0000      	lsl	r0, r0, #0
    cc42:	3ff8      	sub	r7, #248
    cc44:	0000      	lsl	r0, r0, #0
    cc46:	0000      	lsl	r0, r0, #0
    cc48:	0000      	lsl	r0, r0, #0
    cc4a:	bff0      	undefined instruction 0xbff0
    cc4c:	0000      	lsl	r0, r0, #0
    cc4e:	0000      	lsl	r0, r0, #0
    cc50:	21fb      	mov	r1, #251
    cc52:	bff9      	undefined instruction 0xbff9
    cc54:	2d18      	cmp	r5, #24
    cc56:	5444      	strb	r4, [r0, r1]

0000cc58 <cos>:
    cc58:	b570      	push	{r4, r5, r6, lr}
    cc5a:	4a25      	ldr	r2, [pc, #148]	(ccf0 <.text+0xccf0>)
    cc5c:	4b25      	ldr	r3, [pc, #148]	(ccf4 <.text+0xccf4>)
    cc5e:	4002      	and	r2, r0
    cc60:	b085      	sub	sp, #20
    cc62:	1c0e      	mov	r6, r1		(add r6, r1, #0)
    cc64:	1c05      	mov	r5, r0		(add r5, r0, #0)
    cc66:	429a      	cmp	r2, r3
    cc68:	dd1e      	ble	cca8 <cos+0x50>
    cc6a:	4b23      	ldr	r3, [pc, #140]	(ccf8 <.text+0xccf8>)
    cc6c:	429a      	cmp	r2, r3
    cc6e:	dd07      	ble	cc80 <cos+0x28>
    cc70:	1c33      	mov	r3, r6		(add r3, r6, #0)
    cc72:	1c2a      	mov	r2, r5		(add r2, r5, #0)
    cc74:	fe2cf002 	bl	f8d0 <____subdf3_from_thumb>
    cc78:	b005      	add	sp, #20
    cc7a:	bc70      	pop	{r4, r5, r6}
    cc7c:	bc04      	pop	{r2}
    cc7e:	4710      	bx	r2
    cc80:	aa01      	add	r2, sp, #4
    cc82:	fa89f000 	bl	d198 <__ieee754_rem_pio2>
    cc86:	2303      	mov	r3, #3
    cc88:	4003      	and	r3, r0
    cc8a:	2b01      	cmp	r3, #1
    cc8c:	d011      	beq	ccb2 <cos+0x5a>
    cc8e:	2b01      	cmp	r3, #1
    cc90:	dd1e      	ble	ccd0 <cos+0x78>
    cc92:	2b02      	cmp	r3, #2
    cc94:	d025      	beq	cce2 <cos+0x8a>
    cc96:	2301      	mov	r3, #1
    cc98:	9300      	str	r3, [sp, #0]
    cc9a:	9801      	ldr	r0, [sp, #4]
    cc9c:	9902      	ldr	r1, [sp, #8]
    cc9e:	9a03      	ldr	r2, [sp, #12]
    cca0:	9b04      	ldr	r3, [sp, #16]
    cca2:	faa5f001 	bl	e1f0 <__kernel_sin>
    cca6:	e7e7      	b	cc78 <cos+0x20>
    cca8:	4a14      	ldr	r2, [pc, #80]	(ccfc <.text+0xccfc>)
    ccaa:	4b15      	ldr	r3, [pc, #84]	(cd00 <.text+0xcd00>)
    ccac:	fdb6f000 	bl	d81c <__kernel_cos>
    ccb0:	e7e2      	b	cc78 <cos+0x20>
    ccb2:	9300      	str	r3, [sp, #0]
    ccb4:	9801      	ldr	r0, [sp, #4]
    ccb6:	9902      	ldr	r1, [sp, #8]
    ccb8:	9a03      	ldr	r2, [sp, #12]
    ccba:	9b04      	ldr	r3, [sp, #16]
    ccbc:	fa98f001 	bl	e1f0 <__kernel_sin>
    ccc0:	4d10      	ldr	r5, [pc, #64]	(cd04 <.text+0xcd04>)
    ccc2:	4e11      	ldr	r6, [pc, #68]	(cd08 <.text+0xcd08>)
    ccc4:	1c03      	mov	r3, r0		(add r3, r0, #0)
    ccc6:	406b      	eor	r3, r5
    ccc8:	1c0c      	mov	r4, r1		(add r4, r1, #0)
    ccca:	1c21      	mov	r1, r4		(add r1, r4, #0)
    cccc:	1c18      	mov	r0, r3		(add r0, r3, #0)
    ccce:	e7d3      	b	cc78 <cos+0x20>
    ccd0:	2b00      	cmp	r3, #0
    ccd2:	d1e0      	bne	cc96 <cos+0x3e>
    ccd4:	9801      	ldr	r0, [sp, #4]
    ccd6:	9902      	ldr	r1, [sp, #8]
    ccd8:	9a03      	ldr	r2, [sp, #12]
    ccda:	9b04      	ldr	r3, [sp, #16]
    ccdc:	fd9ef000 	bl	d81c <__kernel_cos>
    cce0:	e7ca      	b	cc78 <cos+0x20>
    cce2:	9801      	ldr	r0, [sp, #4]
    cce4:	9902      	ldr	r1, [sp, #8]
    cce6:	9a03      	ldr	r2, [sp, #12]
    cce8:	9b04      	ldr	r3, [sp, #16]
    ccea:	fd97f000 	bl	d81c <__kernel_cos>
    ccee:	e7e7      	b	ccc0 <cos+0x68>
    ccf0:	ffff      	second half of BL instruction 0xffff
    ccf2:	7fff      	ldrb	r7, [r7, #31]
    ccf4:	21fb      	mov	r1, #251
    ccf6:	3fe9      	sub	r7, #233
    ccf8:	ffff      	second half of BL instruction 0xffff
    ccfa:	7fef      	ldrb	r7, [r5, #31]
	...
    cd04:	0000      	lsl	r0, r0, #0
    cd06:	8000      	strh	r0, [r0, #0]
    cd08:	0000      	lsl	r0, r0, #0
	...

0000cd0c <fabs>:
    cd0c:	b510      	push	{r4, lr}
    cd0e:	1c0c      	mov	r4, r1		(add r4, r1, #0)
    cd10:	1c03      	mov	r3, r0		(add r3, r0, #0)
    cd12:	1c0a      	mov	r2, r1		(add r2, r1, #0)
    cd14:	1c01      	mov	r1, r0		(add r1, r0, #0)
    cd16:	4804      	ldr	r0, [pc, #16]	(cd28 <.text+0xcd28>)
    cd18:	1c01      	mov	r1, r0		(add r1, r0, #0)
    cd1a:	4019      	and	r1, r3
    cd1c:	1c08      	mov	r0, r1		(add r0, r1, #0)
    cd1e:	1c11      	mov	r1, r2		(add r1, r2, #0)
    cd20:	bc10      	pop	{r4}
    cd22:	bc04      	pop	{r2}
    cd24:	4710      	bx	r2
    cd26:	0000      	lsl	r0, r0, #0
    cd28:	ffff      	second half of BL instruction 0xffff
    cd2a:	7fff      	ldrb	r7, [r7, #31]

0000cd2c <sin>:
    cd2c:	b570      	push	{r4, r5, r6, lr}
    cd2e:	4a27      	ldr	r2, [pc, #156]	(cdcc <.text+0xcdcc>)
    cd30:	4b27      	ldr	r3, [pc, #156]	(cdd0 <.text+0xcdd0>)
    cd32:	4002      	and	r2, r0
    cd34:	b085      	sub	sp, #20
    cd36:	1c0e      	mov	r6, r1		(add r6, r1, #0)
    cd38:	1c05      	mov	r5, r0		(add r5, r0, #0)
    cd3a:	429a      	cmp	r2, r3
    cd3c:	dd23      	ble	cd86 <sin+0x5a>
    cd3e:	4b25      	ldr	r3, [pc, #148]	(cdd4 <.text+0xcdd4>)
    cd40:	429a      	cmp	r2, r3
    cd42:	dd07      	ble	cd54 <sin+0x28>
    cd44:	1c33      	mov	r3, r6		(add r3, r6, #0)
    cd46:	1c2a      	mov	r2, r5		(add r2, r5, #0)
    cd48:	fdc2f002 	bl	f8d0 <____subdf3_from_thumb>
    cd4c:	b005      	add	sp, #20
    cd4e:	bc70      	pop	{r4, r5, r6}
    cd50:	bc04      	pop	{r2}
    cd52:	4710      	bx	r2
    cd54:	aa01      	add	r2, sp, #4
    cd56:	fa1ff000 	bl	d198 <__ieee754_rem_pio2>
    cd5a:	2303      	mov	r3, #3
    cd5c:	4003      	and	r3, r0
    cd5e:	2b01      	cmp	r3, #1
    cd60:	d018      	beq	cd94 <sin+0x68>
    cd62:	2b01      	cmp	r3, #1
    cd64:	dd1d      	ble	cda2 <sin+0x76>
    cd66:	2b02      	cmp	r3, #2
    cd68:	d026      	beq	cdb8 <sin+0x8c>
    cd6a:	9801      	ldr	r0, [sp, #4]
    cd6c:	9902      	ldr	r1, [sp, #8]
    cd6e:	9a03      	ldr	r2, [sp, #12]
    cd70:	9b04      	ldr	r3, [sp, #16]
    cd72:	fd53f000 	bl	d81c <__kernel_cos>
    cd76:	4d18      	ldr	r5, [pc, #96]	(cdd8 <.text+0xcdd8>)
    cd78:	4e18      	ldr	r6, [pc, #96]	(cddc <.text+0xcddc>)
    cd7a:	1c03      	mov	r3, r0		(add r3, r0, #0)
    cd7c:	406b      	eor	r3, r5
    cd7e:	1c0c      	mov	r4, r1		(add r4, r1, #0)
    cd80:	1c21      	mov	r1, r4		(add r1, r4, #0)
    cd82:	1c18      	mov	r0, r3		(add r0, r3, #0)
    cd84:	e7e2      	b	cd4c <sin+0x20>
    cd86:	2300      	mov	r3, #0
    cd88:	9300      	str	r3, [sp, #0]
    cd8a:	4a15      	ldr	r2, [pc, #84]	(cde0 <.text+0xcde0>)
    cd8c:	4b15      	ldr	r3, [pc, #84]	(cde4 <.text+0xcde4>)
    cd8e:	fa2ff001 	bl	e1f0 <__kernel_sin>
    cd92:	e7db      	b	cd4c <sin+0x20>
    cd94:	9801      	ldr	r0, [sp, #4]
    cd96:	9902      	ldr	r1, [sp, #8]
    cd98:	9a03      	ldr	r2, [sp, #12]
    cd9a:	9b04      	ldr	r3, [sp, #16]
    cd9c:	fd3ef000 	bl	d81c <__kernel_cos>
    cda0:	e7d4      	b	cd4c <sin+0x20>
    cda2:	2b00      	cmp	r3, #0
    cda4:	d1e1      	bne	cd6a <sin+0x3e>
    cda6:	2301      	mov	r3, #1
    cda8:	9300      	str	r3, [sp, #0]
    cdaa:	9801      	ldr	r0, [sp, #4]
    cdac:	9902      	ldr	r1, [sp, #8]
    cdae:	9a03      	ldr	r2, [sp, #12]
    cdb0:	9b04      	ldr	r3, [sp, #16]
    cdb2:	fa1df001 	bl	e1f0 <__kernel_sin>
    cdb6:	e7c9      	b	cd4c <sin+0x20>
    cdb8:	2301      	mov	r3, #1
    cdba:	9300      	str	r3, [sp, #0]
    cdbc:	9801      	ldr	r0, [sp, #4]
    cdbe:	9902      	ldr	r1, [sp, #8]
    cdc0:	9a03      	ldr	r2, [sp, #12]
    cdc2:	9b04      	ldr	r3, [sp, #16]
    cdc4:	fa14f001 	bl	e1f0 <__kernel_sin>
    cdc8:	e7d5      	b	cd76 <sin+0x4a>
    cdca:	0000      	lsl	r0, r0, #0
    cdcc:	ffff      	second half of BL instruction 0xffff
    cdce:	7fff      	ldrb	r7, [r7, #31]
    cdd0:	21fb      	mov	r1, #251
    cdd2:	3fe9      	sub	r7, #233
    cdd4:	ffff      	second half of BL instruction 0xffff
    cdd6:	7fef      	ldrb	r7, [r5, #31]
    cdd8:	0000      	lsl	r0, r0, #0
    cdda:	8000      	strh	r0, [r0, #0]
	...

0000cde8 <atan2>:
    cde8:	b5f0      	push	{r4, r5, r6, r7, lr}
    cdea:	4657      	mov	r7, sl
    cdec:	4646      	mov	r6, r8
    cdee:	b4c0      	push	{r6, r7}
    cdf0:	b08b      	sub	sp, #44
    cdf2:	1c1d      	mov	r5, r3		(add r5, r3, #0)
    cdf4:	1c14      	mov	r4, r2		(add r4, r2, #0)
    cdf6:	1c0f      	mov	r7, r1		(add r7, r1, #0)
    cdf8:	1c06      	mov	r6, r0		(add r6, r0, #0)
    cdfa:	f8bff000 	bl	cf7c <__ieee754_atan2>
    cdfe:	4b29      	ldr	r3, [pc, #164]	(cea4 <.text+0xcea4>)
    ce00:	681b      	ldr	r3, [r3, #0]
    ce02:	9000      	str	r0, [sp, #0]
    ce04:	9101      	str	r1, [sp, #4]
    ce06:	4698      	mov	r8, r3
    ce08:	3301      	add	r3, #1
    ce0a:	d005      	beq	ce18 <atan2+0x30>
    ce0c:	1c29      	mov	r1, r5		(add r1, r5, #0)
    ce0e:	1c20      	mov	r0, r4		(add r0, r4, #0)
    ce10:	fb3ef001 	bl	e490 <isnan>
    ce14:	2800      	cmp	r0, #0
    ce16:	d008      	beq	ce2a <atan2+0x42>
    ce18:	9800      	ldr	r0, [sp, #0]
    ce1a:	9901      	ldr	r1, [sp, #4]
    ce1c:	b00b      	add	sp, #44
    ce1e:	bc18      	pop	{r3, r4}
    ce20:	4698      	mov	r8, r3
    ce22:	46a2      	mov	sl, r4
    ce24:	bcf0      	pop	{r4, r5, r6, r7}
    ce26:	bc04      	pop	{r2}
    ce28:	4710      	bx	r2
    ce2a:	1c39      	mov	r1, r7		(add r1, r7, #0)
    ce2c:	1c30      	mov	r0, r6		(add r0, r6, #0)
    ce2e:	fb2ff001 	bl	e490 <isnan>
    ce32:	2800      	cmp	r0, #0
    ce34:	4682      	mov	sl, r0
    ce36:	d1ef      	bne	ce18 <atan2+0x30>
    ce38:	1c29      	mov	r1, r5		(add r1, r5, #0)
    ce3a:	1c20      	mov	r0, r4		(add r0, r4, #0)
    ce3c:	4a1a      	ldr	r2, [pc, #104]	(cea8 <.text+0xcea8>)
    ce3e:	4b1b      	ldr	r3, [pc, #108]	(ceac <.text+0xceac>)
    ce40:	fd52f002 	bl	f8e8 <____eqdf2_from_thumb>
    ce44:	2800      	cmp	r0, #0
    ce46:	d1e7      	bne	ce18 <atan2+0x30>
    ce48:	1c39      	mov	r1, r7		(add r1, r7, #0)
    ce4a:	1c30      	mov	r0, r6		(add r0, r6, #0)
    ce4c:	4a16      	ldr	r2, [pc, #88]	(cea8 <.text+0xcea8>)
    ce4e:	4b17      	ldr	r3, [pc, #92]	(ceac <.text+0xceac>)
    ce50:	fd4af002 	bl	f8e8 <____eqdf2_from_thumb>
    ce54:	2800      	cmp	r0, #0
    ce56:	d1df      	bne	ce18 <atan2+0x30>
    ce58:	2301      	mov	r3, #1
    ce5a:	9302      	str	r3, [sp, #8]
    ce5c:	4b14      	ldr	r3, [pc, #80]	(ceb0 <.text+0xceb0>)
    ce5e:	9406      	str	r4, [sp, #24]
    ce60:	9507      	str	r5, [sp, #28]
    ce62:	4654      	mov	r4, sl
    ce64:	9303      	str	r3, [sp, #12]
    ce66:	940a      	str	r4, [sp, #40]
    ce68:	4b0f      	ldr	r3, [pc, #60]	(cea8 <.text+0xcea8>)
    ce6a:	4c10      	ldr	r4, [pc, #64]	(ceac <.text+0xceac>)
    ce6c:	9308      	str	r3, [sp, #32]
    ce6e:	9409      	str	r4, [sp, #36]
    ce70:	4644      	mov	r4, r8
    ce72:	9604      	str	r6, [sp, #16]
    ce74:	9705      	str	r7, [sp, #20]
    ce76:	2c02      	cmp	r4, #2
    ce78:	d00a      	beq	ce90 <atan2+0xa8>
    ce7a:	a802      	add	r0, sp, #8
    ce7c:	fb1cf001 	bl	e4b8 <matherr>
    ce80:	2800      	cmp	r0, #0
    ce82:	d005      	beq	ce90 <atan2+0xa8>
    ce84:	9b0a      	ldr	r3, [sp, #40]
    ce86:	2b00      	cmp	r3, #0
    ce88:	d107      	bne	ce9a <atan2+0xb2>
    ce8a:	9808      	ldr	r0, [sp, #32]
    ce8c:	9909      	ldr	r1, [sp, #36]
    ce8e:	e7c5      	b	ce1c <atan2+0x34>
    ce90:	fbb2f001 	bl	e5f8 <__errno>
    ce94:	2321      	mov	r3, #33
    ce96:	6003      	str	r3, [r0, #0]
    ce98:	e7f4      	b	ce84 <atan2+0x9c>
    ce9a:	fbadf001 	bl	e5f8 <__errno>
    ce9e:	9b0a      	ldr	r3, [sp, #40]
    cea0:	6003      	str	r3, [r0, #0]
    cea2:	e7f2      	b	ce8a <atan2+0xa2>
    cea4:	fb8c      	second half of BL instruction 0xfb8c
	...
    ceae:	0000      	lsl	r0, r0, #0
    ceb0:	fb94      	second half of BL instruction 0xfb94
	...

0000ceb4 <sqrt>:
    ceb4:	b5f0      	push	{r4, r5, r6, r7, lr}
    ceb6:	4657      	mov	r7, sl
    ceb8:	4646      	mov	r6, r8
    ceba:	b4c0      	push	{r6, r7}
    cebc:	b089      	sub	sp, #36
    cebe:	1c0d      	mov	r5, r1		(add r5, r1, #0)
    cec0:	1c04      	mov	r4, r0		(add r4, r0, #0)
    cec2:	fbb9f000 	bl	d638 <__ieee754_sqrt>
    cec6:	4b29      	ldr	r3, [pc, #164]	(cf6c <.text+0xcf6c>)
    cec8:	681b      	ldr	r3, [r3, #0]
    ceca:	1c0f      	mov	r7, r1		(add r7, r1, #0)
    cecc:	1c06      	mov	r6, r0		(add r6, r0, #0)
    cece:	4698      	mov	r8, r3
    ced0:	3301      	add	r3, #1
    ced2:	d006      	beq	cee2 <sqrt+0x2e>
    ced4:	1c29      	mov	r1, r5		(add r1, r5, #0)
    ced6:	1c20      	mov	r0, r4		(add r0, r4, #0)
    ced8:	fadaf001 	bl	e490 <isnan>
    cedc:	2800      	cmp	r0, #0
    cede:	4682      	mov	sl, r0
    cee0:	d008      	beq	cef4 <sqrt+0x40>
    cee2:	1c39      	mov	r1, r7		(add r1, r7, #0)
    cee4:	1c30      	mov	r0, r6		(add r0, r6, #0)
    cee6:	b009      	add	sp, #36
    cee8:	bc18      	pop	{r3, r4}
    ceea:	4698      	mov	r8, r3
    ceec:	46a2      	mov	sl, r4
    ceee:	bcf0      	pop	{r4, r5, r6, r7}
    cef0:	bc04      	pop	{r2}
    cef2:	4710      	bx	r2
    cef4:	1c29      	mov	r1, r5		(add r1, r5, #0)
    cef6:	1c20      	mov	r0, r4		(add r0, r4, #0)
    cef8:	4a1d      	ldr	r2, [pc, #116]	(cf70 <.text+0xcf70>)
    cefa:	4b1e      	ldr	r3, [pc, #120]	(cf74 <.text+0xcf74>)
    cefc:	fcf8f002 	bl	f8f0 <____ltdf2_from_thumb>
    cf00:	2800      	cmp	r0, #0
    cf02:	daee      	bge	cee2 <sqrt+0x2e>
    cf04:	2301      	mov	r3, #1
    cf06:	9300      	str	r3, [sp, #0]
    cf08:	4b1b      	ldr	r3, [pc, #108]	(cf78 <.text+0xcf78>)
    cf0a:	9404      	str	r4, [sp, #16]
    cf0c:	9505      	str	r5, [sp, #20]
    cf0e:	9301      	str	r3, [sp, #4]
    cf10:	9402      	str	r4, [sp, #8]
    cf12:	9503      	str	r5, [sp, #12]
    cf14:	4653      	mov	r3, sl
    cf16:	4644      	mov	r4, r8
    cf18:	9308      	str	r3, [sp, #32]
    cf1a:	2c00      	cmp	r4, #0
    cf1c:	d016      	beq	cf4c <sqrt+0x98>
    cf1e:	4814      	ldr	r0, [pc, #80]	(cf70 <.text+0xcf70>)
    cf20:	4914      	ldr	r1, [pc, #80]	(cf74 <.text+0xcf74>)
    cf22:	1c0b      	mov	r3, r1		(add r3, r1, #0)
    cf24:	1c02      	mov	r2, r0		(add r2, r0, #0)
    cf26:	fcdbf002 	bl	f8e0 <____divdf3_from_thumb>
    cf2a:	9006      	str	r0, [sp, #24]
    cf2c:	9107      	str	r1, [sp, #28]
    cf2e:	4b0f      	ldr	r3, [pc, #60]	(cf6c <.text+0xcf6c>)
    cf30:	681b      	ldr	r3, [r3, #0]
    cf32:	2b02      	cmp	r3, #2
    cf34:	d00f      	beq	cf56 <sqrt+0xa2>
    cf36:	4668      	mov	r0, sp
    cf38:	fabef001 	bl	e4b8 <matherr>
    cf3c:	2800      	cmp	r0, #0
    cf3e:	d00a      	beq	cf56 <sqrt+0xa2>
    cf40:	9b08      	ldr	r3, [sp, #32]
    cf42:	2b00      	cmp	r3, #0
    cf44:	d10c      	bne	cf60 <sqrt+0xac>
    cf46:	9806      	ldr	r0, [sp, #24]
    cf48:	9907      	ldr	r1, [sp, #28]
    cf4a:	e7cc      	b	cee6 <sqrt+0x32>
    cf4c:	4b08      	ldr	r3, [pc, #32]	(cf70 <.text+0xcf70>)
    cf4e:	4c09      	ldr	r4, [pc, #36]	(cf74 <.text+0xcf74>)
    cf50:	9306      	str	r3, [sp, #24]
    cf52:	9407      	str	r4, [sp, #28]
    cf54:	e7eb      	b	cf2e <sqrt+0x7a>
    cf56:	fb4ff001 	bl	e5f8 <__errno>
    cf5a:	2321      	mov	r3, #33
    cf5c:	6003      	str	r3, [r0, #0]
    cf5e:	e7ef      	b	cf40 <sqrt+0x8c>
    cf60:	fb4af001 	bl	e5f8 <__errno>
    cf64:	9b08      	ldr	r3, [sp, #32]
    cf66:	6003      	str	r3, [r0, #0]
    cf68:	e7ed      	b	cf46 <sqrt+0x92>
    cf6a:	0000      	lsl	r0, r0, #0
    cf6c:	fb8c      	second half of BL instruction 0xfb8c
	...
    cf76:	0000      	lsl	r0, r0, #0
    cf78:	fb9c      	second half of BL instruction 0xfb9c
	...

0000cf7c <__ieee754_atan2>:
    cf7c:	b5f0      	push	{r4, r5, r6, r7, lr}
    cf7e:	4657      	mov	r7, sl
    cf80:	4646      	mov	r6, r8
    cf82:	b4c0      	push	{r6, r7}
    cf84:	1c1e      	mov	r6, r3		(add r6, r3, #0)
    cf86:	1c15      	mov	r5, r2		(add r5, r2, #0)
    cf88:	1c1c      	mov	r4, r3		(add r4, r3, #0)
    cf8a:	1c13      	mov	r3, r2		(add r3, r2, #0)
    cf8c:	4a69      	ldr	r2, [pc, #420]	(d134 <.text+0xd134>)
    cf8e:	b082      	sub	sp, #8
    cf90:	9000      	str	r0, [sp, #0]
    cf92:	9101      	str	r1, [sp, #4]
    cf94:	4698      	mov	r8, r3
    cf96:	4013      	and	r3, r2
    cf98:	1c21      	mov	r1, r4		(add r1, r4, #0)
    cf9a:	469c      	mov	ip, r3
    cf9c:	9b00      	ldr	r3, [sp, #0]
    cf9e:	9c01      	ldr	r4, [sp, #4]
    cfa0:	1c1f      	mov	r7, r3		(add r7, r3, #0)
    cfa2:	1c20      	mov	r0, r4		(add r0, r4, #0)
    cfa4:	1c1c      	mov	r4, r3		(add r4, r3, #0)
    cfa6:	424b      	neg	r3, r1
    cfa8:	430b      	orr	r3, r1
    cfaa:	4014      	and	r4, r2
    cfac:	0fdb      	lsr	r3, r3, #31
    cfae:	4662      	mov	r2, ip
    cfb0:	4313      	orr	r3, r2
    cfb2:	4a61      	ldr	r2, [pc, #388]	(d138 <.text+0xd138>)
    cfb4:	4293      	cmp	r3, r2
    cfb6:	d805      	bhi	cfc4 <__ieee754_atan2+0x48>
    cfb8:	4243      	neg	r3, r0
    cfba:	4303      	orr	r3, r0
    cfbc:	0fdb      	lsr	r3, r3, #31
    cfbe:	4323      	orr	r3, r4
    cfc0:	4293      	cmp	r3, r2
    cfc2:	d90c      	bls	cfde <__ieee754_atan2+0x62>
    cfc4:	1c31      	mov	r1, r6		(add r1, r6, #0)
    cfc6:	1c28      	mov	r0, r5		(add r0, r5, #0)
    cfc8:	9a00      	ldr	r2, [sp, #0]
    cfca:	9b01      	ldr	r3, [sp, #4]
    cfcc:	fc78f002 	bl	f8c0 <____adddf3_from_thumb>
    cfd0:	b002      	add	sp, #8
    cfd2:	bc18      	pop	{r3, r4}
    cfd4:	4698      	mov	r8, r3
    cfd6:	46a2      	mov	sl, r4
    cfd8:	bcf0      	pop	{r4, r5, r6, r7}
    cfda:	bc04      	pop	{r2}
    cfdc:	4710      	bx	r2
    cfde:	4b57      	ldr	r3, [pc, #348]	(d13c <.text+0xd13c>)
    cfe0:	4443      	add	r3, r8
    cfe2:	430b      	orr	r3, r1
    cfe4:	d014      	beq	d010 <__ieee754_atan2+0x94>
    cfe6:	0ffb      	lsr	r3, r7, #31
    cfe8:	4642      	mov	r2, r8
    cfea:	469a      	mov	sl, r3
    cfec:	1793      	asr	r3, r2, #30
    cfee:	2202      	mov	r2, #2
    cff0:	4013      	and	r3, r2
    cff2:	4652      	mov	r2, sl
    cff4:	431a      	orr	r2, r3
    cff6:	4692      	mov	sl, r2
    cff8:	4320      	orr	r0, r4
    cffa:	d10e      	bne	d01a <__ieee754_atan2+0x9e>
    cffc:	2a02      	cmp	r2, #2
    cffe:	d100      	bne	d002 <__ieee754_atan2+0x86>
    d000:	e085      	b	d10e <__ieee754_atan2+0x192>
    d002:	2a02      	cmp	r2, #2
    d004:	dc2f      	bgt	d066 <__ieee754_atan2+0xea>
    d006:	2a00      	cmp	r2, #0
    d008:	db07      	blt	d01a <__ieee754_atan2+0x9e>
    d00a:	9800      	ldr	r0, [sp, #0]
    d00c:	9901      	ldr	r1, [sp, #4]
    d00e:	e7df      	b	cfd0 <__ieee754_atan2+0x54>
    d010:	9800      	ldr	r0, [sp, #0]
    d012:	9901      	ldr	r1, [sp, #4]
    d014:	fc74f7ff 	bl	c900 <atan>
    d018:	e7da      	b	cfd0 <__ieee754_atan2+0x54>
    d01a:	4662      	mov	r2, ip
    d01c:	430a      	orr	r2, r1
    d01e:	d01d      	beq	d05c <__ieee754_atan2+0xe0>
    d020:	4b45      	ldr	r3, [pc, #276]	(d138 <.text+0xd138>)
    d022:	459c      	cmp	ip, r3
    d024:	d024      	beq	d070 <__ieee754_atan2+0xf4>
    d026:	4b44      	ldr	r3, [pc, #272]	(d138 <.text+0xd138>)
    d028:	429c      	cmp	r4, r3
    d02a:	d017      	beq	d05c <__ieee754_atan2+0xe0>
    d02c:	4662      	mov	r2, ip
    d02e:	1aa3      	sub	r3, r4, r2
    d030:	151b      	asr	r3, r3, #20
    d032:	2b3c      	cmp	r3, #60
    d034:	dd29      	ble	d08a <__ieee754_atan2+0x10e>
    d036:	4842      	ldr	r0, [pc, #264]	(d140 <.text+0xd140>)
    d038:	4942      	ldr	r1, [pc, #264]	(d144 <.text+0xd144>)
    d03a:	4653      	mov	r3, sl
    d03c:	2b01      	cmp	r3, #1
    d03e:	d035      	beq	d0ac <__ieee754_atan2+0x130>
    d040:	2b01      	cmp	r3, #1
    d042:	dd4e      	ble	d0e2 <__ieee754_atan2+0x166>
    d044:	4652      	mov	r2, sl
    d046:	2a02      	cmp	r2, #2
    d048:	d040      	beq	d0cc <__ieee754_atan2+0x150>
    d04a:	4a3f      	ldr	r2, [pc, #252]	(d148 <.text+0xd148>)
    d04c:	4b3f      	ldr	r3, [pc, #252]	(d14c <.text+0xd14c>)
    d04e:	fc3ff002 	bl	f8d0 <____subdf3_from_thumb>
    d052:	4a3f      	ldr	r2, [pc, #252]	(d150 <.text+0xd150>)
    d054:	4b3f      	ldr	r3, [pc, #252]	(d154 <.text+0xd154>)
    d056:	fc3bf002 	bl	f8d0 <____subdf3_from_thumb>
    d05a:	e7b9      	b	cfd0 <__ieee754_atan2+0x54>
    d05c:	2f00      	cmp	r7, #0
    d05e:	db22      	blt	d0a6 <__ieee754_atan2+0x12a>
    d060:	4837      	ldr	r0, [pc, #220]	(d140 <.text+0xd140>)
    d062:	4938      	ldr	r1, [pc, #224]	(d144 <.text+0xd144>)
    d064:	e7b4      	b	cfd0 <__ieee754_atan2+0x54>
    d066:	2a03      	cmp	r2, #3
    d068:	d1d7      	bne	d01a <__ieee754_atan2+0x9e>
    d06a:	483b      	ldr	r0, [pc, #236]	(d158 <.text+0xd158>)
    d06c:	493b      	ldr	r1, [pc, #236]	(d15c <.text+0xd15c>)
    d06e:	e7af      	b	cfd0 <__ieee754_atan2+0x54>
    d070:	4564      	cmp	r4, ip
    d072:	d03a      	beq	d0ea <__ieee754_atan2+0x16e>
    d074:	4653      	mov	r3, sl
    d076:	2b01      	cmp	r3, #1
    d078:	d052      	beq	d120 <__ieee754_atan2+0x1a4>
    d07a:	2b01      	cmp	r3, #1
    d07c:	dd42      	ble	d104 <__ieee754_atan2+0x188>
    d07e:	4652      	mov	r2, sl
    d080:	2a02      	cmp	r2, #2
    d082:	d044      	beq	d10e <__ieee754_atan2+0x192>
    d084:	2a03      	cmp	r2, #3
    d086:	d1ce      	bne	d026 <__ieee754_atan2+0xaa>
    d088:	e7ef      	b	d06a <__ieee754_atan2+0xee>
    d08a:	4642      	mov	r2, r8
    d08c:	2a00      	cmp	r2, #0
    d08e:	db18      	blt	d0c2 <__ieee754_atan2+0x146>
    d090:	1c33      	mov	r3, r6		(add r3, r6, #0)
    d092:	1c2a      	mov	r2, r5		(add r2, r5, #0)
    d094:	9800      	ldr	r0, [sp, #0]
    d096:	9901      	ldr	r1, [sp, #4]
    d098:	fc22f002 	bl	f8e0 <____divdf3_from_thumb>
    d09c:	fe36f7ff 	bl	cd0c <fabs>
    d0a0:	fc2ef7ff 	bl	c900 <atan>
    d0a4:	e7c9      	b	d03a <__ieee754_atan2+0xbe>
    d0a6:	482e      	ldr	r0, [pc, #184]	(d160 <.text+0xd160>)
    d0a8:	492e      	ldr	r1, [pc, #184]	(d164 <.text+0xd164>)
    d0aa:	e791      	b	cfd0 <__ieee754_atan2+0x54>
    d0ac:	1c0c      	mov	r4, r1		(add r4, r1, #0)
    d0ae:	1c03      	mov	r3, r0		(add r3, r0, #0)
    d0b0:	1c0a      	mov	r2, r1		(add r2, r1, #0)
    d0b2:	1c01      	mov	r1, r0		(add r1, r0, #0)
    d0b4:	2080      	mov	r0, #128
    d0b6:	0600      	lsl	r0, r0, #24
    d0b8:	1c01      	mov	r1, r0		(add r1, r0, #0)
    d0ba:	4059      	eor	r1, r3
    d0bc:	1c08      	mov	r0, r1		(add r0, r1, #0)
    d0be:	1c11      	mov	r1, r2		(add r1, r2, #0)
    d0c0:	e786      	b	cfd0 <__ieee754_atan2+0x54>
    d0c2:	333c      	add	r3, #60
    d0c4:	dae4      	bge	d090 <__ieee754_atan2+0x114>
    d0c6:	4828      	ldr	r0, [pc, #160]	(d168 <.text+0xd168>)
    d0c8:	4928      	ldr	r1, [pc, #160]	(d16c <.text+0xd16c>)
    d0ca:	e7b6      	b	d03a <__ieee754_atan2+0xbe>
    d0cc:	4a1e      	ldr	r2, [pc, #120]	(d148 <.text+0xd148>)
    d0ce:	4b1f      	ldr	r3, [pc, #124]	(d14c <.text+0xd14c>)
    d0d0:	fbfef002 	bl	f8d0 <____subdf3_from_thumb>
    d0d4:	1c0b      	mov	r3, r1		(add r3, r1, #0)
    d0d6:	1c02      	mov	r2, r0		(add r2, r0, #0)
    d0d8:	481d      	ldr	r0, [pc, #116]	(d150 <.text+0xd150>)
    d0da:	491e      	ldr	r1, [pc, #120]	(d154 <.text+0xd154>)
    d0dc:	fbf8f002 	bl	f8d0 <____subdf3_from_thumb>
    d0e0:	e776      	b	cfd0 <__ieee754_atan2+0x54>
    d0e2:	2b00      	cmp	r3, #0
    d0e4:	d100      	bne	d0e8 <__ieee754_atan2+0x16c>
    d0e6:	e773      	b	cfd0 <__ieee754_atan2+0x54>
    d0e8:	e7af      	b	d04a <__ieee754_atan2+0xce>
    d0ea:	4653      	mov	r3, sl
    d0ec:	2b01      	cmp	r3, #1
    d0ee:	d01a      	beq	d126 <__ieee754_atan2+0x1aa>
    d0f0:	2b01      	cmp	r3, #1
    d0f2:	dd0f      	ble	d114 <__ieee754_atan2+0x198>
    d0f4:	4652      	mov	r2, sl
    d0f6:	2a02      	cmp	r2, #2
    d0f8:	d018      	beq	d12c <__ieee754_atan2+0x1b0>
    d0fa:	2a03      	cmp	r2, #3
    d0fc:	d193      	bne	d026 <__ieee754_atan2+0xaa>
    d0fe:	481c      	ldr	r0, [pc, #112]	(d170 <.text+0xd170>)
    d100:	491c      	ldr	r1, [pc, #112]	(d174 <.text+0xd174>)
    d102:	e765      	b	cfd0 <__ieee754_atan2+0x54>
    d104:	2b00      	cmp	r3, #0
    d106:	d18e      	bne	d026 <__ieee754_atan2+0xaa>
    d108:	4817      	ldr	r0, [pc, #92]	(d168 <.text+0xd168>)
    d10a:	4918      	ldr	r1, [pc, #96]	(d16c <.text+0xd16c>)
    d10c:	e760      	b	cfd0 <__ieee754_atan2+0x54>
    d10e:	4810      	ldr	r0, [pc, #64]	(d150 <.text+0xd150>)
    d110:	4910      	ldr	r1, [pc, #64]	(d154 <.text+0xd154>)
    d112:	e75d      	b	cfd0 <__ieee754_atan2+0x54>
    d114:	2b00      	cmp	r3, #0
    d116:	d000      	beq	d11a <__ieee754_atan2+0x19e>
    d118:	e785      	b	d026 <__ieee754_atan2+0xaa>
    d11a:	4817      	ldr	r0, [pc, #92]	(d178 <.text+0xd178>)
    d11c:	4917      	ldr	r1, [pc, #92]	(d17c <.text+0xd17c>)
    d11e:	e757      	b	cfd0 <__ieee754_atan2+0x54>
    d120:	4817      	ldr	r0, [pc, #92]	(d180 <.text+0xd180>)
    d122:	4918      	ldr	r1, [pc, #96]	(d184 <.text+0xd184>)
    d124:	e754      	b	cfd0 <__ieee754_atan2+0x54>
    d126:	4818      	ldr	r0, [pc, #96]	(d188 <.text+0xd188>)
    d128:	4918      	ldr	r1, [pc, #96]	(d18c <.text+0xd18c>)
    d12a:	e751      	b	cfd0 <__ieee754_atan2+0x54>
    d12c:	4818      	ldr	r0, [pc, #96]	(d190 <.text+0xd190>)
    d12e:	4919      	ldr	r1, [pc, #100]	(d194 <.text+0xd194>)
    d130:	e74e      	b	cfd0 <__ieee754_atan2+0x54>
    d132:	0000      	lsl	r0, r0, #0
    d134:	ffff      	second half of BL instruction 0xffff
    d136:	7fff      	ldrb	r7, [r7, #31]
    d138:	0000      	lsl	r0, r0, #0
    d13a:	7ff0      	ldrb	r0, [r6, #31]
    d13c:	0000      	lsl	r0, r0, #0
    d13e:	c010      	stmia	r0!,{r4}
    d140:	21fb      	mov	r1, #251
    d142:	3ff9      	sub	r7, #249
    d144:	2d18      	cmp	r5, #24
    d146:	5444      	strb	r4, [r0, r1]
    d148:	a626      	add	r6, pc, #152	(adr r6,d1e4 <__ieee754_rem_pio2+0x4c>)
    d14a:	3ca1      	sub	r4, #161
    d14c:	5c07      	ldrb	r7, [r0, r0]
    d14e:	3314      	add	r3, #20
    d150:	21fb      	mov	r1, #251
    d152:	4009      	and	r1, r1
    d154:	2d18      	cmp	r5, #24
    d156:	5444      	strb	r4, [r0, r1]
    d158:	21fb      	mov	r1, #251
    d15a:	c009      	stmia	r0!,{r0, r3}
    d15c:	2d18      	cmp	r5, #24
    d15e:	5444      	strb	r4, [r0, r1]
    d160:	21fb      	mov	r1, #251
    d162:	bff9      	undefined instruction 0xbff9
    d164:	2d18      	cmp	r5, #24
    d166:	5444      	strb	r4, [r0, r1]
	...
    d170:	d97c      	bls	d26c <__ieee754_rem_pio2+0xd4>
    d172:	c002      	stmia	r0!,{r1}
    d174:	21d2      	mov	r1, #210
    d176:	7f33      	ldrb	r3, [r6, #28]
    d178:	21fb      	mov	r1, #251
    d17a:	3fe9      	sub	r7, #233
    d17c:	2d18      	cmp	r5, #24
    d17e:	5444      	strb	r4, [r0, r1]
    d180:	0000      	lsl	r0, r0, #0
    d182:	8000      	strh	r0, [r0, #0]
    d184:	0000      	lsl	r0, r0, #0
    d186:	0000      	lsl	r0, r0, #0
    d188:	21fb      	mov	r1, #251
    d18a:	bfe9      	undefined instruction 0xbfe9
    d18c:	2d18      	cmp	r5, #24
    d18e:	5444      	strb	r4, [r0, r1]
    d190:	d97c      	bls	d28c <__ieee754_rem_pio2+0xf4>
    d192:	4002      	and	r2, r0
    d194:	21d2      	mov	r1, #210
    d196:	7f33      	ldrb	r3, [r6, #28]

0000d198 <__ieee754_rem_pio2>:
    d198:	b5f0      	push	{r4, r5, r6, r7, lr}
    d19a:	465f      	mov	r7, fp
    d19c:	4656      	mov	r6, sl
    d19e:	464d      	mov	r5, r9
    d1a0:	4644      	mov	r4, r8
    d1a2:	b4f0      	push	{r4, r5, r6, r7}
    d1a4:	4fca      	ldr	r7, [pc, #808]	(d4d0 <.text+0xd4d0>)
    d1a6:	4bcb      	ldr	r3, [pc, #812]	(d4d4 <.text+0xd4d4>)
    d1a8:	4007      	and	r7, r0
    d1aa:	b096      	sub	sp, #88
    d1ac:	1c0e      	mov	r6, r1		(add r6, r1, #0)
    d1ae:	1c05      	mov	r5, r0		(add r5, r0, #0)
    d1b0:	4690      	mov	r8, r2
    d1b2:	4682      	mov	sl, r0
    d1b4:	429f      	cmp	r7, r3
    d1b6:	dc0f      	bgt	d1d8 <__ieee754_rem_pio2+0x40>
    d1b8:	4bc7      	ldr	r3, [pc, #796]	(d4d8 <.text+0xd4d8>)
    d1ba:	4cc8      	ldr	r4, [pc, #800]	(d4dc <.text+0xd4dc>)
    d1bc:	6015      	str	r5, [r2, #0]
    d1be:	6056      	str	r6, [r2, #4]
    d1c0:	6093      	str	r3, [r2, #8]
    d1c2:	60d4      	str	r4, [r2, #12]
    d1c4:	2000      	mov	r0, #0
    d1c6:	b016      	add	sp, #88
    d1c8:	bc78      	pop	{r3, r4, r5, r6}
    d1ca:	4698      	mov	r8, r3
    d1cc:	46a1      	mov	r9, r4
    d1ce:	46aa      	mov	sl, r5
    d1d0:	46b3      	mov	fp, r6
    d1d2:	bcf0      	pop	{r4, r5, r6, r7}
    d1d4:	bc02      	pop	{r1}
    d1d6:	4708      	bx	r1
    d1d8:	4bc1      	ldr	r3, [pc, #772]	(d4e0 <.text+0xd4e0>)
    d1da:	429f      	cmp	r7, r3
    d1dc:	dc24      	bgt	d228 <__ieee754_rem_pio2+0x90>
    d1de:	2800      	cmp	r0, #0
    d1e0:	dc00      	bgt	d1e4 <__ieee754_rem_pio2+0x4c>
    d1e2:	e1cf      	b	d584 <.text+0xd584>
    d1e4:	4abf      	ldr	r2, [pc, #764]	(d4e4 <.text+0xd4e4>)
    d1e6:	4bc0      	ldr	r3, [pc, #768]	(d4e8 <.text+0xd4e8>)
    d1e8:	fb72f002 	bl	f8d0 <____subdf3_from_thumb>
    d1ec:	4bbf      	ldr	r3, [pc, #764]	(d4ec <.text+0xd4ec>)
    d1ee:	900e      	str	r0, [sp, #56]
    d1f0:	910f      	str	r1, [sp, #60]
    d1f2:	429f      	cmp	r7, r3
    d1f4:	d100      	bne	d1f8 <__ieee754_rem_pio2+0x60>
    d1f6:	e0ee      	b	d3d6 <__ieee754_rem_pio2+0x23e>
    d1f8:	4abd      	ldr	r2, [pc, #756]	(d4f0 <.text+0xd4f0>)
    d1fa:	4bbe      	ldr	r3, [pc, #760]	(d4f4 <.text+0xd4f4>)
    d1fc:	fb68f002 	bl	f8d0 <____subdf3_from_thumb>
    d200:	4644      	mov	r4, r8
    d202:	1c0e      	mov	r6, r1		(add r6, r1, #0)
    d204:	1c05      	mov	r5, r0		(add r5, r0, #0)
    d206:	6020      	str	r0, [r4, #0]
    d208:	6061      	str	r1, [r4, #4]
    d20a:	1c33      	mov	r3, r6		(add r3, r6, #0)
    d20c:	1c2a      	mov	r2, r5		(add r2, r5, #0)
    d20e:	980e      	ldr	r0, [sp, #56]
    d210:	990f      	ldr	r1, [sp, #60]
    d212:	fb5df002 	bl	f8d0 <____subdf3_from_thumb>
    d216:	4ab6      	ldr	r2, [pc, #728]	(d4f0 <.text+0xd4f0>)
    d218:	4bb6      	ldr	r3, [pc, #728]	(d4f4 <.text+0xd4f4>)
    d21a:	fb59f002 	bl	f8d0 <____subdf3_from_thumb>
    d21e:	4642      	mov	r2, r8
    d220:	6090      	str	r0, [r2, #8]
    d222:	60d1      	str	r1, [r2, #12]
    d224:	2001      	mov	r0, #1
    d226:	e7ce      	b	d1c6 <__ieee754_rem_pio2+0x2e>
    d228:	4bb3      	ldr	r3, [pc, #716]	(d4f8 <.text+0xd4f8>)
    d22a:	429f      	cmp	r7, r3
    d22c:	dd0e      	ble	d24c <__ieee754_rem_pio2+0xb4>
    d22e:	4bb3      	ldr	r3, [pc, #716]	(d4fc <.text+0xd4fc>)
    d230:	429f      	cmp	r7, r3
    d232:	dc00      	bgt	d236 <__ieee754_rem_pio2+0x9e>
    d234:	e0ef      	b	d416 <__ieee754_rem_pio2+0x27e>
    d236:	1c33      	mov	r3, r6		(add r3, r6, #0)
    d238:	1c2a      	mov	r2, r5		(add r2, r5, #0)
    d23a:	fb49f002 	bl	f8d0 <____subdf3_from_thumb>
    d23e:	4644      	mov	r4, r8
    d240:	4642      	mov	r2, r8
    d242:	60a0      	str	r0, [r4, #8]
    d244:	60e1      	str	r1, [r4, #12]
    d246:	6010      	str	r0, [r2, #0]
    d248:	6051      	str	r1, [r2, #4]
    d24a:	e7bb      	b	d1c4 <__ieee754_rem_pio2+0x2c>
    d24c:	fd5ef7ff 	bl	cd0c <fabs>
    d250:	4aab      	ldr	r2, [pc, #684]	(d500 <.text+0xd500>)
    d252:	4bac      	ldr	r3, [pc, #688]	(d504 <.text+0xd504>)
    d254:	900a      	str	r0, [sp, #40]
    d256:	910b      	str	r1, [sp, #44]
    d258:	fb36f002 	bl	f8c8 <____muldf3_from_thumb>
    d25c:	4aaa      	ldr	r2, [pc, #680]	(d508 <.text+0xd508>)
    d25e:	4bab      	ldr	r3, [pc, #684]	(d50c <.text+0xd50c>)
    d260:	fb2ef002 	bl	f8c0 <____adddf3_from_thumb>
    d264:	fb48f002 	bl	f8f8 <____fixdfsi_from_thumb>
    d268:	4681      	mov	r9, r0
    d26a:	fb49f002 	bl	f900 <____floatsidf_from_thumb>
    d26e:	4a9d      	ldr	r2, [pc, #628]	(d4e4 <.text+0xd4e4>)
    d270:	4b9d      	ldr	r3, [pc, #628]	(d4e8 <.text+0xd4e8>)
    d272:	9006      	str	r0, [sp, #24]
    d274:	9107      	str	r1, [sp, #28]
    d276:	fb27f002 	bl	f8c8 <____muldf3_from_thumb>
    d27a:	1c0b      	mov	r3, r1		(add r3, r1, #0)
    d27c:	1c02      	mov	r2, r0		(add r2, r0, #0)
    d27e:	980a      	ldr	r0, [sp, #40]
    d280:	990b      	ldr	r1, [sp, #44]
    d282:	fb25f002 	bl	f8d0 <____subdf3_from_thumb>
    d286:	4a9a      	ldr	r2, [pc, #616]	(d4f0 <.text+0xd4f0>)
    d288:	4b9a      	ldr	r3, [pc, #616]	(d4f4 <.text+0xd4f4>)
    d28a:	9008      	str	r0, [sp, #32]
    d28c:	9109      	str	r1, [sp, #36]
    d28e:	9806      	ldr	r0, [sp, #24]
    d290:	9907      	ldr	r1, [sp, #28]
    d292:	fb19f002 	bl	f8c8 <____muldf3_from_thumb>
    d296:	900c      	str	r0, [sp, #48]
    d298:	910d      	str	r1, [sp, #52]
    d29a:	4649      	mov	r1, r9
    d29c:	291f      	cmp	r1, #31
    d29e:	dc00      	bgt	d2a2 <__ieee754_rem_pio2+0x10a>
    d2a0:	e154      	b	d54c <.text+0xd54c>
    d2a2:	9a0c      	ldr	r2, [sp, #48]
    d2a4:	9b0d      	ldr	r3, [sp, #52]
    d2a6:	9808      	ldr	r0, [sp, #32]
    d2a8:	9909      	ldr	r1, [sp, #36]
    d2aa:	fb11f002 	bl	f8d0 <____subdf3_from_thumb>
    d2ae:	4a98      	ldr	r2, [pc, #608]	(d510 <.text+0xd510>)
    d2b0:	0d03      	lsr	r3, r0, #20
    d2b2:	153f      	asr	r7, r7, #20
    d2b4:	4013      	and	r3, r2
    d2b6:	1afc      	sub	r4, r7, r3
    d2b8:	1c0e      	mov	r6, r1		(add r6, r1, #0)
    d2ba:	1c05      	mov	r5, r0		(add r5, r0, #0)
    d2bc:	4693      	mov	fp, r2
    d2be:	2c10      	cmp	r4, #16
    d2c0:	dc00      	bgt	d2c4 <__ieee754_rem_pio2+0x12c>
    d2c2:	e06f      	b	d3a4 <__ieee754_rem_pio2+0x20c>
    d2c4:	9b08      	ldr	r3, [sp, #32]
    d2c6:	9c09      	ldr	r4, [sp, #36]
    d2c8:	9806      	ldr	r0, [sp, #24]
    d2ca:	9907      	ldr	r1, [sp, #28]
    d2cc:	930a      	str	r3, [sp, #40]
    d2ce:	940b      	str	r4, [sp, #44]
    d2d0:	4a90      	ldr	r2, [pc, #576]	(d514 <.text+0xd514>)
    d2d2:	4b91      	ldr	r3, [pc, #580]	(d518 <.text+0xd518>)
    d2d4:	faf8f002 	bl	f8c8 <____muldf3_from_thumb>
    d2d8:	900c      	str	r0, [sp, #48]
    d2da:	910d      	str	r1, [sp, #52]
    d2dc:	9a0c      	ldr	r2, [sp, #48]
    d2de:	9b0d      	ldr	r3, [sp, #52]
    d2e0:	980a      	ldr	r0, [sp, #40]
    d2e2:	990b      	ldr	r1, [sp, #44]
    d2e4:	faf4f002 	bl	f8d0 <____subdf3_from_thumb>
    d2e8:	4a8c      	ldr	r2, [pc, #560]	(d51c <.text+0xd51c>)
    d2ea:	4b8d      	ldr	r3, [pc, #564]	(d520 <.text+0xd520>)
    d2ec:	9008      	str	r0, [sp, #32]
    d2ee:	9109      	str	r1, [sp, #36]
    d2f0:	9004      	str	r0, [sp, #16]
    d2f2:	9105      	str	r1, [sp, #20]
    d2f4:	9806      	ldr	r0, [sp, #24]
    d2f6:	9907      	ldr	r1, [sp, #28]
    d2f8:	fae6f002 	bl	f8c8 <____muldf3_from_thumb>
    d2fc:	9a08      	ldr	r2, [sp, #32]
    d2fe:	9b09      	ldr	r3, [sp, #36]
    d300:	1c0d      	mov	r5, r1		(add r5, r1, #0)
    d302:	1c04      	mov	r4, r0		(add r4, r0, #0)
    d304:	980a      	ldr	r0, [sp, #40]
    d306:	990b      	ldr	r1, [sp, #44]
    d308:	fae2f002 	bl	f8d0 <____subdf3_from_thumb>
    d30c:	9a0c      	ldr	r2, [sp, #48]
    d30e:	9b0d      	ldr	r3, [sp, #52]
    d310:	fadef002 	bl	f8d0 <____subdf3_from_thumb>
    d314:	1c0b      	mov	r3, r1		(add r3, r1, #0)
    d316:	1c02      	mov	r2, r0		(add r2, r0, #0)
    d318:	1c29      	mov	r1, r5		(add r1, r5, #0)
    d31a:	1c20      	mov	r0, r4		(add r0, r4, #0)
    d31c:	fad8f002 	bl	f8d0 <____subdf3_from_thumb>
    d320:	900c      	str	r0, [sp, #48]
    d322:	910d      	str	r1, [sp, #52]
    d324:	9a0c      	ldr	r2, [sp, #48]
    d326:	9b0d      	ldr	r3, [sp, #52]
    d328:	9808      	ldr	r0, [sp, #32]
    d32a:	9909      	ldr	r1, [sp, #36]
    d32c:	fad0f002 	bl	f8d0 <____subdf3_from_thumb>
    d330:	465c      	mov	r4, fp
    d332:	0d03      	lsr	r3, r0, #20
    d334:	4023      	and	r3, r4
    d336:	1afc      	sub	r4, r7, r3
    d338:	1c0e      	mov	r6, r1		(add r6, r1, #0)
    d33a:	1c05      	mov	r5, r0		(add r5, r0, #0)
    d33c:	2c31      	cmp	r4, #49
    d33e:	dd31      	ble	d3a4 <__ieee754_rem_pio2+0x20c>
    d340:	4a78      	ldr	r2, [pc, #480]	(d524 <.text+0xd524>)
    d342:	4b79      	ldr	r3, [pc, #484]	(d528 <.text+0xd528>)
    d344:	9806      	ldr	r0, [sp, #24]
    d346:	9907      	ldr	r1, [sp, #28]
    d348:	fabef002 	bl	f8c8 <____muldf3_from_thumb>
    d34c:	900c      	str	r0, [sp, #48]
    d34e:	910d      	str	r1, [sp, #52]
    d350:	9a0c      	ldr	r2, [sp, #48]
    d352:	9b0d      	ldr	r3, [sp, #52]
    d354:	9808      	ldr	r0, [sp, #32]
    d356:	9909      	ldr	r1, [sp, #36]
    d358:	fabaf002 	bl	f8d0 <____subdf3_from_thumb>
    d35c:	4a73      	ldr	r2, [pc, #460]	(d52c <.text+0xd52c>)
    d35e:	4b74      	ldr	r3, [pc, #464]	(d530 <.text+0xd530>)
    d360:	9008      	str	r0, [sp, #32]
    d362:	9109      	str	r1, [sp, #36]
    d364:	9806      	ldr	r0, [sp, #24]
    d366:	9907      	ldr	r1, [sp, #28]
    d368:	faaef002 	bl	f8c8 <____muldf3_from_thumb>
    d36c:	9a08      	ldr	r2, [sp, #32]
    d36e:	9b09      	ldr	r3, [sp, #36]
    d370:	1c0d      	mov	r5, r1		(add r5, r1, #0)
    d372:	1c04      	mov	r4, r0		(add r4, r0, #0)
    d374:	9804      	ldr	r0, [sp, #16]
    d376:	9905      	ldr	r1, [sp, #20]
    d378:	faaaf002 	bl	f8d0 <____subdf3_from_thumb>
    d37c:	9a0c      	ldr	r2, [sp, #48]
    d37e:	9b0d      	ldr	r3, [sp, #52]
    d380:	faa6f002 	bl	f8d0 <____subdf3_from_thumb>
    d384:	1c0b      	mov	r3, r1		(add r3, r1, #0)
    d386:	1c02      	mov	r2, r0		(add r2, r0, #0)
    d388:	1c29      	mov	r1, r5		(add r1, r5, #0)
    d38a:	1c20      	mov	r0, r4		(add r0, r4, #0)
    d38c:	faa0f002 	bl	f8d0 <____subdf3_from_thumb>
    d390:	900c      	str	r0, [sp, #48]
    d392:	910d      	str	r1, [sp, #52]
    d394:	9808      	ldr	r0, [sp, #32]
    d396:	9909      	ldr	r1, [sp, #36]
    d398:	9a0c      	ldr	r2, [sp, #48]
    d39a:	9b0d      	ldr	r3, [sp, #52]
    d39c:	fa98f002 	bl	f8d0 <____subdf3_from_thumb>
    d3a0:	1c0e      	mov	r6, r1		(add r6, r1, #0)
    d3a2:	1c05      	mov	r5, r0		(add r5, r0, #0)
    d3a4:	1c33      	mov	r3, r6		(add r3, r6, #0)
    d3a6:	1c2a      	mov	r2, r5		(add r2, r5, #0)
    d3a8:	9808      	ldr	r0, [sp, #32]
    d3aa:	9909      	ldr	r1, [sp, #36]
    d3ac:	fa90f002 	bl	f8d0 <____subdf3_from_thumb>
    d3b0:	9a0c      	ldr	r2, [sp, #48]
    d3b2:	9b0d      	ldr	r3, [sp, #52]
    d3b4:	fa8cf002 	bl	f8d0 <____subdf3_from_thumb>
    d3b8:	9002      	str	r0, [sp, #8]
    d3ba:	9103      	str	r1, [sp, #12]
    d3bc:	4651      	mov	r1, sl
    d3be:	2900      	cmp	r1, #0
    d3c0:	da00      	bge	d3c4 <__ieee754_rem_pio2+0x22c>
    d3c2:	e0cc      	b	d55e <.text+0xd55e>
    d3c4:	9902      	ldr	r1, [sp, #8]
    d3c6:	9a03      	ldr	r2, [sp, #12]
    d3c8:	4643      	mov	r3, r8
    d3ca:	601d      	str	r5, [r3, #0]
    d3cc:	605e      	str	r6, [r3, #4]
    d3ce:	6099      	str	r1, [r3, #8]
    d3d0:	60da      	str	r2, [r3, #12]
    d3d2:	4648      	mov	r0, r9
    d3d4:	e6f7      	b	d1c6 <__ieee754_rem_pio2+0x2e>
    d3d6:	980e      	ldr	r0, [sp, #56]
    d3d8:	990f      	ldr	r1, [sp, #60]
    d3da:	4a4e      	ldr	r2, [pc, #312]	(d514 <.text+0xd514>)
    d3dc:	4b4e      	ldr	r3, [pc, #312]	(d518 <.text+0xd518>)
    d3de:	fa77f002 	bl	f8d0 <____subdf3_from_thumb>
    d3e2:	4a4e      	ldr	r2, [pc, #312]	(d51c <.text+0xd51c>)
    d3e4:	4b4e      	ldr	r3, [pc, #312]	(d520 <.text+0xd520>)
    d3e6:	900e      	str	r0, [sp, #56]
    d3e8:	910f      	str	r1, [sp, #60]
    d3ea:	fa71f002 	bl	f8d0 <____subdf3_from_thumb>
    d3ee:	4643      	mov	r3, r8
    d3f0:	1c0e      	mov	r6, r1		(add r6, r1, #0)
    d3f2:	1c05      	mov	r5, r0		(add r5, r0, #0)
    d3f4:	6018      	str	r0, [r3, #0]
    d3f6:	6059      	str	r1, [r3, #4]
    d3f8:	1c33      	mov	r3, r6		(add r3, r6, #0)
    d3fa:	1c2a      	mov	r2, r5		(add r2, r5, #0)
    d3fc:	980e      	ldr	r0, [sp, #56]
    d3fe:	990f      	ldr	r1, [sp, #60]
    d400:	fa66f002 	bl	f8d0 <____subdf3_from_thumb>
    d404:	4a45      	ldr	r2, [pc, #276]	(d51c <.text+0xd51c>)
    d406:	4b46      	ldr	r3, [pc, #280]	(d520 <.text+0xd520>)
    d408:	fa62f002 	bl	f8d0 <____subdf3_from_thumb>
    d40c:	4644      	mov	r4, r8
    d40e:	60a0      	str	r0, [r4, #8]
    d410:	60e1      	str	r1, [r4, #12]
    d412:	2001      	mov	r0, #1
    d414:	e6d7      	b	d1c6 <__ieee754_rem_pio2+0x2e>
    d416:	9b0e      	ldr	r3, [sp, #56]
    d418:	9c0f      	ldr	r4, [sp, #60]
    d41a:	1c0a      	mov	r2, r1		(add r2, r1, #0)
    d41c:	1c01      	mov	r1, r0		(add r1, r0, #0)
    d41e:	1c14      	mov	r4, r2		(add r4, r2, #0)
    d420:	930e      	str	r3, [sp, #56]
    d422:	940f      	str	r4, [sp, #60]
    d424:	4c43      	ldr	r4, [pc, #268]	(d534 <.text+0xd534>)
    d426:	153b      	asr	r3, r7, #20
    d428:	18e4      	add	r4, r4, r3
    d42a:	46a1      	mov	r9, r4
    d42c:	4649      	mov	r1, r9
    d42e:	9b0e      	ldr	r3, [sp, #56]
    d430:	9c0f      	ldr	r4, [sp, #60]
    d432:	050a      	lsl	r2, r1, #20
    d434:	1abb      	sub	r3, r7, r2
    d436:	ae10      	add	r6, sp, #64
    d438:	930e      	str	r3, [sp, #56]
    d43a:	940f      	str	r4, [sp, #60]
    d43c:	1c35      	mov	r5, r6		(add r5, r6, #0)
    d43e:	2401      	mov	r4, #1
    d440:	980e      	ldr	r0, [sp, #56]
    d442:	990f      	ldr	r1, [sp, #60]
    d444:	fa58f002 	bl	f8f8 <____fixdfsi_from_thumb>
    d448:	fa5af002 	bl	f900 <____floatsidf_from_thumb>
    d44c:	1c0b      	mov	r3, r1		(add r3, r1, #0)
    d44e:	1c02      	mov	r2, r0		(add r2, r0, #0)
    d450:	c503      	stmia	r5!,{r0, r1}
    d452:	980e      	ldr	r0, [sp, #56]
    d454:	990f      	ldr	r1, [sp, #60]
    d456:	fa3bf002 	bl	f8d0 <____subdf3_from_thumb>
    d45a:	4a37      	ldr	r2, [pc, #220]	(d538 <.text+0xd538>)
    d45c:	4b37      	ldr	r3, [pc, #220]	(d53c <.text+0xd53c>)
    d45e:	fa33f002 	bl	f8c8 <____muldf3_from_thumb>
    d462:	900e      	str	r0, [sp, #56]
    d464:	910f      	str	r1, [sp, #60]
    d466:	3c01      	sub	r4, #1
    d468:	d5ea      	bpl	d440 <__ieee754_rem_pio2+0x2a8>
    d46a:	1c34      	mov	r4, r6		(add r4, r6, #0)
    d46c:	9014      	str	r0, [sp, #80]
    d46e:	9115      	str	r1, [sp, #84]
    d470:	2503      	mov	r5, #3
    d472:	3410      	add	r4, #16
    d474:	e000      	b	d478 <__ieee754_rem_pio2+0x2e0>
    d476:	3d01      	sub	r5, #1
    d478:	6820      	ldr	r0, [r4, #0]
    d47a:	6861      	ldr	r1, [r4, #4]
    d47c:	4a16      	ldr	r2, [pc, #88]	(d4d8 <.text+0xd4d8>)
    d47e:	4b17      	ldr	r3, [pc, #92]	(d4dc <.text+0xd4dc>)
    d480:	3c08      	sub	r4, #8
    d482:	fa31f002 	bl	f8e8 <____eqdf2_from_thumb>
    d486:	2800      	cmp	r0, #0
    d488:	d0f5      	beq	d476 <__ieee754_rem_pio2+0x2de>
    d48a:	2302      	mov	r3, #2
    d48c:	9300      	str	r3, [sp, #0]
    d48e:	4b2c      	ldr	r3, [pc, #176]	(d540 <.text+0xd540>)
    d490:	464a      	mov	r2, r9
    d492:	9301      	str	r3, [sp, #4]
    d494:	1c30      	mov	r0, r6		(add r0, r6, #0)
    d496:	4641      	mov	r1, r8
    d498:	1c2b      	mov	r3, r5		(add r3, r5, #0)
    d49a:	fab3f000 	bl	da04 <__kernel_rem_pio2>
    d49e:	4652      	mov	r2, sl
    d4a0:	4681      	mov	r9, r0
    d4a2:	2a00      	cmp	r2, #0
    d4a4:	da95      	bge	d3d2 <__ieee754_rem_pio2+0x23a>
    d4a6:	4643      	mov	r3, r8
    d4a8:	6819      	ldr	r1, [r3, #0]
    d4aa:	685a      	ldr	r2, [r3, #4]
    d4ac:	4d25      	ldr	r5, [pc, #148]	(d544 <.text+0xd544>)
    d4ae:	4e26      	ldr	r6, [pc, #152]	(d548 <.text+0xd548>)
    d4b0:	1c0b      	mov	r3, r1		(add r3, r1, #0)
    d4b2:	1c14      	mov	r4, r2		(add r4, r2, #0)
    d4b4:	406b      	eor	r3, r5
    d4b6:	4641      	mov	r1, r8
    d4b8:	600b      	str	r3, [r1, #0]
    d4ba:	604c      	str	r4, [r1, #4]
    d4bc:	68ca      	ldr	r2, [r1, #12]
    d4be:	6889      	ldr	r1, [r1, #8]
    d4c0:	1c0b      	mov	r3, r1		(add r3, r1, #0)
    d4c2:	1c14      	mov	r4, r2		(add r4, r2, #0)
    d4c4:	406b      	eor	r3, r5
    d4c6:	4642      	mov	r2, r8
    d4c8:	4240      	neg	r0, r0
    d4ca:	6093      	str	r3, [r2, #8]
    d4cc:	60d4      	str	r4, [r2, #12]
    d4ce:	e67a      	b	d1c6 <__ieee754_rem_pio2+0x2e>
    d4d0:	ffff      	second half of BL instruction 0xffff
    d4d2:	7fff      	ldrb	r7, [r7, #31]
    d4d4:	21fb      	mov	r1, #251
    d4d6:	3fe9      	sub	r7, #233
	...
    d4e0:	d97b      	bls	d5da <.text+0xd5da>
    d4e2:	4002      	and	r2, r0
    d4e4:	21fb      	mov	r1, #251
    d4e6:	3ff9      	sub	r7, #249
    d4e8:	0000      	lsl	r0, r0, #0
    d4ea:	5440      	strb	r0, [r0, r1]
    d4ec:	21fb      	mov	r1, #251
    d4ee:	3ff9      	sub	r7, #249
    d4f0:	b461      	push	{r0, r5, r6}
    d4f2:	3dd0      	sub	r5, #208
    d4f4:	6331      	str	r1, [r6, #48]
    d4f6:	1a62      	sub	r2, r4, r1
    d4f8:	21fb      	mov	r1, #251
    d4fa:	4139      	asr	r1, r7
    d4fc:	ffff      	second half of BL instruction 0xffff
    d4fe:	7fef      	ldrb	r7, [r5, #31]
    d500:	5f30      	ldrsh	r0, [r6, r4]
    d502:	3fe4      	sub	r7, #228
    d504:	c883      	ldmia	r0!,{r0, r1, r7}
    d506:	6dc9      	ldr	r1, [r1, #92]
    d508:	0000      	lsl	r0, r0, #0
    d50a:	3fe0      	sub	r7, #224
    d50c:	0000      	lsl	r0, r0, #0
    d50e:	0000      	lsl	r0, r0, #0
    d510:	07ff      	lsl	r7, r7, #31
    d512:	0000      	lsl	r0, r0, #0
    d514:	b461      	push	{r0, r5, r6}
    d516:	3dd0      	sub	r5, #208
    d518:	0000      	lsl	r0, r0, #0
    d51a:	1a60      	sub	r0, r4, r1
    d51c:	198a      	add	r2, r1, r6
    d51e:	3ba3      	sub	r3, #163
    d520:	7073      	strb	r3, [r6, #1]
    d522:	2e03      	cmp	r6, #3
    d524:	198a      	add	r2, r1, r6
    d526:	3ba3      	sub	r3, #163
    d528:	0000      	lsl	r0, r0, #0
    d52a:	2e00      	cmp	r6, #0
    d52c:	839a      	strh	r2, [r3, #28]
    d52e:	397b      	sub	r1, #123
    d530:	49c1      	ldr	r1, [pc, #772]	(d838 <__kernel_cos+0x1c>)
    d532:	2520      	mov	r5, #32
    d534:	fbea      	second half of BL instruction 0xfbea
    d536:	ffff      	second half of BL instruction 0xffff
    d538:	0000      	lsl	r0, r0, #0
    d53a:	4170      	adc	r0, r6
    d53c:	0000      	lsl	r0, r0, #0
    d53e:	0000      	lsl	r0, r0, #0
    d540:	f9b4      	second half of BL instruction 0xf9b4
    d542:	0000      	lsl	r0, r0, #0
    d544:	0000      	lsl	r0, r0, #0
    d546:	8000      	strh	r0, [r0, #0]
    d548:	0000      	lsl	r0, r0, #0
    d54a:	0000      	lsl	r0, r0, #0
    d54c:	4a2e      	ldr	r2, [pc, #184]	(d608 <.text+0xd608>)
    d54e:	008b      	lsl	r3, r1, #2
    d550:	189b      	add	r3, r3, r2
    d552:	3b04      	sub	r3, #4
    d554:	681b      	ldr	r3, [r3, #0]
    d556:	42bb      	cmp	r3, r7
    d558:	d000      	beq	d55c <.text+0xd55c>
    d55a:	e71b      	b	d394 <__ieee754_rem_pio2+0x1fc>
    d55c:	e6a1      	b	d2a2 <__ieee754_rem_pio2+0x10a>
    d55e:	492b      	ldr	r1, [pc, #172]	(d60c <.text+0xd60c>)
    d560:	4a2b      	ldr	r2, [pc, #172]	(d610 <.text+0xd610>)
    d562:	1c2b      	mov	r3, r5		(add r3, r5, #0)
    d564:	404b      	eor	r3, r1
    d566:	1c34      	mov	r4, r6		(add r4, r6, #0)
    d568:	1c26      	mov	r6, r4		(add r6, r4, #0)
    d56a:	1c1d      	mov	r5, r3		(add r5, r3, #0)
    d56c:	4643      	mov	r3, r8
    d56e:	601d      	str	r5, [r3, #0]
    d570:	605e      	str	r6, [r3, #4]
    d572:	9b02      	ldr	r3, [sp, #8]
    d574:	9c03      	ldr	r4, [sp, #12]
    d576:	464a      	mov	r2, r9
    d578:	404b      	eor	r3, r1
    d57a:	4250      	neg	r0, r2
    d57c:	4641      	mov	r1, r8
    d57e:	608b      	str	r3, [r1, #8]
    d580:	60cc      	str	r4, [r1, #12]
    d582:	e620      	b	d1c6 <__ieee754_rem_pio2+0x2e>
    d584:	4a23      	ldr	r2, [pc, #140]	(d614 <.text+0xd614>)
    d586:	4b24      	ldr	r3, [pc, #144]	(d618 <.text+0xd618>)
    d588:	f99af002 	bl	f8c0 <____adddf3_from_thumb>
    d58c:	4b23      	ldr	r3, [pc, #140]	(d61c <.text+0xd61c>)
    d58e:	900e      	str	r0, [sp, #56]
    d590:	910f      	str	r1, [sp, #60]
    d592:	429f      	cmp	r7, r3
    d594:	d018      	beq	d5c8 <.text+0xd5c8>
    d596:	4a22      	ldr	r2, [pc, #136]	(d620 <.text+0xd620>)
    d598:	4b22      	ldr	r3, [pc, #136]	(d624 <.text+0xd624>)
    d59a:	f991f002 	bl	f8c0 <____adddf3_from_thumb>
    d59e:	1c0e      	mov	r6, r1		(add r6, r1, #0)
    d5a0:	1c05      	mov	r5, r0		(add r5, r0, #0)
    d5a2:	4641      	mov	r1, r8
    d5a4:	600d      	str	r5, [r1, #0]
    d5a6:	604e      	str	r6, [r1, #4]
    d5a8:	1c33      	mov	r3, r6		(add r3, r6, #0)
    d5aa:	1c2a      	mov	r2, r5		(add r2, r5, #0)
    d5ac:	980e      	ldr	r0, [sp, #56]
    d5ae:	990f      	ldr	r1, [sp, #60]
    d5b0:	f98ef002 	bl	f8d0 <____subdf3_from_thumb>
    d5b4:	4a1a      	ldr	r2, [pc, #104]	(d620 <.text+0xd620>)
    d5b6:	4b1b      	ldr	r3, [pc, #108]	(d624 <.text+0xd624>)
    d5b8:	f982f002 	bl	f8c0 <____adddf3_from_thumb>
    d5bc:	4642      	mov	r2, r8
    d5be:	6090      	str	r0, [r2, #8]
    d5c0:	60d1      	str	r1, [r2, #12]
    d5c2:	2001      	mov	r0, #1
    d5c4:	4240      	neg	r0, r0
    d5c6:	e5fe      	b	d1c6 <__ieee754_rem_pio2+0x2e>
    d5c8:	980e      	ldr	r0, [sp, #56]
    d5ca:	990f      	ldr	r1, [sp, #60]
    d5cc:	4a16      	ldr	r2, [pc, #88]	(d628 <.text+0xd628>)
    d5ce:	4b17      	ldr	r3, [pc, #92]	(d62c <.text+0xd62c>)
    d5d0:	f976f002 	bl	f8c0 <____adddf3_from_thumb>
    d5d4:	4a16      	ldr	r2, [pc, #88]	(d630 <.text+0xd630>)
    d5d6:	4b17      	ldr	r3, [pc, #92]	(d634 <.text+0xd634>)
    d5d8:	900e      	str	r0, [sp, #56]
    d5da:	910f      	str	r1, [sp, #60]
    d5dc:	f970f002 	bl	f8c0 <____adddf3_from_thumb>
    d5e0:	4643      	mov	r3, r8
    d5e2:	1c0e      	mov	r6, r1		(add r6, r1, #0)
    d5e4:	1c05      	mov	r5, r0		(add r5, r0, #0)
    d5e6:	6018      	str	r0, [r3, #0]
    d5e8:	6059      	str	r1, [r3, #4]
    d5ea:	1c33      	mov	r3, r6		(add r3, r6, #0)
    d5ec:	1c2a      	mov	r2, r5		(add r2, r5, #0)
    d5ee:	980e      	ldr	r0, [sp, #56]
    d5f0:	990f      	ldr	r1, [sp, #60]
    d5f2:	f96df002 	bl	f8d0 <____subdf3_from_thumb>
    d5f6:	4a0e      	ldr	r2, [pc, #56]	(d630 <.text+0xd630>)
    d5f8:	4b0e      	ldr	r3, [pc, #56]	(d634 <.text+0xd634>)
    d5fa:	f961f002 	bl	f8c0 <____adddf3_from_thumb>
    d5fe:	4644      	mov	r4, r8
    d600:	60a0      	str	r0, [r4, #8]
    d602:	60e1      	str	r1, [r4, #12]
    d604:	2001      	mov	r0, #1
    d606:	e7dd      	b	d5c4 <.text+0xd5c4>
    d608:	fabc      	second half of BL instruction 0xfabc
    d60a:	0000      	lsl	r0, r0, #0
    d60c:	0000      	lsl	r0, r0, #0
    d60e:	8000      	strh	r0, [r0, #0]
    d610:	0000      	lsl	r0, r0, #0
    d612:	0000      	lsl	r0, r0, #0
    d614:	21fb      	mov	r1, #251
    d616:	3ff9      	sub	r7, #249
    d618:	0000      	lsl	r0, r0, #0
    d61a:	5440      	strb	r0, [r0, r1]
    d61c:	21fb      	mov	r1, #251
    d61e:	3ff9      	sub	r7, #249
    d620:	b461      	push	{r0, r5, r6}
    d622:	3dd0      	sub	r5, #208
    d624:	6331      	str	r1, [r6, #48]
    d626:	1a62      	sub	r2, r4, r1
    d628:	b461      	push	{r0, r5, r6}
    d62a:	3dd0      	sub	r5, #208
    d62c:	0000      	lsl	r0, r0, #0
    d62e:	1a60      	sub	r0, r4, r1
    d630:	198a      	add	r2, r1, r6
    d632:	3ba3      	sub	r3, #163
    d634:	7073      	strb	r3, [r6, #1]
    d636:	2e03      	cmp	r6, #3

0000d638 <__ieee754_sqrt>:
    d638:	b5f0      	push	{r4, r5, r6, r7, lr}
    d63a:	465f      	mov	r7, fp
    d63c:	4656      	mov	r6, sl
    d63e:	464d      	mov	r5, r9
    d640:	4644      	mov	r4, r8
    d642:	b4f0      	push	{r4, r5, r6, r7}
    d644:	2200      	mov	r2, #0
    d646:	2300      	mov	r3, #0
    d648:	b082      	sub	sp, #8
    d64a:	9200      	str	r2, [sp, #0]
    d64c:	9301      	str	r3, [sp, #4]
    d64e:	2380      	mov	r3, #128
    d650:	061c      	lsl	r4, r3, #24
    d652:	4a6d      	ldr	r2, [pc, #436]	(d808 <.text+0xd808>)
    d654:	46a4      	mov	ip, r4
    d656:	1c0c      	mov	r4, r1		(add r4, r1, #0)
    d658:	1c03      	mov	r3, r0		(add r3, r0, #0)
    d65a:	1c03      	mov	r3, r0		(add r3, r0, #0)
    d65c:	4013      	and	r3, r2
    d65e:	1c0f      	mov	r7, r1		(add r7, r1, #0)
    d660:	1c06      	mov	r6, r0		(add r6, r0, #0)
    d662:	1c25      	mov	r5, r4		(add r5, r4, #0)
    d664:	1c01      	mov	r1, r0		(add r1, r0, #0)
    d666:	4293      	cmp	r3, r2
    d668:	d100      	bne	d66c <__ieee754_sqrt+0x34>
    d66a:	e095      	b	d798 <__ieee754_sqrt+0x160>
    d66c:	2800      	cmp	r0, #0
    d66e:	dc00      	bgt	d672 <__ieee754_sqrt+0x3a>
    d670:	e0af      	b	d7d2 <__ieee754_sqrt+0x19a>
    d672:	150f      	asr	r7, r1, #20
    d674:	46bb      	mov	fp, r7
    d676:	2f00      	cmp	r7, #0
    d678:	d072      	beq	d760 <__ieee754_sqrt+0x128>
    d67a:	4b64      	ldr	r3, [pc, #400]	(d80c <.text+0xd80c>)
    d67c:	4864      	ldr	r0, [pc, #400]	(d810 <.text+0xd810>)
    d67e:	4019      	and	r1, r3
    d680:	4483      	add	fp, r0
    d682:	2380      	mov	r3, #128
    d684:	035b      	lsl	r3, r3, #13
    d686:	465a      	mov	r2, fp
    d688:	4319      	orr	r1, r3
    d68a:	07d2      	lsl	r2, r2, #31
    d68c:	d505      	bpl	d69a <__ieee754_sqrt+0x62>
    d68e:	4663      	mov	r3, ip
    d690:	402b      	and	r3, r5
    d692:	0fdb      	lsr	r3, r3, #31
    d694:	185b      	add	r3, r3, r1
    d696:	18c9      	add	r1, r1, r3
    d698:	006d      	lsl	r5, r5, #1
    d69a:	465b      	mov	r3, fp
    d69c:	105b      	asr	r3, r3, #1
    d69e:	469b      	mov	fp, r3
    d6a0:	4663      	mov	r3, ip
    d6a2:	402b      	and	r3, r5
    d6a4:	0fdb      	lsr	r3, r3, #31
    d6a6:	2600      	mov	r6, #0
    d6a8:	185b      	add	r3, r3, r1
    d6aa:	2400      	mov	r4, #0
    d6ac:	2080      	mov	r0, #128
    d6ae:	18c9      	add	r1, r1, r3
    d6b0:	006d      	lsl	r5, r5, #1
    d6b2:	46a0      	mov	r8, r4
    d6b4:	46b2      	mov	sl, r6
    d6b6:	46b1      	mov	r9, r6
    d6b8:	0380      	lsl	r0, r0, #14
    d6ba:	1832      	add	r2, r6, r0
    d6bc:	428a      	cmp	r2, r1
    d6be:	dc02      	bgt	d6c6 <__ieee754_sqrt+0x8e>
    d6c0:	1816      	add	r6, r2, r0
    d6c2:	1a89      	sub	r1, r1, r2
    d6c4:	4481      	add	r9, r0
    d6c6:	4663      	mov	r3, ip
    d6c8:	402b      	and	r3, r5
    d6ca:	0fdb      	lsr	r3, r3, #31
    d6cc:	185b      	add	r3, r3, r1
    d6ce:	0840      	lsr	r0, r0, #1
    d6d0:	18c9      	add	r1, r1, r3
    d6d2:	006d      	lsl	r5, r5, #1
    d6d4:	2800      	cmp	r0, #0
    d6d6:	d1f0      	bne	d6ba <__ieee754_sqrt+0x82>
    d6d8:	2080      	mov	r0, #128
    d6da:	0600      	lsl	r0, r0, #24
    d6dc:	e00b      	b	d6f6 <__ieee754_sqrt+0xbe>
    d6de:	428e      	cmp	r6, r1
    d6e0:	d100      	bne	d6e4 <__ieee754_sqrt+0xac>
    d6e2:	e072      	b	d7ca <__ieee754_sqrt+0x192>
    d6e4:	4663      	mov	r3, ip
    d6e6:	402b      	and	r3, r5
    d6e8:	0fdb      	lsr	r3, r3, #31
    d6ea:	185b      	add	r3, r3, r1
    d6ec:	0840      	lsr	r0, r0, #1
    d6ee:	18c9      	add	r1, r1, r3
    d6f0:	006d      	lsl	r5, r5, #1
    d6f2:	2800      	cmp	r0, #0
    d6f4:	d019      	beq	d72a <__ieee754_sqrt+0xf2>
    d6f6:	4647      	mov	r7, r8
    d6f8:	183c      	add	r4, r7, r0
    d6fa:	1c32      	mov	r2, r6		(add r2, r6, #0)
    d6fc:	428e      	cmp	r6, r1
    d6fe:	daee      	bge	d6de <__ieee754_sqrt+0xa6>
    d700:	1823      	add	r3, r4, r0
    d702:	4698      	mov	r8, r3
    d704:	4663      	mov	r3, ip
    d706:	4023      	and	r3, r4
    d708:	4563      	cmp	r3, ip
    d70a:	d058      	beq	d7be <__ieee754_sqrt+0x186>
    d70c:	1a89      	sub	r1, r1, r2
    d70e:	42a5      	cmp	r5, r4
    d710:	d200      	bcs	d714 <__ieee754_sqrt+0xdc>
    d712:	3901      	sub	r1, #1
    d714:	1b2d      	sub	r5, r5, r4
    d716:	4663      	mov	r3, ip
    d718:	402b      	and	r3, r5
    d71a:	0fdb      	lsr	r3, r3, #31
    d71c:	4482      	add	sl, r0
    d71e:	185b      	add	r3, r3, r1
    d720:	0840      	lsr	r0, r0, #1
    d722:	18c9      	add	r1, r1, r3
    d724:	006d      	lsl	r5, r5, #1
    d726:	2800      	cmp	r0, #0
    d728:	d1e5      	bne	d6f6 <__ieee754_sqrt+0xbe>
    d72a:	4329      	orr	r1, r5
    d72c:	d006      	beq	d73c <__ieee754_sqrt+0x104>
    d72e:	4654      	mov	r4, sl
    d730:	3401      	add	r4, #1
    d732:	d055      	beq	d7e0 <__ieee754_sqrt+0x1a8>
    d734:	4652      	mov	r2, sl
    d736:	2301      	mov	r3, #1
    d738:	4013      	and	r3, r2
    d73a:	449a      	add	sl, r3
    d73c:	464c      	mov	r4, r9
    d73e:	4f35      	ldr	r7, [pc, #212]	(d814 <.text+0xd814>)
    d740:	1063      	asr	r3, r4, #1
    d742:	4650      	mov	r0, sl
    d744:	19d9      	add	r1, r3, r7
    d746:	0845      	lsr	r5, r0, #1
    d748:	07e4      	lsl	r4, r4, #31
    d74a:	d501      	bpl	d750 <__ieee754_sqrt+0x118>
    d74c:	4662      	mov	r2, ip
    d74e:	4315      	orr	r5, r2
    d750:	465c      	mov	r4, fp
    d752:	0523      	lsl	r3, r4, #20
    d754:	18c9      	add	r1, r1, r3
    d756:	9100      	str	r1, [sp, #0]
    d758:	9501      	str	r5, [sp, #4]
    d75a:	9800      	ldr	r0, [sp, #0]
    d75c:	9901      	ldr	r1, [sp, #4]
    d75e:	e025      	b	d7ac <__ieee754_sqrt+0x174>
    d760:	2900      	cmp	r1, #0
    d762:	d106      	bne	d772 <__ieee754_sqrt+0x13a>
    d764:	2015      	mov	r0, #21
    d766:	4240      	neg	r0, r0
    d768:	0aeb      	lsr	r3, r5, #11
    d76a:	4483      	add	fp, r0
    d76c:	056d      	lsl	r5, r5, #21
    d76e:	4319      	orr	r1, r3
    d770:	d0f8      	beq	d764 <__ieee754_sqrt+0x12c>
    d772:	2380      	mov	r3, #128
    d774:	2200      	mov	r2, #0
    d776:	035b      	lsl	r3, r3, #13
    d778:	e001      	b	d77e <__ieee754_sqrt+0x146>
    d77a:	0049      	lsl	r1, r1, #1
    d77c:	3201      	add	r2, #1
    d77e:	4219      	tst	r1, r3
    d780:	d0fb      	beq	d77a <__ieee754_sqrt+0x142>
    d782:	465c      	mov	r4, fp
    d784:	1aa3      	sub	r3, r4, r2
    d786:	3301      	add	r3, #1
    d788:	469b      	mov	fp, r3
    d78a:	2320      	mov	r3, #32
    d78c:	1c2f      	mov	r7, r5		(add r7, r5, #0)
    d78e:	1a9b      	sub	r3, r3, r2
    d790:	40df      	lsr	r7, r3
    d792:	4339      	orr	r1, r7
    d794:	4095      	lsl	r5, r2
    d796:	e770      	b	d67a <__ieee754_sqrt+0x42>
    d798:	1c3b      	mov	r3, r7		(add r3, r7, #0)
    d79a:	1c32      	mov	r2, r6		(add r2, r6, #0)
    d79c:	1c39      	mov	r1, r7		(add r1, r7, #0)
    d79e:	1c30      	mov	r0, r6		(add r0, r6, #0)
    d7a0:	f892f002 	bl	f8c8 <____muldf3_from_thumb>
    d7a4:	1c3b      	mov	r3, r7		(add r3, r7, #0)
    d7a6:	1c32      	mov	r2, r6		(add r2, r6, #0)
    d7a8:	f88af002 	bl	f8c0 <____adddf3_from_thumb>
    d7ac:	b002      	add	sp, #8
    d7ae:	bc78      	pop	{r3, r4, r5, r6}
    d7b0:	4698      	mov	r8, r3
    d7b2:	46a1      	mov	r9, r4
    d7b4:	46aa      	mov	sl, r5
    d7b6:	46b3      	mov	fp, r6
    d7b8:	bcf0      	pop	{r4, r5, r6, r7}
    d7ba:	bc04      	pop	{r2}
    d7bc:	4710      	bx	r2
    d7be:	4647      	mov	r7, r8
    d7c0:	4663      	mov	r3, ip
    d7c2:	421f      	tst	r7, r3
    d7c4:	d1a2      	bne	d70c <__ieee754_sqrt+0xd4>
    d7c6:	1c56      	add	r6, r2, #1
    d7c8:	e7a0      	b	d70c <__ieee754_sqrt+0xd4>
    d7ca:	42ac      	cmp	r4, r5
    d7cc:	d900      	bls	d7d0 <__ieee754_sqrt+0x198>
    d7ce:	e789      	b	d6e4 <__ieee754_sqrt+0xac>
    d7d0:	e796      	b	d700 <__ieee754_sqrt+0xc8>
    d7d2:	4b11      	ldr	r3, [pc, #68]	(d818 <.text+0xd818>)
    d7d4:	4003      	and	r3, r0
    d7d6:	4323      	orr	r3, r4
    d7d8:	d107      	bne	d7ea <__ieee754_sqrt+0x1b2>
    d7da:	1c39      	mov	r1, r7		(add r1, r7, #0)
    d7dc:	1c30      	mov	r0, r6		(add r0, r6, #0)
    d7de:	e7e5      	b	d7ac <__ieee754_sqrt+0x174>
    d7e0:	2700      	mov	r7, #0
    d7e2:	2001      	mov	r0, #1
    d7e4:	46ba      	mov	sl, r7
    d7e6:	4481      	add	r9, r0
    d7e8:	e7a8      	b	d73c <__ieee754_sqrt+0x104>
    d7ea:	2800      	cmp	r0, #0
    d7ec:	db00      	blt	d7f0 <__ieee754_sqrt+0x1b8>
    d7ee:	e740      	b	d672 <__ieee754_sqrt+0x3a>
    d7f0:	1c3b      	mov	r3, r7		(add r3, r7, #0)
    d7f2:	1c32      	mov	r2, r6		(add r2, r6, #0)
    d7f4:	1c39      	mov	r1, r7		(add r1, r7, #0)
    d7f6:	1c30      	mov	r0, r6		(add r0, r6, #0)
    d7f8:	f86af002 	bl	f8d0 <____subdf3_from_thumb>
    d7fc:	1c0b      	mov	r3, r1		(add r3, r1, #0)
    d7fe:	1c02      	mov	r2, r0		(add r2, r0, #0)
    d800:	f86ef002 	bl	f8e0 <____divdf3_from_thumb>
    d804:	e7d2      	b	d7ac <__ieee754_sqrt+0x174>
    d806:	0000      	lsl	r0, r0, #0
    d808:	0000      	lsl	r0, r0, #0
    d80a:	7ff0      	ldrb	r0, [r6, #31]
    d80c:	ffff      	second half of BL instruction 0xffff
    d80e:	000f      	lsl	r7, r1, #0
    d810:	fc01      	second half of BL instruction 0xfc01
    d812:	ffff      	second half of BL instruction 0xffff
    d814:	0000      	lsl	r0, r0, #0
    d816:	3fe0      	sub	r7, #224
    d818:	ffff      	second half of BL instruction 0xffff
    d81a:	7fff      	ldrb	r7, [r7, #31]

0000d81c <__kernel_cos>:
    d81c:	b5f0      	push	{r4, r5, r6, r7, lr}
    d81e:	4647      	mov	r7, r8
    d820:	b480      	push	{r7}
    d822:	b08e      	sub	sp, #56
    d824:	2400      	mov	r4, #0
    d826:	2500      	mov	r5, #0
    d828:	9404      	str	r4, [sp, #16]
    d82a:	9505      	str	r5, [sp, #20]
    d82c:	4d5e      	ldr	r5, [pc, #376]	(d9a8 <.text+0xd9a8>)
    d82e:	920c      	str	r2, [sp, #48]
    d830:	930d      	str	r3, [sp, #52]
    d832:	1c2a      	mov	r2, r5		(add r2, r5, #0)
    d834:	4002      	and	r2, r0
    d836:	4b5d      	ldr	r3, [pc, #372]	(d9ac <.text+0xd9ac>)
    d838:	4690      	mov	r8, r2
    d83a:	1c0f      	mov	r7, r1		(add r7, r1, #0)
    d83c:	1c06      	mov	r6, r0		(add r6, r0, #0)
    d83e:	4598      	cmp	r8, r3
    d840:	dc04      	bgt	d84c <__kernel_cos+0x30>
    d842:	f859f002 	bl	f8f8 <____fixdfsi_from_thumb>
    d846:	2800      	cmp	r0, #0
    d848:	d100      	bne	d84c <__kernel_cos+0x30>
    d84a:	e0a9      	b	d9a0 <__kernel_cos+0x184>
    d84c:	1c3b      	mov	r3, r7		(add r3, r7, #0)
    d84e:	1c32      	mov	r2, r6		(add r2, r6, #0)
    d850:	1c39      	mov	r1, r7		(add r1, r7, #0)
    d852:	1c30      	mov	r0, r6		(add r0, r6, #0)
    d854:	f838f002 	bl	f8c8 <____muldf3_from_thumb>
    d858:	4a55      	ldr	r2, [pc, #340]	(d9b0 <.text+0xd9b0>)
    d85a:	4b56      	ldr	r3, [pc, #344]	(d9b4 <.text+0xd9b4>)
    d85c:	1c0d      	mov	r5, r1		(add r5, r1, #0)
    d85e:	1c04      	mov	r4, r0		(add r4, r0, #0)
    d860:	f832f002 	bl	f8c8 <____muldf3_from_thumb>
    d864:	4a54      	ldr	r2, [pc, #336]	(d9b8 <.text+0xd9b8>)
    d866:	4b55      	ldr	r3, [pc, #340]	(d9bc <.text+0xd9bc>)
    d868:	f82af002 	bl	f8c0 <____adddf3_from_thumb>
    d86c:	1c2b      	mov	r3, r5		(add r3, r5, #0)
    d86e:	1c22      	mov	r2, r4		(add r2, r4, #0)
    d870:	f82af002 	bl	f8c8 <____muldf3_from_thumb>
    d874:	4a52      	ldr	r2, [pc, #328]	(d9c0 <.text+0xd9c0>)
    d876:	4b53      	ldr	r3, [pc, #332]	(d9c4 <.text+0xd9c4>)
    d878:	f822f002 	bl	f8c0 <____adddf3_from_thumb>
    d87c:	1c2b      	mov	r3, r5		(add r3, r5, #0)
    d87e:	1c22      	mov	r2, r4		(add r2, r4, #0)
    d880:	f822f002 	bl	f8c8 <____muldf3_from_thumb>
    d884:	4a50      	ldr	r2, [pc, #320]	(d9c8 <.text+0xd9c8>)
    d886:	4b51      	ldr	r3, [pc, #324]	(d9cc <.text+0xd9cc>)
    d888:	f81af002 	bl	f8c0 <____adddf3_from_thumb>
    d88c:	1c2b      	mov	r3, r5		(add r3, r5, #0)
    d88e:	1c22      	mov	r2, r4		(add r2, r4, #0)
    d890:	f81af002 	bl	f8c8 <____muldf3_from_thumb>
    d894:	4a4e      	ldr	r2, [pc, #312]	(d9d0 <.text+0xd9d0>)
    d896:	4b4f      	ldr	r3, [pc, #316]	(d9d4 <.text+0xd9d4>)
    d898:	f812f002 	bl	f8c0 <____adddf3_from_thumb>
    d89c:	1c2b      	mov	r3, r5		(add r3, r5, #0)
    d89e:	1c22      	mov	r2, r4		(add r2, r4, #0)
    d8a0:	f812f002 	bl	f8c8 <____muldf3_from_thumb>
    d8a4:	4a4c      	ldr	r2, [pc, #304]	(d9d8 <.text+0xd9d8>)
    d8a6:	4b4d      	ldr	r3, [pc, #308]	(d9dc <.text+0xd9dc>)
    d8a8:	f80af002 	bl	f8c0 <____adddf3_from_thumb>
    d8ac:	1c2b      	mov	r3, r5		(add r3, r5, #0)
    d8ae:	1c22      	mov	r2, r4		(add r2, r4, #0)
    d8b0:	f80af002 	bl	f8c8 <____muldf3_from_thumb>
    d8b4:	4b4a      	ldr	r3, [pc, #296]	(d9e0 <.text+0xd9e0>)
    d8b6:	900a      	str	r0, [sp, #40]
    d8b8:	910b      	str	r1, [sp, #44]
    d8ba:	4598      	cmp	r8, r3
    d8bc:	dd41      	ble	d942 <__kernel_cos+0x126>
    d8be:	4b49      	ldr	r3, [pc, #292]	(d9e4 <.text+0xd9e4>)
    d8c0:	4598      	cmp	r8, r3
    d8c2:	dc00      	bgt	d8c6 <__kernel_cos+0xaa>
    d8c4:	e064      	b	d990 <__kernel_cos+0x174>
    d8c6:	4a48      	ldr	r2, [pc, #288]	(d9e8 <.text+0xd9e8>)
    d8c8:	4b48      	ldr	r3, [pc, #288]	(d9ec <.text+0xd9ec>)
    d8ca:	9208      	str	r2, [sp, #32]
    d8cc:	9309      	str	r3, [sp, #36]
    d8ce:	1c29      	mov	r1, r5		(add r1, r5, #0)
    d8d0:	1c20      	mov	r0, r4		(add r0, r4, #0)
    d8d2:	4a47      	ldr	r2, [pc, #284]	(d9f0 <.text+0xd9f0>)
    d8d4:	4b47      	ldr	r3, [pc, #284]	(d9f4 <.text+0xd9f4>)
    d8d6:	fff7f001 	bl	f8c8 <____muldf3_from_thumb>
    d8da:	9a08      	ldr	r2, [sp, #32]
    d8dc:	9b09      	ldr	r3, [sp, #36]
    d8de:	fff7f001 	bl	f8d0 <____subdf3_from_thumb>
    d8e2:	9a08      	ldr	r2, [sp, #32]
    d8e4:	9b09      	ldr	r3, [sp, #36]
    d8e6:	9002      	str	r0, [sp, #8]
    d8e8:	9103      	str	r1, [sp, #12]
    d8ea:	4843      	ldr	r0, [pc, #268]	(d9f8 <.text+0xd9f8>)
    d8ec:	4943      	ldr	r1, [pc, #268]	(d9fc <.text+0xd9fc>)
    d8ee:	ffeff001 	bl	f8d0 <____subdf3_from_thumb>
    d8f2:	9a0a      	ldr	r2, [sp, #40]
    d8f4:	9b0b      	ldr	r3, [sp, #44]
    d8f6:	9000      	str	r0, [sp, #0]
    d8f8:	9101      	str	r1, [sp, #4]
    d8fa:	1c29      	mov	r1, r5		(add r1, r5, #0)
    d8fc:	1c20      	mov	r0, r4		(add r0, r4, #0)
    d8fe:	ffe3f001 	bl	f8c8 <____muldf3_from_thumb>
    d902:	9a0c      	ldr	r2, [sp, #48]
    d904:	9b0d      	ldr	r3, [sp, #52]
    d906:	1c0d      	mov	r5, r1		(add r5, r1, #0)
    d908:	1c04      	mov	r4, r0		(add r4, r0, #0)
    d90a:	1c39      	mov	r1, r7		(add r1, r7, #0)
    d90c:	1c30      	mov	r0, r6		(add r0, r6, #0)
    d90e:	ffdbf001 	bl	f8c8 <____muldf3_from_thumb>
    d912:	1c0b      	mov	r3, r1		(add r3, r1, #0)
    d914:	1c02      	mov	r2, r0		(add r2, r0, #0)
    d916:	1c29      	mov	r1, r5		(add r1, r5, #0)
    d918:	1c20      	mov	r0, r4		(add r0, r4, #0)
    d91a:	ffd9f001 	bl	f8d0 <____subdf3_from_thumb>
    d91e:	1c0b      	mov	r3, r1		(add r3, r1, #0)
    d920:	1c02      	mov	r2, r0		(add r2, r0, #0)
    d922:	9802      	ldr	r0, [sp, #8]
    d924:	9903      	ldr	r1, [sp, #12]
    d926:	ffd3f001 	bl	f8d0 <____subdf3_from_thumb>
    d92a:	1c0b      	mov	r3, r1		(add r3, r1, #0)
    d92c:	1c02      	mov	r2, r0		(add r2, r0, #0)
    d92e:	9800      	ldr	r0, [sp, #0]
    d930:	9901      	ldr	r1, [sp, #4]
    d932:	ffcdf001 	bl	f8d0 <____subdf3_from_thumb>
    d936:	b00e      	add	sp, #56
    d938:	bc08      	pop	{r3}
    d93a:	4698      	mov	r8, r3
    d93c:	bcf0      	pop	{r4, r5, r6, r7}
    d93e:	bc04      	pop	{r2}
    d940:	4710      	bx	r2
    d942:	1c29      	mov	r1, r5		(add r1, r5, #0)
    d944:	1c20      	mov	r0, r4		(add r0, r4, #0)
    d946:	4a2a      	ldr	r2, [pc, #168]	(d9f0 <.text+0xd9f0>)
    d948:	4b2a      	ldr	r3, [pc, #168]	(d9f4 <.text+0xd9f4>)
    d94a:	ffbdf001 	bl	f8c8 <____muldf3_from_thumb>
    d94e:	9a0a      	ldr	r2, [sp, #40]
    d950:	9b0b      	ldr	r3, [sp, #44]
    d952:	9006      	str	r0, [sp, #24]
    d954:	9107      	str	r1, [sp, #28]
    d956:	1c29      	mov	r1, r5		(add r1, r5, #0)
    d958:	1c20      	mov	r0, r4		(add r0, r4, #0)
    d95a:	ffb5f001 	bl	f8c8 <____muldf3_from_thumb>
    d95e:	9a0c      	ldr	r2, [sp, #48]
    d960:	9b0d      	ldr	r3, [sp, #52]
    d962:	1c0d      	mov	r5, r1		(add r5, r1, #0)
    d964:	1c04      	mov	r4, r0		(add r4, r0, #0)
    d966:	1c39      	mov	r1, r7		(add r1, r7, #0)
    d968:	1c30      	mov	r0, r6		(add r0, r6, #0)
    d96a:	ffadf001 	bl	f8c8 <____muldf3_from_thumb>
    d96e:	1c0b      	mov	r3, r1		(add r3, r1, #0)
    d970:	1c02      	mov	r2, r0		(add r2, r0, #0)
    d972:	1c29      	mov	r1, r5		(add r1, r5, #0)
    d974:	1c20      	mov	r0, r4		(add r0, r4, #0)
    d976:	ffabf001 	bl	f8d0 <____subdf3_from_thumb>
    d97a:	1c0b      	mov	r3, r1		(add r3, r1, #0)
    d97c:	1c02      	mov	r2, r0		(add r2, r0, #0)
    d97e:	9806      	ldr	r0, [sp, #24]
    d980:	9907      	ldr	r1, [sp, #28]
    d982:	ffa5f001 	bl	f8d0 <____subdf3_from_thumb>
    d986:	1c0b      	mov	r3, r1		(add r3, r1, #0)
    d988:	1c02      	mov	r2, r0		(add r2, r0, #0)
    d98a:	481b      	ldr	r0, [pc, #108]	(d9f8 <.text+0xd9f8>)
    d98c:	491b      	ldr	r1, [pc, #108]	(d9fc <.text+0xd9fc>)
    d98e:	e7d0      	b	d932 <__kernel_cos+0x116>
    d990:	4b1b      	ldr	r3, [pc, #108]	(da00 <.text+0xda00>)
    d992:	2200      	mov	r2, #0
    d994:	4443      	add	r3, r8
    d996:	9304      	str	r3, [sp, #16]
    d998:	9205      	str	r2, [sp, #20]
    d99a:	9a04      	ldr	r2, [sp, #16]
    d99c:	9b05      	ldr	r3, [sp, #20]
    d99e:	e794      	b	d8ca <__kernel_cos+0xae>
    d9a0:	4815      	ldr	r0, [pc, #84]	(d9f8 <.text+0xd9f8>)
    d9a2:	4916      	ldr	r1, [pc, #88]	(d9fc <.text+0xd9fc>)
    d9a4:	e7c7      	b	d936 <__kernel_cos+0x11a>
    d9a6:	0000      	lsl	r0, r0, #0
    d9a8:	ffff      	second half of BL instruction 0xffff
    d9aa:	7fff      	ldrb	r7, [r7, #31]
    d9ac:	ffff      	second half of BL instruction 0xffff
    d9ae:	3e3f      	sub	r6, #63
    d9b0:	fae9      	second half of BL instruction 0xfae9
    d9b2:	bda8      	pop	{r3, r5, r7, pc}
    d9b4:	38d4      	sub	r0, #212
    d9b6:	be88      	bkpt	0x0088
    d9b8:	ee9e      	undefined
    d9ba:	3e21      	sub	r6, #33
    d9bc:	b1c4      	undefined instruction 0xb1c4
    d9be:	bdb4      	pop	{r2, r4, r5, r7, pc}
    d9c0:	7e4f      	ldrb	r7, [r1, #25]
    d9c2:	be92      	bkpt	0x0092
    d9c4:	52ad      	strh	r5, [r5, r2]
    d9c6:	809c      	strh	r4, [r3, #4]
    d9c8:	01a0      	lsl	r0, r4, #6
    d9ca:	3efa      	sub	r6, #250
    d9cc:	1590      	asr	r0, r2, #22
    d9ce:	19cb      	add	r3, r1, r7
    d9d0:	c16c      	stmia	r1!,{r2, r3, r5, r6}
    d9d2:	bf56      	undefined instruction 0xbf56
    d9d4:	5177      	str	r7, [r6, r5]
    d9d6:	16c1      	asr	r1, r0, #27
    d9d8:	5555      	strb	r5, [r2, r5]
    d9da:	3fa5      	sub	r7, #165
    d9dc:	554c      	strb	r4, [r1, r5]
    d9de:	5555      	strb	r5, [r2, r5]
    d9e0:	3332      	add	r3, #50
    d9e2:	3fd3      	sub	r7, #211
    d9e4:	0000      	lsl	r0, r0, #0
    d9e6:	3fe9      	sub	r7, #233
    d9e8:	0000      	lsl	r0, r0, #0
    d9ea:	3fd2      	sub	r7, #210
    d9ec:	0000      	lsl	r0, r0, #0
    d9ee:	0000      	lsl	r0, r0, #0
    d9f0:	0000      	lsl	r0, r0, #0
    d9f2:	3fe0      	sub	r7, #224
    d9f4:	0000      	lsl	r0, r0, #0
    d9f6:	0000      	lsl	r0, r0, #0
    d9f8:	0000      	lsl	r0, r0, #0
    d9fa:	3ff0      	sub	r7, #240
    d9fc:	0000      	lsl	r0, r0, #0
    d9fe:	0000      	lsl	r0, r0, #0
    da00:	0000      	lsl	r0, r0, #0
    da02:	ffe0      	second half of BL instruction 0xffe0

0000da04 <__kernel_rem_pio2>:
    da04:	b5f0      	push	{r4, r5, r6, r7, lr}
    da06:	465f      	mov	r7, fp
    da08:	4656      	mov	r6, sl
    da0a:	464d      	mov	r5, r9
    da0c:	4644      	mov	r4, r8
    da0e:	b4f0      	push	{r4, r5, r6, r7}
    da10:	4cc5      	ldr	r4, [pc, #788]	(dd28 <.text+0xdd28>)
    da12:	44a5      	add	sp, r4
    da14:	1c14      	mov	r4, r2		(add r4, r2, #0)
    da16:	9a9f      	ldr	r2, [sp, #636]
    da18:	9108      	str	r1, [sp, #32]
    da1a:	0091      	lsl	r1, r2, #2
    da1c:	4ac3      	ldr	r2, [pc, #780]	(dd2c <.text+0xdd2c>)
    da1e:	5889      	ldr	r1, [r1, r2]
    da20:	9009      	str	r0, [sp, #36]
    da22:	9105      	str	r1, [sp, #20]
    da24:	3b01      	sub	r3, #1
    da26:	1ee0      	sub	r0, r4, #3
    da28:	2118      	mov	r1, #24
    da2a:	9307      	str	r3, [sp, #28]
    da2c:	fdeaf000 	bl	e604 <__divsi3>
    da30:	2800      	cmp	r0, #0
    da32:	9006      	str	r0, [sp, #24]
    da34:	da00      	bge	da38 <__kernel_rem_pio2+0x34>
    da36:	e172      	b	dd1e <__kernel_rem_pio2+0x31a>
    da38:	9906      	ldr	r1, [sp, #24]
    da3a:	004b      	lsl	r3, r1, #1
    da3c:	185b      	add	r3, r3, r1
    da3e:	00db      	lsl	r3, r3, #3
    da40:	1ae3      	sub	r3, r4, r3
    da42:	3b18      	sub	r3, #24
    da44:	9304      	str	r3, [sp, #16]
    da46:	9a07      	ldr	r2, [sp, #28]
    da48:	9b05      	ldr	r3, [sp, #20]
    da4a:	1a8e      	sub	r6, r1, r2
    da4c:	18d2      	add	r2, r2, r3
    da4e:	d418      	bmi	da82 <__kernel_rem_pio2+0x7e>
    da50:	99a0      	ldr	r1, [sp, #640]
    da52:	00b3      	lsl	r3, r6, #2
    da54:	185c      	add	r4, r3, r1
    da56:	ad5a      	add	r5, sp, #360
    da58:	1c57      	add	r7, r2, #1
    da5a:	e008      	b	da6e <__kernel_rem_pio2+0x6a>
    da5c:	6820      	ldr	r0, [r4, #0]
    da5e:	ff4ff001 	bl	f900 <____floatsidf_from_thumb>
    da62:	3f01      	sub	r7, #1
    da64:	c503      	stmia	r5!,{r0, r1}
    da66:	3601      	add	r6, #1
    da68:	3404      	add	r4, #4
    da6a:	2f00      	cmp	r7, #0
    da6c:	d009      	beq	da82 <__kernel_rem_pio2+0x7e>
    da6e:	2e00      	cmp	r6, #0
    da70:	daf4      	bge	da5c <__kernel_rem_pio2+0x58>
    da72:	48af      	ldr	r0, [pc, #700]	(dd30 <.text+0xdd30>)
    da74:	49af      	ldr	r1, [pc, #700]	(dd34 <.text+0xdd34>)
    da76:	3f01      	sub	r7, #1
    da78:	c503      	stmia	r5!,{r0, r1}
    da7a:	3601      	add	r6, #1
    da7c:	3404      	add	r4, #4
    da7e:	2f00      	cmp	r7, #0
    da80:	d1f5      	bne	da6e <__kernel_rem_pio2+0x6a>
    da82:	9a05      	ldr	r2, [sp, #20]
    da84:	2700      	mov	r7, #0
    da86:	2a00      	cmp	r2, #0
    da88:	db2f      	blt	daea <__kernel_rem_pio2+0xe6>
    da8a:	23b4      	mov	r3, #180
    da8c:	005b      	lsl	r3, r3, #1
    da8e:	446b      	add	r3, sp
    da90:	ac0a      	add	r4, sp, #40
    da92:	469a      	mov	sl, r3
    da94:	46a0      	mov	r8, r4
    da96:	49a6      	ldr	r1, [pc, #664]	(dd30 <.text+0xdd30>)
    da98:	4aa6      	ldr	r2, [pc, #664]	(dd34 <.text+0xdd34>)
    da9a:	9100      	str	r1, [sp, #0]
    da9c:	9201      	str	r2, [sp, #4]
    da9e:	9a07      	ldr	r2, [sp, #28]
    daa0:	2a00      	cmp	r2, #0
    daa2:	db17      	blt	dad4 <__kernel_rem_pio2+0xd0>
    daa4:	19d5      	add	r5, r2, r7
    daa6:	00eb      	lsl	r3, r5, #3
    daa8:	4651      	mov	r1, sl
    daaa:	1c16      	mov	r6, r2		(add r6, r2, #0)
    daac:	9d09      	ldr	r5, [sp, #36]
    daae:	185c      	add	r4, r3, r1
    dab0:	3601      	add	r6, #1
    dab2:	6822      	ldr	r2, [r4, #0]
    dab4:	6863      	ldr	r3, [r4, #4]
    dab6:	cd03      	ldmia	r5!,{r0, r1}
    dab8:	ff06f001 	bl	f8c8 <____muldf3_from_thumb>
    dabc:	1c0b      	mov	r3, r1		(add r3, r1, #0)
    dabe:	1c02      	mov	r2, r0		(add r2, r0, #0)
    dac0:	9800      	ldr	r0, [sp, #0]
    dac2:	9901      	ldr	r1, [sp, #4]
    dac4:	fefcf001 	bl	f8c0 <____adddf3_from_thumb>
    dac8:	3e01      	sub	r6, #1
    daca:	3c08      	sub	r4, #8
    dacc:	9000      	str	r0, [sp, #0]
    dace:	9101      	str	r1, [sp, #4]
    dad0:	2e00      	cmp	r6, #0
    dad2:	d1ee      	bne	dab2 <__kernel_rem_pio2+0xae>
    dad4:	4644      	mov	r4, r8
    dad6:	3408      	add	r4, #8
    dad8:	9a00      	ldr	r2, [sp, #0]
    dada:	9b01      	ldr	r3, [sp, #4]
    dadc:	9905      	ldr	r1, [sp, #20]
    dade:	46a0      	mov	r8, r4
    dae0:	3701      	add	r7, #1
    dae2:	3c08      	sub	r4, #8
    dae4:	c40c      	stmia	r4!,{r2, r3}
    dae6:	428f      	cmp	r7, r1
    dae8:	ddd5      	ble	da96 <__kernel_rem_pio2+0x92>
    daea:	9a05      	ldr	r2, [sp, #20]
    daec:	4692      	mov	sl, r2
    daee:	4656      	mov	r6, sl
    daf0:	00f3      	lsl	r3, r6, #3
    daf2:	ac0a      	add	r4, sp, #40
    daf4:	1918      	add	r0, r3, r4
    daf6:	6801      	ldr	r1, [r0, #0]
    daf8:	6842      	ldr	r2, [r0, #4]
    dafa:	9102      	str	r1, [sp, #8]
    dafc:	9203      	str	r2, [sp, #12]
    dafe:	2e00      	cmp	r6, #0
    db00:	dd27      	ble	db52 <__kernel_rem_pio2+0x14e>
    db02:	1c04      	mov	r4, r0		(add r4, r0, #0)
    db04:	3c08      	sub	r4, #8
    db06:	ad82      	add	r5, sp, #520
    db08:	4a8b      	ldr	r2, [pc, #556]	(dd38 <.text+0xdd38>)
    db0a:	4b8c      	ldr	r3, [pc, #560]	(dd3c <.text+0xdd3c>)
    db0c:	9802      	ldr	r0, [sp, #8]
    db0e:	9903      	ldr	r1, [sp, #12]
    db10:	fedaf001 	bl	f8c8 <____muldf3_from_thumb>
    db14:	fef0f001 	bl	f8f8 <____fixdfsi_from_thumb>
    db18:	fef2f001 	bl	f900 <____floatsidf_from_thumb>
    db1c:	4a88      	ldr	r2, [pc, #544]	(dd40 <.text+0xdd40>)
    db1e:	4b89      	ldr	r3, [pc, #548]	(dd44 <.text+0xdd44>)
    db20:	9000      	str	r0, [sp, #0]
    db22:	9101      	str	r1, [sp, #4]
    db24:	fed0f001 	bl	f8c8 <____muldf3_from_thumb>
    db28:	1c0b      	mov	r3, r1		(add r3, r1, #0)
    db2a:	1c02      	mov	r2, r0		(add r2, r0, #0)
    db2c:	9802      	ldr	r0, [sp, #8]
    db2e:	9903      	ldr	r1, [sp, #12]
    db30:	fecef001 	bl	f8d0 <____subdf3_from_thumb>
    db34:	fee0f001 	bl	f8f8 <____fixdfsi_from_thumb>
    db38:	9a00      	ldr	r2, [sp, #0]
    db3a:	9b01      	ldr	r3, [sp, #4]
    db3c:	c501      	stmia	r5!,{r0}
    db3e:	6820      	ldr	r0, [r4, #0]
    db40:	6861      	ldr	r1, [r4, #4]
    db42:	febdf001 	bl	f8c0 <____adddf3_from_thumb>
    db46:	3e01      	sub	r6, #1
    db48:	3c08      	sub	r4, #8
    db4a:	9002      	str	r0, [sp, #8]
    db4c:	9103      	str	r1, [sp, #12]
    db4e:	2e00      	cmp	r6, #0
    db50:	dcda      	bgt	db08 <__kernel_rem_pio2+0x104>
    db52:	9a04      	ldr	r2, [sp, #16]
    db54:	9802      	ldr	r0, [sp, #8]
    db56:	9903      	ldr	r1, [sp, #12]
    db58:	fcb0f000 	bl	e4bc <scalbn>
    db5c:	4a7a      	ldr	r2, [pc, #488]	(dd48 <.text+0xdd48>)
    db5e:	4b7b      	ldr	r3, [pc, #492]	(dd4c <.text+0xdd4c>)
    db60:	9002      	str	r0, [sp, #8]
    db62:	9103      	str	r1, [sp, #12]
    db64:	feb0f001 	bl	f8c8 <____muldf3_from_thumb>
    db68:	fbf0f000 	bl	e34c <floor>
    db6c:	4a78      	ldr	r2, [pc, #480]	(dd50 <.text+0xdd50>)
    db6e:	4b79      	ldr	r3, [pc, #484]	(dd54 <.text+0xdd54>)
    db70:	feaaf001 	bl	f8c8 <____muldf3_from_thumb>
    db74:	1c0b      	mov	r3, r1		(add r3, r1, #0)
    db76:	1c02      	mov	r2, r0		(add r2, r0, #0)
    db78:	9802      	ldr	r0, [sp, #8]
    db7a:	9903      	ldr	r1, [sp, #12]
    db7c:	fea8f001 	bl	f8d0 <____subdf3_from_thumb>
    db80:	9002      	str	r0, [sp, #8]
    db82:	9103      	str	r1, [sp, #12]
    db84:	feb8f001 	bl	f8f8 <____fixdfsi_from_thumb>
    db88:	4681      	mov	r9, r0
    db8a:	feb9f001 	bl	f900 <____floatsidf_from_thumb>
    db8e:	1c0b      	mov	r3, r1		(add r3, r1, #0)
    db90:	1c02      	mov	r2, r0		(add r2, r0, #0)
    db92:	9802      	ldr	r0, [sp, #8]
    db94:	9903      	ldr	r1, [sp, #12]
    db96:	fe9bf001 	bl	f8d0 <____subdf3_from_thumb>
    db9a:	9b04      	ldr	r3, [sp, #16]
    db9c:	2200      	mov	r2, #0
    db9e:	9002      	str	r0, [sp, #8]
    dba0:	9103      	str	r1, [sp, #12]
    dba2:	4693      	mov	fp, r2
    dba4:	2b00      	cmp	r3, #0
    dba6:	dc00      	bgt	dbaa <__kernel_rem_pio2+0x1a6>
    dba8:	e1cb      	b	df42 <.text+0xdf42>
    dbaa:	4654      	mov	r4, sl
    dbac:	00a1      	lsl	r1, r4, #2
    dbae:	aa82      	add	r2, sp, #520
    dbb0:	1889      	add	r1, r1, r2
    dbb2:	3904      	sub	r1, #4
    dbb4:	680a      	ldr	r2, [r1, #0]
    dbb6:	9c04      	ldr	r4, [sp, #16]
    dbb8:	2318      	mov	r3, #24
    dbba:	1b1b      	sub	r3, r3, r4
    dbbc:	1c17      	mov	r7, r2		(add r7, r2, #0)
    dbbe:	411f      	asr	r7, r3
    dbc0:	44b9      	add	r9, r7
    dbc2:	409f      	lsl	r7, r3
    dbc4:	2317      	mov	r3, #23
    dbc6:	1bd2      	sub	r2, r2, r7
    dbc8:	1b1b      	sub	r3, r3, r4
    dbca:	600a      	str	r2, [r1, #0]
    dbcc:	411a      	asr	r2, r3
    dbce:	4693      	mov	fp, r2
    dbd0:	465a      	mov	r2, fp
    dbd2:	2a00      	cmp	r2, #0
    dbd4:	dd24      	ble	dc20 <__kernel_rem_pio2+0x21c>
    dbd6:	2301      	mov	r3, #1
    dbd8:	4651      	mov	r1, sl
    dbda:	4499      	add	r9, r3
    dbdc:	2400      	mov	r4, #0
    dbde:	2900      	cmp	r1, #0
    dbe0:	dd11      	ble	dc06 <__kernel_rem_pio2+0x202>
    dbe2:	2180      	mov	r1, #128
    dbe4:	485c      	ldr	r0, [pc, #368]	(dd58 <.text+0xdd58>)
    dbe6:	0449      	lsl	r1, r1, #17
    dbe8:	aa82      	add	r2, sp, #520
    dbea:	4657      	mov	r7, sl
    dbec:	6816      	ldr	r6, [r2, #0]
    dbee:	2c00      	cmp	r4, #0
    dbf0:	d000      	beq	dbf4 <__kernel_rem_pio2+0x1f0>
    dbf2:	e097      	b	dd24 <__kernel_rem_pio2+0x320>
    dbf4:	2e00      	cmp	r6, #0
    dbf6:	d002      	beq	dbfe <__kernel_rem_pio2+0x1fa>
    dbf8:	2401      	mov	r4, #1
    dbfa:	1b8b      	sub	r3, r1, r6
    dbfc:	6013      	str	r3, [r2, #0]
    dbfe:	3f01      	sub	r7, #1
    dc00:	3204      	add	r2, #4
    dc02:	2f00      	cmp	r7, #0
    dc04:	d1f2      	bne	dbec <__kernel_rem_pio2+0x1e8>
    dc06:	9a04      	ldr	r2, [sp, #16]
    dc08:	2a00      	cmp	r2, #0
    dc0a:	dd05      	ble	dc18 <__kernel_rem_pio2+0x214>
    dc0c:	2a01      	cmp	r2, #1
    dc0e:	d100      	bne	dc12 <__kernel_rem_pio2+0x20e>
    dc10:	e1a3      	b	df5a <.text+0xdf5a>
    dc12:	2a02      	cmp	r2, #2
    dc14:	d100      	bne	dc18 <__kernel_rem_pio2+0x214>
    dc16:	e1aa      	b	df6e <.text+0xdf6e>
    dc18:	465b      	mov	r3, fp
    dc1a:	2b02      	cmp	r3, #2
    dc1c:	d100      	bne	dc20 <__kernel_rem_pio2+0x21c>
    dc1e:	e09d      	b	dd5c <.text+0xdd5c>
    dc20:	9802      	ldr	r0, [sp, #8]
    dc22:	9903      	ldr	r1, [sp, #12]
    dc24:	4a42      	ldr	r2, [pc, #264]	(dd30 <.text+0xdd30>)
    dc26:	4b43      	ldr	r3, [pc, #268]	(dd34 <.text+0xdd34>)
    dc28:	fe5ef001 	bl	f8e8 <____eqdf2_from_thumb>
    dc2c:	2800      	cmp	r0, #0
    dc2e:	d000      	beq	dc32 <__kernel_rem_pio2+0x22e>
    dc30:	e0b5      	b	dd9e <.text+0xdd9e>
    dc32:	4657      	mov	r7, sl
    dc34:	9c05      	ldr	r4, [sp, #20]
    dc36:	3f01      	sub	r7, #1
    dc38:	2600      	mov	r6, #0
    dc3a:	42a7      	cmp	r7, r4
    dc3c:	db0c      	blt	dc58 <__kernel_rem_pio2+0x254>
    dc3e:	00bb      	lsl	r3, r7, #2
    dc40:	a982      	add	r1, sp, #520
    dc42:	185a      	add	r2, r3, r1
    dc44:	6813      	ldr	r3, [r2, #0]
    dc46:	431e      	orr	r6, r3
    dc48:	9b05      	ldr	r3, [sp, #20]
    dc4a:	3f01      	sub	r7, #1
    dc4c:	3a04      	sub	r2, #4
    dc4e:	429f      	cmp	r7, r3
    dc50:	daf8      	bge	dc44 <__kernel_rem_pio2+0x240>
    dc52:	2e00      	cmp	r6, #0
    dc54:	d000      	beq	dc58 <__kernel_rem_pio2+0x254>
    dc56:	e0a2      	b	dd9e <.text+0xdd9e>
    dc58:	9b05      	ldr	r3, [sp, #20]
    dc5a:	2282      	mov	r2, #130
    dc5c:	3b01      	sub	r3, #1
    dc5e:	009b      	lsl	r3, r3, #2
    dc60:	0092      	lsl	r2, r2, #2
    dc62:	18d2      	add	r2, r2, r3
    dc64:	4669      	mov	r1, sp
    dc66:	5853      	ldr	r3, [r2, r1]
    dc68:	2401      	mov	r4, #1
    dc6a:	2b00      	cmp	r3, #0
    dc6c:	d109      	bne	dc82 <__kernel_rem_pio2+0x27e>
    dc6e:	9905      	ldr	r1, [sp, #20]
    dc70:	aa82      	add	r2, sp, #520
    dc72:	008b      	lsl	r3, r1, #2
    dc74:	189b      	add	r3, r3, r2
    dc76:	1f1a      	sub	r2, r3, #4
    dc78:	3a04      	sub	r2, #4
    dc7a:	6813      	ldr	r3, [r2, #0]
    dc7c:	3401      	add	r4, #1
    dc7e:	2b00      	cmp	r3, #0
    dc80:	d0fa      	beq	dc78 <__kernel_rem_pio2+0x274>
    dc82:	4657      	mov	r7, sl
    dc84:	4454      	add	r4, sl
    dc86:	3701      	add	r7, #1
    dc88:	46a0      	mov	r8, r4
    dc8a:	45b8      	cmp	r8, r7
    dc8c:	db45      	blt	dd1a <__kernel_rem_pio2+0x316>
    dc8e:	00fb      	lsl	r3, r7, #3
    dc90:	9907      	ldr	r1, [sp, #28]
    dc92:	ac0a      	add	r4, sp, #40
    dc94:	18e4      	add	r4, r4, r3
    dc96:	46a3      	mov	fp, r4
    dc98:	19cb      	add	r3, r1, r7
    dc9a:	9c06      	ldr	r4, [sp, #24]
    dc9c:	00db      	lsl	r3, r3, #3
    dc9e:	aa5a      	add	r2, sp, #360
    dca0:	18d2      	add	r2, r2, r3
    dca2:	99a0      	ldr	r1, [sp, #640]
    dca4:	19e3      	add	r3, r4, r7
    dca6:	009b      	lsl	r3, r3, #2
    dca8:	185b      	add	r3, r3, r1
    dcaa:	4691      	mov	r9, r2
    dcac:	469a      	mov	sl, r3
    dcae:	4653      	mov	r3, sl
    dcb0:	3304      	add	r3, #4
    dcb2:	9a07      	ldr	r2, [sp, #28]
    dcb4:	469a      	mov	sl, r3
    dcb6:	3b04      	sub	r3, #4
    dcb8:	cb01      	ldmia	r3!,{r0}
    dcba:	19d5      	add	r5, r2, r7
    dcbc:	fe20f001 	bl	f900 <____floatsidf_from_thumb>
    dcc0:	464c      	mov	r4, r9
    dcc2:	3408      	add	r4, #8
    dcc4:	46a1      	mov	r9, r4
    dcc6:	3c08      	sub	r4, #8
    dcc8:	c403      	stmia	r4!,{r0, r1}
    dcca:	4919      	ldr	r1, [pc, #100]	(dd30 <.text+0xdd30>)
    dccc:	4a19      	ldr	r2, [pc, #100]	(dd34 <.text+0xdd34>)
    dcce:	9100      	str	r1, [sp, #0]
    dcd0:	9201      	str	r2, [sp, #4]
    dcd2:	9a07      	ldr	r2, [sp, #28]
    dcd4:	2a00      	cmp	r2, #0
    dcd6:	db16      	blt	dd06 <__kernel_rem_pio2+0x302>
    dcd8:	ac5a      	add	r4, sp, #360
    dcda:	00eb      	lsl	r3, r5, #3
    dcdc:	191d      	add	r5, r3, r4
    dcde:	1c16      	mov	r6, r2		(add r6, r2, #0)
    dce0:	9c09      	ldr	r4, [sp, #36]
    dce2:	3601      	add	r6, #1
    dce4:	682a      	ldr	r2, [r5, #0]
    dce6:	686b      	ldr	r3, [r5, #4]
    dce8:	cc03      	ldmia	r4!,{r0, r1}
    dcea:	fdedf001 	bl	f8c8 <____muldf3_from_thumb>
    dcee:	1c0b      	mov	r3, r1		(add r3, r1, #0)
    dcf0:	1c02      	mov	r2, r0		(add r2, r0, #0)
    dcf2:	9800      	ldr	r0, [sp, #0]
    dcf4:	9901      	ldr	r1, [sp, #4]
    dcf6:	fde3f001 	bl	f8c0 <____adddf3_from_thumb>
    dcfa:	3e01      	sub	r6, #1
    dcfc:	3d08      	sub	r5, #8
    dcfe:	9000      	str	r0, [sp, #0]
    dd00:	9101      	str	r1, [sp, #4]
    dd02:	2e00      	cmp	r6, #0
    dd04:	d1ee      	bne	dce4 <__kernel_rem_pio2+0x2e0>
    dd06:	465b      	mov	r3, fp
    dd08:	3308      	add	r3, #8
    dd0a:	9900      	ldr	r1, [sp, #0]
    dd0c:	9a01      	ldr	r2, [sp, #4]
    dd0e:	469b      	mov	fp, r3
    dd10:	3701      	add	r7, #1
    dd12:	3b08      	sub	r3, #8
    dd14:	c306      	stmia	r3!,{r1, r2}
    dd16:	45b8      	cmp	r8, r7
    dd18:	dac9      	bge	dcae <__kernel_rem_pio2+0x2aa>
    dd1a:	46c2      	mov	sl, r8
    dd1c:	e6e7      	b	daee <__kernel_rem_pio2+0xea>
    dd1e:	2300      	mov	r3, #0
    dd20:	9306      	str	r3, [sp, #24]
    dd22:	e689      	b	da38 <__kernel_rem_pio2+0x34>
    dd24:	1b83      	sub	r3, r0, r6
    dd26:	e769      	b	dbfc <__kernel_rem_pio2+0x1f8>
    dd28:	fda8      	second half of BL instruction 0xfda8
    dd2a:	ffff      	second half of BL instruction 0xffff
    dd2c:	fb7c      	second half of BL instruction 0xfb7c
	...
    dd3a:	3e70      	sub	r6, #112
    dd3c:	0000      	lsl	r0, r0, #0
    dd3e:	0000      	lsl	r0, r0, #0
    dd40:	0000      	lsl	r0, r0, #0
    dd42:	4170      	adc	r0, r6
    dd44:	0000      	lsl	r0, r0, #0
    dd46:	0000      	lsl	r0, r0, #0
    dd48:	0000      	lsl	r0, r0, #0
    dd4a:	3fc0      	sub	r7, #192
    dd4c:	0000      	lsl	r0, r0, #0
    dd4e:	0000      	lsl	r0, r0, #0
    dd50:	0000      	lsl	r0, r0, #0
    dd52:	4020      	and	r0, r4
    dd54:	0000      	lsl	r0, r0, #0
    dd56:	0000      	lsl	r0, r0, #0
    dd58:	ffff      	second half of BL instruction 0xffff
    dd5a:	00ff      	lsl	r7, r7, #3
    dd5c:	9a02      	ldr	r2, [sp, #8]
    dd5e:	9b03      	ldr	r3, [sp, #12]
    dd60:	4990      	ldr	r1, [pc, #576]	(dfa4 <.text+0xdfa4>)
    dd62:	488f      	ldr	r0, [pc, #572]	(dfa0 <.text+0xdfa0>)
    dd64:	fdb4f001 	bl	f8d0 <____subdf3_from_thumb>
    dd68:	9002      	str	r0, [sp, #8]
    dd6a:	9103      	str	r1, [sp, #12]
    dd6c:	2c00      	cmp	r4, #0
    dd6e:	d100      	bne	dd72 <.text+0xdd72>
    dd70:	e756      	b	dc20 <__kernel_rem_pio2+0x21c>
    dd72:	9a04      	ldr	r2, [sp, #16]
    dd74:	498b      	ldr	r1, [pc, #556]	(dfa4 <.text+0xdfa4>)
    dd76:	488a      	ldr	r0, [pc, #552]	(dfa0 <.text+0xdfa0>)
    dd78:	fba0f000 	bl	e4bc <scalbn>
    dd7c:	1c0b      	mov	r3, r1		(add r3, r1, #0)
    dd7e:	1c02      	mov	r2, r0		(add r2, r0, #0)
    dd80:	9802      	ldr	r0, [sp, #8]
    dd82:	9903      	ldr	r1, [sp, #12]
    dd84:	fda4f001 	bl	f8d0 <____subdf3_from_thumb>
    dd88:	9002      	str	r0, [sp, #8]
    dd8a:	9103      	str	r1, [sp, #12]
    dd8c:	9802      	ldr	r0, [sp, #8]
    dd8e:	9903      	ldr	r1, [sp, #12]
    dd90:	4a85      	ldr	r2, [pc, #532]	(dfa8 <.text+0xdfa8>)
    dd92:	4b86      	ldr	r3, [pc, #536]	(dfac <.text+0xdfac>)
    dd94:	fda8f001 	bl	f8e8 <____eqdf2_from_thumb>
    dd98:	2800      	cmp	r0, #0
    dd9a:	d100      	bne	dd9e <.text+0xdd9e>
    dd9c:	e749      	b	dc32 <__kernel_rem_pio2+0x22e>
    dd9e:	9802      	ldr	r0, [sp, #8]
    dda0:	9903      	ldr	r1, [sp, #12]
    dda2:	4a81      	ldr	r2, [pc, #516]	(dfa8 <.text+0xdfa8>)
    dda4:	4b81      	ldr	r3, [pc, #516]	(dfac <.text+0xdfac>)
    dda6:	fd9ff001 	bl	f8e8 <____eqdf2_from_thumb>
    ddaa:	2800      	cmp	r0, #0
    ddac:	d000      	beq	ddb0 <.text+0xddb0>
    ddae:	e18d      	b	e0cc <.text+0xe0cc>
    ddb0:	2401      	mov	r4, #1
    ddb2:	4264      	neg	r4, r4
    ddb4:	44a2      	add	sl, r4
    ddb6:	9904      	ldr	r1, [sp, #16]
    ddb8:	4652      	mov	r2, sl
    ddba:	0093      	lsl	r3, r2, #2
    ddbc:	ac82      	add	r4, sp, #520
    ddbe:	3918      	sub	r1, #24
    ddc0:	191a      	add	r2, r3, r4
    ddc2:	9104      	str	r1, [sp, #16]
    ddc4:	e006      	b	ddd4 <.text+0xddd4>
    ddc6:	9b04      	ldr	r3, [sp, #16]
    ddc8:	2101      	mov	r1, #1
    ddca:	3b18      	sub	r3, #24
    ddcc:	4249      	neg	r1, r1
    ddce:	9304      	str	r3, [sp, #16]
    ddd0:	448a      	add	sl, r1
    ddd2:	3a04      	sub	r2, #4
    ddd4:	6813      	ldr	r3, [r2, #0]
    ddd6:	2b00      	cmp	r3, #0
    ddd8:	d0f5      	beq	ddc6 <.text+0xddc6>
    ddda:	4972      	ldr	r1, [pc, #456]	(dfa4 <.text+0xdfa4>)
    dddc:	4870      	ldr	r0, [pc, #448]	(dfa0 <.text+0xdfa0>)
    ddde:	9a04      	ldr	r2, [sp, #16]
    dde0:	fb6cf000 	bl	e4bc <scalbn>
    dde4:	4657      	mov	r7, sl
    dde6:	9000      	str	r0, [sp, #0]
    dde8:	9101      	str	r1, [sp, #4]
    ddea:	2f00      	cmp	r7, #0
    ddec:	db4d      	blt	de8a <.text+0xde8a>
    ddee:	00fb      	lsl	r3, r7, #3
    ddf0:	aa0a      	add	r2, sp, #40
    ddf2:	189d      	add	r5, r3, r2
    ddf4:	a982      	add	r1, sp, #520
    ddf6:	00bb      	lsl	r3, r7, #2
    ddf8:	185c      	add	r4, r3, r1
    ddfa:	6820      	ldr	r0, [r4, #0]
    ddfc:	fd80f001 	bl	f900 <____floatsidf_from_thumb>
    de00:	9a00      	ldr	r2, [sp, #0]
    de02:	9b01      	ldr	r3, [sp, #4]
    de04:	fd60f001 	bl	f8c8 <____muldf3_from_thumb>
    de08:	4a69      	ldr	r2, [pc, #420]	(dfb0 <.text+0xdfb0>)
    de0a:	4b6a      	ldr	r3, [pc, #424]	(dfb4 <.text+0xdfb4>)
    de0c:	6028      	str	r0, [r5, #0]
    de0e:	6069      	str	r1, [r5, #4]
    de10:	9800      	ldr	r0, [sp, #0]
    de12:	9901      	ldr	r1, [sp, #4]
    de14:	fd58f001 	bl	f8c8 <____muldf3_from_thumb>
    de18:	3c04      	sub	r4, #4
    de1a:	3d08      	sub	r5, #8
    de1c:	9000      	str	r0, [sp, #0]
    de1e:	9101      	str	r1, [sp, #4]
    de20:	3f01      	sub	r7, #1
    de22:	d5ea      	bpl	ddfa <.text+0xddfa>
    de24:	4657      	mov	r7, sl
    de26:	2f00      	cmp	r7, #0
    de28:	db2f      	blt	de8a <.text+0xde8a>
    de2a:	4a5f      	ldr	r2, [pc, #380]	(dfa8 <.text+0xdfa8>)
    de2c:	4b5f      	ldr	r3, [pc, #380]	(dfac <.text+0xdfac>)
    de2e:	9200      	str	r2, [sp, #0]
    de30:	9301      	str	r3, [sp, #4]
    de32:	9b05      	ldr	r3, [sp, #20]
    de34:	2400      	mov	r4, #0
    de36:	2b00      	cmp	r3, #0
    de38:	da00      	bge	de3c <.text+0xde3c>
    de3a:	e0ae      	b	df9a <.text+0xdf9a>
    de3c:	4651      	mov	r1, sl
    de3e:	1bce      	sub	r6, r1, r7
    de40:	d41a      	bmi	de78 <.text+0xde78>
    de42:	00fb      	lsl	r3, r7, #3
    de44:	aa0a      	add	r2, sp, #40
    de46:	189d      	add	r5, r3, r2
    de48:	4b5b      	ldr	r3, [pc, #364]	(dfb8 <.text+0xdfb8>)
    de4a:	4698      	mov	r8, r3
    de4c:	4642      	mov	r2, r8
    de4e:	3208      	add	r2, #8
    de50:	4690      	mov	r8, r2
    de52:	3a08      	sub	r2, #8
    de54:	ca03      	ldmia	r2!,{r0, r1}
    de56:	cd0c      	ldmia	r5!,{r2, r3}
    de58:	fd36f001 	bl	f8c8 <____muldf3_from_thumb>
    de5c:	1c0b      	mov	r3, r1		(add r3, r1, #0)
    de5e:	1c02      	mov	r2, r0		(add r2, r0, #0)
    de60:	9800      	ldr	r0, [sp, #0]
    de62:	9901      	ldr	r1, [sp, #4]
    de64:	fd2cf001 	bl	f8c0 <____adddf3_from_thumb>
    de68:	9b05      	ldr	r3, [sp, #20]
    de6a:	3401      	add	r4, #1
    de6c:	9000      	str	r0, [sp, #0]
    de6e:	9101      	str	r1, [sp, #4]
    de70:	429c      	cmp	r4, r3
    de72:	dc01      	bgt	de78 <.text+0xde78>
    de74:	42a6      	cmp	r6, r4
    de76:	dae9      	bge	de4c <.text+0xde4c>
    de78:	a932      	add	r1, sp, #200
    de7a:	00f3      	lsl	r3, r6, #3
    de7c:	185b      	add	r3, r3, r1
    de7e:	9900      	ldr	r1, [sp, #0]
    de80:	9a01      	ldr	r2, [sp, #4]
    de82:	6019      	str	r1, [r3, #0]
    de84:	605a      	str	r2, [r3, #4]
    de86:	3f01      	sub	r7, #1
    de88:	d5cf      	bpl	de2a <.text+0xde2a>
    de8a:	9a9f      	ldr	r2, [sp, #636]
    de8c:	2a02      	cmp	r2, #2
    de8e:	dd00      	ble	de92 <.text+0xde92>
    de90:	e0a0      	b	dfd4 <.text+0xdfd4>
    de92:	2a01      	cmp	r2, #1
    de94:	da00      	bge	de98 <.text+0xde98>
    de96:	e155      	b	e144 <.text+0xe144>
    de98:	4b43      	ldr	r3, [pc, #268]	(dfa8 <.text+0xdfa8>)
    de9a:	4c44      	ldr	r4, [pc, #272]	(dfac <.text+0xdfac>)
    de9c:	4657      	mov	r7, sl
    de9e:	9300      	str	r3, [sp, #0]
    dea0:	9401      	str	r4, [sp, #4]
    dea2:	2f00      	cmp	r7, #0
    dea4:	db0d      	blt	dec2 <.text+0xdec2>
    dea6:	00fb      	lsl	r3, r7, #3
    dea8:	a932      	add	r1, sp, #200
    deaa:	185c      	add	r4, r3, r1
    deac:	6822      	ldr	r2, [r4, #0]
    deae:	6863      	ldr	r3, [r4, #4]
    deb0:	9800      	ldr	r0, [sp, #0]
    deb2:	9901      	ldr	r1, [sp, #4]
    deb4:	fd04f001 	bl	f8c0 <____adddf3_from_thumb>
    deb8:	3c08      	sub	r4, #8
    deba:	9000      	str	r0, [sp, #0]
    debc:	9101      	str	r1, [sp, #4]
    debe:	3f01      	sub	r7, #1
    dec0:	d5f4      	bpl	deac <.text+0xdeac>
    dec2:	465a      	mov	r2, fp
    dec4:	9b00      	ldr	r3, [sp, #0]
    dec6:	9c01      	ldr	r4, [sp, #4]
    dec8:	2a00      	cmp	r2, #0
    deca:	d004      	beq	ded6 <.text+0xded6>
    decc:	493b      	ldr	r1, [pc, #236]	(dfbc <.text+0xdfbc>)
    dece:	4a3c      	ldr	r2, [pc, #240]	(dfc0 <.text+0xdfc0>)
    ded0:	9b00      	ldr	r3, [sp, #0]
    ded2:	9c01      	ldr	r4, [sp, #4]
    ded4:	404b      	eor	r3, r1
    ded6:	9908      	ldr	r1, [sp, #32]
    ded8:	600b      	str	r3, [r1, #0]
    deda:	604c      	str	r4, [r1, #4]
    dedc:	9832      	ldr	r0, [sp, #200]
    dede:	9933      	ldr	r1, [sp, #204]
    dee0:	9a00      	ldr	r2, [sp, #0]
    dee2:	9b01      	ldr	r3, [sp, #4]
    dee4:	fcf4f001 	bl	f8d0 <____subdf3_from_thumb>
    dee8:	4652      	mov	r2, sl
    deea:	9000      	str	r0, [sp, #0]
    deec:	9101      	str	r1, [sp, #4]
    deee:	2a01      	cmp	r2, #1
    def0:	db0c      	blt	df0c <.text+0xdf0c>
    def2:	ac32      	add	r4, sp, #200
    def4:	3408      	add	r4, #8
    def6:	4657      	mov	r7, sl
    def8:	9800      	ldr	r0, [sp, #0]
    defa:	9901      	ldr	r1, [sp, #4]
    defc:	cc0c      	ldmia	r4!,{r2, r3}
    defe:	fcdff001 	bl	f8c0 <____adddf3_from_thumb>
    df02:	3f01      	sub	r7, #1
    df04:	9000      	str	r0, [sp, #0]
    df06:	9101      	str	r1, [sp, #4]
    df08:	2f00      	cmp	r7, #0
    df0a:	d1f5      	bne	def8 <.text+0xdef8>
    df0c:	4659      	mov	r1, fp
    df0e:	9b00      	ldr	r3, [sp, #0]
    df10:	9c01      	ldr	r4, [sp, #4]
    df12:	2900      	cmp	r1, #0
    df14:	d004      	beq	df20 <.text+0xdf20>
    df16:	4929      	ldr	r1, [pc, #164]	(dfbc <.text+0xdfbc>)
    df18:	4a29      	ldr	r2, [pc, #164]	(dfc0 <.text+0xdfc0>)
    df1a:	9b00      	ldr	r3, [sp, #0]
    df1c:	9c01      	ldr	r4, [sp, #4]
    df1e:	404b      	eor	r3, r1
    df20:	9a08      	ldr	r2, [sp, #32]
    df22:	6093      	str	r3, [r2, #8]
    df24:	60d4      	str	r4, [r2, #12]
    df26:	4648      	mov	r0, r9
    df28:	2307      	mov	r3, #7
    df2a:	4018      	and	r0, r3
    df2c:	2396      	mov	r3, #150
    df2e:	009b      	lsl	r3, r3, #2
    df30:	449d      	add	sp, r3
    df32:	bc78      	pop	{r3, r4, r5, r6}
    df34:	4698      	mov	r8, r3
    df36:	46a1      	mov	r9, r4
    df38:	46aa      	mov	sl, r5
    df3a:	46b3      	mov	fp, r6
    df3c:	bcf0      	pop	{r4, r5, r6, r7}
    df3e:	bc02      	pop	{r1}
    df40:	4708      	bx	r1
    df42:	9904      	ldr	r1, [sp, #16]
    df44:	2900      	cmp	r1, #0
    df46:	d11c      	bne	df82 <.text+0xdf82>
    df48:	4652      	mov	r2, sl
    df4a:	0093      	lsl	r3, r2, #2
    df4c:	ac82      	add	r4, sp, #520
    df4e:	191b      	add	r3, r3, r4
    df50:	3b04      	sub	r3, #4
    df52:	681b      	ldr	r3, [r3, #0]
    df54:	15db      	asr	r3, r3, #23
    df56:	469b      	mov	fp, r3
    df58:	e63a      	b	dbd0 <__kernel_rem_pio2+0x1cc>
    df5a:	4651      	mov	r1, sl
    df5c:	008b      	lsl	r3, r1, #2
    df5e:	aa82      	add	r2, sp, #520
    df60:	189b      	add	r3, r3, r2
    df62:	3b04      	sub	r3, #4
    df64:	681a      	ldr	r2, [r3, #0]
    df66:	4917      	ldr	r1, [pc, #92]	(dfc4 <.text+0xdfc4>)
    df68:	400a      	and	r2, r1
    df6a:	601a      	str	r2, [r3, #0]
    df6c:	e654      	b	dc18 <__kernel_rem_pio2+0x214>
    df6e:	4651      	mov	r1, sl
    df70:	008b      	lsl	r3, r1, #2
    df72:	aa82      	add	r2, sp, #520
    df74:	189b      	add	r3, r3, r2
    df76:	3b04      	sub	r3, #4
    df78:	681a      	ldr	r2, [r3, #0]
    df7a:	4913      	ldr	r1, [pc, #76]	(dfc8 <.text+0xdfc8>)
    df7c:	400a      	and	r2, r1
    df7e:	601a      	str	r2, [r3, #0]
    df80:	e64a      	b	dc18 <__kernel_rem_pio2+0x214>
    df82:	9802      	ldr	r0, [sp, #8]
    df84:	9903      	ldr	r1, [sp, #12]
    df86:	4a11      	ldr	r2, [pc, #68]	(dfcc <.text+0xdfcc>)
    df88:	4b11      	ldr	r3, [pc, #68]	(dfd0 <.text+0xdfd0>)
    df8a:	fcbdf001 	bl	f908 <____gedf2_from_thumb>
    df8e:	2800      	cmp	r0, #0
    df90:	da00      	bge	df94 <.text+0xdf94>
    df92:	e645      	b	dc20 <__kernel_rem_pio2+0x21c>
    df94:	2102      	mov	r1, #2
    df96:	468b      	mov	fp, r1
    df98:	e61d      	b	dbd6 <__kernel_rem_pio2+0x1d2>
    df9a:	4654      	mov	r4, sl
    df9c:	1be6      	sub	r6, r4, r7
    df9e:	e76b      	b	de78 <.text+0xde78>
    dfa0:	0000      	lsl	r0, r0, #0
    dfa2:	3ff0      	sub	r7, #240
	...
    dfb0:	0000      	lsl	r0, r0, #0
    dfb2:	3e70      	sub	r6, #112
    dfb4:	0000      	lsl	r0, r0, #0
    dfb6:	0000      	lsl	r0, r0, #0
    dfb8:	fb3c      	second half of BL instruction 0xfb3c
    dfba:	0000      	lsl	r0, r0, #0
    dfbc:	0000      	lsl	r0, r0, #0
    dfbe:	8000      	strh	r0, [r0, #0]
    dfc0:	0000      	lsl	r0, r0, #0
    dfc2:	0000      	lsl	r0, r0, #0
    dfc4:	ffff      	second half of BL instruction 0xffff
    dfc6:	007f      	lsl	r7, r7, #1
    dfc8:	ffff      	second half of BL instruction 0xffff
    dfca:	003f      	lsl	r7, r7, #0
    dfcc:	0000      	lsl	r0, r0, #0
    dfce:	3fe0      	sub	r7, #224
    dfd0:	0000      	lsl	r0, r0, #0
    dfd2:	0000      	lsl	r0, r0, #0
    dfd4:	9b9f      	ldr	r3, [sp, #636]
    dfd6:	2b03      	cmp	r3, #3
    dfd8:	d1a5      	bne	df26 <.text+0xdf26>
    dfda:	4657      	mov	r7, sl
    dfdc:	2f00      	cmp	r7, #0
    dfde:	dd25      	ble	e02c <.text+0xe02c>
    dfe0:	00fb      	lsl	r3, r7, #3
    dfe2:	ac32      	add	r4, sp, #200
    dfe4:	18e4      	add	r4, r4, r3
    dfe6:	46a0      	mov	r8, r4
    dfe8:	4646      	mov	r6, r8
    dfea:	3e08      	sub	r6, #8
    dfec:	4644      	mov	r4, r8
    dfee:	6822      	ldr	r2, [r4, #0]
    dff0:	6863      	ldr	r3, [r4, #4]
    dff2:	6830      	ldr	r0, [r6, #0]
    dff4:	6871      	ldr	r1, [r6, #4]
    dff6:	fc63f001 	bl	f8c0 <____adddf3_from_thumb>
    dffa:	9000      	str	r0, [sp, #0]
    dffc:	9101      	str	r1, [sp, #4]
    dffe:	9a00      	ldr	r2, [sp, #0]
    e000:	9b01      	ldr	r3, [sp, #4]
    e002:	6830      	ldr	r0, [r6, #0]
    e004:	6871      	ldr	r1, [r6, #4]
    e006:	fc63f001 	bl	f8d0 <____subdf3_from_thumb>
    e00a:	1c0b      	mov	r3, r1		(add r3, r1, #0)
    e00c:	1c02      	mov	r2, r0		(add r2, r0, #0)
    e00e:	6820      	ldr	r0, [r4, #0]
    e010:	6861      	ldr	r1, [r4, #4]
    e012:	fc55f001 	bl	f8c0 <____adddf3_from_thumb>
    e016:	9b00      	ldr	r3, [sp, #0]
    e018:	9c01      	ldr	r4, [sp, #4]
    e01a:	4642      	mov	r2, r8
    e01c:	3f01      	sub	r7, #1
    e01e:	6010      	str	r0, [r2, #0]
    e020:	6051      	str	r1, [r2, #4]
    e022:	46b0      	mov	r8, r6
    e024:	6033      	str	r3, [r6, #0]
    e026:	6074      	str	r4, [r6, #4]
    e028:	2f00      	cmp	r7, #0
    e02a:	dcdd      	bgt	dfe8 <.text+0xdfe8>
    e02c:	4657      	mov	r7, sl
    e02e:	2f01      	cmp	r7, #1
    e030:	dd25      	ble	e07e <.text+0xe07e>
    e032:	00fb      	lsl	r3, r7, #3
    e034:	ac32      	add	r4, sp, #200
    e036:	18e4      	add	r4, r4, r3
    e038:	46a0      	mov	r8, r4
    e03a:	4646      	mov	r6, r8
    e03c:	3e08      	sub	r6, #8
    e03e:	4644      	mov	r4, r8
    e040:	6822      	ldr	r2, [r4, #0]
    e042:	6863      	ldr	r3, [r4, #4]
    e044:	6830      	ldr	r0, [r6, #0]
    e046:	6871      	ldr	r1, [r6, #4]
    e048:	fc3af001 	bl	f8c0 <____adddf3_from_thumb>
    e04c:	9000      	str	r0, [sp, #0]
    e04e:	9101      	str	r1, [sp, #4]
    e050:	9a00      	ldr	r2, [sp, #0]
    e052:	9b01      	ldr	r3, [sp, #4]
    e054:	6830      	ldr	r0, [r6, #0]
    e056:	6871      	ldr	r1, [r6, #4]
    e058:	fc3af001 	bl	f8d0 <____subdf3_from_thumb>
    e05c:	1c0b      	mov	r3, r1		(add r3, r1, #0)
    e05e:	1c02      	mov	r2, r0		(add r2, r0, #0)
    e060:	6820      	ldr	r0, [r4, #0]
    e062:	6861      	ldr	r1, [r4, #4]
    e064:	fc2cf001 	bl	f8c0 <____adddf3_from_thumb>
    e068:	9b00      	ldr	r3, [sp, #0]
    e06a:	9c01      	ldr	r4, [sp, #4]
    e06c:	4642      	mov	r2, r8
    e06e:	3f01      	sub	r7, #1
    e070:	6010      	str	r0, [r2, #0]
    e072:	6051      	str	r1, [r2, #4]
    e074:	46b0      	mov	r8, r6
    e076:	6033      	str	r3, [r6, #0]
    e078:	6074      	str	r4, [r6, #4]
    e07a:	2f01      	cmp	r7, #1
    e07c:	dcdd      	bgt	e03a <.text+0xe03a>
    e07e:	4a55      	ldr	r2, [pc, #340]	(e1d4 <.text+0xe1d4>)
    e080:	4953      	ldr	r1, [pc, #332]	(e1d0 <.text+0xe1d0>)
    e082:	4657      	mov	r7, sl
    e084:	9100      	str	r1, [sp, #0]
    e086:	9201      	str	r2, [sp, #4]
    e088:	2f01      	cmp	r7, #1
    e08a:	dd0e      	ble	e0aa <.text+0xe0aa>
    e08c:	00fb      	lsl	r3, r7, #3
    e08e:	aa32      	add	r2, sp, #200
    e090:	189c      	add	r4, r3, r2
    e092:	6822      	ldr	r2, [r4, #0]
    e094:	6863      	ldr	r3, [r4, #4]
    e096:	9800      	ldr	r0, [sp, #0]
    e098:	9901      	ldr	r1, [sp, #4]
    e09a:	fc11f001 	bl	f8c0 <____adddf3_from_thumb>
    e09e:	3f01      	sub	r7, #1
    e0a0:	3c08      	sub	r4, #8
    e0a2:	9000      	str	r0, [sp, #0]
    e0a4:	9101      	str	r1, [sp, #4]
    e0a6:	2f01      	cmp	r7, #1
    e0a8:	dcf3      	bgt	e092 <.text+0xe092>
    e0aa:	465b      	mov	r3, fp
    e0ac:	2b00      	cmp	r3, #0
    e0ae:	d16f      	bne	e190 <.text+0xe190>
    e0b0:	9b32      	ldr	r3, [sp, #200]
    e0b2:	9c33      	ldr	r4, [sp, #204]
    e0b4:	9908      	ldr	r1, [sp, #32]
    e0b6:	600b      	str	r3, [r1, #0]
    e0b8:	604c      	str	r4, [r1, #4]
    e0ba:	9b34      	ldr	r3, [sp, #208]
    e0bc:	9c35      	ldr	r4, [sp, #212]
    e0be:	608b      	str	r3, [r1, #8]
    e0c0:	60cc      	str	r4, [r1, #12]
    e0c2:	9b00      	ldr	r3, [sp, #0]
    e0c4:	9c01      	ldr	r4, [sp, #4]
    e0c6:	610b      	str	r3, [r1, #16]
    e0c8:	614c      	str	r4, [r1, #20]
    e0ca:	e72c      	b	df26 <.text+0xdf26>
    e0cc:	9c04      	ldr	r4, [sp, #16]
    e0ce:	9802      	ldr	r0, [sp, #8]
    e0d0:	9903      	ldr	r1, [sp, #12]
    e0d2:	4262      	neg	r2, r4
    e0d4:	f9f2f000 	bl	e4bc <scalbn>
    e0d8:	4a3f      	ldr	r2, [pc, #252]	(e1d8 <.text+0xe1d8>)
    e0da:	4b40      	ldr	r3, [pc, #256]	(e1dc <.text+0xe1dc>)
    e0dc:	9002      	str	r0, [sp, #8]
    e0de:	9103      	str	r1, [sp, #12]
    e0e0:	fc12f001 	bl	f908 <____gedf2_from_thumb>
    e0e4:	2800      	cmp	r0, #0
    e0e6:	db6b      	blt	e1c0 <.text+0xe1c0>
    e0e8:	4a3d      	ldr	r2, [pc, #244]	(e1e0 <.text+0xe1e0>)
    e0ea:	4b3e      	ldr	r3, [pc, #248]	(e1e4 <.text+0xe1e4>)
    e0ec:	9802      	ldr	r0, [sp, #8]
    e0ee:	9903      	ldr	r1, [sp, #12]
    e0f0:	fbeaf001 	bl	f8c8 <____muldf3_from_thumb>
    e0f4:	fc00f001 	bl	f8f8 <____fixdfsi_from_thumb>
    e0f8:	fc02f001 	bl	f900 <____floatsidf_from_thumb>
    e0fc:	9000      	str	r0, [sp, #0]
    e0fe:	9101      	str	r1, [sp, #4]
    e100:	4651      	mov	r1, sl
    e102:	008c      	lsl	r4, r1, #2
    e104:	aa82      	add	r2, sp, #520
    e106:	18a4      	add	r4, r4, r2
    e108:	9800      	ldr	r0, [sp, #0]
    e10a:	9901      	ldr	r1, [sp, #4]
    e10c:	4a32      	ldr	r2, [pc, #200]	(e1d8 <.text+0xe1d8>)
    e10e:	4b33      	ldr	r3, [pc, #204]	(e1dc <.text+0xe1dc>)
    e110:	fbdaf001 	bl	f8c8 <____muldf3_from_thumb>
    e114:	1c0b      	mov	r3, r1		(add r3, r1, #0)
    e116:	1c02      	mov	r2, r0		(add r2, r0, #0)
    e118:	9802      	ldr	r0, [sp, #8]
    e11a:	9903      	ldr	r1, [sp, #12]
    e11c:	fbd8f001 	bl	f8d0 <____subdf3_from_thumb>
    e120:	fbeaf001 	bl	f8f8 <____fixdfsi_from_thumb>
    e124:	2301      	mov	r3, #1
    e126:	6020      	str	r0, [r4, #0]
    e128:	9c04      	ldr	r4, [sp, #16]
    e12a:	449a      	add	sl, r3
    e12c:	3418      	add	r4, #24
    e12e:	4651      	mov	r1, sl
    e130:	9404      	str	r4, [sp, #16]
    e132:	aa82      	add	r2, sp, #520
    e134:	008c      	lsl	r4, r1, #2
    e136:	9800      	ldr	r0, [sp, #0]
    e138:	9901      	ldr	r1, [sp, #4]
    e13a:	18a4      	add	r4, r4, r2
    e13c:	fbdcf001 	bl	f8f8 <____fixdfsi_from_thumb>
    e140:	6020      	str	r0, [r4, #0]
    e142:	e64a      	b	ddda <.text+0xddda>
    e144:	2a00      	cmp	r2, #0
    e146:	d000      	beq	e14a <.text+0xe14a>
    e148:	e6ed      	b	df26 <.text+0xdf26>
    e14a:	4a22      	ldr	r2, [pc, #136]	(e1d4 <.text+0xe1d4>)
    e14c:	4920      	ldr	r1, [pc, #128]	(e1d0 <.text+0xe1d0>)
    e14e:	4657      	mov	r7, sl
    e150:	9100      	str	r1, [sp, #0]
    e152:	9201      	str	r2, [sp, #4]
    e154:	2f00      	cmp	r7, #0
    e156:	db0d      	blt	e174 <.text+0xe174>
    e158:	00fb      	lsl	r3, r7, #3
    e15a:	aa32      	add	r2, sp, #200
    e15c:	189c      	add	r4, r3, r2
    e15e:	6822      	ldr	r2, [r4, #0]
    e160:	6863      	ldr	r3, [r4, #4]
    e162:	9800      	ldr	r0, [sp, #0]
    e164:	9901      	ldr	r1, [sp, #4]
    e166:	fbabf001 	bl	f8c0 <____adddf3_from_thumb>
    e16a:	3c08      	sub	r4, #8
    e16c:	9000      	str	r0, [sp, #0]
    e16e:	9101      	str	r1, [sp, #4]
    e170:	3f01      	sub	r7, #1
    e172:	d5f4      	bpl	e15e <.text+0xe15e>
    e174:	4659      	mov	r1, fp
    e176:	9b00      	ldr	r3, [sp, #0]
    e178:	9c01      	ldr	r4, [sp, #4]
    e17a:	2900      	cmp	r1, #0
    e17c:	d004      	beq	e188 <.text+0xe188>
    e17e:	491a      	ldr	r1, [pc, #104]	(e1e8 <.text+0xe1e8>)
    e180:	4a1a      	ldr	r2, [pc, #104]	(e1ec <.text+0xe1ec>)
    e182:	9b00      	ldr	r3, [sp, #0]
    e184:	9c01      	ldr	r4, [sp, #4]
    e186:	404b      	eor	r3, r1
    e188:	9a08      	ldr	r2, [sp, #32]
    e18a:	6013      	str	r3, [r2, #0]
    e18c:	6054      	str	r4, [r2, #4]
    e18e:	e6ca      	b	df26 <.text+0xdf26>
    e190:	9932      	ldr	r1, [sp, #200]
    e192:	9a33      	ldr	r2, [sp, #204]
    e194:	4d14      	ldr	r5, [pc, #80]	(e1e8 <.text+0xe1e8>)
    e196:	4e15      	ldr	r6, [pc, #84]	(e1ec <.text+0xe1ec>)
    e198:	1c14      	mov	r4, r2		(add r4, r2, #0)
    e19a:	1c0b      	mov	r3, r1		(add r3, r1, #0)
    e19c:	9a08      	ldr	r2, [sp, #32]
    e19e:	406b      	eor	r3, r5
    e1a0:	6013      	str	r3, [r2, #0]
    e1a2:	6054      	str	r4, [r2, #4]
    e1a4:	9934      	ldr	r1, [sp, #208]
    e1a6:	9a35      	ldr	r2, [sp, #212]
    e1a8:	1c0b      	mov	r3, r1		(add r3, r1, #0)
    e1aa:	9908      	ldr	r1, [sp, #32]
    e1ac:	406b      	eor	r3, r5
    e1ae:	1c14      	mov	r4, r2		(add r4, r2, #0)
    e1b0:	608b      	str	r3, [r1, #8]
    e1b2:	60cc      	str	r4, [r1, #12]
    e1b4:	9b00      	ldr	r3, [sp, #0]
    e1b6:	9c01      	ldr	r4, [sp, #4]
    e1b8:	406b      	eor	r3, r5
    e1ba:	610b      	str	r3, [r1, #16]
    e1bc:	614c      	str	r4, [r1, #20]
    e1be:	e6b2      	b	df26 <.text+0xdf26>
    e1c0:	4653      	mov	r3, sl
    e1c2:	a982      	add	r1, sp, #520
    e1c4:	009c      	lsl	r4, r3, #2
    e1c6:	1864      	add	r4, r4, r1
    e1c8:	9802      	ldr	r0, [sp, #8]
    e1ca:	9903      	ldr	r1, [sp, #12]
    e1cc:	e7b6      	b	e13c <.text+0xe13c>
	...
    e1da:	4170      	adc	r0, r6
    e1dc:	0000      	lsl	r0, r0, #0
    e1de:	0000      	lsl	r0, r0, #0
    e1e0:	0000      	lsl	r0, r0, #0
    e1e2:	3e70      	sub	r6, #112
    e1e4:	0000      	lsl	r0, r0, #0
    e1e6:	0000      	lsl	r0, r0, #0
    e1e8:	0000      	lsl	r0, r0, #0
    e1ea:	8000      	strh	r0, [r0, #0]
    e1ec:	0000      	lsl	r0, r0, #0
	...

0000e1f0 <__kernel_sin>:
    e1f0:	b5f0      	push	{r4, r5, r6, r7, lr}
    e1f2:	b088      	sub	sp, #32
    e1f4:	9204      	str	r2, [sp, #16]
    e1f6:	9305      	str	r3, [sp, #20]
    e1f8:	4a44      	ldr	r2, [pc, #272]	(e30c <.text+0xe30c>)
    e1fa:	4b45      	ldr	r3, [pc, #276]	(e310 <.text+0xe310>)
    e1fc:	4002      	and	r2, r0
    e1fe:	9006      	str	r0, [sp, #24]
    e200:	9107      	str	r1, [sp, #28]
    e202:	429a      	cmp	r2, r3
    e204:	dc06      	bgt	e214 <__kernel_sin+0x24>
    e206:	fb77f001 	bl	f8f8 <____fixdfsi_from_thumb>
    e20a:	2800      	cmp	r0, #0
    e20c:	d102      	bne	e214 <__kernel_sin+0x24>
    e20e:	9806      	ldr	r0, [sp, #24]
    e210:	9907      	ldr	r1, [sp, #28]
    e212:	e064      	b	e2de <__kernel_sin+0xee>
    e214:	9806      	ldr	r0, [sp, #24]
    e216:	9907      	ldr	r1, [sp, #28]
    e218:	1c0b      	mov	r3, r1		(add r3, r1, #0)
    e21a:	1c02      	mov	r2, r0		(add r2, r0, #0)
    e21c:	fb54f001 	bl	f8c8 <____muldf3_from_thumb>
    e220:	9a06      	ldr	r2, [sp, #24]
    e222:	9b07      	ldr	r3, [sp, #28]
    e224:	1c0f      	mov	r7, r1		(add r7, r1, #0)
    e226:	1c06      	mov	r6, r0		(add r6, r0, #0)
    e228:	fb4ef001 	bl	f8c8 <____muldf3_from_thumb>
    e22c:	4a39      	ldr	r2, [pc, #228]	(e314 <.text+0xe314>)
    e22e:	4b3a      	ldr	r3, [pc, #232]	(e318 <.text+0xe318>)
    e230:	9000      	str	r0, [sp, #0]
    e232:	9101      	str	r1, [sp, #4]
    e234:	1c39      	mov	r1, r7		(add r1, r7, #0)
    e236:	1c30      	mov	r0, r6		(add r0, r6, #0)
    e238:	fb46f001 	bl	f8c8 <____muldf3_from_thumb>
    e23c:	4a37      	ldr	r2, [pc, #220]	(e31c <.text+0xe31c>)
    e23e:	4b38      	ldr	r3, [pc, #224]	(e320 <.text+0xe320>)
    e240:	fb3ef001 	bl	f8c0 <____adddf3_from_thumb>
    e244:	1c3b      	mov	r3, r7		(add r3, r7, #0)
    e246:	1c32      	mov	r2, r6		(add r2, r6, #0)
    e248:	fb3ef001 	bl	f8c8 <____muldf3_from_thumb>
    e24c:	4a35      	ldr	r2, [pc, #212]	(e324 <.text+0xe324>)
    e24e:	4b36      	ldr	r3, [pc, #216]	(e328 <.text+0xe328>)
    e250:	fb36f001 	bl	f8c0 <____adddf3_from_thumb>
    e254:	1c3b      	mov	r3, r7		(add r3, r7, #0)
    e256:	1c32      	mov	r2, r6		(add r2, r6, #0)
    e258:	fb36f001 	bl	f8c8 <____muldf3_from_thumb>
    e25c:	4a33      	ldr	r2, [pc, #204]	(e32c <.text+0xe32c>)
    e25e:	4b34      	ldr	r3, [pc, #208]	(e330 <.text+0xe330>)
    e260:	fb2ef001 	bl	f8c0 <____adddf3_from_thumb>
    e264:	1c3b      	mov	r3, r7		(add r3, r7, #0)
    e266:	1c32      	mov	r2, r6		(add r2, r6, #0)
    e268:	fb2ef001 	bl	f8c8 <____muldf3_from_thumb>
    e26c:	4a31      	ldr	r2, [pc, #196]	(e334 <.text+0xe334>)
    e26e:	4b32      	ldr	r3, [pc, #200]	(e338 <.text+0xe338>)
    e270:	fb26f001 	bl	f8c0 <____adddf3_from_thumb>
    e274:	9b0d      	ldr	r3, [sp, #52]
    e276:	9002      	str	r0, [sp, #8]
    e278:	9103      	str	r1, [sp, #12]
    e27a:	2b00      	cmp	r3, #0
    e27c:	d033      	beq	e2e6 <__kernel_sin+0xf6>
    e27e:	4a2f      	ldr	r2, [pc, #188]	(e33c <.text+0xe33c>)
    e280:	4b2f      	ldr	r3, [pc, #188]	(e340 <.text+0xe340>)
    e282:	9804      	ldr	r0, [sp, #16]
    e284:	9905      	ldr	r1, [sp, #20]
    e286:	fb1ff001 	bl	f8c8 <____muldf3_from_thumb>
    e28a:	9a02      	ldr	r2, [sp, #8]
    e28c:	9b03      	ldr	r3, [sp, #12]
    e28e:	1c0d      	mov	r5, r1		(add r5, r1, #0)
    e290:	1c04      	mov	r4, r0		(add r4, r0, #0)
    e292:	9800      	ldr	r0, [sp, #0]
    e294:	9901      	ldr	r1, [sp, #4]
    e296:	fb17f001 	bl	f8c8 <____muldf3_from_thumb>
    e29a:	1c0b      	mov	r3, r1		(add r3, r1, #0)
    e29c:	1c02      	mov	r2, r0		(add r2, r0, #0)
    e29e:	1c29      	mov	r1, r5		(add r1, r5, #0)
    e2a0:	1c20      	mov	r0, r4		(add r0, r4, #0)
    e2a2:	fb15f001 	bl	f8d0 <____subdf3_from_thumb>
    e2a6:	1c3b      	mov	r3, r7		(add r3, r7, #0)
    e2a8:	1c32      	mov	r2, r6		(add r2, r6, #0)
    e2aa:	fb0df001 	bl	f8c8 <____muldf3_from_thumb>
    e2ae:	9a04      	ldr	r2, [sp, #16]
    e2b0:	9b05      	ldr	r3, [sp, #20]
    e2b2:	fb0df001 	bl	f8d0 <____subdf3_from_thumb>
    e2b6:	4a23      	ldr	r2, [pc, #140]	(e344 <.text+0xe344>)
    e2b8:	4b23      	ldr	r3, [pc, #140]	(e348 <.text+0xe348>)
    e2ba:	1c0d      	mov	r5, r1		(add r5, r1, #0)
    e2bc:	1c04      	mov	r4, r0		(add r4, r0, #0)
    e2be:	9800      	ldr	r0, [sp, #0]
    e2c0:	9901      	ldr	r1, [sp, #4]
    e2c2:	fb01f001 	bl	f8c8 <____muldf3_from_thumb>
    e2c6:	1c0b      	mov	r3, r1		(add r3, r1, #0)
    e2c8:	1c02      	mov	r2, r0		(add r2, r0, #0)
    e2ca:	1c29      	mov	r1, r5		(add r1, r5, #0)
    e2cc:	1c20      	mov	r0, r4		(add r0, r4, #0)
    e2ce:	fafff001 	bl	f8d0 <____subdf3_from_thumb>
    e2d2:	1c0b      	mov	r3, r1		(add r3, r1, #0)
    e2d4:	1c02      	mov	r2, r0		(add r2, r0, #0)
    e2d6:	9806      	ldr	r0, [sp, #24]
    e2d8:	9907      	ldr	r1, [sp, #28]
    e2da:	faf9f001 	bl	f8d0 <____subdf3_from_thumb>
    e2de:	b008      	add	sp, #32
    e2e0:	bcf0      	pop	{r4, r5, r6, r7}
    e2e2:	bc04      	pop	{r2}
    e2e4:	4710      	bx	r2
    e2e6:	9a02      	ldr	r2, [sp, #8]
    e2e8:	9b03      	ldr	r3, [sp, #12]
    e2ea:	1c39      	mov	r1, r7		(add r1, r7, #0)
    e2ec:	1c30      	mov	r0, r6		(add r0, r6, #0)
    e2ee:	faebf001 	bl	f8c8 <____muldf3_from_thumb>
    e2f2:	4a14      	ldr	r2, [pc, #80]	(e344 <.text+0xe344>)
    e2f4:	4b14      	ldr	r3, [pc, #80]	(e348 <.text+0xe348>)
    e2f6:	fae3f001 	bl	f8c0 <____adddf3_from_thumb>
    e2fa:	9a00      	ldr	r2, [sp, #0]
    e2fc:	9b01      	ldr	r3, [sp, #4]
    e2fe:	fae3f001 	bl	f8c8 <____muldf3_from_thumb>
    e302:	9a06      	ldr	r2, [sp, #24]
    e304:	9b07      	ldr	r3, [sp, #28]
    e306:	fadbf001 	bl	f8c0 <____adddf3_from_thumb>
    e30a:	e7e8      	b	e2de <__kernel_sin+0xee>
    e30c:	ffff      	second half of BL instruction 0xffff
    e30e:	7fff      	ldrb	r7, [r7, #31]
    e310:	ffff      	second half of BL instruction 0xffff
    e312:	3e3f      	sub	r6, #63
    e314:	d93a      	bls	e38c <floor+0x40>
    e316:	3de5      	sub	r5, #229
    e318:	d57c      	bpl	e414 <floor+0xc8>
    e31a:	5acf      	ldrh	r7, [r1, r3]
    e31c:	e5e6      	b	deec <.text+0xdeec>
    e31e:	be5a      	bkpt	0x005a
    e320:	9ceb      	ldr	r4, [sp, #940]
    e322:	8a2b      	ldrh	r3, [r5, #16]
    e324:	1de3      	add	r3, r4, #7
    e326:	3ec7      	sub	r6, #199
    e328:	fe7d      	second half of BL instruction 0xfe7d
    e32a:	57b1      	ldrsb	r1, [r6, r6]
    e32c:	01a0      	lsl	r0, r4, #6
    e32e:	bf2a      	undefined instruction 0xbf2a
    e330:	61d5      	str	r5, [r2, #28]
    e332:	19c1      	add	r1, r0, r7
    e334:	1111      	asr	r1, r2, #4
    e336:	3f81      	sub	r7, #129
    e338:	f8a6      	second half of BL instruction 0xf8a6
    e33a:	1110      	asr	r0, r2, #4
    e33c:	0000      	lsl	r0, r0, #0
    e33e:	3fe0      	sub	r7, #224
    e340:	0000      	lsl	r0, r0, #0
    e342:	0000      	lsl	r0, r0, #0
    e344:	5555      	strb	r5, [r2, r5]
    e346:	bfc5      	undefined instruction 0xbfc5
    e348:	5549      	strb	r1, [r1, r5]
    e34a:	5555      	strb	r5, [r2, r5]

0000e34c <floor>:
    e34c:	b5f0      	push	{r4, r5, r6, r7, lr}
    e34e:	4657      	mov	r7, sl
    e350:	4646      	mov	r6, r8
    e352:	b4c0      	push	{r6, r7}
    e354:	2200      	mov	r2, #0
    e356:	2300      	mov	r3, #0
    e358:	b082      	sub	sp, #8
    e35a:	9200      	str	r2, [sp, #0]
    e35c:	9301      	str	r3, [sp, #4]
    e35e:	1c0c      	mov	r4, r1		(add r4, r1, #0)
    e360:	1c03      	mov	r3, r0		(add r3, r0, #0)
    e362:	4a42      	ldr	r2, [pc, #264]	(e46c <.text+0xe46c>)
    e364:	0043      	lsl	r3, r0, #1
    e366:	0d5b      	lsr	r3, r3, #21
    e368:	46a0      	mov	r8, r4
    e36a:	189c      	add	r4, r3, r2
    e36c:	1c0e      	mov	r6, r1		(add r6, r1, #0)
    e36e:	1c05      	mov	r5, r0		(add r5, r0, #0)
    e370:	1c07      	mov	r7, r0		(add r7, r0, #0)
    e372:	2c13      	cmp	r4, #19
    e374:	dc20      	bgt	e3b8 <floor+0x6c>
    e376:	2c00      	cmp	r4, #0
    e378:	db46      	blt	e408 <floor+0xbc>
    e37a:	4b3d      	ldr	r3, [pc, #244]	(e470 <.text+0xe470>)
    e37c:	1c1a      	mov	r2, r3		(add r2, r3, #0)
    e37e:	4122      	asr	r2, r4
    e380:	1c13      	mov	r3, r2		(add r3, r2, #0)
    e382:	4692      	mov	sl, r2
    e384:	4003      	and	r3, r0
    e386:	4642      	mov	r2, r8
    e388:	431a      	orr	r2, r3
    e38a:	d01b      	beq	e3c4 <floor+0x78>
    e38c:	4a39      	ldr	r2, [pc, #228]	(e474 <.text+0xe474>)
    e38e:	4b3a      	ldr	r3, [pc, #232]	(e478 <.text+0xe478>)
    e390:	fa96f001 	bl	f8c0 <____adddf3_from_thumb>
    e394:	4a39      	ldr	r2, [pc, #228]	(e47c <.text+0xe47c>)
    e396:	4b3a      	ldr	r3, [pc, #232]	(e480 <.text+0xe480>)
    e398:	fa9ef001 	bl	f8d8 <____gtdf2_from_thumb>
    e39c:	2800      	cmp	r0, #0
    e39e:	dd05      	ble	e3ac <floor+0x60>
    e3a0:	2d00      	cmp	r5, #0
    e3a2:	db46      	blt	e432 <floor+0xe6>
    e3a4:	4653      	mov	r3, sl
    e3a6:	439f      	bic	r7, r3
    e3a8:	2400      	mov	r4, #0
    e3aa:	46a0      	mov	r8, r4
    e3ac:	4643      	mov	r3, r8
    e3ae:	9700      	str	r7, [sp, #0]
    e3b0:	9301      	str	r3, [sp, #4]
    e3b2:	9800      	ldr	r0, [sp, #0]
    e3b4:	9901      	ldr	r1, [sp, #4]
    e3b6:	e007      	b	e3c8 <floor+0x7c>
    e3b8:	2c33      	cmp	r4, #51
    e3ba:	dd0c      	ble	e3d6 <floor+0x8a>
    e3bc:	2380      	mov	r3, #128
    e3be:	00db      	lsl	r3, r3, #3
    e3c0:	429c      	cmp	r4, r3
    e3c2:	d031      	beq	e428 <floor+0xdc>
    e3c4:	1c31      	mov	r1, r6		(add r1, r6, #0)
    e3c6:	1c28      	mov	r0, r5		(add r0, r5, #0)
    e3c8:	b002      	add	sp, #8
    e3ca:	bc18      	pop	{r3, r4}
    e3cc:	4698      	mov	r8, r3
    e3ce:	46a2      	mov	sl, r4
    e3d0:	bcf0      	pop	{r4, r5, r6, r7}
    e3d2:	bc04      	pop	{r2}
    e3d4:	4710      	bx	r2
    e3d6:	4a2b      	ldr	r2, [pc, #172]	(e484 <.text+0xe484>)
    e3d8:	189b      	add	r3, r3, r2
    e3da:	2201      	mov	r2, #1
    e3dc:	4252      	neg	r2, r2
    e3de:	40da      	lsr	r2, r3
    e3e0:	4643      	mov	r3, r8
    e3e2:	4692      	mov	sl, r2
    e3e4:	4213      	tst	r3, r2
    e3e6:	d0ed      	beq	e3c4 <floor+0x78>
    e3e8:	4a22      	ldr	r2, [pc, #136]	(e474 <.text+0xe474>)
    e3ea:	4b23      	ldr	r3, [pc, #140]	(e478 <.text+0xe478>)
    e3ec:	fa68f001 	bl	f8c0 <____adddf3_from_thumb>
    e3f0:	4a22      	ldr	r2, [pc, #136]	(e47c <.text+0xe47c>)
    e3f2:	4b23      	ldr	r3, [pc, #140]	(e480 <.text+0xe480>)
    e3f4:	fa70f001 	bl	f8d8 <____gtdf2_from_thumb>
    e3f8:	2800      	cmp	r0, #0
    e3fa:	ddd7      	ble	e3ac <floor+0x60>
    e3fc:	2d00      	cmp	r5, #0
    e3fe:	db1d      	blt	e43c <floor+0xf0>
    e400:	4644      	mov	r4, r8
    e402:	4652      	mov	r2, sl
    e404:	4394      	bic	r4, r2
    e406:	e7d0      	b	e3aa <floor+0x5e>
    e408:	4a1a      	ldr	r2, [pc, #104]	(e474 <.text+0xe474>)
    e40a:	4b1b      	ldr	r3, [pc, #108]	(e478 <.text+0xe478>)
    e40c:	fa58f001 	bl	f8c0 <____adddf3_from_thumb>
    e410:	4a1a      	ldr	r2, [pc, #104]	(e47c <.text+0xe47c>)
    e412:	4b1b      	ldr	r3, [pc, #108]	(e480 <.text+0xe480>)
    e414:	fa60f001 	bl	f8d8 <____gtdf2_from_thumb>
    e418:	2800      	cmp	r0, #0
    e41a:	ddc7      	ble	e3ac <floor+0x60>
    e41c:	2d00      	cmp	r5, #0
    e41e:	db19      	blt	e454 <floor+0x108>
    e420:	2300      	mov	r3, #0
    e422:	4698      	mov	r8, r3
    e424:	2700      	mov	r7, #0
    e426:	e7c1      	b	e3ac <floor+0x60>
    e428:	1c33      	mov	r3, r6		(add r3, r6, #0)
    e42a:	1c2a      	mov	r2, r5		(add r2, r5, #0)
    e42c:	fa48f001 	bl	f8c0 <____adddf3_from_thumb>
    e430:	e7ca      	b	e3c8 <floor+0x7c>
    e432:	2380      	mov	r3, #128
    e434:	035b      	lsl	r3, r3, #13
    e436:	4123      	asr	r3, r4
    e438:	18ef      	add	r7, r5, r3
    e43a:	e7b3      	b	e3a4 <floor+0x58>
    e43c:	2c14      	cmp	r4, #20
    e43e:	d012      	beq	e466 <floor+0x11a>
    e440:	2234      	mov	r2, #52
    e442:	1b12      	sub	r2, r2, r4
    e444:	2301      	mov	r3, #1
    e446:	4093      	lsl	r3, r2
    e448:	4443      	add	r3, r8
    e44a:	4598      	cmp	r8, r3
    e44c:	d900      	bls	e450 <floor+0x104>
    e44e:	3701      	add	r7, #1
    e450:	4698      	mov	r8, r3
    e452:	e7d5      	b	e400 <floor+0xb4>
    e454:	4b0c      	ldr	r3, [pc, #48]	(e488 <.text+0xe488>)
    e456:	4644      	mov	r4, r8
    e458:	402b      	and	r3, r5
    e45a:	431c      	orr	r4, r3
    e45c:	d0a6      	beq	e3ac <floor+0x60>
    e45e:	2200      	mov	r2, #0
    e460:	4f0a      	ldr	r7, [pc, #40]	(e48c <.text+0xe48c>)
    e462:	4690      	mov	r8, r2
    e464:	e7a2      	b	e3ac <floor+0x60>
    e466:	3701      	add	r7, #1
    e468:	e7ca      	b	e400 <floor+0xb4>
    e46a:	0000      	lsl	r0, r0, #0
    e46c:	fc01      	second half of BL instruction 0xfc01
    e46e:	ffff      	second half of BL instruction 0xffff
    e470:	ffff      	second half of BL instruction 0xffff
    e472:	000f      	lsl	r7, r1, #0
    e474:	e43c      	b	dcf0 <__kernel_rem_pio2+0x2ec>
    e476:	7e37      	ldrb	r7, [r6, #24]
    e478:	759c      	strb	r4, [r3, #22]
    e47a:	8800      	ldrh	r0, [r0, #0]
	...
    e484:	fbed      	second half of BL instruction 0xfbed
    e486:	ffff      	second half of BL instruction 0xffff
    e488:	ffff      	second half of BL instruction 0xffff
    e48a:	7fff      	ldrb	r7, [r7, #31]
    e48c:	0000      	lsl	r0, r0, #0
    e48e:	bff0      	undefined instruction 0xbff0

0000e490 <isnan>:
    e490:	b510      	push	{r4, lr}
    e492:	1c0c      	mov	r4, r1		(add r4, r1, #0)
    e494:	1c03      	mov	r3, r0		(add r3, r0, #0)
    e496:	4262      	neg	r2, r4
    e498:	4805      	ldr	r0, [pc, #20]	(e4b0 <.text+0xe4b0>)
    e49a:	4322      	orr	r2, r4
    e49c:	4018      	and	r0, r3
    e49e:	0fd2      	lsr	r2, r2, #31
    e4a0:	4b04      	ldr	r3, [pc, #16]	(e4b4 <.text+0xe4b4>)
    e4a2:	4310      	orr	r0, r2
    e4a4:	1a18      	sub	r0, r3, r0
    e4a6:	0fc0      	lsr	r0, r0, #31
    e4a8:	bc10      	pop	{r4}
    e4aa:	bc02      	pop	{r1}
    e4ac:	4708      	bx	r1
    e4ae:	0000      	lsl	r0, r0, #0
    e4b0:	ffff      	second half of BL instruction 0xffff
    e4b2:	7fff      	ldrb	r7, [r7, #31]
    e4b4:	0000      	lsl	r0, r0, #0
    e4b6:	7ff0      	ldrb	r0, [r6, #31]

0000e4b8 <matherr>:
    e4b8:	2000      	mov	r0, #0
    e4ba:	4770      	bx	lr

0000e4bc <scalbn>:
    e4bc:	b5f0      	push	{r4, r5, r6, r7, lr}
    e4be:	4647      	mov	r7, r8
    e4c0:	b480      	push	{r7}
    e4c2:	4f37      	ldr	r7, [pc, #220]	(e5a0 <.text+0xe5a0>)
    e4c4:	1c0c      	mov	r4, r1		(add r4, r1, #0)
    e4c6:	1c03      	mov	r3, r0		(add r3, r0, #0)
    e4c8:	1c03      	mov	r3, r0		(add r3, r0, #0)
    e4ca:	403b      	and	r3, r7
    e4cc:	1c0e      	mov	r6, r1		(add r6, r1, #0)
    e4ce:	1c05      	mov	r5, r0		(add r5, r0, #0)
    e4d0:	1519      	asr	r1, r3, #20
    e4d2:	4690      	mov	r8, r2
    e4d4:	2900      	cmp	r1, #0
    e4d6:	d115      	bne	e504 <scalbn+0x48>
    e4d8:	4b32      	ldr	r3, [pc, #200]	(e5a4 <.text+0xe5a4>)
    e4da:	4003      	and	r3, r0
    e4dc:	4323      	orr	r3, r4
    e4de:	d102      	bne	e4e6 <scalbn+0x2a>
    e4e0:	1c31      	mov	r1, r6		(add r1, r6, #0)
    e4e2:	1c28      	mov	r0, r5		(add r0, r5, #0)
    e4e4:	e020      	b	e528 <scalbn+0x6c>
    e4e6:	1c31      	mov	r1, r6		(add r1, r6, #0)
    e4e8:	1c28      	mov	r0, r5		(add r0, r5, #0)
    e4ea:	4a2f      	ldr	r2, [pc, #188]	(e5a8 <.text+0xe5a8>)
    e4ec:	4b2f      	ldr	r3, [pc, #188]	(e5ac <.text+0xe5ac>)
    e4ee:	f9ebf001 	bl	f8c8 <____muldf3_from_thumb>
    e4f2:	4007      	and	r7, r0
    e4f4:	153b      	asr	r3, r7, #20
    e4f6:	1c0e      	mov	r6, r1		(add r6, r1, #0)
    e4f8:	1c05      	mov	r5, r0		(add r5, r0, #0)
    e4fa:	1c19      	mov	r1, r3		(add r1, r3, #0)
    e4fc:	4b2c      	ldr	r3, [pc, #176]	(e5b0 <.text+0xe5b0>)
    e4fe:	3936      	sub	r1, #54
    e500:	4598      	cmp	r8, r3
    e502:	db1d      	blt	e540 <scalbn+0x84>
    e504:	4b2b      	ldr	r3, [pc, #172]	(e5b4 <.text+0xe5b4>)
    e506:	4299      	cmp	r1, r3
    e508:	d013      	beq	e532 <scalbn+0x76>
    e50a:	4b2b      	ldr	r3, [pc, #172]	(e5b8 <.text+0xe5b8>)
    e50c:	4441      	add	r1, r8
    e50e:	4299      	cmp	r1, r3
    e510:	dc1d      	bgt	e54e <scalbn+0x92>
    e512:	2900      	cmp	r1, #0
    e514:	dd26      	ble	e564 <scalbn+0xa8>
    e516:	4a29      	ldr	r2, [pc, #164]	(e5bc <.text+0xe5bc>)
    e518:	4010      	and	r0, r2
    e51a:	1c34      	mov	r4, r6		(add r4, r6, #0)
    e51c:	1c2b      	mov	r3, r5		(add r3, r5, #0)
    e51e:	050a      	lsl	r2, r1, #20
    e520:	1c03      	mov	r3, r0		(add r3, r0, #0)
    e522:	4313      	orr	r3, r2
    e524:	1c21      	mov	r1, r4		(add r1, r4, #0)
    e526:	1c18      	mov	r0, r3		(add r0, r3, #0)
    e528:	bc08      	pop	{r3}
    e52a:	4698      	mov	r8, r3
    e52c:	bcf0      	pop	{r4, r5, r6, r7}
    e52e:	bc04      	pop	{r2}
    e530:	4710      	bx	r2
    e532:	1c31      	mov	r1, r6		(add r1, r6, #0)
    e534:	1c28      	mov	r0, r5		(add r0, r5, #0)
    e536:	1c33      	mov	r3, r6		(add r3, r6, #0)
    e538:	1c2a      	mov	r2, r5		(add r2, r5, #0)
    e53a:	f9c1f001 	bl	f8c0 <____adddf3_from_thumb>
    e53e:	e7f3      	b	e528 <scalbn+0x6c>
    e540:	1c31      	mov	r1, r6		(add r1, r6, #0)
    e542:	1c28      	mov	r0, r5		(add r0, r5, #0)
    e544:	4a1e      	ldr	r2, [pc, #120]	(e5c0 <.text+0xe5c0>)
    e546:	4b1f      	ldr	r3, [pc, #124]	(e5c4 <.text+0xe5c4>)
    e548:	f9bef001 	bl	f8c8 <____muldf3_from_thumb>
    e54c:	e7ec      	b	e528 <scalbn+0x6c>
    e54e:	1c33      	mov	r3, r6		(add r3, r6, #0)
    e550:	1c2a      	mov	r2, r5		(add r2, r5, #0)
    e552:	481d      	ldr	r0, [pc, #116]	(e5c8 <.text+0xe5c8>)
    e554:	491d      	ldr	r1, [pc, #116]	(e5cc <.text+0xe5cc>)
    e556:	f841f000 	bl	e5dc <copysign>
    e55a:	4a1b      	ldr	r2, [pc, #108]	(e5c8 <.text+0xe5c8>)
    e55c:	4b1b      	ldr	r3, [pc, #108]	(e5cc <.text+0xe5cc>)
    e55e:	f9b3f001 	bl	f8c8 <____muldf3_from_thumb>
    e562:	e7e1      	b	e528 <scalbn+0x6c>
    e564:	1c0b      	mov	r3, r1		(add r3, r1, #0)
    e566:	3336      	add	r3, #54
    e568:	dc09      	bgt	e57e <scalbn+0xc2>
    e56a:	4b19      	ldr	r3, [pc, #100]	(e5d0 <.text+0xe5d0>)
    e56c:	4598      	cmp	r8, r3
    e56e:	dcee      	bgt	e54e <scalbn+0x92>
    e570:	1c33      	mov	r3, r6		(add r3, r6, #0)
    e572:	1c2a      	mov	r2, r5		(add r2, r5, #0)
    e574:	4812      	ldr	r0, [pc, #72]	(e5c0 <.text+0xe5c0>)
    e576:	4913      	ldr	r1, [pc, #76]	(e5c4 <.text+0xe5c4>)
    e578:	f830f000 	bl	e5dc <copysign>
    e57c:	e7e2      	b	e544 <scalbn+0x88>
    e57e:	4a0f      	ldr	r2, [pc, #60]	(e5bc <.text+0xe5bc>)
    e580:	3136      	add	r1, #54
    e582:	4010      	and	r0, r2
    e584:	1c34      	mov	r4, r6		(add r4, r6, #0)
    e586:	1c2b      	mov	r3, r5		(add r3, r5, #0)
    e588:	050a      	lsl	r2, r1, #20
    e58a:	1c03      	mov	r3, r0		(add r3, r0, #0)
    e58c:	4313      	orr	r3, r2
    e58e:	1c26      	mov	r6, r4		(add r6, r4, #0)
    e590:	1c1d      	mov	r5, r3		(add r5, r3, #0)
    e592:	1c31      	mov	r1, r6		(add r1, r6, #0)
    e594:	1c28      	mov	r0, r5		(add r0, r5, #0)
    e596:	4a0f      	ldr	r2, [pc, #60]	(e5d4 <.text+0xe5d4>)
    e598:	4b0f      	ldr	r3, [pc, #60]	(e5d8 <.text+0xe5d8>)
    e59a:	f995f001 	bl	f8c8 <____muldf3_from_thumb>
    e59e:	e7c3      	b	e528 <scalbn+0x6c>
    e5a0:	0000      	lsl	r0, r0, #0
    e5a2:	7ff0      	ldrb	r0, [r6, #31]
    e5a4:	ffff      	second half of BL instruction 0xffff
    e5a6:	7fff      	ldrb	r7, [r7, #31]
    e5a8:	0000      	lsl	r0, r0, #0
    e5aa:	4350      	mul	r0, r2
    e5ac:	0000      	lsl	r0, r0, #0
    e5ae:	0000      	lsl	r0, r0, #0
    e5b0:	3cb0      	sub	r4, #176
    e5b2:	ffff      	second half of BL instruction 0xffff
    e5b4:	07ff      	lsl	r7, r7, #31
    e5b6:	0000      	lsl	r0, r0, #0
    e5b8:	07fe      	lsl	r6, r7, #31
    e5ba:	0000      	lsl	r0, r0, #0
    e5bc:	ffff      	second half of BL instruction 0xffff
    e5be:	800f      	strh	r7, [r1, #0]
    e5c0:	6e1f      	ldr	r7, [r3, #96]
    e5c2:	01a5      	lsl	r5, r4, #6
    e5c4:	c2f8f359 	blx	367bb8 <_etext+0x358010>
    e5c8:	e43c      	b	de44 <.text+0xde44>
    e5ca:	7e37      	ldrb	r7, [r6, #24]
    e5cc:	759c      	strb	r4, [r3, #22]
    e5ce:	8800      	ldrh	r0, [r0, #0]
    e5d0:	c350      	stmia	r3!,{r4, r6}
    e5d2:	0000      	lsl	r0, r0, #0
    e5d4:	0000      	lsl	r0, r0, #0
    e5d6:	3c90      	sub	r4, #144
    e5d8:	0000      	lsl	r0, r0, #0
	...

0000e5dc <copysign>:
    e5dc:	b570      	push	{r4, r5, r6, lr}
    e5de:	4c05      	ldr	r4, [pc, #20]	(e5f4 <.text+0xe5f4>)
    e5e0:	2380      	mov	r3, #128
    e5e2:	4004      	and	r4, r0
    e5e4:	061b      	lsl	r3, r3, #24
    e5e6:	4013      	and	r3, r2
    e5e8:	1c20      	mov	r0, r4		(add r0, r4, #0)
    e5ea:	4318      	orr	r0, r3
    e5ec:	bc70      	pop	{r4, r5, r6}
    e5ee:	bc04      	pop	{r2}
    e5f0:	4710      	bx	r2
    e5f2:	0000      	lsl	r0, r0, #0
    e5f4:	ffff      	second half of BL instruction 0xffff
    e5f6:	7fff      	ldrb	r7, [r7, #31]

0000e5f8 <__errno>:
    e5f8:	4b01      	ldr	r3, [pc, #4]	(e600 <.text+0xe600>)
    e5fa:	6818      	ldr	r0, [r3, #0]
    e5fc:	4770      	bx	lr
    e5fe:	0000      	lsl	r0, r0, #0
    e600:	0484      	lsl	r4, r0, #18
    e602:	4000      	and	r0, r0

0000e604 <__divsi3>:
    e604:	2900      	cmp	r1, #0
    e606:	d041      	beq	e68c <__divsi3+0x88>
    e608:	b410      	push	{r4}
    e60a:	1c04      	mov	r4, r0		(add r4, r0, #0)
    e60c:	404c      	eor	r4, r1
    e60e:	46a4      	mov	ip, r4
    e610:	2301      	mov	r3, #1
    e612:	2200      	mov	r2, #0
    e614:	2900      	cmp	r1, #0
    e616:	d500      	bpl	e61a <__divsi3+0x16>
    e618:	4249      	neg	r1, r1
    e61a:	2800      	cmp	r0, #0
    e61c:	d500      	bpl	e620 <__divsi3+0x1c>
    e61e:	4240      	neg	r0, r0
    e620:	4288      	cmp	r0, r1
    e622:	d32c      	bcc	e67e <__divsi3+0x7a>
    e624:	2401      	mov	r4, #1
    e626:	0724      	lsl	r4, r4, #28
    e628:	42a1      	cmp	r1, r4
    e62a:	d204      	bcs	e636 <__divsi3+0x32>
    e62c:	4281      	cmp	r1, r0
    e62e:	d202      	bcs	e636 <__divsi3+0x32>
    e630:	0109      	lsl	r1, r1, #4
    e632:	011b      	lsl	r3, r3, #4
    e634:	e7f8      	b	e628 <__divsi3+0x24>
    e636:	00e4      	lsl	r4, r4, #3
    e638:	42a1      	cmp	r1, r4
    e63a:	d204      	bcs	e646 <__divsi3+0x42>
    e63c:	4281      	cmp	r1, r0
    e63e:	d202      	bcs	e646 <__divsi3+0x42>
    e640:	0049      	lsl	r1, r1, #1
    e642:	005b      	lsl	r3, r3, #1
    e644:	e7f8      	b	e638 <__divsi3+0x34>
    e646:	4288      	cmp	r0, r1
    e648:	d301      	bcc	e64e <__divsi3+0x4a>
    e64a:	1a40      	sub	r0, r0, r1
    e64c:	431a      	orr	r2, r3
    e64e:	084c      	lsr	r4, r1, #1
    e650:	42a0      	cmp	r0, r4
    e652:	d302      	bcc	e65a <__divsi3+0x56>
    e654:	1b00      	sub	r0, r0, r4
    e656:	085c      	lsr	r4, r3, #1
    e658:	4322      	orr	r2, r4
    e65a:	088c      	lsr	r4, r1, #2
    e65c:	42a0      	cmp	r0, r4
    e65e:	d302      	bcc	e666 <__divsi3+0x62>
    e660:	1b00      	sub	r0, r0, r4
    e662:	089c      	lsr	r4, r3, #2
    e664:	4322      	orr	r2, r4
    e666:	08cc      	lsr	r4, r1, #3
    e668:	42a0      	cmp	r0, r4
    e66a:	d302      	bcc	e672 <__divsi3+0x6e>
    e66c:	1b00      	sub	r0, r0, r4
    e66e:	08dc      	lsr	r4, r3, #3
    e670:	4322      	orr	r2, r4
    e672:	2800      	cmp	r0, #0
    e674:	d003      	beq	e67e <__divsi3+0x7a>
    e676:	091b      	lsr	r3, r3, #4
    e678:	d001      	beq	e67e <__divsi3+0x7a>
    e67a:	0909      	lsr	r1, r1, #4
    e67c:	e7e3      	b	e646 <__divsi3+0x42>
    e67e:	1c10      	mov	r0, r2		(add r0, r2, #0)
    e680:	4664      	mov	r4, ip
    e682:	2c00      	cmp	r4, #0
    e684:	d500      	bpl	e688 <__divsi3+0x84>
    e686:	4240      	neg	r0, r0
    e688:	bc10      	pop	{r4}
    e68a:	4770      	bx	lr
    e68c:	b500      	push	{lr}
    e68e:	f803f000 	bl	e698 <__div0>
    e692:	2000      	mov	r0, #0
    e694:	bc02      	pop	{r1}
    e696:	4708      	bx	r1

0000e698 <__div0>:
    e698:	4770      	bx	lr
    e69a:	46c0      	nop			(mov r8, r8)

0000e69c <__subdf3>:
    e69c:	e2222102 	eor	r2, r2, #-2147483648	; 0x80000000

0000e6a0 <__adddf3>:
    e6a0:	e1310003 	teq	r1, r3
    e6a4:	0020c002 	eoreq	ip, r0, r2
    e6a8:	033c0102 	teqeq	ip, #-2147483648	; 0x80000000
    e6ac:	0a0000a3 	beq	e940 <__adddf3+0x2a0>
    e6b0:	e191c080 	orrs	ip, r1, r0, lsl #1
    e6b4:	01a01003 	moveq	r1, r3
    e6b8:	01a00002 	moveq	r0, r2
    e6bc:	1193c082 	orrnes	ip, r3, r2, lsl #1
    e6c0:	012fff1e 	bxeq	lr
    e6c4:	e92d4030 	stmdb	sp!, {r4, r5, lr}
    e6c8:	e3a0c47f 	mov	ip, #2130706432	; 0x7f000000
    e6cc:	e38cc60f 	orr	ip, ip, #15728640	; 0xf00000
    e6d0:	e000400c 	and	r4, r0, ip
    e6d4:	e002500c 	and	r5, r2, ip
    e6d8:	e134000c 	teq	r4, ip
    e6dc:	1135000c 	teqne	r5, ip
    e6e0:	0a0000a2 	beq	e970 <__adddf3+0x2d0>
    e6e4:	e0555004 	subs	r5, r5, r4
    e6e8:	b2655000 	rsblt	r5, r5, #0	; 0x0
    e6ec:	da000006 	ble	e70c <__adddf3+0x6c>
    e6f0:	e0844005 	add	r4, r4, r5
    e6f4:	e0213003 	eor	r3, r1, r3
    e6f8:	e0202002 	eor	r2, r0, r2
    e6fc:	e0231001 	eor	r1, r3, r1
    e700:	e0220000 	eor	r0, r2, r0
    e704:	e0213003 	eor	r3, r1, r3
    e708:	e0202002 	eor	r2, r0, r2
    e70c:	e3550636 	cmp	r5, #56623104	; 0x3600000
    e710:	88bd4030 	ldmhiia	sp!, {r4, r5, lr}
    e714:	812fff1e 	bxhi	lr
    e718:	e3100102 	tst	r0, #-2147483648	; 0x80000000
    e71c:	e1c0008c 	bic	r0, r0, ip, lsl #1
    e720:	e3800601 	orr	r0, r0, #1048576	; 0x100000
    e724:	0a000001 	beq	e730 <__adddf3+0x90>
    e728:	e2711000 	rsbs	r1, r1, #0	; 0x0
    e72c:	e2e00000 	rsc	r0, r0, #0	; 0x0
    e730:	e3120102 	tst	r2, #-2147483648	; 0x80000000
    e734:	e1c2208c 	bic	r2, r2, ip, lsl #1
    e738:	e3822601 	orr	r2, r2, #1048576	; 0x100000
    e73c:	0a000001 	beq	e748 <__adddf3+0xa8>
    e740:	e2733000 	rsbs	r3, r3, #0	; 0x0
    e744:	e2e22000 	rsc	r2, r2, #0	; 0x0
    e748:	e1340005 	teq	r4, r5
    e74c:	0a000075 	beq	e928 <__adddf3+0x288>
    e750:	e3a0c000 	mov	ip, #0	; 0x0
    e754:	e1b05a25 	movs	r5, r5, lsr #20
    e758:	0a000013 	beq	e7ac <__adddf3+0x10c>
    e75c:	e3340601 	teq	r4, #1048576	; 0x100000
    e760:	0a000004 	beq	e778 <__adddf3+0xd8>
    e764:	e1b01081 	movs	r1, r1, lsl #1
    e768:	e0ac0080 	adc	r0, ip, r0, lsl #1
    e76c:	e2444601 	sub	r4, r4, #1048576	; 0x100000
    e770:	e2555001 	subs	r5, r5, #1	; 0x1
    e774:	0a00000c 	beq	e7ac <__adddf3+0x10c>
    e778:	e275e020 	rsbs	lr, r5, #32	; 0x20
    e77c:	ba000004 	blt	e794 <__adddf3+0xf4>
    e780:	e1a0ce13 	mov	ip, r3, lsl lr
    e784:	e1a03533 	mov	r3, r3, lsr r5
    e788:	e1833e12 	orr	r3, r3, r2, lsl lr
    e78c:	e1a02552 	mov	r2, r2, asr r5
    e790:	ea000005 	b	e7ac <__adddf3+0x10c>
    e794:	e2455020 	sub	r5, r5, #32	; 0x20
    e798:	e28ee020 	add	lr, lr, #32	; 0x20
    e79c:	e3530001 	cmp	r3, #1	; 0x1
    e7a0:	e0acce12 	adc	ip, ip, r2, lsl lr
    e7a4:	e1a03552 	mov	r3, r2, asr r5
    e7a8:	e1a02042 	mov	r2, r2, asr #32
    e7ac:	e0911003 	adds	r1, r1, r3
    e7b0:	e0a00002 	adc	r0, r0, r2
    e7b4:	e2105102 	ands	r5, r0, #-2147483648	; 0x80000000
    e7b8:	5a000002 	bpl	e7c8 <__adddf3+0x128>
    e7bc:	e27cc000 	rsbs	ip, ip, #0	; 0x0
    e7c0:	e2f11000 	rscs	r1, r1, #0	; 0x0
    e7c4:	e2e00000 	rsc	r0, r0, #0	; 0x0
    e7c8:	e3500601 	cmp	r0, #1048576	; 0x100000
    e7cc:	3a00001a 	bcc	e83c <__adddf3+0x19c>
    e7d0:	e3500602 	cmp	r0, #2097152	; 0x200000
    e7d4:	3a00000b 	bcc	e808 <__adddf3+0x168>
    e7d8:	e3500501 	cmp	r0, #4194304	; 0x400000
    e7dc:	3a000004 	bcc	e7f4 <__adddf3+0x154>
    e7e0:	e1b000a0 	movs	r0, r0, lsr #1
    e7e4:	e1b01061 	movs	r1, r1, rrx
    e7e8:	e1b0c06c 	movs	ip, ip, rrx
    e7ec:	238cc001 	orrcs	ip, ip, #1	; 0x1
    e7f0:	e2844601 	add	r4, r4, #1048576	; 0x100000
    e7f4:	e1b000a0 	movs	r0, r0, lsr #1
    e7f8:	e1b01061 	movs	r1, r1, rrx
    e7fc:	e1b0c06c 	movs	ip, ip, rrx
    e800:	238cc001 	orrcs	ip, ip, #1	; 0x1
    e804:	e2844601 	add	r4, r4, #1048576	; 0x100000
    e808:	e0911fac 	adds	r1, r1, ip, lsr #31
    e80c:	e2a00000 	adc	r0, r0, #0	; 0x0
    e810:	e33c0102 	teq	ip, #-2147483648	; 0x80000000
    e814:	03c11001 	biceq	r1, r1, #1	; 0x1
    e818:	e3100602 	tst	r0, #2097152	; 0x200000
    e81c:	12844601 	addne	r4, r4, #1048576	; 0x100000
    e820:	e294c601 	adds	ip, r4, #1048576	; 0x100000
    e824:	4a00004c 	bmi	e95c <__adddf3+0x2bc>
    e828:	e3c00603 	bic	r0, r0, #3145728	; 0x300000
    e82c:	e1800004 	orr	r0, r0, r4
    e830:	e1800005 	orr	r0, r0, r5
    e834:	e8bd4030 	ldmia	sp!, {r4, r5, lr}
    e838:	e12fff1e 	bx	lr
    e83c:	e3300000 	teq	r0, #0	; 0x0
    e840:	13e0300a 	mvnne	r3, #10	; 0xa
    e844:	03a03015 	moveq	r3, #21	; 0x15
    e848:	01a00001 	moveq	r0, r1
    e84c:	03a01000 	moveq	r1, #0	; 0x0
    e850:	e1a02000 	mov	r2, r0
    e854:	e1b0c820 	movs	ip, r0, lsr #16
    e858:	01a02802 	moveq	r2, r2, lsl #16
    e85c:	02833010 	addeq	r3, r3, #16	; 0x10
    e860:	e31204ff 	tst	r2, #-16777216	; 0xff000000
    e864:	01a02402 	moveq	r2, r2, lsl #8
    e868:	02833008 	addeq	r3, r3, #8	; 0x8
    e86c:	e312020f 	tst	r2, #-268435456	; 0xf0000000
    e870:	01a02202 	moveq	r2, r2, lsl #4
    e874:	02833004 	addeq	r3, r3, #4	; 0x4
    e878:	e3120103 	tst	r2, #-1073741824	; 0xc0000000
    e87c:	01a02102 	moveq	r2, r2, lsl #2
    e880:	02833002 	addeq	r3, r3, #2	; 0x2
    e884:	e3120102 	tst	r2, #-2147483648	; 0x80000000
    e888:	02833001 	addeq	r3, r3, #1	; 0x1
    e88c:	e2532020 	subs	r2, r3, #32	; 0x20
    e890:	aa000007 	bge	e8b4 <__adddf3+0x214>
    e894:	e292200c 	adds	r2, r2, #12	; 0xc
    e898:	da000004 	ble	e8b0 <__adddf3+0x210>
    e89c:	e282c014 	add	ip, r2, #20	; 0x14
    e8a0:	e262200c 	rsb	r2, r2, #12	; 0xc
    e8a4:	e1a01c10 	mov	r1, r0, lsl ip
    e8a8:	e1a00230 	mov	r0, r0, lsr r2
    e8ac:	ea000004 	b	e8c4 <__adddf3+0x224>
    e8b0:	e2822014 	add	r2, r2, #20	; 0x14
    e8b4:	d262c020 	rsble	ip, r2, #32	; 0x20
    e8b8:	e1a00210 	mov	r0, r0, lsl r2
    e8bc:	d1800c31 	orrle	r0, r0, r1, lsr ip
    e8c0:	d1a01211 	movle	r1, r1, lsl r2
    e8c4:	e0544a03 	subs	r4, r4, r3, lsl #20
    e8c8:	caffffd6 	bgt	e828 <__adddf3+0x188>
    e8cc:	e1e04a44 	mvn	r4, r4, asr #20
    e8d0:	e254401e 	subs	r4, r4, #30	; 0x1e
    e8d4:	aa00000f 	bge	e918 <__adddf3+0x278>
    e8d8:	e294400c 	adds	r4, r4, #12	; 0xc
    e8dc:	ca000006 	bgt	e8fc <__adddf3+0x25c>
    e8e0:	e2844014 	add	r4, r4, #20	; 0x14
    e8e4:	e2642020 	rsb	r2, r4, #32	; 0x20
    e8e8:	e1a01431 	mov	r1, r1, lsr r4
    e8ec:	e1811210 	orr	r1, r1, r0, lsl r2
    e8f0:	e1850430 	orr	r0, r5, r0, lsr r4
    e8f4:	e8bd4030 	ldmia	sp!, {r4, r5, lr}
    e8f8:	e12fff1e 	bx	lr
    e8fc:	e264400c 	rsb	r4, r4, #12	; 0xc
    e900:	e2642020 	rsb	r2, r4, #32	; 0x20
    e904:	e1a01231 	mov	r1, r1, lsr r2
    e908:	e1811410 	orr	r1, r1, r0, lsl r4
    e90c:	e1a00005 	mov	r0, r5
    e910:	e8bd4030 	ldmia	sp!, {r4, r5, lr}
    e914:	e12fff1e 	bx	lr
    e918:	e1a01430 	mov	r1, r0, lsr r4
    e91c:	e1a00005 	mov	r0, r5
    e920:	e8bd4030 	ldmia	sp!, {r4, r5, lr}
    e924:	e12fff1e 	bx	lr
    e928:	e3340000 	teq	r4, #0	; 0x0
    e92c:	02200601 	eoreq	r0, r0, #1048576	; 0x100000
    e930:	02844601 	addeq	r4, r4, #1048576	; 0x100000
    e934:	e2222601 	eor	r2, r2, #1048576	; 0x100000
    e938:	12455601 	subne	r5, r5, #1048576	; 0x100000
    e93c:	eaffff83 	b	e750 <__adddf3+0xb0>
    e940:	e24cc601 	sub	ip, ip, #1048576	; 0x100000
    e944:	e000200c 	and	r2, r0, ip
    e948:	e132000c 	teq	r2, ip
    e94c:	038c0702 	orreq	r0, ip, #524288	; 0x80000
    e950:	13a00000 	movne	r0, #0	; 0x0
    e954:	e3a01000 	mov	r1, #0	; 0x0
    e958:	e12fff1e 	bx	lr
    e95c:	e385047f 	orr	r0, r5, #2130706432	; 0x7f000000
    e960:	e380060f 	orr	r0, r0, #15728640	; 0xf00000
    e964:	e3a01000 	mov	r1, #0	; 0x0
    e968:	e8bd4030 	ldmia	sp!, {r4, r5, lr}
    e96c:	e12fff1e 	bx	lr
    e970:	e134000c 	teq	r4, ip
    e974:	11a00002 	movne	r0, r2
    e978:	11a01003 	movne	r1, r3
    e97c:	0135000c 	teqeq	r5, ip
    e980:	18bd4030 	ldmneia	sp!, {r4, r5, lr}
    e984:	112fff1e 	bxne	lr
    e988:	e1914600 	orrs	r4, r1, r0, lsl #12
    e98c:	01934602 	orreqs	r4, r3, r2, lsl #12
    e990:	01300002 	teqeq	r0, r2
    e994:	13850702 	orrne	r0, r5, #524288	; 0x80000
    e998:	13a01000 	movne	r1, #0	; 0x0
    e99c:	e8bd4030 	ldmia	sp!, {r4, r5, lr}
    e9a0:	e12fff1e 	bx	lr

0000e9a4 <__floatunsidf>:
    e9a4:	e3300000 	teq	r0, #0	; 0x0
    e9a8:	03a01000 	moveq	r1, #0	; 0x0
    e9ac:	012fff1e 	bxeq	lr
    e9b0:	e92d4030 	stmdb	sp!, {r4, r5, lr}
    e9b4:	e3a04101 	mov	r4, #1073741824	; 0x40000000
    e9b8:	e2844633 	add	r4, r4, #53477376	; 0x3300000
    e9bc:	e3a05000 	mov	r5, #0	; 0x0
    e9c0:	e1a01000 	mov	r1, r0
    e9c4:	e3a00000 	mov	r0, #0	; 0x0
    e9c8:	eaffff9b 	b	e83c <__adddf3+0x19c>

0000e9cc <__floatsidf>:
    e9cc:	e3300000 	teq	r0, #0	; 0x0
    e9d0:	03a01000 	moveq	r1, #0	; 0x0
    e9d4:	012fff1e 	bxeq	lr
    e9d8:	e92d4030 	stmdb	sp!, {r4, r5, lr}
    e9dc:	e3a04101 	mov	r4, #1073741824	; 0x40000000
    e9e0:	e2844633 	add	r4, r4, #53477376	; 0x3300000
    e9e4:	e2105102 	ands	r5, r0, #-2147483648	; 0x80000000
    e9e8:	42600000 	rsbmi	r0, r0, #0	; 0x0
    e9ec:	e1a01000 	mov	r1, r0
    e9f0:	e3a00000 	mov	r0, #0	; 0x0
    e9f4:	eaffff90 	b	e83c <__adddf3+0x19c>

0000e9f8 <__extendsfdf2>:
    e9f8:	e1b02080 	movs	r2, r0, lsl #1
    e9fc:	0a000007 	beq	ea20 <__extendsfdf2+0x28>
    ea00:	e1a001c2 	mov	r0, r2, asr #3
    ea04:	e1a00060 	mov	r0, r0, rrx
    ea08:	e1a01e02 	mov	r1, r2, lsl #28
    ea0c:	e21224ff 	ands	r2, r2, #-16777216	; 0xff000000
    ea10:	0a000005 	beq	ea2c <__extendsfdf2+0x34>
    ea14:	e33204ff 	teq	r2, #-16777216	; 0xff000000
    ea18:	1220030e 	eorne	r0, r0, #939524096	; 0x38000000
    ea1c:	e12fff1e 	bx	lr
    ea20:	e1a00000 	nop			(mov r0,r0)
    ea24:	e3a01000 	mov	r1, #0	; 0x0
    ea28:	e12fff1e 	bx	lr
    ea2c:	e92d4030 	stmdb	sp!, {r4, r5, lr}
    ea30:	e3a0430e 	mov	r4, #939524096	; 0x38000000
    ea34:	e2844601 	add	r4, r4, #1048576	; 0x100000
    ea38:	e2005102 	and	r5, r0, #-2147483648	; 0x80000000
    ea3c:	e3c00102 	bic	r0, r0, #-2147483648	; 0x80000000
    ea40:	eaffff7d 	b	e83c <__adddf3+0x19c>

0000ea44 <__muldf3>:
    ea44:	e92d4070 	stmdb	sp!, {r4, r5, r6, lr}
    ea48:	e3a0c47f 	mov	ip, #2130706432	; 0x7f000000
    ea4c:	e38cc60f 	orr	ip, ip, #15728640	; 0xf00000
    ea50:	e000400c 	and	r4, r0, ip
    ea54:	e002500c 	and	r5, r2, ip
    ea58:	e134000c 	teq	r4, ip
    ea5c:	1135000c 	teqne	r5, ip
    ea60:	0a00007f 	beq	ec64 <__muldf3+0x220>
    ea64:	e1916080 	orrs	r6, r1, r0, lsl #1
    ea68:	11936082 	orrnes	r6, r3, r2, lsl #1
    ea6c:	0a000030 	beq	eb34 <__muldf3+0xf0>
    ea70:	e1b040a4 	movs	r4, r4, lsr #1
    ea74:	13350000 	teqne	r5, #0	; 0x0
    ea78:	0a000065 	beq	ec14 <__muldf3+0x1d0>
    ea7c:	e08440c5 	add	r4, r4, r5, asr #1
    ea80:	e1300002 	teq	r0, r2
    ea84:	43844902 	orrmi	r4, r4, #32768	; 0x8000
    ea88:	e1c0008c 	bic	r0, r0, ip, lsl #1
    ea8c:	e1c2208c 	bic	r2, r2, ip, lsl #1
    ea90:	e3800601 	orr	r0, r0, #1048576	; 0x100000
    ea94:	e3822601 	orr	r2, r2, #1048576	; 0x100000
    ea98:	e08ec391 	umull	ip, lr, r1, r3
    ea9c:	e3a05000 	mov	r5, #0	; 0x0
    eaa0:	e0a5e291 	umlal	lr, r5, r1, r2
    eaa4:	e0a5e390 	umlal	lr, r5, r0, r3
    eaa8:	e3a06000 	mov	r6, #0	; 0x0
    eaac:	e0a65290 	umlal	r5, r6, r0, r2
    eab0:	e33c0000 	teq	ip, #0	; 0x0
    eab4:	138ee001 	orrne	lr, lr, #1	; 0x1
    eab8:	e1a00804 	mov	r0, r4, lsl #16
    eabc:	e3c44902 	bic	r4, r4, #32768	; 0x8000
    eac0:	e3160c02 	tst	r6, #512	; 0x200
    eac4:	0a000004 	beq	eadc <__muldf3+0x98>
    eac8:	e2844702 	add	r4, r4, #524288	; 0x80000
    eacc:	e1b060a6 	movs	r6, r6, lsr #1
    ead0:	e1b05065 	movs	r5, r5, rrx
    ead4:	e1b0e06e 	movs	lr, lr, rrx
    ead8:	238ee001 	orrcs	lr, lr, #1	; 0x1
    eadc:	e1800606 	orr	r0, r0, r6, lsl #12
    eae0:	e1800a25 	orr	r0, r0, r5, lsr #20
    eae4:	e1a01605 	mov	r1, r5, lsl #12
    eae8:	e1811a2e 	orr	r1, r1, lr, lsr #20
    eaec:	e244473e 	sub	r4, r4, #16252928	; 0xf80000
    eaf0:	e254441f 	subs	r4, r4, #520093696	; 0x1f000000
    eaf4:	da000013 	ble	eb48 <__muldf3+0x104>
    eaf8:	e1b0e60e 	movs	lr, lr, lsl #12
    eafc:	5a000005 	bpl	eb18 <__muldf3+0xd4>
    eb00:	e2911001 	adds	r1, r1, #1	; 0x1
    eb04:	e2a00000 	adc	r0, r0, #0	; 0x0
    eb08:	e33e0102 	teq	lr, #-2147483648	; 0x80000000
    eb0c:	03c11001 	biceq	r1, r1, #1	; 0x1
    eb10:	e3100602 	tst	r0, #2097152	; 0x200000
    eb14:	12844702 	addne	r4, r4, #524288	; 0x80000
    eb18:	e294c702 	adds	ip, r4, #524288	; 0x80000
    eb1c:	e31c0101 	tst	ip, #1073741824	; 0x40000000
    eb20:	1a00005b 	bne	ec94 <__muldf3+0x250>
    eb24:	e3c00603 	bic	r0, r0, #3145728	; 0x300000
    eb28:	e1800084 	orr	r0, r0, r4, lsl #1
    eb2c:	e8bd4070 	ldmia	sp!, {r4, r5, r6, lr}
    eb30:	e12fff1e 	bx	lr
    eb34:	e0200002 	eor	r0, r0, r2
    eb38:	e2000102 	and	r0, r0, #-2147483648	; 0x80000000
    eb3c:	e3a01000 	mov	r1, #0	; 0x0
    eb40:	e8bd4070 	ldmia	sp!, {r4, r5, r6, lr}
    eb44:	e12fff1e 	bx	lr
    eb48:	e374076a 	cmn	r4, #27787264	; 0x1a80000
    eb4c:	d3a01000 	movle	r1, #0	; 0x0
    eb50:	d2000102 	andle	r0, r0, #-2147483648	; 0x80000000
    eb54:	d8bd4070 	ldmleia	sp!, {r4, r5, r6, lr}
    eb58:	d12fff1e 	bxle	lr
    eb5c:	e1e049c4 	mvn	r4, r4, asr #19
    eb60:	e254401e 	subs	r4, r4, #30	; 0x1e
    eb64:	aa00001d 	bge	ebe0 <__muldf3+0x19c>
    eb68:	e294400c 	adds	r4, r4, #12	; 0xc
    eb6c:	ca00000e 	bgt	ebac <__muldf3+0x168>
    eb70:	e2844014 	add	r4, r4, #20	; 0x14
    eb74:	e2645020 	rsb	r5, r4, #32	; 0x20
    eb78:	e1a03511 	mov	r3, r1, lsl r5
    eb7c:	e1a01431 	mov	r1, r1, lsr r4
    eb80:	e1811510 	orr	r1, r1, r0, lsl r5
    eb84:	e1b00080 	movs	r0, r0, lsl #1
    eb88:	e1a00430 	mov	r0, r0, lsr r4
    eb8c:	e1a00060 	mov	r0, r0, rrx
    eb90:	e0911fa3 	adds	r1, r1, r3, lsr #31
    eb94:	e2a00000 	adc	r0, r0, #0	; 0x0
    eb98:	e33e0000 	teq	lr, #0	; 0x0
    eb9c:	03330102 	teqeq	r3, #-2147483648	; 0x80000000
    eba0:	03c11001 	biceq	r1, r1, #1	; 0x1
    eba4:	e8bd4070 	ldmia	sp!, {r4, r5, r6, lr}
    eba8:	e12fff1e 	bx	lr
    ebac:	e264400c 	rsb	r4, r4, #12	; 0xc
    ebb0:	e2645020 	rsb	r5, r4, #32	; 0x20
    ebb4:	e1a03411 	mov	r3, r1, lsl r4
    ebb8:	e1a01531 	mov	r1, r1, lsr r5
    ebbc:	e1811410 	orr	r1, r1, r0, lsl r4
    ebc0:	e2000102 	and	r0, r0, #-2147483648	; 0x80000000
    ebc4:	e0911fa3 	adds	r1, r1, r3, lsr #31
    ebc8:	e2a00000 	adc	r0, r0, #0	; 0x0
    ebcc:	e33e0000 	teq	lr, #0	; 0x0
    ebd0:	03330102 	teqeq	r3, #-2147483648	; 0x80000000
    ebd4:	03c11001 	biceq	r1, r1, #1	; 0x1
    ebd8:	e8bd4070 	ldmia	sp!, {r4, r5, r6, lr}
    ebdc:	e12fff1e 	bx	lr
    ebe0:	e2645020 	rsb	r5, r4, #32	; 0x20
    ebe4:	e1a06511 	mov	r6, r1, lsl r5
    ebe8:	e1a03431 	mov	r3, r1, lsr r4
    ebec:	e1833510 	orr	r3, r3, r0, lsl r5
    ebf0:	e1a01430 	mov	r1, r0, lsr r4
    ebf4:	e2000102 	and	r0, r0, #-2147483648	; 0x80000000
    ebf8:	e1c11430 	bic	r1, r1, r0, lsr r4
    ebfc:	e0811fa3 	add	r1, r1, r3, lsr #31
    ec00:	e196600e 	orrs	r6, r6, lr
    ec04:	03330102 	teqeq	r3, #-2147483648	; 0x80000000
    ec08:	03c11001 	biceq	r1, r1, #1	; 0x1
    ec0c:	e8bd4070 	ldmia	sp!, {r4, r5, r6, lr}
    ec10:	e12fff1e 	bx	lr
    ec14:	e3a0e000 	mov	lr, #0	; 0x0
    ec18:	e3340000 	teq	r4, #0	; 0x0
    ec1c:	1a000008 	bne	ec44 <__muldf3+0x200>
    ec20:	e2006102 	and	r6, r0, #-2147483648	; 0x80000000
    ec24:	e1b01081 	movs	r1, r1, lsl #1
    ec28:	e0ae0080 	adc	r0, lr, r0, lsl #1
    ec2c:	e3100601 	tst	r0, #1048576	; 0x100000
    ec30:	02444702 	subeq	r4, r4, #524288	; 0x80000
    ec34:	0afffffa 	beq	ec24 <__muldf3+0x1e0>
    ec38:	e1800006 	orr	r0, r0, r6
    ec3c:	e3350000 	teq	r5, #0	; 0x0
    ec40:	1affff8d 	bne	ea7c <__muldf3+0x38>
    ec44:	e2026102 	and	r6, r2, #-2147483648	; 0x80000000
    ec48:	e1b03083 	movs	r3, r3, lsl #1
    ec4c:	e0ae2082 	adc	r2, lr, r2, lsl #1
    ec50:	e3120601 	tst	r2, #1048576	; 0x100000
    ec54:	02455601 	subeq	r5, r5, #1048576	; 0x100000
    ec58:	0afffffa 	beq	ec48 <__muldf3+0x204>
    ec5c:	e1822006 	orr	r2, r2, r6
    ec60:	eaffff85 	b	ea7c <__muldf3+0x38>
    ec64:	e1916080 	orrs	r6, r1, r0, lsl #1
    ec68:	11936082 	orrnes	r6, r3, r2, lsl #1
    ec6c:	0a00000e 	beq	ecac <__muldf3+0x268>
    ec70:	e134000c 	teq	r4, ip
    ec74:	1a000001 	bne	ec80 <__muldf3+0x23c>
    ec78:	e1916600 	orrs	r6, r1, r0, lsl #12
    ec7c:	1a00000a 	bne	ecac <__muldf3+0x268>
    ec80:	e135000c 	teq	r5, ip
    ec84:	1a000001 	bne	ec90 <__muldf3+0x24c>
    ec88:	e1936602 	orrs	r6, r3, r2, lsl #12
    ec8c:	1a000006 	bne	ecac <__muldf3+0x268>
    ec90:	e0200002 	eor	r0, r0, r2
    ec94:	e2000102 	and	r0, r0, #-2147483648	; 0x80000000
    ec98:	e380047f 	orr	r0, r0, #2130706432	; 0x7f000000
    ec9c:	e380060f 	orr	r0, r0, #15728640	; 0xf00000
    eca0:	e3a01000 	mov	r1, #0	; 0x0
    eca4:	e8bd4070 	ldmia	sp!, {r4, r5, r6, lr}
    eca8:	e12fff1e 	bx	lr
    ecac:	e3a0047f 	mov	r0, #2130706432	; 0x7f000000
    ecb0:	e380073e 	orr	r0, r0, #16252928	; 0xf80000
    ecb4:	e8bd4070 	ldmia	sp!, {r4, r5, r6, lr}
    ecb8:	e12fff1e 	bx	lr

0000ecbc <__divdf3>:
    ecbc:	e92d4070 	stmdb	sp!, {r4, r5, r6, lr}
    ecc0:	e3a0c47f 	mov	ip, #2130706432	; 0x7f000000
    ecc4:	e38cc60f 	orr	ip, ip, #15728640	; 0xf00000
    ecc8:	e000400c 	and	r4, r0, ip
    eccc:	e002500c 	and	r5, r2, ip
    ecd0:	e134000c 	teq	r4, ip
    ecd4:	1135000c 	teqne	r5, ip
    ecd8:	11916080 	orrnes	r6, r1, r0, lsl #1
    ecdc:	11936082 	orrnes	r6, r3, r2, lsl #1
    ece0:	0a000080 	beq	eee8 <__divdf3+0x22c>
    ece4:	e1b040a4 	movs	r4, r4, lsr #1
    ece8:	13350000 	teqne	r5, #0	; 0x0
    ecec:	0a000069 	beq	ee98 <__divdf3+0x1dc>
    ecf0:	e04440c5 	sub	r4, r4, r5, asr #1
    ecf4:	e020e002 	eor	lr, r0, r2
    ecf8:	e3a05201 	mov	r5, #268435456	; 0x10000000
    ecfc:	e1a02602 	mov	r2, r2, lsl #12
    ed00:	e1852222 	orr	r2, r5, r2, lsr #4
    ed04:	e1822c23 	orr	r2, r2, r3, lsr #24
    ed08:	e1b03403 	movs	r3, r3, lsl #8
    ed0c:	e1a00600 	mov	r0, r0, lsl #12
    ed10:	01320005 	teqeq	r2, r5
    ed14:	0a00004e 	beq	ee54 <__divdf3+0x198>
    ed18:	e1855220 	orr	r5, r5, r0, lsr #4
    ed1c:	e1855c21 	orr	r5, r5, r1, lsr #24
    ed20:	e1a06401 	mov	r6, r1, lsl #8
    ed24:	e20e0102 	and	r0, lr, #-2147483648	; 0x80000000
    ed28:	e1550002 	cmp	r5, r2
    ed2c:	01560003 	cmpeq	r6, r3
    ed30:	2a000002 	bcs	ed40 <__divdf3+0x84>
    ed34:	e2444702 	sub	r4, r4, #524288	; 0x80000
    ed38:	e1b020a2 	movs	r2, r2, lsr #1
    ed3c:	e1a03063 	mov	r3, r3, rrx
    ed40:	e284441f 	add	r4, r4, #520093696	; 0x1f000000
    ed44:	e284473e 	add	r4, r4, #16252928	; 0xf80000
    ed48:	e374076a 	cmn	r4, #27787264	; 0x1a80000
    ed4c:	daffff79 	ble	eb38 <__muldf3+0xf4>
    ed50:	e15400ac 	cmp	r4, ip, lsr #1
    ed54:	aaffffce 	bge	ec94 <__muldf3+0x250>
    ed58:	e0566003 	subs	r6, r6, r3
    ed5c:	e0c55002 	sbc	r5, r5, r2
    ed60:	e1b020a2 	movs	r2, r2, lsr #1
    ed64:	e1a03063 	mov	r3, r3, rrx
    ed68:	e3a01601 	mov	r1, #1048576	; 0x100000
    ed6c:	e3a0c702 	mov	ip, #524288	; 0x80000
    ed70:	e056e003 	subs	lr, r6, r3
    ed74:	e0d5e002 	sbcs	lr, r5, r2
    ed78:	20466003 	subcs	r6, r6, r3
    ed7c:	21a0500e 	movcs	r5, lr
    ed80:	2181100c 	orrcs	r1, r1, ip
    ed84:	e1b020a2 	movs	r2, r2, lsr #1
    ed88:	e1a03063 	mov	r3, r3, rrx
    ed8c:	e056e003 	subs	lr, r6, r3
    ed90:	e0d5e002 	sbcs	lr, r5, r2
    ed94:	20466003 	subcs	r6, r6, r3
    ed98:	21a0500e 	movcs	r5, lr
    ed9c:	218110ac 	orrcs	r1, r1, ip, lsr #1
    eda0:	e1b020a2 	movs	r2, r2, lsr #1
    eda4:	e1a03063 	mov	r3, r3, rrx
    eda8:	e056e003 	subs	lr, r6, r3
    edac:	e0d5e002 	sbcs	lr, r5, r2
    edb0:	20466003 	subcs	r6, r6, r3
    edb4:	21a0500e 	movcs	r5, lr
    edb8:	2181112c 	orrcs	r1, r1, ip, lsr #2
    edbc:	e1b020a2 	movs	r2, r2, lsr #1
    edc0:	e1a03063 	mov	r3, r3, rrx
    edc4:	e056e003 	subs	lr, r6, r3
    edc8:	e0d5e002 	sbcs	lr, r5, r2
    edcc:	20466003 	subcs	r6, r6, r3
    edd0:	21a0500e 	movcs	r5, lr
    edd4:	218111ac 	orrcs	r1, r1, ip, lsr #3
    edd8:	e195e006 	orrs	lr, r5, r6
    eddc:	0a00000d 	beq	ee18 <__divdf3+0x15c>
    ede0:	e1a05205 	mov	r5, r5, lsl #4
    ede4:	e1855e26 	orr	r5, r5, r6, lsr #28
    ede8:	e1a06206 	mov	r6, r6, lsl #4
    edec:	e1a02182 	mov	r2, r2, lsl #3
    edf0:	e1822ea3 	orr	r2, r2, r3, lsr #29
    edf4:	e1a03183 	mov	r3, r3, lsl #3
    edf8:	e1b0c22c 	movs	ip, ip, lsr #4
    edfc:	1affffdb 	bne	ed70 <__divdf3+0xb4>
    ee00:	e3100601 	tst	r0, #1048576	; 0x100000
    ee04:	1a000006 	bne	ee24 <__divdf3+0x168>
    ee08:	e1800001 	orr	r0, r0, r1
    ee0c:	e3a01000 	mov	r1, #0	; 0x0
    ee10:	e3a0c102 	mov	ip, #-2147483648	; 0x80000000
    ee14:	eaffffd5 	b	ed70 <__divdf3+0xb4>
    ee18:	e3100601 	tst	r0, #1048576	; 0x100000
    ee1c:	01800001 	orreq	r0, r0, r1
    ee20:	03a01000 	moveq	r1, #0	; 0x0
    ee24:	e3540000 	cmp	r4, #0	; 0x0
    ee28:	da000018 	ble	ee90 <__divdf3+0x1d4>
    ee2c:	e055c002 	subs	ip, r5, r2
    ee30:	0056c003 	subeqs	ip, r6, r3
    ee34:	e2b11000 	adcs	r1, r1, #0	; 0x0
    ee38:	e2a00000 	adc	r0, r0, #0	; 0x0
    ee3c:	e33c0000 	teq	ip, #0	; 0x0
    ee40:	03c11001 	biceq	r1, r1, #1	; 0x1
    ee44:	e3c00601 	bic	r0, r0, #1048576	; 0x100000
    ee48:	e1800084 	orr	r0, r0, r4, lsl #1
    ee4c:	e8bd4070 	ldmia	sp!, {r4, r5, r6, lr}
    ee50:	e12fff1e 	bx	lr
    ee54:	e20ee102 	and	lr, lr, #-2147483648	; 0x80000000
    ee58:	e18e0620 	orr	r0, lr, r0, lsr #12
    ee5c:	e284441f 	add	r4, r4, #520093696	; 0x1f000000
    ee60:	e284473e 	add	r4, r4, #16252928	; 0xf80000
    ee64:	e15400ac 	cmp	r4, ip, lsr #1
    ee68:	aaffff89 	bge	ec94 <__muldf3+0x250>
    ee6c:	e3540000 	cmp	r4, #0	; 0x0
    ee70:	c1800084 	orrgt	r0, r0, r4, lsl #1
    ee74:	c8bd4070 	ldmgtia	sp!, {r4, r5, r6, lr}
    ee78:	c12fff1e 	bxgt	lr
    ee7c:	e374076a 	cmn	r4, #27787264	; 0x1a80000
    ee80:	daffff2c 	ble	eb38 <__muldf3+0xf4>
    ee84:	e3800601 	orr	r0, r0, #1048576	; 0x100000
    ee88:	e3a0e000 	mov	lr, #0	; 0x0
    ee8c:	eaffff32 	b	eb5c <__muldf3+0x118>
    ee90:	e185e006 	orr	lr, r5, r6
    ee94:	eaffff30 	b	eb5c <__muldf3+0x118>
    ee98:	e3a0e000 	mov	lr, #0	; 0x0
    ee9c:	e3340000 	teq	r4, #0	; 0x0
    eea0:	1a000008 	bne	eec8 <__divdf3+0x20c>
    eea4:	e2006102 	and	r6, r0, #-2147483648	; 0x80000000
    eea8:	e1b01081 	movs	r1, r1, lsl #1
    eeac:	e0ae0080 	adc	r0, lr, r0, lsl #1
    eeb0:	e3100601 	tst	r0, #1048576	; 0x100000
    eeb4:	02444702 	subeq	r4, r4, #524288	; 0x80000
    eeb8:	0afffffa 	beq	eea8 <__divdf3+0x1ec>
    eebc:	e1800006 	orr	r0, r0, r6
    eec0:	e3350000 	teq	r5, #0	; 0x0
    eec4:	1affff89 	bne	ecf0 <__divdf3+0x34>
    eec8:	e2026102 	and	r6, r2, #-2147483648	; 0x80000000
    eecc:	e1b03083 	movs	r3, r3, lsl #1
    eed0:	e0ae2082 	adc	r2, lr, r2, lsl #1
    eed4:	e3120601 	tst	r2, #1048576	; 0x100000
    eed8:	02455601 	subeq	r5, r5, #1048576	; 0x100000
    eedc:	0afffffa 	beq	eecc <__divdf3+0x210>
    eee0:	e1822006 	orr	r2, r2, r6
    eee4:	eaffff81 	b	ecf0 <__divdf3+0x34>
    eee8:	e134000c 	teq	r4, ip
    eeec:	0135000c 	teqeq	r5, ip
    eef0:	0affff6d 	beq	ecac <__muldf3+0x268>
    eef4:	e134000c 	teq	r4, ip
    eef8:	1a000002 	bne	ef08 <__divdf3+0x24c>
    eefc:	e1914600 	orrs	r4, r1, r0, lsl #12
    ef00:	1affff69 	bne	ecac <__muldf3+0x268>
    ef04:	eaffff61 	b	ec90 <__muldf3+0x24c>
    ef08:	e135000c 	teq	r5, ip
    ef0c:	1a000002 	bne	ef1c <__divdf3+0x260>
    ef10:	e1935602 	orrs	r5, r3, r2, lsl #12
    ef14:	1affff64 	bne	ecac <__muldf3+0x268>
    ef18:	eaffff05 	b	eb34 <__muldf3+0xf0>
    ef1c:	e1914080 	orrs	r4, r1, r0, lsl #1
    ef20:	1affff5a 	bne	ec90 <__muldf3+0x24c>
    ef24:	e1935082 	orrs	r5, r3, r2, lsl #1
    ef28:	1affff01 	bne	eb34 <__muldf3+0xf0>
    ef2c:	eaffff5e 	b	ecac <__muldf3+0x268>

0000ef30 <__gedf2>:
    ef30:	e3e0c000 	mvn	ip, #0	; 0x0
    ef34:	ea000002 	b	ef44 <__cmpdf2+0x4>

0000ef38 <__ledf2>:
    ef38:	e3a0c001 	mov	ip, #1	; 0x1
    ef3c:	ea000000 	b	ef44 <__cmpdf2+0x4>

0000ef40 <__cmpdf2>:
    ef40:	e3a0c001 	mov	ip, #1	; 0x1
    ef44:	e92d4030 	stmdb	sp!, {r4, r5, lr}
    ef48:	e3a0e47f 	mov	lr, #2130706432	; 0x7f000000
    ef4c:	e38ee60f 	orr	lr, lr, #15728640	; 0xf00000
    ef50:	e000400e 	and	r4, r0, lr
    ef54:	e002500e 	and	r5, r2, lr
    ef58:	e134000e 	teq	r4, lr
    ef5c:	1135000e 	teqne	r5, lr
    ef60:	0a000014 	beq	efb8 <__cmpdf2+0x78>
    ef64:	e191c080 	orrs	ip, r1, r0, lsl #1
    ef68:	0193c082 	orreqs	ip, r3, r2, lsl #1
    ef6c:	11300002 	teqne	r0, r2
    ef70:	01310003 	teqeq	r1, r3
    ef74:	03a00000 	moveq	r0, #0	; 0x0
    ef78:	08bd4030 	ldmeqia	sp!, {r4, r5, lr}
    ef7c:	012fff1e 	bxeq	lr
    ef80:	e1300002 	teq	r0, r2
    ef84:	41a00fc0 	movmi	r0, r0, asr #31
    ef88:	43800001 	orrmi	r0, r0, #1	; 0x1
    ef8c:	48bd4030 	ldmmiia	sp!, {r4, r5, lr}
    ef90:	412fff1e 	bxmi	lr
    ef94:	e1540005 	cmp	r4, r5
    ef98:	01a00600 	moveq	r0, r0, lsl #12
    ef9c:	01500602 	cmpeq	r0, r2, lsl #12
    efa0:	01510003 	cmpeq	r1, r3
    efa4:	21a00fc2 	movcs	r0, r2, asr #31
    efa8:	31e00fc2 	mvncc	r0, r2, asr #31
    efac:	e3800001 	orr	r0, r0, #1	; 0x1
    efb0:	e8bd4030 	ldmia	sp!, {r4, r5, lr}
    efb4:	e12fff1e 	bx	lr
    efb8:	e134000e 	teq	r4, lr
    efbc:	1a000001 	bne	efc8 <__cmpdf2+0x88>
    efc0:	e1911600 	orrs	r1, r1, r0, lsl #12
    efc4:	1a000003 	bne	efd8 <__cmpdf2+0x98>
    efc8:	e135000e 	teq	r5, lr
    efcc:	1affffe4 	bne	ef64 <__cmpdf2+0x24>
    efd0:	e1933602 	orrs	r3, r3, r2, lsl #12
    efd4:	0affffe2 	beq	ef64 <__cmpdf2+0x24>
    efd8:	e1a0000c 	mov	r0, ip
    efdc:	e8bd4030 	ldmia	sp!, {r4, r5, lr}
    efe0:	e12fff1e 	bx	lr

0000efe4 <__fixdfsi>:
    efe4:	e191c080 	orrs	ip, r1, r0, lsl #1
    efe8:	0a000014 	beq	f040 <__fixdfsi+0x5c>
    efec:	e1a03063 	mov	r3, r3, rrx
    eff0:	e3a0c47f 	mov	ip, #2130706432	; 0x7f000000
    eff4:	e38cc60f 	orr	ip, ip, #15728640	; 0xf00000
    eff8:	e000200c 	and	r2, r0, ip
    effc:	e132000c 	teq	r2, ip
    f000:	0a000010 	beq	f048 <__fixdfsi+0x64>
    f004:	e3ccc101 	bic	ip, ip, #1073741824	; 0x40000000
    f008:	e152000c 	cmp	r2, ip
    f00c:	3a00000b 	bcc	f040 <__fixdfsi+0x5c>
    f010:	e28cc61f 	add	ip, ip, #32505856	; 0x1f00000
    f014:	e152000c 	cmp	r2, ip
    f018:	2a00000c 	bcs	f050 <__fixdfsi+0x6c>
    f01c:	e062200c 	rsb	r2, r2, ip
    f020:	e1a0c580 	mov	ip, r0, lsl #11
    f024:	e38cc102 	orr	ip, ip, #-2147483648	; 0x80000000
    f028:	e18ccaa1 	orr	ip, ip, r1, lsr #21
    f02c:	e1a02a22 	mov	r2, r2, lsr #20
    f030:	e3130102 	tst	r3, #-2147483648	; 0x80000000
    f034:	e1a0023c 	mov	r0, ip, lsr r2
    f038:	12600000 	rsbne	r0, r0, #0	; 0x0
    f03c:	e12fff1e 	bx	lr
    f040:	e3a00000 	mov	r0, #0	; 0x0
    f044:	e12fff1e 	bx	lr
    f048:	e1911600 	orrs	r1, r1, r0, lsl #12
    f04c:	1a000002 	bne	f05c <__fixdfsi+0x78>
    f050:	e2130102 	ands	r0, r3, #-2147483648	; 0x80000000
    f054:	03e00102 	mvneq	r0, #-2147483648	; 0x80000000
    f058:	e12fff1e 	bx	lr
    f05c:	e3a00000 	mov	r0, #0	; 0x0
    f060:	e12fff1e 	bx	lr

0000f064 <__fixunsdfsi>:
    f064:	e191c080 	orrs	ip, r1, r0, lsl #1
    f068:	23b00000 	movcss	r0, #0	; 0x0
    f06c:	012fff1e 	bxeq	lr
    f070:	e3a0c47f 	mov	ip, #2130706432	; 0x7f000000
    f074:	e38cc60f 	orr	ip, ip, #15728640	; 0xf00000
    f078:	e000200c 	and	r2, r0, ip
    f07c:	e132000c 	teq	r2, ip
    f080:	0a00000e 	beq	f0c0 <__fixunsdfsi+0x5c>
    f084:	e3ccc101 	bic	ip, ip, #1073741824	; 0x40000000
    f088:	e152000c 	cmp	r2, ip
    f08c:	3a000009 	bcc	f0b8 <__fixunsdfsi+0x54>
    f090:	e28cc61f 	add	ip, ip, #32505856	; 0x1f00000
    f094:	e152000c 	cmp	r2, ip
    f098:	8a00000a 	bhi	f0c8 <__fixunsdfsi+0x64>
    f09c:	e062200c 	rsb	r2, r2, ip
    f0a0:	e1a0c580 	mov	ip, r0, lsl #11
    f0a4:	e38cc102 	orr	ip, ip, #-2147483648	; 0x80000000
    f0a8:	e18ccaa1 	orr	ip, ip, r1, lsr #21
    f0ac:	e1a02a22 	mov	r2, r2, lsr #20
    f0b0:	e1a0023c 	mov	r0, ip, lsr r2
    f0b4:	e12fff1e 	bx	lr
    f0b8:	e3a00000 	mov	r0, #0	; 0x0
    f0bc:	e12fff1e 	bx	lr
    f0c0:	e1911600 	orrs	r1, r1, r0, lsl #12
    f0c4:	1a000001 	bne	f0d0 <__fixunsdfsi+0x6c>
    f0c8:	e3e00000 	mvn	r0, #0	; 0x0
    f0cc:	e12fff1e 	bx	lr
    f0d0:	e3a00000 	mov	r0, #0	; 0x0
    f0d4:	e12fff1e 	bx	lr

0000f0d8 <__truncdfsf2>:
    f0d8:	e1912080 	orrs	r2, r1, r0, lsl #1
    f0dc:	01a00062 	moveq	r0, r2, rrx
    f0e0:	012fff1e 	bxeq	lr
    f0e4:	e3a0c47f 	mov	ip, #2130706432	; 0x7f000000
    f0e8:	e38cc60f 	orr	ip, ip, #15728640	; 0xf00000
    f0ec:	e00c2000 	and	r2, ip, r0
    f0f0:	e132000c 	teq	r2, ip
    f0f4:	0a000013 	beq	f148 <__truncdfsf2+0x70>
    f0f8:	e1c0000c 	bic	r0, r0, ip
    f0fc:	e352030e 	cmp	r2, #939524096	; 0x38000000
    f100:	9a000018 	bls	f168 <__truncdfsf2+0x90>
    f104:	e1b03ea1 	movs	r3, r1, lsr #29
    f108:	e0a33180 	adc	r3, r3, r0, lsl #3
    f10c:	e1a01181 	mov	r1, r1, lsl #3
    f110:	e3310102 	teq	r1, #-2147483648	; 0x80000000
    f114:	03c33001 	biceq	r3, r3, #1	; 0x1
    f118:	e3130502 	tst	r3, #8388608	; 0x800000
    f11c:	12822601 	addne	r2, r2, #1048576	; 0x100000
    f120:	13c33502 	bicne	r3, r3, #8388608	; 0x800000
    f124:	e3a0c101 	mov	ip, #1073741824	; 0x40000000
    f128:	e38cc67f 	orr	ip, ip, #133169152	; 0x7f00000
    f12c:	e152000c 	cmp	r2, ip
    f130:	2a000008 	bcs	f158 <__truncdfsf2+0x80>
    f134:	e1b00080 	movs	r0, r0, lsl #1
    f138:	e1a02202 	mov	r2, r2, lsl #4
    f13c:	e1830062 	orr	r0, r3, r2, rrx
    f140:	e2200101 	eor	r0, r0, #1073741824	; 0x40000000
    f144:	e12fff1e 	bx	lr
    f148:	e1911600 	orrs	r1, r1, r0, lsl #12
    f14c:	13a0047f 	movne	r0, #2130706432	; 0x7f000000
    f150:	13800503 	orrne	r0, r0, #12582912	; 0xc00000
    f154:	112fff1e 	bxne	lr
    f158:	e2000102 	and	r0, r0, #-2147483648	; 0x80000000
    f15c:	e380047f 	orr	r0, r0, #2130706432	; 0x7f000000
    f160:	e3800502 	orr	r0, r0, #8388608	; 0x800000
    f164:	e12fff1e 	bx	lr
    f168:	e25225da 	subs	r2, r2, #914358272	; 0x36800000
    f16c:	d2000102 	andle	r0, r0, #-2147483648	; 0x80000000
    f170:	d12fff1e 	bxle	lr
    f174:	e3800601 	orr	r0, r0, #1048576	; 0x100000
    f178:	e1a02a22 	mov	r2, r2, lsr #20
    f17c:	e2622019 	rsb	r2, r2, #25	; 0x19
    f180:	e3520014 	cmp	r2, #20	; 0x14
    f184:	ca00000a 	bgt	f1b4 <__truncdfsf2+0xdc>
    f188:	e262c020 	rsb	ip, r2, #32	; 0x20
    f18c:	e1a03c11 	mov	r3, r1, lsl ip
    f190:	e1a01231 	mov	r1, r1, lsr r2
    f194:	e1811c10 	orr	r1, r1, r0, lsl ip
    f198:	e1b00080 	movs	r0, r0, lsl #1
    f19c:	e1a00230 	mov	r0, r0, lsr r2
    f1a0:	e1a00060 	mov	r0, r0, rrx
    f1a4:	e3330000 	teq	r3, #0	; 0x0
    f1a8:	13811001 	orrne	r1, r1, #1	; 0x1
    f1ac:	e3a0230e 	mov	r2, #939524096	; 0x38000000
    f1b0:	eaffffd3 	b	f104 <__truncdfsf2+0x2c>
    f1b4:	e2622020 	rsb	r2, r2, #32	; 0x20
    f1b8:	e262c020 	rsb	ip, r2, #32	; 0x20
    f1bc:	e1a03211 	mov	r3, r1, lsl r2
    f1c0:	e1a01c31 	mov	r1, r1, lsr ip
    f1c4:	e1811210 	orr	r1, r1, r0, lsl r2
    f1c8:	e2000102 	and	r0, r0, #-2147483648	; 0x80000000
    f1cc:	eafffff4 	b	f1a4 <__truncdfsf2+0xcc>

0000f1d0 <__subsf3>:
    f1d0:	e2211102 	eor	r1, r1, #-2147483648	; 0x80000000

0000f1d4 <__addsf3>:
    f1d4:	e0202001 	eor	r2, r0, r1
    f1d8:	e3320102 	teq	r2, #-2147483648	; 0x80000000
    f1dc:	0a00005a 	beq	f34c <__addsf3+0x178>
    f1e0:	e3d02102 	bics	r2, r0, #-2147483648	; 0x80000000
    f1e4:	01a00001 	moveq	r0, r1
    f1e8:	13d12102 	bicnes	r2, r1, #-2147483648	; 0x80000000
    f1ec:	012fff1e 	bxeq	lr
    f1f0:	e3a0c4ff 	mov	ip, #-16777216	; 0xff000000
    f1f4:	e00020ac 	and	r2, r0, ip, lsr #1
    f1f8:	e00130ac 	and	r3, r1, ip, lsr #1
    f1fc:	e13200ac 	teq	r2, ip, lsr #1
    f200:	113300ac 	teqne	r3, ip, lsr #1
    f204:	0a000059 	beq	f370 <__addsf3+0x19c>
    f208:	e0533002 	subs	r3, r3, r2
    f20c:	c0822003 	addgt	r2, r2, r3
    f210:	c0201001 	eorgt	r1, r0, r1
    f214:	c0210000 	eorgt	r0, r1, r0
    f218:	c0201001 	eorgt	r1, r0, r1
    f21c:	b2633000 	rsblt	r3, r3, #0	; 0x0
    f220:	e3530532 	cmp	r3, #209715200	; 0xc800000
    f224:	812fff1e 	bxhi	lr
    f228:	e3100102 	tst	r0, #-2147483648	; 0x80000000
    f22c:	e3800502 	orr	r0, r0, #8388608	; 0x800000
    f230:	e3c004ff 	bic	r0, r0, #-16777216	; 0xff000000
    f234:	12600000 	rsbne	r0, r0, #0	; 0x0
    f238:	e3110102 	tst	r1, #-2147483648	; 0x80000000
    f23c:	e3811502 	orr	r1, r1, #8388608	; 0x800000
    f240:	e3c114ff 	bic	r1, r1, #-16777216	; 0xff000000
    f244:	12611000 	rsbne	r1, r1, #0	; 0x0
    f248:	e1320003 	teq	r2, r3
    f24c:	0a000038 	beq	f334 <__addsf3+0x160>
    f250:	e1b03ba3 	movs	r3, r3, lsr #23
    f254:	13320502 	teqne	r2, #8388608	; 0x800000
    f258:	11a00080 	movne	r0, r0, lsl #1
    f25c:	12422502 	subne	r2, r2, #8388608	; 0x800000
    f260:	12433001 	subne	r3, r3, #1	; 0x1
    f264:	e1a0c351 	mov	ip, r1, asr r3
    f268:	e2633020 	rsb	r3, r3, #32	; 0x20
    f26c:	e1a01311 	mov	r1, r1, lsl r3
    f270:	e080000c 	add	r0, r0, ip
    f274:	e2103102 	ands	r3, r0, #-2147483648	; 0x80000000
    f278:	5a000001 	bpl	f284 <__addsf3+0xb0>
    f27c:	e2711000 	rsbs	r1, r1, #0	; 0x0
    f280:	e2e00000 	rsc	r0, r0, #0	; 0x0
    f284:	e3500502 	cmp	r0, #8388608	; 0x800000
    f288:	3a000014 	bcc	f2e0 <__addsf3+0x10c>
    f28c:	e3500401 	cmp	r0, #16777216	; 0x1000000
    f290:	3a000007 	bcc	f2b4 <__addsf3+0xe0>
    f294:	e3500402 	cmp	r0, #33554432	; 0x2000000
    f298:	3a000002 	bcc	f2a8 <__addsf3+0xd4>
    f29c:	e1b000a0 	movs	r0, r0, lsr #1
    f2a0:	e1a01061 	mov	r1, r1, rrx
    f2a4:	e2822502 	add	r2, r2, #8388608	; 0x800000
    f2a8:	e1b000a0 	movs	r0, r0, lsr #1
    f2ac:	e1a01061 	mov	r1, r1, rrx
    f2b0:	e2822502 	add	r2, r2, #8388608	; 0x800000
    f2b4:	e0800fa1 	add	r0, r0, r1, lsr #31
    f2b8:	e3310102 	teq	r1, #-2147483648	; 0x80000000
    f2bc:	03c00001 	biceq	r0, r0, #1	; 0x1
    f2c0:	e3100401 	tst	r0, #16777216	; 0x1000000
    f2c4:	12822502 	addne	r2, r2, #8388608	; 0x800000
    f2c8:	e352047f 	cmp	r2, #2130706432	; 0x7f000000
    f2cc:	8a000024 	bhi	f364 <__addsf3+0x190>
    f2d0:	e3c00506 	bic	r0, r0, #25165824	; 0x1800000
    f2d4:	e1800002 	orr	r0, r0, r2
    f2d8:	e1800003 	orr	r0, r0, r3
    f2dc:	e12fff1e 	bx	lr
    f2e0:	e1b0c620 	movs	ip, r0, lsr #12
    f2e4:	01a00600 	moveq	r0, r0, lsl #12
    f2e8:	02422406 	subeq	r2, r2, #100663296	; 0x6000000
    f2ec:	e31008ff 	tst	r0, #16711680	; 0xff0000
    f2f0:	01a00400 	moveq	r0, r0, lsl #8
    f2f4:	02422301 	subeq	r2, r2, #67108864	; 0x4000000
    f2f8:	e310060f 	tst	r0, #15728640	; 0xf00000
    f2fc:	01a00200 	moveq	r0, r0, lsl #4
    f300:	02422402 	subeq	r2, r2, #33554432	; 0x2000000
    f304:	e3100503 	tst	r0, #12582912	; 0xc00000
    f308:	01a00100 	moveq	r0, r0, lsl #2
    f30c:	02422401 	subeq	r2, r2, #16777216	; 0x1000000
    f310:	e3100502 	tst	r0, #8388608	; 0x800000
    f314:	01a00080 	moveq	r0, r0, lsl #1
    f318:	02422502 	subeq	r2, r2, #8388608	; 0x800000
    f31c:	e3520000 	cmp	r2, #0	; 0x0
    f320:	caffffea 	bgt	f2d0 <__addsf3+0xfc>
    f324:	e1e02bc2 	mvn	r2, r2, asr #23
    f328:	e2822002 	add	r2, r2, #2	; 0x2
    f32c:	e1830230 	orr	r0, r3, r0, lsr r2
    f330:	e12fff1e 	bx	lr
    f334:	e3320000 	teq	r2, #0	; 0x0
    f338:	02200502 	eoreq	r0, r0, #8388608	; 0x800000
    f33c:	02822502 	addeq	r2, r2, #8388608	; 0x800000
    f340:	e2211502 	eor	r1, r1, #8388608	; 0x800000
    f344:	12433502 	subne	r3, r3, #8388608	; 0x800000
    f348:	eaffffc0 	b	f250 <__addsf3+0x7c>
    f34c:	e3a0c4ff 	mov	ip, #-16777216	; 0xff000000
    f350:	e00020ac 	and	r2, r0, ip, lsr #1
    f354:	e13200ac 	teq	r2, ip, lsr #1
    f358:	01a0014c 	moveq	r0, ip, asr #2
    f35c:	13a00000 	movne	r0, #0	; 0x0
    f360:	e12fff1e 	bx	lr
    f364:	e383047f 	orr	r0, r3, #2130706432	; 0x7f000000
    f368:	e3800502 	orr	r0, r0, #8388608	; 0x800000
    f36c:	e12fff1e 	bx	lr
    f370:	e13200ac 	teq	r2, ip, lsr #1
    f374:	11a00001 	movne	r0, r1
    f378:	013300ac 	teqeq	r3, ip, lsr #1
    f37c:	112fff1e 	bxne	lr
    f380:	e1b02480 	movs	r2, r0, lsl #9
    f384:	01b02481 	moveqs	r2, r1, lsl #9
    f388:	01300001 	teqeq	r0, r1
    f38c:	13830501 	orrne	r0, r3, #4194304	; 0x400000
    f390:	e12fff1e 	bx	lr

0000f394 <__floatunsisf>:
    f394:	e3a03000 	mov	r3, #0	; 0x0
    f398:	ea000001 	b	f3a4 <__floatsisf+0x8>

0000f39c <__floatsisf>:
    f39c:	e2103102 	ands	r3, r0, #-2147483648	; 0x80000000
    f3a0:	42600000 	rsbmi	r0, r0, #0	; 0x0
    f3a4:	e3300000 	teq	r0, #0	; 0x0
    f3a8:	012fff1e 	bxeq	lr
    f3ac:	e3a01000 	mov	r1, #0	; 0x0
    f3b0:	e3a0244b 	mov	r2, #1258291200	; 0x4b000000
    f3b4:	e310033f 	tst	r0, #-67108864	; 0xfc000000
    f3b8:	0affffb1 	beq	f284 <__addsf3+0xb0>
    f3bc:	e310020f 	tst	r0, #-268435456	; 0xf0000000
    f3c0:	11a01e00 	movne	r1, r0, lsl #28
    f3c4:	11a00220 	movne	r0, r0, lsr #4
    f3c8:	12822402 	addne	r2, r2, #33554432	; 0x2000000
    f3cc:	e3100303 	tst	r0, #201326592	; 0xc000000
    f3d0:	0affffab 	beq	f284 <__addsf3+0xb0>
    f3d4:	e1a01121 	mov	r1, r1, lsr #2
    f3d8:	e1811f00 	orr	r1, r1, r0, lsl #30
    f3dc:	e1a00120 	mov	r0, r0, lsr #2
    f3e0:	e2822401 	add	r2, r2, #16777216	; 0x1000000
    f3e4:	eaffffa6 	b	f284 <__addsf3+0xb0>

0000f3e8 <__mulsf3>:
    f3e8:	e3a0c4ff 	mov	ip, #-16777216	; 0xff000000
    f3ec:	e00020ac 	and	r2, r0, ip, lsr #1
    f3f0:	e00130ac 	and	r3, r1, ip, lsr #1
    f3f4:	e13200ac 	teq	r2, ip, lsr #1
    f3f8:	113300ac 	teqne	r3, ip, lsr #1
    f3fc:	0a000048 	beq	f524 <__mulsf3+0x13c>
    f400:	e3d0c102 	bics	ip, r0, #-2147483648	; 0x80000000
    f404:	13d1c102 	bicnes	ip, r1, #-2147483648	; 0x80000000
    f408:	0a00001e 	beq	f488 <__mulsf3+0xa0>
    f40c:	e1b020a2 	movs	r2, r2, lsr #1
    f410:	13330000 	teqne	r3, #0	; 0x0
    f414:	0a000033 	beq	f4e8 <__mulsf3+0x100>
    f418:	e08220c3 	add	r2, r2, r3, asr #1
    f41c:	e1300001 	teq	r0, r1
    f420:	43822902 	orrmi	r2, r2, #32768	; 0x8000
    f424:	e3c004ff 	bic	r0, r0, #-16777216	; 0xff000000
    f428:	e3c114ff 	bic	r1, r1, #-16777216	; 0xff000000
    f42c:	e3800502 	orr	r0, r0, #8388608	; 0x800000
    f430:	e3811502 	orr	r1, r1, #8388608	; 0x800000
    f434:	e08c3190 	umull	r3, ip, r0, r1
    f438:	e1a00802 	mov	r0, r2, lsl #16
    f43c:	e3c22902 	bic	r2, r2, #32768	; 0x8000
    f440:	e31c0902 	tst	ip, #32768	; 0x8000
    f444:	12822501 	addne	r2, r2, #4194304	; 0x400000
    f448:	11b0c0ac 	movnes	ip, ip, lsr #1
    f44c:	11a03063 	movne	r3, r3, rrx
    f450:	e252257f 	subs	r2, r2, #532676608	; 0x1fc00000
    f454:	da00000e 	ble	f494 <__mulsf3+0xac>
    f458:	e1900ba3 	orrs	r0, r0, r3, lsr #23
    f45c:	e0a0048c 	adc	r0, r0, ip, lsl #9
    f460:	e1a03483 	mov	r3, r3, lsl #9
    f464:	e3330102 	teq	r3, #-2147483648	; 0x80000000
    f468:	03c00001 	biceq	r0, r0, #1	; 0x1
    f46c:	e3100401 	tst	r0, #16777216	; 0x1000000
    f470:	12822501 	addne	r2, r2, #4194304	; 0x400000
    f474:	e35205ff 	cmp	r2, #1069547520	; 0x3fc00000
    f478:	aa000037 	bge	f55c <__mulsf3+0x174>
    f47c:	e3c00506 	bic	r0, r0, #25165824	; 0x1800000
    f480:	e1800082 	orr	r0, r0, r2, lsl #1
    f484:	e12fff1e 	bx	lr
    f488:	e0200001 	eor	r0, r0, r1
    f48c:	e2000102 	and	r0, r0, #-2147483648	; 0x80000000
    f490:	e12fff1e 	bx	lr
    f494:	e3720406 	cmn	r2, #100663296	; 0x6000000
    f498:	d12fff1e 	bxle	lr
    f49c:	e1e01b42 	mvn	r1, r2, asr #22
    f4a0:	e2511007 	subs	r1, r1, #7	; 0x7
    f4a4:	ca000007 	bgt	f4c8 <__mulsf3+0xe0>
    f4a8:	e2811020 	add	r1, r1, #32	; 0x20
    f4ac:	e1900133 	orrs	r0, r0, r3, lsr r1
    f4b0:	e2611020 	rsb	r1, r1, #32	; 0x20
    f4b4:	e0a0011c 	adc	r0, r0, ip, lsl r1
    f4b8:	e1a0c113 	mov	ip, r3, lsl r1
    f4bc:	e33c0102 	teq	ip, #-2147483648	; 0x80000000
    f4c0:	03c00001 	biceq	r0, r0, #1	; 0x1
    f4c4:	e12fff1e 	bx	lr
    f4c8:	e190013c 	orrs	r0, r0, ip, lsr r1
    f4cc:	e2a00000 	adc	r0, r0, #0	; 0x0
    f4d0:	e2611020 	rsb	r1, r1, #32	; 0x20
    f4d4:	e1a0c11c 	mov	ip, ip, lsl r1
    f4d8:	e3330000 	teq	r3, #0	; 0x0
    f4dc:	033c0102 	teqeq	ip, #-2147483648	; 0x80000000
    f4e0:	03c00001 	biceq	r0, r0, #1	; 0x1
    f4e4:	e12fff1e 	bx	lr
    f4e8:	e3320000 	teq	r2, #0	; 0x0
    f4ec:	e200c102 	and	ip, r0, #-2147483648	; 0x80000000
    f4f0:	01a00080 	moveq	r0, r0, lsl #1
    f4f4:	03100502 	tsteq	r0, #8388608	; 0x800000
    f4f8:	02422501 	subeq	r2, r2, #4194304	; 0x400000
    f4fc:	0afffffb 	beq	f4f0 <__mulsf3+0x108>
    f500:	e180000c 	orr	r0, r0, ip
    f504:	e3330000 	teq	r3, #0	; 0x0
    f508:	e201c102 	and	ip, r1, #-2147483648	; 0x80000000
    f50c:	01a01081 	moveq	r1, r1, lsl #1
    f510:	03110502 	tsteq	r1, #8388608	; 0x800000
    f514:	02433502 	subeq	r3, r3, #8388608	; 0x800000
    f518:	0afffffb 	beq	f50c <__mulsf3+0x124>
    f51c:	e181100c 	orr	r1, r1, ip
    f520:	eaffffbc 	b	f418 <__mulsf3+0x30>
    f524:	e3300000 	teq	r0, #0	; 0x0
    f528:	13310000 	teqne	r1, #0	; 0x0
    f52c:	13300102 	teqne	r0, #-2147483648	; 0x80000000
    f530:	13310102 	teqne	r1, #-2147483648	; 0x80000000
    f534:	0a00000c 	beq	f56c <__mulsf3+0x184>
    f538:	e13200ac 	teq	r2, ip, lsr #1
    f53c:	1a000001 	bne	f548 <__mulsf3+0x160>
    f540:	e1b02480 	movs	r2, r0, lsl #9
    f544:	1a000008 	bne	f56c <__mulsf3+0x184>
    f548:	e13300ac 	teq	r3, ip, lsr #1
    f54c:	1a000001 	bne	f558 <__mulsf3+0x170>
    f550:	e1b03481 	movs	r3, r1, lsl #9
    f554:	1a000004 	bne	f56c <__mulsf3+0x184>
    f558:	e0200001 	eor	r0, r0, r1
    f55c:	e2000102 	and	r0, r0, #-2147483648	; 0x80000000
    f560:	e380047f 	orr	r0, r0, #2130706432	; 0x7f000000
    f564:	e3800502 	orr	r0, r0, #8388608	; 0x800000
    f568:	e12fff1e 	bx	lr
    f56c:	e3a0047f 	mov	r0, #2130706432	; 0x7f000000
    f570:	e3800503 	orr	r0, r0, #12582912	; 0xc00000
    f574:	e12fff1e 	bx	lr

0000f578 <__divsf3>:
    f578:	e3a0c4ff 	mov	ip, #-16777216	; 0xff000000
    f57c:	e00020ac 	and	r2, r0, ip, lsr #1
    f580:	e00130ac 	and	r3, r1, ip, lsr #1
    f584:	e13200ac 	teq	r2, ip, lsr #1
    f588:	113300ac 	teqne	r3, ip, lsr #1
    f58c:	13d0c102 	bicnes	ip, r0, #-2147483648	; 0x80000000
    f590:	13d1c102 	bicnes	ip, r1, #-2147483648	; 0x80000000
    f594:	0a00004c 	beq	f6cc <__divsf3+0x154>
    f598:	e1b020a2 	movs	r2, r2, lsr #1
    f59c:	13330000 	teqne	r3, #0	; 0x0
    f5a0:	0a00003a 	beq	f690 <__divsf3+0x118>
    f5a4:	e04220c3 	sub	r2, r2, r3, asr #1
    f5a8:	e020c001 	eor	ip, r0, r1
    f5ac:	e3a03201 	mov	r3, #268435456	; 0x10000000
    f5b0:	e1b01481 	movs	r1, r1, lsl #9
    f5b4:	e1a00480 	mov	r0, r0, lsl #9
    f5b8:	0a000022 	beq	f648 <__divsf3+0xd0>
    f5bc:	e1831221 	orr	r1, r3, r1, lsr #4
    f5c0:	e1833220 	orr	r3, r3, r0, lsr #4
    f5c4:	e20c0102 	and	r0, ip, #-2147483648	; 0x80000000
    f5c8:	e1530001 	cmp	r3, r1
    f5cc:	32422501 	subcc	r2, r2, #4194304	; 0x400000
    f5d0:	31a03083 	movcc	r3, r3, lsl #1
    f5d4:	e282257f 	add	r2, r2, #532676608	; 0x1fc00000
    f5d8:	e3720406 	cmn	r2, #100663296	; 0x6000000
    f5dc:	d12fff1e 	bxle	lr
    f5e0:	e35205ff 	cmp	r2, #1069547520	; 0x3fc00000
    f5e4:	aaffffdc 	bge	f55c <__mulsf3+0x174>
    f5e8:	e3a0c502 	mov	ip, #8388608	; 0x800000
    f5ec:	e1530001 	cmp	r3, r1
    f5f0:	20433001 	subcs	r3, r3, r1
    f5f4:	2180000c 	orrcs	r0, r0, ip
    f5f8:	e15300a1 	cmp	r3, r1, lsr #1
    f5fc:	204330a1 	subcs	r3, r3, r1, lsr #1
    f600:	218000ac 	orrcs	r0, r0, ip, lsr #1
    f604:	e1530121 	cmp	r3, r1, lsr #2
    f608:	20433121 	subcs	r3, r3, r1, lsr #2
    f60c:	2180012c 	orrcs	r0, r0, ip, lsr #2
    f610:	e15301a1 	cmp	r3, r1, lsr #3
    f614:	204331a1 	subcs	r3, r3, r1, lsr #3
    f618:	218001ac 	orrcs	r0, r0, ip, lsr #3
    f61c:	e1b03203 	movs	r3, r3, lsl #4
    f620:	11b0c22c 	movnes	ip, ip, lsr #4
    f624:	1afffff0 	bne	f5ec <__divsf3+0x74>
    f628:	e3520000 	cmp	r2, #0	; 0x0
    f62c:	da000012 	ble	f67c <__divsf3+0x104>
    f630:	e1530001 	cmp	r3, r1
    f634:	22800001 	addcs	r0, r0, #1	; 0x1
    f638:	03c00001 	biceq	r0, r0, #1	; 0x1
    f63c:	e3c00502 	bic	r0, r0, #8388608	; 0x800000
    f640:	e1800082 	orr	r0, r0, r2, lsl #1
    f644:	e12fff1e 	bx	lr
    f648:	e20cc102 	and	ip, ip, #-2147483648	; 0x80000000
    f64c:	e18c04a0 	orr	r0, ip, r0, lsr #9
    f650:	e282257f 	add	r2, r2, #532676608	; 0x1fc00000
    f654:	e35205ff 	cmp	r2, #1069547520	; 0x3fc00000
    f658:	aaffffbf 	bge	f55c <__mulsf3+0x174>
    f65c:	e3520000 	cmp	r2, #0	; 0x0
    f660:	c1800082 	orrgt	r0, r0, r2, lsl #1
    f664:	c12fff1e 	bxgt	lr
    f668:	e3720406 	cmn	r2, #100663296	; 0x6000000
    f66c:	d1a0000c 	movle	r0, ip
    f670:	d12fff1e 	bxle	lr
    f674:	e3800502 	orr	r0, r0, #8388608	; 0x800000
    f678:	e3a03000 	mov	r3, #0	; 0x0
    f67c:	e3c0c102 	bic	ip, r0, #-2147483648	; 0x80000000
    f680:	e2000102 	and	r0, r0, #-2147483648	; 0x80000000
    f684:	e1e01b42 	mvn	r1, r2, asr #22
    f688:	e2811002 	add	r1, r1, #2	; 0x2
    f68c:	eaffff8d 	b	f4c8 <__mulsf3+0xe0>
    f690:	e3320000 	teq	r2, #0	; 0x0
    f694:	e200c102 	and	ip, r0, #-2147483648	; 0x80000000
    f698:	01a00080 	moveq	r0, r0, lsl #1
    f69c:	03100502 	tsteq	r0, #8388608	; 0x800000
    f6a0:	02422501 	subeq	r2, r2, #4194304	; 0x400000
    f6a4:	0afffffb 	beq	f698 <__divsf3+0x120>
    f6a8:	e180000c 	orr	r0, r0, ip
    f6ac:	e3330000 	teq	r3, #0	; 0x0
    f6b0:	e201c102 	and	ip, r1, #-2147483648	; 0x80000000
    f6b4:	01a01081 	moveq	r1, r1, lsl #1
    f6b8:	03110502 	tsteq	r1, #8388608	; 0x800000
    f6bc:	02433502 	subeq	r3, r3, #8388608	; 0x800000
    f6c0:	0afffffb 	beq	f6b4 <__divsf3+0x13c>
    f6c4:	e181100c 	orr	r1, r1, ip
    f6c8:	eaffffb5 	b	f5a4 <__divsf3+0x2c>
    f6cc:	e3a0c4ff 	mov	ip, #-16777216	; 0xff000000
    f6d0:	e13200ac 	teq	r2, ip, lsr #1
    f6d4:	013300ac 	teqeq	r3, ip, lsr #1
    f6d8:	0affffa3 	beq	f56c <__mulsf3+0x184>
    f6dc:	e13200ac 	teq	r2, ip, lsr #1
    f6e0:	1a000002 	bne	f6f0 <__divsf3+0x178>
    f6e4:	e1b02480 	movs	r2, r0, lsl #9
    f6e8:	1affff9f 	bne	f56c <__mulsf3+0x184>
    f6ec:	eaffff99 	b	f558 <__mulsf3+0x170>
    f6f0:	e13300ac 	teq	r3, ip, lsr #1
    f6f4:	1a000002 	bne	f704 <__divsf3+0x18c>
    f6f8:	e1b03481 	movs	r3, r1, lsl #9
    f6fc:	1affff9a 	bne	f56c <__mulsf3+0x184>
    f700:	eaffff60 	b	f488 <__mulsf3+0xa0>
    f704:	e3d02102 	bics	r2, r0, #-2147483648	; 0x80000000
    f708:	1affff92 	bne	f558 <__mulsf3+0x170>
    f70c:	e3d13102 	bics	r3, r1, #-2147483648	; 0x80000000
    f710:	1affff5c 	bne	f488 <__mulsf3+0xa0>
    f714:	eaffff94 	b	f56c <__mulsf3+0x184>

0000f718 <__gesf2>:
    f718:	e3e03000 	mvn	r3, #0	; 0x0
    f71c:	ea000002 	b	f72c <__cmpsf2+0x4>

0000f720 <__lesf2>:
    f720:	e3a03001 	mov	r3, #1	; 0x1
    f724:	ea000000 	b	f72c <__cmpsf2+0x4>

0000f728 <__cmpsf2>:
    f728:	e3a03001 	mov	r3, #1	; 0x1
    f72c:	e3a0c4ff 	mov	ip, #-16777216	; 0xff000000
    f730:	e00120ac 	and	r2, r1, ip, lsr #1
    f734:	e13200ac 	teq	r2, ip, lsr #1
    f738:	e00020ac 	and	r2, r0, ip, lsr #1
    f73c:	113200ac 	teqne	r2, ip, lsr #1
    f740:	0a00000f 	beq	f784 <__cmpsf2+0x5c>
    f744:	e1803001 	orr	r3, r0, r1
    f748:	e3d33102 	bics	r3, r3, #-2147483648	; 0x80000000
    f74c:	11300001 	teqne	r0, r1
    f750:	03a00000 	moveq	r0, #0	; 0x0
    f754:	012fff1e 	bxeq	lr
    f758:	41a00fc0 	movmi	r0, r0, asr #31
    f75c:	43800001 	orrmi	r0, r0, #1	; 0x1
    f760:	412fff1e 	bxmi	lr
    f764:	e00130ac 	and	r3, r1, ip, lsr #1
    f768:	e1520003 	cmp	r2, r3
    f76c:	01a00480 	moveq	r0, r0, lsl #9
    f770:	01500481 	cmpeq	r0, r1, lsl #9
    f774:	21a00fc1 	movcs	r0, r1, asr #31
    f778:	31e00fc1 	mvncc	r0, r1, asr #31
    f77c:	e3800001 	orr	r0, r0, #1	; 0x1
    f780:	e12fff1e 	bx	lr
    f784:	e00120ac 	and	r2, r1, ip, lsr #1
    f788:	e13200ac 	teq	r2, ip, lsr #1
    f78c:	1a000001 	bne	f798 <__cmpsf2+0x70>
    f790:	e1b02481 	movs	r2, r1, lsl #9
    f794:	1a000004 	bne	f7ac <__cmpsf2+0x84>
    f798:	e00020ac 	and	r2, r0, ip, lsr #1
    f79c:	e13200ac 	teq	r2, ip, lsr #1
    f7a0:	1affffe7 	bne	f744 <__cmpsf2+0x1c>
    f7a4:	e1b0c480 	movs	ip, r0, lsl #9
    f7a8:	0affffe5 	beq	f744 <__cmpsf2+0x1c>
    f7ac:	e1a00003 	mov	r0, r3
    f7b0:	e12fff1e 	bx	lr

0000f7b4 <__fixsfsi>:
    f7b4:	e1b00080 	movs	r0, r0, lsl #1
    f7b8:	012fff1e 	bxeq	lr
    f7bc:	e1a01061 	mov	r1, r1, rrx
    f7c0:	e20024ff 	and	r2, r0, #-16777216	; 0xff000000
    f7c4:	e352047f 	cmp	r2, #2130706432	; 0x7f000000
    f7c8:	33a00000 	movcc	r0, #0	; 0x0
    f7cc:	312fff1e 	bxcc	lr
    f7d0:	e352049e 	cmp	r2, #-1644167168	; 0x9e000000
    f7d4:	2a000007 	bcs	f7f8 <__fixsfsi+0x44>
    f7d8:	e1a00380 	mov	r0, r0, lsl #7
    f7dc:	e3800102 	orr	r0, r0, #-2147483648	; 0x80000000
    f7e0:	e1a02c22 	mov	r2, r2, lsr #24
    f7e4:	e262209e 	rsb	r2, r2, #158	; 0x9e
    f7e8:	e3110102 	tst	r1, #-2147483648	; 0x80000000
    f7ec:	e1a00230 	mov	r0, r0, lsr r2
    f7f0:	12600000 	rsbne	r0, r0, #0	; 0x0
    f7f4:	e12fff1e 	bx	lr
    f7f8:	e33204ff 	teq	r2, #-16777216	; 0xff000000
    f7fc:	1a000001 	bne	f808 <__fixsfsi+0x54>
    f800:	e1b00400 	movs	r0, r0, lsl #8
    f804:	1a000002 	bne	f814 <__fixsfsi+0x60>
    f808:	e2110102 	ands	r0, r1, #-2147483648	; 0x80000000
    f80c:	03e00102 	mvneq	r0, #-2147483648	; 0x80000000
    f810:	e12fff1e 	bx	lr
    f814:	e3a00000 	mov	r0, #0	; 0x0
    f818:	e12fff1e 	bx	lr

0000f81c <__fixunssfsi>:
    f81c:	e1b00080 	movs	r0, r0, lsl #1
    f820:	23b00000 	movcss	r0, #0	; 0x0
    f824:	012fff1e 	bxeq	lr
    f828:	e20024ff 	and	r2, r0, #-16777216	; 0xff000000
    f82c:	e352047f 	cmp	r2, #2130706432	; 0x7f000000
    f830:	33a00000 	movcc	r0, #0	; 0x0
    f834:	312fff1e 	bxcc	lr
    f838:	e352049f 	cmp	r2, #-1627389952	; 0x9f000000
    f83c:	2a000005 	bcs	f858 <__fixunssfsi+0x3c>
    f840:	e1a00380 	mov	r0, r0, lsl #7
    f844:	e3800102 	orr	r0, r0, #-2147483648	; 0x80000000
    f848:	e1a02c22 	mov	r2, r2, lsr #24
    f84c:	e262209e 	rsb	r2, r2, #158	; 0x9e
    f850:	e1a00230 	mov	r0, r0, lsr r2
    f854:	e12fff1e 	bx	lr
    f858:	e33204ff 	teq	r2, #-16777216	; 0xff000000
    f85c:	1a000001 	bne	f868 <__fixunssfsi+0x4c>
    f860:	e1b00400 	movs	r0, r0, lsl #8
    f864:	1a000001 	bne	f870 <__fixunssfsi+0x54>
    f868:	e3e00000 	mvn	r0, #0	; 0x0
    f86c:	e12fff1e 	bx	lr
    f870:	e3a00000 	mov	r0, #0	; 0x0
    f874:	e12fff1e 	bx	lr

0000f878 <____divsi3_from_arm>:
    f878:	e59fc000 	ldr	ip, [pc, #0]	; f880 <____divsi3_from_arm+0x8>
    f87c:	e12fff1c 	bx	ip
    f880:	0000e605 	andeq	lr, r0, r5, lsl #12

0000f884 <__atan2_from_arm>:
    f884:	e59fc000 	ldr	ip, [pc, #0]	; f88c <__atan2_from_arm+0x8>
    f888:	e12fff1c 	bx	ip
    f88c:	0000cde9 	andeq	ip, r0, r9, ror #27

0000f890 <__atan_from_arm>:
    f890:	e59fc000 	ldr	ip, [pc, #0]	; f898 <__atan_from_arm+0x8>
    f894:	e12fff1c 	bx	ip
    f898:	0000c901 	andeq	ip, r0, r1, lsl #18

0000f89c <__cos_from_arm>:
    f89c:	e59fc000 	ldr	ip, [pc, #0]	; f8a4 <__cos_from_arm+0x8>
    f8a0:	e12fff1c 	bx	ip
    f8a4:	0000cc59 	andeq	ip, r0, r9, asr ip

0000f8a8 <__sin_from_arm>:
    f8a8:	e59fc000 	ldr	ip, [pc, #0]	; f8b0 <__sin_from_arm+0x8>
    f8ac:	e12fff1c 	bx	ip
    f8b0:	0000cd2d 	andeq	ip, r0, sp, lsr #26

0000f8b4 <__sqrt_from_arm>:
    f8b4:	e59fc000 	ldr	ip, [pc, #0]	; f8bc <__sqrt_from_arm+0x8>
    f8b8:	e12fff1c 	bx	ip
    f8bc:	0000ceb5 	streqh	ip, [r0], -r5

0000f8c0 <____adddf3_from_thumb>:
    f8c0:	4778      	bx	pc
    f8c2:	46c0      	nop			(mov r8, r8)

0000f8c4 <____adddf3_change_to_arm>:
    f8c4:	eafffb75 	b	e6a0 <__adddf3>

0000f8c8 <____muldf3_from_thumb>:
    f8c8:	4778      	bx	pc
    f8ca:	46c0      	nop			(mov r8, r8)

0000f8cc <____muldf3_change_to_arm>:
    f8cc:	eafffc5c 	b	ea44 <__muldf3>

0000f8d0 <____subdf3_from_thumb>:
    f8d0:	4778      	bx	pc
    f8d2:	46c0      	nop			(mov r8, r8)

0000f8d4 <____subdf3_change_to_arm>:
    f8d4:	eafffb70 	b	e69c <__subdf3>

0000f8d8 <____gtdf2_from_thumb>:
    f8d8:	4778      	bx	pc
    f8da:	46c0      	nop			(mov r8, r8)

0000f8dc <____gtdf2_change_to_arm>:
    f8dc:	eafffd93 	b	ef30 <__gedf2>

0000f8e0 <____divdf3_from_thumb>:
    f8e0:	4778      	bx	pc
    f8e2:	46c0      	nop			(mov r8, r8)

0000f8e4 <____divdf3_change_to_arm>:
    f8e4:	eafffcf4 	b	ecbc <__divdf3>

0000f8e8 <____eqdf2_from_thumb>:
    f8e8:	4778      	bx	pc
    f8ea:	46c0      	nop			(mov r8, r8)

0000f8ec <____eqdf2_change_to_arm>:
    f8ec:	eafffd93 	b	ef40 <__cmpdf2>

0000f8f0 <____ltdf2_from_thumb>:
    f8f0:	4778      	bx	pc
    f8f2:	46c0      	nop			(mov r8, r8)

0000f8f4 <____ltdf2_change_to_arm>:
    f8f4:	eafffd8f 	b	ef38 <__ledf2>

0000f8f8 <____fixdfsi_from_thumb>:
    f8f8:	4778      	bx	pc
    f8fa:	46c0      	nop			(mov r8, r8)

0000f8fc <____fixdfsi_change_to_arm>:
    f8fc:	eafffdb8 	b	efe4 <__fixdfsi>

0000f900 <____floatsidf_from_thumb>:
    f900:	4778      	bx	pc
    f902:	46c0      	nop			(mov r8, r8)

0000f904 <____floatsidf_change_to_arm>:
    f904:	eafffc30 	b	e9cc <__floatsidf>

0000f908 <____gedf2_from_thumb>:
    f908:	4778      	bx	pc
    f90a:	46c0      	nop			(mov r8, r8)

0000f90c <____gedf2_change_to_arm>:
    f90c:	eafffd87 	b	ef30 <__gedf2>

0000f910 <version>:
    f910:	00000001                                         ..

0000f912 <commands_failsafe>:
	...

0000f91a <nb_waypoint>:
    f91a:	55550004                                         ..

0000f91c <aT>:
    f91c:	3fd55555 5555550d bfc99999 9998ebc4     UU.?.UUU........
    f92c:	3fc24924 920083ff bfbc71c6 fe231671     $I.?.....q..q.#.
    f93c:	3fb745cd c54c206e bfb3b0f2 af749a6d     .E.?n L.....m.t.
    f94c:	3fb10d66 a0d03d51 bfadde2d 52defd9a     f..?Q=..-......R
    f95c:	3fa97b4b 24760deb bfa2b444 2c6a6c2f     K{.?..v$D.../lj,
    f96c:	3f90ad3a e322da11                       :..?..".

0000f974 <atanlo>:
    f974:	3c7a2b7f 222f65e2 3c81a626 33145c07     .+z<.e/"&..<.\.3
    f984:	3c700788 7af0cbbd 3c91a626 33145c07     ..p<...z&..<.\.3

0000f994 <atanhi>:
    f994:	3fddac67 0561bb4f 3fe921fb 54442d18     g..?O.a..!.?.-DT
    f9a4:	3fef730b d281f69b 3ff921fb 54442d18     .s.?.....!.?.-DT

0000f9b4 <two_over_pi>:
    f9b4:	00a2f983 006e4e44 001529fc 002757d1     ....DNn..)...W'.
    f9c4:	00f534dd 00c0db62 0095993c 00439041     .4..b...<...A.C.
    f9d4:	00fe5163 00abdebb 00c561b7 00246e3a     cQ.......a..:n$.
    f9e4:	00424dd2 00e00649 002eea09 00d1921c     .MB.I...........
    f9f4:	00fe1deb 001cb129 00a73ee8 008235f5     ....)....>...5..
    fa04:	002ebb44 0084e99c 007026b4 005f7e41     D........&p.A~_.
    fa14:	003991d6 00398353 0039f49c 00845f8b     ..9.S.9...9.._..
    fa24:	00bdf928 003b1ff8 0097ffde 0005980f     (.....;.........
    fa34:	00ef2f11 008b5a0a 006d1f6d 00367ecf     ./...Z..m.m..~6.
    fa44:	0027cb09 00b74f46 003f669e 005fea2d     ..'.FO...f?.-._.
    fa54:	007527ba 00c7ebe5 00f17b3d 000739f7     .'u.....={...9..
    fa64:	008a5292 00ea6bfb 005fb11f 008d5d08     .R...k...._..]..
    fa74:	00560330 0046fc7b 006babf0 00cfbc20     0.V.{.F...k. ...
    fa84:	009af436 001da9e3 0091615e 00e61b08     6.......^a......
    fa94:	00659985 005f14a0 0068408d 00ffd880     ..e..._..@h.....
    faa4:	004d7327 00310606 001556ca 0073a8c9     'sM...1..V....s.
    fab4:	0060e27b 00c08c6b                       {.`.k...

0000fabc <npio2_hw>:
    fabc:	3ff921fb 400921fb 4012d97c 401921fb     .!.?.!.@|..@.!.@
    facc:	401f6a7a 4022d97c 4025fdbb 402921fb     zj.@|."@..%@.!)@
    fadc:	402c463a 402f6a7a 4031475c 4032d97c     :F,@zj/@\G1@|.2@
    faec:	40346b9c 4035fdbb 40378fdb 403921fb     .k4@..5@..7@.!9@
    fafc:	403ab41b 403c463a 403dd85a 403f6a7a     ..:@:F<@Z.=@zj?@
    fb0c:	40407e4c 4041475c 4042106c 4042d97c     L~@@\GA@l.B@|.B@
    fb1c:	4043a28c 40446b9c 404534ac 4045fdbb     ..C@.kD@.4E@..E@
    fb2c:	4046c6cb 40478fdb 404858eb 404921fb     ..F@..G@.XH@.!I@

0000fb3c <PIo2>:
    fb3c:	3ff921fb 40000000 3e74442d 00000000     .!.?...@-Dt>....
    fb4c:	3cf84698 80000000 3b78cc51 60000000     .F.<....Q.x;...`
    fb5c:	39f01b83 80000000 387a2520 40000000     ...9.... %z8...@
    fb6c:	36e38222 80000000 3569f31d 00000000     "..6......i5....

0000fb7c <init_jk>:
    fb7c:	00000002 00000003 00000004 00000006     ................

0000fb8c <__fdlib_version>:
    fb8c:	00000001                                ....

0000fb90 <_global_impure_ptr>:
    fb90:	40000084 6e617461 00000032 74727173     ...@atan2...sqrt
    fba0:	00000000 00000043                                ....C.
