   1              		.file	"main_ap.c"
   2              		.global	ac_ident
   3              		.data
   6              	ac_ident:
   7 0000 0E       		.byte	14
   8              		.global	light_mode
  11              	light_mode:
  12 0001 01       		.byte	1
  13              		.global	empty_bay
  14              		.bss
  15              		.align	2
  18              	empty_bay:
  19 0000 00000000 		.space	4
  20              		.global	gps_lost
  23              	gps_lost:
  24 0004 00       		.space	1
  25              		.global	launch
  28              	launch:
  29 0005 00       		.space	1
  30              		.global	kill_throttle
  33              	kill_throttle:
  34 0006 00       		.space	1
  35              		.global	ir_estim_mode
  38              	ir_estim_mode:
  39 0007 00       		.space	1
  40              		.global	lateral_mode
  43              	lateral_mode:
  44 0008 00       		.space	1
  45              		.global	pprz_mode
  46              		.data
  49              	pprz_mode:
  50 0002 02       		.byte	2
  51              		.global	fatal_error_nb
  52              		.bss
  55              	fatal_error_nb:
  56 0009 00       		.space	1
  57              		.global	rc_settings_mode
  60              	rc_settings_mode:
  61 000a 00       		.space	1
  62              		.section	.rodata
  63              		.align	1
  66              	version:
  67 0000 0100     		.short	1
  68              		.global	__floatsisf
  69              		.global	__divsf3
  70              		.global	__mulsf3
  71              		.global	__addsf3
  72              		.bss
  73 000b 00       		.align	1
  74              	event1_cpt.14:
  75 000c 0000     		.space	2
  76              		.align	1
  77              	event2_cpt.15:
  78 000e 0000     		.space	2
  79              		.text
  80              		.align	2
  81              		.global	telecommand_task
  83              	telecommand_task:
  84              		@ Function supports interworking.
  85              		@ args = 0, pretend = 0, frame = 0
  86              		@ frame_needed = 1, uses_anonymous_args = 0
  87 0000 0DC0A0E1 		mov	ip, sp
  88 0004 F0D82DE9 		stmfd	sp!, {r4, r5, r6, r7, fp, ip, lr, pc}
  89 0008 0C749FE5 		ldr	r7, .L29
  90 000c 003097E5 		ldr	r3, [r7, #0]
  91 0010 1130D3E5 		ldrb	r3, [r3, #17]	@ zero_extendqisi2
  92 0014 00E0A0E3 		mov	lr, #0
  93 0018 020013E3 		tst	r3, #2
  94 001c 04B04CE2 		sub	fp, ip, #4
  95 0020 0E20A0E1 		mov	r2, lr
  96 0024 0D00000A 		beq	.L3
  97 0028 F0339FE5 		ldr	r3, .L29+4
  98 002c 0030D3E5 		ldrb	r3, [r3, #0]	@ zero_extendqisi2
  99 0030 010053E3 		cmp	r3, #1
 100 0034 0020A083 		movhi	r2, #0
 101 0038 0120A093 		movls	r2, #1
 102              	.L3:
 103 003c DCC39FE5 		ldr	ip, .L29+4
 104 0040 0030DCE5 		ldrb	r3, [ip, #0]	@ zero_extendqisi2
 105 0044 030053E3 		cmp	r3, #3
 106 0048 00005313 		cmpne	r3, #0
 107 004c 2400000A 		beq	.L4
 108 0050 010053E3 		cmp	r3, #1
 109 0054 2400000A 		beq	.L4
 110 0058 040053E3 		cmp	r3, #4
 111 005c 2400000A 		beq	.L4
 112 0060 BC339FE5 		ldr	r3, .L29+8
 113 0064 0030D3E5 		ldrb	r3, [r3, #0]	@ zero_extendqisi2
 114 0068 000053E3 		cmp	r3, #0
 115 006c 2400000A 		beq	.L4
 116 0070 B0339FE5 		ldr	r3, .L29+12
 117 0074 0030D3E5 		ldrb	r3, [r3, #0]	@ zero_extendqisi2
 118 0078 000053E3 		cmp	r3, #0
 119 007c 0330A013 		movne	r3, #3
 120 0080 0030CC15 		strneb	r3, [ip, #0]
 121 0084 01E0A013 		movne	lr, #1
 122 0088 000052E3 		cmp	r2, #0
 123 008c 0330A013 		movne	r3, #3
 124 0090 0030CC15 		strneb	r3, [ip, #0]
 125 0094 01E0A013 		movne	lr, #1
 126              	.L4:
 127 0098 000097E5 		ldr	r0, [r7, #0]
 128 009c 1130D0E5 		ldrb	r3, [r0, #17]	@ zero_extendqisi2
 129 00a0 100013E3 		tst	r3, #16
 130 00a4 0020A0E3 		mov	r2, #0
 131 00a8 4200000A 		beq	.L7
 132 00ac 0030DCE5 		ldrb	r3, [ip, #0]	@ zero_extendqisi2
 133 00b0 033043E2 		sub	r3, r3, #3
 134 00b4 010053E3 		cmp	r3, #1
 135 00b8 3300008A 		bhi	.L9
 136 00bc 68139FE5 		ldr	r1, .L29+16
 137 00c0 0030D1E5 		ldrb	r3, [r1, #0]	@ zero_extendqisi2
 138 00c4 020053E1 		cmp	r3, r2
 139 00c8 0230A001 		moveq	r3, r2
 140 00cc 4000000A 		beq	.L16
 141 00d0 0020C1E5 		strb	r2, [r1, #0]
 142              	.L9:
 143 00d4 FE30D0E1 		ldrsh	r3, [r0, #14]
 144 00d8 4B0D53E3 		cmp	r3, #4800
 145 00dc 0220A0C3 		movgt	r2, #2
 146 00e0 3A0000CA 		bgt	.L13
 147 00e4 4B0D73E3 		cmn	r3, #4800
 148 00e8 0020A0D3 		movle	r2, #0
 149 00ec 0120A0C3 		movgt	r2, #1
 150              	.L13:
 151 00f0 0030DCE5 		ldrb	r3, [ip, #0]	@ zero_extendqisi2
 152 00f4 020053E1 		cmp	r3, r2
 153 00f8 0130A013 		movne	r3, #1
 154 00fc 0030A003 		moveq	r3, #0
 155 0100 0020CC15 		strneb	r2, [ip, #0]
 156 0104 FF3003E2 		and	r3, r3, #255
 157              	.L16:
 158 0108 FF2003E2 		and	r2, r3, #255
 159 010c 02E08EE1 		orr	lr, lr, r2
 160              	.L7:
 161 0110 003097E5 		ldr	r3, [r7, #0]
 162 0114 14639FE5 		ldr	r6, .L29+20
 163 0118 1130D3E5 		ldrb	r3, [r3, #17]	@ zero_extendqisi2
 164 011c 0020D6E5 		ldrb	r2, [r6, #0]	@ zero_extendqisi2
 165 0120 FF1003E2 		and	r1, r3, #255
 166 0124 010052E1 		cmp	r2, r1
 167 0128 0020A003 		moveq	r2, #0
 168 012c 4F00000A 		beq	.L19
 169 0130 0F2002E2 		and	r2, r2, #15
 170 0134 0F3003E2 		and	r3, r3, #15
 171 0138 0010C6E5 		strb	r1, [r6, #0]
 172 013c 032052E0 		subs	r2, r2, r3
 173 0140 0120A013 		movne	r2, #1
 174              	.L19:
 175 0144 02E09EE1 		orrs	lr, lr, r2
 176 0148 B700000A 		beq	.L20
 177 014c 0D00A0E3 		mov	r0, #13
 178 0150 FEFFFFEB 		bl	uart0_check_free_space
 179 0154 FF0010E3 		tst	r0, #255
 180 0158 D4229F05 		ldreq	r2, .L29+24
 181 015c 0030D205 		ldreqb	r3, [r2, #0]	@ zero_extendqisi2
 182 0160 01308302 		addeq	r3, r3, #1
 183 0164 0030C205 		streqb	r3, [r2, #0]
 184 0168 B700000A 		beq	.L20
 185 016c 9900A0E3 		mov	r0, #153
 186 0170 C0429FE5 		ldr	r4, .L29+28
 187 0174 FEFFFFEB 		bl	uart0_transmit
 188 0178 0D00A0E3 		mov	r0, #13
 189 017c B8529FE5 		ldr	r5, .L29+32
 190 0180 FEFFFFEB 		bl	uart0_transmit
 191 0184 1B30A0E3 		mov	r3, #27
 192 0188 0030C4E5 		strb	r3, [r4, #0]
 193 018c 0D3083E2 		add	r3, r3, #13
 194 0190 0E00A0E3 		mov	r0, #14
 195 0194 0030C5E5 		strb	r3, [r5, #0]
 196 0198 FEFFFFEB 		bl	uart0_transmit
 197 019c 0030D4E5 		ldrb	r3, [r4, #0]	@ zero_extendqisi2
 198 01a0 0B3083E2 		add	r3, r3, #11
 199 01a4 0030C4E5 		strb	r3, [r4, #0]
 200 01a8 0030D5E5 		ldrb	r3, [r5, #0]	@ zero_extendqisi2
 201 01ac 0020D4E5 		ldrb	r2, [r4, #0]	@ zero_extendqisi2
 202 01b0 023083E0 		add	r3, r3, r2
 203 01b4 0B00A0E3 		mov	r0, #11
 204 01b8 0030C5E5 		strb	r3, [r5, #0]
 205 01bc FEFFFFEB 		bl	uart0_transmit
 206 01c0 58329FE5 		ldr	r3, .L29+4
 207 01c4 0000D3E5 		ldrb	r0, [r3, #0]	@ zero_extendqisi2
 208 01c8 0030D4E5 		ldrb	r3, [r4, #0]	@ zero_extendqisi2
 209 01cc 033080E0 		add	r3, r0, r3
 210 01d0 0030C4E5 		strb	r3, [r4, #0]
 211 01d4 0030D5E5 		ldrb	r3, [r5, #0]	@ zero_extendqisi2
 212 01d8 0020D4E5 		ldrb	r2, [r4, #0]	@ zero_extendqisi2
 213 01dc 023083E0 		add	r3, r3, r2
 214 01e0 0030C5E5 		strb	r3, [r5, #0]
 215 01e4 FEFFFFEB 		bl	uart0_transmit
 216 01e8 50329FE5 		ldr	r3, .L29+36
 217 01ec 0000D3E5 		ldrb	r0, [r3, #0]	@ zero_extendqisi2
 218 01f0 0030D4E5 		ldrb	r3, [r4, #0]	@ zero_extendqisi2
 219 01f4 033080E0 		add	r3, r0, r3
 220 01f8 0030C4E5 		strb	r3, [r4, #0]
 221 01fc 0030D5E5 		ldrb	r3, [r5, #0]	@ zero_extendqisi2
 222 0200 0020D4E5 		ldrb	r2, [r4, #0]	@ zero_extendqisi2
 223 0204 023083E0 		add	r3, r3, r2
 224 0208 0030C5E5 		strb	r3, [r5, #0]
 225 020c FEFFFFEB 		bl	uart0_transmit
 226 0210 2C329FE5 		ldr	r3, .L29+40
 227 0214 0000D3E5 		ldrb	r0, [r3, #0]	@ zero_extendqisi2
 228 0218 0030D4E5 		ldrb	r3, [r4, #0]	@ zero_extendqisi2
 229 021c 033080E0 		add	r3, r0, r3
 230 0220 0030C4E5 		strb	r3, [r4, #0]
 231 0224 0030D5E5 		ldrb	r3, [r5, #0]	@ zero_extendqisi2
 232 0228 0020D4E5 		ldrb	r2, [r4, #0]	@ zero_extendqisi2
 233 022c 023083E0 		add	r3, r3, r2
 234 0230 0030C5E5 		strb	r3, [r5, #0]
 235 0234 FEFFFFEB 		bl	uart0_transmit
 236 0238 08329FE5 		ldr	r3, .L29+44
 237 023c 0000D3E5 		ldrb	r0, [r3, #0]	@ zero_extendqisi2
 238 0240 0030D4E5 		ldrb	r3, [r4, #0]	@ zero_extendqisi2
 239 0244 033080E0 		add	r3, r0, r3
 240 0248 0030C4E5 		strb	r3, [r4, #0]
 241 024c 0030D5E5 		ldrb	r3, [r5, #0]	@ zero_extendqisi2
 242 0250 0020D4E5 		ldrb	r2, [r4, #0]	@ zero_extendqisi2
 243 0254 023083E0 		add	r3, r3, r2
 244 0258 0030C5E5 		strb	r3, [r5, #0]
 245 025c FEFFFFEB 		bl	uart0_transmit
 246 0260 E4319FE5 		ldr	r3, .L29+48
 247 0264 0000D3E5 		ldrb	r0, [r3, #0]	@ zero_extendqisi2
 248 0268 0030D4E5 		ldrb	r3, [r4, #0]	@ zero_extendqisi2
 249 026c 033080E0 		add	r3, r0, r3
 250 0270 0030C4E5 		strb	r3, [r4, #0]
 251 0274 0030D5E5 		ldrb	r3, [r5, #0]	@ zero_extendqisi2
 252 0278 0020D4E5 		ldrb	r2, [r4, #0]	@ zero_extendqisi2
 253 027c 023083E0 		add	r3, r3, r2
 254 0280 0030C5E5 		strb	r3, [r5, #0]
 255 0284 FEFFFFEB 		bl	uart0_transmit
 256 0288 0000D6E5 		ldrb	r0, [r6, #0]	@ zero_extendqisi2
 257 028c 0030D4E5 		ldrb	r3, [r4, #0]	@ zero_extendqisi2
 258 0290 033080E0 		add	r3, r0, r3
 259 0294 0030C4E5 		strb	r3, [r4, #0]
 260 0298 0030D5E5 		ldrb	r3, [r5, #0]	@ zero_extendqisi2
 261 029c 0020D4E5 		ldrb	r2, [r4, #0]	@ zero_extendqisi2
 262 02a0 023083E0 		add	r3, r3, r2
 263 02a4 0030C5E5 		strb	r3, [r5, #0]
 264 02a8 FEFFFFEB 		bl	uart0_transmit
 265 02ac 9C319FE5 		ldr	r3, .L29+52
 266 02b0 0000D3E5 		ldrb	r0, [r3, #0]	@ zero_extendqisi2
 267 02b4 0030D4E5 		ldrb	r3, [r4, #0]	@ zero_extendqisi2
 268 02b8 033080E0 		add	r3, r0, r3
 269 02bc 0030C4E5 		strb	r3, [r4, #0]
 270 02c0 0030D5E5 		ldrb	r3, [r5, #0]	@ zero_extendqisi2
 271 02c4 0020D4E5 		ldrb	r2, [r4, #0]	@ zero_extendqisi2
 272 02c8 023083E0 		add	r3, r3, r2
 273 02cc 0030C5E5 		strb	r3, [r5, #0]
 274 02d0 FEFFFFEB 		bl	uart0_transmit
 275 02d4 0000D4E5 		ldrb	r0, [r4, #0]	@ zero_extendqisi2
 276 02d8 FEFFFFEB 		bl	uart0_transmit
 277 02dc 0000D5E5 		ldrb	r0, [r5, #0]	@ zero_extendqisi2
 278 02e0 FEFFFFEB 		bl	uart0_transmit
 279              	.L20:
 280 02e4 34519FE5 		ldr	r5, .L29+4
 281 02e8 0030D5E5 		ldrb	r3, [r5, #0]	@ zero_extendqisi2
 282 02ec 000053E3 		cmp	r3, #0
 283 02f0 DF00000A 		beq	.L23
 284 02f4 010053E3 		cmp	r3, #1
 285 02f8 DF00001A 		bne	.L23
 286 02fc 004097E5 		ldr	r4, [r7, #0]
 287 0300 F000D4E1 		ldrsh	r0, [r4, #0]
 288 0304 FEFFFFEB 		bl	__floatsisf
 289 0308 44119FE5 		ldr	r1, .L29+56
 290 030c FEFFFFEB 		bl	__divsf3
 291 0310 40319FE5 		ldr	r3, .L29+60
 292 0314 001093E5 		ldr	r1, [r3, #0]	@ float
 293 0318 FEFFFFEB 		bl	__mulsf3
 294 031c 0010A0E3 		mov	r1, #0
 295 0320 FEFFFFEB 		bl	__addsf3
 296 0324 30319FE5 		ldr	r3, .L29+64
 297 0328 000083E5 		str	r0, [r3, #0]	@ float
 298 032c F200D4E1 		ldrsh	r0, [r4, #2]
 299 0330 FEFFFFEB 		bl	__floatsisf
 300 0334 18119FE5 		ldr	r1, .L29+56
 301 0338 FEFFFFEB 		bl	__divsf3
 302 033c 1C319FE5 		ldr	r3, .L29+68
 303 0340 001093E5 		ldr	r1, [r3, #0]	@ float
 304 0344 FEFFFFEB 		bl	__mulsf3
 305 0348 0010A0E3 		mov	r1, #0
 306 034c FEFFFFEB 		bl	__addsf3
 307 0350 0C319FE5 		ldr	r3, .L29+72
 308 0354 000083E5 		str	r0, [r3, #0]	@ float
 309 0358 F600D4E1 		ldrsh	r0, [r4, #6]
 310 035c FEFFFFEB 		bl	__floatsisf
 311 0360 EC109FE5 		ldr	r1, .L29+56
 312 0364 FEFFFFEB 		bl	__divsf3
 313 0368 F8309FE5 		ldr	r3, .L29+76
 314 036c 001093E5 		ldr	r1, [r3, #0]	@ float
 315 0370 FEFFFFEB 		bl	__mulsf3
 316 0374 0010A0E3 		mov	r1, #0
 317 0378 FEFFFFEB 		bl	__addsf3
 318 037c E8309FE5 		ldr	r3, .L29+80
 319 0380 000083E5 		str	r0, [r3, #0]	@ float
 320              	.L23:
 321 0384 0030D5E5 		ldrb	r3, [r5, #0]	@ zero_extendqisi2
 322 0388 010053E3 		cmp	r3, #1
 323 038c 88309F95 		ldrls	r3, .L29
 324 0390 00209395 		ldrls	r2, [r3, #0]
 325 0394 80409FE5 		ldr	r4, .L29
 326 0398 B420D291 		ldrlsh	r2, [r2, #4]
 327 039c CC309F95 		ldrls	r3, .L29+84
 328 03a0 001094E5 		ldr	r1, [r4, #0]
 329 03a4 B020C391 		strlsh	r2, [r3, #0]	@ movhi 
 330 03a8 C4309FE5 		ldr	r3, .L29+88
 331 03ac 1020D1E5 		ldrb	r2, [r1, #16]	@ zero_extendqisi2
 332 03b0 0020C3E5 		strb	r2, [r3, #0]
 333 03b4 BC309FE5 		ldr	r3, .L29+92
 334 03b8 B030D3E1 		ldrh	r3, [r3, #0]
 335 03bc 1320D1E5 		ldrb	r2, [r1, #19]	@ zero_extendqisi2
 336 03c0 000053E3 		cmp	r3, #0
 337 03c4 B0309FE5 		ldr	r3, .L29+96
 338 03c8 0020C3E5 		strb	r2, [r3, #0]
 339 03cc 0301001A 		bne	.L1
 340 03d0 B000D1E1 		ldrh	r0, [r1, #0]
 341 03d4 4B0D80E2 		add	r0, r0, #4800
 342 03d8 0008A0E1 		mov	r0, r0, asl #16
 343 03dc 960550E3 		cmp	r0, #629145600
 344 03e0 0000A093 		movls	r0, #0
 345 03e4 0100A083 		movhi	r0, #1
 346 03e8 FEFFFFEB 		bl	ground_calibrate
 347 03ec 2C309FE5 		ldr	r3, .L29+4
 348 03f0 0030D3E5 		ldrb	r3, [r3, #0]	@ zero_extendqisi2
 349 03f4 020053E3 		cmp	r3, #2
 350 03f8 0301001A 		bne	.L1
 351 03fc 003094E5 		ldr	r3, [r4, #0]
 352 0400 F430D3E1 		ldrsh	r3, [r3, #4]
 353 0404 2D0D53E3 		cmp	r3, #2880
 354 0408 14309FC5 		ldrgt	r3, .L29+8
 355 040c 0120A0C3 		movgt	r2, #1
 356 0410 0020C3C5 		strgtb	r2, [r3, #0]
 357              	.L1:
 358 0414 F0689DE8 		ldmfd	sp, {r4, r5, r6, r7, fp, sp, lr}
 359 0418 1EFF2FE1 		bx	lr
 360              	.L30:
 361              		.align	2
 362              	.L29:
 363 041c 00000000 		.word	fbw_state
 364 0420 00000000 		.word	pprz_mode
 365 0424 00000000 		.word	launch
 366 0428 00000000 		.word	too_far_from_home
 367 042c 00000000 		.word	rc_event_1
 368 0430 24000000 		.word	mcu1_status
 369 0434 00000000 		.word	downlink_nb_ovrn
 370 0438 00000000 		.word	ck_a
 371 043c 00000000 		.word	ck_b
 372 0440 00000000 		.word	v_ctl_mode
 373 0444 00000000 		.word	lateral_mode
 374 0448 00000000 		.word	horizontal_mode
 375 044c 00000000 		.word	rc_settings_mode
 376 0450 00000000 		.word	ir_estim_mode
 377 0454 00001646 		.word	1175846912
 378 0458 00000000 		.word	h_ctl_roll_max_setpoint
 379 045c 00000000 		.word	h_ctl_roll_setpoint
 380 0460 00000000 		.word	h_ctl_pitch_max_setpoint
 381 0464 00000000 		.word	h_ctl_pitch_setpoint
 382 0468 00000000 		.word	h_ctl_yaw_max_setpoint
 383 046c 00000000 		.word	h_ctl_yaw_setpoint
 384 0470 00000000 		.word	v_ctl_throttle_setpoint
 385 0474 25000000 		.word	mcu1_ppm_cpt
 386 0478 00000000 		.word	estimator_flight_time
 387 047c 00000000 		.word	vsupply
 389              		.align	2
 391              	checkGPS:
 392              		@ Function supports interworking.
 393              		@ args = 0, pretend = 0, frame = 0
 394              		@ frame_needed = 1, uses_anonymous_args = 0
 395 0480 0DC0A0E1 		mov	ip, sp
 396 0484 70D82DE9 		stmfd	sp!, {r4, r5, r6, fp, ip, lr, pc}
 397 0488 B8339FE5 		ldr	r3, .L41
 398 048c 0020D3E5 		ldrb	r2, [r3, #0]	@ zero_extendqisi2
 399 0490 000052E3 		cmp	r2, #0
 400 0494 04B04CE2 		sub	fp, ip, #4
 401 0498 9F01000A 		beq	.L32
 402 049c A8339FE5 		ldr	r3, .L41+4
 403 04a0 A8239FE5 		ldr	r2, .L41+8
 404 04a4 B030D3E1 		ldrh	r3, [r3, #0]
 405 04a8 B020D2E1 		ldrh	r2, [r2, #0]
 406 04ac 033062E0 		rsb	r3, r2, r3
 407 04b0 050053E3 		cmp	r3, #5
 408 04b4 0E0200DA 		ble	.L31
 409 04b8 94639FE5 		ldr	r6, .L41+12
 410 04bc 0020D6E5 		ldrb	r2, [r6, #0]	@ zero_extendqisi2
 411 04c0 023042E2 		sub	r3, r2, #2
 412 04c4 010053E3 		cmp	r3, #1
 413 04c8 0E02008A 		bhi	.L31
 414 04cc 84339FE5 		ldr	r3, .L41+16
 415 04d0 0020C3E5 		strb	r2, [r3, #0]
 416 04d4 0430A0E3 		mov	r3, #4
 417 04d8 0030C6E5 		strb	r3, [r6, #0]
 418 04dc 0D00A0E3 		mov	r0, #13
 419 04e0 FEFFFFEB 		bl	uart0_check_free_space
 420 04e4 FF0010E3 		tst	r0, #255
 421 04e8 6C239F05 		ldreq	r2, .L41+20
 422 04ec 0030D205 		ldreqb	r3, [r2, #0]	@ zero_extendqisi2
 423 04f0 01308302 		addeq	r3, r3, #1
 424 04f4 0030C205 		streqb	r3, [r2, #0]
 425 04f8 9B01000A 		beq	.L36
 426 04fc 9900A0E3 		mov	r0, #153
 427 0500 58439FE5 		ldr	r4, .L41+24
 428 0504 FEFFFFEB 		bl	uart0_transmit
 429 0508 0D00A0E3 		mov	r0, #13
 430 050c 50539FE5 		ldr	r5, .L41+28
 431 0510 FEFFFFEB 		bl	uart0_transmit
 432 0514 1B30A0E3 		mov	r3, #27
 433 0518 0030C4E5 		strb	r3, [r4, #0]
 434 051c 0D3083E2 		add	r3, r3, #13
 435 0520 0E00A0E3 		mov	r0, #14
 436 0524 0030C5E5 		strb	r3, [r5, #0]
 437 0528 FEFFFFEB 		bl	uart0_transmit
 438 052c 0030D4E5 		ldrb	r3, [r4, #0]	@ zero_extendqisi2
 439 0530 0B3083E2 		add	r3, r3, #11
 440 0534 0030C4E5 		strb	r3, [r4, #0]
 441 0538 0030D5E5 		ldrb	r3, [r5, #0]	@ zero_extendqisi2
 442 053c 0020D4E5 		ldrb	r2, [r4, #0]	@ zero_extendqisi2
 443 0540 023083E0 		add	r3, r3, r2
 444 0544 0B00A0E3 		mov	r0, #11
 445 0548 0030C5E5 		strb	r3, [r5, #0]
 446 054c FEFFFFEB 		bl	uart0_transmit
 447 0550 0000D6E5 		ldrb	r0, [r6, #0]	@ zero_extendqisi2
 448 0554 0030D4E5 		ldrb	r3, [r4, #0]	@ zero_extendqisi2
 449 0558 033080E0 		add	r3, r0, r3
 450 055c 0030C4E5 		strb	r3, [r4, #0]
 451 0560 0030D5E5 		ldrb	r3, [r5, #0]	@ zero_extendqisi2
 452 0564 0020D4E5 		ldrb	r2, [r4, #0]	@ zero_extendqisi2
 453 0568 023083E0 		add	r3, r3, r2
 454 056c 0030C5E5 		strb	r3, [r5, #0]
 455 0570 FEFFFFEB 		bl	uart0_transmit
 456 0574 EC329FE5 		ldr	r3, .L41+32
 457 0578 0000D3E5 		ldrb	r0, [r3, #0]	@ zero_extendqisi2
 458 057c 0030D4E5 		ldrb	r3, [r4, #0]	@ zero_extendqisi2
 459 0580 033080E0 		add	r3, r0, r3
 460 0584 0030C4E5 		strb	r3, [r4, #0]
 461 0588 0030D5E5 		ldrb	r3, [r5, #0]	@ zero_extendqisi2
 462 058c 0020D4E5 		ldrb	r2, [r4, #0]	@ zero_extendqisi2
 463 0590 023083E0 		add	r3, r3, r2
 464 0594 0030C5E5 		strb	r3, [r5, #0]
 465 0598 FEFFFFEB 		bl	uart0_transmit
 466 059c C8329FE5 		ldr	r3, .L41+36
 467 05a0 0000D3E5 		ldrb	r0, [r3, #0]	@ zero_extendqisi2
 468 05a4 0030D4E5 		ldrb	r3, [r4, #0]	@ zero_extendqisi2
 469 05a8 033080E0 		add	r3, r0, r3
 470 05ac 0030C4E5 		strb	r3, [r4, #0]
 471 05b0 0030D5E5 		ldrb	r3, [r5, #0]	@ zero_extendqisi2
 472 05b4 0020D4E5 		ldrb	r2, [r4, #0]	@ zero_extendqisi2
 473 05b8 023083E0 		add	r3, r3, r2
 474 05bc 0030C5E5 		strb	r3, [r5, #0]
 475 05c0 FEFFFFEB 		bl	uart0_transmit
 476 05c4 A4329FE5 		ldr	r3, .L41+40
 477 05c8 0000D3E5 		ldrb	r0, [r3, #0]	@ zero_extendqisi2
 478 05cc 0030D4E5 		ldrb	r3, [r4, #0]	@ zero_extendqisi2
 479 05d0 033080E0 		add	r3, r0, r3
 480 05d4 0030C4E5 		strb	r3, [r4, #0]
 481 05d8 0030D5E5 		ldrb	r3, [r5, #0]	@ zero_extendqisi2
 482 05dc 0020D4E5 		ldrb	r2, [r4, #0]	@ zero_extendqisi2
 483 05e0 023083E0 		add	r3, r3, r2
 484 05e4 0030C5E5 		strb	r3, [r5, #0]
 485 05e8 FEFFFFEB 		bl	uart0_transmit
 486 05ec 80329FE5 		ldr	r3, .L41+44
 487 05f0 0000D3E5 		ldrb	r0, [r3, #0]	@ zero_extendqisi2
 488 05f4 0030D4E5 		ldrb	r3, [r4, #0]	@ zero_extendqisi2
 489 05f8 033080E0 		add	r3, r0, r3
 490 05fc 0030C4E5 		strb	r3, [r4, #0]
 491 0600 0030D5E5 		ldrb	r3, [r5, #0]	@ zero_extendqisi2
 492 0604 0020D4E5 		ldrb	r2, [r4, #0]	@ zero_extendqisi2
 493 0608 023083E0 		add	r3, r3, r2
 494 060c 0030C5E5 		strb	r3, [r5, #0]
 495 0610 FEFFFFEB 		bl	uart0_transmit
 496 0614 5C329FE5 		ldr	r3, .L41+48
 497 0618 0000D3E5 		ldrb	r0, [r3, #0]	@ zero_extendqisi2
 498 061c 0030D4E5 		ldrb	r3, [r4, #0]	@ zero_extendqisi2
 499 0620 033080E0 		add	r3, r0, r3
 500 0624 0030C4E5 		strb	r3, [r4, #0]
 501 0628 0030D5E5 		ldrb	r3, [r5, #0]	@ zero_extendqisi2
 502 062c 0020D4E5 		ldrb	r2, [r4, #0]	@ zero_extendqisi2
 503 0630 023083E0 		add	r3, r3, r2
 504 0634 0030C5E5 		strb	r3, [r5, #0]
 505 0638 FEFFFFEB 		bl	uart0_transmit
 506 063c 38329FE5 		ldr	r3, .L41+52
 507 0640 0000D3E5 		ldrb	r0, [r3, #0]	@ zero_extendqisi2
 508 0644 0030D4E5 		ldrb	r3, [r4, #0]	@ zero_extendqisi2
 509 0648 033080E0 		add	r3, r0, r3
 510 064c 0030C4E5 		strb	r3, [r4, #0]
 511 0650 0030D5E5 		ldrb	r3, [r5, #0]	@ zero_extendqisi2
 512 0654 0020D4E5 		ldrb	r2, [r4, #0]	@ zero_extendqisi2
 513 0658 023083E0 		add	r3, r3, r2
 514 065c 0030C5E5 		strb	r3, [r5, #0]
 515 0660 FEFFFFEB 		bl	uart0_transmit
 516 0664 0000D4E5 		ldrb	r0, [r4, #0]	@ zero_extendqisi2
 517 0668 FEFFFFEB 		bl	uart0_transmit
 518 066c 0000D5E5 		ldrb	r0, [r5, #0]	@ zero_extendqisi2
 519 0670 FEFFFFEB 		bl	uart0_transmit
 520              	.L36:
 521 0674 04329FE5 		ldr	r3, .L41+56
 522 0678 0120A0E3 		mov	r2, #1
 523 067c 0020C3E5 		strb	r2, [r3, #0]
 524 0680 0E0200EA 		b	.L31
 525              	.L32:
 526 0684 F4119FE5 		ldr	r1, .L41+56
 527 0688 0030D1E5 		ldrb	r3, [r1, #0]	@ zero_extendqisi2
 528 068c 000053E3 		cmp	r3, #0
 529 0690 0E02000A 		beq	.L31
 530 0694 BC319FE5 		ldr	r3, .L41+16
 531 0698 B4619FE5 		ldr	r6, .L41+12
 532 069c 0030D3E5 		ldrb	r3, [r3, #0]	@ zero_extendqisi2
 533 06a0 0020C1E5 		strb	r2, [r1, #0]
 534 06a4 0030C6E5 		strb	r3, [r6, #0]
 535 06a8 0D00A0E3 		mov	r0, #13
 536 06ac FEFFFFEB 		bl	uart0_check_free_space
 537 06b0 FF0010E3 		tst	r0, #255
 538 06b4 A0219F05 		ldreq	r2, .L41+20
 539 06b8 0030D205 		ldreqb	r3, [r2, #0]	@ zero_extendqisi2
 540 06bc 01308302 		addeq	r3, r3, #1
 541 06c0 0030C205 		streqb	r3, [r2, #0]
 542 06c4 0E02000A 		beq	.L31
 543 06c8 9900A0E3 		mov	r0, #153
 544 06cc 8C419FE5 		ldr	r4, .L41+24
 545 06d0 FEFFFFEB 		bl	uart0_transmit
 546 06d4 0D00A0E3 		mov	r0, #13
 547 06d8 84519FE5 		ldr	r5, .L41+28
 548 06dc FEFFFFEB 		bl	uart0_transmit
 549 06e0 1B30A0E3 		mov	r3, #27
 550 06e4 0030C4E5 		strb	r3, [r4, #0]
 551 06e8 0D3083E2 		add	r3, r3, #13
 552 06ec 0E00A0E3 		mov	r0, #14
 553 06f0 0030C5E5 		strb	r3, [r5, #0]
 554 06f4 FEFFFFEB 		bl	uart0_transmit
 555 06f8 0030D4E5 		ldrb	r3, [r4, #0]	@ zero_extendqisi2
 556 06fc 0B3083E2 		add	r3, r3, #11
 557 0700 0030C4E5 		strb	r3, [r4, #0]
 558 0704 0030D5E5 		ldrb	r3, [r5, #0]	@ zero_extendqisi2
 559 0708 0020D4E5 		ldrb	r2, [r4, #0]	@ zero_extendqisi2
 560 070c 023083E0 		add	r3, r3, r2
 561 0710 0B00A0E3 		mov	r0, #11
 562 0714 0030C5E5 		strb	r3, [r5, #0]
 563 0718 FEFFFFEB 		bl	uart0_transmit
 564 071c 0000D6E5 		ldrb	r0, [r6, #0]	@ zero_extendqisi2
 565 0720 0030D4E5 		ldrb	r3, [r4, #0]	@ zero_extendqisi2
 566 0724 033080E0 		add	r3, r0, r3
 567 0728 0030C4E5 		strb	r3, [r4, #0]
 568 072c 0030D5E5 		ldrb	r3, [r5, #0]	@ zero_extendqisi2
 569 0730 0020D4E5 		ldrb	r2, [r4, #0]	@ zero_extendqisi2
 570 0734 023083E0 		add	r3, r3, r2
 571 0738 0030C5E5 		strb	r3, [r5, #0]
 572 073c FEFFFFEB 		bl	uart0_transmit
 573 0740 20319FE5 		ldr	r3, .L41+32
 574 0744 0000D3E5 		ldrb	r0, [r3, #0]	@ zero_extendqisi2
 575 0748 0030D4E5 		ldrb	r3, [r4, #0]	@ zero_extendqisi2
 576 074c 033080E0 		add	r3, r0, r3
 577 0750 0030C4E5 		strb	r3, [r4, #0]
 578 0754 0030D5E5 		ldrb	r3, [r5, #0]	@ zero_extendqisi2
 579 0758 0020D4E5 		ldrb	r2, [r4, #0]	@ zero_extendqisi2
 580 075c 023083E0 		add	r3, r3, r2
 581 0760 0030C5E5 		strb	r3, [r5, #0]
 582 0764 FEFFFFEB 		bl	uart0_transmit
 583 0768 FC309FE5 		ldr	r3, .L41+36
 584 076c 0000D3E5 		ldrb	r0, [r3, #0]	@ zero_extendqisi2
 585 0770 0030D4E5 		ldrb	r3, [r4, #0]	@ zero_extendqisi2
 586 0774 033080E0 		add	r3, r0, r3
 587 0778 0030C4E5 		strb	r3, [r4, #0]
 588 077c 0030D5E5 		ldrb	r3, [r5, #0]	@ zero_extendqisi2
 589 0780 0020D4E5 		ldrb	r2, [r4, #0]	@ zero_extendqisi2
 590 0784 023083E0 		add	r3, r3, r2
 591 0788 0030C5E5 		strb	r3, [r5, #0]
 592 078c FEFFFFEB 		bl	uart0_transmit
 593 0790 D8309FE5 		ldr	r3, .L41+40
 594 0794 0000D3E5 		ldrb	r0, [r3, #0]	@ zero_extendqisi2
 595 0798 0030D4E5 		ldrb	r3, [r4, #0]	@ zero_extendqisi2
 596 079c 033080E0 		add	r3, r0, r3
 597 07a0 0030C4E5 		strb	r3, [r4, #0]
 598 07a4 0030D5E5 		ldrb	r3, [r5, #0]	@ zero_extendqisi2
 599 07a8 0020D4E5 		ldrb	r2, [r4, #0]	@ zero_extendqisi2
 600 07ac 023083E0 		add	r3, r3, r2
 601 07b0 0030C5E5 		strb	r3, [r5, #0]
 602 07b4 FEFFFFEB 		bl	uart0_transmit
 603 07b8 B4309FE5 		ldr	r3, .L41+44
 604 07bc 0000D3E5 		ldrb	r0, [r3, #0]	@ zero_extendqisi2
 605 07c0 0030D4E5 		ldrb	r3, [r4, #0]	@ zero_extendqisi2
 606 07c4 033080E0 		add	r3, r0, r3
 607 07c8 0030C4E5 		strb	r3, [r4, #0]
 608 07cc 0030D5E5 		ldrb	r3, [r5, #0]	@ zero_extendqisi2
 609 07d0 0020D4E5 		ldrb	r2, [r4, #0]	@ zero_extendqisi2
 610 07d4 023083E0 		add	r3, r3, r2
 611 07d8 0030C5E5 		strb	r3, [r5, #0]
 612 07dc FEFFFFEB 		bl	uart0_transmit
 613 07e0 90309FE5 		ldr	r3, .L41+48
 614 07e4 0000D3E5 		ldrb	r0, [r3, #0]	@ zero_extendqisi2
 615 07e8 0030D4E5 		ldrb	r3, [r4, #0]	@ zero_extendqisi2
 616 07ec 033080E0 		add	r3, r0, r3
 617 07f0 0030C4E5 		strb	r3, [r4, #0]
 618 07f4 0030D5E5 		ldrb	r3, [r5, #0]	@ zero_extendqisi2
 619 07f8 0020D4E5 		ldrb	r2, [r4, #0]	@ zero_extendqisi2
 620 07fc 023083E0 		add	r3, r3, r2
 621 0800 0030C5E5 		strb	r3, [r5, #0]
 622 0804 FEFFFFEB 		bl	uart0_transmit
 623 0808 6C309FE5 		ldr	r3, .L41+52
 624 080c 0000D3E5 		ldrb	r0, [r3, #0]	@ zero_extendqisi2
 625 0810 0030D4E5 		ldrb	r3, [r4, #0]	@ zero_extendqisi2
 626 0814 033080E0 		add	r3, r0, r3
 627 0818 0030C4E5 		strb	r3, [r4, #0]
 628 081c 0030D5E5 		ldrb	r3, [r5, #0]	@ zero_extendqisi2
 629 0820 0020D4E5 		ldrb	r2, [r4, #0]	@ zero_extendqisi2
 630 0824 023083E0 		add	r3, r3, r2
 631 0828 0030C5E5 		strb	r3, [r5, #0]
 632 082c FEFFFFEB 		bl	uart0_transmit
 633 0830 0000D4E5 		ldrb	r0, [r4, #0]	@ zero_extendqisi2
 634 0834 FEFFFFEB 		bl	uart0_transmit
 635 0838 0000D5E5 		ldrb	r0, [r5, #0]	@ zero_extendqisi2
 636 083c FEFFFFEB 		bl	uart0_transmit
 637              	.L31:
 638 0840 70689DE8 		ldmfd	sp, {r4, r5, r6, fp, sp, lr}
 639 0844 1EFF2FE1 		bx	lr
 640              	.L42:
 641              		.align	2
 642              	.L41:
 643 0848 00000000 		.word	launch
 644 084c 00000000 		.word	cpu_time_sec
 645 0850 00000000 		.word	last_gps_msg_t
 646 0854 00000000 		.word	pprz_mode
 647 0858 00000000 		.word	last_pprz_mode
 648 085c 00000000 		.word	downlink_nb_ovrn
 649 0860 00000000 		.word	ck_a
 650 0864 00000000 		.word	ck_b
 651 0868 00000000 		.word	v_ctl_mode
 652 086c 00000000 		.word	lateral_mode
 653 0870 00000000 		.word	horizontal_mode
 654 0874 00000000 		.word	rc_settings_mode
 655 0878 24000000 		.word	mcu1_status
 656 087c 00000000 		.word	ir_estim_mode
 657 0880 00000000 		.word	gps_lost
 659              		.global	__fixsfsi
 660              		.global	__extendsfdf2
 661              		.global	__divdf3
 662              		.global	__muldf3
 663              		.global	__fixdfsi
 664              		.align	2
 666              	navigation_task:
 667              		@ Function supports interworking.
 668              		@ args = 0, pretend = 0, frame = 8
 669              		@ frame_needed = 1, uses_anonymous_args = 0
 670 0884 0DC0A0E1 		mov	ip, sp
 671 0888 70D82DE9 		stmfd	sp!, {r4, r5, r6, fp, ip, lr, pc}
 672 088c 74339FE5 		ldr	r3, .L50+16
 673 0890 04B04CE2 		sub	fp, ip, #4
 674 0894 08D04DE2 		sub	sp, sp, #8
 675 0898 0010D3E5 		ldrb	r1, [r3, #0]	@ zero_extendqisi2
 676 089c 68339FE5 		ldr	r3, .L50+20
 677 08a0 0320A0E3 		mov	r2, #3
 678 08a4 030051E3 		cmp	r1, #3
 679 08a8 0020C3E5 		strb	r2, [r3, #0]
 680 08ac 2C02001A 		bne	.L44
 681 08b0 FEFFFFEB 		bl	nav_home
 682 08b4 310200EA 		b	.L45
 683              	.L44:
 684 08b8 040051E3 		cmp	r1, #4
 685 08bc 3002001A 		bne	.L46
 686 08c0 FEFFFFEB 		bl	nav_without_gps
 687 08c4 310200EA 		b	.L45
 688              	.L46:
 689 08c8 FEFFFFEB 		bl	nav_update
 690              	.L45:
 691 08cc 3C339FE5 		ldr	r3, .L50+24
 692 08d0 000093E5 		ldr	r0, [r3, #0]	@ float
 693 08d4 FEFFFFEB 		bl	__fixsfsi
 694 08d8 34339FE5 		ldr	r3, .L50+28
 695 08dc BA014BE1 		strh	r0, [fp, #-26]	@ movhi 
 696 08e0 000093E5 		ldr	r0, [r3, #0]	@ float
 697 08e4 FEFFFFEB 		bl	__fixsfsi
 698 08e8 28339FE5 		ldr	r3, .L50+32
 699 08ec BC014BE1 		strh	r0, [fp, #-28]	@ movhi 
 700 08f0 000093E5 		ldr	r0, [r3, #0]	@ float
 701 08f4 FEFFFFEB 		bl	__extendsfdf2
 702 08f8 BE2F8FE2 		adr	r2, .L50
 703 08fc 0C0092E8 		ldmia	r2, {r2-r3}
 704 0900 FEFFFFEB 		bl	__divdf3
 705 0904 BD2F8FE2 		adr	r2, .L50+8
 706 0908 0C0092E8 		ldmia	r2, {r2-r3}
 707 090c FEFFFFEB 		bl	__muldf3
 708 0910 FEFFFFEB 		bl	__fixdfsi
 709 0914 BE014BE1 		strh	r0, [fp, #-30]	@ movhi 
 710 0918 1600A0E3 		mov	r0, #22
 711 091c FEFFFFEB 		bl	uart0_check_free_space
 712 0920 FF0010E3 		tst	r0, #255
 713 0924 F0229F05 		ldreq	r2, .L50+36
 714 0928 0030D205 		ldreqb	r3, [r2, #0]	@ zero_extendqisi2
 715 092c 01308302 		addeq	r3, r3, #1
 716 0930 0030C205 		streqb	r3, [r2, #0]
 717 0934 F902000A 		beq	.L43
 718 0938 9900A0E3 		mov	r0, #153
 719 093c DC429FE5 		ldr	r4, .L50+40
 720 0940 FEFFFFEB 		bl	uart0_transmit
 721 0944 1600A0E3 		mov	r0, #22
 722 0948 D4529FE5 		ldr	r5, .L50+44
 723 094c FEFFFFEB 		bl	uart0_transmit
 724 0950 2430A0E3 		mov	r3, #36
 725 0954 0E00A0E3 		mov	r0, #14
 726 0958 0030C4E5 		strb	r3, [r4, #0]
 727 095c 163083E2 		add	r3, r3, #22
 728 0960 0030C5E5 		strb	r3, [r5, #0]
 729 0964 FEFFFFEB 		bl	uart0_transmit
 730 0968 0030D4E5 		ldrb	r3, [r4, #0]	@ zero_extendqisi2
 731 096c 0A3083E2 		add	r3, r3, #10
 732 0970 0030C4E5 		strb	r3, [r4, #0]
 733 0974 0030D5E5 		ldrb	r3, [r5, #0]	@ zero_extendqisi2
 734 0978 0020D4E5 		ldrb	r2, [r4, #0]	@ zero_extendqisi2
 735 097c 0A00A0E3 		mov	r0, #10
 736 0980 023083E0 		add	r3, r3, r2
 737 0984 0030C5E5 		strb	r3, [r5, #0]
 738 0988 FEFFFFEB 		bl	uart0_transmit
 739 098c 94329FE5 		ldr	r3, .L50+48
 740 0990 0000D3E5 		ldrb	r0, [r3, #0]	@ zero_extendqisi2
 741 0994 0030D4E5 		ldrb	r3, [r4, #0]	@ zero_extendqisi2
 742 0998 033080E0 		add	r3, r0, r3
 743 099c 0030C4E5 		strb	r3, [r4, #0]
 744 09a0 0030D5E5 		ldrb	r3, [r5, #0]	@ zero_extendqisi2
 745 09a4 0020D4E5 		ldrb	r2, [r4, #0]	@ zero_extendqisi2
 746 09a8 023083E0 		add	r3, r3, r2
 747 09ac 0030C5E5 		strb	r3, [r5, #0]
 748 09b0 FEFFFFEB 		bl	uart0_transmit
 749 09b4 70329FE5 		ldr	r3, .L50+52
 750 09b8 0000D3E5 		ldrb	r0, [r3, #0]	@ zero_extendqisi2
 751 09bc 0030D4E5 		ldrb	r3, [r4, #0]	@ zero_extendqisi2
 752 09c0 033080E0 		add	r3, r0, r3
 753 09c4 0030C4E5 		strb	r3, [r4, #0]
 754 09c8 0030D5E5 		ldrb	r3, [r5, #0]	@ zero_extendqisi2
 755 09cc 0020D4E5 		ldrb	r2, [r4, #0]	@ zero_extendqisi2
 756 09d0 023083E0 		add	r3, r3, r2
 757 09d4 0030C5E5 		strb	r3, [r5, #0]
 758 09d8 FEFFFFEB 		bl	uart0_transmit
 759 09dc 1A005BE5 		ldrb	r0, [fp, #-26]	@ zero_extendqisi2
 760 09e0 0030D4E5 		ldrb	r3, [r4, #0]	@ zero_extendqisi2
 761 09e4 033080E0 		add	r3, r0, r3
 762 09e8 0030C4E5 		strb	r3, [r4, #0]
 763 09ec 0030D5E5 		ldrb	r3, [r5, #0]	@ zero_extendqisi2
 764 09f0 0020D4E5 		ldrb	r2, [r4, #0]	@ zero_extendqisi2
 765 09f4 023083E0 		add	r3, r3, r2
 766 09f8 0030C5E5 		strb	r3, [r5, #0]
 767 09fc FEFFFFEB 		bl	uart0_transmit
 768 0a00 19005BE5 		ldrb	r0, [fp, #-25]	@ zero_extendqisi2
 769 0a04 0030D4E5 		ldrb	r3, [r4, #0]	@ zero_extendqisi2
 770 0a08 033080E0 		add	r3, r0, r3
 771 0a0c 0030C4E5 		strb	r3, [r4, #0]
 772 0a10 0030D5E5 		ldrb	r3, [r5, #0]	@ zero_extendqisi2
 773 0a14 0020D4E5 		ldrb	r2, [r4, #0]	@ zero_extendqisi2
 774 0a18 023083E0 		add	r3, r3, r2
 775 0a1c 0030C5E5 		strb	r3, [r5, #0]
 776 0a20 FEFFFFEB 		bl	uart0_transmit
 777 0a24 1C005BE5 		ldrb	r0, [fp, #-28]	@ zero_extendqisi2
 778 0a28 0030D4E5 		ldrb	r3, [r4, #0]	@ zero_extendqisi2
 779 0a2c 033080E0 		add	r3, r0, r3
 780 0a30 0030C4E5 		strb	r3, [r4, #0]
 781 0a34 0030D5E5 		ldrb	r3, [r5, #0]	@ zero_extendqisi2
 782 0a38 0020D4E5 		ldrb	r2, [r4, #0]	@ zero_extendqisi2
 783 0a3c 023083E0 		add	r3, r3, r2
 784 0a40 0030C5E5 		strb	r3, [r5, #0]
 785 0a44 FEFFFFEB 		bl	uart0_transmit
 786 0a48 1B005BE5 		ldrb	r0, [fp, #-27]	@ zero_extendqisi2
 787 0a4c 0030D4E5 		ldrb	r3, [r4, #0]	@ zero_extendqisi2
 788 0a50 033080E0 		add	r3, r0, r3
 789 0a54 0030C4E5 		strb	r3, [r4, #0]
 790 0a58 0030D5E5 		ldrb	r3, [r5, #0]	@ zero_extendqisi2
 791 0a5c 0020D4E5 		ldrb	r2, [r4, #0]	@ zero_extendqisi2
 792 0a60 023083E0 		add	r3, r3, r2
 793 0a64 0030C5E5 		strb	r3, [r5, #0]
 794 0a68 FEFFFFEB 		bl	uart0_transmit
 795 0a6c 1E005BE5 		ldrb	r0, [fp, #-30]	@ zero_extendqisi2
 796 0a70 0030D4E5 		ldrb	r3, [r4, #0]	@ zero_extendqisi2
 797 0a74 033080E0 		add	r3, r0, r3
 798 0a78 0030C4E5 		strb	r3, [r4, #0]
 799 0a7c 0030D5E5 		ldrb	r3, [r5, #0]	@ zero_extendqisi2
 800 0a80 0020D4E5 		ldrb	r2, [r4, #0]	@ zero_extendqisi2
 801 0a84 023083E0 		add	r3, r3, r2
 802 0a88 0030C5E5 		strb	r3, [r5, #0]
 803 0a8c FEFFFFEB 		bl	uart0_transmit
 804 0a90 1D005BE5 		ldrb	r0, [fp, #-29]	@ zero_extendqisi2
 805 0a94 0030D4E5 		ldrb	r3, [r4, #0]	@ zero_extendqisi2
 806 0a98 033080E0 		add	r3, r0, r3
 807 0a9c 0030C4E5 		strb	r3, [r4, #0]
 808 0aa0 0030D5E5 		ldrb	r3, [r5, #0]	@ zero_extendqisi2
 809 0aa4 0020D4E5 		ldrb	r2, [r4, #0]	@ zero_extendqisi2
 810 0aa8 80619FE5 		ldr	r6, .L50+56
 811 0aac 023083E0 		add	r3, r3, r2
 812 0ab0 0030C5E5 		strb	r3, [r5, #0]
 813 0ab4 FEFFFFEB 		bl	uart0_transmit
 814 0ab8 0000D6E5 		ldrb	r0, [r6, #0]	@ zero_extendqisi2
 815 0abc 0030D4E5 		ldrb	r3, [r4, #0]	@ zero_extendqisi2
 816 0ac0 033080E0 		add	r3, r0, r3
 817 0ac4 0030C4E5 		strb	r3, [r4, #0]
 818 0ac8 0030D5E5 		ldrb	r3, [r5, #0]	@ zero_extendqisi2
 819 0acc 0020D4E5 		ldrb	r2, [r4, #0]	@ zero_extendqisi2
 820 0ad0 023083E0 		add	r3, r3, r2
 821 0ad4 0030C5E5 		strb	r3, [r5, #0]
 822 0ad8 FEFFFFEB 		bl	uart0_transmit
 823 0adc 0100D6E5 		ldrb	r0, [r6, #1]	@ zero_extendqisi2
 824 0ae0 0030D4E5 		ldrb	r3, [r4, #0]	@ zero_extendqisi2
 825 0ae4 033080E0 		add	r3, r0, r3
 826 0ae8 0030C4E5 		strb	r3, [r4, #0]
 827 0aec 0030D5E5 		ldrb	r3, [r5, #0]	@ zero_extendqisi2
 828 0af0 0020D4E5 		ldrb	r2, [r4, #0]	@ zero_extendqisi2
 829 0af4 023083E0 		add	r3, r3, r2
 830 0af8 0030C5E5 		strb	r3, [r5, #0]
 831 0afc FEFFFFEB 		bl	uart0_transmit
 832 0b00 0200D6E5 		ldrb	r0, [r6, #2]	@ zero_extendqisi2
 833 0b04 0030D4E5 		ldrb	r3, [r4, #0]	@ zero_extendqisi2
 834 0b08 033080E0 		add	r3, r0, r3
 835 0b0c 0030C4E5 		strb	r3, [r4, #0]
 836 0b10 0030D5E5 		ldrb	r3, [r5, #0]	@ zero_extendqisi2
 837 0b14 0020D4E5 		ldrb	r2, [r4, #0]	@ zero_extendqisi2
 838 0b18 023083E0 		add	r3, r3, r2
 839 0b1c 0030C5E5 		strb	r3, [r5, #0]
 840 0b20 FEFFFFEB 		bl	uart0_transmit
 841 0b24 0300D6E5 		ldrb	r0, [r6, #3]	@ zero_extendqisi2
 842 0b28 0030D4E5 		ldrb	r3, [r4, #0]	@ zero_extendqisi2
 843 0b2c 033080E0 		add	r3, r0, r3
 844 0b30 0030C4E5 		strb	r3, [r4, #0]
 845 0b34 0030D5E5 		ldrb	r3, [r5, #0]	@ zero_extendqisi2
 846 0b38 0020D4E5 		ldrb	r2, [r4, #0]	@ zero_extendqisi2
 847 0b3c F0609FE5 		ldr	r6, .L50+60
 848 0b40 023083E0 		add	r3, r3, r2
 849 0b44 0030C5E5 		strb	r3, [r5, #0]
 850 0b48 FEFFFFEB 		bl	uart0_transmit
 851 0b4c 0000D6E5 		ldrb	r0, [r6, #0]	@ zero_extendqisi2
 852 0b50 0030D4E5 		ldrb	r3, [r4, #0]	@ zero_extendqisi2
 853 0b54 033080E0 		add	r3, r0, r3
 854 0b58 0030C4E5 		strb	r3, [r4, #0]
 855 0b5c 0030D5E5 		ldrb	r3, [r5, #0]	@ zero_extendqisi2
 856 0b60 0020D4E5 		ldrb	r2, [r4, #0]	@ zero_extendqisi2
 857 0b64 023083E0 		add	r3, r3, r2
 858 0b68 0030C5E5 		strb	r3, [r5, #0]
 859 0b6c FEFFFFEB 		bl	uart0_transmit
 860 0b70 0100D6E5 		ldrb	r0, [r6, #1]	@ zero_extendqisi2
 861 0b74 0030D4E5 		ldrb	r3, [r4, #0]	@ zero_extendqisi2
 862 0b78 033080E0 		add	r3, r0, r3
 863 0b7c 0030C4E5 		strb	r3, [r4, #0]
 864 0b80 0030D5E5 		ldrb	r3, [r5, #0]	@ zero_extendqisi2
 865 0b84 0020D4E5 		ldrb	r2, [r4, #0]	@ zero_extendqisi2
 866 0b88 023083E0 		add	r3, r3, r2
 867 0b8c 0030C5E5 		strb	r3, [r5, #0]
 868 0b90 FEFFFFEB 		bl	uart0_transmit
 869 0b94 0200D6E5 		ldrb	r0, [r6, #2]	@ zero_extendqisi2
 870 0b98 0030D4E5 		ldrb	r3, [r4, #0]	@ zero_extendqisi2
 871 0b9c 033080E0 		add	r3, r0, r3
 872 0ba0 0030C4E5 		strb	r3, [r4, #0]
 873 0ba4 0030D5E5 		ldrb	r3, [r5, #0]	@ zero_extendqisi2
 874 0ba8 0020D4E5 		ldrb	r2, [r4, #0]	@ zero_extendqisi2
 875 0bac 023083E0 		add	r3, r3, r2
 876 0bb0 0030C5E5 		strb	r3, [r5, #0]
 877 0bb4 FEFFFFEB 		bl	uart0_transmit
 878 0bb8 0300D6E5 		ldrb	r0, [r6, #3]	@ zero_extendqisi2
 879 0bbc 0030D4E5 		ldrb	r3, [r4, #0]	@ zero_extendqisi2
 880 0bc0 033080E0 		add	r3, r0, r3
 881 0bc4 0030C4E5 		strb	r3, [r4, #0]
 882 0bc8 0030D5E5 		ldrb	r3, [r5, #0]	@ zero_extendqisi2
 883 0bcc 0020D4E5 		ldrb	r2, [r4, #0]	@ zero_extendqisi2
 884 0bd0 023083E0 		add	r3, r3, r2
 885 0bd4 0030C5E5 		strb	r3, [r5, #0]
 886 0bd8 FEFFFFEB 		bl	uart0_transmit
 887 0bdc 0000D4E5 		ldrb	r0, [r4, #0]	@ zero_extendqisi2
 888 0be0 FEFFFFEB 		bl	uart0_transmit
 889 0be4 0000D5E5 		ldrb	r0, [r5, #0]	@ zero_extendqisi2
 890 0be8 FEFFFFEB 		bl	uart0_transmit
 891              	.L43:
 892 0bec 18D04BE2 		sub	sp, fp, #24
 893 0bf0 70689DE8 		ldmfd	sp, {r4, r5, r6, fp, sp, lr}
 894 0bf4 1EFF2FE1 		bx	lr
 895              	.L51:
 896              		.align	2
 897              	.L50:
 898 0bf8 FB210940 		.word	1074340347
 899 0bfc 182D4454 		.word	1413754136
 900 0c00 00209C40 		.word	1083973632
 901 0c04 00000000 		.word	0
 902 0c08 00000000 		.word	pprz_mode
 903 0c0c 00000000 		.word	lateral_mode
 904 0c10 00000000 		.word	estimator_x
 905 0c14 00000000 		.word	estimator_y
 906 0c18 00000000 		.word	h_ctl_course_pgain
 907 0c1c 00000000 		.word	downlink_nb_ovrn
 908 0c20 00000000 		.word	ck_a
 909 0c24 00000000 		.word	ck_b
 910 0c28 00000000 		.word	nav_block
 911 0c2c 00000000 		.word	nav_stage
 912 0c30 00000000 		.word	dist2_to_wp
 913 0c34 00000000 		.word	dist2_to_home
 915              		.align	2
 917              	constraint_task:
 918              		@ Function supports interworking.
 919              		@ args = 0, pretend = 0, frame = 0
 920              		@ frame_needed = 0, uses_anonymous_args = 0
 921              		@ link register save eliminated.
 922              		@ lr needed for prologue
 923 0c38 1EFF2FE1 		bx	lr
 925              		.global	__gtdf2
 926              		.global	__ltdf2
 927              		.global	__adddf3
 928              		.global	__truncdfsf2
 929              		.align	2
 931              	guidance_task:
 932              		@ Function supports interworking.
 933              		@ args = 0, pretend = 0, frame = 0
 934              		@ frame_needed = 1, uses_anonymous_args = 0
 935 0c3c 0DC0A0E1 		mov	ip, sp
 936 0c40 70D82DE9 		stmfd	sp!, {r4, r5, r6, fp, ip, lr, pc}
 937 0c44 58419FE5 		ldr	r4, .L67+24
 938 0c48 0030D4E5 		ldrb	r3, [r4, #0]	@ zero_extendqisi2
 939 0c4c 030053E3 		cmp	r3, #3
 940 0c50 04B04CE2 		sub	fp, ip, #4
 941 0c54 FEFFFF0B 		bleq	v_ctl_altitude_loop
 942              	.L54:
 943 0c58 48319FE5 		ldr	r3, .L67+28
 944 0c5c 0030D3E5 		ldrb	r3, [r3, #0]	@ zero_extendqisi2
 945 0c60 023043E2 		sub	r3, r3, #2
 946 0c64 020053E3 		cmp	r3, #2
 947 0c68 4C03008A 		bhi	.L55
 948 0c6c 38319FE5 		ldr	r3, .L67+32
 949 0c70 0030D3E5 		ldrb	r3, [r3, #0]	@ zero_extendqisi2
 950 0c74 020053E3 		cmp	r3, #2
 951 0c78 FEFFFF8B 		blhi	h_ctl_course_loop
 952              	.L56:
 953 0c7c 0030D4E5 		ldrb	r3, [r4, #0]	@ zero_extendqisi2
 954 0c80 010053E3 		cmp	r3, #1
 955 0c84 FEFFFF8B 		blhi	v_ctl_climb_loop
 956              	.L57:
 957 0c88 0030D4E5 		ldrb	r3, [r4, #0]	@ zero_extendqisi2
 958 0c8c 010053E3 		cmp	r3, #1
 959 0c90 18219F05 		ldreq	r2, .L67+36
 960 0c94 18319F05 		ldreq	r3, .L67+40
 961 0c98 B020D201 		ldreqh	r2, [r2, #0]
 962 0c9c B020C301 		streqh	r2, [r3, #0]	@ movhi 
 963 0ca0 10319FE5 		ldr	r3, .L67+44
 964 0ca4 10619FE5 		ldr	r6, .L67+48
 965 0ca8 003093E5 		ldr	r3, [r3, #0]	@ float
 966 0cac 0300A0E1 		mov	r0, r3
 967 0cb0 003086E5 		str	r3, [r6, #0]	@ float
 968 0cb4 FEFFFFEB 		bl	__extendsfdf2
 969 0cb8 CC208FE2 		adr	r2, .L67
 970 0cbc 0C0092E8 		ldmia	r2, {r2-r3}
 971 0cc0 0150A0E1 		mov	r5, r1
 972 0cc4 0040A0E1 		mov	r4, r0
 973 0cc8 FEFFFFEB 		bl	__gtdf2
 974 0ccc 000050E3 		cmp	r0, #0
 975 0cd0 E8309FC5 		ldrgt	r3, .L67+52
 976 0cd4 3C0300CA 		bgt	.L66
 977 0cd8 0510A0E1 		mov	r1, r5
 978 0cdc 0400A0E1 		mov	r0, r4
 979 0ce0 AC208FE2 		adr	r2, .L67+8
 980 0ce4 0C0092E8 		ldmia	r2, {r2-r3}
 981 0ce8 FEFFFFEB 		bl	__ltdf2
 982 0cec 000050E3 		cmp	r0, #0
 983 0cf0 3D0300AA 		bge	.L61
 984 0cf4 C8309FE5 		ldr	r3, .L67+56
 985              	.L66:
 986 0cf8 003086E5 		str	r3, [r6, #0]	@ float
 987              	.L61:
 988 0cfc C4309FE5 		ldr	r3, .L67+60
 989 0d00 0030D3E5 		ldrb	r3, [r3, #0]	@ zero_extendqisi2
 990 0d04 000053E3 		cmp	r3, #0
 991 0d08 4903001A 		bne	.L65
 992 0d0c B8309FE5 		ldr	r3, .L67+64
 993 0d10 B030D3E1 		ldrh	r3, [r3, #0]
 994 0d14 000053E3 		cmp	r3, #0
 995 0d18 4C03001A 		bne	.L55
 996 0d1c AC309FE5 		ldr	r3, .L67+68
 997 0d20 0030D3E5 		ldrb	r3, [r3, #0]	@ zero_extendqisi2
 998 0d24 000053E3 		cmp	r3, #0
 999 0d28 4C03001A 		bne	.L55
 1000              	.L65:
 1001 0d2c 80309FE5 		ldr	r3, .L67+40
 1002 0d30 0020A0E3 		mov	r2, #0	@ movhi
 1003 0d34 B020C3E1 		strh	r2, [r3, #0]	@ movhi 
 1004              	.L55:
 1005 0d38 94609FE5 		ldr	r6, .L67+72
 1006 0d3c 000096E5 		ldr	r0, [r6, #0]	@ float
 1007 0d40 FEFFFFEB 		bl	__extendsfdf2
 1008 0d44 68309FE5 		ldr	r3, .L67+40
 1009 0d48 0150A0E1 		mov	r5, r1
 1010 0d4c 0040A0E1 		mov	r4, r0
 1011 0d50 F000D3E1 		ldrsh	r0, [r3, #0]
 1012 0d54 FEFFFFEB 		bl	__floatsisf
 1013 0d58 FEFFFFEB 		bl	__extendsfdf2
 1014 0d5c 38208FE2 		adr	r2, .L67+16
 1015 0d60 0C0092E8 		ldmia	r2, {r2-r3}
 1016 0d64 FEFFFFEB 		bl	__muldf3
 1017 0d68 0130A0E1 		mov	r3, r1
 1018 0d6c 0020A0E1 		mov	r2, r0
 1019 0d70 0510A0E1 		mov	r1, r5
 1020 0d74 0400A0E1 		mov	r0, r4
 1021 0d78 FEFFFFEB 		bl	__adddf3
 1022 0d7c FEFFFFEB 		bl	__truncdfsf2
 1023 0d80 000086E5 		str	r0, [r6, #0]	@ float
 1024 0d84 70689DE8 		ldmfd	sp, {r4, r5, r6, fp, sp, lr}
 1025 0d88 1EFF2FE1 		bx	lr
 1026              	.L68:
 1027              		.align	2
 1028              	.L67:
 1029 0d8c 52C1E03F 		.word	1071694162
 1030 0d90 65732D38 		.word	942502757
 1031 0d94 1857C6BF 		.word	-1077520616
 1032 0d98 8744E74A 		.word	1256670343
 1033 0d9c D57BF73E 		.word	1056406485
 1034 0da0 D8A69EF2 		.word	-224483624
 1035 0da4 00000000 		.word	v_ctl_mode
 1036 0da8 00000000 		.word	pprz_mode
 1037 0dac 00000000 		.word	lateral_mode
 1038 0db0 00000000 		.word	nav_throttle_setpoint
 1039 0db4 00000000 		.word	v_ctl_throttle_setpoint
 1040 0db8 00000000 		.word	nav_pitch
 1041 0dbc 00000000 		.word	h_ctl_pitch_setpoint
 1042 0dc0 920A063F 		.word	1057360530
 1043 0dc4 C2B832BE 		.word	-1103972158
 1044 0dc8 00000000 		.word	kill_throttle
 1045 0dcc 00000000 		.word	estimator_flight_time
 1046 0dd0 00000000 		.word	launch
 1047 0dd4 00000000 		.word	energy
 1049              		.align	2
 1051              	controllability_task:
 1052              		@ Function supports interworking.
 1053              		@ args = 0, pretend = 0, frame = 0
 1054              		@ frame_needed = 0, uses_anonymous_args = 0
 1055              		@ link register save eliminated.
 1056              		@ lr needed for prologue
 1057 0dd8 1EFF2FE1 		bx	lr
 1059              		.align	2
 1061              	statistics_task:
 1062              		@ Function supports interworking.
 1063              		@ args = 0, pretend = 0, frame = 0
 1064              		@ frame_needed = 0, uses_anonymous_args = 0
 1065              		@ link register save eliminated.
 1066              		@ lr needed for prologue
 1067 0ddc 1EFF2FE1 		bx	lr
 1069              		.bss
 1070              	_20Hz.0:
 1071 0010 00       		.space	1
 1072              	_10Hz.1:
 1073 0011 00       		.space	1
 1074              	_4Hz.2:
 1075 0012 00       		.space	1
 1076              	_1Hz.3:
 1077 0013 00       		.space	1
 1078              		.data
 1081              	boot.5:
 1082 0003 01       		.byte	1
 1083              		.bss
 1084              	i30.6:
 1085 0014 00       		.space	1
 1086              	i60.7:
 1087 0015 00       		.space	1
 1088              	i120.8:
 1089 0016 00       		.space	1
 1090 0017 00       		.align	1
 1091              	i300.9:
 1092 0018 0000     		.space	2
 1093              		.align	1
 1094              	i540.10:
 1095 001a 0000     		.space	2
 1096              	i.11:
 1097 001c 00       		.space	1
 1098              	i.12:
 1099 001d 00       		.space	1
 1100              	i30.13:
 1101 001e 00       		.space	1
 1102              	t.4:
 1103 001f 00       		.space	1
 1104              		.global	__floatsidf
 1105              		.global	__gtsf2
 1106              		.text
 1107              		.align	2
 1108              		.global	periodic_task_ap
 1110              	periodic_task_ap:
 1111              		@ Function supports interworking.
 1112              		@ args = 0, pretend = 0, frame = 28
 1113              		@ frame_needed = 1, uses_anonymous_args = 0
 1114 0de0 0DC0A0E1 		mov	ip, sp
 1115 0de4 F0DF2DE9 		stmfd	sp!, {r4, r5, r6, r7, r8, r9, sl, fp, ip, lr, pc}
 1116 0de8 C8239FE5 		ldr	r2, .L265+16
 1117 0dec 04B04CE2 		sub	fp, ip, #4
 1118 0df0 1CD04DE2 		sub	sp, sp, #28
 1119 0df4 0030D2E5 		ldrb	r3, [r2, #0]	@ zero_extendqisi2
 1120 0df8 013083E2 		add	r3, r3, #1
 1121 0dfc 0030C2E5 		strb	r3, [r2, #0]
 1122 0e00 0030D2E5 		ldrb	r3, [r2, #0]	@ zero_extendqisi2
 1123 0e04 020053E3 		cmp	r3, #2
 1124 0e08 0030A083 		movhi	r3, #0
 1125 0e0c 0030C285 		strhib	r3, [r2, #0]
 1126 0e10 A4239FE5 		ldr	r2, .L265+20
 1127 0e14 0030D2E5 		ldrb	r3, [r2, #0]	@ zero_extendqisi2
 1128 0e18 013083E2 		add	r3, r3, #1
 1129 0e1c 0030C2E5 		strb	r3, [r2, #0]
 1130 0e20 0030D2E5 		ldrb	r3, [r2, #0]	@ zero_extendqisi2
 1131 0e24 050053E3 		cmp	r3, #5
 1132 0e28 0030A083 		movhi	r3, #0
 1133 0e2c 0030C285 		strhib	r3, [r2, #0]
 1134 0e30 88239FE5 		ldr	r2, .L265+24
 1135 0e34 0030D2E5 		ldrb	r3, [r2, #0]	@ zero_extendqisi2
 1136 0e38 013083E2 		add	r3, r3, #1
 1137 0e3c 0030C2E5 		strb	r3, [r2, #0]
 1138 0e40 0030D2E5 		ldrb	r3, [r2, #0]	@ zero_extendqisi2
 1139 0e44 0E0053E3 		cmp	r3, #14
 1140 0e48 0030A083 		movhi	r3, #0
 1141 0e4c 0030C285 		strhib	r3, [r2, #0]
 1142 0e50 6C239FE5 		ldr	r2, .L265+28
 1143 0e54 0030D2E5 		ldrb	r3, [r2, #0]	@ zero_extendqisi2
 1144 0e58 013083E2 		add	r3, r3, #1
 1145 0e5c 0030C2E5 		strb	r3, [r2, #0]
 1146 0e60 0030D2E5 		ldrb	r3, [r2, #0]	@ zero_extendqisi2
 1147 0e64 5C739FE5 		ldr	r7, .L265+32
 1148 0e68 3C0053E3 		cmp	r3, #60
 1149 0e6c 0030A083 		movhi	r3, #0
 1150 0e70 0030C285 		strhib	r3, [r2, #0]
 1151 0e74 0030D7E5 		ldrb	r3, [r7, #0]	@ zero_extendqisi2
 1152 0e78 000053E3 		cmp	r3, #0
 1153 0e7c D503000A 		beq	.L76
 1154 0e80 0800A0E3 		mov	r0, #8
 1155 0e84 FEFFFFEB 		bl	uart0_check_free_space
 1156 0e88 FF0010E3 		tst	r0, #255
 1157 0e8c 50249F05 		ldreq	r2, .L265+316
 1158 0e90 0030D205 		ldreqb	r3, [r2, #0]	@ zero_extendqisi2
 1159 0e94 01308302 		addeq	r3, r3, #1
 1160 0e98 0030C205 		streqb	r3, [r2, #0]
 1161 0e9c D203000A 		beq	.L78
 1162 0ea0 9900A0E3 		mov	r0, #153
 1163 0ea4 3C449FE5 		ldr	r4, .L265+320
 1164 0ea8 FEFFFFEB 		bl	uart0_transmit
 1165 0eac 0800A0E3 		mov	r0, #8
 1166 0eb0 34549FE5 		ldr	r5, .L265+324
 1167 0eb4 FEFFFFEB 		bl	uart0_transmit
 1168 0eb8 1630A0E3 		mov	r3, #22
 1169 0ebc 0030C4E5 		strb	r3, [r4, #0]
 1170 0ec0 083083E2 		add	r3, r3, #8
 1171 0ec4 0E00A0E3 		mov	r0, #14
 1172 0ec8 0030C5E5 		strb	r3, [r5, #0]
 1173 0ecc FEFFFFEB 		bl	uart0_transmit
 1174 0ed0 0030D4E5 		ldrb	r3, [r4, #0]	@ zero_extendqisi2
 1175 0ed4 013083E2 		add	r3, r3, #1
 1176 0ed8 0030C4E5 		strb	r3, [r4, #0]
 1177 0edc 0030D5E5 		ldrb	r3, [r5, #0]	@ zero_extendqisi2
 1178 0ee0 0020D4E5 		ldrb	r2, [r4, #0]	@ zero_extendqisi2
 1179 0ee4 E0629FE5 		ldr	r6, .L265+36
 1180 0ee8 023083E0 		add	r3, r3, r2
 1181 0eec 0100A0E3 		mov	r0, #1
 1182 0ef0 0030C5E5 		strb	r3, [r5, #0]
 1183 0ef4 FEFFFFEB 		bl	uart0_transmit
 1184 0ef8 0000D6E5 		ldrb	r0, [r6, #0]	@ zero_extendqisi2
 1185 0efc 0030D4E5 		ldrb	r3, [r4, #0]	@ zero_extendqisi2
 1186 0f00 033080E0 		add	r3, r0, r3
 1187 0f04 0030C4E5 		strb	r3, [r4, #0]
 1188 0f08 0030D5E5 		ldrb	r3, [r5, #0]	@ zero_extendqisi2
 1189 0f0c 0020D4E5 		ldrb	r2, [r4, #0]	@ zero_extendqisi2
 1190 0f10 023083E0 		add	r3, r3, r2
 1191 0f14 0030C5E5 		strb	r3, [r5, #0]
 1192 0f18 FEFFFFEB 		bl	uart0_transmit
 1193 0f1c 0100D6E5 		ldrb	r0, [r6, #1]	@ zero_extendqisi2
 1194 0f20 0030D4E5 		ldrb	r3, [r4, #0]	@ zero_extendqisi2
 1195 0f24 033080E0 		add	r3, r0, r3
 1196 0f28 0030C4E5 		strb	r3, [r4, #0]
 1197 0f2c 0030D5E5 		ldrb	r3, [r5, #0]	@ zero_extendqisi2
 1198 0f30 0020D4E5 		ldrb	r2, [r4, #0]	@ zero_extendqisi2
 1199 0f34 023083E0 		add	r3, r3, r2
 1200 0f38 0030C5E5 		strb	r3, [r5, #0]
 1201 0f3c FEFFFFEB 		bl	uart0_transmit
 1202 0f40 0000D4E5 		ldrb	r0, [r4, #0]	@ zero_extendqisi2
 1203 0f44 FEFFFFEB 		bl	uart0_transmit
 1204 0f48 0000D5E5 		ldrb	r0, [r5, #0]	@ zero_extendqisi2
 1205 0f4c FEFFFFEB 		bl	uart0_transmit
 1206              	.L78:
 1207 0f50 0030A0E3 		mov	r3, #0
 1208 0f54 0030C7E5 		strb	r3, [r7, #0]
 1209 0f58 C70D00EA 		b	.L223
 1210              	.L76:
 1211 0f5c 6C329FE5 		ldr	r3, .L265+40
 1212 0f60 0010D3E5 		ldrb	r1, [r3, #0]	@ zero_extendqisi2
 1213 0f64 000051E3 		cmp	r1, #0
 1214 0f68 1D0D001A 		bne	.L80
 1215 0f6c 60829FE5 		ldr	r8, .L265+44
 1216 0f70 0030D8E5 		ldrb	r3, [r8, #0]	@ zero_extendqisi2
 1217 0f74 013083E2 		add	r3, r3, #1
 1218 0f78 0030C8E5 		strb	r3, [r8, #0]
 1219 0f7c 54A29FE5 		ldr	sl, .L265+48
 1220 0f80 0030D8E5 		ldrb	r3, [r8, #0]	@ zero_extendqisi2
 1221 0f84 1D0053E3 		cmp	r3, #29
 1222 0f88 0030DAE5 		ldrb	r3, [sl, #0]	@ zero_extendqisi2
 1223 0f8c 013083E2 		add	r3, r3, #1
 1224 0f90 0030CAE5 		strb	r3, [sl, #0]
 1225 0f94 40929FE5 		ldr	r9, .L265+52
 1226 0f98 0030DAE5 		ldrb	r3, [sl, #0]	@ zero_extendqisi2
 1227 0f9c 0010C885 		strhib	r1, [r8, #0]
 1228 0fa0 3B0053E3 		cmp	r3, #59
 1229 0fa4 0030D9E5 		ldrb	r3, [r9, #0]	@ zero_extendqisi2
 1230 0fa8 013083E2 		add	r3, r3, #1
 1231 0fac 0030C9E5 		strb	r3, [r9, #0]
 1232 0fb0 28229FE5 		ldr	r2, .L265+56
 1233 0fb4 0030D9E5 		ldrb	r3, [r9, #0]	@ zero_extendqisi2
 1234 0fb8 0010CA85 		strhib	r1, [sl, #0]
 1235 0fbc 770053E3 		cmp	r3, #119
 1236 0fc0 B030D2E1 		ldrh	r3, [r2, #0]
 1237 0fc4 013083E2 		add	r3, r3, #1
 1238 0fc8 B030C2E1 		strh	r3, [r2, #0]	@ movhi 
 1239 0fcc B030D2E1 		ldrh	r3, [r2, #0]
 1240 0fd0 0010C985 		strhib	r1, [r9, #0]
 1241 0fd4 4B0F53E3 		cmp	r3, #300
 1242 0fd8 B010C221 		strcsh	r1, [r2, #0]	@ movhi 
 1243 0fdc 00229FE5 		ldr	r2, .L265+60
 1244 0fe0 B030D2E1 		ldrh	r3, [r2, #0]
 1245 0fe4 013083E2 		add	r3, r3, #1
 1246 0fe8 B030C2E1 		strh	r3, [r2, #0]	@ movhi 
 1247 0fec B030D2E1 		ldrh	r3, [r2, #0]
 1248 0ff0 870F53E3 		cmp	r3, #540
 1249 0ff4 0030D8E5 		ldrb	r3, [r8, #0]	@ zero_extendqisi2
 1250 0ff8 B010C221 		strcsh	r1, [r2, #0]	@ movhi 
 1251 0ffc 000053E3 		cmp	r3, #0
 1252 1000 BA04001A 		bne	.L86
 1253 1004 DC319FE5 		ldr	r3, .L265+64
 1254 1008 000093E5 		ldr	r0, [r3, #0]	@ float
 1255 100c FEFFFFEB 		bl	__extendsfdf2
 1256 1010 192E8FE2 		adr	r2, .L265
 1257 1014 0C0092E8 		ldmia	r2, {r2-r3}
 1258 1018 FEFFFFEB 		bl	__divdf3
 1259 101c 632F8FE2 		adr	r2, .L265+8
 1260 1020 0C0092E8 		ldmia	r2, {r2-r3}
 1261 1024 FEFFFFEB 		bl	__muldf3
 1262 1028 FEFFFFEB 		bl	__fixdfsi
 1263 102c B8319FE5 		ldr	r3, .L265+68
 1264 1030 BA024BE1 		strh	r0, [fp, #-42]	@ movhi 
 1265 1034 000093E5 		ldr	r0, [r3, #0]	@ float
 1266 1038 FEFFFFEB 		bl	__extendsfdf2
 1267 103c 592F8FE2 		adr	r2, .L265
 1268 1040 0C0092E8 		ldmia	r2, {r2-r3}
 1269 1044 FEFFFFEB 		bl	__divdf3
 1270 1048 162E8FE2 		adr	r2, .L265+8
 1271 104c 0C0092E8 		ldmia	r2, {r2-r3}
 1272 1050 FEFFFFEB 		bl	__muldf3
 1273 1054 FEFFFFEB 		bl	__fixdfsi
 1274 1058 90319FE5 		ldr	r3, .L265+72
 1275 105c BC024BE1 		strh	r0, [fp, #-44]	@ movhi 
 1276 1060 000093E5 		ldr	r0, [r3, #0]	@ float
 1277 1064 FEFFFFEB 		bl	__extendsfdf2
 1278 1068 4E2F8FE2 		adr	r2, .L265
 1279 106c 0C0092E8 		ldmia	r2, {r2-r3}
 1280 1070 FEFFFFEB 		bl	__divdf3
 1281 1074 4D2F8FE2 		adr	r2, .L265+8
 1282 1078 0C0092E8 		ldmia	r2, {r2-r3}
 1283 107c FEFFFFEB 		bl	__muldf3
 1284 1080 FEFFFFEB 		bl	__fixdfsi
 1285 1084 BE024BE1 		strh	r0, [fp, #-46]	@ movhi 
 1286 1088 0C00A0E3 		mov	r0, #12
 1287 108c FEFFFFEB 		bl	uart0_check_free_space
 1288 1090 FF0010E3 		tst	r0, #255
 1289 1094 7905000A 		beq	.L96
 1290 1098 9900A0E3 		mov	r0, #153
 1291 109c 44429FE5 		ldr	r4, .L265+320
 1292 10a0 FEFFFFEB 		bl	uart0_transmit
 1293 10a4 0C00A0E3 		mov	r0, #12
 1294 10a8 3C529FE5 		ldr	r5, .L265+324
 1295 10ac FEFFFFEB 		bl	uart0_transmit
 1296 10b0 1A30A0E3 		mov	r3, #26
 1297 10b4 0030C4E5 		strb	r3, [r4, #0]
 1298 10b8 0C3083E2 		add	r3, r3, #12
 1299 10bc 0E00A0E3 		mov	r0, #14
 1300 10c0 0030C5E5 		strb	r3, [r5, #0]
 1301 10c4 FEFFFFEB 		bl	uart0_transmit
 1302 10c8 0030D4E5 		ldrb	r3, [r4, #0]	@ zero_extendqisi2
 1303 10cc 063083E2 		add	r3, r3, #6
 1304 10d0 0030C4E5 		strb	r3, [r4, #0]
 1305 10d4 0030D5E5 		ldrb	r3, [r5, #0]	@ zero_extendqisi2
 1306 10d8 0020D4E5 		ldrb	r2, [r4, #0]	@ zero_extendqisi2
 1307 10dc 023083E0 		add	r3, r3, r2
 1308 10e0 0600A0E3 		mov	r0, #6
 1309 10e4 0030C5E5 		strb	r3, [r5, #0]
 1310 10e8 FEFFFFEB 		bl	uart0_transmit
 1311 10ec 2A005BE5 		ldrb	r0, [fp, #-42]	@ zero_extendqisi2
 1312 10f0 0030D4E5 		ldrb	r3, [r4, #0]	@ zero_extendqisi2
 1313 10f4 033080E0 		add	r3, r0, r3
 1314 10f8 0030C4E5 		strb	r3, [r4, #0]
 1315 10fc 0030D5E5 		ldrb	r3, [r5, #0]	@ zero_extendqisi2
 1316 1100 0020D4E5 		ldrb	r2, [r4, #0]	@ zero_extendqisi2
 1317 1104 023083E0 		add	r3, r3, r2
 1318 1108 0030C5E5 		strb	r3, [r5, #0]
 1319 110c FEFFFFEB 		bl	uart0_transmit
 1320 1110 29005BE5 		ldrb	r0, [fp, #-41]	@ zero_extendqisi2
 1321 1114 0030D4E5 		ldrb	r3, [r4, #0]	@ zero_extendqisi2
 1322 1118 033080E0 		add	r3, r0, r3
 1323 111c 0030C4E5 		strb	r3, [r4, #0]
 1324 1120 0030D5E5 		ldrb	r3, [r5, #0]	@ zero_extendqisi2
 1325 1124 0020D4E5 		ldrb	r2, [r4, #0]	@ zero_extendqisi2
 1326 1128 023083E0 		add	r3, r3, r2
 1327 112c 0030C5E5 		strb	r3, [r5, #0]
 1328 1130 FEFFFFEB 		bl	uart0_transmit
 1329 1134 2C005BE5 		ldrb	r0, [fp, #-44]	@ zero_extendqisi2
 1330 1138 0030D4E5 		ldrb	r3, [r4, #0]	@ zero_extendqisi2
 1331 113c 033080E0 		add	r3, r0, r3
 1332 1140 0030C4E5 		strb	r3, [r4, #0]
 1333 1144 0030D5E5 		ldrb	r3, [r5, #0]	@ zero_extendqisi2
 1334 1148 0020D4E5 		ldrb	r2, [r4, #0]	@ zero_extendqisi2
 1335 114c 023083E0 		add	r3, r3, r2
 1336 1150 0030C5E5 		strb	r3, [r5, #0]
 1337 1154 FEFFFFEB 		bl	uart0_transmit
 1338 1158 2B005BE5 		ldrb	r0, [fp, #-43]	@ zero_extendqisi2
 1339 115c 0030D4E5 		ldrb	r3, [r4, #0]	@ zero_extendqisi2
 1340 1160 033080E0 		add	r3, r0, r3
 1341 1164 0030C4E5 		strb	r3, [r4, #0]
 1342 1168 0030D5E5 		ldrb	r3, [r5, #0]	@ zero_extendqisi2
 1343 116c 0020D4E5 		ldrb	r2, [r4, #0]	@ zero_extendqisi2
 1344 1170 023083E0 		add	r3, r3, r2
 1345 1174 0030C5E5 		strb	r3, [r5, #0]
 1346 1178 FEFFFFEB 		bl	uart0_transmit
 1347 117c 2E005BE5 		ldrb	r0, [fp, #-46]	@ zero_extendqisi2
 1348 1180 0030D4E5 		ldrb	r3, [r4, #0]	@ zero_extendqisi2
 1349 1184 033080E0 		add	r3, r0, r3
 1350 1188 0030C4E5 		strb	r3, [r4, #0]
 1351 118c 0030D5E5 		ldrb	r3, [r5, #0]	@ zero_extendqisi2
 1352 1190 0020D4E5 		ldrb	r2, [r4, #0]	@ zero_extendqisi2
 1353 1194 023083E0 		add	r3, r3, r2
 1354 1198 0030C5E5 		strb	r3, [r5, #0]
 1355 119c FEFFFFEB 		bl	uart0_transmit
 1356 11a0 2D005BE5 		ldrb	r0, [fp, #-45]	@ zero_extendqisi2
 1357 11a4 6C0500EA 		b	.L249
 1358              	.L266:
 1359              		.align	2
 1360              	.L265:
 1361 11a8 FB210940 		.word	1074340347
 1362 11ac 182D4454 		.word	1413754136
 1363 11b0 00806640 		.word	1080459264
 1364 11b4 00000000 		.word	0
 1365 11b8 10000000 		.word	_20Hz.0
 1366 11bc 11000000 		.word	_10Hz.1
 1367 11c0 12000000 		.word	_4Hz.2
 1368 11c4 13000000 		.word	_1Hz.3
 1369 11c8 03000000 		.word	boot.5
 1370 11cc 00000000 		.word	version
 1371 11d0 00000000 		.word	telemetry_mode_Ap
 1372 11d4 14000000 		.word	i30.6
 1373 11d8 15000000 		.word	i60.7
 1374 11dc 16000000 		.word	i120.8
 1375 11e0 18000000 		.word	i300.9
 1376 11e4 1A000000 		.word	i540.10
 1377 11e8 00000000 		.word	estimator_phi
 1378 11ec 00000000 		.word	estimator_psi
 1379 11f0 00000000 		.word	estimator_theta
 1380 11f4 1C000000 		.word	i.11
 1381 11f8 00000000 		.word	nb_waypoint
 1382 11fc 00000000 		.word	nav_utm_east0
 1383 1200 00000000 		.word	waypoints
 1384 1204 00000000 		.word	nav_utm_north0
 1385 1208 00000000 		.word	estimator_z
 1386 120c 00000000 		.word	estimator_z_dot
 1387 1210 00000000 		.word	calib_status
 1388 1214 00000000 		.word	ir_contrast
 1389 1218 00000000 		.word	desired_roll
 1390 121c 00000000 		.word	desired_pitch
 1391 1220 00000000 		.word	desired_x
 1392 1224 00000000 		.word	desired_y
 1393 1228 00000000 		.word	nav_altitude
 1394 122c 00000000 		.word	v_ctl_climb_setpoint
 1395 1230 00000000 		.word	nav_in_circle
 1396 1234 00000000 		.word	nav_circle_x
 1397 1238 00000000 		.word	nav_circle_y
 1398 123c 00000000 		.word	nav_circle_radius
 1399 1240 00000000 		.word	nav_in_segment
 1400 1244 00000000 		.word	nav_segment_x_1
 1401 1248 00000000 		.word	nav_segment_y_1
 1402 124c 00000000 		.word	nav_segment_x_2
 1403 1250 00000000 		.word	nav_segment_y_2
 1404 1254 1D000000 		.word	i.12
 1405 1258 00000000 		.word	flight_altitude
 1406 125c 00000000 		.word	light_mode
 1407 1260 00000000 		.word	wind_east
 1408 1264 00000000 		.word	wind_north
 1409 1268 00000000 		.word	pprz_mode
 1410 126c 00000000 		.word	alt_kalman_enabled
 1411 1270 00000000 		.word	estimator_flight_time
 1412 1274 00008047 		.word	1199570944
 1413 1278 00000000 		.word	launch
 1414 127c 00000000 		.word	kill_throttle
 1415 1280 00000000 		.word	ir_roll_neutral
 1416 1284 00000000 		.word	ir_pitch_neutral
 1417 1288 00000000 		.word	ir_correction_left
 1418 128c 00000000 		.word	ir_correction_right
 1419 1290 00000000 		.word	ir_correction_up
 1420 1294 00000000 		.word	ir_correction_down
 1421 1298 00000000 		.word	ir_estim_mode
 1422 129c 00000000 		.word	h_ctl_attitude_enabled
 1423 12a0 00008043 		.word	1132462080
 1424 12a4 00000000 		.word	gyro_roll_adc
 1425 12a8 00000000 		.word	gyro_pitch_adc
 1426 12ac 00000000 		.word	gyro_yaw_adc
 1427 12b0 00000000 		.word	h_ctl_elevator_of_roll
 1428 12b4 00000000 		.word	h_ctl_roll_rate_setpoint_pgain
 1429 12b8 00000000 		.word	h_ctl_hi_throttle_roll_rate_pgain
 1430 12bc 00000000 		.word	h_ctl_lo_throttle_roll_rate_pgain
 1431 12c0 00000000 		.word	h_ctl_pitch_rate_setpoint_pgain
 1432 12c4 00000000 		.word	h_ctl_hi_throttle_pitch_rate_pgain
 1433 12c8 00000000 		.word	h_ctl_lo_throttle_pitch_rate_pgain
 1434 12cc 00000000 		.word	h_ctl_yaw_rate_setpoint_pgain
 1435 12d0 00000000 		.word	h_ctl_hi_throttle_yaw_rate_pgain
 1436 12d4 00000000 		.word	h_ctl_lo_throttle_yaw_rate_pgain
 1437 12d8 00000000 		.word	v_ctl_altitude_pgain
 1438 12dc 00000000 		.word	v_ctl_auto_throttle_cruise_throttle
 1439 12e0 00000000 		.word	v_ctl_auto_throttle_cruise_throttle_pgain
 1440 12e4 00000000 		.word	downlink_nb_ovrn
 1441 12e8 00000000 		.word	ck_a
 1442 12ec 00000000 		.word	ck_b
 1443              	.L86:
 1444 12f0 060053E3 		cmp	r3, #6
 1445 12f4 7D05000A 		beq	.L89
 1446 12f8 0C0053E3 		cmp	r3, #12
 1447 12fc 7D05000A 		beq	.L89
 1448 1300 120053E3 		cmp	r3, #18
 1449 1304 7D05001A 		bne	.L89
 1450 1308 1C611FE5 		ldr	r6, .L265+76
 1451 130c 0030D6E5 		ldrb	r3, [r6, #0]	@ zero_extendqisi2
 1452 1310 013083E2 		add	r3, r3, #1
 1453 1314 0030C6E5 		strb	r3, [r6, #0]
 1454 1318 28311FE5 		ldr	r3, .L265+80
 1455 131c 0020D3E5 		ldrb	r2, [r3, #0]	@ zero_extendqisi2
 1456 1320 0030D6E5 		ldrb	r3, [r6, #0]	@ zero_extendqisi2
 1457 1324 020053E1 		cmp	r3, r2
 1458 1328 34311FE5 		ldr	r3, .L265+84
 1459 132c 0010C685 		strhib	r1, [r6, #0]
 1460 1330 000093E5 		ldr	r0, [r3, #0]
 1461 1334 FEFFFFEB 		bl	__floatsisf
 1462 1338 0040D6E5 		ldrb	r4, [r6, #0]	@ zero_extendqisi2
 1463 133c 44711FE5 		ldr	r7, .L265+88
 1464 1340 844084E0 		add	r4, r4, r4, asl #1
 1465 1344 0441A0E1 		mov	r4, r4, asl #2
 1466 1348 071094E7 		ldr	r1, [r4, r7]	@ float
 1467 134c FEFFFFEB 		bl	__addsf3
 1468 1350 54311FE5 		ldr	r3, .L265+92
 1469 1354 3C000BE5 		str	r0, [fp, #-60]	@ float
 1470 1358 074084E0 		add	r4, r4, r7
 1471 135c 000093E5 		ldr	r0, [r3, #0]
 1472 1360 FEFFFFEB 		bl	__floatsisf
 1473 1364 041094E5 		ldr	r1, [r4, #4]	@ float
 1474 1368 FEFFFFEB 		bl	__addsf3
 1475 136c 40000BE5 		str	r0, [fp, #-64]	@ float
 1476 1370 1300A0E3 		mov	r0, #19
 1477 1374 FEFFFFEB 		bl	uart0_check_free_space
 1478 1378 FF0010E3 		tst	r0, #255
 1479 137c 7905000A 		beq	.L96
 1480 1380 9900A0E3 		mov	r0, #153
 1481 1384 A4401FE5 		ldr	r4, .L265+320
 1482 1388 FEFFFFEB 		bl	uart0_transmit
 1483 138c 1300A0E3 		mov	r0, #19
 1484 1390 AC501FE5 		ldr	r5, .L265+324
 1485 1394 FEFFFFEB 		bl	uart0_transmit
 1486 1398 2130A0E3 		mov	r3, #33
 1487 139c 0030C4E5 		strb	r3, [r4, #0]
 1488 13a0 133083E2 		add	r3, r3, #19
 1489 13a4 0E00A0E3 		mov	r0, #14
 1490 13a8 0030C5E5 		strb	r3, [r5, #0]
 1491 13ac FEFFFFEB 		bl	uart0_transmit
 1492 13b0 0030D4E5 		ldrb	r3, [r4, #0]	@ zero_extendqisi2
 1493 13b4 233083E2 		add	r3, r3, #35
 1494 13b8 0030C4E5 		strb	r3, [r4, #0]
 1495 13bc 0030D5E5 		ldrb	r3, [r5, #0]	@ zero_extendqisi2
 1496 13c0 0020D4E5 		ldrb	r2, [r4, #0]	@ zero_extendqisi2
 1497 13c4 023083E0 		add	r3, r3, r2
 1498 13c8 2300A0E3 		mov	r0, #35
 1499 13cc 0030C5E5 		strb	r3, [r5, #0]
 1500 13d0 FEFFFFEB 		bl	uart0_transmit
 1501 13d4 0000D6E5 		ldrb	r0, [r6, #0]	@ zero_extendqisi2
 1502 13d8 0030D4E5 		ldrb	r3, [r4, #0]	@ zero_extendqisi2
 1503 13dc 033080E0 		add	r3, r0, r3
 1504 13e0 0030C4E5 		strb	r3, [r4, #0]
 1505 13e4 0030D5E5 		ldrb	r3, [r5, #0]	@ zero_extendqisi2
 1506 13e8 0020D4E5 		ldrb	r2, [r4, #0]	@ zero_extendqisi2
 1507 13ec 023083E0 		add	r3, r3, r2
 1508 13f0 0030C5E5 		strb	r3, [r5, #0]
 1509 13f4 FEFFFFEB 		bl	uart0_transmit
 1510 13f8 3C005BE5 		ldrb	r0, [fp, #-60]	@ zero_extendqisi2
 1511 13fc 0030D4E5 		ldrb	r3, [r4, #0]	@ zero_extendqisi2
 1512 1400 033080E0 		add	r3, r0, r3
 1513 1404 0030C4E5 		strb	r3, [r4, #0]
 1514 1408 0030D5E5 		ldrb	r3, [r5, #0]	@ zero_extendqisi2
 1515 140c 0020D4E5 		ldrb	r2, [r4, #0]	@ zero_extendqisi2
 1516 1410 023083E0 		add	r3, r3, r2
 1517 1414 0030C5E5 		strb	r3, [r5, #0]
 1518 1418 FEFFFFEB 		bl	uart0_transmit
 1519 141c 3B005BE5 		ldrb	r0, [fp, #-59]	@ zero_extendqisi2
 1520 1420 0030D4E5 		ldrb	r3, [r4, #0]	@ zero_extendqisi2
 1521 1424 033080E0 		add	r3, r0, r3
 1522 1428 0030C4E5 		strb	r3, [r4, #0]
 1523 142c 0030D5E5 		ldrb	r3, [r5, #0]	@ zero_extendqisi2
 1524 1430 0020D4E5 		ldrb	r2, [r4, #0]	@ zero_extendqisi2
 1525 1434 023083E0 		add	r3, r3, r2
 1526 1438 0030C5E5 		strb	r3, [r5, #0]
 1527 143c FEFFFFEB 		bl	uart0_transmit
 1528 1440 3A005BE5 		ldrb	r0, [fp, #-58]	@ zero_extendqisi2
 1529 1444 0030D4E5 		ldrb	r3, [r4, #0]	@ zero_extendqisi2
 1530 1448 033080E0 		add	r3, r0, r3
 1531 144c 0030C4E5 		strb	r3, [r4, #0]
 1532 1450 0030D5E5 		ldrb	r3, [r5, #0]	@ zero_extendqisi2
 1533 1454 0020D4E5 		ldrb	r2, [r4, #0]	@ zero_extendqisi2
 1534 1458 023083E0 		add	r3, r3, r2
 1535 145c 0030C5E5 		strb	r3, [r5, #0]
 1536 1460 FEFFFFEB 		bl	uart0_transmit
 1537 1464 39005BE5 		ldrb	r0, [fp, #-57]	@ zero_extendqisi2
 1538 1468 0030D4E5 		ldrb	r3, [r4, #0]	@ zero_extendqisi2
 1539 146c 033080E0 		add	r3, r0, r3
 1540 1470 0030C4E5 		strb	r3, [r4, #0]
 1541 1474 0030D5E5 		ldrb	r3, [r5, #0]	@ zero_extendqisi2
 1542 1478 0020D4E5 		ldrb	r2, [r4, #0]	@ zero_extendqisi2
 1543 147c 023083E0 		add	r3, r3, r2
 1544 1480 0030C5E5 		strb	r3, [r5, #0]
 1545 1484 FEFFFFEB 		bl	uart0_transmit
 1546 1488 40005BE5 		ldrb	r0, [fp, #-64]	@ zero_extendqisi2
 1547 148c 0030D4E5 		ldrb	r3, [r4, #0]	@ zero_extendqisi2
 1548 1490 033080E0 		add	r3, r0, r3
 1549 1494 0030C4E5 		strb	r3, [r4, #0]
 1550 1498 0030D5E5 		ldrb	r3, [r5, #0]	@ zero_extendqisi2
 1551 149c 0020D4E5 		ldrb	r2, [r4, #0]	@ zero_extendqisi2
 1552 14a0 023083E0 		add	r3, r3, r2
 1553 14a4 0030C5E5 		strb	r3, [r5, #0]
 1554 14a8 FEFFFFEB 		bl	uart0_transmit
 1555 14ac 3F005BE5 		ldrb	r0, [fp, #-63]	@ zero_extendqisi2
 1556 14b0 0030D4E5 		ldrb	r3, [r4, #0]	@ zero_extendqisi2
 1557 14b4 033080E0 		add	r3, r0, r3
 1558 14b8 0030C4E5 		strb	r3, [r4, #0]
 1559 14bc 0030D5E5 		ldrb	r3, [r5, #0]	@ zero_extendqisi2
 1560 14c0 0020D4E5 		ldrb	r2, [r4, #0]	@ zero_extendqisi2
 1561 14c4 023083E0 		add	r3, r3, r2
 1562 14c8 0030C5E5 		strb	r3, [r5, #0]
 1563 14cc FEFFFFEB 		bl	uart0_transmit
 1564 14d0 3E005BE5 		ldrb	r0, [fp, #-62]	@ zero_extendqisi2
 1565 14d4 0030D4E5 		ldrb	r3, [r4, #0]	@ zero_extendqisi2
 1566 14d8 033080E0 		add	r3, r0, r3
 1567 14dc 0030C4E5 		strb	r3, [r4, #0]
 1568 14e0 0030D5E5 		ldrb	r3, [r5, #0]	@ zero_extendqisi2
 1569 14e4 0020D4E5 		ldrb	r2, [r4, #0]	@ zero_extendqisi2
 1570 14e8 023083E0 		add	r3, r3, r2
 1571 14ec 0030C5E5 		strb	r3, [r5, #0]
 1572 14f0 FEFFFFEB 		bl	uart0_transmit
 1573 14f4 3D005BE5 		ldrb	r0, [fp, #-61]	@ zero_extendqisi2
 1574 14f8 0030D4E5 		ldrb	r3, [r4, #0]	@ zero_extendqisi2
 1575 14fc 033080E0 		add	r3, r0, r3
 1576 1500 0030C4E5 		strb	r3, [r4, #0]
 1577 1504 0030D5E5 		ldrb	r3, [r5, #0]	@ zero_extendqisi2
 1578 1508 0020D4E5 		ldrb	r2, [r4, #0]	@ zero_extendqisi2
 1579 150c 023083E0 		add	r3, r3, r2
 1580 1510 0030C5E5 		strb	r3, [r5, #0]
 1581 1514 FEFFFFEB 		bl	uart0_transmit
 1582 1518 0030D6E5 		ldrb	r3, [r6, #0]	@ zero_extendqisi2
 1583 151c 082087E2 		add	r2, r7, #8
 1584 1520 833083E0 		add	r3, r3, r3, asl #1
 1585 1524 0301D2E7 		ldrb	r0, [r2, r3, asl #2]	@ zero_extendqisi2
 1586 1528 0030D4E5 		ldrb	r3, [r4, #0]	@ zero_extendqisi2
 1587 152c 033080E0 		add	r3, r0, r3
 1588 1530 0030C4E5 		strb	r3, [r4, #0]
 1589 1534 0030D5E5 		ldrb	r3, [r5, #0]	@ zero_extendqisi2
 1590 1538 0020D4E5 		ldrb	r2, [r4, #0]	@ zero_extendqisi2
 1591 153c 023083E0 		add	r3, r3, r2
 1592 1540 0030C5E5 		strb	r3, [r5, #0]
 1593 1544 FEFFFFEB 		bl	uart0_transmit
 1594 1548 0030D6E5 		ldrb	r3, [r6, #0]	@ zero_extendqisi2
 1595 154c 092087E2 		add	r2, r7, #9
 1596 1550 833083E0 		add	r3, r3, r3, asl #1
 1597 1554 0301D2E7 		ldrb	r0, [r2, r3, asl #2]	@ zero_extendqisi2
 1598 1558 0030D4E5 		ldrb	r3, [r4, #0]	@ zero_extendqisi2
 1599 155c 033080E0 		add	r3, r0, r3
 1600 1560 0030C4E5 		strb	r3, [r4, #0]
 1601 1564 0030D5E5 		ldrb	r3, [r5, #0]	@ zero_extendqisi2
 1602 1568 0020D4E5 		ldrb	r2, [r4, #0]	@ zero_extendqisi2
 1603 156c 023083E0 		add	r3, r3, r2
 1604 1570 0030C5E5 		strb	r3, [r5, #0]
 1605 1574 FEFFFFEB 		bl	uart0_transmit
 1606 1578 0030D6E5 		ldrb	r3, [r6, #0]	@ zero_extendqisi2
 1607 157c 0A2087E2 		add	r2, r7, #10
 1608 1580 833083E0 		add	r3, r3, r3, asl #1
 1609 1584 0301D2E7 		ldrb	r0, [r2, r3, asl #2]	@ zero_extendqisi2
 1610 1588 0030D4E5 		ldrb	r3, [r4, #0]	@ zero_extendqisi2
 1611 158c 033080E0 		add	r3, r0, r3
 1612 1590 0030C4E5 		strb	r3, [r4, #0]
 1613 1594 0030D5E5 		ldrb	r3, [r5, #0]	@ zero_extendqisi2
 1614 1598 0020D4E5 		ldrb	r2, [r4, #0]	@ zero_extendqisi2
 1615 159c 023083E0 		add	r3, r3, r2
 1616 15a0 0030C5E5 		strb	r3, [r5, #0]
 1617 15a4 FEFFFFEB 		bl	uart0_transmit
 1618 15a8 0030D6E5 		ldrb	r3, [r6, #0]	@ zero_extendqisi2
 1619 15ac 0B2087E2 		add	r2, r7, #11
 1620 15b0 833083E0 		add	r3, r3, r3, asl #1
 1621 15b4 0301D2E7 		ldrb	r0, [r2, r3, asl #2]	@ zero_extendqisi2
 1622              	.L249:
 1623 15b8 0030D4E5 		ldrb	r3, [r4, #0]	@ zero_extendqisi2
 1624 15bc 033080E0 		add	r3, r0, r3
 1625 15c0 0030C4E5 		strb	r3, [r4, #0]
 1626 15c4 0030D5E5 		ldrb	r3, [r5, #0]	@ zero_extendqisi2
 1627 15c8 0020D4E5 		ldrb	r2, [r4, #0]	@ zero_extendqisi2
 1628 15cc 023083E0 		add	r3, r3, r2
 1629 15d0 0030C5E5 		strb	r3, [r5, #0]
 1630 15d4 FEFFFFEB 		bl	uart0_transmit
 1631 15d8 0000D4E5 		ldrb	r0, [r4, #0]	@ zero_extendqisi2
 1632 15dc FEFFFFEB 		bl	uart0_transmit
 1633 15e0 0000D5E5 		ldrb	r0, [r5, #0]	@ zero_extendqisi2
 1634 15e4 FEFFFFEB 		bl	uart0_transmit
 1635 15e8 7D0500EA 		b	.L89
 1636              	.L96:
 1637 15ec 10231FE5 		ldr	r2, .L265+316
 1638 15f0 0030D2E5 		ldrb	r3, [r2, #0]	@ zero_extendqisi2
 1639 15f4 013083E2 		add	r3, r3, #1
 1640 15f8 0030C2E5 		strb	r3, [r2, #0]
 1641              	.L89:
 1642 15fc 0030D8E5 		ldrb	r3, [r8, #0]	@ zero_extendqisi2
 1643 1600 060053E3 		cmp	r3, #6
 1644 1604 5706001A 		bne	.L101
 1645 1608 1A00A0E3 		mov	r0, #26
 1646 160c FEFFFFEB 		bl	uart0_check_free_space
 1647 1610 FF0010E3 		tst	r0, #255
 1648 1614 38231F05 		ldreq	r2, .L265+316
 1649 1618 0030D205 		ldreqb	r3, [r2, #0]	@ zero_extendqisi2
 1650 161c 01308302 		addeq	r3, r3, #1
 1651 1620 0030C205 		streqb	r3, [r2, #0]
 1652 1624 5706000A 		beq	.L101
 1653 1628 9900A0E3 		mov	r0, #153
 1654 162c 4C431FE5 		ldr	r4, .L265+320
 1655 1630 FEFFFFEB 		bl	uart0_transmit
 1656 1634 1A00A0E3 		mov	r0, #26
 1657 1638 54531FE5 		ldr	r5, .L265+324
 1658 163c FEFFFFEB 		bl	uart0_transmit
 1659 1640 2830A0E3 		mov	r3, #40
 1660 1644 0030C4E5 		strb	r3, [r4, #0]
 1661 1648 1A3083E2 		add	r3, r3, #26
 1662 164c 0E00A0E3 		mov	r0, #14
 1663 1650 0030C5E5 		strb	r3, [r5, #0]
 1664 1654 FEFFFFEB 		bl	uart0_transmit
 1665 1658 0030D4E5 		ldrb	r3, [r4, #0]	@ zero_extendqisi2
 1666 165c 2A3083E2 		add	r3, r3, #42
 1667 1660 0030C4E5 		strb	r3, [r4, #0]
 1668 1664 0030D5E5 		ldrb	r3, [r5, #0]	@ zero_extendqisi2
 1669 1668 0020D4E5 		ldrb	r2, [r4, #0]	@ zero_extendqisi2
 1670 166c 6C741FE5 		ldr	r7, .L265+96
 1671 1670 023083E0 		add	r3, r3, r2
 1672 1674 2A00A0E3 		mov	r0, #42
 1673 1678 0030C5E5 		strb	r3, [r5, #0]
 1674 167c FEFFFFEB 		bl	uart0_transmit
 1675 1680 0000D7E5 		ldrb	r0, [r7, #0]	@ zero_extendqisi2
 1676 1684 0030D4E5 		ldrb	r3, [r4, #0]	@ zero_extendqisi2
 1677 1688 033080E0 		add	r3, r0, r3
 1678 168c 0030C4E5 		strb	r3, [r4, #0]
 1679 1690 0030D5E5 		ldrb	r3, [r5, #0]	@ zero_extendqisi2
 1680 1694 0020D4E5 		ldrb	r2, [r4, #0]	@ zero_extendqisi2
 1681 1698 023083E0 		add	r3, r3, r2
 1682 169c 0030C5E5 		strb	r3, [r5, #0]
 1683 16a0 FEFFFFEB 		bl	uart0_transmit
 1684 16a4 0100D7E5 		ldrb	r0, [r7, #1]	@ zero_extendqisi2
 1685 16a8 0030D4E5 		ldrb	r3, [r4, #0]	@ zero_extendqisi2
 1686 16ac 033080E0 		add	r3, r0, r3
 1687 16b0 0030C4E5 		strb	r3, [r4, #0]
 1688 16b4 0030D5E5 		ldrb	r3, [r5, #0]	@ zero_extendqisi2
 1689 16b8 0020D4E5 		ldrb	r2, [r4, #0]	@ zero_extendqisi2
 1690 16bc 023083E0 		add	r3, r3, r2
 1691 16c0 0030C5E5 		strb	r3, [r5, #0]
 1692 16c4 FEFFFFEB 		bl	uart0_transmit
 1693 16c8 0200D7E5 		ldrb	r0, [r7, #2]	@ zero_extendqisi2
 1694 16cc 0030D4E5 		ldrb	r3, [r4, #0]	@ zero_extendqisi2
 1695 16d0 033080E0 		add	r3, r0, r3
 1696 16d4 0030C4E5 		strb	r3, [r4, #0]
 1697 16d8 0030D5E5 		ldrb	r3, [r5, #0]	@ zero_extendqisi2
 1698 16dc 0020D4E5 		ldrb	r2, [r4, #0]	@ zero_extendqisi2
 1699 16e0 023083E0 		add	r3, r3, r2
 1700 16e4 0030C5E5 		strb	r3, [r5, #0]
 1701 16e8 FEFFFFEB 		bl	uart0_transmit
 1702 16ec 0300D7E5 		ldrb	r0, [r7, #3]	@ zero_extendqisi2
 1703 16f0 0030D4E5 		ldrb	r3, [r4, #0]	@ zero_extendqisi2
 1704 16f4 033080E0 		add	r3, r0, r3
 1705 16f8 0030C4E5 		strb	r3, [r4, #0]
 1706 16fc 0030D5E5 		ldrb	r3, [r5, #0]	@ zero_extendqisi2
 1707 1700 0020D4E5 		ldrb	r2, [r4, #0]	@ zero_extendqisi2
 1708 1704 00651FE5 		ldr	r6, .L265+100
 1709 1708 023083E0 		add	r3, r3, r2
 1710 170c 0030C5E5 		strb	r3, [r5, #0]
 1711 1710 FEFFFFEB 		bl	uart0_transmit
 1712 1714 0000D6E5 		ldrb	r0, [r6, #0]	@ zero_extendqisi2
 1713 1718 0030D4E5 		ldrb	r3, [r4, #0]	@ zero_extendqisi2
 1714 171c 033080E0 		add	r3, r0, r3
 1715 1720 0030C4E5 		strb	r3, [r4, #0]
 1716 1724 0030D5E5 		ldrb	r3, [r5, #0]	@ zero_extendqisi2
 1717 1728 0020D4E5 		ldrb	r2, [r4, #0]	@ zero_extendqisi2
 1718 172c 023083E0 		add	r3, r3, r2
 1719 1730 0030C5E5 		strb	r3, [r5, #0]
 1720 1734 FEFFFFEB 		bl	uart0_transmit
 1721 1738 0100D6E5 		ldrb	r0, [r6, #1]	@ zero_extendqisi2
 1722 173c 0030D4E5 		ldrb	r3, [r4, #0]	@ zero_extendqisi2
 1723 1740 033080E0 		add	r3, r0, r3
 1724 1744 0030C4E5 		strb	r3, [r4, #0]
 1725 1748 0030D5E5 		ldrb	r3, [r5, #0]	@ zero_extendqisi2
 1726 174c 0020D4E5 		ldrb	r2, [r4, #0]	@ zero_extendqisi2
 1727 1750 023083E0 		add	r3, r3, r2
 1728 1754 0030C5E5 		strb	r3, [r5, #0]
 1729 1758 FEFFFFEB 		bl	uart0_transmit
 1730 175c 0200D6E5 		ldrb	r0, [r6, #2]	@ zero_extendqisi2
 1731 1760 0030D4E5 		ldrb	r3, [r4, #0]	@ zero_extendqisi2
 1732 1764 033080E0 		add	r3, r0, r3
 1733 1768 0030C4E5 		strb	r3, [r4, #0]
 1734 176c 0030D5E5 		ldrb	r3, [r5, #0]	@ zero_extendqisi2
 1735 1770 0020D4E5 		ldrb	r2, [r4, #0]	@ zero_extendqisi2
 1736 1774 023083E0 		add	r3, r3, r2
 1737 1778 0030C5E5 		strb	r3, [r5, #0]
 1738 177c FEFFFFEB 		bl	uart0_transmit
 1739 1780 0300D6E5 		ldrb	r0, [r6, #3]	@ zero_extendqisi2
 1740 1784 0030D4E5 		ldrb	r3, [r4, #0]	@ zero_extendqisi2
 1741 1788 033080E0 		add	r3, r0, r3
 1742 178c 0030C4E5 		strb	r3, [r4, #0]
 1743 1790 0030D5E5 		ldrb	r3, [r5, #0]	@ zero_extendqisi2
 1744 1794 0020D4E5 		ldrb	r2, [r4, #0]	@ zero_extendqisi2
 1745 1798 023083E0 		add	r3, r3, r2
 1746 179c 0030C5E5 		strb	r3, [r5, #0]
 1747 17a0 FEFFFFEB 		bl	uart0_transmit
 1748 17a4 0000D6E5 		ldrb	r0, [r6, #0]	@ zero_extendqisi2
 1749 17a8 0030D4E5 		ldrb	r3, [r4, #0]	@ zero_extendqisi2
 1750 17ac 033080E0 		add	r3, r0, r3
 1751 17b0 0030C4E5 		strb	r3, [r4, #0]
 1752 17b4 0030D5E5 		ldrb	r3, [r5, #0]	@ zero_extendqisi2
 1753 17b8 0020D4E5 		ldrb	r2, [r4, #0]	@ zero_extendqisi2
 1754 17bc 023083E0 		add	r3, r3, r2
 1755 17c0 0030C5E5 		strb	r3, [r5, #0]
 1756 17c4 FEFFFFEB 		bl	uart0_transmit
 1757 17c8 0100D6E5 		ldrb	r0, [r6, #1]	@ zero_extendqisi2
 1758 17cc 0030D4E5 		ldrb	r3, [r4, #0]	@ zero_extendqisi2
 1759 17d0 033080E0 		add	r3, r0, r3
 1760 17d4 0030C4E5 		strb	r3, [r4, #0]
 1761 17d8 0030D5E5 		ldrb	r3, [r5, #0]	@ zero_extendqisi2
 1762 17dc 0020D4E5 		ldrb	r2, [r4, #0]	@ zero_extendqisi2
 1763 17e0 023083E0 		add	r3, r3, r2
 1764 17e4 0030C5E5 		strb	r3, [r5, #0]
 1765 17e8 FEFFFFEB 		bl	uart0_transmit
 1766 17ec 0200D6E5 		ldrb	r0, [r6, #2]	@ zero_extendqisi2
 1767 17f0 0030D4E5 		ldrb	r3, [r4, #0]	@ zero_extendqisi2
 1768 17f4 033080E0 		add	r3, r0, r3
 1769 17f8 0030C4E5 		strb	r3, [r4, #0]
 1770 17fc 0030D5E5 		ldrb	r3, [r5, #0]	@ zero_extendqisi2
 1771 1800 0020D4E5 		ldrb	r2, [r4, #0]	@ zero_extendqisi2
 1772 1804 023083E0 		add	r3, r3, r2
 1773 1808 0030C5E5 		strb	r3, [r5, #0]
 1774 180c FEFFFFEB 		bl	uart0_transmit
 1775 1810 0300D6E5 		ldrb	r0, [r6, #3]	@ zero_extendqisi2
 1776 1814 0030D4E5 		ldrb	r3, [r4, #0]	@ zero_extendqisi2
 1777 1818 033080E0 		add	r3, r0, r3
 1778 181c 0030C4E5 		strb	r3, [r4, #0]
 1779 1820 0030D5E5 		ldrb	r3, [r5, #0]	@ zero_extendqisi2
 1780 1824 0020D4E5 		ldrb	r2, [r4, #0]	@ zero_extendqisi2
 1781 1828 023083E0 		add	r3, r3, r2
 1782 182c 0030C5E5 		strb	r3, [r5, #0]
 1783 1830 FEFFFFEB 		bl	uart0_transmit
 1784 1834 0000D6E5 		ldrb	r0, [r6, #0]	@ zero_extendqisi2
 1785 1838 0030D4E5 		ldrb	r3, [r4, #0]	@ zero_extendqisi2
 1786 183c 033080E0 		add	r3, r0, r3
 1787 1840 0030C4E5 		strb	r3, [r4, #0]
 1788 1844 0030D5E5 		ldrb	r3, [r5, #0]	@ zero_extendqisi2
 1789 1848 0020D4E5 		ldrb	r2, [r4, #0]	@ zero_extendqisi2
 1790 184c 023083E0 		add	r3, r3, r2
 1791 1850 0030C5E5 		strb	r3, [r5, #0]
 1792 1854 FEFFFFEB 		bl	uart0_transmit
 1793 1858 0100D6E5 		ldrb	r0, [r6, #1]	@ zero_extendqisi2
 1794 185c 0030D4E5 		ldrb	r3, [r4, #0]	@ zero_extendqisi2
 1795 1860 033080E0 		add	r3, r0, r3
 1796 1864 0030C4E5 		strb	r3, [r4, #0]
 1797 1868 0030D5E5 		ldrb	r3, [r5, #0]	@ zero_extendqisi2
 1798 186c 0020D4E5 		ldrb	r2, [r4, #0]	@ zero_extendqisi2
 1799 1870 023083E0 		add	r3, r3, r2
 1800 1874 0030C5E5 		strb	r3, [r5, #0]
 1801 1878 FEFFFFEB 		bl	uart0_transmit
 1802 187c 0200D6E5 		ldrb	r0, [r6, #2]	@ zero_extendqisi2
 1803 1880 0030D4E5 		ldrb	r3, [r4, #0]	@ zero_extendqisi2
 1804 1884 033080E0 		add	r3, r0, r3
 1805 1888 0030C4E5 		strb	r3, [r4, #0]
 1806 188c 0030D5E5 		ldrb	r3, [r5, #0]	@ zero_extendqisi2
 1807 1890 0020D4E5 		ldrb	r2, [r4, #0]	@ zero_extendqisi2
 1808 1894 023083E0 		add	r3, r3, r2
 1809 1898 0030C5E5 		strb	r3, [r5, #0]
 1810 189c FEFFFFEB 		bl	uart0_transmit
 1811 18a0 0300D6E5 		ldrb	r0, [r6, #3]	@ zero_extendqisi2
 1812 18a4 0030D4E5 		ldrb	r3, [r4, #0]	@ zero_extendqisi2
 1813 18a8 033080E0 		add	r3, r0, r3
 1814 18ac 0030C4E5 		strb	r3, [r4, #0]
 1815 18b0 0030D5E5 		ldrb	r3, [r5, #0]	@ zero_extendqisi2
 1816 18b4 0020D4E5 		ldrb	r2, [r4, #0]	@ zero_extendqisi2
 1817 18b8 023083E0 		add	r3, r3, r2
 1818 18bc 0030C5E5 		strb	r3, [r5, #0]
 1819 18c0 FEFFFFEB 		bl	uart0_transmit
 1820 18c4 0000D7E5 		ldrb	r0, [r7, #0]	@ zero_extendqisi2
 1821 18c8 0030D4E5 		ldrb	r3, [r4, #0]	@ zero_extendqisi2
 1822 18cc 033080E0 		add	r3, r0, r3
 1823 18d0 0030C4E5 		strb	r3, [r4, #0]
 1824 18d4 0030D5E5 		ldrb	r3, [r5, #0]	@ zero_extendqisi2
 1825 18d8 0020D4E5 		ldrb	r2, [r4, #0]	@ zero_extendqisi2
 1826 18dc 023083E0 		add	r3, r3, r2
 1827 18e0 0030C5E5 		strb	r3, [r5, #0]
 1828 18e4 FEFFFFEB 		bl	uart0_transmit
 1829 18e8 0100D7E5 		ldrb	r0, [r7, #1]	@ zero_extendqisi2
 1830 18ec 0030D4E5 		ldrb	r3, [r4, #0]	@ zero_extendqisi2
 1831 18f0 033080E0 		add	r3, r0, r3
 1832 18f4 0030C4E5 		strb	r3, [r4, #0]
 1833 18f8 0030D5E5 		ldrb	r3, [r5, #0]	@ zero_extendqisi2
 1834 18fc 0020D4E5 		ldrb	r2, [r4, #0]	@ zero_extendqisi2
 1835 1900 023083E0 		add	r3, r3, r2
 1836 1904 0030C5E5 		strb	r3, [r5, #0]
 1837 1908 FEFFFFEB 		bl	uart0_transmit
 1838 190c 0200D7E5 		ldrb	r0, [r7, #2]	@ zero_extendqisi2
 1839 1910 0030D4E5 		ldrb	r3, [r4, #0]	@ zero_extendqisi2
 1840 1914 033080E0 		add	r3, r0, r3
 1841 1918 0030C4E5 		strb	r3, [r4, #0]
 1842 191c 0030D5E5 		ldrb	r3, [r5, #0]	@ zero_extendqisi2
 1843 1920 0020D4E5 		ldrb	r2, [r4, #0]	@ zero_extendqisi2
 1844 1924 023083E0 		add	r3, r3, r2
 1845 1928 0030C5E5 		strb	r3, [r5, #0]
 1846 192c FEFFFFEB 		bl	uart0_transmit
 1847 1930 0300D7E5 		ldrb	r0, [r7, #3]	@ zero_extendqisi2
 1848 1934 0030D4E5 		ldrb	r3, [r4, #0]	@ zero_extendqisi2
 1849 1938 033080E0 		add	r3, r0, r3
 1850 193c 0030C4E5 		strb	r3, [r4, #0]
 1851 1940 0030D5E5 		ldrb	r3, [r5, #0]	@ zero_extendqisi2
 1852 1944 0020D4E5 		ldrb	r2, [r4, #0]	@ zero_extendqisi2
 1853 1948 023083E0 		add	r3, r3, r2
 1854 194c 0030C5E5 		strb	r3, [r5, #0]
 1855 1950 FEFFFFEB 		bl	uart0_transmit
 1856 1954 0000D4E5 		ldrb	r0, [r4, #0]	@ zero_extendqisi2
 1857 1958 FEFFFFEB 		bl	uart0_transmit
 1858 195c 0000D5E5 		ldrb	r0, [r5, #0]	@ zero_extendqisi2
 1859 1960 FEFFFFEB 		bl	uart0_transmit
 1860              	.L101:
 1861 1964 0030DAE5 		ldrb	r3, [sl, #0]	@ zero_extendqisi2
 1862 1968 0C0053E3 		cmp	r3, #12
 1863 196c 7A06001A 		bne	.L104
 1864 1970 08371FE5 		ldr	r3, .L265+200
 1865 1974 B030D3E1 		ldrh	r3, [r3, #0]
 1866 1978 000053E3 		cmp	r3, #0
 1867 197c 720A001A 		bne	.L108
 1868 1980 78371FE5 		ldr	r3, .L265+104
 1869 1984 0030D3E5 		ldrb	r3, [r3, #0]	@ zero_extendqisi2
 1870 1988 010053E3 		cmp	r3, #1
 1871 198c 720A001A 		bne	.L108
 1872 1990 0600A0E3 		mov	r0, #6
 1873 1994 FEFFFFEB 		bl	uart0_check_free_space
 1874 1998 FF0010E3 		tst	r0, #255
 1875 199c 6E0A000A 		beq	.L186
 1876 19a0 9900A0E3 		mov	r0, #153
 1877 19a4 FEFFFFEB 		bl	uart0_transmit
 1878 19a8 C8461FE5 		ldr	r4, .L265+320
 1879 19ac 0600A0E3 		mov	r0, #6
 1880 19b0 FEFFFFEB 		bl	uart0_transmit
 1881 19b4 D0561FE5 		ldr	r5, .L265+324
 1882 19b8 1430A0E3 		mov	r3, #20
 1883 19bc 0030C4E5 		strb	r3, [r4, #0]
 1884 19c0 063083E2 		add	r3, r3, #6
 1885 19c4 0E00A0E3 		mov	r0, #14
 1886 19c8 0030C5E5 		strb	r3, [r5, #0]
 1887 19cc FEFFFFEB 		bl	uart0_transmit
 1888 19d0 0030D4E5 		ldrb	r3, [r4, #0]	@ zero_extendqisi2
 1889 19d4 023083E2 		add	r3, r3, #2
 1890 19d8 0030C4E5 		strb	r3, [r4, #0]
 1891 19dc 0030D5E5 		ldrb	r3, [r5, #0]	@ zero_extendqisi2
 1892 19e0 0020D4E5 		ldrb	r2, [r4, #0]	@ zero_extendqisi2
 1893 19e4 0200A0E3 		mov	r0, #2
 1894 19e8 023083E0 		add	r3, r3, r2
 1895 19ec 670A00EA 		b	.L253
 1896              	.L104:
 1897 19f0 120053E3 		cmp	r3, #18
 1898 19f4 9D06001A 		bne	.L109
 1899 19f8 90371FE5 		ldr	r3, .L265+200
 1900 19fc B030D3E1 		ldrh	r3, [r3, #0]
 1901 1a00 000053E3 		cmp	r3, #0
 1902 1a04 720A001A 		bne	.L108
 1903 1a08 00381FE5 		ldr	r3, .L265+104
 1904 1a0c 0030D3E5 		ldrb	r3, [r3, #0]	@ zero_extendqisi2
 1905 1a10 020053E3 		cmp	r3, #2
 1906 1a14 720A001A 		bne	.L108
 1907 1a18 0800A0E3 		mov	r0, #8
 1908 1a1c FEFFFFEB 		bl	uart0_check_free_space
 1909 1a20 FF0010E3 		tst	r0, #255
 1910 1a24 6E0A000A 		beq	.L186
 1911 1a28 9900A0E3 		mov	r0, #153
 1912 1a2c FEFFFFEB 		bl	uart0_transmit
 1913 1a30 50471FE5 		ldr	r4, .L265+320
 1914 1a34 0800A0E3 		mov	r0, #8
 1915 1a38 FEFFFFEB 		bl	uart0_transmit
 1916 1a3c 58571FE5 		ldr	r5, .L265+324
 1917 1a40 1630A0E3 		mov	r3, #22
 1918 1a44 0030C4E5 		strb	r3, [r4, #0]
 1919 1a48 083083E2 		add	r3, r3, #8
 1920 1a4c 0E00A0E3 		mov	r0, #14
 1921 1a50 0030C5E5 		strb	r3, [r5, #0]
 1922 1a54 FEFFFFEB 		bl	uart0_transmit
 1923 1a58 0030D4E5 		ldrb	r3, [r4, #0]	@ zero_extendqisi2
 1924 1a5c 033083E2 		add	r3, r3, #3
 1925 1a60 0030C4E5 		strb	r3, [r4, #0]
 1926 1a64 0030D5E5 		ldrb	r3, [r5, #0]	@ zero_extendqisi2
 1927 1a68 0020D4E5 		ldrb	r2, [r4, #0]	@ zero_extendqisi2
 1928 1a6c 60681FE5 		ldr	r6, .L265+108
 1929 1a70 023083E0 		add	r3, r3, r2
 1930 1a74 0300A0E3 		mov	r0, #3
 1931 1a78 B40700EA 		b	.L261
 1932              	.L109:
 1933 1a7c 180053E3 		cmp	r3, #24
 1934 1a80 7007001A 		bne	.L114
 1935 1a84 1E00A0E3 		mov	r0, #30
 1936 1a88 FEFFFFEB 		bl	uart0_check_free_space
 1937 1a8c FF0010E3 		tst	r0, #255
 1938 1a90 80681FE5 		ldr	r6, .L265+112
 1939 1a94 80781FE5 		ldr	r7, .L265+116
 1940 1a98 6E0A000A 		beq	.L186
 1941 1a9c 9900A0E3 		mov	r0, #153
 1942 1aa0 C0471FE5 		ldr	r4, .L265+320
 1943 1aa4 FEFFFFEB 		bl	uart0_transmit
 1944 1aa8 1E00A0E3 		mov	r0, #30
 1945 1aac C8571FE5 		ldr	r5, .L265+324
 1946 1ab0 FEFFFFEB 		bl	uart0_transmit
 1947 1ab4 2C30A0E3 		mov	r3, #44
 1948 1ab8 0030C4E5 		strb	r3, [r4, #0]
 1949 1abc 1E3083E2 		add	r3, r3, #30
 1950 1ac0 0E00A0E3 		mov	r0, #14
 1951 1ac4 0030C5E5 		strb	r3, [r5, #0]
 1952 1ac8 FEFFFFEB 		bl	uart0_transmit
 1953 1acc 0030D4E5 		ldrb	r3, [r4, #0]	@ zero_extendqisi2
 1954 1ad0 103083E2 		add	r3, r3, #16
 1955 1ad4 0030C4E5 		strb	r3, [r4, #0]
 1956 1ad8 0030D5E5 		ldrb	r3, [r5, #0]	@ zero_extendqisi2
 1957 1adc 0020D4E5 		ldrb	r2, [r4, #0]	@ zero_extendqisi2
 1958 1ae0 023083E0 		add	r3, r3, r2
 1959 1ae4 1000A0E3 		mov	r0, #16
 1960 1ae8 0030C5E5 		strb	r3, [r5, #0]
 1961 1aec FEFFFFEB 		bl	uart0_transmit
 1962 1af0 0000D6E5 		ldrb	r0, [r6, #0]	@ zero_extendqisi2
 1963 1af4 0030D4E5 		ldrb	r3, [r4, #0]	@ zero_extendqisi2
 1964 1af8 033080E0 		add	r3, r0, r3
 1965 1afc 0030C4E5 		strb	r3, [r4, #0]
 1966 1b00 0030D5E5 		ldrb	r3, [r5, #0]	@ zero_extendqisi2
 1967 1b04 0020D4E5 		ldrb	r2, [r4, #0]	@ zero_extendqisi2
 1968 1b08 023083E0 		add	r3, r3, r2
 1969 1b0c 0030C5E5 		strb	r3, [r5, #0]
 1970 1b10 FEFFFFEB 		bl	uart0_transmit
 1971 1b14 0100D6E5 		ldrb	r0, [r6, #1]	@ zero_extendqisi2
 1972 1b18 0030D4E5 		ldrb	r3, [r4, #0]	@ zero_extendqisi2
 1973 1b1c 033080E0 		add	r3, r0, r3
 1974 1b20 0030C4E5 		strb	r3, [r4, #0]
 1975 1b24 0030D5E5 		ldrb	r3, [r5, #0]	@ zero_extendqisi2
 1976 1b28 0020D4E5 		ldrb	r2, [r4, #0]	@ zero_extendqisi2
 1977 1b2c 023083E0 		add	r3, r3, r2
 1978 1b30 0030C5E5 		strb	r3, [r5, #0]
 1979 1b34 FEFFFFEB 		bl	uart0_transmit
 1980 1b38 0200D6E5 		ldrb	r0, [r6, #2]	@ zero_extendqisi2
 1981 1b3c 0030D4E5 		ldrb	r3, [r4, #0]	@ zero_extendqisi2
 1982 1b40 033080E0 		add	r3, r0, r3
 1983 1b44 0030C4E5 		strb	r3, [r4, #0]
 1984 1b48 0030D5E5 		ldrb	r3, [r5, #0]	@ zero_extendqisi2
 1985 1b4c 0020D4E5 		ldrb	r2, [r4, #0]	@ zero_extendqisi2
 1986 1b50 023083E0 		add	r3, r3, r2
 1987 1b54 0030C5E5 		strb	r3, [r5, #0]
 1988 1b58 FEFFFFEB 		bl	uart0_transmit
 1989 1b5c 0300D6E5 		ldrb	r0, [r6, #3]	@ zero_extendqisi2
 1990 1b60 0030D4E5 		ldrb	r3, [r4, #0]	@ zero_extendqisi2
 1991 1b64 033080E0 		add	r3, r0, r3
 1992 1b68 0030C4E5 		strb	r3, [r4, #0]
 1993 1b6c 0030D5E5 		ldrb	r3, [r5, #0]	@ zero_extendqisi2
 1994 1b70 0020D4E5 		ldrb	r2, [r4, #0]	@ zero_extendqisi2
 1995 1b74 023083E0 		add	r3, r3, r2
 1996 1b78 0030C5E5 		strb	r3, [r5, #0]
 1997 1b7c FEFFFFEB 		bl	uart0_transmit
 1998 1b80 0000D7E5 		ldrb	r0, [r7, #0]	@ zero_extendqisi2
 1999 1b84 0030D4E5 		ldrb	r3, [r4, #0]	@ zero_extendqisi2
 2000 1b88 033080E0 		add	r3, r0, r3
 2001 1b8c 0030C4E5 		strb	r3, [r4, #0]
 2002 1b90 0030D5E5 		ldrb	r3, [r5, #0]	@ zero_extendqisi2
 2003 1b94 0020D4E5 		ldrb	r2, [r4, #0]	@ zero_extendqisi2
 2004 1b98 023083E0 		add	r3, r3, r2
 2005 1b9c 0030C5E5 		strb	r3, [r5, #0]
 2006 1ba0 FEFFFFEB 		bl	uart0_transmit
 2007 1ba4 0100D7E5 		ldrb	r0, [r7, #1]	@ zero_extendqisi2
 2008 1ba8 0030D4E5 		ldrb	r3, [r4, #0]	@ zero_extendqisi2
 2009 1bac 033080E0 		add	r3, r0, r3
 2010 1bb0 0030C4E5 		strb	r3, [r4, #0]
 2011 1bb4 0030D5E5 		ldrb	r3, [r5, #0]	@ zero_extendqisi2
 2012 1bb8 0020D4E5 		ldrb	r2, [r4, #0]	@ zero_extendqisi2
 2013 1bbc 023083E0 		add	r3, r3, r2
 2014 1bc0 0030C5E5 		strb	r3, [r5, #0]
 2015 1bc4 FEFFFFEB 		bl	uart0_transmit
 2016 1bc8 0200D7E5 		ldrb	r0, [r7, #2]	@ zero_extendqisi2
 2017 1bcc 0030D4E5 		ldrb	r3, [r4, #0]	@ zero_extendqisi2
 2018 1bd0 033080E0 		add	r3, r0, r3
 2019 1bd4 0030C4E5 		strb	r3, [r4, #0]
 2020 1bd8 0030D5E5 		ldrb	r3, [r5, #0]	@ zero_extendqisi2
 2021 1bdc 0020D4E5 		ldrb	r2, [r4, #0]	@ zero_extendqisi2
 2022 1be0 023083E0 		add	r3, r3, r2
 2023 1be4 0030C5E5 		strb	r3, [r5, #0]
 2024 1be8 FEFFFFEB 		bl	uart0_transmit
 2025 1bec 0300D7E5 		ldrb	r0, [r7, #3]	@ zero_extendqisi2
 2026 1bf0 0030D4E5 		ldrb	r3, [r4, #0]	@ zero_extendqisi2
 2027 1bf4 033080E0 		add	r3, r0, r3
 2028 1bf8 0030C4E5 		strb	r3, [r4, #0]
 2029 1bfc 0030D5E5 		ldrb	r3, [r5, #0]	@ zero_extendqisi2
 2030 1c00 0020D4E5 		ldrb	r2, [r4, #0]	@ zero_extendqisi2
 2031 1c04 EC691FE5 		ldr	r6, .L265+120
 2032 1c08 023083E0 		add	r3, r3, r2
 2033 1c0c 0030C5E5 		strb	r3, [r5, #0]
 2034 1c10 FEFFFFEB 		bl	uart0_transmit
 2035 1c14 0000D6E5 		ldrb	r0, [r6, #0]	@ zero_extendqisi2
 2036 1c18 0030D4E5 		ldrb	r3, [r4, #0]	@ zero_extendqisi2
 2037 1c1c 033080E0 		add	r3, r0, r3
 2038 1c20 0030C4E5 		strb	r3, [r4, #0]
 2039 1c24 0030D5E5 		ldrb	r3, [r5, #0]	@ zero_extendqisi2
 2040 1c28 0020D4E5 		ldrb	r2, [r4, #0]	@ zero_extendqisi2
 2041 1c2c 023083E0 		add	r3, r3, r2
 2042 1c30 0030C5E5 		strb	r3, [r5, #0]
 2043 1c34 FEFFFFEB 		bl	uart0_transmit
 2044 1c38 0100D6E5 		ldrb	r0, [r6, #1]	@ zero_extendqisi2
 2045 1c3c 0030D4E5 		ldrb	r3, [r4, #0]	@ zero_extendqisi2
 2046 1c40 033080E0 		add	r3, r0, r3
 2047 1c44 0030C4E5 		strb	r3, [r4, #0]
 2048 1c48 0030D5E5 		ldrb	r3, [r5, #0]	@ zero_extendqisi2
 2049 1c4c 0020D4E5 		ldrb	r2, [r4, #0]	@ zero_extendqisi2
 2050 1c50 023083E0 		add	r3, r3, r2
 2051 1c54 0030C5E5 		strb	r3, [r5, #0]
 2052 1c58 FEFFFFEB 		bl	uart0_transmit
 2053 1c5c 0200D6E5 		ldrb	r0, [r6, #2]	@ zero_extendqisi2
 2054 1c60 0030D4E5 		ldrb	r3, [r4, #0]	@ zero_extendqisi2
 2055 1c64 033080E0 		add	r3, r0, r3
 2056 1c68 0030C4E5 		strb	r3, [r4, #0]
 2057 1c6c 0030D5E5 		ldrb	r3, [r5, #0]	@ zero_extendqisi2
 2058 1c70 0020D4E5 		ldrb	r2, [r4, #0]	@ zero_extendqisi2
 2059 1c74 023083E0 		add	r3, r3, r2
 2060 1c78 0030C5E5 		strb	r3, [r5, #0]
 2061 1c7c FEFFFFEB 		bl	uart0_transmit
 2062 1c80 0300D6E5 		ldrb	r0, [r6, #3]	@ zero_extendqisi2
 2063 1c84 0030D4E5 		ldrb	r3, [r4, #0]	@ zero_extendqisi2
 2064 1c88 033080E0 		add	r3, r0, r3
 2065 1c8c 0030C4E5 		strb	r3, [r4, #0]
 2066 1c90 0030D5E5 		ldrb	r3, [r5, #0]	@ zero_extendqisi2
 2067 1c94 0020D4E5 		ldrb	r2, [r4, #0]	@ zero_extendqisi2
 2068 1c98 7C6A1FE5 		ldr	r6, .L265+124
 2069 1c9c 023083E0 		add	r3, r3, r2
 2070 1ca0 0030C5E5 		strb	r3, [r5, #0]
 2071 1ca4 FEFFFFEB 		bl	uart0_transmit
 2072 1ca8 0000D6E5 		ldrb	r0, [r6, #0]	@ zero_extendqisi2
 2073 1cac 0030D4E5 		ldrb	r3, [r4, #0]	@ zero_extendqisi2
 2074 1cb0 033080E0 		add	r3, r0, r3
 2075 1cb4 0030C4E5 		strb	r3, [r4, #0]
 2076 1cb8 0030D5E5 		ldrb	r3, [r5, #0]	@ zero_extendqisi2
 2077 1cbc 0020D4E5 		ldrb	r2, [r4, #0]	@ zero_extendqisi2
 2078 1cc0 023083E0 		add	r3, r3, r2
 2079 1cc4 0030C5E5 		strb	r3, [r5, #0]
 2080 1cc8 FEFFFFEB 		bl	uart0_transmit
 2081 1ccc 0100D6E5 		ldrb	r0, [r6, #1]	@ zero_extendqisi2
 2082 1cd0 0030D4E5 		ldrb	r3, [r4, #0]	@ zero_extendqisi2
 2083 1cd4 033080E0 		add	r3, r0, r3
 2084 1cd8 0030C4E5 		strb	r3, [r4, #0]
 2085 1cdc 0030D5E5 		ldrb	r3, [r5, #0]	@ zero_extendqisi2
 2086 1ce0 0020D4E5 		ldrb	r2, [r4, #0]	@ zero_extendqisi2
 2087 1ce4 023083E0 		add	r3, r3, r2
 2088 1ce8 0030C5E5 		strb	r3, [r5, #0]
 2089 1cec FEFFFFEB 		bl	uart0_transmit
 2090 1cf0 0200D6E5 		ldrb	r0, [r6, #2]	@ zero_extendqisi2
 2091 1cf4 0030D4E5 		ldrb	r3, [r4, #0]	@ zero_extendqisi2
 2092 1cf8 033080E0 		add	r3, r0, r3
 2093 1cfc 0030C4E5 		strb	r3, [r4, #0]
 2094 1d00 0030D5E5 		ldrb	r3, [r5, #0]	@ zero_extendqisi2
 2095 1d04 0020D4E5 		ldrb	r2, [r4, #0]	@ zero_extendqisi2
 2096 1d08 023083E0 		add	r3, r3, r2
 2097 1d0c 0030C5E5 		strb	r3, [r5, #0]
 2098 1d10 FEFFFFEB 		bl	uart0_transmit
 2099 1d14 0300D6E5 		ldrb	r0, [r6, #3]	@ zero_extendqisi2
 2100 1d18 0030D4E5 		ldrb	r3, [r4, #0]	@ zero_extendqisi2
 2101 1d1c 033080E0 		add	r3, r0, r3
 2102 1d20 0030C4E5 		strb	r3, [r4, #0]
 2103 1d24 0030D5E5 		ldrb	r3, [r5, #0]	@ zero_extendqisi2
 2104 1d28 0020D4E5 		ldrb	r2, [r4, #0]	@ zero_extendqisi2
 2105 1d2c 0C6B1FE5 		ldr	r6, .L265+128
 2106 1d30 023083E0 		add	r3, r3, r2
 2107 1d34 0030C5E5 		strb	r3, [r5, #0]
 2108 1d38 FEFFFFEB 		bl	uart0_transmit
 2109 1d3c 0000D6E5 		ldrb	r0, [r6, #0]	@ zero_extendqisi2
 2110 1d40 0030D4E5 		ldrb	r3, [r4, #0]	@ zero_extendqisi2
 2111 1d44 033080E0 		add	r3, r0, r3
 2112 1d48 0030C4E5 		strb	r3, [r4, #0]
 2113 1d4c 0030D5E5 		ldrb	r3, [r5, #0]	@ zero_extendqisi2
 2114 1d50 0020D4E5 		ldrb	r2, [r4, #0]	@ zero_extendqisi2
 2115 1d54 023083E0 		add	r3, r3, r2
 2116 1d58 0030C5E5 		strb	r3, [r5, #0]
 2117 1d5c FEFFFFEB 		bl	uart0_transmit
 2118 1d60 0100D6E5 		ldrb	r0, [r6, #1]	@ zero_extendqisi2
 2119 1d64 0030D4E5 		ldrb	r3, [r4, #0]	@ zero_extendqisi2
 2120 1d68 033080E0 		add	r3, r0, r3
 2121 1d6c 0030C4E5 		strb	r3, [r4, #0]
 2122 1d70 0030D5E5 		ldrb	r3, [r5, #0]	@ zero_extendqisi2
 2123 1d74 0020D4E5 		ldrb	r2, [r4, #0]	@ zero_extendqisi2
 2124 1d78 023083E0 		add	r3, r3, r2
 2125 1d7c 0030C5E5 		strb	r3, [r5, #0]
 2126 1d80 FEFFFFEB 		bl	uart0_transmit
 2127 1d84 0200D6E5 		ldrb	r0, [r6, #2]	@ zero_extendqisi2
 2128 1d88 0030D4E5 		ldrb	r3, [r4, #0]	@ zero_extendqisi2
 2129 1d8c 033080E0 		add	r3, r0, r3
 2130 1d90 0030C4E5 		strb	r3, [r4, #0]
 2131 1d94 0030D5E5 		ldrb	r3, [r5, #0]	@ zero_extendqisi2
 2132 1d98 0020D4E5 		ldrb	r2, [r4, #0]	@ zero_extendqisi2
 2133 1d9c 023083E0 		add	r3, r3, r2
 2134 1da0 0030C5E5 		strb	r3, [r5, #0]
 2135 1da4 FEFFFFEB 		bl	uart0_transmit
 2136 1da8 0300D6E5 		ldrb	r0, [r6, #3]	@ zero_extendqisi2
 2137 1dac 0030D4E5 		ldrb	r3, [r4, #0]	@ zero_extendqisi2
 2138 1db0 033080E0 		add	r3, r0, r3
 2139 1db4 0030C4E5 		strb	r3, [r4, #0]
 2140 1db8 946B1FE5 		ldr	r6, .L265+132
 2141 1dbc 0030D5E5 		ldrb	r3, [r5, #0]	@ zero_extendqisi2
 2142 1dc0 0020D4E5 		ldrb	r2, [r4, #0]	@ zero_extendqisi2
 2143 1dc4 420A00EA 		b	.L262
 2144              	.L114:
 2145 1dc8 1E0053E3 		cmp	r3, #30
 2146 1dcc C107001A 		bne	.L118
 2147 1dd0 A83B1FE5 		ldr	r3, .L265+136
 2148 1dd4 0030D3E5 		ldrb	r3, [r3, #0]	@ zero_extendqisi2
 2149 1dd8 000053E3 		cmp	r3, #0
 2150 1ddc 720A000A 		beq	.L108
 2151 1de0 0C00A0E3 		mov	r0, #12
 2152 1de4 FEFFFFEB 		bl	uart0_check_free_space
 2153 1de8 FF0010E3 		tst	r0, #255
 2154 1dec 6E0A000A 		beq	.L186
 2155 1df0 9900A0E3 		mov	r0, #153
 2156 1df4 144B1FE5 		ldr	r4, .L265+320
 2157 1df8 FEFFFFEB 		bl	uart0_transmit
 2158 1dfc 0C00A0E3 		mov	r0, #12
 2159 1e00 1C5B1FE5 		ldr	r5, .L265+324
 2160 1e04 FEFFFFEB 		bl	uart0_transmit
 2161 1e08 1A30A0E3 		mov	r3, #26
 2162 1e0c 0030C4E5 		strb	r3, [r4, #0]
 2163 1e10 0C3083E2 		add	r3, r3, #12
 2164 1e14 0E00A0E3 		mov	r0, #14
 2165 1e18 0030C5E5 		strb	r3, [r5, #0]
 2166 1e1c FEFFFFEB 		bl	uart0_transmit
 2167 1e20 0030D4E5 		ldrb	r3, [r4, #0]	@ zero_extendqisi2
 2168 1e24 153083E2 		add	r3, r3, #21
 2169 1e28 0030C4E5 		strb	r3, [r4, #0]
 2170 1e2c 0030D5E5 		ldrb	r3, [r5, #0]	@ zero_extendqisi2
 2171 1e30 0020D4E5 		ldrb	r2, [r4, #0]	@ zero_extendqisi2
 2172 1e34 086C1FE5 		ldr	r6, .L265+140
 2173 1e38 023083E0 		add	r3, r3, r2
 2174 1e3c 1500A0E3 		mov	r0, #21
 2175 1e40 0030C5E5 		strb	r3, [r5, #0]
 2176 1e44 FEFFFFEB 		bl	uart0_transmit
 2177 1e48 0000D6E5 		ldrb	r0, [r6, #0]	@ zero_extendqisi2
 2178 1e4c 0030D4E5 		ldrb	r3, [r4, #0]	@ zero_extendqisi2
 2179 1e50 033080E0 		add	r3, r0, r3
 2180 1e54 0030C4E5 		strb	r3, [r4, #0]
 2181 1e58 0030D5E5 		ldrb	r3, [r5, #0]	@ zero_extendqisi2
 2182 1e5c 0020D4E5 		ldrb	r2, [r4, #0]	@ zero_extendqisi2
 2183 1e60 023083E0 		add	r3, r3, r2
 2184 1e64 0030C5E5 		strb	r3, [r5, #0]
 2185 1e68 FEFFFFEB 		bl	uart0_transmit
 2186 1e6c 0100D6E5 		ldrb	r0, [r6, #1]	@ zero_extendqisi2
 2187 1e70 0030D4E5 		ldrb	r3, [r4, #0]	@ zero_extendqisi2
 2188 1e74 033080E0 		add	r3, r0, r3
 2189 1e78 0030C4E5 		strb	r3, [r4, #0]
 2190 1e7c 0030D5E5 		ldrb	r3, [r5, #0]	@ zero_extendqisi2
 2191 1e80 0020D4E5 		ldrb	r2, [r4, #0]	@ zero_extendqisi2
 2192 1e84 546C1FE5 		ldr	r6, .L265+144
 2193 1e88 023083E0 		add	r3, r3, r2
 2194 1e8c 0030C5E5 		strb	r3, [r5, #0]
 2195 1e90 FEFFFFEB 		bl	uart0_transmit
 2196 1e94 0000D6E5 		ldrb	r0, [r6, #0]	@ zero_extendqisi2
 2197 1e98 0030D4E5 		ldrb	r3, [r4, #0]	@ zero_extendqisi2
 2198 1e9c 033080E0 		add	r3, r0, r3
 2199 1ea0 0030C4E5 		strb	r3, [r4, #0]
 2200 1ea4 0030D5E5 		ldrb	r3, [r5, #0]	@ zero_extendqisi2
 2201 1ea8 0020D4E5 		ldrb	r2, [r4, #0]	@ zero_extendqisi2
 2202 1eac 023083E0 		add	r3, r3, r2
 2203 1eb0 0030C5E5 		strb	r3, [r5, #0]
 2204 1eb4 FEFFFFEB 		bl	uart0_transmit
 2205 1eb8 0100D6E5 		ldrb	r0, [r6, #1]	@ zero_extendqisi2
 2206 1ebc 0030D4E5 		ldrb	r3, [r4, #0]	@ zero_extendqisi2
 2207 1ec0 033080E0 		add	r3, r0, r3
 2208 1ec4 0030C4E5 		strb	r3, [r4, #0]
 2209 1ec8 946C1FE5 		ldr	r6, .L265+148
 2210 1ecc 0030D5E5 		ldrb	r3, [r5, #0]	@ zero_extendqisi2
 2211 1ed0 0020D4E5 		ldrb	r2, [r4, #0]	@ zero_extendqisi2
 2212              	.L263:
 2213 1ed4 023083E0 		add	r3, r3, r2
 2214              	.L261:
 2215 1ed8 0030C5E5 		strb	r3, [r5, #0]
 2216 1edc FEFFFFEB 		bl	uart0_transmit
 2217 1ee0 0000D6E5 		ldrb	r0, [r6, #0]	@ zero_extendqisi2
 2218 1ee4 0030D4E5 		ldrb	r3, [r4, #0]	@ zero_extendqisi2
 2219 1ee8 033080E0 		add	r3, r0, r3
 2220 1eec 0030C4E5 		strb	r3, [r4, #0]
 2221 1ef0 0030D5E5 		ldrb	r3, [r5, #0]	@ zero_extendqisi2
 2222 1ef4 0020D4E5 		ldrb	r2, [r4, #0]	@ zero_extendqisi2
 2223 1ef8 023083E0 		add	r3, r3, r2
 2224 1efc 0030C5E5 		strb	r3, [r5, #0]
 2225 1f00 FEFFFFEB 		bl	uart0_transmit
 2226 1f04 0100D6E5 		ldrb	r0, [r6, #1]	@ zero_extendqisi2
 2227 1f08 610A00EA 		b	.L251
 2228              	.L118:
 2229 1f0c 240053E3 		cmp	r3, #36
 2230 1f10 1908001A 		bne	.L123
 2231 1f14 DC3C1FE5 		ldr	r3, .L265+152
 2232 1f18 0030D3E5 		ldrb	r3, [r3, #0]	@ zero_extendqisi2
 2233 1f1c 000053E3 		cmp	r3, #0
 2234 1f20 720A000A 		beq	.L108
 2235 1f24 0E00A0E3 		mov	r0, #14
 2236 1f28 FEFFFFEB 		bl	uart0_check_free_space
 2237 1f2c FF0010E3 		tst	r0, #255
 2238 1f30 6E0A000A 		beq	.L186
 2239 1f34 0E60A0E3 		mov	r6, #14
 2240 1f38 9900A0E3 		mov	r0, #153
 2241 1f3c 5C4C1FE5 		ldr	r4, .L265+320
 2242 1f40 FEFFFFEB 		bl	uart0_transmit
 2243 1f44 0600A0E1 		mov	r0, r6
 2244 1f48 645C1FE5 		ldr	r5, .L265+324
 2245 1f4c FEFFFFEB 		bl	uart0_transmit
 2246 1f50 1C30A0E3 		mov	r3, #28
 2247 1f54 0030C4E5 		strb	r3, [r4, #0]
 2248 1f58 063083E0 		add	r3, r3, r6
 2249 1f5c 0600A0E1 		mov	r0, r6
 2250 1f60 0030C5E5 		strb	r3, [r5, #0]
 2251 1f64 FEFFFFEB 		bl	uart0_transmit
 2252 1f68 0030D4E5 		ldrb	r3, [r4, #0]	@ zero_extendqisi2
 2253 1f6c 163083E2 		add	r3, r3, #22
 2254 1f70 0030C4E5 		strb	r3, [r4, #0]
 2255 1f74 0030D5E5 		ldrb	r3, [r5, #0]	@ zero_extendqisi2
 2256 1f78 0020D4E5 		ldrb	r2, [r4, #0]	@ zero_extendqisi2
 2257 1f7c 406D1FE5 		ldr	r6, .L265+156
 2258 1f80 023083E0 		add	r3, r3, r2
 2259 1f84 1600A0E3 		mov	r0, #22
 2260 1f88 0030C5E5 		strb	r3, [r5, #0]
 2261 1f8c FEFFFFEB 		bl	uart0_transmit
 2262 1f90 0000D6E5 		ldrb	r0, [r6, #0]	@ zero_extendqisi2
 2263 1f94 0030D4E5 		ldrb	r3, [r4, #0]	@ zero_extendqisi2
 2264 1f98 033080E0 		add	r3, r0, r3
 2265 1f9c 0030C4E5 		strb	r3, [r4, #0]
 2266 1fa0 0030D5E5 		ldrb	r3, [r5, #0]	@ zero_extendqisi2
 2267 1fa4 0020D4E5 		ldrb	r2, [r4, #0]	@ zero_extendqisi2
 2268 1fa8 023083E0 		add	r3, r3, r2
 2269 1fac 0030C5E5 		strb	r3, [r5, #0]
 2270 1fb0 FEFFFFEB 		bl	uart0_transmit
 2271 1fb4 0100D6E5 		ldrb	r0, [r6, #1]	@ zero_extendqisi2
 2272 1fb8 0030D4E5 		ldrb	r3, [r4, #0]	@ zero_extendqisi2
 2273 1fbc 033080E0 		add	r3, r0, r3
 2274 1fc0 0030C4E5 		strb	r3, [r4, #0]
 2275 1fc4 0030D5E5 		ldrb	r3, [r5, #0]	@ zero_extendqisi2
 2276 1fc8 0020D4E5 		ldrb	r2, [r4, #0]	@ zero_extendqisi2
 2277 1fcc 8C6D1FE5 		ldr	r6, .L265+160
 2278 1fd0 023083E0 		add	r3, r3, r2
 2279 1fd4 0030C5E5 		strb	r3, [r5, #0]
 2280 1fd8 FEFFFFEB 		bl	uart0_transmit
 2281 1fdc 0000D6E5 		ldrb	r0, [r6, #0]	@ zero_extendqisi2
 2282 1fe0 0030D4E5 		ldrb	r3, [r4, #0]	@ zero_extendqisi2
 2283 1fe4 033080E0 		add	r3, r0, r3
 2284 1fe8 0030C4E5 		strb	r3, [r4, #0]
 2285 1fec 0030D5E5 		ldrb	r3, [r5, #0]	@ zero_extendqisi2
 2286 1ff0 0020D4E5 		ldrb	r2, [r4, #0]	@ zero_extendqisi2
 2287 1ff4 023083E0 		add	r3, r3, r2
 2288 1ff8 0030C5E5 		strb	r3, [r5, #0]
 2289 1ffc FEFFFFEB 		bl	uart0_transmit
 2290 2000 0100D6E5 		ldrb	r0, [r6, #1]	@ zero_extendqisi2
 2291 2004 0030D4E5 		ldrb	r3, [r4, #0]	@ zero_extendqisi2
 2292 2008 033080E0 		add	r3, r0, r3
 2293 200c 0030C4E5 		strb	r3, [r4, #0]
 2294 2010 0030D5E5 		ldrb	r3, [r5, #0]	@ zero_extendqisi2
 2295 2014 0020D4E5 		ldrb	r2, [r4, #0]	@ zero_extendqisi2
 2296 2018 D46D1FE5 		ldr	r6, .L265+164
 2297 201c 023083E0 		add	r3, r3, r2
 2298 2020 0030C5E5 		strb	r3, [r5, #0]
 2299 2024 FEFFFFEB 		bl	uart0_transmit
 2300 2028 0000D6E5 		ldrb	r0, [r6, #0]	@ zero_extendqisi2
 2301 202c 0030D4E5 		ldrb	r3, [r4, #0]	@ zero_extendqisi2
 2302 2030 033080E0 		add	r3, r0, r3
 2303 2034 0030C4E5 		strb	r3, [r4, #0]
 2304 2038 0030D5E5 		ldrb	r3, [r5, #0]	@ zero_extendqisi2
 2305 203c 0020D4E5 		ldrb	r2, [r4, #0]	@ zero_extendqisi2
 2306 2040 023083E0 		add	r3, r3, r2
 2307 2044 0030C5E5 		strb	r3, [r5, #0]
 2308 2048 FEFFFFEB 		bl	uart0_transmit
 2309 204c 0100D6E5 		ldrb	r0, [r6, #1]	@ zero_extendqisi2
 2310 2050 0030D4E5 		ldrb	r3, [r4, #0]	@ zero_extendqisi2
 2311 2054 033080E0 		add	r3, r0, r3
 2312 2058 0030C4E5 		strb	r3, [r4, #0]
 2313 205c 146E1FE5 		ldr	r6, .L265+168
 2314 2060 0030D5E5 		ldrb	r3, [r5, #0]	@ zero_extendqisi2
 2315 2064 0020D4E5 		ldrb	r2, [r4, #0]	@ zero_extendqisi2
 2316 2068 B30700EA 		b	.L263
 2317              	.L123:
 2318 206c 2A0053E3 		cmp	r3, #42
 2319 2070 E808001A 		bne	.L128
 2320 2074 286E1FE5 		ldr	r6, .L265+172
 2321 2078 0030D6E5 		ldrb	r3, [r6, #0]	@ zero_extendqisi2
 2322 207c 200053E3 		cmp	r3, #32
 2323 2080 0030A083 		movhi	r3, #0
 2324 2084 0030C685 		strhib	r3, [r6, #0]
 2325 2088 0030D6E5 		ldrb	r3, [r6, #0]	@ zero_extendqisi2
 2326 208c 200053E3 		cmp	r3, #32
 2327 2090 03F19F97 		ldrls	pc, [pc, r3, asl #2]
 2328 2094 960800EA 		b	.L172
 2329              		.p2align 2
 2330              	.L173:
 2331 2098 1C210000 		.word	.L131
 2332 209c 24210000 		.word	.L132
 2333 20a0 2C210000 		.word	.L134
 2334 20a4 38210000 		.word	.L135
 2335 20a8 40210000 		.word	.L136
 2336 20ac 48210000 		.word	.L138
 2337 20b0 50210000 		.word	.L140
 2338 20b4 70210000 		.word	.L142
 2339 20b8 78210000 		.word	.L144
 2340 20bc 80210000 		.word	.L146
 2341 20c0 88210000 		.word	.L147
 2342 20c4 90210000 		.word	.L148
 2343 20c8 98210000 		.word	.L149
 2344 20cc A0210000 		.word	.L150
 2345 20d0 A8210000 		.word	.L151
 2346 20d4 B0210000 		.word	.L152
 2347 20d8 B8210000 		.word	.L154
 2348 20dc E0210000 		.word	.L156
 2349 20e0 E8210000 		.word	.L157
 2350 20e4 F0210000 		.word	.L158
 2351 20e8 F8210000 		.word	.L159
 2352 20ec 00220000 		.word	.L160
 2353 20f0 08220000 		.word	.L161
 2354 20f4 10220000 		.word	.L162
 2355 20f8 18220000 		.word	.L163
 2356 20fc 20220000 		.word	.L164
 2357 2100 28220000 		.word	.L165
 2358 2104 30220000 		.word	.L166
 2359 2108 38220000 		.word	.L167
 2360 210c 40220000 		.word	.L168
 2361 2110 48220000 		.word	.L169
 2362 2114 50220000 		.word	.L170
 2363 2118 58220000 		.word	.L171
 2364              	.L131:
 2365 211c CC3E1FE5 		ldr	r3, .L265+176
 2366 2120 4A0800EA 		b	.L260
 2367              	.L132:
 2368 2124 D03E1FE5 		ldr	r3, .L265+180
 2369 2128 6D0800EA 		b	.L264
 2370              	.L134:
 2371 212c D43E1FE5 		ldr	r3, .L265+184
 2372              	.L260:
 2373 2130 003093E5 		ldr	r3, [r3, #0]	@ float
 2374 2134 970800EA 		b	.L250
 2375              	.L135:
 2376 2138 DC3E1FE5 		ldr	r3, .L265+188
 2377 213c 4A0800EA 		b	.L260
 2378              	.L136:
 2379 2140 E03E1FE5 		ldr	r3, .L265+192
 2380 2144 6D0800EA 		b	.L264
 2381              	.L138:
 2382 2148 E43E1FE5 		ldr	r3, .L265+196
 2383 214c 6D0800EA 		b	.L264
 2384              	.L140:
 2385 2150 E83E1FE5 		ldr	r3, .L265+200
 2386 2154 F040D3E1 		ldrsh	r4, [r3, #0]
 2387 2158 0400A0E1 		mov	r0, r4
 2388 215c FEFFFFEB 		bl	__floatsisf
 2389 2160 000054E3 		cmp	r4, #0
 2390 2164 F81E1FB5 		ldrlt	r1, .L265+204
 2391 2168 730800BA 		blt	.L259
 2392 216c 740800EA 		b	.L155
 2393              	.L142:
 2394 2170 003F1FE5 		ldr	r3, .L265+208
 2395 2174 6D0800EA 		b	.L264
 2396              	.L144:
 2397 2178 043F1FE5 		ldr	r3, .L265+212
 2398 217c 6D0800EA 		b	.L264
 2399              	.L146:
 2400 2180 083F1FE5 		ldr	r3, .L265+216
 2401 2184 4A0800EA 		b	.L260
 2402              	.L147:
 2403 2188 0C3F1FE5 		ldr	r3, .L265+220
 2404 218c 4A0800EA 		b	.L260
 2405              	.L148:
 2406 2190 103F1FE5 		ldr	r3, .L265+224
 2407 2194 4A0800EA 		b	.L260
 2408              	.L149:
 2409 2198 143F1FE5 		ldr	r3, .L265+228
 2410 219c 4A0800EA 		b	.L260
 2411              	.L150:
 2412 21a0 183F1FE5 		ldr	r3, .L265+232
 2413 21a4 4A0800EA 		b	.L260
 2414              	.L151:
 2415 21a8 1C3F1FE5 		ldr	r3, .L265+236
 2416 21ac 4A0800EA 		b	.L260
 2417              	.L152:
 2418 21b0 203F1FE5 		ldr	r3, .L265+240
 2419 21b4 6D0800EA 		b	.L264
 2420              	.L154:
 2421 21b8 243F1FE5 		ldr	r3, .L265+244
 2422              	.L264:
 2423 21bc D040D3E1 		ldrsb	r4, [r3, #0]
 2424 21c0 0400A0E1 		mov	r0, r4
 2425 21c4 FEFFFFEB 		bl	__floatsisf
 2426 21c8 000054E3 		cmp	r4, #0
 2427 21cc 740800AA 		bge	.L155
 2428 21d0 381F1FE5 		ldr	r1, .L265+248
 2429              	.L259:
 2430 21d4 FEFFFFEB 		bl	__addsf3
 2431              	.L155:
 2432 21d8 44000BE5 		str	r0, [fp, #-68]	@ float
 2433 21dc 980800EA 		b	.L130
 2434              	.L156:
 2435 21e0 443F1FE5 		ldr	r3, .L265+252
 2436 21e4 4A0800EA 		b	.L260
 2437              	.L157:
 2438 21e8 483F1FE5 		ldr	r3, .L265+256
 2439 21ec 4A0800EA 		b	.L260
 2440              	.L158:
 2441 21f0 4C3F1FE5 		ldr	r3, .L265+260
 2442 21f4 4A0800EA 		b	.L260
 2443              	.L159:
 2444 21f8 503F1FE5 		ldr	r3, .L265+264
 2445 21fc 4A0800EA 		b	.L260
 2446              	.L160:
 2447 2200 543F1FE5 		ldr	r3, .L265+268
 2448 2204 4A0800EA 		b	.L260
 2449              	.L161:
 2450 2208 583F1FE5 		ldr	r3, .L265+272
 2451 220c 4A0800EA 		b	.L260
 2452              	.L162:
 2453 2210 5C3F1FE5 		ldr	r3, .L265+276
 2454 2214 4A0800EA 		b	.L260
 2455              	.L163:
 2456 2218 603F1FE5 		ldr	r3, .L265+280
 2457 221c 4A0800EA 		b	.L260
 2458              	.L164:
 2459 2220 643F1FE5 		ldr	r3, .L265+284
 2460 2224 4A0800EA 		b	.L260
 2461              	.L165:
 2462 2228 683F1FE5 		ldr	r3, .L265+288
 2463 222c 4A0800EA 		b	.L260
 2464              	.L166:
 2465 2230 6C3F1FE5 		ldr	r3, .L265+292
 2466 2234 4A0800EA 		b	.L260
 2467              	.L167:
 2468 2238 703F1FE5 		ldr	r3, .L265+296
 2469 223c 4A0800EA 		b	.L260
 2470              	.L168:
 2471 2240 743F1FE5 		ldr	r3, .L265+300
 2472 2244 4A0800EA 		b	.L260
 2473              	.L169:
 2474 2248 783F1FE5 		ldr	r3, .L265+304
 2475 224c 4A0800EA 		b	.L260
 2476              	.L170:
 2477 2250 7C3F1FE5 		ldr	r3, .L265+308
 2478 2254 4A0800EA 		b	.L260
 2479              	.L171:
 2480 2258 803F1FE5 		ldr	r3, .L265+312
 2481 225c 4A0800EA 		b	.L260
 2482              	.L172:
 2483 2260 0030A0E3 		mov	r3, #0
 2484              	.L250:
 2485 2264 44300BE5 		str	r3, [fp, #-68]	@ float
 2486              	.L130:
 2487 2268 0B00A0E3 		mov	r0, #11
 2488 226c FEFFFFEB 		bl	uart0_check_free_space
 2489 2270 FF0010E3 		tst	r0, #255
 2490 2274 982F1F05 		ldreq	r2, .L265+316
 2491 2278 0030D205 		ldreqb	r3, [r2, #0]	@ zero_extendqisi2
 2492 227c 01308302 		addeq	r3, r3, #1
 2493 2280 0030C205 		streqb	r3, [r2, #0]
 2494 2284 E608000A 		beq	.L175
 2495 2288 9900A0E3 		mov	r0, #153
 2496 228c AC4F1FE5 		ldr	r4, .L265+320
 2497 2290 FEFFFFEB 		bl	uart0_transmit
 2498 2294 0B00A0E3 		mov	r0, #11
 2499 2298 B45F1FE5 		ldr	r5, .L265+324
 2500 229c FEFFFFEB 		bl	uart0_transmit
 2501 22a0 1930A0E3 		mov	r3, #25
 2502 22a4 0030C4E5 		strb	r3, [r4, #0]
 2503 22a8 0B3083E2 		add	r3, r3, #11
 2504 22ac 0E00A0E3 		mov	r0, #14
 2505 22b0 0030C5E5 		strb	r3, [r5, #0]
 2506 22b4 FEFFFFEB 		bl	uart0_transmit
 2507 22b8 0030D4E5 		ldrb	r3, [r4, #0]	@ zero_extendqisi2
 2508 22bc 1F3083E2 		add	r3, r3, #31
 2509 22c0 0030C4E5 		strb	r3, [r4, #0]
 2510 22c4 0030D5E5 		ldrb	r3, [r5, #0]	@ zero_extendqisi2
 2511 22c8 0020D4E5 		ldrb	r2, [r4, #0]	@ zero_extendqisi2
 2512 22cc 023083E0 		add	r3, r3, r2
 2513 22d0 1F00A0E3 		mov	r0, #31
 2514 22d4 0030C5E5 		strb	r3, [r5, #0]
 2515 22d8 FEFFFFEB 		bl	uart0_transmit
 2516 22dc 0000D6E5 		ldrb	r0, [r6, #0]	@ zero_extendqisi2
 2517 22e0 0030D4E5 		ldrb	r3, [r4, #0]	@ zero_extendqisi2
 2518 22e4 033080E0 		add	r3, r0, r3
 2519 22e8 0030C4E5 		strb	r3, [r4, #0]
 2520 22ec 0030D5E5 		ldrb	r3, [r5, #0]	@ zero_extendqisi2
 2521 22f0 0020D4E5 		ldrb	r2, [r4, #0]	@ zero_extendqisi2
 2522 22f4 023083E0 		add	r3, r3, r2
 2523 22f8 0030C5E5 		strb	r3, [r5, #0]
 2524 22fc FEFFFFEB 		bl	uart0_transmit
 2525 2300 44005BE5 		ldrb	r0, [fp, #-68]	@ zero_extendqisi2
 2526 2304 0030D4E5 		ldrb	r3, [r4, #0]	@ zero_extendqisi2
 2527 2308 033080E0 		add	r3, r0, r3
 2528 230c 0030C4E5 		strb	r3, [r4, #0]
 2529 2310 0030D5E5 		ldrb	r3, [r5, #0]	@ zero_extendqisi2
 2530 2314 0020D4E5 		ldrb	r2, [r4, #0]	@ zero_extendqisi2
 2531 2318 023083E0 		add	r3, r3, r2
 2532 231c 0030C5E5 		strb	r3, [r5, #0]
 2533 2320 FEFFFFEB 		bl	uart0_transmit
 2534 2324 43005BE5 		ldrb	r0, [fp, #-67]	@ zero_extendqisi2
 2535 2328 0030D4E5 		ldrb	r3, [r4, #0]	@ zero_extendqisi2
 2536 232c 033080E0 		add	r3, r0, r3
 2537 2330 0030C4E5 		strb	r3, [r4, #0]
 2538 2334 0030D5E5 		ldrb	r3, [r5, #0]	@ zero_extendqisi2
 2539 2338 0020D4E5 		ldrb	r2, [r4, #0]	@ zero_extendqisi2
 2540 233c 023083E0 		add	r3, r3, r2
 2541 2340 0030C5E5 		strb	r3, [r5, #0]
 2542 2344 FEFFFFEB 		bl	uart0_transmit
 2543 2348 42005BE5 		ldrb	r0, [fp, #-66]	@ zero_extendqisi2
 2544 234c 0030D4E5 		ldrb	r3, [r4, #0]	@ zero_extendqisi2
 2545 2350 033080E0 		add	r3, r0, r3
 2546 2354 0030C4E5 		strb	r3, [r4, #0]
 2547 2358 0030D5E5 		ldrb	r3, [r5, #0]	@ zero_extendqisi2
 2548 235c 0020D4E5 		ldrb	r2, [r4, #0]	@ zero_extendqisi2
 2549 2360 023083E0 		add	r3, r3, r2
 2550 2364 0030C5E5 		strb	r3, [r5, #0]
 2551 2368 FEFFFFEB 		bl	uart0_transmit
 2552 236c 41005BE5 		ldrb	r0, [fp, #-65]	@ zero_extendqisi2
 2553 2370 0030D4E5 		ldrb	r3, [r4, #0]	@ zero_extendqisi2
 2554 2374 033080E0 		add	r3, r0, r3
 2555 2378 0030C4E5 		strb	r3, [r4, #0]
 2556 237c 0030D5E5 		ldrb	r3, [r5, #0]	@ zero_extendqisi2
 2557 2380 0020D4E5 		ldrb	r2, [r4, #0]	@ zero_extendqisi2
 2558 2384 023083E0 		add	r3, r3, r2
 2559 2388 0030C5E5 		strb	r3, [r5, #0]
 2560 238c FEFFFFEB 		bl	uart0_transmit
 2561 2390 0000D4E5 		ldrb	r0, [r4, #0]	@ zero_extendqisi2
 2562 2394 FEFFFFEB 		bl	uart0_transmit
 2563 2398 0000D5E5 		ldrb	r0, [r5, #0]	@ zero_extendqisi2
 2564 239c FEFFFFEB 		bl	uart0_transmit
 2565              	.L175:
 2566 23a0 3C229FE5 		ldr	r2, .L267+16
 2567 23a4 6F0A00EA 		b	.L252
 2568              	.L128:
 2569 23a8 300053E3 		cmp	r3, #48
 2570 23ac 3309001A 		bne	.L177
 2571 23b0 30329FE5 		ldr	r3, .L267+20
 2572 23b4 000093E5 		ldr	r0, [r3, #0]	@ float
 2573 23b8 FEFFFFEB 		bl	__extendsfdf2
 2574 23bc 212E8FE2 		adr	r2, .L267
 2575 23c0 0C0092E8 		ldmia	r2, {r2-r3}
 2576 23c4 FEFFFFEB 		bl	__divdf3
 2577 23c8 832F8FE2 		adr	r2, .L267+8
 2578 23cc 0C0092E8 		ldmia	r2, {r2-r3}
 2579 23d0 FEFFFFEB 		bl	__muldf3
 2580 23d4 FEFFFFEB 		bl	__fixdfsi
 2581 23d8 B0034BE1 		strh	r0, [fp, #-48]	@ movhi 
 2582 23dc 0E00A0E3 		mov	r0, #14
 2583 23e0 FEFFFFEB 		bl	uart0_check_free_space
 2584 23e4 FF0010E3 		tst	r0, #255
 2585 23e8 6E0A000A 		beq	.L186
 2586 23ec 0E60A0E3 		mov	r6, #14
 2587 23f0 9900A0E3 		mov	r0, #153
 2588 23f4 98429FE5 		ldr	r4, .L267+192
 2589 23f8 FEFFFFEB 		bl	uart0_transmit
 2590 23fc 0600A0E1 		mov	r0, r6
 2591 2400 90529FE5 		ldr	r5, .L267+196
 2592 2404 FEFFFFEB 		bl	uart0_transmit
 2593 2408 1C30A0E3 		mov	r3, #28
 2594 240c 0030C4E5 		strb	r3, [r4, #0]
 2595 2410 063083E0 		add	r3, r3, r6
 2596 2414 0600A0E1 		mov	r0, r6
 2597 2418 0030C5E5 		strb	r3, [r5, #0]
 2598 241c FEFFFFEB 		bl	uart0_transmit
 2599 2420 0030D4E5 		ldrb	r3, [r4, #0]	@ zero_extendqisi2
 2600 2424 053083E2 		add	r3, r3, #5
 2601 2428 0030C4E5 		strb	r3, [r4, #0]
 2602 242c 0030D5E5 		ldrb	r3, [r5, #0]	@ zero_extendqisi2
 2603 2430 0020D4E5 		ldrb	r2, [r4, #0]	@ zero_extendqisi2
 2604 2434 B0619FE5 		ldr	r6, .L267+24
 2605 2438 023083E0 		add	r3, r3, r2
 2606 243c 0500A0E3 		mov	r0, #5
 2607 2440 0030C5E5 		strb	r3, [r5, #0]
 2608 2444 FEFFFFEB 		bl	uart0_transmit
 2609 2448 0000D6E5 		ldrb	r0, [r6, #0]	@ zero_extendqisi2
 2610 244c 0030D4E5 		ldrb	r3, [r4, #0]	@ zero_extendqisi2
 2611 2450 033080E0 		add	r3, r0, r3
 2612 2454 0030C4E5 		strb	r3, [r4, #0]
 2613 2458 0030D5E5 		ldrb	r3, [r5, #0]	@ zero_extendqisi2
 2614 245c 0020D4E5 		ldrb	r2, [r4, #0]	@ zero_extendqisi2
 2615 2460 023083E0 		add	r3, r3, r2
 2616 2464 0030C5E5 		strb	r3, [r5, #0]
 2617 2468 FEFFFFEB 		bl	uart0_transmit
 2618 246c 0100D6E5 		ldrb	r0, [r6, #1]	@ zero_extendqisi2
 2619 2470 0030D4E5 		ldrb	r3, [r4, #0]	@ zero_extendqisi2
 2620 2474 033080E0 		add	r3, r0, r3
 2621 2478 0030C4E5 		strb	r3, [r4, #0]
 2622 247c 0030D5E5 		ldrb	r3, [r5, #0]	@ zero_extendqisi2
 2623 2480 0020D4E5 		ldrb	r2, [r4, #0]	@ zero_extendqisi2
 2624 2484 023083E0 		add	r3, r3, r2
 2625 2488 0030C5E5 		strb	r3, [r5, #0]
 2626 248c FEFFFFEB 		bl	uart0_transmit
 2627 2490 30005BE5 		ldrb	r0, [fp, #-48]	@ zero_extendqisi2
 2628 2494 0030D4E5 		ldrb	r3, [r4, #0]	@ zero_extendqisi2
 2629 2498 033080E0 		add	r3, r0, r3
 2630 249c 0030C4E5 		strb	r3, [r4, #0]
 2631 24a0 0030D5E5 		ldrb	r3, [r5, #0]	@ zero_extendqisi2
 2632 24a4 0020D4E5 		ldrb	r2, [r4, #0]	@ zero_extendqisi2
 2633 24a8 023083E0 		add	r3, r3, r2
 2634 24ac 0030C5E5 		strb	r3, [r5, #0]
 2635 24b0 FEFFFFEB 		bl	uart0_transmit
 2636 24b4 2F005BE5 		ldrb	r0, [fp, #-47]	@ zero_extendqisi2
 2637 24b8 0030D4E5 		ldrb	r3, [r4, #0]	@ zero_extendqisi2
 2638 24bc 033080E0 		add	r3, r0, r3
 2639 24c0 0030C4E5 		strb	r3, [r4, #0]
 2640 24c4 24619FE5 		ldr	r6, .L267+28
 2641 24c8 0030D5E5 		ldrb	r3, [r5, #0]	@ zero_extendqisi2
 2642 24cc 0020D4E5 		ldrb	r2, [r4, #0]	@ zero_extendqisi2
 2643 24d0 420A00EA 		b	.L262
 2644              	.L177:
 2645 24d4 360053E3 		cmp	r3, #54
 2646 24d8 A609001A 		bne	.L181
 2647 24dc 0C00A0E3 		mov	r0, #12
 2648 24e0 FEFFFFEB 		bl	uart0_check_free_space
 2649 24e4 FF0010E3 		tst	r0, #255
 2650 24e8 6E0A000A 		beq	.L186
 2651 24ec 9900A0E3 		mov	r0, #153
 2652 24f0 9C419FE5 		ldr	r4, .L267+192
 2653 24f4 FEFFFFEB 		bl	uart0_transmit
 2654 24f8 0C00A0E3 		mov	r0, #12
 2655 24fc 94519FE5 		ldr	r5, .L267+196
 2656 2500 FEFFFFEB 		bl	uart0_transmit
 2657 2504 1A30A0E3 		mov	r3, #26
 2658 2508 0030C4E5 		strb	r3, [r4, #0]
 2659 250c 0C3083E2 		add	r3, r3, #12
 2660 2510 0E00A0E3 		mov	r0, #14
 2661 2514 0030C5E5 		strb	r3, [r5, #0]
 2662 2518 FEFFFFEB 		bl	uart0_transmit
 2663 251c 0030D4E5 		ldrb	r3, [r4, #0]	@ zero_extendqisi2
 2664 2520 073083E2 		add	r3, r3, #7
 2665 2524 0030C4E5 		strb	r3, [r4, #0]
 2666 2528 0030D5E5 		ldrb	r3, [r5, #0]	@ zero_extendqisi2
 2667 252c 0020D4E5 		ldrb	r2, [r4, #0]	@ zero_extendqisi2
 2668 2530 BC609FE5 		ldr	r6, .L267+32
 2669 2534 023083E0 		add	r3, r3, r2
 2670 2538 0700A0E3 		mov	r0, #7
 2671 253c 0030C5E5 		strb	r3, [r5, #0]
 2672 2540 FEFFFFEB 		bl	uart0_transmit
 2673 2544 0000D6E5 		ldrb	r0, [r6, #0]	@ zero_extendqisi2
 2674 2548 0030D4E5 		ldrb	r3, [r4, #0]	@ zero_extendqisi2
 2675 254c 033080E0 		add	r3, r0, r3
 2676 2550 0030C4E5 		strb	r3, [r4, #0]
 2677 2554 0030D5E5 		ldrb	r3, [r5, #0]	@ zero_extendqisi2
 2678 2558 0020D4E5 		ldrb	r2, [r4, #0]	@ zero_extendqisi2
 2679 255c 023083E0 		add	r3, r3, r2
 2680 2560 0030C5E5 		strb	r3, [r5, #0]
 2681 2564 FEFFFFEB 		bl	uart0_transmit
 2682 2568 0100D6E5 		ldrb	r0, [r6, #1]	@ zero_extendqisi2
 2683 256c 0030D4E5 		ldrb	r3, [r4, #0]	@ zero_extendqisi2
 2684 2570 033080E0 		add	r3, r0, r3
 2685 2574 0030C4E5 		strb	r3, [r4, #0]
 2686 2578 0030D5E5 		ldrb	r3, [r5, #0]	@ zero_extendqisi2
 2687 257c 0020D4E5 		ldrb	r2, [r4, #0]	@ zero_extendqisi2
 2688 2580 64609FE5 		ldr	r6, .L267+24
 2689 2584 023083E0 		add	r3, r3, r2
 2690 2588 0030C5E5 		strb	r3, [r5, #0]
 2691 258c FEFFFFEB 		bl	uart0_transmit
 2692 2590 0000D6E5 		ldrb	r0, [r6, #0]	@ zero_extendqisi2
 2693 2594 0030D4E5 		ldrb	r3, [r4, #0]	@ zero_extendqisi2
 2694 2598 033080E0 		add	r3, r0, r3
 2695 259c 0030C4E5 		strb	r3, [r4, #0]
 2696 25a0 0030D5E5 		ldrb	r3, [r5, #0]	@ zero_extendqisi2
 2697 25a4 0020D4E5 		ldrb	r2, [r4, #0]	@ zero_extendqisi2
 2698 25a8 023083E0 		add	r3, r3, r2
 2699 25ac 0030C5E5 		strb	r3, [r5, #0]
 2700 25b0 FEFFFFEB 		bl	uart0_transmit
 2701 25b4 0100D6E5 		ldrb	r0, [r6, #1]	@ zero_extendqisi2
 2702 25b8 0030D4E5 		ldrb	r3, [r4, #0]	@ zero_extendqisi2
 2703 25bc 033080E0 		add	r3, r0, r3
 2704 25c0 0030C4E5 		strb	r3, [r4, #0]
 2705 25c4 2C609FE5 		ldr	r6, .L267+36
 2706 25c8 0030D5E5 		ldrb	r3, [r5, #0]	@ zero_extendqisi2
 2707 25cc 0020D4E5 		ldrb	r2, [r4, #0]	@ zero_extendqisi2
 2708 25d0 B30700EA 		b	.L263
 2709              	.L268:
 2710              		.align	2
 2711              	.L267:
 2712 25d4 FB210940 		.word	1074340347
 2713 25d8 182D4454 		.word	1413754136
 2714 25dc 00209C40 		.word	1083973632
 2715 25e0 00000000 		.word	0
 2716 25e4 1D000000 		.word	i.12
 2717 25e8 00000000 		.word	estimator_rad
 2718 25ec 00000000 		.word	ir_roll
 2719 25f0 00000000 		.word	estimator_rad_of_ir
 2720 25f4 00000000 		.word	ir_pitch
 2721 25f8 00000000 		.word	ir_top
 2722 25fc 00000000 		.word	roll_rate_adc
 2723 2600 00000000 		.word	pitch_rate_adc
 2724 2604 00000000 		.word	yaw_rate_adc
 2725 2608 00000000 		.word	estimator_p
 2726 260c 00000000 		.word	estimator_q
 2727 2610 00000000 		.word	estimator_r
 2728 2614 00000000 		.word	energy
 2729 2618 00000000 		.word	v_ctl_throttle_slewed
 2730 261c 00000000 		.word	vsupply
 2731 2620 00000000 		.word	kill_throttle
 2732 2624 00000000 		.word	block_time
 2733 2628 00000000 		.word	stage_time
 2734 262c 00000000 		.word	v_ctl_alt_sum_err
 2735 2630 00000000 		.word	v_ctl_auto_throttle_pgain
 2736 2634 00000000 		.word	h_ctl_course_pgain
 2737 2638 00000000 		.word	v_ctl_auto_throttle_submode
 2738 263c 00000000 		.word	h_ctl_elevator_setpoint
 2739 2640 00000000 		.word	h_ctl_aileron_setpoint
 2740 2644 00000000 		.word	v_ctl_throttle_setpoint
 2741 2648 00000000 		.word	x1_dbg
 2742 264c 00000000 		.word	x2_dbg
 2743 2650 18000000 		.word	i300.9
 2744 2654 00000000 		.word	pprz_mode
 2745 2658 00000000 		.word	v_ctl_mode
 2746 265c 00000000 		.word	lateral_mode
 2747 2660 00000000 		.word	horizontal_mode
 2748 2664 00000000 		.word	rc_settings_mode
 2749 2668 24000000 		.word	mcu1_status
 2750 266c 00000000 		.word	ir_estim_mode
 2751 2670 1A000000 		.word	i540.10
 2752 2674 00000000 		.word	downlink_nb_ovrn
 2753 2678 00000000 		.word	nav_utm_east0
 2754 267c 00000000 		.word	nav_utm_north0
 2755 2680 00000000 		.word	nav_utm_zone0
 2756 2684 00000000 		.word	telemetry_mode_Ap
 2757 2688 1E000000 		.word	i30.13
 2758 268c 00000000 		.word	estimator_flight_time
 2759 2690 00000000 		.word	calib_status
 2760 2694 00000000 		.word	ck_a
 2761 2698 00000000 		.word	ck_b
 2762 269c 00000000 		.word	estimator_phi
 2763              	.L181:
 2764 26a0 000053E3 		cmp	r3, #0
 2765 26a4 720A001A 		bne	.L108
 2766 26a8 1800A0E3 		mov	r0, #24
 2767 26ac FEFFFFEB 		bl	uart0_check_free_space
 2768 26b0 FF0010E3 		tst	r0, #255
 2769 26b4 6E0A000A 		beq	.L186
 2770 26b8 9900A0E3 		mov	r0, #153
 2771 26bc 30401FE5 		ldr	r4, .L267+192
 2772 26c0 FEFFFFEB 		bl	uart0_transmit
 2773 26c4 1800A0E3 		mov	r0, #24
 2774 26c8 38501FE5 		ldr	r5, .L267+196
 2775 26cc FEFFFFEB 		bl	uart0_transmit
 2776 26d0 2630A0E3 		mov	r3, #38
 2777 26d4 0030C4E5 		strb	r3, [r4, #0]
 2778 26d8 183083E2 		add	r3, r3, #24
 2779 26dc 0E00A0E3 		mov	r0, #14
 2780 26e0 0030C5E5 		strb	r3, [r5, #0]
 2781 26e4 FEFFFFEB 		bl	uart0_transmit
 2782 26e8 0030D4E5 		ldrb	r3, [r4, #0]	@ zero_extendqisi2
 2783 26ec 243083E2 		add	r3, r3, #36
 2784 26f0 0030C4E5 		strb	r3, [r4, #0]
 2785 26f4 0030D5E5 		ldrb	r3, [r5, #0]	@ zero_extendqisi2
 2786 26f8 0020D4E5 		ldrb	r2, [r4, #0]	@ zero_extendqisi2
 2787 26fc 08611FE5 		ldr	r6, .L267+40
 2788 2700 023083E0 		add	r3, r3, r2
 2789 2704 2400A0E3 		mov	r0, #36
 2790 2708 0030C5E5 		strb	r3, [r5, #0]
 2791 270c FEFFFFEB 		bl	uart0_transmit
 2792 2710 0000D6E5 		ldrb	r0, [r6, #0]	@ zero_extendqisi2
 2793 2714 0030D4E5 		ldrb	r3, [r4, #0]	@ zero_extendqisi2
 2794 2718 033080E0 		add	r3, r0, r3
 2795 271c 0030C4E5 		strb	r3, [r4, #0]
 2796 2720 0030D5E5 		ldrb	r3, [r5, #0]	@ zero_extendqisi2
 2797 2724 0020D4E5 		ldrb	r2, [r4, #0]	@ zero_extendqisi2
 2798 2728 023083E0 		add	r3, r3, r2
 2799 272c 0030C5E5 		strb	r3, [r5, #0]
 2800 2730 FEFFFFEB 		bl	uart0_transmit
 2801 2734 0100D6E5 		ldrb	r0, [r6, #1]	@ zero_extendqisi2
 2802 2738 0030D4E5 		ldrb	r3, [r4, #0]	@ zero_extendqisi2
 2803 273c 033080E0 		add	r3, r0, r3
 2804 2740 0030C4E5 		strb	r3, [r4, #0]
 2805 2744 0030D5E5 		ldrb	r3, [r5, #0]	@ zero_extendqisi2
 2806 2748 0020D4E5 		ldrb	r2, [r4, #0]	@ zero_extendqisi2
 2807 274c 54611FE5 		ldr	r6, .L267+44
 2808 2750 023083E0 		add	r3, r3, r2
 2809 2754 0030C5E5 		strb	r3, [r5, #0]
 2810 2758 FEFFFFEB 		bl	uart0_transmit
 2811 275c 0000D6E5 		ldrb	r0, [r6, #0]	@ zero_extendqisi2
 2812 2760 0030D4E5 		ldrb	r3, [r4, #0]	@ zero_extendqisi2
 2813 2764 033080E0 		add	r3, r0, r3
 2814 2768 0030C4E5 		strb	r3, [r4, #0]
 2815 276c 0030D5E5 		ldrb	r3, [r5, #0]	@ zero_extendqisi2
 2816 2770 0020D4E5 		ldrb	r2, [r4, #0]	@ zero_extendqisi2
 2817 2774 023083E0 		add	r3, r3, r2
 2818 2778 0030C5E5 		strb	r3, [r5, #0]
 2819 277c FEFFFFEB 		bl	uart0_transmit
 2820 2780 0100D6E5 		ldrb	r0, [r6, #1]	@ zero_extendqisi2
 2821 2784 0030D4E5 		ldrb	r3, [r4, #0]	@ zero_extendqisi2
 2822 2788 033080E0 		add	r3, r0, r3
 2823 278c 0030C4E5 		strb	r3, [r4, #0]
 2824 2790 0030D5E5 		ldrb	r3, [r5, #0]	@ zero_extendqisi2
 2825 2794 0020D4E5 		ldrb	r2, [r4, #0]	@ zero_extendqisi2
 2826 2798 9C611FE5 		ldr	r6, .L267+48
 2827 279c 023083E0 		add	r3, r3, r2
 2828 27a0 0030C5E5 		strb	r3, [r5, #0]
 2829 27a4 FEFFFFEB 		bl	uart0_transmit
 2830 27a8 0000D6E5 		ldrb	r0, [r6, #0]	@ zero_extendqisi2
 2831 27ac 0030D4E5 		ldrb	r3, [r4, #0]	@ zero_extendqisi2
 2832 27b0 033080E0 		add	r3, r0, r3
 2833 27b4 0030C4E5 		strb	r3, [r4, #0]
 2834 27b8 0030D5E5 		ldrb	r3, [r5, #0]	@ zero_extendqisi2
 2835 27bc 0020D4E5 		ldrb	r2, [r4, #0]	@ zero_extendqisi2
 2836 27c0 023083E0 		add	r3, r3, r2
 2837 27c4 0030C5E5 		strb	r3, [r5, #0]
 2838 27c8 FEFFFFEB 		bl	uart0_transmit
 2839 27cc 0100D6E5 		ldrb	r0, [r6, #1]	@ zero_extendqisi2
 2840 27d0 0030D4E5 		ldrb	r3, [r4, #0]	@ zero_extendqisi2
 2841 27d4 033080E0 		add	r3, r0, r3
 2842 27d8 0030C4E5 		strb	r3, [r4, #0]
 2843 27dc 0030D5E5 		ldrb	r3, [r5, #0]	@ zero_extendqisi2
 2844 27e0 0020D4E5 		ldrb	r2, [r4, #0]	@ zero_extendqisi2
 2845 27e4 E4611FE5 		ldr	r6, .L267+52
 2846 27e8 023083E0 		add	r3, r3, r2
 2847 27ec 0030C5E5 		strb	r3, [r5, #0]
 2848 27f0 FEFFFFEB 		bl	uart0_transmit
 2849 27f4 0000D6E5 		ldrb	r0, [r6, #0]	@ zero_extendqisi2
 2850 27f8 0030D4E5 		ldrb	r3, [r4, #0]	@ zero_extendqisi2
 2851 27fc 033080E0 		add	r3, r0, r3
 2852 2800 0030C4E5 		strb	r3, [r4, #0]
 2853 2804 0030D5E5 		ldrb	r3, [r5, #0]	@ zero_extendqisi2
 2854 2808 0020D4E5 		ldrb	r2, [r4, #0]	@ zero_extendqisi2
 2855 280c 023083E0 		add	r3, r3, r2
 2856 2810 0030C5E5 		strb	r3, [r5, #0]
 2857 2814 FEFFFFEB 		bl	uart0_transmit
 2858 2818 0100D6E5 		ldrb	r0, [r6, #1]	@ zero_extendqisi2
 2859 281c 0030D4E5 		ldrb	r3, [r4, #0]	@ zero_extendqisi2
 2860 2820 033080E0 		add	r3, r0, r3
 2861 2824 0030C4E5 		strb	r3, [r4, #0]
 2862 2828 0030D5E5 		ldrb	r3, [r5, #0]	@ zero_extendqisi2
 2863 282c 0020D4E5 		ldrb	r2, [r4, #0]	@ zero_extendqisi2
 2864 2830 023083E0 		add	r3, r3, r2
 2865 2834 0030C5E5 		strb	r3, [r5, #0]
 2866 2838 FEFFFFEB 		bl	uart0_transmit
 2867 283c 0200D6E5 		ldrb	r0, [r6, #2]	@ zero_extendqisi2
 2868 2840 0030D4E5 		ldrb	r3, [r4, #0]	@ zero_extendqisi2
 2869 2844 033080E0 		add	r3, r0, r3
 2870 2848 0030C4E5 		strb	r3, [r4, #0]
 2871 284c 0030D5E5 		ldrb	r3, [r5, #0]	@ zero_extendqisi2
 2872 2850 0020D4E5 		ldrb	r2, [r4, #0]	@ zero_extendqisi2
 2873 2854 023083E0 		add	r3, r3, r2
 2874 2858 0030C5E5 		strb	r3, [r5, #0]
 2875 285c FEFFFFEB 		bl	uart0_transmit
 2876 2860 0300D6E5 		ldrb	r0, [r6, #3]	@ zero_extendqisi2
 2877 2864 0030D4E5 		ldrb	r3, [r4, #0]	@ zero_extendqisi2
 2878 2868 033080E0 		add	r3, r0, r3
 2879 286c 0030C4E5 		strb	r3, [r4, #0]
 2880 2870 0030D5E5 		ldrb	r3, [r5, #0]	@ zero_extendqisi2
 2881 2874 0020D4E5 		ldrb	r2, [r4, #0]	@ zero_extendqisi2
 2882 2878 74621FE5 		ldr	r6, .L267+56
 2883 287c 023083E0 		add	r3, r3, r2
 2884 2880 0030C5E5 		strb	r3, [r5, #0]
 2885 2884 FEFFFFEB 		bl	uart0_transmit
 2886 2888 0000D6E5 		ldrb	r0, [r6, #0]	@ zero_extendqisi2
 2887 288c 0030D4E5 		ldrb	r3, [r4, #0]	@ zero_extendqisi2
 2888 2890 033080E0 		add	r3, r0, r3
 2889 2894 0030C4E5 		strb	r3, [r4, #0]
 2890 2898 0030D5E5 		ldrb	r3, [r5, #0]	@ zero_extendqisi2
 2891 289c 0020D4E5 		ldrb	r2, [r4, #0]	@ zero_extendqisi2
 2892 28a0 023083E0 		add	r3, r3, r2
 2893 28a4 0030C5E5 		strb	r3, [r5, #0]
 2894 28a8 FEFFFFEB 		bl	uart0_transmit
 2895 28ac 0100D6E5 		ldrb	r0, [r6, #1]	@ zero_extendqisi2
 2896 28b0 0030D4E5 		ldrb	r3, [r4, #0]	@ zero_extendqisi2
 2897 28b4 033080E0 		add	r3, r0, r3
 2898 28b8 0030C4E5 		strb	r3, [r4, #0]
 2899 28bc 0030D5E5 		ldrb	r3, [r5, #0]	@ zero_extendqisi2
 2900 28c0 0020D4E5 		ldrb	r2, [r4, #0]	@ zero_extendqisi2
 2901 28c4 023083E0 		add	r3, r3, r2
 2902 28c8 0030C5E5 		strb	r3, [r5, #0]
 2903 28cc FEFFFFEB 		bl	uart0_transmit
 2904 28d0 0200D6E5 		ldrb	r0, [r6, #2]	@ zero_extendqisi2
 2905 28d4 0030D4E5 		ldrb	r3, [r4, #0]	@ zero_extendqisi2
 2906 28d8 033080E0 		add	r3, r0, r3
 2907 28dc 0030C4E5 		strb	r3, [r4, #0]
 2908 28e0 0030D5E5 		ldrb	r3, [r5, #0]	@ zero_extendqisi2
 2909 28e4 0020D4E5 		ldrb	r2, [r4, #0]	@ zero_extendqisi2
 2910 28e8 023083E0 		add	r3, r3, r2
 2911 28ec 0030C5E5 		strb	r3, [r5, #0]
 2912 28f0 FEFFFFEB 		bl	uart0_transmit
 2913 28f4 0300D6E5 		ldrb	r0, [r6, #3]	@ zero_extendqisi2
 2914 28f8 0030D4E5 		ldrb	r3, [r4, #0]	@ zero_extendqisi2
 2915 28fc 033080E0 		add	r3, r0, r3
 2916 2900 0030C4E5 		strb	r3, [r4, #0]
 2917 2904 FC621FE5 		ldr	r6, .L267+60
 2918 2908 0030D5E5 		ldrb	r3, [r5, #0]	@ zero_extendqisi2
 2919 290c 0020D4E5 		ldrb	r2, [r4, #0]	@ zero_extendqisi2
 2920              	.L262:
 2921 2910 023083E0 		add	r3, r3, r2
 2922 2914 0030C5E5 		strb	r3, [r5, #0]
 2923 2918 FEFFFFEB 		bl	uart0_transmit
 2924 291c 0000D6E5 		ldrb	r0, [r6, #0]	@ zero_extendqisi2
 2925 2920 0030D4E5 		ldrb	r3, [r4, #0]	@ zero_extendqisi2
 2926 2924 033080E0 		add	r3, r0, r3
 2927 2928 0030C4E5 		strb	r3, [r4, #0]
 2928 292c 0030D5E5 		ldrb	r3, [r5, #0]	@ zero_extendqisi2
 2929 2930 0020D4E5 		ldrb	r2, [r4, #0]	@ zero_extendqisi2
 2930 2934 023083E0 		add	r3, r3, r2
 2931 2938 0030C5E5 		strb	r3, [r5, #0]
 2932 293c FEFFFFEB 		bl	uart0_transmit
 2933 2940 0100D6E5 		ldrb	r0, [r6, #1]	@ zero_extendqisi2
 2934 2944 0030D4E5 		ldrb	r3, [r4, #0]	@ zero_extendqisi2
 2935 2948 033080E0 		add	r3, r0, r3
 2936 294c 0030C4E5 		strb	r3, [r4, #0]
 2937 2950 0030D5E5 		ldrb	r3, [r5, #0]	@ zero_extendqisi2
 2938 2954 0020D4E5 		ldrb	r2, [r4, #0]	@ zero_extendqisi2
 2939 2958 023083E0 		add	r3, r3, r2
 2940 295c 0030C5E5 		strb	r3, [r5, #0]
 2941 2960 FEFFFFEB 		bl	uart0_transmit
 2942 2964 0200D6E5 		ldrb	r0, [r6, #2]	@ zero_extendqisi2
 2943 2968 0030D4E5 		ldrb	r3, [r4, #0]	@ zero_extendqisi2
 2944 296c 033080E0 		add	r3, r0, r3
 2945 2970 0030C4E5 		strb	r3, [r4, #0]
 2946 2974 0030D5E5 		ldrb	r3, [r5, #0]	@ zero_extendqisi2
 2947 2978 0020D4E5 		ldrb	r2, [r4, #0]	@ zero_extendqisi2
 2948 297c 023083E0 		add	r3, r3, r2
 2949 2980 0030C5E5 		strb	r3, [r5, #0]
 2950 2984 FEFFFFEB 		bl	uart0_transmit
 2951 2988 0300D6E5 		ldrb	r0, [r6, #3]	@ zero_extendqisi2
 2952              	.L251:
 2953 298c 0030D4E5 		ldrb	r3, [r4, #0]	@ zero_extendqisi2
 2954 2990 033080E0 		add	r3, r0, r3
 2955 2994 0030C4E5 		strb	r3, [r4, #0]
 2956 2998 0030D5E5 		ldrb	r3, [r5, #0]	@ zero_extendqisi2
 2957 299c 0020D4E5 		ldrb	r2, [r4, #0]	@ zero_extendqisi2
 2958 29a0 023083E0 		add	r3, r3, r2
 2959              	.L253:
 2960 29a4 0030C5E5 		strb	r3, [r5, #0]
 2961 29a8 FEFFFFEB 		bl	uart0_transmit
 2962 29ac 0000D4E5 		ldrb	r0, [r4, #0]	@ zero_extendqisi2
 2963 29b0 FEFFFFEB 		bl	uart0_transmit
 2964 29b4 0000D5E5 		ldrb	r0, [r5, #0]	@ zero_extendqisi2
 2965 29b8 FEFFFFEB 		bl	uart0_transmit
 2966 29bc 720A00EA 		b	.L108
 2967              	.L186:
 2968 29c0 54231FE5 		ldr	r2, .L267+160
 2969              	.L252:
 2970 29c4 0030D2E5 		ldrb	r3, [r2, #0]	@ zero_extendqisi2
 2971 29c8 013083E2 		add	r3, r3, #1
 2972 29cc 0030C2E5 		strb	r3, [r2, #0]
 2973              	.L108:
 2974 29d0 0030D9E5 		ldrb	r3, [r9, #0]	@ zero_extendqisi2
 2975 29d4 060053E3 		cmp	r3, #6
 2976 29d8 FD0A001A 		bne	.L188
 2977 29dc D0331FE5 		ldr	r3, .L267+64
 2978 29e0 000093E5 		ldr	r0, [r3, #0]	@ float
 2979 29e4 FEFFFFEB 		bl	__fixsfsi
 2980 29e8 B2034BE1 		strh	r0, [fp, #-50]	@ movhi 
 2981 29ec 1200A0E3 		mov	r0, #18
 2982 29f0 FEFFFFEB 		bl	uart0_check_free_space
 2983 29f4 FF0010E3 		tst	r0, #255
 2984 29f8 350C000A 		beq	.L201
 2985 29fc 9900A0E3 		mov	r0, #153
 2986 2a00 74431FE5 		ldr	r4, .L267+192
 2987 2a04 FEFFFFEB 		bl	uart0_transmit
 2988 2a08 1200A0E3 		mov	r0, #18
 2989 2a0c 7C531FE5 		ldr	r5, .L267+196
 2990 2a10 FEFFFFEB 		bl	uart0_transmit
 2991 2a14 2030A0E3 		mov	r3, #32
 2992 2a18 0030C4E5 		strb	r3, [r4, #0]
 2993 2a1c 123083E2 		add	r3, r3, #18
 2994 2a20 0E00A0E3 		mov	r0, #14
 2995 2a24 0030C5E5 		strb	r3, [r5, #0]
 2996 2a28 FEFFFFEB 		bl	uart0_transmit
 2997 2a2c 0030D4E5 		ldrb	r3, [r4, #0]	@ zero_extendqisi2
 2998 2a30 0C3083E2 		add	r3, r3, #12
 2999 2a34 0030C4E5 		strb	r3, [r4, #0]
 3000 2a38 0030D5E5 		ldrb	r3, [r5, #0]	@ zero_extendqisi2
 3001 2a3c 0020D4E5 		ldrb	r2, [r4, #0]	@ zero_extendqisi2
 3002 2a40 30641FE5 		ldr	r6, .L267+68
 3003 2a44 023083E0 		add	r3, r3, r2
 3004 2a48 0C00A0E3 		mov	r0, #12
 3005 2a4c 0030C5E5 		strb	r3, [r5, #0]
 3006 2a50 FEFFFFEB 		bl	uart0_transmit
 3007 2a54 0000D6E5 		ldrb	r0, [r6, #0]	@ zero_extendqisi2
 3008 2a58 0030D4E5 		ldrb	r3, [r4, #0]	@ zero_extendqisi2
 3009 2a5c 033080E0 		add	r3, r0, r3
 3010 2a60 0030C4E5 		strb	r3, [r4, #0]
 3011 2a64 0030D5E5 		ldrb	r3, [r5, #0]	@ zero_extendqisi2
 3012 2a68 0020D4E5 		ldrb	r2, [r4, #0]	@ zero_extendqisi2
 3013 2a6c 023083E0 		add	r3, r3, r2
 3014 2a70 0030C5E5 		strb	r3, [r5, #0]
 3015 2a74 FEFFFFEB 		bl	uart0_transmit
 3016 2a78 0100D6E5 		ldrb	r0, [r6, #1]	@ zero_extendqisi2
 3017 2a7c 0030D4E5 		ldrb	r3, [r4, #0]	@ zero_extendqisi2
 3018 2a80 033080E0 		add	r3, r0, r3
 3019 2a84 0030C4E5 		strb	r3, [r4, #0]
 3020 2a88 0030D5E5 		ldrb	r3, [r5, #0]	@ zero_extendqisi2
 3021 2a8c 0020D4E5 		ldrb	r2, [r4, #0]	@ zero_extendqisi2
 3022 2a90 023083E0 		add	r3, r3, r2
 3023 2a94 0030C5E5 		strb	r3, [r5, #0]
 3024 2a98 FEFFFFEB 		bl	uart0_transmit
 3025 2a9c 88341FE5 		ldr	r3, .L267+72
 3026 2aa0 0000D3E5 		ldrb	r0, [r3, #0]	@ zero_extendqisi2
 3027 2aa4 0030D4E5 		ldrb	r3, [r4, #0]	@ zero_extendqisi2
 3028 2aa8 033080E0 		add	r3, r0, r3
 3029 2aac 0030C4E5 		strb	r3, [r4, #0]
 3030 2ab0 0030D5E5 		ldrb	r3, [r5, #0]	@ zero_extendqisi2
 3031 2ab4 0020D4E5 		ldrb	r2, [r4, #0]	@ zero_extendqisi2
 3032 2ab8 34641FE5 		ldr	r6, .L267+184
 3033 2abc 023083E0 		add	r3, r3, r2
 3034 2ac0 0030C5E5 		strb	r3, [r5, #0]
 3035 2ac4 FEFFFFEB 		bl	uart0_transmit
 3036 2ac8 0000D6E5 		ldrb	r0, [r6, #0]	@ zero_extendqisi2
 3037 2acc 0030D4E5 		ldrb	r3, [r4, #0]	@ zero_extendqisi2
 3038 2ad0 033080E0 		add	r3, r0, r3
 3039 2ad4 0030C4E5 		strb	r3, [r4, #0]
 3040 2ad8 0030D5E5 		ldrb	r3, [r5, #0]	@ zero_extendqisi2
 3041 2adc 0020D4E5 		ldrb	r2, [r4, #0]	@ zero_extendqisi2
 3042 2ae0 023083E0 		add	r3, r3, r2
 3043 2ae4 0030C5E5 		strb	r3, [r5, #0]
 3044 2ae8 FEFFFFEB 		bl	uart0_transmit
 3045 2aec 0100D6E5 		ldrb	r0, [r6, #1]	@ zero_extendqisi2
 3046 2af0 0030D4E5 		ldrb	r3, [r4, #0]	@ zero_extendqisi2
 3047 2af4 033080E0 		add	r3, r0, r3
 3048 2af8 0030C4E5 		strb	r3, [r4, #0]
 3049 2afc 0030D5E5 		ldrb	r3, [r5, #0]	@ zero_extendqisi2
 3050 2b00 0020D4E5 		ldrb	r2, [r4, #0]	@ zero_extendqisi2
 3051 2b04 023083E0 		add	r3, r3, r2
 3052 2b08 0030C5E5 		strb	r3, [r5, #0]
 3053 2b0c FEFFFFEB 		bl	uart0_transmit
 3054 2b10 F8341FE5 		ldr	r3, .L267+76
 3055 2b14 0000D3E5 		ldrb	r0, [r3, #0]	@ zero_extendqisi2
 3056 2b18 0030D4E5 		ldrb	r3, [r4, #0]	@ zero_extendqisi2
 3057 2b1c 033080E0 		add	r3, r0, r3
 3058 2b20 0030C4E5 		strb	r3, [r4, #0]
 3059 2b24 0030D5E5 		ldrb	r3, [r5, #0]	@ zero_extendqisi2
 3060 2b28 0020D4E5 		ldrb	r2, [r4, #0]	@ zero_extendqisi2
 3061 2b2c 10651FE5 		ldr	r6, .L267+80
 3062 2b30 023083E0 		add	r3, r3, r2
 3063 2b34 0030C5E5 		strb	r3, [r5, #0]
 3064 2b38 FEFFFFEB 		bl	uart0_transmit
 3065 2b3c 0000D6E5 		ldrb	r0, [r6, #0]	@ zero_extendqisi2
 3066 2b40 0030D4E5 		ldrb	r3, [r4, #0]	@ zero_extendqisi2
 3067 2b44 033080E0 		add	r3, r0, r3
 3068 2b48 0030C4E5 		strb	r3, [r4, #0]
 3069 2b4c 0030D5E5 		ldrb	r3, [r5, #0]	@ zero_extendqisi2
 3070 2b50 0020D4E5 		ldrb	r2, [r4, #0]	@ zero_extendqisi2
 3071 2b54 023083E0 		add	r3, r3, r2
 3072 2b58 0030C5E5 		strb	r3, [r5, #0]
 3073 2b5c FEFFFFEB 		bl	uart0_transmit
 3074 2b60 0100D6E5 		ldrb	r0, [r6, #1]	@ zero_extendqisi2
 3075 2b64 0030D4E5 		ldrb	r3, [r4, #0]	@ zero_extendqisi2
 3076 2b68 033080E0 		add	r3, r0, r3
 3077 2b6c 0030C4E5 		strb	r3, [r4, #0]
 3078 2b70 0030D5E5 		ldrb	r3, [r5, #0]	@ zero_extendqisi2
 3079 2b74 0020D4E5 		ldrb	r2, [r4, #0]	@ zero_extendqisi2
 3080 2b78 58651FE5 		ldr	r6, .L267+84
 3081 2b7c 023083E0 		add	r3, r3, r2
 3082 2b80 0030C5E5 		strb	r3, [r5, #0]
 3083 2b84 FEFFFFEB 		bl	uart0_transmit
 3084 2b88 0000D6E5 		ldrb	r0, [r6, #0]	@ zero_extendqisi2
 3085 2b8c 0030D4E5 		ldrb	r3, [r4, #0]	@ zero_extendqisi2
 3086 2b90 033080E0 		add	r3, r0, r3
 3087 2b94 0030C4E5 		strb	r3, [r4, #0]
 3088 2b98 0030D5E5 		ldrb	r3, [r5, #0]	@ zero_extendqisi2
 3089 2b9c 0020D4E5 		ldrb	r2, [r4, #0]	@ zero_extendqisi2
 3090 2ba0 023083E0 		add	r3, r3, r2
 3091 2ba4 0030C5E5 		strb	r3, [r5, #0]
 3092 2ba8 FEFFFFEB 		bl	uart0_transmit
 3093 2bac 0100D6E5 		ldrb	r0, [r6, #1]	@ zero_extendqisi2
 3094 2bb0 0030D4E5 		ldrb	r3, [r4, #0]	@ zero_extendqisi2
 3095 2bb4 033080E0 		add	r3, r0, r3
 3096 2bb8 0030C4E5 		strb	r3, [r4, #0]
 3097 2bbc 0030D5E5 		ldrb	r3, [r5, #0]	@ zero_extendqisi2
 3098 2bc0 0020D4E5 		ldrb	r2, [r4, #0]	@ zero_extendqisi2
 3099 2bc4 023083E0 		add	r3, r3, r2
 3100 2bc8 0030C5E5 		strb	r3, [r5, #0]
 3101 2bcc FEFFFFEB 		bl	uart0_transmit
 3102 2bd0 32005BE5 		ldrb	r0, [fp, #-50]	@ zero_extendqisi2
 3103 2bd4 0030D4E5 		ldrb	r3, [r4, #0]	@ zero_extendqisi2
 3104 2bd8 033080E0 		add	r3, r0, r3
 3105 2bdc 0030C4E5 		strb	r3, [r4, #0]
 3106 2be0 0030D5E5 		ldrb	r3, [r5, #0]	@ zero_extendqisi2
 3107 2be4 0020D4E5 		ldrb	r2, [r4, #0]	@ zero_extendqisi2
 3108 2be8 023083E0 		add	r3, r3, r2
 3109 2bec 0030C5E5 		strb	r3, [r5, #0]
 3110 2bf0 FEFFFFEB 		bl	uart0_transmit
 3111 2bf4 31005BE5 		ldrb	r0, [fp, #-49]	@ zero_extendqisi2
 3112 2bf8 280C00EA 		b	.L255
 3113              	.L188:
 3114 2bfc 0C0053E3 		cmp	r3, #12
 3115 2c00 8A0B001A 		bne	.L192
 3116 2c04 1300A0E3 		mov	r0, #19
 3117 2c08 FEFFFFEB 		bl	uart0_check_free_space
 3118 2c0c FF0010E3 		tst	r0, #255
 3119 2c10 350C000A 		beq	.L201
 3120 2c14 9900A0E3 		mov	r0, #153
 3121 2c18 8C451FE5 		ldr	r4, .L267+192
 3122 2c1c FEFFFFEB 		bl	uart0_transmit
 3123 2c20 1300A0E3 		mov	r0, #19
 3124 2c24 94551FE5 		ldr	r5, .L267+196
 3125 2c28 FEFFFFEB 		bl	uart0_transmit
 3126 2c2c 2130A0E3 		mov	r3, #33
 3127 2c30 0030C4E5 		strb	r3, [r4, #0]
 3128 2c34 133083E2 		add	r3, r3, #19
 3129 2c38 0E00A0E3 		mov	r0, #14
 3130 2c3c 0030C5E5 		strb	r3, [r5, #0]
 3131 2c40 FEFFFFEB 		bl	uart0_transmit
 3132 2c44 0030D4E5 		ldrb	r3, [r4, #0]	@ zero_extendqisi2
 3133 2c48 0E3083E2 		add	r3, r3, #14
 3134 2c4c 0030C4E5 		strb	r3, [r4, #0]
 3135 2c50 0030D5E5 		ldrb	r3, [r5, #0]	@ zero_extendqisi2
 3136 2c54 0020D4E5 		ldrb	r2, [r4, #0]	@ zero_extendqisi2
 3137 2c58 34661FE5 		ldr	r6, .L267+88
 3138 2c5c 023083E0 		add	r3, r3, r2
 3139 2c60 0E00A0E3 		mov	r0, #14
 3140 2c64 0030C5E5 		strb	r3, [r5, #0]
 3141 2c68 FEFFFFEB 		bl	uart0_transmit
 3142 2c6c 0000D6E5 		ldrb	r0, [r6, #0]	@ zero_extendqisi2
 3143 2c70 0030D4E5 		ldrb	r3, [r4, #0]	@ zero_extendqisi2
 3144 2c74 033080E0 		add	r3, r0, r3
 3145 2c78 0030C4E5 		strb	r3, [r4, #0]
 3146 2c7c 0030D5E5 		ldrb	r3, [r5, #0]	@ zero_extendqisi2
 3147 2c80 0020D4E5 		ldrb	r2, [r4, #0]	@ zero_extendqisi2
 3148 2c84 023083E0 		add	r3, r3, r2
 3149 2c88 0030C5E5 		strb	r3, [r5, #0]
 3150 2c8c FEFFFFEB 		bl	uart0_transmit
 3151 2c90 0100D6E5 		ldrb	r0, [r6, #1]	@ zero_extendqisi2
 3152 2c94 0030D4E5 		ldrb	r3, [r4, #0]	@ zero_extendqisi2
 3153 2c98 033080E0 		add	r3, r0, r3
 3154 2c9c 0030C4E5 		strb	r3, [r4, #0]
 3155 2ca0 0030D5E5 		ldrb	r3, [r5, #0]	@ zero_extendqisi2
 3156 2ca4 0020D4E5 		ldrb	r2, [r4, #0]	@ zero_extendqisi2
 3157 2ca8 023083E0 		add	r3, r3, r2
 3158 2cac 0030C5E5 		strb	r3, [r5, #0]
 3159 2cb0 FEFFFFEB 		bl	uart0_transmit
 3160 2cb4 0200D6E5 		ldrb	r0, [r6, #2]	@ zero_extendqisi2
 3161 2cb8 0030D4E5 		ldrb	r3, [r4, #0]	@ zero_extendqisi2
 3162 2cbc 033080E0 		add	r3, r0, r3
 3163 2cc0 0030C4E5 		strb	r3, [r4, #0]
 3164 2cc4 0030D5E5 		ldrb	r3, [r5, #0]	@ zero_extendqisi2
 3165 2cc8 0020D4E5 		ldrb	r2, [r4, #0]	@ zero_extendqisi2
 3166 2ccc 023083E0 		add	r3, r3, r2
 3167 2cd0 0030C5E5 		strb	r3, [r5, #0]
 3168 2cd4 FEFFFFEB 		bl	uart0_transmit
 3169 2cd8 0300D6E5 		ldrb	r0, [r6, #3]	@ zero_extendqisi2
 3170 2cdc 0030D4E5 		ldrb	r3, [r4, #0]	@ zero_extendqisi2
 3171 2ce0 033080E0 		add	r3, r0, r3
 3172 2ce4 0030C4E5 		strb	r3, [r4, #0]
 3173 2ce8 0030D5E5 		ldrb	r3, [r5, #0]	@ zero_extendqisi2
 3174 2cec 0020D4E5 		ldrb	r2, [r4, #0]	@ zero_extendqisi2
 3175 2cf0 C8661FE5 		ldr	r6, .L267+92
 3176 2cf4 023083E0 		add	r3, r3, r2
 3177 2cf8 0030C5E5 		strb	r3, [r5, #0]
 3178 2cfc FEFFFFEB 		bl	uart0_transmit
 3179 2d00 0000D6E5 		ldrb	r0, [r6, #0]	@ zero_extendqisi2
 3180 2d04 0030D4E5 		ldrb	r3, [r4, #0]	@ zero_extendqisi2
 3181 2d08 033080E0 		add	r3, r0, r3
 3182 2d0c 0030C4E5 		strb	r3, [r4, #0]
 3183 2d10 0030D5E5 		ldrb	r3, [r5, #0]	@ zero_extendqisi2
 3184 2d14 0020D4E5 		ldrb	r2, [r4, #0]	@ zero_extendqisi2
 3185 2d18 023083E0 		add	r3, r3, r2
 3186 2d1c 0030C5E5 		strb	r3, [r5, #0]
 3187 2d20 FEFFFFEB 		bl	uart0_transmit
 3188 2d24 0100D6E5 		ldrb	r0, [r6, #1]	@ zero_extendqisi2
 3189 2d28 0030D4E5 		ldrb	r3, [r4, #0]	@ zero_extendqisi2
 3190 2d2c 033080E0 		add	r3, r0, r3
 3191 2d30 0030C4E5 		strb	r3, [r4, #0]
 3192 2d34 0030D5E5 		ldrb	r3, [r5, #0]	@ zero_extendqisi2
 3193 2d38 0020D4E5 		ldrb	r2, [r4, #0]	@ zero_extendqisi2
 3194 2d3c 023083E0 		add	r3, r3, r2
 3195 2d40 0030C5E5 		strb	r3, [r5, #0]
 3196 2d44 FEFFFFEB 		bl	uart0_transmit
 3197 2d48 0200D6E5 		ldrb	r0, [r6, #2]	@ zero_extendqisi2
 3198 2d4c 0030D4E5 		ldrb	r3, [r4, #0]	@ zero_extendqisi2
 3199 2d50 033080E0 		add	r3, r0, r3
 3200 2d54 0030C4E5 		strb	r3, [r4, #0]
 3201 2d58 0030D5E5 		ldrb	r3, [r5, #0]	@ zero_extendqisi2
 3202 2d5c 0020D4E5 		ldrb	r2, [r4, #0]	@ zero_extendqisi2
 3203 2d60 023083E0 		add	r3, r3, r2
 3204 2d64 0030C5E5 		strb	r3, [r5, #0]
 3205 2d68 FEFFFFEB 		bl	uart0_transmit
 3206 2d6c 0300D6E5 		ldrb	r0, [r6, #3]	@ zero_extendqisi2
 3207 2d70 0030D4E5 		ldrb	r3, [r4, #0]	@ zero_extendqisi2
 3208 2d74 033080E0 		add	r3, r0, r3
 3209 2d78 0030C4E5 		strb	r3, [r4, #0]
 3210 2d7c 0030D5E5 		ldrb	r3, [r5, #0]	@ zero_extendqisi2
 3211 2d80 0020D4E5 		ldrb	r2, [r4, #0]	@ zero_extendqisi2
 3212 2d84 58671FE5 		ldr	r6, .L267+96
 3213 2d88 023083E0 		add	r3, r3, r2
 3214 2d8c 0030C5E5 		strb	r3, [r5, #0]
 3215 2d90 FEFFFFEB 		bl	uart0_transmit
 3216 2d94 0000D6E5 		ldrb	r0, [r6, #0]	@ zero_extendqisi2
 3217 2d98 0030D4E5 		ldrb	r3, [r4, #0]	@ zero_extendqisi2
 3218 2d9c 033080E0 		add	r3, r0, r3
 3219 2da0 0030C4E5 		strb	r3, [r4, #0]
 3220 2da4 0030D5E5 		ldrb	r3, [r5, #0]	@ zero_extendqisi2
 3221 2da8 0020D4E5 		ldrb	r2, [r4, #0]	@ zero_extendqisi2
 3222 2dac 023083E0 		add	r3, r3, r2
 3223 2db0 0030C5E5 		strb	r3, [r5, #0]
 3224 2db4 FEFFFFEB 		bl	uart0_transmit
 3225 2db8 0100D6E5 		ldrb	r0, [r6, #1]	@ zero_extendqisi2
 3226 2dbc 0030D4E5 		ldrb	r3, [r4, #0]	@ zero_extendqisi2
 3227 2dc0 033080E0 		add	r3, r0, r3
 3228 2dc4 0030C4E5 		strb	r3, [r4, #0]
 3229 2dc8 0030D5E5 		ldrb	r3, [r5, #0]	@ zero_extendqisi2
 3230 2dcc 0020D4E5 		ldrb	r2, [r4, #0]	@ zero_extendqisi2
 3231 2dd0 023083E0 		add	r3, r3, r2
 3232 2dd4 0030C5E5 		strb	r3, [r5, #0]
 3233 2dd8 FEFFFFEB 		bl	uart0_transmit
 3234 2ddc 0200D6E5 		ldrb	r0, [r6, #2]	@ zero_extendqisi2
 3235 2de0 0030D4E5 		ldrb	r3, [r4, #0]	@ zero_extendqisi2
 3236 2de4 033080E0 		add	r3, r0, r3
 3237 2de8 0030C4E5 		strb	r3, [r4, #0]
 3238 2dec 0030D5E5 		ldrb	r3, [r5, #0]	@ zero_extendqisi2
 3239 2df0 0020D4E5 		ldrb	r2, [r4, #0]	@ zero_extendqisi2
 3240 2df4 023083E0 		add	r3, r3, r2
 3241 2df8 0030C5E5 		strb	r3, [r5, #0]
 3242 2dfc FEFFFFEB 		bl	uart0_transmit
 3243 2e00 0300D6E5 		ldrb	r0, [r6, #3]	@ zero_extendqisi2
 3244 2e04 0030D4E5 		ldrb	r3, [r4, #0]	@ zero_extendqisi2
 3245 2e08 033080E0 		add	r3, r0, r3
 3246 2e0c 0030C4E5 		strb	r3, [r4, #0]
 3247 2e10 0030D5E5 		ldrb	r3, [r5, #0]	@ zero_extendqisi2
 3248 2e14 0020D4E5 		ldrb	r2, [r4, #0]	@ zero_extendqisi2
 3249 2e18 023083E0 		add	r3, r3, r2
 3250 2e1c 0030C5E5 		strb	r3, [r5, #0]
 3251 2e20 FEFFFFEB 		bl	uart0_transmit
 3252 2e24 F4371FE5 		ldr	r3, .L267+100
 3253 2e28 0000D3E5 		ldrb	r0, [r3, #0]	@ zero_extendqisi2
 3254 2e2c 280C00EA 		b	.L255
 3255              	.L192:
 3256 2e30 120053E3 		cmp	r3, #18
 3257 2e34 CA0B001A 		bne	.L196
 3258 2e38 0C00A0E3 		mov	r0, #12
 3259 2e3c FEFFFFEB 		bl	uart0_check_free_space
 3260 2e40 FF0010E3 		tst	r0, #255
 3261 2e44 350C000A 		beq	.L201
 3262 2e48 9900A0E3 		mov	r0, #153
 3263 2e4c C0471FE5 		ldr	r4, .L267+192
 3264 2e50 FEFFFFEB 		bl	uart0_transmit
 3265 2e54 0C00A0E3 		mov	r0, #12
 3266 2e58 C8571FE5 		ldr	r5, .L267+196
 3267 2e5c FEFFFFEB 		bl	uart0_transmit
 3268 2e60 1A30A0E3 		mov	r3, #26
 3269 2e64 0030C4E5 		strb	r3, [r4, #0]
 3270 2e68 0C3083E2 		add	r3, r3, #12
 3271 2e6c 0E00A0E3 		mov	r0, #14
 3272 2e70 0030C5E5 		strb	r3, [r5, #0]
 3273 2e74 FEFFFFEB 		bl	uart0_transmit
 3274 2e78 0030D4E5 		ldrb	r3, [r4, #0]	@ zero_extendqisi2
 3275 2e7c 2F3043E2 		sub	r3, r3, #47
 3276 2e80 0030C4E5 		strb	r3, [r4, #0]
 3277 2e84 0030D5E5 		ldrb	r3, [r5, #0]	@ zero_extendqisi2
 3278 2e88 0020D4E5 		ldrb	r2, [r4, #0]	@ zero_extendqisi2
 3279 2e8c 58681FE5 		ldr	r6, .L267+104
 3280 2e90 023083E0 		add	r3, r3, r2
 3281 2e94 D100A0E3 		mov	r0, #209
 3282 2e98 0030C5E5 		strb	r3, [r5, #0]
 3283 2e9c FEFFFFEB 		bl	uart0_transmit
 3284 2ea0 0000D6E5 		ldrb	r0, [r6, #0]	@ zero_extendqisi2
 3285 2ea4 0030D4E5 		ldrb	r3, [r4, #0]	@ zero_extendqisi2
 3286 2ea8 033080E0 		add	r3, r0, r3
 3287 2eac 0030C4E5 		strb	r3, [r4, #0]
 3288 2eb0 0030D5E5 		ldrb	r3, [r5, #0]	@ zero_extendqisi2
 3289 2eb4 0020D4E5 		ldrb	r2, [r4, #0]	@ zero_extendqisi2
 3290 2eb8 023083E0 		add	r3, r3, r2
 3291 2ebc 0030C5E5 		strb	r3, [r5, #0]
 3292 2ec0 FEFFFFEB 		bl	uart0_transmit
 3293 2ec4 0100D6E5 		ldrb	r0, [r6, #1]	@ zero_extendqisi2
 3294 2ec8 0030D4E5 		ldrb	r3, [r4, #0]	@ zero_extendqisi2
 3295 2ecc 033080E0 		add	r3, r0, r3
 3296 2ed0 0030C4E5 		strb	r3, [r4, #0]
 3297 2ed4 0030D5E5 		ldrb	r3, [r5, #0]	@ zero_extendqisi2
 3298 2ed8 0020D4E5 		ldrb	r2, [r4, #0]	@ zero_extendqisi2
 3299 2edc A4681FE5 		ldr	r6, .L267+108
 3300 2ee0 023083E0 		add	r3, r3, r2
 3301 2ee4 0030C5E5 		strb	r3, [r5, #0]
 3302 2ee8 FEFFFFEB 		bl	uart0_transmit
 3303 2eec 0000D6E5 		ldrb	r0, [r6, #0]	@ zero_extendqisi2
 3304 2ef0 0030D4E5 		ldrb	r3, [r4, #0]	@ zero_extendqisi2
 3305 2ef4 033080E0 		add	r3, r0, r3
 3306 2ef8 0030C4E5 		strb	r3, [r4, #0]
 3307 2efc 0030D5E5 		ldrb	r3, [r5, #0]	@ zero_extendqisi2
 3308 2f00 0020D4E5 		ldrb	r2, [r4, #0]	@ zero_extendqisi2
 3309 2f04 023083E0 		add	r3, r3, r2
 3310 2f08 0030C5E5 		strb	r3, [r5, #0]
 3311 2f0c FEFFFFEB 		bl	uart0_transmit
 3312 2f10 0100D6E5 		ldrb	r0, [r6, #1]	@ zero_extendqisi2
 3313 2f14 0030D4E5 		ldrb	r3, [r4, #0]	@ zero_extendqisi2
 3314 2f18 033080E0 		add	r3, r0, r3
 3315 2f1c 0030C4E5 		strb	r3, [r4, #0]
 3316 2f20 E4681FE5 		ldr	r6, .L267+112
 3317 2f24 0030D5E5 		ldrb	r3, [r5, #0]	@ zero_extendqisi2
 3318 2f28 0020D4E5 		ldrb	r2, [r4, #0]	@ zero_extendqisi2
 3319 2f2c 1B0C00EA 		b	.L254
 3320              	.L196:
 3321 2f30 180053E3 		cmp	r3, #24
 3322 2f34 390C001A 		bne	.L191
 3323 2f38 0E00A0E3 		mov	r0, #14
 3324 2f3c FEFFFFEB 		bl	uart0_check_free_space
 3325 2f40 FF0010E3 		tst	r0, #255
 3326 2f44 350C000A 		beq	.L201
 3327 2f48 0E60A0E3 		mov	r6, #14
 3328 2f4c 9900A0E3 		mov	r0, #153
 3329 2f50 C4481FE5 		ldr	r4, .L267+192
 3330 2f54 FEFFFFEB 		bl	uart0_transmit
 3331 2f58 0600A0E1 		mov	r0, r6
 3332 2f5c CC581FE5 		ldr	r5, .L267+196
 3333 2f60 FEFFFFEB 		bl	uart0_transmit
 3334 2f64 1C30A0E3 		mov	r3, #28
 3335 2f68 0030C4E5 		strb	r3, [r4, #0]
 3336 2f6c 063083E0 		add	r3, r3, r6
 3337 2f70 0600A0E1 		mov	r0, r6
 3338 2f74 0030C5E5 		strb	r3, [r5, #0]
 3339 2f78 FEFFFFEB 		bl	uart0_transmit
 3340 2f7c 0030D4E5 		ldrb	r3, [r4, #0]	@ zero_extendqisi2
 3341 2f80 2E3043E2 		sub	r3, r3, #46
 3342 2f84 0030C4E5 		strb	r3, [r4, #0]
 3343 2f88 0030D5E5 		ldrb	r3, [r5, #0]	@ zero_extendqisi2
 3344 2f8c 0020D4E5 		ldrb	r2, [r4, #0]	@ zero_extendqisi2
 3345 2f90 50791FE5 		ldr	r7, .L267+116
 3346 2f94 023083E0 		add	r3, r3, r2
 3347 2f98 D200A0E3 		mov	r0, #210
 3348 2f9c 0030C5E5 		strb	r3, [r5, #0]
 3349 2fa0 FEFFFFEB 		bl	uart0_transmit
 3350 2fa4 0000D7E5 		ldrb	r0, [r7, #0]	@ zero_extendqisi2
 3351 2fa8 0030D4E5 		ldrb	r3, [r4, #0]	@ zero_extendqisi2
 3352 2fac 033080E0 		add	r3, r0, r3
 3353 2fb0 0030C4E5 		strb	r3, [r4, #0]
 3354 2fb4 0030D5E5 		ldrb	r3, [r5, #0]	@ zero_extendqisi2
 3355 2fb8 0020D4E5 		ldrb	r2, [r4, #0]	@ zero_extendqisi2
 3356 2fbc 023083E0 		add	r3, r3, r2
 3357 2fc0 0030C5E5 		strb	r3, [r5, #0]
 3358 2fc4 FEFFFFEB 		bl	uart0_transmit
 3359 2fc8 0100D7E5 		ldrb	r0, [r7, #1]	@ zero_extendqisi2
 3360 2fcc 0030D4E5 		ldrb	r3, [r4, #0]	@ zero_extendqisi2
 3361 2fd0 033080E0 		add	r3, r0, r3
 3362 2fd4 0030C4E5 		strb	r3, [r4, #0]
 3363 2fd8 0030D5E5 		ldrb	r3, [r5, #0]	@ zero_extendqisi2
 3364 2fdc 0020D4E5 		ldrb	r2, [r4, #0]	@ zero_extendqisi2
 3365 2fe0 9C691FE5 		ldr	r6, .L267+120
 3366 2fe4 023083E0 		add	r3, r3, r2
 3367 2fe8 0030C5E5 		strb	r3, [r5, #0]
 3368 2fec FEFFFFEB 		bl	uart0_transmit
 3369 2ff0 0000D6E5 		ldrb	r0, [r6, #0]	@ zero_extendqisi2
 3370 2ff4 0030D4E5 		ldrb	r3, [r4, #0]	@ zero_extendqisi2
 3371 2ff8 033080E0 		add	r3, r0, r3
 3372 2ffc 0030C4E5 		strb	r3, [r4, #0]
 3373 3000 0030D5E5 		ldrb	r3, [r5, #0]	@ zero_extendqisi2
 3374 3004 0020D4E5 		ldrb	r2, [r4, #0]	@ zero_extendqisi2
 3375 3008 023083E0 		add	r3, r3, r2
 3376 300c 0030C5E5 		strb	r3, [r5, #0]
 3377 3010 FEFFFFEB 		bl	uart0_transmit
 3378 3014 0100D6E5 		ldrb	r0, [r6, #1]	@ zero_extendqisi2
 3379 3018 0030D4E5 		ldrb	r3, [r4, #0]	@ zero_extendqisi2
 3380 301c 033080E0 		add	r3, r0, r3
 3381 3020 0030C4E5 		strb	r3, [r4, #0]
 3382 3024 0030D5E5 		ldrb	r3, [r5, #0]	@ zero_extendqisi2
 3383 3028 0020D4E5 		ldrb	r2, [r4, #0]	@ zero_extendqisi2
 3384 302c 023083E0 		add	r3, r3, r2
 3385 3030 0030C5E5 		strb	r3, [r5, #0]
 3386 3034 FEFFFFEB 		bl	uart0_transmit
 3387 3038 0000D7E5 		ldrb	r0, [r7, #0]	@ zero_extendqisi2
 3388 303c 0030D4E5 		ldrb	r3, [r4, #0]	@ zero_extendqisi2
 3389 3040 033080E0 		add	r3, r0, r3
 3390 3044 0030C4E5 		strb	r3, [r4, #0]
 3391 3048 0030D5E5 		ldrb	r3, [r5, #0]	@ zero_extendqisi2
 3392 304c 0020D4E5 		ldrb	r2, [r4, #0]	@ zero_extendqisi2
 3393 3050 023083E0 		add	r3, r3, r2
 3394 3054 0030C5E5 		strb	r3, [r5, #0]
 3395 3058 FEFFFFEB 		bl	uart0_transmit
 3396 305c 0100D7E5 		ldrb	r0, [r7, #1]	@ zero_extendqisi2
 3397 3060 0030D4E5 		ldrb	r3, [r4, #0]	@ zero_extendqisi2
 3398 3064 033080E0 		add	r3, r0, r3
 3399 3068 0030C4E5 		strb	r3, [r4, #0]
 3400 306c 0030D5E5 		ldrb	r3, [r5, #0]	@ zero_extendqisi2
 3401 3070 0020D4E5 		ldrb	r2, [r4, #0]	@ zero_extendqisi2
 3402              	.L254:
 3403 3074 023083E0 		add	r3, r3, r2
 3404 3078 0030C5E5 		strb	r3, [r5, #0]
 3405 307c FEFFFFEB 		bl	uart0_transmit
 3406 3080 0000D6E5 		ldrb	r0, [r6, #0]	@ zero_extendqisi2
 3407 3084 0030D4E5 		ldrb	r3, [r4, #0]	@ zero_extendqisi2
 3408 3088 033080E0 		add	r3, r0, r3
 3409 308c 0030C4E5 		strb	r3, [r4, #0]
 3410 3090 0030D5E5 		ldrb	r3, [r5, #0]	@ zero_extendqisi2
 3411 3094 0020D4E5 		ldrb	r2, [r4, #0]	@ zero_extendqisi2
 3412 3098 023083E0 		add	r3, r3, r2
 3413 309c 0030C5E5 		strb	r3, [r5, #0]
 3414 30a0 FEFFFFEB 		bl	uart0_transmit
 3415 30a4 0100D6E5 		ldrb	r0, [r6, #1]	@ zero_extendqisi2
 3416              	.L255:
 3417 30a8 0030D4E5 		ldrb	r3, [r4, #0]	@ zero_extendqisi2
 3418 30ac 033080E0 		add	r3, r0, r3
 3419 30b0 0030C4E5 		strb	r3, [r4, #0]
 3420 30b4 0030D5E5 		ldrb	r3, [r5, #0]	@ zero_extendqisi2
 3421 30b8 0020D4E5 		ldrb	r2, [r4, #0]	@ zero_extendqisi2
 3422 30bc 023083E0 		add	r3, r3, r2
 3423 30c0 0030C5E5 		strb	r3, [r5, #0]
 3424 30c4 FEFFFFEB 		bl	uart0_transmit
 3425 30c8 0000D4E5 		ldrb	r0, [r4, #0]	@ zero_extendqisi2
 3426 30cc FEFFFFEB 		bl	uart0_transmit
 3427 30d0 0000D5E5 		ldrb	r0, [r5, #0]	@ zero_extendqisi2
 3428 30d4 FEFFFFEB 		bl	uart0_transmit
 3429 30d8 390C00EA 		b	.L191
 3430              	.L201:
 3431 30dc 702A1FE5 		ldr	r2, .L267+160
 3432 30e0 0030D2E5 		ldrb	r3, [r2, #0]	@ zero_extendqisi2
 3433 30e4 013083E2 		add	r3, r3, #1
 3434 30e8 0030C2E5 		strb	r3, [r2, #0]
 3435              	.L191:
 3436 30ec A42A1FE5 		ldr	r2, .L267+124
 3437 30f0 B030D2E1 		ldrh	r3, [r2, #0]
 3438 30f4 1E0053E3 		cmp	r3, #30
 3439 30f8 A40C001A 		bne	.L206
 3440 30fc 0D00A0E3 		mov	r0, #13
 3441 3100 FEFFFFEB 		bl	uart0_check_free_space
 3442 3104 FF0010E3 		tst	r0, #255
 3443 3108 9C2A1F05 		ldreq	r2, .L267+160
 3444 310c 0030D205 		ldreqb	r3, [r2, #0]	@ zero_extendqisi2
 3445 3110 01308302 		addeq	r3, r3, #1
 3446 3114 0030C205 		streqb	r3, [r2, #0]
 3447 3118 A40C000A 		beq	.L206
 3448 311c 9900A0E3 		mov	r0, #153
 3449 3120 944A1FE5 		ldr	r4, .L267+192
 3450 3124 FEFFFFEB 		bl	uart0_transmit
 3451 3128 0D00A0E3 		mov	r0, #13
 3452 312c 9C5A1FE5 		ldr	r5, .L267+196
 3453 3130 FEFFFFEB 		bl	uart0_transmit
 3454 3134 1B30A0E3 		mov	r3, #27
 3455 3138 0030C4E5 		strb	r3, [r4, #0]
 3456 313c 0D3083E2 		add	r3, r3, #13
 3457 3140 0E00A0E3 		mov	r0, #14
 3458 3144 0030C5E5 		strb	r3, [r5, #0]
 3459 3148 FEFFFFEB 		bl	uart0_transmit
 3460 314c 0030D4E5 		ldrb	r3, [r4, #0]	@ zero_extendqisi2
 3461 3150 0B3083E2 		add	r3, r3, #11
 3462 3154 0030C4E5 		strb	r3, [r4, #0]
 3463 3158 0030D5E5 		ldrb	r3, [r5, #0]	@ zero_extendqisi2
 3464 315c 0020D4E5 		ldrb	r2, [r4, #0]	@ zero_extendqisi2
 3465 3160 023083E0 		add	r3, r3, r2
 3466 3164 0B00A0E3 		mov	r0, #11
 3467 3168 0030C5E5 		strb	r3, [r5, #0]
 3468 316c FEFFFFEB 		bl	uart0_transmit
 3469 3170 243B1FE5 		ldr	r3, .L267+128
 3470 3174 0000D3E5 		ldrb	r0, [r3, #0]	@ zero_extendqisi2
 3471 3178 0030D4E5 		ldrb	r3, [r4, #0]	@ zero_extendqisi2
 3472 317c 033080E0 		add	r3, r0, r3
 3473 3180 0030C4E5 		strb	r3, [r4, #0]
 3474 3184 0030D5E5 		ldrb	r3, [r5, #0]	@ zero_extendqisi2
 3475 3188 0020D4E5 		ldrb	r2, [r4, #0]	@ zero_extendqisi2
 3476 318c 023083E0 		add	r3, r3, r2
 3477 3190 0030C5E5 		strb	r3, [r5, #0]
 3478 3194 FEFFFFEB 		bl	uart0_transmit
 3479 3198 483B1FE5 		ldr	r3, .L267+132
 3480 319c 0000D3E5 		ldrb	r0, [r3, #0]	@ zero_extendqisi2
 3481 31a0 0030D4E5 		ldrb	r3, [r4, #0]	@ zero_extendqisi2
 3482 31a4 033080E0 		add	r3, r0, r3
 3483 31a8 0030C4E5 		strb	r3, [r4, #0]
 3484 31ac 0030D5E5 		ldrb	r3, [r5, #0]	@ zero_extendqisi2
 3485 31b0 0020D4E5 		ldrb	r2, [r4, #0]	@ zero_extendqisi2
 3486 31b4 023083E0 		add	r3, r3, r2
 3487 31b8 0030C5E5 		strb	r3, [r5, #0]
 3488 31bc FEFFFFEB 		bl	uart0_transmit
 3489 31c0 6C3B1FE5 		ldr	r3, .L267+136
 3490 31c4 0000D3E5 		ldrb	r0, [r3, #0]	@ zero_extendqisi2
 3491 31c8 0030D4E5 		ldrb	r3, [r4, #0]	@ zero_extendqisi2
 3492 31cc 033080E0 		add	r3, r0, r3
 3493 31d0 0030C4E5 		strb	r3, [r4, #0]
 3494 31d4 0030D5E5 		ldrb	r3, [r5, #0]	@ zero_extendqisi2
 3495 31d8 0020D4E5 		ldrb	r2, [r4, #0]	@ zero_extendqisi2
 3496 31dc 023083E0 		add	r3, r3, r2
 3497 31e0 0030C5E5 		strb	r3, [r5, #0]
 3498 31e4 FEFFFFEB 		bl	uart0_transmit
 3499 31e8 903B1FE5 		ldr	r3, .L267+140
 3500 31ec 0000D3E5 		ldrb	r0, [r3, #0]	@ zero_extendqisi2
 3501 31f0 0030D4E5 		ldrb	r3, [r4, #0]	@ zero_extendqisi2
 3502 31f4 033080E0 		add	r3, r0, r3
 3503 31f8 0030C4E5 		strb	r3, [r4, #0]
 3504 31fc 0030D5E5 		ldrb	r3, [r5, #0]	@ zero_extendqisi2
 3505 3200 0020D4E5 		ldrb	r2, [r4, #0]	@ zero_extendqisi2
 3506 3204 023083E0 		add	r3, r3, r2
 3507 3208 0030C5E5 		strb	r3, [r5, #0]
 3508 320c FEFFFFEB 		bl	uart0_transmit
 3509 3210 B43B1FE5 		ldr	r3, .L267+144
 3510 3214 0000D3E5 		ldrb	r0, [r3, #0]	@ zero_extendqisi2
 3511 3218 0030D4E5 		ldrb	r3, [r4, #0]	@ zero_extendqisi2
 3512 321c 033080E0 		add	r3, r0, r3
 3513 3220 0030C4E5 		strb	r3, [r4, #0]
 3514 3224 0030D5E5 		ldrb	r3, [r5, #0]	@ zero_extendqisi2
 3515 3228 0020D4E5 		ldrb	r2, [r4, #0]	@ zero_extendqisi2
 3516 322c 023083E0 		add	r3, r3, r2
 3517 3230 0030C5E5 		strb	r3, [r5, #0]
 3518 3234 FEFFFFEB 		bl	uart0_transmit
 3519 3238 D83B1FE5 		ldr	r3, .L267+148
 3520 323c 0000D3E5 		ldrb	r0, [r3, #0]	@ zero_extendqisi2
 3521 3240 0030D4E5 		ldrb	r3, [r4, #0]	@ zero_extendqisi2
 3522 3244 033080E0 		add	r3, r0, r3
 3523 3248 0030C4E5 		strb	r3, [r4, #0]
 3524 324c 0030D5E5 		ldrb	r3, [r5, #0]	@ zero_extendqisi2
 3525 3250 0020D4E5 		ldrb	r2, [r4, #0]	@ zero_extendqisi2
 3526 3254 023083E0 		add	r3, r3, r2
 3527 3258 0030C5E5 		strb	r3, [r5, #0]
 3528 325c FEFFFFEB 		bl	uart0_transmit
 3529 3260 FC3B1FE5 		ldr	r3, .L267+152
 3530 3264 0000D3E5 		ldrb	r0, [r3, #0]	@ zero_extendqisi2
 3531 3268 0030D4E5 		ldrb	r3, [r4, #0]	@ zero_extendqisi2
 3532 326c 033080E0 		add	r3, r0, r3
 3533 3270 0030C4E5 		strb	r3, [r4, #0]
 3534 3274 0030D5E5 		ldrb	r3, [r5, #0]	@ zero_extendqisi2
 3535 3278 0020D4E5 		ldrb	r2, [r4, #0]	@ zero_extendqisi2
 3536 327c 023083E0 		add	r3, r3, r2
 3537 3280 0030C5E5 		strb	r3, [r5, #0]
 3538 3284 FEFFFFEB 		bl	uart0_transmit
 3539 3288 0000D4E5 		ldrb	r0, [r4, #0]	@ zero_extendqisi2
 3540 328c FEFFFFEB 		bl	uart0_transmit
 3541 3290 0000D5E5 		ldrb	r0, [r5, #0]	@ zero_extendqisi2
 3542 3294 FEFFFFEB 		bl	uart0_transmit
 3543              	.L206:
 3544 3298 302C1FE5 		ldr	r2, .L267+156
 3545 329c B030D2E1 		ldrh	r3, [r2, #0]
 3546 32a0 300053E3 		cmp	r3, #48
 3547 32a4 1D0D001A 		bne	.L80
 3548 32a8 0F00A0E3 		mov	r0, #15
 3549 32ac FEFFFFEB 		bl	uart0_check_free_space
 3550 32b0 FF0010E3 		tst	r0, #255
 3551 32b4 482C1F05 		ldreq	r2, .L267+160
 3552 32b8 0030D205 		ldreqb	r3, [r2, #0]	@ zero_extendqisi2
 3553 32bc 01308302 		addeq	r3, r3, #1
 3554 32c0 0030C205 		streqb	r3, [r2, #0]
 3555 32c4 1D0D000A 		beq	.L80
 3556 32c8 9900A0E3 		mov	r0, #153
 3557 32cc 404C1FE5 		ldr	r4, .L267+192
 3558 32d0 FEFFFFEB 		bl	uart0_transmit
 3559 32d4 0F00A0E3 		mov	r0, #15
 3560 32d8 485C1FE5 		ldr	r5, .L267+196
 3561 32dc FEFFFFEB 		bl	uart0_transmit
 3562 32e0 1D30A0E3 		mov	r3, #29
 3563 32e4 0030C4E5 		strb	r3, [r4, #0]
 3564 32e8 0F3083E2 		add	r3, r3, #15
 3565 32ec 0E00A0E3 		mov	r0, #14
 3566 32f0 0030C5E5 		strb	r3, [r5, #0]
 3567 32f4 FEFFFFEB 		bl	uart0_transmit
 3568 32f8 0030D4E5 		ldrb	r3, [r4, #0]	@ zero_extendqisi2
 3569 32fc 093083E2 		add	r3, r3, #9
 3570 3300 0030C4E5 		strb	r3, [r4, #0]
 3571 3304 0030D5E5 		ldrb	r3, [r5, #0]	@ zero_extendqisi2
 3572 3308 0020D4E5 		ldrb	r2, [r4, #0]	@ zero_extendqisi2
 3573 330c 9C6C1FE5 		ldr	r6, .L267+164
 3574 3310 023083E0 		add	r3, r3, r2
 3575 3314 0900A0E3 		mov	r0, #9
 3576 3318 0030C5E5 		strb	r3, [r5, #0]
 3577 331c FEFFFFEB 		bl	uart0_transmit
 3578 3320 0000D6E5 		ldrb	r0, [r6, #0]	@ zero_extendqisi2
 3579 3324 0030D4E5 		ldrb	r3, [r4, #0]	@ zero_extendqisi2
 3580 3328 033080E0 		add	r3, r0, r3
 3581 332c 0030C4E5 		strb	r3, [r4, #0]
 3582 3330 0030D5E5 		ldrb	r3, [r5, #0]	@ zero_extendqisi2
 3583 3334 0020D4E5 		ldrb	r2, [r4, #0]	@ zero_extendqisi2
 3584 3338 023083E0 		add	r3, r3, r2
 3585 333c 0030C5E5 		strb	r3, [r5, #0]
 3586 3340 FEFFFFEB 		bl	uart0_transmit
 3587 3344 0100D6E5 		ldrb	r0, [r6, #1]	@ zero_extendqisi2
 3588 3348 0030D4E5 		ldrb	r3, [r4, #0]	@ zero_extendqisi2
 3589 334c 033080E0 		add	r3, r0, r3
 3590 3350 0030C4E5 		strb	r3, [r4, #0]
 3591 3354 0030D5E5 		ldrb	r3, [r5, #0]	@ zero_extendqisi2
 3592 3358 0020D4E5 		ldrb	r2, [r4, #0]	@ zero_extendqisi2
 3593 335c 023083E0 		add	r3, r3, r2
 3594 3360 0030C5E5 		strb	r3, [r5, #0]
 3595 3364 FEFFFFEB 		bl	uart0_transmit
 3596 3368 0200D6E5 		ldrb	r0, [r6, #2]	@ zero_extendqisi2
 3597 336c 0030D4E5 		ldrb	r3, [r4, #0]	@ zero_extendqisi2
 3598 3370 033080E0 		add	r3, r0, r3
 3599 3374 0030C4E5 		strb	r3, [r4, #0]
 3600 3378 0030D5E5 		ldrb	r3, [r5, #0]	@ zero_extendqisi2
 3601 337c 0020D4E5 		ldrb	r2, [r4, #0]	@ zero_extendqisi2
 3602 3380 023083E0 		add	r3, r3, r2
 3603 3384 0030C5E5 		strb	r3, [r5, #0]
 3604 3388 FEFFFFEB 		bl	uart0_transmit
 3605 338c 0300D6E5 		ldrb	r0, [r6, #3]	@ zero_extendqisi2
 3606 3390 0030D4E5 		ldrb	r3, [r4, #0]	@ zero_extendqisi2
 3607 3394 033080E0 		add	r3, r0, r3
 3608 3398 0030C4E5 		strb	r3, [r4, #0]
 3609 339c 0030D5E5 		ldrb	r3, [r5, #0]	@ zero_extendqisi2
 3610 33a0 0020D4E5 		ldrb	r2, [r4, #0]	@ zero_extendqisi2
 3611 33a4 306D1FE5 		ldr	r6, .L267+168
 3612 33a8 023083E0 		add	r3, r3, r2
 3613 33ac 0030C5E5 		strb	r3, [r5, #0]
 3614 33b0 FEFFFFEB 		bl	uart0_transmit
 3615 33b4 0000D6E5 		ldrb	r0, [r6, #0]	@ zero_extendqisi2
 3616 33b8 0030D4E5 		ldrb	r3, [r4, #0]	@ zero_extendqisi2
 3617 33bc 033080E0 		add	r3, r0, r3
 3618 33c0 0030C4E5 		strb	r3, [r4, #0]
 3619 33c4 0030D5E5 		ldrb	r3, [r5, #0]	@ zero_extendqisi2
 3620 33c8 0020D4E5 		ldrb	r2, [r4, #0]	@ zero_extendqisi2
 3621 33cc 023083E0 		add	r3, r3, r2
 3622 33d0 0030C5E5 		strb	r3, [r5, #0]
 3623 33d4 FEFFFFEB 		bl	uart0_transmit
 3624 33d8 0100D6E5 		ldrb	r0, [r6, #1]	@ zero_extendqisi2
 3625 33dc 0030D4E5 		ldrb	r3, [r4, #0]	@ zero_extendqisi2
 3626 33e0 033080E0 		add	r3, r0, r3
 3627 33e4 0030C4E5 		strb	r3, [r4, #0]
 3628 33e8 0030D5E5 		ldrb	r3, [r5, #0]	@ zero_extendqisi2
 3629 33ec 0020D4E5 		ldrb	r2, [r4, #0]	@ zero_extendqisi2
 3630 33f0 023083E0 		add	r3, r3, r2
 3631 33f4 0030C5E5 		strb	r3, [r5, #0]
 3632 33f8 FEFFFFEB 		bl	uart0_transmit
 3633 33fc 0200D6E5 		ldrb	r0, [r6, #2]	@ zero_extendqisi2
 3634 3400 0030D4E5 		ldrb	r3, [r4, #0]	@ zero_extendqisi2
 3635 3404 033080E0 		add	r3, r0, r3
 3636 3408 0030C4E5 		strb	r3, [r4, #0]
 3637 340c 0030D5E5 		ldrb	r3, [r5, #0]	@ zero_extendqisi2
 3638 3410 0020D4E5 		ldrb	r2, [r4, #0]	@ zero_extendqisi2
 3639 3414 023083E0 		add	r3, r3, r2
 3640 3418 0030C5E5 		strb	r3, [r5, #0]
 3641 341c FEFFFFEB 		bl	uart0_transmit
 3642 3420 0300D6E5 		ldrb	r0, [r6, #3]	@ zero_extendqisi2
 3643 3424 0030D4E5 		ldrb	r3, [r4, #0]	@ zero_extendqisi2
 3644 3428 033080E0 		add	r3, r0, r3
 3645 342c 0030C4E5 		strb	r3, [r4, #0]
 3646 3430 0030D5E5 		ldrb	r3, [r5, #0]	@ zero_extendqisi2
 3647 3434 0020D4E5 		ldrb	r2, [r4, #0]	@ zero_extendqisi2
 3648 3438 023083E0 		add	r3, r3, r2
 3649 343c 0030C5E5 		strb	r3, [r5, #0]
 3650 3440 FEFFFFEB 		bl	uart0_transmit
 3651 3444 CC3D1FE5 		ldr	r3, .L267+172
 3652 3448 0000D3E5 		ldrb	r0, [r3, #0]	@ zero_extendqisi2
 3653 344c 0030D4E5 		ldrb	r3, [r4, #0]	@ zero_extendqisi2
 3654 3450 033080E0 		add	r3, r0, r3
 3655 3454 0030C4E5 		strb	r3, [r4, #0]
 3656 3458 0030D5E5 		ldrb	r3, [r5, #0]	@ zero_extendqisi2
 3657 345c 0020D4E5 		ldrb	r2, [r4, #0]	@ zero_extendqisi2
 3658 3460 023083E0 		add	r3, r3, r2
 3659 3464 0030C5E5 		strb	r3, [r5, #0]
 3660 3468 FEFFFFEB 		bl	uart0_transmit
 3661 346c 0000D4E5 		ldrb	r0, [r4, #0]	@ zero_extendqisi2
 3662 3470 FEFFFFEB 		bl	uart0_transmit
 3663 3474 0000D5E5 		ldrb	r0, [r5, #0]	@ zero_extendqisi2
 3664 3478 FEFFFFEB 		bl	uart0_transmit
 3665              	.L80:
 3666 347c 002E1FE5 		ldr	r2, .L267+176
 3667 3480 0030D2E5 		ldrb	r3, [r2, #0]	@ zero_extendqisi2
 3668 3484 010053E3 		cmp	r3, #1
 3669 3488 C70D001A 		bne	.L223
 3670 348c 0C0E1FE5 		ldr	r0, .L267+180
 3671 3490 0030D0E5 		ldrb	r3, [r0, #0]	@ zero_extendqisi2
 3672 3494 013083E2 		add	r3, r3, #1
 3673 3498 0030C0E5 		strb	r3, [r0, #0]
 3674 349c 0030D0E5 		ldrb	r3, [r0, #0]	@ zero_extendqisi2
 3675 34a0 1D0053E3 		cmp	r3, #29
 3676 34a4 0030A083 		movhi	r3, #0
 3677 34a8 0030C085 		strhib	r3, [r0, #0]
 3678 34ac 0060D0E5 		ldrb	r6, [r0, #0]	@ zero_extendqisi2
 3679 34b0 000056E3 		cmp	r6, #0
 3680 34b4 4C0D001A 		bne	.L215
 3681 34b8 343E1FE5 		ldr	r3, .L267+184
 3682 34bc B030D3E1 		ldrh	r3, [r3, #0]
 3683 34c0 000053E3 		cmp	r3, #0
 3684 34c4 C70D001A 		bne	.L223
 3685 34c8 403E1FE5 		ldr	r3, .L267+188
 3686 34cc 0030D3E5 		ldrb	r3, [r3, #0]	@ zero_extendqisi2
 3687 34d0 010053E3 		cmp	r3, #1
 3688 34d4 C70D001A 		bne	.L223
 3689 34d8 0600A0E3 		mov	r0, #6
 3690 34dc FEFFFFEB 		bl	uart0_check_free_space
 3691 34e0 FF0010E3 		tst	r0, #255
 3692 34e4 C30D000A 		beq	.L221
 3693 34e8 9900A0E3 		mov	r0, #153
 3694 34ec FEFFFFEB 		bl	uart0_transmit
 3695 34f0 644E1FE5 		ldr	r4, .L267+192
 3696 34f4 0600A0E3 		mov	r0, #6
 3697 34f8 FEFFFFEB 		bl	uart0_transmit
 3698 34fc 6C5E1FE5 		ldr	r5, .L267+196
 3699 3500 1430A0E3 		mov	r3, #20
 3700 3504 0030C4E5 		strb	r3, [r4, #0]
 3701 3508 063083E2 		add	r3, r3, #6
 3702 350c 0E00A0E3 		mov	r0, #14
 3703 3510 0030C5E5 		strb	r3, [r5, #0]
 3704 3514 FEFFFFEB 		bl	uart0_transmit
 3705 3518 0030D4E5 		ldrb	r3, [r4, #0]	@ zero_extendqisi2
 3706 351c 023083E2 		add	r3, r3, #2
 3707 3520 0030C4E5 		strb	r3, [r4, #0]
 3708 3524 0030D5E5 		ldrb	r3, [r5, #0]	@ zero_extendqisi2
 3709 3528 0020D4E5 		ldrb	r2, [r4, #0]	@ zero_extendqisi2
 3710 352c 0200A0E3 		mov	r0, #2
 3711 3530 023083E0 		add	r3, r3, r2
 3712 3534 BC0D00EA 		b	.L256
 3713              	.L215:
 3714 3538 060056E3 		cmp	r6, #6
 3715 353c C70D001A 		bne	.L223
 3716 3540 AC3E1FE5 		ldr	r3, .L267+200
 3717 3544 000093E5 		ldr	r0, [r3, #0]	@ float
 3718 3548 FEFFFFEB 		bl	__extendsfdf2
 3719 354c D32F8FE2 		adr	r2, .L269
 3720 3550 0C0092E8 		ldmia	r2, {r2-r3}
 3721 3554 FEFFFFEB 		bl	__divdf3
 3722 3558 D22F8FE2 		adr	r2, .L269+8
 3723 355c 0C0092E8 		ldmia	r2, {r2-r3}
 3724 3560 FEFFFFEB 		bl	__muldf3
 3725 3564 FEFFFFEB 		bl	__fixdfsi
 3726 3568 58339FE5 		ldr	r3, .L269+40
 3727 356c B4034BE1 		strh	r0, [fp, #-52]	@ movhi 
 3728 3570 000093E5 		ldr	r0, [r3, #0]	@ float
 3729 3574 FEFFFFEB 		bl	__extendsfdf2
 3730 3578 322E8FE2 		adr	r2, .L269
 3731 357c 0C0092E8 		ldmia	r2, {r2-r3}
 3732 3580 FEFFFFEB 		bl	__divdf3
 3733 3584 C72F8FE2 		adr	r2, .L269+8
 3734 3588 0C0092E8 		ldmia	r2, {r2-r3}
 3735 358c FEFFFFEB 		bl	__muldf3
 3736 3590 FEFFFFEB 		bl	__fixdfsi
 3737 3594 30339FE5 		ldr	r3, .L269+44
 3738 3598 B6034BE1 		strh	r0, [fp, #-54]	@ movhi 
 3739 359c 000093E5 		ldr	r0, [r3, #0]	@ float
 3740 35a0 FEFFFFEB 		bl	__extendsfdf2
 3741 35a4 BD2F8FE2 		adr	r2, .L269
 3742 35a8 0C0092E8 		ldmia	r2, {r2-r3}
 3743 35ac FEFFFFEB 		bl	__divdf3
 3744 35b0 2F2E8FE2 		adr	r2, .L269+8
 3745 35b4 0C0092E8 		ldmia	r2, {r2-r3}
 3746 35b8 FEFFFFEB 		bl	__muldf3
 3747 35bc FEFFFFEB 		bl	__fixdfsi
 3748 35c0 B8034BE1 		strh	r0, [fp, #-56]	@ movhi 
 3749 35c4 0C00A0E3 		mov	r0, #12
 3750 35c8 FEFFFFEB 		bl	uart0_check_free_space
 3751 35cc FF0010E3 		tst	r0, #255
 3752 35d0 C30D000A 		beq	.L221
 3753 35d4 9900A0E3 		mov	r0, #153
 3754 35d8 30439FE5 		ldr	r4, .L269+112
 3755 35dc FEFFFFEB 		bl	uart0_transmit
 3756 35e0 0C00A0E3 		mov	r0, #12
 3757 35e4 28539FE5 		ldr	r5, .L269+116
 3758 35e8 FEFFFFEB 		bl	uart0_transmit
 3759 35ec 1A30A0E3 		mov	r3, #26
 3760 35f0 0030C4E5 		strb	r3, [r4, #0]
 3761 35f4 0C3083E2 		add	r3, r3, #12
 3762 35f8 0E00A0E3 		mov	r0, #14
 3763 35fc 0030C5E5 		strb	r3, [r5, #0]
 3764 3600 FEFFFFEB 		bl	uart0_transmit
 3765 3604 0030D4E5 		ldrb	r3, [r4, #0]	@ zero_extendqisi2
 3766 3608 063083E2 		add	r3, r3, #6
 3767 360c 0030C4E5 		strb	r3, [r4, #0]
 3768 3610 0030D5E5 		ldrb	r3, [r5, #0]	@ zero_extendqisi2
 3769 3614 0020D4E5 		ldrb	r2, [r4, #0]	@ zero_extendqisi2
 3770 3618 023083E0 		add	r3, r3, r2
 3771 361c 0600A0E1 		mov	r0, r6
 3772 3620 0030C5E5 		strb	r3, [r5, #0]
 3773 3624 FEFFFFEB 		bl	uart0_transmit
 3774 3628 34005BE5 		ldrb	r0, [fp, #-52]	@ zero_extendqisi2
 3775 362c 0030D4E5 		ldrb	r3, [r4, #0]	@ zero_extendqisi2
 3776 3630 033080E0 		add	r3, r0, r3
 3777 3634 0030C4E5 		strb	r3, [r4, #0]
 3778 3638 0030D5E5 		ldrb	r3, [r5, #0]	@ zero_extendqisi2
 3779 363c 0020D4E5 		ldrb	r2, [r4, #0]	@ zero_extendqisi2
 3780 3640 023083E0 		add	r3, r3, r2
 3781 3644 0030C5E5 		strb	r3, [r5, #0]
 3782 3648 FEFFFFEB 		bl	uart0_transmit
 3783 364c 33005BE5 		ldrb	r0, [fp, #-51]	@ zero_extendqisi2
 3784 3650 0030D4E5 		ldrb	r3, [r4, #0]	@ zero_extendqisi2
 3785 3654 033080E0 		add	r3, r0, r3
 3786 3658 0030C4E5 		strb	r3, [r4, #0]
 3787 365c 0030D5E5 		ldrb	r3, [r5, #0]	@ zero_extendqisi2
 3788 3660 0020D4E5 		ldrb	r2, [r4, #0]	@ zero_extendqisi2
 3789 3664 023083E0 		add	r3, r3, r2
 3790 3668 0030C5E5 		strb	r3, [r5, #0]
 3791 366c FEFFFFEB 		bl	uart0_transmit
 3792 3670 36005BE5 		ldrb	r0, [fp, #-54]	@ zero_extendqisi2
 3793 3674 0030D4E5 		ldrb	r3, [r4, #0]	@ zero_extendqisi2
 3794 3678 033080E0 		add	r3, r0, r3
 3795 367c 0030C4E5 		strb	r3, [r4, #0]
 3796 3680 0030D5E5 		ldrb	r3, [r5, #0]	@ zero_extendqisi2
 3797 3684 0020D4E5 		ldrb	r2, [r4, #0]	@ zero_extendqisi2
 3798 3688 023083E0 		add	r3, r3, r2
 3799 368c 0030C5E5 		strb	r3, [r5, #0]
 3800 3690 FEFFFFEB 		bl	uart0_transmit
 3801 3694 35005BE5 		ldrb	r0, [fp, #-53]	@ zero_extendqisi2
 3802 3698 0030D4E5 		ldrb	r3, [r4, #0]	@ zero_extendqisi2
 3803 369c 033080E0 		add	r3, r0, r3
 3804 36a0 0030C4E5 		strb	r3, [r4, #0]
 3805 36a4 0030D5E5 		ldrb	r3, [r5, #0]	@ zero_extendqisi2
 3806 36a8 0020D4E5 		ldrb	r2, [r4, #0]	@ zero_extendqisi2
 3807 36ac 023083E0 		add	r3, r3, r2
 3808 36b0 0030C5E5 		strb	r3, [r5, #0]
 3809 36b4 FEFFFFEB 		bl	uart0_transmit
 3810 36b8 38005BE5 		ldrb	r0, [fp, #-56]	@ zero_extendqisi2
 3811 36bc 0030D4E5 		ldrb	r3, [r4, #0]	@ zero_extendqisi2
 3812 36c0 033080E0 		add	r3, r0, r3
 3813 36c4 0030C4E5 		strb	r3, [r4, #0]
 3814 36c8 0030D5E5 		ldrb	r3, [r5, #0]	@ zero_extendqisi2
 3815 36cc 0020D4E5 		ldrb	r2, [r4, #0]	@ zero_extendqisi2
 3816 36d0 023083E0 		add	r3, r3, r2
 3817 36d4 0030C5E5 		strb	r3, [r5, #0]
 3818 36d8 FEFFFFEB 		bl	uart0_transmit
 3819 36dc 37005BE5 		ldrb	r0, [fp, #-55]	@ zero_extendqisi2
 3820 36e0 0030D4E5 		ldrb	r3, [r4, #0]	@ zero_extendqisi2
 3821 36e4 033080E0 		add	r3, r0, r3
 3822 36e8 0030C4E5 		strb	r3, [r4, #0]
 3823 36ec 0030D5E5 		ldrb	r3, [r5, #0]	@ zero_extendqisi2
 3824 36f0 0020D4E5 		ldrb	r2, [r4, #0]	@ zero_extendqisi2
 3825 36f4 023083E0 		add	r3, r3, r2
 3826              	.L256:
 3827 36f8 0030C5E5 		strb	r3, [r5, #0]
 3828 36fc FEFFFFEB 		bl	uart0_transmit
 3829 3700 0000D4E5 		ldrb	r0, [r4, #0]	@ zero_extendqisi2
 3830 3704 FEFFFFEB 		bl	uart0_transmit
 3831 3708 0000D5E5 		ldrb	r0, [r5, #0]	@ zero_extendqisi2
 3832 370c FEFFFFEB 		bl	uart0_transmit
 3833 3710 C70D00EA 		b	.L223
 3834              	.L221:
 3835 3714 08229FE5 		ldr	r2, .L269+132
 3836 3718 0030D2E5 		ldrb	r3, [r2, #0]	@ zero_extendqisi2
 3837 371c 013083E2 		add	r3, r3, #1
 3838 3720 0030C2E5 		strb	r3, [r2, #0]
 3839              	.L223:
 3840 3724 A4219FE5 		ldr	r2, .L269+48
 3841 3728 0030D2E5 		ldrb	r3, [r2, #0]	@ zero_extendqisi2
 3842 372c 000053E3 		cmp	r3, #0
 3843 3730 D30D001A 		bne	.L224
 3844 3734 98419FE5 		ldr	r4, .L269+52
 3845 3738 000094E5 		ldr	r0, [r4, #0]	@ float
 3846 373c FEFFFFEB 		bl	__extendsfdf2
 3847 3740 5A2F8FE2 		adr	r2, .L269+16
 3848 3744 0C0092E8 		ldmia	r2, {r2-r3}
 3849 3748 FEFFFFEB 		bl	__adddf3
 3850 374c FEFFFFEB 		bl	__truncdfsf2
 3851 3750 000084E5 		str	r0, [r4, #0]	@ float
 3852              	.L224:
 3853 3754 7C319FE5 		ldr	r3, .L269+56
 3854 3758 0070D3E5 		ldrb	r7, [r3, #0]	@ zero_extendqisi2
 3855 375c 000057E3 		cmp	r7, #0
 3856 3760 160E001A 		bne	.L232
 3857 3764 90219FE5 		ldr	r2, .L269+92
 3858 3768 B030D2E1 		ldrh	r3, [r2, #0]
 3859 376c 60619FE5 		ldr	r6, .L269+52
 3860 3770 000053E3 		cmp	r3, #0
 3861 3774 01308312 		addne	r3, r3, #1
 3862 3778 B030C211 		strneh	r3, [r2, #0]	@ movhi 
 3863 377c 000096E5 		ldr	r0, [r6, #0]	@ float
 3864 3780 FEFFFFEB 		bl	__extendsfdf2
 3865 3784 4B2F8FE2 		adr	r2, .L269+24
 3866 3788 0C0092E8 		ldmia	r2, {r2-r3}
 3867 378c FEFFFFEB 		bl	__adddf3
 3868 3790 FEFFFFEB 		bl	__fixdfsi
 3869 3794 0008A0E1 		mov	r0, r0, asl #16
 3870 3798 4008A0E1 		mov	r0, r0, asr #16
 3871 379c FEFFFFEB 		bl	__floatsisf
 3872 37a0 34419FE5 		ldr	r4, .L269+60
 3873 37a4 34E19FE5 		ldr	lr, .L269+64
 3874 37a8 7C519FE5 		ldr	r5, .L269+140
 3875 37ac B020DEE1 		ldrh	r2, [lr, #0]
 3876 37b0 B010D4E1 		ldrh	r1, [r4, #0]
 3877 37b4 B0C0D5E1 		ldrh	ip, [r5, #0]
 3878 37b8 24319FE5 		ldr	r3, .L269+68
 3879 37bc 012082E2 		add	r2, r2, #1
 3880 37c0 01C08CE2 		add	ip, ip, #1
 3881 37c4 011081E2 		add	r1, r1, #1
 3882 37c8 000086E5 		str	r0, [r6, #0]	@ float
 3883 37cc B020CEE1 		strh	r2, [lr, #0]	@ movhi 
 3884 37d0 B0C0C5E1 		strh	ip, [r5, #0]	@ movhi 
 3885 37d4 0000D3E5 		ldrb	r0, [r3, #0]	@ zero_extendqisi2
 3886 37d8 B010C4E1 		strh	r1, [r4, #0]	@ movhi 
 3887 37dc FEFFFFEB 		bl	__floatsidf
 3888 37e0 D8208FE2 		adr	r2, .L269+32
 3889 37e4 0C0092E8 		ldmia	r2, {r2-r3}
 3890 37e8 FEFFFFEB 		bl	__ltdf2
 3891 37ec F4209FE5 		ldr	r2, .L269+72
 3892 37f0 000050E3 		cmp	r0, #0
 3893 37f4 0030D2B5 		ldrltb	r3, [r2, #0]	@ zero_extendqisi2
 3894 37f8 013083B2 		addlt	r3, r3, #1
 3895 37fc 0030C2B5 		strltb	r3, [r2, #0]
 3896 3800 FC309FE5 		ldr	r3, .L269+100
 3897 3804 0070C2A5 		strgeb	r7, [r2, #0]
 3898 3808 DC009FE5 		ldr	r0, .L269+76
 3899 380c 0010D3E5 		ldrb	r1, [r3, #0]	@ zero_extendqisi2
 3900 3810 D0309FE5 		ldr	r3, .L269+72
 3901 3814 0020D3E5 		ldrb	r2, [r3, #0]	@ zero_extendqisi2
 3902 3818 0030D0E5 		ldrb	r3, [r0, #0]	@ zero_extendqisi2
 3903 381c C8609FE5 		ldr	r6, .L269+76
 3904 3820 040052E3 		cmp	r2, #4
 3905 3824 01308383 		orrhi	r3, r3, #1
 3906 3828 000051E3 		cmp	r1, #0
 3907 382c 0030C0E5 		strb	r3, [r0, #0]
 3908 3830 0650A0E1 		mov	r5, r6
 3909 3834 0040A0E3 		mov	r4, #0
 3910 3838 130E000A 		beq	.L230
 3911 383c AC309FE5 		ldr	r3, .L269+80
 3912 3840 AC109FE5 		ldr	r1, .L269+84
 3913 3844 000093E5 		ldr	r0, [r3, #0]	@ float
 3914 3848 FEFFFFEB 		bl	__gtsf2
 3915 384c 000050E3 		cmp	r0, #0
 3916 3850 0140A0C3 		movgt	r4, #1
 3917              	.L230:
 3918 3854 0030D5E5 		ldrb	r3, [r5, #0]	@ zero_extendqisi2
 3919 3858 043083E1 		orr	r3, r3, r4
 3920 385c 0030C6E5 		strb	r3, [r6, #0]
 3921              	.L232:
 3922 3860 90209FE5 		ldr	r2, .L269+88
 3923 3864 0030D2E5 		ldrb	r3, [r2, #0]	@ zero_extendqisi2
 3924 3868 050053E3 		cmp	r3, #5
 3925 386c 03F19F97 		ldrls	pc, [pc, r3, asl #2]
 3926 3870 1F0F00EA 		b	.L233
 3927              		.p2align 2
 3928              	.L246:
 3929 3874 8C380000 		.word	.L234
 3930 3878 48390000 		.word	.L235
 3931 387c 843C0000 		.word	.L233
 3932 3880 143A0000 		.word	.L240
 3933 3884 843C0000 		.word	.L233
 3934 3888 3C3A0000 		.word	.L243
 3935              	.L234:
 3936 388c FEFFFFEB 		bl	estimator_propagate_state
 3937 3890 1E0100EB 		bl	checkGPS
 3938 3894 1F0200EB 		bl	navigation_task
 3939 3898 0D0300EB 		bl	guidance_task
 3940 389c 1F0F00EA 		b	.L233
 3941              	.L270:
 3942              		.align	2
 3943              	.L269:
 3944 38a0 FB210940 		.word	1074340347
 3945 38a4 182D4454 		.word	1413754136
 3946 38a8 00806640 		.word	1080459264
 3947 38ac 00000000 		.word	0
 3948 38b0 9999B93F 		.word	1069128089
 3949 38b4 9A999999 		.word	-1717986918
 3950 38b8 0000E03F 		.word	1071644672
 3951 38bc 00000000 		.word	0
 3952 38c0 00405740 		.word	1079459840
 3953 38c4 00000000 		.word	0
 3954 38c8 00000000 		.word	estimator_psi
 3955 38cc 00000000 		.word	estimator_theta
 3956 38d0 11000000 		.word	_10Hz.1
 3957 38d4 00000000 		.word	stage_time_ds
 3958 38d8 13000000 		.word	_1Hz.3
 3959 38dc 00000000 		.word	block_time
 3960 38e0 00000000 		.word	stage_time
 3961 38e4 00000000 		.word	vsupply
 3962 38e8 1F000000 		.word	t.4
 3963 38ec 00000000 		.word	kill_throttle
 3964 38f0 00000000 		.word	dist2_to_home
 3965 38f4 40540949 		.word	1225348160
 3966 38f8 12000000 		.word	_4Hz.2
 3967 38fc 00000000 		.word	estimator_flight_time
 3968 3900 00000000 		.word	estimator_hspeed_mod
 3969 3904 00000000 		.word	launch
 3970 3908 00000000 		.word	gpio1_status
 3971 390c 008002E0 		.word	-536707072
 3972 3910 00000000 		.word	ck_a
 3973 3914 00000000 		.word	ck_b
 3974 3918 00000000 		.word	Roll
 3975 391c 00000000 		.word	Pitch
 3976 3920 00000000 		.word	Yaw
 3977 3924 00000000 		.word	downlink_nb_ovrn
 3978 3928 10000000 		.word	_20Hz.0
 3979 392c 00000000 		.word	cpu_time_sec
 3980 3930 00000000 		.word	ap_state
 3981 3934 00000000 		.word	v_ctl_throttle_slewed
 3982 3938 00000000 		.word	h_ctl_aileron_setpoint
 3983 393c 00000000 		.word	h_ctl_elevator_setpoint
 3984 3940 00000000 		.word	h_ctl_rudder_setpoint
 3985 3944 00000000 		.word	inter_mcu_received_ap
 3986              	.L235:
 3987 3948 54401FE5 		ldr	r4, .L269+92
 3988 394c B030D4E1 		ldrh	r3, [r4, #0]
 3989 3950 000053E3 		cmp	r3, #0
 3990 3954 1F0F001A 		bne	.L233
 3991 3958 60301FE5 		ldr	r3, .L269+96
 3992 395c 0010A0E3 		mov	r1, #0
 3993 3960 000093E5 		ldr	r0, [r3, #0]	@ float
 3994 3964 FEFFFFEB 		bl	__gtsf2
 3995 3968 000050E3 		cmp	r0, #0
 3996 396c 1F0F00DA 		ble	.L233
 3997 3970 74301FE5 		ldr	r3, .L269+100
 3998 3974 0120A0E3 		mov	r2, #1	@ movhi
 3999 3978 0800A0E3 		mov	r0, #8
 4000 397c 0020C3E5 		strb	r2, [r3, #0]
 4001 3980 B020C4E1 		strh	r2, [r4, #0]	@ movhi 
 4002 3984 FEFFFFEB 		bl	uart0_check_free_space
 4003 3988 FF0010E3 		tst	r0, #255
 4004 398c 1B0F000A 		beq	.L244
 4005 3990 9900A0E3 		mov	r0, #153
 4006 3994 8C401FE5 		ldr	r4, .L269+112
 4007 3998 FEFFFFEB 		bl	uart0_transmit
 4008 399c 0800A0E3 		mov	r0, #8
 4009 39a0 FEFFFFEB 		bl	uart0_transmit
 4010 39a4 98501FE5 		ldr	r5, .L269+116
 4011 39a8 1630A0E3 		mov	r3, #22
 4012 39ac 0030C4E5 		strb	r3, [r4, #0]
 4013 39b0 083083E2 		add	r3, r3, #8
 4014 39b4 0E00A0E3 		mov	r0, #14
 4015 39b8 0030C5E5 		strb	r3, [r5, #0]
 4016 39bc FEFFFFEB 		bl	uart0_transmit
 4017 39c0 0030D4E5 		ldrb	r3, [r4, #0]	@ zero_extendqisi2
 4018 39c4 043083E2 		add	r3, r3, #4
 4019 39c8 0030C4E5 		strb	r3, [r4, #0]
 4020 39cc 0030D5E5 		ldrb	r3, [r5, #0]	@ zero_extendqisi2
 4021 39d0 0020D4E5 		ldrb	r2, [r4, #0]	@ zero_extendqisi2
 4022 39d4 B0601FE5 		ldr	r6, .L269+140
 4023 39d8 023083E0 		add	r3, r3, r2
 4024 39dc 0400A0E3 		mov	r0, #4
 4025 39e0 0030C5E5 		strb	r3, [r5, #0]
 4026 39e4 FEFFFFEB 		bl	uart0_transmit
 4027 39e8 0000D6E5 		ldrb	r0, [r6, #0]	@ zero_extendqisi2
 4028 39ec 0030D4E5 		ldrb	r3, [r4, #0]	@ zero_extendqisi2
 4029 39f0 033080E0 		add	r3, r0, r3
 4030 39f4 0030C4E5 		strb	r3, [r4, #0]
 4031 39f8 0030D5E5 		ldrb	r3, [r5, #0]	@ zero_extendqisi2
 4032 39fc 0020D4E5 		ldrb	r2, [r4, #0]	@ zero_extendqisi2
 4033 3a00 023083E0 		add	r3, r3, r2
 4034 3a04 0030C5E5 		strb	r3, [r5, #0]
 4035 3a08 FEFFFFEB 		bl	uart0_transmit
 4036 3a0c 0100D6E5 		ldrb	r0, [r6, #1]	@ zero_extendqisi2
 4037 3a10 0E0F00EA 		b	.L257
 4038              	.L240:
 4039 3a14 14311FE5 		ldr	r3, .L269+104
 4040 3a18 0030D3E5 		ldrb	r3, [r3, #0]	@ zero_extendqisi2
 4041 3a1c 000053E3 		cmp	r3, #0
 4042 3a20 1C311F15 		ldrne	r3, .L269+108
 4043 3a24 20311F05 		ldreq	r3, .L269+108
 4044 3a28 8020A013 		movne	r2, #128
 4045 3a2c 8020A003 		moveq	r2, #128
 4046 3a30 04208315 		strne	r2, [r3, #4]
 4047 3a34 0C208305 		streq	r2, [r3, #12]
 4048 3a38 1F0F00EA 		b	.L233
 4049              	.L243:
 4050 3a3c FEFFFFEB 		bl	vn100_periodic
 4051 3a40 1200A0E3 		mov	r0, #18
 4052 3a44 FEFFFFEB 		bl	uart0_check_free_space
 4053 3a48 FF0010E3 		tst	r0, #255
 4054 3a4c 1B0F000A 		beq	.L244
 4055 3a50 9900A0E3 		mov	r0, #153
 4056 3a54 4C411FE5 		ldr	r4, .L269+112
 4057 3a58 FEFFFFEB 		bl	uart0_transmit
 4058 3a5c 1200A0E3 		mov	r0, #18
 4059 3a60 54511FE5 		ldr	r5, .L269+116
 4060 3a64 FEFFFFEB 		bl	uart0_transmit
 4061 3a68 2030A0E3 		mov	r3, #32
 4062 3a6c 0030C4E5 		strb	r3, [r4, #0]
 4063 3a70 123083E2 		add	r3, r3, #18
 4064 3a74 0E00A0E3 		mov	r0, #14
 4065 3a78 0030C5E5 		strb	r3, [r5, #0]
 4066 3a7c FEFFFFEB 		bl	uart0_transmit
 4067 3a80 0030D4E5 		ldrb	r3, [r4, #0]	@ zero_extendqisi2
 4068 3a84 133083E2 		add	r3, r3, #19
 4069 3a88 0030C4E5 		strb	r3, [r4, #0]
 4070 3a8c 0030D5E5 		ldrb	r3, [r5, #0]	@ zero_extendqisi2
 4071 3a90 0020D4E5 		ldrb	r2, [r4, #0]	@ zero_extendqisi2
 4072 3a94 84611FE5 		ldr	r6, .L269+120
 4073 3a98 023083E0 		add	r3, r3, r2
 4074 3a9c 1300A0E3 		mov	r0, #19
 4075 3aa0 0030C5E5 		strb	r3, [r5, #0]
 4076 3aa4 FEFFFFEB 		bl	uart0_transmit
 4077 3aa8 0000D6E5 		ldrb	r0, [r6, #0]	@ zero_extendqisi2
 4078 3aac 0030D4E5 		ldrb	r3, [r4, #0]	@ zero_extendqisi2
 4079 3ab0 033080E0 		add	r3, r0, r3
 4080 3ab4 0030C4E5 		strb	r3, [r4, #0]
 4081 3ab8 0030D5E5 		ldrb	r3, [r5, #0]	@ zero_extendqisi2
 4082 3abc 0020D4E5 		ldrb	r2, [r4, #0]	@ zero_extendqisi2
 4083 3ac0 023083E0 		add	r3, r3, r2
 4084 3ac4 0030C5E5 		strb	r3, [r5, #0]
 4085 3ac8 FEFFFFEB 		bl	uart0_transmit
 4086 3acc 0100D6E5 		ldrb	r0, [r6, #1]	@ zero_extendqisi2
 4087 3ad0 0030D4E5 		ldrb	r3, [r4, #0]	@ zero_extendqisi2
 4088 3ad4 033080E0 		add	r3, r0, r3
 4089 3ad8 0030C4E5 		strb	r3, [r4, #0]
 4090 3adc 0030D5E5 		ldrb	r3, [r5, #0]	@ zero_extendqisi2
 4091 3ae0 0020D4E5 		ldrb	r2, [r4, #0]	@ zero_extendqisi2
 4092 3ae4 023083E0 		add	r3, r3, r2
 4093 3ae8 0030C5E5 		strb	r3, [r5, #0]
 4094 3aec FEFFFFEB 		bl	uart0_transmit
 4095 3af0 0200D6E5 		ldrb	r0, [r6, #2]	@ zero_extendqisi2
 4096 3af4 0030D4E5 		ldrb	r3, [r4, #0]	@ zero_extendqisi2
 4097 3af8 033080E0 		add	r3, r0, r3
 4098 3afc 0030C4E5 		strb	r3, [r4, #0]
 4099 3b00 0030D5E5 		ldrb	r3, [r5, #0]	@ zero_extendqisi2
 4100 3b04 0020D4E5 		ldrb	r2, [r4, #0]	@ zero_extendqisi2
 4101 3b08 023083E0 		add	r3, r3, r2
 4102 3b0c 0030C5E5 		strb	r3, [r5, #0]
 4103 3b10 FEFFFFEB 		bl	uart0_transmit
 4104 3b14 0300D6E5 		ldrb	r0, [r6, #3]	@ zero_extendqisi2
 4105 3b18 0030D4E5 		ldrb	r3, [r4, #0]	@ zero_extendqisi2
 4106 3b1c 033080E0 		add	r3, r0, r3
 4107 3b20 0030C4E5 		strb	r3, [r4, #0]
 4108 3b24 0030D5E5 		ldrb	r3, [r5, #0]	@ zero_extendqisi2
 4109 3b28 0020D4E5 		ldrb	r2, [r4, #0]	@ zero_extendqisi2
 4110 3b2c 18621FE5 		ldr	r6, .L269+124
 4111 3b30 023083E0 		add	r3, r3, r2
 4112 3b34 0030C5E5 		strb	r3, [r5, #0]
 4113 3b38 FEFFFFEB 		bl	uart0_transmit
 4114 3b3c 0000D6E5 		ldrb	r0, [r6, #0]	@ zero_extendqisi2
 4115 3b40 0030D4E5 		ldrb	r3, [r4, #0]	@ zero_extendqisi2
 4116 3b44 033080E0 		add	r3, r0, r3
 4117 3b48 0030C4E5 		strb	r3, [r4, #0]
 4118 3b4c 0030D5E5 		ldrb	r3, [r5, #0]	@ zero_extendqisi2
 4119 3b50 0020D4E5 		ldrb	r2, [r4, #0]	@ zero_extendqisi2
 4120 3b54 023083E0 		add	r3, r3, r2
 4121 3b58 0030C5E5 		strb	r3, [r5, #0]
 4122 3b5c FEFFFFEB 		bl	uart0_transmit
 4123 3b60 0100D6E5 		ldrb	r0, [r6, #1]	@ zero_extendqisi2
 4124 3b64 0030D4E5 		ldrb	r3, [r4, #0]	@ zero_extendqisi2
 4125 3b68 033080E0 		add	r3, r0, r3
 4126 3b6c 0030C4E5 		strb	r3, [r4, #0]
 4127 3b70 0030D5E5 		ldrb	r3, [r5, #0]	@ zero_extendqisi2
 4128 3b74 0020D4E5 		ldrb	r2, [r4, #0]	@ zero_extendqisi2
 4129 3b78 023083E0 		add	r3, r3, r2
 4130 3b7c 0030C5E5 		strb	r3, [r5, #0]
 4131 3b80 FEFFFFEB 		bl	uart0_transmit
 4132 3b84 0200D6E5 		ldrb	r0, [r6, #2]	@ zero_extendqisi2
 4133 3b88 0030D4E5 		ldrb	r3, [r4, #0]	@ zero_extendqisi2
 4134 3b8c 033080E0 		add	r3, r0, r3
 4135 3b90 0030C4E5 		strb	r3, [r4, #0]
 4136 3b94 0030D5E5 		ldrb	r3, [r5, #0]	@ zero_extendqisi2
 4137 3b98 0020D4E5 		ldrb	r2, [r4, #0]	@ zero_extendqisi2
 4138 3b9c 023083E0 		add	r3, r3, r2
 4139 3ba0 0030C5E5 		strb	r3, [r5, #0]
 4140 3ba4 FEFFFFEB 		bl	uart0_transmit
 4141 3ba8 0300D6E5 		ldrb	r0, [r6, #3]	@ zero_extendqisi2
 4142 3bac 0030D4E5 		ldrb	r3, [r4, #0]	@ zero_extendqisi2
 4143 3bb0 033080E0 		add	r3, r0, r3
 4144 3bb4 0030C4E5 		strb	r3, [r4, #0]
 4145 3bb8 0030D5E5 		ldrb	r3, [r5, #0]	@ zero_extendqisi2
 4146 3bbc 0020D4E5 		ldrb	r2, [r4, #0]	@ zero_extendqisi2
 4147 3bc0 A8621FE5 		ldr	r6, .L269+128
 4148 3bc4 023083E0 		add	r3, r3, r2
 4149 3bc8 0030C5E5 		strb	r3, [r5, #0]
 4150 3bcc FEFFFFEB 		bl	uart0_transmit
 4151 3bd0 0000D6E5 		ldrb	r0, [r6, #0]	@ zero_extendqisi2
 4152 3bd4 0030D4E5 		ldrb	r3, [r4, #0]	@ zero_extendqisi2
 4153 3bd8 033080E0 		add	r3, r0, r3
 4154 3bdc 0030C4E5 		strb	r3, [r4, #0]
 4155 3be0 0030D5E5 		ldrb	r3, [r5, #0]	@ zero_extendqisi2
 4156 3be4 0020D4E5 		ldrb	r2, [r4, #0]	@ zero_extendqisi2
 4157 3be8 023083E0 		add	r3, r3, r2
 4158 3bec 0030C5E5 		strb	r3, [r5, #0]
 4159 3bf0 FEFFFFEB 		bl	uart0_transmit
 4160 3bf4 0100D6E5 		ldrb	r0, [r6, #1]	@ zero_extendqisi2
 4161 3bf8 0030D4E5 		ldrb	r3, [r4, #0]	@ zero_extendqisi2
 4162 3bfc 033080E0 		add	r3, r0, r3
 4163 3c00 0030C4E5 		strb	r3, [r4, #0]
 4164 3c04 0030D5E5 		ldrb	r3, [r5, #0]	@ zero_extendqisi2
 4165 3c08 0020D4E5 		ldrb	r2, [r4, #0]	@ zero_extendqisi2
 4166 3c0c 023083E0 		add	r3, r3, r2
 4167 3c10 0030C5E5 		strb	r3, [r5, #0]
 4168 3c14 FEFFFFEB 		bl	uart0_transmit
 4169 3c18 0200D6E5 		ldrb	r0, [r6, #2]	@ zero_extendqisi2
 4170 3c1c 0030D4E5 		ldrb	r3, [r4, #0]	@ zero_extendqisi2
 4171 3c20 033080E0 		add	r3, r0, r3
 4172 3c24 0030C4E5 		strb	r3, [r4, #0]
 4173 3c28 0030D5E5 		ldrb	r3, [r5, #0]	@ zero_extendqisi2
 4174 3c2c 0020D4E5 		ldrb	r2, [r4, #0]	@ zero_extendqisi2
 4175 3c30 023083E0 		add	r3, r3, r2
 4176 3c34 0030C5E5 		strb	r3, [r5, #0]
 4177 3c38 FEFFFFEB 		bl	uart0_transmit
 4178 3c3c 0300D6E5 		ldrb	r0, [r6, #3]	@ zero_extendqisi2
 4179              	.L257:
 4180 3c40 0030D4E5 		ldrb	r3, [r4, #0]	@ zero_extendqisi2
 4181 3c44 033080E0 		add	r3, r0, r3
 4182 3c48 0030C4E5 		strb	r3, [r4, #0]
 4183 3c4c 0030D5E5 		ldrb	r3, [r5, #0]	@ zero_extendqisi2
 4184 3c50 0020D4E5 		ldrb	r2, [r4, #0]	@ zero_extendqisi2
 4185 3c54 023083E0 		add	r3, r3, r2
 4186 3c58 0030C5E5 		strb	r3, [r5, #0]
 4187 3c5c FEFFFFEB 		bl	uart0_transmit
 4188 3c60 0000D4E5 		ldrb	r0, [r4, #0]	@ zero_extendqisi2
 4189 3c64 FEFFFFEB 		bl	uart0_transmit
 4190 3c68 0000D5E5 		ldrb	r0, [r5, #0]	@ zero_extendqisi2
 4191 3c6c FEFFFFEB 		bl	uart0_transmit
 4192 3c70 1F0F00EA 		b	.L233
 4193              	.L244:
 4194 3c74 58231FE5 		ldr	r2, .L269+132
 4195 3c78 0030D2E5 		ldrb	r3, [r2, #0]	@ zero_extendqisi2
 4196 3c7c 013083E2 		add	r3, r3, #1
 4197 3c80 0030C2E5 		strb	r3, [r2, #0]
 4198              	.L233:
 4199 3c84 64231FE5 		ldr	r2, .L269+136
 4200 3c88 0030D2E5 		ldrb	r3, [r2, #0]	@ zero_extendqisi2
 4201 3c8c 000053E3 		cmp	r3, #0
 4202 3c90 3D0F001A 		bne	.L71
 4203 3c94 FEFFFFEB 		bl	gyro_update
 4204 3c98 FEFFFFEB 		bl	ir_update
 4205 3c9c FEFFFFEB 		bl	estimator_update_state_infrared
 4206 3ca0 FEFFFFEB 		bl	h_ctl_attitude_loop
 4207 3ca4 FEFFFFEB 		bl	v_ctl_throttle_slew
 4208 3ca8 84331FE5 		ldr	r3, .L269+140
 4209 3cac B010D3E1 		ldrh	r1, [r3, #0]
 4210 3cb0 88331FE5 		ldr	r3, .L269+144
 4211 3cb4 002093E5 		ldr	r2, [r3, #0]
 4212 3cb8 8C331FE5 		ldr	r3, .L269+148
 4213 3cbc B030D3E1 		ldrh	r3, [r3, #0]
 4214 3cc0 B030C2E1 		strh	r3, [r2, #0]	@ movhi 
 4215 3cc4 94331FE5 		ldr	r3, .L269+152
 4216 3cc8 B030D3E1 		ldrh	r3, [r3, #0]
 4217 3ccc B230C2E1 		strh	r3, [r2, #2]	@ movhi 
 4218 3cd0 9C331FE5 		ldr	r3, .L269+156
 4219 3cd4 B030D3E1 		ldrh	r3, [r3, #0]
 4220 3cd8 B430C2E1 		strh	r3, [r2, #4]	@ movhi 
 4221 3cdc A4331FE5 		ldr	r3, .L269+160
 4222 3ce0 B030D3E1 		ldrh	r3, [r3, #0]
 4223 3ce4 0F0051E3 		cmp	r1, #15
 4224 3ce8 B630C2E1 		strh	r3, [r2, #6]	@ movhi 
 4225 3cec FEFFFF0B 		bleq	gps_reset
 4226              	.L248:
 4227 3cf0 B4331FE5 		ldr	r3, .L269+164
 4228 3cf4 0120A0E3 		mov	r2, #1
 4229 3cf8 0020C3E5 		strb	r2, [r3, #0]
 4230              	.L71:
 4231 3cfc 28D04BE2 		sub	sp, fp, #40
 4232 3d00 F06F9DE8 		ldmfd	sp, {r4, r5, r6, r7, r8, r9, sl, fp, sp, lr}
 4233 3d04 1EFF2FE1 		bx	lr
 4235              		.align	2
 4236              		.global	init_ap
 4238              	init_ap:
 4239              		@ Function supports interworking.
 4240              		@ args = 0, pretend = 0, frame = 0
 4241              		@ frame_needed = 1, uses_anonymous_args = 0
 4242 3d08 0DC0A0E1 		mov	ip, sp
 4243 3d0c F0D82DE9 		stmfd	sp!, {r4, r5, r6, r7, fp, ip, lr, pc}
 4244 3d10 04B04CE2 		sub	fp, ip, #4
 4245 3d14 FEFFFFEB 		bl	ir_init
 4246 3d18 FEFFFFEB 		bl	gyro_init
 4247 3d1c FEFFFFEB 		bl	gps_init
 4248 3d20 FEFFFFEB 		bl	vn100_init
 4249 3d24 FEFFFFEB 		bl	uart0_init_tx
 4250 3d28 FEFFFFEB 		bl	uart0_init_rx
 4251 3d2c FEFFFFEB 		bl	uart1_init_tx
 4252 3d30 FEFFFFEB 		bl	uart1_init_rx
 4253 3d34 E8209FE5 		ldr	r2, .L283
 4254 3d38 003092E5 		ldr	r3, [r2, #0]
 4255 3d3c E4109FE5 		ldr	r1, .L283+4
 4256 3d40 003082E5 		str	r3, [r2, #0]
 4257 3d44 E0309FE5 		ldr	r3, .L283+8
 4258 3d48 082091E5 		ldr	r2, [r1, #8]
 4259 3d4c 0000A0E3 		mov	r0, #0
 4260 3d50 0000C3E5 		strb	r0, [r3, #0]
 4261 3d54 802082E3 		orr	r2, r2, #128
 4262 3d58 8030A0E3 		mov	r3, #128
 4263 3d5c 082081E5 		str	r2, [r1, #8]
 4264 3d60 0C3081E5 		str	r3, [r1, #12]
 4265 3d64 FEFFFFEB 		bl	gps_configure
 4266 3d68 FEFFFFEB 		bl	h_ctl_init
 4267 3d6c FEFFFFEB 		bl	v_ctl_init
 4268 3d70 FEFFFFEB 		bl	estimator_init
 4269 3d74 FEFFFFEB 		bl	nav_init
 4270 3d78 FEFFFFEB 		bl	enableIRQ
 4271 3d7c 1E50A0E3 		mov	r5, #30
 4272              	.L280:
 4273 3d80 A8309FE5 		ldr	r3, .L283+12
 4274 3d84 A8709FE5 		ldr	r7, .L283+16
 4275 3d88 082093E5 		ldr	r2, [r3, #8]
 4276 3d8c 001097E5 		ldr	r1, [r7, #0]
 4277 3d90 A0309FE5 		ldr	r3, .L283+20
 4278 3d94 A0C09FE5 		ldr	ip, .L283+24
 4279 3d98 022061E0 		rsb	r2, r1, r2
 4280 3d9c 030052E1 		cmp	r2, r3
 4281 3da0 98409FE5 		ldr	r4, .L283+28
 4282 3da4 0C0081E0 		add	r0, r1, ip
 4283 3da8 0030A093 		movls	r3, #0
 4284 3dac 800F009A 		bls	.L279
 4285 3db0 002094E5 		ldr	r2, [r4, #0]
 4286 3db4 88309FE5 		ldr	r3, .L283+32
 4287 3db8 0CC082E0 		add	ip, r2, ip
 4288 3dbc 84109FE5 		ldr	r1, .L283+36
 4289 3dc0 03005CE1 		cmp	ip, r3
 4290 3dc4 5CE09FE5 		ldr	lr, .L283+4
 4291 3dc8 7C609FE5 		ldr	r6, .L283+40
 4292 3dcc 011082E0 		add	r1, r2, r1
 4293 3dd0 000087E5 		str	r0, [r7, #0]
 4294 3dd4 00C084E5 		str	ip, [r4, #0]
 4295 3dd8 7F0F009A 		bls	.L276
 4296 3ddc 10209EE5 		ldr	r2, [lr, #16]
 4297 3de0 B030D6E1 		ldrh	r3, [r6, #0]
 4298 3de4 010212E3 		tst	r2, #268435456
 4299 3de8 013083E2 		add	r3, r3, #1
 4300 3dec B030C6E1 		strh	r3, [r6, #0]	@ movhi 
 4301 3df0 0132A013 		movne	r3, #268435456
 4302 3df4 0132A003 		moveq	r3, #268435456
 4303 3df8 001084E5 		str	r1, [r4, #0]
 4304 3dfc 1C308E15 		strne	r3, [lr, #28]
 4305 3e00 14308E05 		streq	r3, [lr, #20]
 4306              	.L276:
 4307 3e04 0130A0E3 		mov	r3, #1
 4308              	.L279:
 4309 3e08 000053E3 		cmp	r3, #0
 4310 3e0c 013045E2 		sub	r3, r5, #1
 4311 3e10 FF500312 		andne	r5, r3, #255
 4312 3e14 000055E3 		cmp	r5, #0
 4313 3e18 5E0F001A 		bne	.L280
 4314 3e1c F0689DE8 		ldmfd	sp, {r4, r5, r6, r7, fp, sp, lr}
 4315 3e20 1EFF2FE1 		bx	lr
 4316              	.L284:
 4317              		.align	2
 4318              	.L283:
 4319 3e24 00C002E0 		.word	-536690688
 4320 3e28 008002E0 		.word	-536707072
 4321 3e2c 00000000 		.word	gpio1_status
 4322 3e30 004000E0 		.word	-536854528
 4323 3e34 20000000 		.word	last_periodic_event
 4324 3e38 86930300 		.word	234374
 4325 3e3c 87930300 		.word	234375
 4326 3e40 00000000 		.word	cpu_time_ticks
 4327 3e44 C0E1E400 		.word	15000000
 4328 3e48 C7B11EFF 		.word	-14765625
 4329 3e4c 00000000 		.word	cpu_time_sec
 4331              		.align	2
 4332              		.global	event_task_ap
 4334              	event_task_ap:
 4335              		@ Function supports interworking.
 4336              		@ args = 0, pretend = 0, frame = 0
 4337              		@ frame_needed = 1, uses_anonymous_args = 0
 4338 3e50 0DC0A0E1 		mov	ip, sp
 4339 3e54 F0D82DE9 		stmfd	sp!, {r4, r5, r6, r7, fp, ip, lr, pc}
 4340 3e58 04B04CE2 		sub	fp, ip, #4
 4341 3e5c AC549FE5 		ldr	r5, .L323
 4342 3e60 ACC49FE5 		ldr	ip, .L323+4
 4343 3e64 B020D5E1 		ldrh	r2, [r5, #0]
 4344 3e68 B030DCE1 		ldrh	r3, [ip, #0]
 4345 3e6c 030052E1 		cmp	r2, r3
 4346 3e70 AB0F000A 		beq	.L286
 4347 3e74 9C449FE5 		ldr	r4, .L323+8
 4348              	.L322:
 4349 3e78 0030D4E5 		ldrb	r3, [r4, #0]	@ zero_extendqisi2
 4350 3e7c 000053E3 		cmp	r3, #0
 4351 3e80 AB0F001A 		bne	.L286
 4352 3e84 B010DCE1 		ldrh	r1, [ip, #0]
 4353 3e88 8C249FE5 		ldr	r2, .L323+12
 4354 3e8c 013081E2 		add	r3, r1, #1
 4355 3e90 7F3003E2 		and	r3, r3, #127
 4356 3e94 B030CCE1 		strh	r3, [ip, #0]	@ movhi 
 4357 3e98 0100D2E7 		ldrb	r0, [r2, r1]	@ zero_extendqisi2
 4358 3e9c FEFFFFEB 		bl	parse_ubx
 4359 3ea0 6CC49FE5 		ldr	ip, .L323+4
 4360 3ea4 B020D5E1 		ldrh	r2, [r5, #0]
 4361 3ea8 B030DCE1 		ldrh	r3, [ip, #0]
 4362 3eac 030052E1 		cmp	r2, r3
 4363 3eb0 9C0F001A 		bne	.L322
 4364              	.L286:
 4365 3eb4 5C649FE5 		ldr	r6, .L323+8
 4366 3eb8 0030D6E5 		ldrb	r3, [r6, #0]	@ zero_extendqisi2
 4367 3ebc 000053E3 		cmp	r3, #0
 4368 3ec0 B80F000A 		beq	.L290
 4369 3ec4 54549FE5 		ldr	r5, .L323+16
 4370 3ec8 FEFFFFEB 		bl	parse_gps_msg
 4371 3ecc 0030D5E5 		ldrb	r3, [r5, #0]	@ zero_extendqisi2
 4372 3ed0 0040A0E3 		mov	r4, #0
 4373 3ed4 000053E3 		cmp	r3, #0
 4374 3ed8 0040C6E5 		strb	r4, [r6, #0]
 4375 3edc B80F000A 		beq	.L290
 4376 3ee0 FEFFFFEB 		bl	use_gps_pos
 4377 3ee4 0040C5E5 		strb	r4, [r5, #0]
 4378              	.L290:
 4379 3ee8 34249FE5 		ldr	r2, .L323+20
 4380 3eec 0030D2E5 		ldrb	r3, [r2, #0]	@ zero_extendqisi2
 4381 3ef0 000053E3 		cmp	r3, #0
 4382 3ef4 C010000A 		beq	.L285
 4383 3ef8 28749FE5 		ldr	r7, .L323+24
 4384 3efc 0030A0E3 		mov	r3, #0
 4385 3f00 0030C2E5 		strb	r3, [r2, #0]
 4386 3f04 002097E5 		ldr	r2, [r7, #0]
 4387 3f08 1120D2E5 		ldrb	r2, [r2, #17]	@ zero_extendqisi2
 4388 3f0c 020012E3 		tst	r2, #2
 4389 3f10 03E0A0E1 		mov	lr, r3
 4390 3f14 0320A0E1 		mov	r2, r3
 4391 3f18 CA0F000A 		beq	.L294
 4392 3f1c 08349FE5 		ldr	r3, .L323+28
 4393 3f20 0030D3E5 		ldrb	r3, [r3, #0]	@ zero_extendqisi2
 4394 3f24 010053E3 		cmp	r3, #1
 4395 3f28 0020A083 		movhi	r2, #0
 4396 3f2c 0120A093 		movls	r2, #1
 4397              	.L294:
 4398 3f30 F4C39FE5 		ldr	ip, .L323+28
 4399 3f34 0030DCE5 		ldrb	r3, [ip, #0]	@ zero_extendqisi2
 4400 3f38 030053E3 		cmp	r3, #3
 4401 3f3c 00005313 		cmpne	r3, #0
 4402 3f40 E10F000A 		beq	.L295
 4403 3f44 010053E3 		cmp	r3, #1
 4404 3f48 E10F000A 		beq	.L295
 4405 3f4c 040053E3 		cmp	r3, #4
 4406 3f50 E10F000A 		beq	.L295
 4407 3f54 D4339FE5 		ldr	r3, .L323+32
 4408 3f58 0030D3E5 		ldrb	r3, [r3, #0]	@ zero_extendqisi2
 4409 3f5c 000053E3 		cmp	r3, #0
 4410 3f60 E10F000A 		beq	.L295
 4411 3f64 C8339FE5 		ldr	r3, .L323+36
 4412 3f68 0030D3E5 		ldrb	r3, [r3, #0]	@ zero_extendqisi2
 4413 3f6c 000053E3 		cmp	r3, #0
 4414 3f70 0330A013 		movne	r3, #3
 4415 3f74 0030CC15 		strneb	r3, [ip, #0]
 4416 3f78 01E0A013 		movne	lr, #1
 4417 3f7c 000052E3 		cmp	r2, #0
 4418 3f80 0330A013 		movne	r3, #3
 4419 3f84 0030CC15 		strneb	r3, [ip, #0]
 4420 3f88 01E0A013 		movne	lr, #1
 4421              	.L295:
 4422 3f8c 000097E5 		ldr	r0, [r7, #0]
 4423 3f90 1130D0E5 		ldrb	r3, [r0, #17]	@ zero_extendqisi2
 4424 3f94 100013E3 		tst	r3, #16
 4425 3f98 0020A0E3 		mov	r2, #0
 4426 3f9c FF0F000A 		beq	.L298
 4427 3fa0 0030DCE5 		ldrb	r3, [ip, #0]	@ zero_extendqisi2
 4428 3fa4 033043E2 		sub	r3, r3, #3
 4429 3fa8 010053E3 		cmp	r3, #1
 4430 3fac F00F008A 		bhi	.L300
 4431 3fb0 80139FE5 		ldr	r1, .L323+40
 4432 3fb4 0030D1E5 		ldrb	r3, [r1, #0]	@ zero_extendqisi2
 4433 3fb8 020053E1 		cmp	r3, r2
 4434 3fbc 0230A001 		moveq	r3, r2
 4435 3fc0 FD0F000A 		beq	.L307
 4436 3fc4 0020C1E5 		strb	r2, [r1, #0]
 4437              	.L300:
 4438 3fc8 FE30D0E1 		ldrsh	r3, [r0, #14]
 4439 3fcc 4B0D53E3 		cmp	r3, #4800
 4440 3fd0 0220A0C3 		movgt	r2, #2
 4441 3fd4 F70F00CA 		bgt	.L304
 4442 3fd8 4B0D73E3 		cmn	r3, #4800
 4443 3fdc 0020A0D3 		movle	r2, #0
 4444 3fe0 0120A0C3 		movgt	r2, #1
 4445              	.L304:
 4446 3fe4 0030DCE5 		ldrb	r3, [ip, #0]	@ zero_extendqisi2
 4447 3fe8 020053E1 		cmp	r3, r2
 4448 3fec 0130A013 		movne	r3, #1
 4449 3ff0 0030A003 		moveq	r3, #0
 4450 3ff4 0020CC15 		strneb	r2, [ip, #0]
 4451 3ff8 FF3003E2 		and	r3, r3, #255
 4452              	.L307:
 4453 3ffc FF2003E2 		and	r2, r3, #255
 4454 4000 02E08EE1 		orr	lr, lr, r2
 4455              	.L298:
 4456 4004 003097E5 		ldr	r3, [r7, #0]
 4457 4008 2C639FE5 		ldr	r6, .L323+44
 4458 400c 1130D3E5 		ldrb	r3, [r3, #17]	@ zero_extendqisi2
 4459 4010 0020D6E5 		ldrb	r2, [r6, #0]	@ zero_extendqisi2
 4460 4014 FF1003E2 		and	r1, r3, #255
 4461 4018 010052E1 		cmp	r2, r1
 4462 401c 0020A003 		moveq	r2, #0
 4463 4020 0C10000A 		beq	.L310
 4464 4024 0F2002E2 		and	r2, r2, #15
 4465 4028 0F3003E2 		and	r3, r3, #15
 4466 402c 0010C6E5 		strb	r1, [r6, #0]
 4467 4030 032052E0 		subs	r2, r2, r3
 4468 4034 0120A013 		movne	r2, #1
 4469              	.L310:
 4470 4038 02E09EE1 		orrs	lr, lr, r2
 4471 403c 7410000A 		beq	.L311
 4472 4040 0D00A0E3 		mov	r0, #13
 4473 4044 FEFFFFEB 		bl	uart0_check_free_space
 4474 4048 FF0010E3 		tst	r0, #255
 4475 404c EC229F05 		ldreq	r2, .L323+48
 4476 4050 0030D205 		ldreqb	r3, [r2, #0]	@ zero_extendqisi2
 4477 4054 01308302 		addeq	r3, r3, #1
 4478 4058 0030C205 		streqb	r3, [r2, #0]
 4479 405c 7410000A 		beq	.L311
 4480 4060 9900A0E3 		mov	r0, #153
 4481 4064 D8429FE5 		ldr	r4, .L323+52
 4482 4068 FEFFFFEB 		bl	uart0_transmit
 4483 406c 0D00A0E3 		mov	r0, #13
 4484 4070 D0529FE5 		ldr	r5, .L323+56
 4485 4074 FEFFFFEB 		bl	uart0_transmit
 4486 4078 1B30A0E3 		mov	r3, #27
 4487 407c 0030C4E5 		strb	r3, [r4, #0]
 4488 4080 0D3083E2 		add	r3, r3, #13
 4489 4084 0E00A0E3 		mov	r0, #14
 4490 4088 0030C5E5 		strb	r3, [r5, #0]
 4491 408c FEFFFFEB 		bl	uart0_transmit
 4492 4090 0030D4E5 		ldrb	r3, [r4, #0]	@ zero_extendqisi2
 4493 4094 0B3083E2 		add	r3, r3, #11
 4494 4098 0030C4E5 		strb	r3, [r4, #0]
 4495 409c 0030D5E5 		ldrb	r3, [r5, #0]	@ zero_extendqisi2
 4496 40a0 0020D4E5 		ldrb	r2, [r4, #0]	@ zero_extendqisi2
 4497 40a4 023083E0 		add	r3, r3, r2
 4498 40a8 0B00A0E3 		mov	r0, #11
 4499 40ac 0030C5E5 		strb	r3, [r5, #0]
 4500 40b0 FEFFFFEB 		bl	uart0_transmit
 4501 40b4 70329FE5 		ldr	r3, .L323+28
 4502 40b8 0000D3E5 		ldrb	r0, [r3, #0]	@ zero_extendqisi2
 4503 40bc 0030D4E5 		ldrb	r3, [r4, #0]	@ zero_extendqisi2
 4504 40c0 033080E0 		add	r3, r0, r3
 4505 40c4 0030C4E5 		strb	r3, [r4, #0]
 4506 40c8 0030D5E5 		ldrb	r3, [r5, #0]	@ zero_extendqisi2
 4507 40cc 0020D4E5 		ldrb	r2, [r4, #0]	@ zero_extendqisi2
 4508 40d0 023083E0 		add	r3, r3, r2
 4509 40d4 0030C5E5 		strb	r3, [r5, #0]
 4510 40d8 FEFFFFEB 		bl	uart0_transmit
 4511 40dc 68329FE5 		ldr	r3, .L323+60
 4512 40e0 0000D3E5 		ldrb	r0, [r3, #0]	@ zero_extendqisi2
 4513 40e4 0030D4E5 		ldrb	r3, [r4, #0]	@ zero_extendqisi2
 4514 40e8 033080E0 		add	r3, r0, r3
 4515 40ec 0030C4E5 		strb	r3, [r4, #0]
 4516 40f0 0030D5E5 		ldrb	r3, [r5, #0]	@ zero_extendqisi2
 4517 40f4 0020D4E5 		ldrb	r2, [r4, #0]	@ zero_extendqisi2
 4518 40f8 023083E0 		add	r3, r3, r2
 4519 40fc 0030C5E5 		strb	r3, [r5, #0]
 4520 4100 FEFFFFEB 		bl	uart0_transmit
 4521 4104 44329FE5 		ldr	r3, .L323+64
 4522 4108 0000D3E5 		ldrb	r0, [r3, #0]	@ zero_extendqisi2
 4523 410c 0030D4E5 		ldrb	r3, [r4, #0]	@ zero_extendqisi2
 4524 4110 033080E0 		add	r3, r0, r3
 4525 4114 0030C4E5 		strb	r3, [r4, #0]
 4526 4118 0030D5E5 		ldrb	r3, [r5, #0]	@ zero_extendqisi2
 4527 411c 0020D4E5 		ldrb	r2, [r4, #0]	@ zero_extendqisi2
 4528 4120 023083E0 		add	r3, r3, r2
 4529 4124 0030C5E5 		strb	r3, [r5, #0]
 4530 4128 FEFFFFEB 		bl	uart0_transmit
 4531 412c 20329FE5 		ldr	r3, .L323+68
 4532 4130 0000D3E5 		ldrb	r0, [r3, #0]	@ zero_extendqisi2
 4533 4134 0030D4E5 		ldrb	r3, [r4, #0]	@ zero_extendqisi2
 4534 4138 033080E0 		add	r3, r0, r3
 4535 413c 0030C4E5 		strb	r3, [r4, #0]
 4536 4140 0030D5E5 		ldrb	r3, [r5, #0]	@ zero_extendqisi2
 4537 4144 0020D4E5 		ldrb	r2, [r4, #0]	@ zero_extendqisi2
 4538 4148 023083E0 		add	r3, r3, r2
 4539 414c 0030C5E5 		strb	r3, [r5, #0]
 4540 4150 FEFFFFEB 		bl	uart0_transmit
 4541 4154 FC319FE5 		ldr	r3, .L323+72
 4542 4158 0000D3E5 		ldrb	r0, [r3, #0]	@ zero_extendqisi2
 4543 415c 0030D4E5 		ldrb	r3, [r4, #0]	@ zero_extendqisi2
 4544 4160 033080E0 		add	r3, r0, r3
 4545 4164 0030C4E5 		strb	r3, [r4, #0]
 4546 4168 0030D5E5 		ldrb	r3, [r5, #0]	@ zero_extendqisi2
 4547 416c 0020D4E5 		ldrb	r2, [r4, #0]	@ zero_extendqisi2
 4548 4170 023083E0 		add	r3, r3, r2
 4549 4174 0030C5E5 		strb	r3, [r5, #0]
 4550 4178 FEFFFFEB 		bl	uart0_transmit
 4551 417c 0000D6E5 		ldrb	r0, [r6, #0]	@ zero_extendqisi2
 4552 4180 0030D4E5 		ldrb	r3, [r4, #0]	@ zero_extendqisi2
 4553 4184 033080E0 		add	r3, r0, r3
 4554 4188 0030C4E5 		strb	r3, [r4, #0]
 4555 418c 0030D5E5 		ldrb	r3, [r5, #0]	@ zero_extendqisi2
 4556 4190 0020D4E5 		ldrb	r2, [r4, #0]	@ zero_extendqisi2
 4557 4194 023083E0 		add	r3, r3, r2
 4558 4198 0030C5E5 		strb	r3, [r5, #0]
 4559 419c FEFFFFEB 		bl	uart0_transmit
 4560 41a0 B4319FE5 		ldr	r3, .L323+76
 4561 41a4 0000D3E5 		ldrb	r0, [r3, #0]	@ zero_extendqisi2
 4562 41a8 0030D4E5 		ldrb	r3, [r4, #0]	@ zero_extendqisi2
 4563 41ac 033080E0 		add	r3, r0, r3
 4564 41b0 0030C4E5 		strb	r3, [r4, #0]
 4565 41b4 0030D5E5 		ldrb	r3, [r5, #0]	@ zero_extendqisi2
 4566 41b8 0020D4E5 		ldrb	r2, [r4, #0]	@ zero_extendqisi2
 4567 41bc 023083E0 		add	r3, r3, r2
 4568 41c0 0030C5E5 		strb	r3, [r5, #0]
 4569 41c4 FEFFFFEB 		bl	uart0_transmit
 4570 41c8 0000D4E5 		ldrb	r0, [r4, #0]	@ zero_extendqisi2
 4571 41cc FEFFFFEB 		bl	uart0_transmit
 4572 41d0 0000D5E5 		ldrb	r0, [r5, #0]	@ zero_extendqisi2
 4573 41d4 FEFFFFEB 		bl	uart0_transmit
 4574              	.L311:
 4575 41d8 4C519FE5 		ldr	r5, .L323+28
 4576 41dc 0030D5E5 		ldrb	r3, [r5, #0]	@ zero_extendqisi2
 4577 41e0 000053E3 		cmp	r3, #0
 4578 41e4 9C10000A 		beq	.L314
 4579 41e8 010053E3 		cmp	r3, #1
 4580 41ec 9C10001A 		bne	.L314
 4581 41f0 004097E5 		ldr	r4, [r7, #0]
 4582 41f4 F000D4E1 		ldrsh	r0, [r4, #0]
 4583 41f8 FEFFFFEB 		bl	__floatsisf
 4584 41fc 5C119FE5 		ldr	r1, .L323+80
 4585 4200 FEFFFFEB 		bl	__divsf3
 4586 4204 58319FE5 		ldr	r3, .L323+84
 4587 4208 001093E5 		ldr	r1, [r3, #0]	@ float
 4588 420c FEFFFFEB 		bl	__mulsf3
 4589 4210 0010A0E3 		mov	r1, #0
 4590 4214 FEFFFFEB 		bl	__addsf3
 4591 4218 48319FE5 		ldr	r3, .L323+88
 4592 421c 000083E5 		str	r0, [r3, #0]	@ float
 4593 4220 F200D4E1 		ldrsh	r0, [r4, #2]
 4594 4224 FEFFFFEB 		bl	__floatsisf
 4595 4228 30119FE5 		ldr	r1, .L323+80
 4596 422c FEFFFFEB 		bl	__divsf3
 4597 4230 34319FE5 		ldr	r3, .L323+92
 4598 4234 001093E5 		ldr	r1, [r3, #0]	@ float
 4599 4238 FEFFFFEB 		bl	__mulsf3
 4600 423c 0010A0E3 		mov	r1, #0
 4601 4240 FEFFFFEB 		bl	__addsf3
 4602 4244 24319FE5 		ldr	r3, .L323+96
 4603 4248 000083E5 		str	r0, [r3, #0]	@ float
 4604 424c F600D4E1 		ldrsh	r0, [r4, #6]
 4605 4250 FEFFFFEB 		bl	__floatsisf
 4606 4254 04119FE5 		ldr	r1, .L323+80
 4607 4258 FEFFFFEB 		bl	__divsf3
 4608 425c 10319FE5 		ldr	r3, .L323+100
 4609 4260 001093E5 		ldr	r1, [r3, #0]	@ float
 4610 4264 FEFFFFEB 		bl	__mulsf3
 4611 4268 0010A0E3 		mov	r1, #0
 4612 426c FEFFFFEB 		bl	__addsf3
 4613 4270 00319FE5 		ldr	r3, .L323+104
 4614 4274 000083E5 		str	r0, [r3, #0]	@ float
 4615              	.L314:
 4616 4278 0030D5E5 		ldrb	r3, [r5, #0]	@ zero_extendqisi2
 4617 427c 010053E3 		cmp	r3, #1
 4618 4280 A0309F95 		ldrls	r3, .L323+24
 4619 4284 00209395 		ldrls	r2, [r3, #0]
 4620 4288 98409FE5 		ldr	r4, .L323+24
 4621 428c B420D291 		ldrlsh	r2, [r2, #4]
 4622 4290 E4309F95 		ldrls	r3, .L323+108
 4623 4294 001094E5 		ldr	r1, [r4, #0]
 4624 4298 B020C391 		strlsh	r2, [r3, #0]	@ movhi 
 4625 429c DC309FE5 		ldr	r3, .L323+112
 4626 42a0 1020D1E5 		ldrb	r2, [r1, #16]	@ zero_extendqisi2
 4627 42a4 0020C3E5 		strb	r2, [r3, #0]
 4628 42a8 D4309FE5 		ldr	r3, .L323+116
 4629 42ac B030D3E1 		ldrh	r3, [r3, #0]
 4630 42b0 1320D1E5 		ldrb	r2, [r1, #19]	@ zero_extendqisi2
 4631 42b4 000053E3 		cmp	r3, #0
 4632 42b8 C8309FE5 		ldr	r3, .L323+120
 4633 42bc 0020C3E5 		strb	r2, [r3, #0]
 4634 42c0 C010001A 		bne	.L285
 4635 42c4 B000D1E1 		ldrh	r0, [r1, #0]
 4636 42c8 4B0D80E2 		add	r0, r0, #4800
 4637 42cc 0008A0E1 		mov	r0, r0, asl #16
 4638 42d0 960550E3 		cmp	r0, #629145600
 4639 42d4 0000A093 		movls	r0, #0
 4640 42d8 0100A083 		movhi	r0, #1
 4641 42dc FEFFFFEB 		bl	ground_calibrate
 4642 42e0 44309FE5 		ldr	r3, .L323+28
 4643 42e4 0030D3E5 		ldrb	r3, [r3, #0]	@ zero_extendqisi2
 4644 42e8 020053E3 		cmp	r3, #2
 4645 42ec C010001A 		bne	.L285
 4646 42f0 003094E5 		ldr	r3, [r4, #0]
 4647 42f4 F430D3E1 		ldrsh	r3, [r3, #4]
 4648 42f8 2D0D53E3 		cmp	r3, #2880
 4649 42fc 2C309FC5 		ldrgt	r3, .L323+32
 4650 4300 0120A0C3 		movgt	r2, #1
 4651 4304 0020C3C5 		strgtb	r2, [r3, #0]
 4652              	.L285:
 4653 4308 F0689DE8 		ldmfd	sp, {r4, r5, r6, r7, fp, sp, lr}
 4654 430c 1EFF2FE1 		bx	lr
 4655              	.L324:
 4656              		.align	2
 4657              	.L323:
 4658 4310 00000000 		.word	uart1_rx_insert_idx
 4659 4314 00000000 		.word	uart1_rx_extract_idx
 4660 4318 00000000 		.word	gps_msg_received
 4661 431c 00000000 		.word	uart1_rx_buffer
 4662 4320 00000000 		.word	gps_pos_available
 4663 4324 00000000 		.word	inter_mcu_received_fbw
 4664 4328 00000000 		.word	fbw_state
 4665 432c 00000000 		.word	pprz_mode
 4666 4330 00000000 		.word	launch
 4667 4334 00000000 		.word	too_far_from_home
 4668 4338 00000000 		.word	rc_event_1
 4669 433c 24000000 		.word	mcu1_status
 4670 4340 00000000 		.word	downlink_nb_ovrn
 4671 4344 00000000 		.word	ck_a
 4672 4348 00000000 		.word	ck_b
 4673 434c 00000000 		.word	v_ctl_mode
 4674 4350 00000000 		.word	lateral_mode
 4675 4354 00000000 		.word	horizontal_mode
 4676 4358 00000000 		.word	rc_settings_mode
 4677 435c 00000000 		.word	ir_estim_mode
 4678 4360 00001646 		.word	1175846912
 4679 4364 00000000 		.word	h_ctl_roll_max_setpoint
 4680 4368 00000000 		.word	h_ctl_roll_setpoint
 4681 436c 00000000 		.word	h_ctl_pitch_max_setpoint
 4682 4370 00000000 		.word	h_ctl_pitch_setpoint
 4683 4374 00000000 		.word	h_ctl_yaw_max_setpoint
 4684 4378 00000000 		.word	h_ctl_yaw_setpoint
 4685 437c 00000000 		.word	v_ctl_throttle_setpoint
 4686 4380 25000000 		.word	mcu1_ppm_cpt
 4687 4384 00000000 		.word	estimator_flight_time
 4688 4388 00000000 		.word	vsupply
 4690              		.comm	accel_ax_scale,4,4
 4691              		.comm	accel_ay_scale,4,4
 4692              		.comm	accel_az_scale,4,4
 4693              		.comm	accel_ax_neutral,4,4
 4694              		.comm	accel_ay_neutral,4,4
 4695              		.comm	accel_az_neutral,4,4
 4696              		.comm	estimator_kalman_phi,4,4
 4697              		.comm	estimator_kalman_theta,4,4
 4698              		.comm	estimator_kalman_q_angle,4,4
 4699              		.comm	estimator_kalman_q_gyro,4,4
 4700              		.comm	estimator_kalman_r_angle,4,4
 4701              		.bss
 4702              		.align	2
 4703              	last_periodic_event:
 4704 0020 00000000 		.space	4
 4705              		.comm	vsupply,1,1
 4706              		.comm	vdrop2throt_coeff,1,1
 4707              		.comm	rc_event_1,1,1
 4708              		.comm	rc_event_2,1,1
 4709              		.comm	slider_1_val,4,4
 4710              		.comm	slider_2_val,4,4
 4711              		.comm	the_acs,480,4
 4712              		.comm	last_pprz_mode,1,1
 4713              	mcu1_status:
 4714 0024 00       		.space	1
 4715              	mcu1_ppm_cpt:
 4716 0025 00       		.space	1
 4717              		.comm	energy,4,4
 4718 0026 0000     		.ident	"GCC: (GNU) 3.4.4"