   1              		.file	"datalink.c"
   2              		.global	__floatsisf
   3              		.global	__divsf3
   4              		.global	__extendsfdf2
   5              		.global	__divdf3
   6              		.global	__muldf3
   7              		.global	__truncdfsf2
   8              		.global	__addsf3
   9              		.global	__subsf3
  10              		.global	__fixunssfsi
  11              		.text
  12              		.align	2
  13              		.global	dl_parse_msg
  15              	dl_parse_msg:
  16              		@ Function supports interworking.
  17              		@ args = 0, pretend = 0, frame = 20
  18              		@ frame_needed = 1, uses_anonymous_args = 0
  19 0000 0DC0A0E1 		mov	ip, sp
  20 0004 F0DF2DE9 		stmfd	sp!, {r4, r5, r6, r7, r8, r9, sl, fp, ip, lr, pc}
  21 0008 04B04CE2 		sub	fp, ip, #4
  22 000c 14D04DE2 		sub	sp, sp, #20
  23 0010 54549FE5 		ldr	r5, .L66+24
  24 0014 0130D5E5 		ldrb	r3, [r5, #1]	@ zero_extendqisi2
  25 0018 010053E3 		cmp	r3, #1
  26 001c 3F00001A 		bne	.L2
  27 0020 040095E5 		ldr	r0, [r5, #4]
  28 0024 FEFFFFEB 		bl	__floatsisf
  29 0028 40149FE5 		ldr	r1, .L66+28
  30 002c FEFFFFEB 		bl	__divsf3
  31 0030 0080A0E1 		mov	r8, r0
  32 0034 080095E5 		ldr	r0, [r5, #8]
  33 0038 FEFFFFEB 		bl	__floatsisf
  34 003c 2C149FE5 		ldr	r1, .L66+28
  35 0040 FEFFFFEB 		bl	__divsf3
  36 0044 00A0A0E1 		mov	sl, r0
  37 0048 0C0095E5 		ldr	r0, [r5, #12]
  38 004c FEFFFFEB 		bl	__floatsisf
  39 0050 18149FE5 		ldr	r1, .L66+28
  40 0054 FEFFFFEB 		bl	__divsf3
  41 0058 0090A0E1 		mov	r9, r0
  42 005c F200D5E1 		ldrsh	r0, [r5, #2]
  43 0060 FEFFFFEB 		bl	__floatsisf
  44 0064 FEFFFFEB 		bl	__extendsfdf2
  45 0068 F92F8FE2 		adr	r2, .L66
  46 006c 0C0092E8 		ldmia	r2, {r2-r3}
  47 0070 FEFFFFEB 		bl	__divdf3
  48 0074 3E2E8FE2 		adr	r2, .L66+8
  49 0078 0C0092E8 		ldmia	r2, {r2-r3}
  50 007c FEFFFFEB 		bl	__divdf3
  51 0080 F72F8FE2 		adr	r2, .L66+16
  52 0084 0C0092E8 		ldmia	r2, {r2-r3}
  53 0088 FEFFFFEB 		bl	__muldf3
  54 008c FEFFFFEB 		bl	__truncdfsf2
  55 0090 F441D5E1 		ldrsh	r4, [r5, #20]
  56 0094 0070A0E1 		mov	r7, r0
  57 0098 0400A0E1 		mov	r0, r4
  58 009c FEFFFFEB 		bl	__floatsisf
  59 00a0 000054E3 		cmp	r4, #0
  60 00a4 1840D5E5 		ldrb	r4, [r5, #24]	@ zero_extendqisi2
  61 00a8 C4139FB5 		ldrlt	r1, .L66+32
  62 00ac FEFFFFBB 		bllt	__addsf3
  63              	.L3:
  64 00b0 B8139FE5 		ldr	r1, .L66+28
  65 00b4 FEFFFFEB 		bl	__divsf3
  66 00b8 170054E3 		cmp	r4, #23
  67 00bc 0060A0E1 		mov	r6, r0
  68 00c0 0702008A 		bhi	.L1
  69 00c4 AC139FE5 		ldr	r1, .L66+36
  70 00c8 0800A0E1 		mov	r0, r8
  71 00cc FEFFFFEB 		bl	__subsf3
  72 00d0 A4539FE5 		ldr	r5, .L66+40
  73 00d4 044184E0 		add	r4, r4, r4, asl #2
  74 00d8 0441A0E1 		mov	r4, r4, asl #2
  75 00dc 050084E7 		str	r0, [r4, r5]	@ float
  76 00e0 98139FE5 		ldr	r1, .L66+44
  77 00e4 0A00A0E1 		mov	r0, sl
  78 00e8 FEFFFFEB 		bl	__subsf3
  79 00ec 054084E0 		add	r4, r4, r5
  80 00f0 106084E5 		str	r6, [r4, #16]	@ float
  81 00f4 040084E5 		str	r0, [r4, #4]	@ float
  82 00f8 087084E5 		str	r7, [r4, #8]	@ float
  83 00fc 0C9084E5 		str	r9, [r4, #12]	@ float
  84 0100 070200EA 		b	.L1
  85              	.L2:
  86 0104 020053E3 		cmp	r3, #2
  87 0108 CA00001A 		bne	.L6
  88 010c 0230D5E5 		ldrb	r3, [r5, #2]	@ zero_extendqisi2
  89 0110 040095E5 		ldr	r0, [r5, #4]
  90 0114 29304BE5 		strb	r3, [fp, #-41]
  91 0118 FEFFFFEB 		bl	__floatsisf
  92 011c 4C139FE5 		ldr	r1, .L66+28
  93 0120 FEFFFFEB 		bl	__divsf3
  94 0124 0060A0E1 		mov	r6, r0
  95 0128 080095E5 		ldr	r0, [r5, #8]
  96 012c 30600BE5 		str	r6, [fp, #-48]	@ float
  97 0130 FEFFFFEB 		bl	__floatsisf
  98 0134 34139FE5 		ldr	r1, .L66+28
  99 0138 FEFFFFEB 		bl	__divsf3
 100 013c 0080A0E1 		mov	r8, r0
 101 0140 0C0095E5 		ldr	r0, [r5, #12]
 102 0144 34800BE5 		str	r8, [fp, #-52]	@ float
 103 0148 FEFFFFEB 		bl	__floatsisf
 104 014c 1C139FE5 		ldr	r1, .L66+28
 105 0150 FEFFFFEB 		bl	__divsf3
 106 0154 28339FE5 		ldr	r3, .L66+48
 107 0158 29205BE5 		ldrb	r2, [fp, #-41]	@ zero_extendqisi2
 108 015c 0030D3E5 		ldrb	r3, [r3, #0]	@ zero_extendqisi2
 109 0160 030052E1 		cmp	r2, r3
 110 0164 0070A0E1 		mov	r7, r0
 111 0168 38000BE5 		str	r0, [fp, #-56]	@ float
 112 016c 6D00002A 		bcs	.L7
 113 0170 10339FE5 		ldr	r3, .L66+52
 114 0174 000093E5 		ldr	r0, [r3, #0]
 115 0178 824082E0 		add	r4, r2, r2, asl #1
 116 017c FEFFFFEB 		bl	__floatsisf
 117 0180 0010A0E1 		mov	r1, r0
 118 0184 0600A0E1 		mov	r0, r6
 119 0188 FEFFFFEB 		bl	__subsf3
 120 018c F8529FE5 		ldr	r5, .L66+56
 121 0190 F8329FE5 		ldr	r3, .L66+60
 122 0194 0441A0E1 		mov	r4, r4, asl #2
 123 0198 050084E7 		str	r0, [r4, r5]	@ float
 124 019c 000093E5 		ldr	r0, [r3, #0]
 125 01a0 FEFFFFEB 		bl	__floatsisf
 126 01a4 0010A0E1 		mov	r1, r0
 127 01a8 0800A0E1 		mov	r0, r8
 128 01ac FEFFFFEB 		bl	__subsf3
 129 01b0 054084E0 		add	r4, r4, r5
 130 01b4 087084E5 		str	r7, [r4, #8]	@ float
 131 01b8 040084E5 		str	r0, [r4, #4]	@ float
 132              	.L7:
 133 01bc 1400A0E3 		mov	r0, #20
 134 01c0 FEFFFFEB 		bl	uart0_check_free_space
 135 01c4 FF0010E3 		tst	r0, #255
 136 01c8 0302000A 		beq	.L61
 137 01cc 68439FE5 		ldr	r4, .L66+232
 138 01d0 0030A0E3 		mov	r3, #0
 139 01d4 0F00A0E3 		mov	r0, #15
 140 01d8 0030C4E5 		strb	r3, [r4, #0]
 141 01dc FEFFFFEB 		bl	uart0_transmit
 142 01e0 0030D4E5 		ldrb	r3, [r4, #0]	@ zero_extendqisi2
 143 01e4 033083E2 		add	r3, r3, #3
 144 01e8 0300A0E3 		mov	r0, #3
 145 01ec 0030C4E5 		strb	r3, [r4, #0]
 146 01f0 FEFFFFEB 		bl	uart0_transmit
 147 01f4 0030D4E5 		ldrb	r3, [r4, #0]	@ zero_extendqisi2
 148 01f8 233083E2 		add	r3, r3, #35
 149 01fc 2300A0E3 		mov	r0, #35
 150 0200 0030C4E5 		strb	r3, [r4, #0]
 151 0204 FEFFFFEB 		bl	uart0_transmit
 152 0208 29305BE5 		ldrb	r3, [fp, #-41]	@ zero_extendqisi2
 153 020c 0020D4E5 		ldrb	r2, [r4, #0]	@ zero_extendqisi2
 154 0210 0300A0E1 		mov	r0, r3
 155 0214 023083E0 		add	r3, r3, r2
 156 0218 0030C4E5 		strb	r3, [r4, #0]
 157 021c FEFFFFEB 		bl	uart0_transmit
 158 0220 30305BE5 		ldrb	r3, [fp, #-48]	@ zero_extendqisi2
 159 0224 0020D4E5 		ldrb	r2, [r4, #0]	@ zero_extendqisi2
 160 0228 0300A0E1 		mov	r0, r3
 161 022c 023083E0 		add	r3, r3, r2
 162 0230 0030C4E5 		strb	r3, [r4, #0]
 163 0234 FEFFFFEB 		bl	uart0_transmit
 164 0238 2F305BE5 		ldrb	r3, [fp, #-47]	@ zero_extendqisi2
 165 023c 0020D4E5 		ldrb	r2, [r4, #0]	@ zero_extendqisi2
 166 0240 0300A0E1 		mov	r0, r3
 167 0244 023083E0 		add	r3, r3, r2
 168 0248 0030C4E5 		strb	r3, [r4, #0]
 169 024c FEFFFFEB 		bl	uart0_transmit
 170 0250 2E305BE5 		ldrb	r3, [fp, #-46]	@ zero_extendqisi2
 171 0254 0020D4E5 		ldrb	r2, [r4, #0]	@ zero_extendqisi2
 172 0258 0300A0E1 		mov	r0, r3
 173 025c 023083E0 		add	r3, r3, r2
 174 0260 0030C4E5 		strb	r3, [r4, #0]
 175 0264 FEFFFFEB 		bl	uart0_transmit
 176 0268 2D305BE5 		ldrb	r3, [fp, #-45]	@ zero_extendqisi2
 177 026c 0020D4E5 		ldrb	r2, [r4, #0]	@ zero_extendqisi2
 178 0270 0300A0E1 		mov	r0, r3
 179 0274 023083E0 		add	r3, r3, r2
 180 0278 0030C4E5 		strb	r3, [r4, #0]
 181 027c FEFFFFEB 		bl	uart0_transmit
 182 0280 34305BE5 		ldrb	r3, [fp, #-52]	@ zero_extendqisi2
 183 0284 0020D4E5 		ldrb	r2, [r4, #0]	@ zero_extendqisi2
 184 0288 0300A0E1 		mov	r0, r3
 185 028c 023083E0 		add	r3, r3, r2
 186 0290 0030C4E5 		strb	r3, [r4, #0]
 187 0294 FEFFFFEB 		bl	uart0_transmit
 188 0298 33305BE5 		ldrb	r3, [fp, #-51]	@ zero_extendqisi2
 189 029c 0020D4E5 		ldrb	r2, [r4, #0]	@ zero_extendqisi2
 190 02a0 0300A0E1 		mov	r0, r3
 191 02a4 023083E0 		add	r3, r3, r2
 192 02a8 0030C4E5 		strb	r3, [r4, #0]
 193 02ac FEFFFFEB 		bl	uart0_transmit
 194 02b0 32305BE5 		ldrb	r3, [fp, #-50]	@ zero_extendqisi2
 195 02b4 0020D4E5 		ldrb	r2, [r4, #0]	@ zero_extendqisi2
 196 02b8 0300A0E1 		mov	r0, r3
 197 02bc 023083E0 		add	r3, r3, r2
 198 02c0 0030C4E5 		strb	r3, [r4, #0]
 199 02c4 FEFFFFEB 		bl	uart0_transmit
 200 02c8 31305BE5 		ldrb	r3, [fp, #-49]	@ zero_extendqisi2
 201 02cc 0020D4E5 		ldrb	r2, [r4, #0]	@ zero_extendqisi2
 202 02d0 0300A0E1 		mov	r0, r3
 203 02d4 023083E0 		add	r3, r3, r2
 204 02d8 0030C4E5 		strb	r3, [r4, #0]
 205 02dc FEFFFFEB 		bl	uart0_transmit
 206 02e0 38305BE5 		ldrb	r3, [fp, #-56]	@ zero_extendqisi2
 207 02e4 0020D4E5 		ldrb	r2, [r4, #0]	@ zero_extendqisi2
 208 02e8 0300A0E1 		mov	r0, r3
 209 02ec 023083E0 		add	r3, r3, r2
 210 02f0 0030C4E5 		strb	r3, [r4, #0]
 211 02f4 FEFFFFEB 		bl	uart0_transmit
 212 02f8 37305BE5 		ldrb	r3, [fp, #-55]	@ zero_extendqisi2
 213 02fc 0020D4E5 		ldrb	r2, [r4, #0]	@ zero_extendqisi2
 214 0300 0300A0E1 		mov	r0, r3
 215 0304 023083E0 		add	r3, r3, r2
 216 0308 0030C4E5 		strb	r3, [r4, #0]
 217 030c FEFFFFEB 		bl	uart0_transmit
 218 0310 36305BE5 		ldrb	r3, [fp, #-54]	@ zero_extendqisi2
 219 0314 0020D4E5 		ldrb	r2, [r4, #0]	@ zero_extendqisi2
 220 0318 0300A0E1 		mov	r0, r3
 221 031c 023083E0 		add	r3, r3, r2
 222 0320 0030C4E5 		strb	r3, [r4, #0]
 223 0324 FEFFFFEB 		bl	uart0_transmit
 224 0328 35305BE5 		ldrb	r3, [fp, #-53]	@ zero_extendqisi2
 225 032c FB0100EA 		b	.L65
 226              	.L6:
 227 0330 050053E3 		cmp	r3, #5
 228 0334 CF00001A 		bne	.L11
 229 0338 0200D5E5 		ldrb	r0, [r5, #2]	@ zero_extendqisi2
 230 033c FEFFFFEB 		bl	nav_goto_block
 231 0340 070200EA 		b	.L1
 232              	.L11:
 233 0344 030053E3 		cmp	r3, #3
 234 0348 D800001A 		bne	.L13
 235 034c 042095E5 		ldr	r2, [r5, #4]	@ float
 236 0350 48319FE5 		ldr	r3, .L66+76
 237 0354 081095E5 		ldr	r1, [r5, #8]	@ float
 238 0358 002083E5 		str	r2, [r3, #0]	@ float
 239 035c 40319FE5 		ldr	r3, .L66+80
 240 0360 001083E5 		str	r1, [r3, #0]	@ float
 241 0364 070200EA 		b	.L1
 242              	.L13:
 243 0368 080053E3 		cmp	r3, #8
 244 036c 0220D505 		ldreqb	r2, [r5, #2]	@ zero_extendqisi2
 245 0370 1C319F05 		ldreq	r3, .L66+64
 246 0374 0020C305 		streqb	r2, [r3, #0]
 247 0378 0702000A 		beq	.L1
 248 037c 040053E3 		cmp	r3, #4
 249 0380 0702001A 		bne	.L1
 250 0384 0230D5E5 		ldrb	r3, [r5, #2]	@ zero_extendqisi2
 251 0388 2A304BE5 		strb	r3, [fp, #-42]
 252 038c 042095E5 		ldr	r2, [r5, #4]	@ float
 253 0390 2A305BE5 		ldrb	r3, [fp, #-42]	@ zero_extendqisi2
 254 0394 3C200BE5 		str	r2, [fp, #-60]	@ float
 255 0398 280053E3 		cmp	r3, #40
 256 039c 03F19F97 		ldrls	pc, [pc, r3, asl #2]
 257 03a0 CF0100EA 		b	.L18
 258              		.p2align 2
 259              	.L60:
 260 03a4 48040000 		.word	.L19
 261 03a8 44050000 		.word	.L20
 262 03ac 54050000 		.word	.L21
 263 03b0 60050000 		.word	.L22
 264 03b4 6C050000 		.word	.L23
 265 03b8 7C050000 		.word	.L24
 266 03bc 8C050000 		.word	.L25
 267 03c0 A0050000 		.word	.L26
 268 03c4 B0050000 		.word	.L27
 269 03c8 C4050000 		.word	.L28
 270 03cc D0050000 		.word	.L29
 271 03d0 DC050000 		.word	.L30
 272 03d4 E8050000 		.word	.L31
 273 03d8 F4050000 		.word	.L32
 274 03dc 00060000 		.word	.L33
 275 03e0 0C060000 		.word	.L34
 276 03e4 18060000 		.word	.L35
 277 03e8 24060000 		.word	.L36
 278 03ec 30060000 		.word	.L37
 279 03f0 3C060000 		.word	.L38
 280 03f4 48060000 		.word	.L39
 281 03f8 54060000 		.word	.L40
 282 03fc 60060000 		.word	.L41
 283 0400 6C060000 		.word	.L42
 284 0404 78060000 		.word	.L43
 285 0408 84060000 		.word	.L44
 286 040c 90060000 		.word	.L45
 287 0410 9C060000 		.word	.L46
 288 0414 A8060000 		.word	.L47
 289 0418 B4060000 		.word	.L48
 290 041c C0060000 		.word	.L49
 291 0420 CC060000 		.word	.L50
 292 0424 D8060000 		.word	.L51
 293 0428 E4060000 		.word	.L52
 294 042c F0060000 		.word	.L53
 295 0430 FC060000 		.word	.L54
 296 0434 08070000 		.word	.L55
 297 0438 14070000 		.word	.L56
 298 043c 20070000 		.word	.L57
 299 0440 2C070000 		.word	.L58
 300 0444 38070000 		.word	.L59
 301              	.L19:
 302 0448 3C201BE5 		ldr	r2, [fp, #-60]	@ float
 303 044c 44309FE5 		ldr	r3, .L66+68
 304 0450 CE0100EA 		b	.L63
 305              	.L67:
 306              		.align	2
 307              	.L66:
 308 0454 00002440 		.word	1076101120
 309 0458 00000000 		.word	0
 310 045c 00806640 		.word	1080459264
 311 0460 00000000 		.word	0
 312 0464 FB210940 		.word	1074340347
 313 0468 182D4454 		.word	1413754136
 314 046c 00000000 		.word	dl_buffer
 315 0470 0000C842 		.word	1120403456
 316 0474 00008047 		.word	1199570944
 317 0478 E0D6AE48 		.word	1219417824
 318 047c 00000000 		.word	the_acs
 319 0480 2229934A 		.word	1251158306
 320 0484 00000000 		.word	nb_waypoint
 321 0488 00000000 		.word	nav_utm_east0
 322 048c 00000000 		.word	waypoints
 323 0490 00000000 		.word	nav_utm_north0
 324 0494 00000000 		.word	telemetry_mode_Ap
 325 0498 00000000 		.word	flight_altitude
 326 049c 00000000 		.word	light_mode
 327 04a0 00000000 		.word	wind_east
 328 04a4 00000000 		.word	wind_north
 329 04a8 00000000 		.word	pprz_mode
 330 04ac 00000000 		.word	alt_kalman_enabled
 331 04b0 00000000 		.word	estimator_flight_time
 332 04b4 00000000 		.word	launch
 333 04b8 00000000 		.word	kill_throttle
 334 04bc 00000000 		.word	gyro_roll_adc
 335 04c0 00000000 		.word	gyro_pitch_adc
 336 04c4 00000000 		.word	gyro_yaw_adc
 337 04c8 00000000 		.word	range_scale
 338 04cc 00000000 		.word	range_neutral
 339 04d0 00000000 		.word	h_ctl_elevator_of_roll
 340 04d4 00000000 		.word	h_ctl_roll_rate_setpoint_pgain
 341 04d8 00000000 		.word	h_ctl_hi_throttle_roll_rate_pgain
 342 04dc 00000000 		.word	h_ctl_lo_throttle_roll_rate_pgain
 343 04e0 00000000 		.word	h_ctl_pitch_rate_setpoint_pgain
 344 04e4 00000000 		.word	h_ctl_hi_throttle_pitch_rate_pgain
 345 04e8 00000000 		.word	h_ctl_lo_throttle_pitch_rate_pgain
 346 04ec 00000000 		.word	h_ctl_yaw_rate_setpoint_pgain
 347 04f0 00000000 		.word	h_ctl_hi_throttle_yaw_rate_pgain
 348 04f4 00000000 		.word	h_ctl_lo_throttle_yaw_rate_pgain
 349 04f8 00000000 		.word	v_ctl_altitude_pgain
 350 04fc 00000000 		.word	v_ctl_altitude_pgain2
 351 0500 00000000 		.word	v_ctl_auto_throttle_cruise_throttle
 352 0504 00000000 		.word	v_ctl_auto_throttle_cruise_throttle_pgain
 353 0508 00000000 		.word	v_ctl_auto_throttle_pgain_plus
 354 050c 00000000 		.word	v_ctl_auto_throttle_pgain_minus
 355 0510 00000000 		.word	v_ctl_auto_throttle_igain_plus
 356 0514 00000000 		.word	v_ctl_auto_throttle_igain_minus
 357 0518 00000000 		.word	v_ctl_auto_throttle_climb_throttle_increment_plus
 358 051c 00000000 		.word	v_ctl_auto_throttle_climb_throttle_increment_minus
 359 0520 00000000 		.word	v_ctl_auto_throttle_cruise_throttle_pgain2
 360 0524 00000000 		.word	v_ctl_auto_throttle_pgain_plus2
 361 0528 00000000 		.word	v_ctl_auto_throttle_pgain_minus2
 362 052c 00000000 		.word	v_ctl_auto_throttle_igain_plus2
 363 0530 00000000 		.word	v_ctl_auto_throttle_igain_minus2
 364 0534 00000000 		.word	v_ctl_auto_throttle_climb_throttle_increment_plus2
 365 0538 00000000 		.word	v_ctl_auto_throttle_climb_throttle_increment_minus2
 366 053c 00000000 		.word	aerocomm_cs
 367 0540 00000000 		.word	downlink_nb_ovrn
 368              	.L20:
 369 0544 3C001BE5 		ldr	r0, [fp, #-60]	@ float
 370 0548 FEFFFFEB 		bl	__fixunssfsi
 371 054c B8301FE5 		ldr	r3, .L66+72
 372 0550 6D0100EA 		b	.L64
 373              	.L21:
 374 0554 3C201BE5 		ldr	r2, [fp, #-60]	@ float
 375 0558 C0301FE5 		ldr	r3, .L66+76
 376 055c CE0100EA 		b	.L63
 377              	.L22:
 378 0560 3C201BE5 		ldr	r2, [fp, #-60]	@ float
 379 0564 C8301FE5 		ldr	r3, .L66+80
 380 0568 CE0100EA 		b	.L63
 381              	.L23:
 382 056c 3C001BE5 		ldr	r0, [fp, #-60]	@ float
 383 0570 FEFFFFEB 		bl	__fixunssfsi
 384 0574 D4301FE5 		ldr	r3, .L66+84
 385 0578 6D0100EA 		b	.L64
 386              	.L24:
 387 057c 3C001BE5 		ldr	r0, [fp, #-60]	@ float
 388 0580 FEFFFFEB 		bl	__fixunssfsi
 389 0584 E0301FE5 		ldr	r3, .L66+88
 390 0588 6D0100EA 		b	.L64
 391              	.L25:
 392 058c 3C001BE5 		ldr	r0, [fp, #-60]	@ float
 393 0590 FEFFFFEB 		bl	__fixunssfsi
 394 0594 EC301FE5 		ldr	r3, .L66+92
 395 0598 B000C3E1 		strh	r0, [r3, #0]	@ movhi 
 396 059c CF0100EA 		b	.L18
 397              	.L26:
 398 05a0 3C001BE5 		ldr	r0, [fp, #-60]	@ float
 399 05a4 FEFFFFEB 		bl	__fixunssfsi
 400 05a8 FC301FE5 		ldr	r3, .L66+96
 401 05ac 6D0100EA 		b	.L64
 402              	.L27:
 403 05b0 3C001BE5 		ldr	r0, [fp, #-60]	@ float
 404 05b4 FEFFFFEB 		bl	__fixunssfsi
 405 05b8 08311FE5 		ldr	r3, .L66+100
 406              	.L64:
 407 05bc 0000C3E5 		strb	r0, [r3, #0]
 408 05c0 CF0100EA 		b	.L18
 409              	.L28:
 410 05c4 3C201BE5 		ldr	r2, [fp, #-60]	@ float
 411 05c8 14311FE5 		ldr	r3, .L66+104
 412 05cc CE0100EA 		b	.L63
 413              	.L29:
 414 05d0 3C201BE5 		ldr	r2, [fp, #-60]	@ float
 415 05d4 1C311FE5 		ldr	r3, .L66+108
 416 05d8 CE0100EA 		b	.L63
 417              	.L30:
 418 05dc 3C201BE5 		ldr	r2, [fp, #-60]	@ float
 419 05e0 24311FE5 		ldr	r3, .L66+112
 420 05e4 CE0100EA 		b	.L63
 421              	.L31:
 422 05e8 3C201BE5 		ldr	r2, [fp, #-60]	@ float
 423 05ec 2C311FE5 		ldr	r3, .L66+116
 424 05f0 CE0100EA 		b	.L63
 425              	.L32:
 426 05f4 3C201BE5 		ldr	r2, [fp, #-60]	@ float
 427 05f8 34311FE5 		ldr	r3, .L66+120
 428 05fc CE0100EA 		b	.L63
 429              	.L33:
 430 0600 3C201BE5 		ldr	r2, [fp, #-60]	@ float
 431 0604 3C311FE5 		ldr	r3, .L66+124
 432 0608 CE0100EA 		b	.L63
 433              	.L34:
 434 060c 3C201BE5 		ldr	r2, [fp, #-60]	@ float
 435 0610 44311FE5 		ldr	r3, .L66+128
 436 0614 CE0100EA 		b	.L63
 437              	.L35:
 438 0618 3C201BE5 		ldr	r2, [fp, #-60]	@ float
 439 061c 4C311FE5 		ldr	r3, .L66+132
 440 0620 CE0100EA 		b	.L63
 441              	.L36:
 442 0624 3C201BE5 		ldr	r2, [fp, #-60]	@ float
 443 0628 54311FE5 		ldr	r3, .L66+136
 444 062c CE0100EA 		b	.L63
 445              	.L37:
 446 0630 3C201BE5 		ldr	r2, [fp, #-60]	@ float
 447 0634 5C311FE5 		ldr	r3, .L66+140
 448 0638 CE0100EA 		b	.L63
 449              	.L38:
 450 063c 3C201BE5 		ldr	r2, [fp, #-60]	@ float
 451 0640 64311FE5 		ldr	r3, .L66+144
 452 0644 CE0100EA 		b	.L63
 453              	.L39:
 454 0648 3C201BE5 		ldr	r2, [fp, #-60]	@ float
 455 064c 6C311FE5 		ldr	r3, .L66+148
 456 0650 CE0100EA 		b	.L63
 457              	.L40:
 458 0654 3C201BE5 		ldr	r2, [fp, #-60]	@ float
 459 0658 74311FE5 		ldr	r3, .L66+152
 460 065c CE0100EA 		b	.L63
 461              	.L41:
 462 0660 3C201BE5 		ldr	r2, [fp, #-60]	@ float
 463 0664 7C311FE5 		ldr	r3, .L66+156
 464 0668 CE0100EA 		b	.L63
 465              	.L42:
 466 066c 3C201BE5 		ldr	r2, [fp, #-60]	@ float
 467 0670 84311FE5 		ldr	r3, .L66+160
 468 0674 CE0100EA 		b	.L63
 469              	.L43:
 470 0678 3C201BE5 		ldr	r2, [fp, #-60]	@ float
 471 067c 8C311FE5 		ldr	r3, .L66+164
 472 0680 CE0100EA 		b	.L63
 473              	.L44:
 474 0684 3C201BE5 		ldr	r2, [fp, #-60]	@ float
 475 0688 94311FE5 		ldr	r3, .L66+168
 476 068c CE0100EA 		b	.L63
 477              	.L45:
 478 0690 3C201BE5 		ldr	r2, [fp, #-60]	@ float
 479 0694 9C311FE5 		ldr	r3, .L66+172
 480 0698 CE0100EA 		b	.L63
 481              	.L46:
 482 069c 3C201BE5 		ldr	r2, [fp, #-60]	@ float
 483 06a0 A4311FE5 		ldr	r3, .L66+176
 484 06a4 CE0100EA 		b	.L63
 485              	.L47:
 486 06a8 3C201BE5 		ldr	r2, [fp, #-60]	@ float
 487 06ac AC311FE5 		ldr	r3, .L66+180
 488 06b0 CE0100EA 		b	.L63
 489              	.L48:
 490 06b4 3C201BE5 		ldr	r2, [fp, #-60]	@ float
 491 06b8 B4311FE5 		ldr	r3, .L66+184
 492 06bc CE0100EA 		b	.L63
 493              	.L49:
 494 06c0 3C201BE5 		ldr	r2, [fp, #-60]	@ float
 495 06c4 BC311FE5 		ldr	r3, .L66+188
 496 06c8 CE0100EA 		b	.L63
 497              	.L50:
 498 06cc 3C201BE5 		ldr	r2, [fp, #-60]	@ float
 499 06d0 C4311FE5 		ldr	r3, .L66+192
 500 06d4 CE0100EA 		b	.L63
 501              	.L51:
 502 06d8 3C201BE5 		ldr	r2, [fp, #-60]	@ float
 503 06dc CC311FE5 		ldr	r3, .L66+196
 504 06e0 CE0100EA 		b	.L63
 505              	.L52:
 506 06e4 3C201BE5 		ldr	r2, [fp, #-60]	@ float
 507 06e8 D4311FE5 		ldr	r3, .L66+200
 508 06ec CE0100EA 		b	.L63
 509              	.L53:
 510 06f0 3C201BE5 		ldr	r2, [fp, #-60]	@ float
 511 06f4 DC311FE5 		ldr	r3, .L66+204
 512 06f8 CE0100EA 		b	.L63
 513              	.L54:
 514 06fc 3C201BE5 		ldr	r2, [fp, #-60]	@ float
 515 0700 E4311FE5 		ldr	r3, .L66+208
 516 0704 CE0100EA 		b	.L63
 517              	.L55:
 518 0708 3C201BE5 		ldr	r2, [fp, #-60]	@ float
 519 070c EC311FE5 		ldr	r3, .L66+212
 520 0710 CE0100EA 		b	.L63
 521              	.L56:
 522 0714 3C201BE5 		ldr	r2, [fp, #-60]	@ float
 523 0718 F4311FE5 		ldr	r3, .L66+216
 524 071c CE0100EA 		b	.L63
 525              	.L57:
 526 0720 3C201BE5 		ldr	r2, [fp, #-60]	@ float
 527 0724 FC311FE5 		ldr	r3, .L66+220
 528 0728 CE0100EA 		b	.L63
 529              	.L58:
 530 072c 3C201BE5 		ldr	r2, [fp, #-60]	@ float
 531 0730 04321FE5 		ldr	r3, .L66+224
 532 0734 CE0100EA 		b	.L63
 533              	.L59:
 534 0738 3C201BE5 		ldr	r2, [fp, #-60]	@ float
 535 073c 0C321FE5 		ldr	r3, .L66+228
 536              	.L63:
 537 0740 002083E5 		str	r2, [r3, #0]	@ float
 538              	.L18:
 539 0744 0C00A0E3 		mov	r0, #12
 540 0748 FEFFFFEB 		bl	uart0_check_free_space
 541 074c FF0010E3 		tst	r0, #255
 542 0750 0302000A 		beq	.L61
 543 0754 20421FE5 		ldr	r4, .L66+232
 544 0758 0030A0E3 		mov	r3, #0
 545 075c 0700A0E3 		mov	r0, #7
 546 0760 0030C4E5 		strb	r3, [r4, #0]
 547 0764 FEFFFFEB 		bl	uart0_transmit
 548 0768 0030D4E5 		ldrb	r3, [r4, #0]	@ zero_extendqisi2
 549 076c 033083E2 		add	r3, r3, #3
 550 0770 0300A0E3 		mov	r0, #3
 551 0774 0030C4E5 		strb	r3, [r4, #0]
 552 0778 FEFFFFEB 		bl	uart0_transmit
 553 077c 0030D4E5 		ldrb	r3, [r4, #0]	@ zero_extendqisi2
 554 0780 1F3083E2 		add	r3, r3, #31
 555 0784 1F00A0E3 		mov	r0, #31
 556 0788 0030C4E5 		strb	r3, [r4, #0]
 557 078c FEFFFFEB 		bl	uart0_transmit
 558 0790 2A305BE5 		ldrb	r3, [fp, #-42]	@ zero_extendqisi2
 559 0794 0020D4E5 		ldrb	r2, [r4, #0]	@ zero_extendqisi2
 560 0798 0300A0E1 		mov	r0, r3
 561 079c 023083E0 		add	r3, r3, r2
 562 07a0 0030C4E5 		strb	r3, [r4, #0]
 563 07a4 FEFFFFEB 		bl	uart0_transmit
 564 07a8 3C305BE5 		ldrb	r3, [fp, #-60]	@ zero_extendqisi2
 565 07ac 0020D4E5 		ldrb	r2, [r4, #0]	@ zero_extendqisi2
 566 07b0 0300A0E1 		mov	r0, r3
 567 07b4 023083E0 		add	r3, r3, r2
 568 07b8 0030C4E5 		strb	r3, [r4, #0]
 569 07bc FEFFFFEB 		bl	uart0_transmit
 570 07c0 3B305BE5 		ldrb	r3, [fp, #-59]	@ zero_extendqisi2
 571 07c4 0020D4E5 		ldrb	r2, [r4, #0]	@ zero_extendqisi2
 572 07c8 0300A0E1 		mov	r0, r3
 573 07cc 023083E0 		add	r3, r3, r2
 574 07d0 0030C4E5 		strb	r3, [r4, #0]
 575 07d4 FEFFFFEB 		bl	uart0_transmit
 576 07d8 3A305BE5 		ldrb	r3, [fp, #-58]	@ zero_extendqisi2
 577 07dc 0020D4E5 		ldrb	r2, [r4, #0]	@ zero_extendqisi2
 578 07e0 0300A0E1 		mov	r0, r3
 579 07e4 023083E0 		add	r3, r3, r2
 580 07e8 0030C4E5 		strb	r3, [r4, #0]
 581 07ec FEFFFFEB 		bl	uart0_transmit
 582 07f0 39305BE5 		ldrb	r3, [fp, #-57]	@ zero_extendqisi2
 583              	.L65:
 584 07f4 0020D4E5 		ldrb	r2, [r4, #0]	@ zero_extendqisi2
 585 07f8 0300A0E1 		mov	r0, r3
 586 07fc 023083E0 		add	r3, r3, r2
 587 0800 0030C4E5 		strb	r3, [r4, #0]
 588 0804 FEFFFFEB 		bl	uart0_transmit
 589 0808 FF00A0E3 		mov	r0, #255
 590 080c FEFFFFEB 		bl	uart0_transmit
 591 0810 070200EA 		b	.L1
 592              	.L61:
 593 0814 DC221FE5 		ldr	r2, .L66+236
 594 0818 0030D2E5 		ldrb	r3, [r2, #0]	@ zero_extendqisi2
 595 081c 013083E2 		add	r3, r3, #1
 596 0820 0030C2E5 		strb	r3, [r2, #0]
 597              	.L1:
 598 0824 28D04BE2 		sub	sp, fp, #40
 599 0828 F06F9DE8 		ldmfd	sp, {r4, r5, r6, r7, r8, r9, sl, fp, sp, lr}
 600 082c 1EFF2FE1 		bx	lr
 602              		.comm	the_acs,480,4
 603              		.comm	dl_msg_available,1,1
 604              		.comm	dl_buffer,128,4
 605              		.bss
 606              		.align	2
 607              	last_periodic_event:
 608 0000 00000000 		.space	4
 609              		.comm	accel_ax_scale,4,4
 610              		.comm	accel_ay_scale,4,4
 611              		.comm	accel_az_scale,4,4
 612              		.comm	accel_ax_neutral,4,4
 613              		.comm	accel_ay_neutral,4,4
 614              		.comm	accel_az_neutral,4,4
 615              		.comm	estimator_kalman_phi,4,4
 616              		.comm	estimator_kalman_theta,4,4
 617              		.comm	estimator_kalman_q_angle,4,4
 618              		.comm	estimator_kalman_q_gyro,4,4
 619              		.comm	estimator_kalman_r_angle,4,4
 620              		.ident	"GCC: (GNU) 3.4.4"
DEFINED SYMBOLS
                            *ABS*:00000000 datalink.c
     /tmp/ccEFYB3v.s:15     .text:00000000 dl_parse_msg
     /tmp/ccEFYB3v.s:19     .text:00000000 $a
     /tmp/ccEFYB3v.s:260    .text:000003a4 $d
     /tmp/ccEFYB3v.s:302    .text:00000448 $a
     /tmp/ccEFYB3v.s:308    .text:00000454 $d
                            *COM*:00000080 dl_buffer
                            *COM*:000001e0 the_acs
     /tmp/ccEFYB3v.s:369    .text:00000544 $a
                            *COM*:00000001 dl_msg_available
                             .bss:00000000 $d
     /tmp/ccEFYB3v.s:607    .bss:00000000 last_periodic_event
                            *COM*:00000004 accel_ax_scale
                            *COM*:00000004 accel_ay_scale
                            *COM*:00000004 accel_az_scale
                            *COM*:00000004 accel_ax_neutral
                            *COM*:00000004 accel_ay_neutral
                            *COM*:00000004 accel_az_neutral
                            *COM*:00000004 estimator_kalman_phi
                            *COM*:00000004 estimator_kalman_theta
                            *COM*:00000004 estimator_kalman_q_angle
                            *COM*:00000004 estimator_kalman_q_gyro
                            *COM*:00000004 estimator_kalman_r_angle

UNDEFINED SYMBOLS
__floatsisf
__divsf3
__extendsfdf2
__divdf3
__muldf3
__truncdfsf2
__addsf3
__subsf3
__fixunssfsi
uart0_check_free_space
uart0_transmit
nav_goto_block
nb_waypoint
nav_utm_east0
waypoints
nav_utm_north0
telemetry_mode_Ap
flight_altitude
light_mode
wind_east
wind_north
pprz_mode
alt_kalman_enabled
estimator_flight_time
launch
kill_throttle
gyro_roll_adc
gyro_pitch_adc
gyro_yaw_adc
range_scale
range_neutral
h_ctl_elevator_of_roll
h_ctl_roll_rate_setpoint_pgain
h_ctl_hi_throttle_roll_rate_pgain
h_ctl_lo_throttle_roll_rate_pgain
h_ctl_pitch_rate_setpoint_pgain
h_ctl_hi_throttle_pitch_rate_pgain
h_ctl_lo_throttle_pitch_rate_pgain
h_ctl_yaw_rate_setpoint_pgain
h_ctl_hi_throttle_yaw_rate_pgain
h_ctl_lo_throttle_yaw_rate_pgain
v_ctl_altitude_pgain
v_ctl_altitude_pgain2
v_ctl_auto_throttle_cruise_throttle
v_ctl_auto_throttle_cruise_throttle_pgain
v_ctl_auto_throttle_pgain_plus
v_ctl_auto_throttle_pgain_minus
v_ctl_auto_throttle_igain_plus
v_ctl_auto_throttle_igain_minus
v_ctl_auto_throttle_climb_throttle_increment_plus
v_ctl_auto_throttle_climb_throttle_increment_minus
v_ctl_auto_throttle_cruise_throttle_pgain2
v_ctl_auto_throttle_pgain_plus2
v_ctl_auto_throttle_pgain_minus2
v_ctl_auto_throttle_igain_plus2
v_ctl_auto_throttle_igain_minus2
v_ctl_auto_throttle_climb_throttle_increment_plus2
v_ctl_auto_throttle_climb_throttle_increment_minus2
aerocomm_cs
downlink_nb_ovrn
